; Listing generated by Microsoft (R) Optimizing Compiler Version 16.00.40219.01 

	TITLE	C:\levolver\yonkang-sefit\levolver\ev_ogl\DUMP.C
	.686P
	.XMM
	include listing.inc
	.model	flat

INCLUDELIB LIBCMT
INCLUDELIB OLDNAMES

PUBLIC	??_C@_05PMAELIEO@white?$AA@			; `string'
PUBLIC	??_C@_06ENJNJKEL@yellow?$AA@			; `string'
PUBLIC	??_C@_0N@BBECPGBJ@lightmagenta?$AA@		; `string'
PUBLIC	??_C@_08EEFKFEFN@lightred?$AA@			; `string'
PUBLIC	??_C@_09KPGEKFMK@lightcyan?$AA@			; `string'
PUBLIC	??_C@_0L@OPBGACJD@lightgreen?$AA@		; `string'
PUBLIC	??_C@_09NBIPJLA@lightblue?$AA@			; `string'
PUBLIC	??_C@_08EADAAFKF@darkgray?$AA@			; `string'
PUBLIC	??_C@_09IIGGAAJN@lightgray?$AA@			; `string'
PUBLIC	??_C@_05EBJGJMAL@brown?$AA@			; `string'
PUBLIC	??_C@_07EMDGAPCI@magenta?$AA@			; `string'
PUBLIC	??_C@_03FAAAOPJM@red?$AA@			; `string'
PUBLIC	??_C@_04EDBDANFH@cyan?$AA@			; `string'
PUBLIC	??_C@_05GBEEJKMC@green?$AA@			; `string'
PUBLIC	??_C@_04OBGPFBCN@blue?$AA@			; `string'
PUBLIC	??_C@_05BIMBDNDC@black?$AA@			; `string'
PUBLIC	??_C@_05MEHLAELG@clear?$AA@			; `string'
PUBLIC	_color_names
_DATA	SEGMENT
_color_names DD	FLAT:??_C@_05MEHLAELG@clear?$AA@
	DD	FLAT:??_C@_05BIMBDNDC@black?$AA@
	DD	FLAT:??_C@_04OBGPFBCN@blue?$AA@
	DD	FLAT:??_C@_05GBEEJKMC@green?$AA@
	DD	FLAT:??_C@_04EDBDANFH@cyan?$AA@
	DD	FLAT:??_C@_03FAAAOPJM@red?$AA@
	DD	FLAT:??_C@_07EMDGAPCI@magenta?$AA@
	DD	FLAT:??_C@_05EBJGJMAL@brown?$AA@
	DD	FLAT:??_C@_09IIGGAAJN@lightgray?$AA@
	DD	FLAT:??_C@_08EADAAFKF@darkgray?$AA@
	DD	FLAT:??_C@_09NBIPJLA@lightblue?$AA@
	DD	FLAT:??_C@_0L@OPBGACJD@lightgreen?$AA@
	DD	FLAT:??_C@_09KPGEKFMK@lightcyan?$AA@
	DD	FLAT:??_C@_08EEFKFEFN@lightred?$AA@
	DD	FLAT:??_C@_0N@BBECPGBJ@lightmagenta?$AA@
	DD	FLAT:??_C@_06ENJNJKEL@yellow?$AA@
	DD	FLAT:??_C@_05PMAELIEO@white?$AA@
_DATA	ENDS
;	COMDAT ??_C@_05PMAELIEO@white?$AA@
CONST	SEGMENT
??_C@_05PMAELIEO@white?$AA@ DB 'white', 00H		; `string'
CONST	ENDS
;	COMDAT ??_C@_06ENJNJKEL@yellow?$AA@
CONST	SEGMENT
??_C@_06ENJNJKEL@yellow?$AA@ DB 'yellow', 00H		; `string'
CONST	ENDS
;	COMDAT ??_C@_0N@BBECPGBJ@lightmagenta?$AA@
CONST	SEGMENT
??_C@_0N@BBECPGBJ@lightmagenta?$AA@ DB 'lightmagenta', 00H ; `string'
CONST	ENDS
;	COMDAT ??_C@_08EEFKFEFN@lightred?$AA@
CONST	SEGMENT
??_C@_08EEFKFEFN@lightred?$AA@ DB 'lightred', 00H	; `string'
CONST	ENDS
;	COMDAT ??_C@_09KPGEKFMK@lightcyan?$AA@
CONST	SEGMENT
??_C@_09KPGEKFMK@lightcyan?$AA@ DB 'lightcyan', 00H	; `string'
CONST	ENDS
;	COMDAT ??_C@_0L@OPBGACJD@lightgreen?$AA@
CONST	SEGMENT
??_C@_0L@OPBGACJD@lightgreen?$AA@ DB 'lightgreen', 00H	; `string'
CONST	ENDS
;	COMDAT ??_C@_09NBIPJLA@lightblue?$AA@
CONST	SEGMENT
??_C@_09NBIPJLA@lightblue?$AA@ DB 'lightblue', 00H	; `string'
CONST	ENDS
;	COMDAT ??_C@_08EADAAFKF@darkgray?$AA@
CONST	SEGMENT
??_C@_08EADAAFKF@darkgray?$AA@ DB 'darkgray', 00H	; `string'
CONST	ENDS
;	COMDAT ??_C@_09IIGGAAJN@lightgray?$AA@
CONST	SEGMENT
??_C@_09IIGGAAJN@lightgray?$AA@ DB 'lightgray', 00H	; `string'
CONST	ENDS
;	COMDAT ??_C@_05EBJGJMAL@brown?$AA@
CONST	SEGMENT
??_C@_05EBJGJMAL@brown?$AA@ DB 'brown', 00H		; `string'
CONST	ENDS
;	COMDAT ??_C@_07EMDGAPCI@magenta?$AA@
CONST	SEGMENT
??_C@_07EMDGAPCI@magenta?$AA@ DB 'magenta', 00H		; `string'
CONST	ENDS
;	COMDAT ??_C@_03FAAAOPJM@red?$AA@
CONST	SEGMENT
??_C@_03FAAAOPJM@red?$AA@ DB 'red', 00H			; `string'
CONST	ENDS
;	COMDAT ??_C@_04EDBDANFH@cyan?$AA@
CONST	SEGMENT
??_C@_04EDBDANFH@cyan?$AA@ DB 'cyan', 00H		; `string'
CONST	ENDS
;	COMDAT ??_C@_05GBEEJKMC@green?$AA@
CONST	SEGMENT
??_C@_05GBEEJKMC@green?$AA@ DB 'green', 00H		; `string'
CONST	ENDS
;	COMDAT ??_C@_04OBGPFBCN@blue?$AA@
CONST	SEGMENT
??_C@_04OBGPFBCN@blue?$AA@ DB 'blue', 00H		; `string'
CONST	ENDS
;	COMDAT ??_C@_05BIMBDNDC@black?$AA@
CONST	SEGMENT
??_C@_05BIMBDNDC@black?$AA@ DB 'black', 00H		; `string'
CONST	ENDS
;	COMDAT ??_C@_05MEHLAELG@clear?$AA@
CONST	SEGMENT
??_C@_05MEHLAELG@clear?$AA@ DB 'clear', 00H		; `string'
CONST	ENDS
PUBLIC	_get_fe_edge
EXTRN	_web:BYTE
; Function compile flags: /Ogtp
; File c:\levolver\yonkang-sefit\levolver\ev_ogl\inline.h
;	COMDAT _get_fe_edge
_TEXT	SEGMENT
_fe_id$ = 8						; size = 4
_get_fe_edge PROC					; COMDAT

; 43   : {

	push	ebp
	mov	ebp, esp

; 44   :   edge_id e_id;
; 45   :     
; 46   :   e_id = feptr(fe_id)->fe_edge_id;

	mov	eax, DWORD PTR _fe_id$[ebp]

; 47   : 
; 48   :   /*
; 49   :   if ( inverted(fe_id) ) invert(e_id);
; 50   :   return e_id;
; 51   :   */
; 52   :   
; 53   :   return same_sign(e_id,fe_id);

	mov	edx, DWORD PTR _web+460
	mov	ecx, eax
	and	ecx, 134217727				; 07ffffffH
	mov	ecx, DWORD PTR [edx+ecx*4]
	and	eax, 134217728				; 08000000H
	xor	eax, DWORD PTR [ecx+20]

; 54   : }

	pop	ebp
	ret	0
_get_fe_edge ENDP
_TEXT	ENDS
PUBLIC	_get_fe_facet
EXTRN	_NULLFACET:DWORD
; Function compile flags: /Ogtp
;	COMDAT _get_fe_facet
_TEXT	SEGMENT
_fe_id$ = 8						; size = 4
_get_fe_facet PROC					; COMDAT

; 58   : {

	push	ebp
	mov	ebp, esp

; 59   :   facet_id f_id;
; 60   :   
; 61   :   if ( !valid_id(fe_id) ) return NULLFACET;

	mov	ecx, DWORD PTR _fe_id$[ebp]
	test	ecx, 268435456				; 10000000H
	jne	SHORT $LN2@get_fe_fac
	mov	eax, DWORD PTR _NULLFACET

; 64   :   return f_id;
; 65   : }

	pop	ebp
	ret	0
$LN2@get_fe_fac:

; 62   :   f_id = feptr(fe_id)->fe_facet_id;

	mov	edx, DWORD PTR _web+460
	mov	eax, ecx
	and	eax, 134217727				; 07ffffffH
	mov	eax, DWORD PTR [edx+eax*4]
	mov	eax, DWORD PTR [eax+24]

; 63   :   if ( inverted(fe_id) ) invert(f_id);

	test	ecx, 134217728				; 08000000H
	je	SHORT $LN3@get_fe_fac
	xor	eax, 134217728				; 08000000H
$LN3@get_fe_fac:

; 64   :   return f_id;
; 65   : }

	pop	ebp
	ret	0
_get_fe_facet ENDP
_TEXT	ENDS
PUBLIC	_get_prev_edge
; Function compile flags: /Ogtp
;	COMDAT _get_prev_edge
_TEXT	SEGMENT
_fe_id$ = 8						; size = 4
_get_prev_edge PROC					; COMDAT

; 69   : {

	push	ebp
	mov	ebp, esp

; 70   :   if ( inverted(fe_id) ) return inverse_id(feptr(fe_id)->nextedge[1]);

	mov	eax, DWORD PTR _fe_id$[ebp]
	mov	ecx, DWORD PTR _web+460
	test	eax, 134217728				; 08000000H
	je	SHORT $LN2@get_prev_e
	and	eax, 134217727				; 07ffffffH
	mov	edx, DWORD PTR [ecx+eax*4]
	mov	eax, DWORD PTR [edx+32]
	xor	eax, 134217728				; 08000000H

; 72   : }

	pop	ebp
	ret	0
$LN2@get_prev_e:

; 71   :   else return feptr(fe_id)->nextedge[0];

	and	eax, 134217727				; 07ffffffH
	mov	edx, DWORD PTR [ecx+eax*4]
	mov	eax, DWORD PTR [edx+28]

; 72   : }

	pop	ebp
	ret	0
_get_prev_edge ENDP
_TEXT	ENDS
PUBLIC	_get_next_edge
; Function compile flags: /Ogtp
;	COMDAT _get_next_edge
_TEXT	SEGMENT
_fe_id$ = 8						; size = 4
_get_next_edge PROC					; COMDAT

; 76   : {

	push	ebp
	mov	ebp, esp

; 77   :   if ( inverted(fe_id) ) return inverse_id(feptr(fe_id)->nextedge[0]);

	mov	eax, DWORD PTR _fe_id$[ebp]
	mov	ecx, DWORD PTR _web+460
	test	eax, 134217728				; 08000000H
	je	SHORT $LN2@get_next_e
	and	eax, 134217727				; 07ffffffH
	mov	edx, DWORD PTR [ecx+eax*4]
	mov	eax, DWORD PTR [edx+28]
	xor	eax, 134217728				; 08000000H

; 79   : }

	pop	ebp
	ret	0
$LN2@get_next_e:

; 78   :   else return feptr(fe_id)->nextedge[1];

	and	eax, 134217727				; 07ffffffH
	mov	edx, DWORD PTR [ecx+eax*4]
	mov	eax, DWORD PTR [edx+32]

; 79   : }

	pop	ebp
	ret	0
_get_next_edge ENDP
_TEXT	ENDS
PUBLIC	_get_prev_facet
; Function compile flags: /Ogtp
;	COMDAT _get_prev_facet
_TEXT	SEGMENT
_fe_id$ = 8						; size = 4
_get_prev_facet PROC					; COMDAT

; 83   : {

	push	ebp
	mov	ebp, esp

; 84   :   if ( inverted(fe_id) ) 

	mov	eax, DWORD PTR _fe_id$[ebp]

; 85   :     return inverse_id(feptr(fe_id)->nextfacet[1]);

	mov	ecx, DWORD PTR _web+460
	test	eax, 134217728				; 08000000H
	je	SHORT $LN2@get_prev_f
	and	eax, 134217727				; 07ffffffH
	mov	edx, DWORD PTR [ecx+eax*4]
	mov	eax, DWORD PTR [edx+40]
	xor	eax, 134217728				; 08000000H

; 88   : }

	pop	ebp
	ret	0
$LN2@get_prev_f:

; 86   :   else 
; 87   :     return feptr(fe_id)->nextfacet[0];

	and	eax, 134217727				; 07ffffffH
	mov	edx, DWORD PTR [ecx+eax*4]
	mov	eax, DWORD PTR [edx+36]

; 88   : }

	pop	ebp
	ret	0
_get_prev_facet ENDP
_TEXT	ENDS
PUBLIC	_get_next_facet
; Function compile flags: /Ogtp
;	COMDAT _get_next_facet
_TEXT	SEGMENT
_fe_id$ = 8						; size = 4
_get_next_facet PROC					; COMDAT

; 92   : {

	push	ebp
	mov	ebp, esp

; 93   :   if ( inverted(fe_id) ) 

	mov	eax, DWORD PTR _fe_id$[ebp]

; 94   :     return inverse_id(feptr(fe_id)->nextfacet[0]);

	mov	ecx, DWORD PTR _web+460
	test	eax, 134217728				; 08000000H
	je	SHORT $LN2@get_next_f
	and	eax, 134217727				; 07ffffffH
	mov	edx, DWORD PTR [ecx+eax*4]
	mov	eax, DWORD PTR [edx+36]
	xor	eax, 134217728				; 08000000H

; 97   : }

	pop	ebp
	ret	0
$LN2@get_next_f:

; 95   :   else 
; 96   :     return feptr(fe_id)->nextfacet[1];

	and	eax, 134217727				; 07ffffffH
	mov	edx, DWORD PTR [ecx+eax*4]
	mov	eax, DWORD PTR [edx+40]

; 97   : }

	pop	ebp
	ret	0
_get_next_facet ENDP
_TEXT	ENDS
PUBLIC	_get_edge_wrap
EXTRN	_sym_inverse:DWORD
EXTRN	_dymem:DWORD
; Function compile flags: /Ogtp
;	COMDAT _get_edge_wrap
_TEXT	SEGMENT
_e_id$ = 8						; size = 4
_get_edge_wrap PROC					; COMDAT

; 163  : {

	push	ebp
	mov	ebp, esp

; 164  :   WRAPTYPE wrap = *EINT(e_id,E_WRAP_ATTR) ;

	mov	ecx, DWORD PTR _e_id$[ebp]
	mov	edx, DWORD PTR _web+124
	mov	eax, ecx
	and	eax, 134217727				; 07ffffffH
	mov	eax, DWORD PTR [edx+eax*4]
	mov	edx, DWORD PTR _web+216
	push	esi
	mov	esi, DWORD PTR _dymem
	mov	edx, DWORD PTR [edx+esi+784]
	mov	eax, DWORD PTR [eax+edx]
	pop	esi

; 165  :   return    ( inverted(e_id) ? (*sym_inverse)(wrap) : wrap );

	test	ecx, 134217728				; 08000000H
	je	SHORT $LN4@get_edge_w
	push	eax
	call	DWORD PTR _sym_inverse
	add	esp, 4
$LN4@get_edge_w:

; 166  : }

	pop	ebp
	ret	0
_get_edge_wrap ENDP
_TEXT	ENDS
PUBLIC	_get_edge_tailv
; Function compile flags: /Ogtp
;	COMDAT _get_edge_tailv
_TEXT	SEGMENT
_e_id$ = 8						; size = 4
_get_edge_tailv PROC					; COMDAT

; 191  : {

	push	ebp
	mov	ebp, esp

; 192  :   if ( inverted(e_id) )

	mov	eax, DWORD PTR _e_id$[ebp]

; 193  :      return get_edge_vertices(e_id)[web.headvnum];

	mov	ecx, DWORD PTR _web+124
	test	eax, 134217728				; 08000000H
	je	SHORT $LN2@get_edge_t
	and	eax, 134217727				; 07ffffffH
	mov	edx, DWORD PTR [ecx+eax*4]
	mov	eax, DWORD PTR _web+216
	mov	ecx, DWORD PTR _dymem
	add	edx, DWORD PTR [eax+ecx+304]
	mov	eax, DWORD PTR _web+636
	mov	eax, DWORD PTR [edx+eax*4]

; 196  : }

	pop	ebp
	ret	0
$LN2@get_edge_t:

; 194  :   else
; 195  :      return get_edge_vertices(e_id)[0];

	and	eax, 134217727				; 07ffffffH
	mov	edx, DWORD PTR [ecx+eax*4]
	mov	eax, DWORD PTR _web+216
	mov	ecx, DWORD PTR _dymem
	mov	eax, DWORD PTR [eax+ecx+304]
	mov	eax, DWORD PTR [edx+eax]

; 196  : }

	pop	ebp
	ret	0
_get_edge_tailv ENDP
_TEXT	ENDS
PUBLIC	_get_edge_headv
; Function compile flags: /Ogtp
;	COMDAT _get_edge_headv
_TEXT	SEGMENT
_e_id$ = 8						; size = 4
_get_edge_headv PROC					; COMDAT

; 200  : {

	push	ebp
	mov	ebp, esp

; 201  :   if ( inverted(e_id) )

	mov	eax, DWORD PTR _e_id$[ebp]

; 202  :      return get_edge_vertices(e_id)[0];

	mov	ecx, DWORD PTR _web+124
	test	eax, 134217728				; 08000000H
	je	SHORT $LN2@get_edge_h
	and	eax, 134217727				; 07ffffffH
	mov	edx, DWORD PTR [ecx+eax*4]
	mov	eax, DWORD PTR _web+216
	mov	ecx, DWORD PTR _dymem
	mov	eax, DWORD PTR [eax+ecx+304]
	mov	eax, DWORD PTR [edx+eax]

; 205  : }

	pop	ebp
	ret	0
$LN2@get_edge_h:

; 203  :   else
; 204  :      return get_edge_vertices(e_id)[web.headvnum];

	and	eax, 134217727				; 07ffffffH
	mov	edx, DWORD PTR [ecx+eax*4]
	mov	eax, DWORD PTR _web+216
	mov	ecx, DWORD PTR _dymem
	add	edx, DWORD PTR [eax+ecx+304]
	mov	eax, DWORD PTR _web+636
	mov	eax, DWORD PTR [edx+eax*4]

; 205  : }

	pop	ebp
	ret	0
_get_edge_headv ENDP
_TEXT	ENDS
PUBLIC	_get_facet_fe
; Function compile flags: /Ogtp
;	COMDAT _get_facet_fe
_TEXT	SEGMENT
_f_id$ = 8						; size = 4
_get_facet_fe PROC					; COMDAT

; 260  : {

	push	ebp
	mov	ebp, esp

; 261  :   facetedge_id fe;
; 262  :   
; 263  :   if ( !valid_id(f_id) ) return NULLID;

	mov	ecx, DWORD PTR _f_id$[ebp]
	test	ecx, 268435456				; 10000000H
	jne	SHORT $LN2@get_facet_
	xor	eax, eax

; 266  :   return fe;
; 267  : }

	pop	ebp
	ret	0
$LN2@get_facet_:

; 264  :   fe = fptr(f_id)->fe_id;

	mov	edx, DWORD PTR _web+236
	mov	eax, ecx
	and	eax, 134217727				; 07ffffffH
	mov	eax, DWORD PTR [edx+eax*4]
	mov	eax, DWORD PTR [eax+28]

; 265  :   if ( inverted(f_id) ) invert(fe);

	test	ecx, 134217728				; 08000000H
	je	SHORT $LN3@get_facet_
	xor	eax, 134217728				; 08000000H
$LN3@get_facet_:

; 266  :   return fe;
; 267  : }

	pop	ebp
	ret	0
_get_facet_fe ENDP
_TEXT	ENDS
PUBLIC	_get_body_facet
; Function compile flags: /Ogtp
;	COMDAT _get_body_facet
_TEXT	SEGMENT
_b_id$ = 8						; size = 4
_get_body_facet PROC					; COMDAT

; 279  : { return ( valid_id(b_id) ? bptr(b_id)->f_id : NULLID ); }

	push	ebp
	mov	ebp, esp
	mov	eax, DWORD PTR _b_id$[ebp]
	test	eax, 268435456				; 10000000H
	je	SHORT $LN3@get_body_f
	mov	ecx, DWORD PTR _web+348
	and	eax, 134217727				; 07ffffffH
	mov	edx, DWORD PTR [ecx+eax*4]
	mov	eax, DWORD PTR [edx+400]
	pop	ebp
	ret	0
$LN3@get_body_f:
	xor	eax, eax
	pop	ebp
	ret	0
_get_body_facet ENDP
_TEXT	ENDS
PUBLIC	__real@0000000000000000
PUBLIC	_get_body_density
EXTRN	__fltused:DWORD
;	COMDAT __real@0000000000000000
CONST	SEGMENT
__real@0000000000000000 DQ 00000000000000000r	; 0
; Function compile flags: /Ogtp
CONST	ENDS
;	COMDAT _get_body_density
_TEXT	SEGMENT
_b_id$ = 8						; size = 4
_get_body_density PROC					; COMDAT

; 305  :     { return  ( valid_id(b_id) ?  bptr(b_id)->density : 0.0 ) ; }

	push	ebp
	mov	ebp, esp
	mov	eax, DWORD PTR _b_id$[ebp]
	test	eax, 268435456				; 10000000H
	je	SHORT $LN3@get_body_d
	mov	ecx, DWORD PTR _web+348
	and	eax, 134217727				; 07ffffffH
	mov	edx, DWORD PTR [ecx+eax*4]
	fld	QWORD PTR [edx+344]
	pop	ebp
	ret	0
$LN3@get_body_d:
	fldz
	pop	ebp
	ret	0
_get_body_density ENDP
_TEXT	ENDS
PUBLIC	_get_body_volume
; Function compile flags: /Ogtp
;	COMDAT _get_body_volume
_TEXT	SEGMENT
_b_id$ = 8						; size = 4
_get_body_volume PROC					; COMDAT

; 308  :     { return    ( valid_id(b_id) ?  bptr(b_id)->volume : 0.0 ) ; }

	push	ebp
	mov	ebp, esp
	mov	eax, DWORD PTR _b_id$[ebp]
	test	eax, 268435456				; 10000000H
	je	SHORT $LN3@get_body_v
	mov	ecx, DWORD PTR _web+348
	and	eax, 134217727				; 07ffffffH
	mov	edx, DWORD PTR [ecx+eax*4]
	fld	QWORD PTR [edx+40]
	pop	ebp
	ret	0
$LN3@get_body_v:
	fldz
	pop	ebp
	ret	0
_get_body_volume ENDP
_TEXT	ENDS
PUBLIC	_get_body_fixvol
; Function compile flags: /Ogtp
;	COMDAT _get_body_fixvol
_TEXT	SEGMENT
_b_id$ = 8						; size = 4
_get_body_fixvol PROC					; COMDAT

; 311  :      { return ( valid_id(b_id) ?  bptr(b_id)->fixvol : 0.0 ) ; }

	push	ebp
	mov	ebp, esp
	mov	eax, DWORD PTR _b_id$[ebp]
	test	eax, 268435456				; 10000000H
	je	SHORT $LN3@get_body_f@2
	mov	ecx, DWORD PTR _web+348
	and	eax, 134217727				; 07ffffffH
	mov	edx, DWORD PTR [ecx+eax*4]
	fld	QWORD PTR [edx+32]
	pop	ebp
	ret	0
$LN3@get_body_f@2:
	fldz
	pop	ebp
	ret	0
_get_body_fixvol ENDP
_TEXT	ENDS
PUBLIC	_get_body_pressure
; Function compile flags: /Ogtp
;	COMDAT _get_body_pressure
_TEXT	SEGMENT
_b_id$ = 8						; size = 4
_get_body_pressure PROC					; COMDAT

; 317  :     { return  ( valid_id(b_id) ?    bptr(b_id)->pressure : 0.0 ) ; }

	push	ebp
	mov	ebp, esp
	mov	eax, DWORD PTR _b_id$[ebp]
	test	eax, 268435456				; 10000000H
	je	SHORT $LN3@get_body_p
	mov	ecx, DWORD PTR _web+348
	and	eax, 134217727				; 07ffffffH
	mov	edx, DWORD PTR [ecx+eax*4]
	fld	QWORD PTR [edx+312]
	pop	ebp
	ret	0
$LN3@get_body_p:
	fldz
	pop	ebp
	ret	0
_get_body_pressure ENDP
_TEXT	ENDS
PUBLIC	_get_body_volconst
; Function compile flags: /Ogtp
;	COMDAT _get_body_volconst
_TEXT	SEGMENT
_b_id$ = 8						; size = 4
_get_body_volconst PROC					; COMDAT

; 320  :   { return    ( valid_id(b_id) ?  bptr(b_id)->volconst : 0.0 ) ; }

	push	ebp
	mov	ebp, esp
	mov	eax, DWORD PTR _b_id$[ebp]
	test	eax, 268435456				; 10000000H
	je	SHORT $LN3@get_body_v@2
	mov	ecx, DWORD PTR _web+348
	and	eax, 134217727				; 07ffffffH
	mov	edx, DWORD PTR [ecx+eax*4]
	fld	QWORD PTR [edx+328]
	pop	ebp
	ret	0
$LN3@get_body_v@2:
	fldz
	pop	ebp
	ret	0
_get_body_volconst ENDP
_TEXT	ENDS
PUBLIC	_get_extra
; Function compile flags: /Ogtp
;	COMDAT _get_extra
_TEXT	SEGMENT
_id$ = 8						; size = 4
_n$ = 12						; size = 4
_get_extra PROC						; COMDAT

; 348  : { int type = id_type(id);

	push	ebp
	mov	ebp, esp

; 349  : 
; 350  :   return ( (char*)elptr(id) + EXTRAS(type)[n].offset);

	mov	ecx, DWORD PTR _id$[ebp]
	mov	eax, ecx
	push	esi
	mov	esi, DWORD PTR _n$[ebp]
	shr	eax, 29					; 0000001dH
	imul	esi, 240				; 000000f0H
	imul	eax, 112				; 00000070H
	mov	edx, DWORD PTR _web[eax+12]
	push	edi
	mov	edi, DWORD PTR _web[eax+104]
	and	ecx, 134217727				; 07ffffffH
	mov	eax, DWORD PTR [edx+ecx*4]
	mov	ecx, DWORD PTR _dymem
	add	edi, esi
	add	eax, DWORD PTR [edi+ecx+64]
	pop	edi
	pop	esi

; 351  : }

	pop	ebp
	ret	0
_get_extra ENDP
_TEXT	ENDS
PUBLIC	??_C@_0BF@MOPLMDLF@Illegal?5datatype?5?$CFd?6?$AA@ ; `string'
PUBLIC	??_C@_0CI@BIFFKDPI@Printing?5of?5type?5?$CC?$CFs?$CC?5not?5implem@ ; `string'
PUBLIC	??_C@_02DKCKIIND@?$CFs?$AA@			; `string'
PUBLIC	??_C@_0O@NNCDDCPC@facetedge?$FL?$CFs?$FN?$AA@	; `string'
PUBLIC	??_C@_08LAPBJAFN@body?$FL?$CFs?$FN?$AA@		; `string'
PUBLIC	??_C@_09BNEAKJFC@facet?$FL?$CFs?$FN?$AA@	; `string'
PUBLIC	??_C@_08MMAGDJLP@edge?$FL?$CFs?$FN?$AA@		; `string'
PUBLIC	??_C@_04CGFJFPFD@none?$AA@			; `string'
PUBLIC	??_C@_0L@PMBMNFIG@vertex?$FL?$CFs?$FN?$AA@	; `string'
PUBLIC	??_C@_02BBAHNLBA@?$CFp?$AA@			; `string'
PUBLIC	??_C@_04OEDFLLKD@?$CC?$CFs?$CC?$AA@		; `string'
PUBLIC	??_C@_0CH@DHMEAAKB@String?5length?5exceeds?5maximum?5le@ ; `string'
PUBLIC	??_C@_02JMMFPCED@?$CC?$CC?$AA@			; `string'
PUBLIC	??_C@_03FKNCMABI@?$CFlu?$AA@			; `string'
PUBLIC	??_C@_03JALODAI@?$CFld?$AA@			; `string'
PUBLIC	??_C@_02GMHACPFF@?$CFu?$AA@			; `string'
PUBLIC	??_C@_02DPKJAMEF@?$CFd?$AA@			; `string'
PUBLIC	??_C@_06IINOEEKG@?$CF2?415g?$AA@		; `string'
PUBLIC	_print_data_value
EXTRN	_errmsg:BYTE
EXTRN	_datatype_name:BYTE
EXTRN	_localbase:DWORD
EXTRN	_meth_inst_list:DWORD
EXTRN	_gen_quant_list:DWORD
EXTRN	_elnames:BYTE
EXTRN	_kb_error:PROC
EXTRN	_convert_string:PROC
EXTRN	_sprintf:PROC
;	COMDAT ??_C@_0BF@MOPLMDLF@Illegal?5datatype?5?$CFd?6?$AA@
; File c:\levolver\yonkang-sefit\levolver\ev_ogl\dump.c
CONST	SEGMENT
??_C@_0BF@MOPLMDLF@Illegal?5datatype?5?$CFd?6?$AA@ DB 'Illegal datatype %'
	DB	'd', 0aH, 00H				; `string'
CONST	ENDS
;	COMDAT ??_C@_0CI@BIFFKDPI@Printing?5of?5type?5?$CC?$CFs?$CC?5not?5implem@
CONST	SEGMENT
??_C@_0CI@BIFFKDPI@Printing?5of?5type?5?$CC?$CFs?$CC?5not?5implem@ DB 'Pr'
	DB	'inting of type "%s" not implemented.', 0aH, 00H ; `string'
CONST	ENDS
;	COMDAT ??_C@_02DKCKIIND@?$CFs?$AA@
CONST	SEGMENT
??_C@_02DKCKIIND@?$CFs?$AA@ DB '%s', 00H		; `string'
CONST	ENDS
;	COMDAT ??_C@_0O@NNCDDCPC@facetedge?$FL?$CFs?$FN?$AA@
CONST	SEGMENT
??_C@_0O@NNCDDCPC@facetedge?$FL?$CFs?$FN?$AA@ DB 'facetedge[%s]', 00H ; `string'
CONST	ENDS
;	COMDAT ??_C@_08LAPBJAFN@body?$FL?$CFs?$FN?$AA@
CONST	SEGMENT
??_C@_08LAPBJAFN@body?$FL?$CFs?$FN?$AA@ DB 'body[%s]', 00H ; `string'
CONST	ENDS
;	COMDAT ??_C@_09BNEAKJFC@facet?$FL?$CFs?$FN?$AA@
CONST	SEGMENT
??_C@_09BNEAKJFC@facet?$FL?$CFs?$FN?$AA@ DB 'facet[%s]', 00H ; `string'
CONST	ENDS
;	COMDAT ??_C@_08MMAGDJLP@edge?$FL?$CFs?$FN?$AA@
CONST	SEGMENT
??_C@_08MMAGDJLP@edge?$FL?$CFs?$FN?$AA@ DB 'edge[%s]', 00H ; `string'
CONST	ENDS
;	COMDAT ??_C@_04CGFJFPFD@none?$AA@
CONST	SEGMENT
??_C@_04CGFJFPFD@none?$AA@ DB 'none', 00H		; `string'
CONST	ENDS
;	COMDAT ??_C@_0L@PMBMNFIG@vertex?$FL?$CFs?$FN?$AA@
CONST	SEGMENT
??_C@_0L@PMBMNFIG@vertex?$FL?$CFs?$FN?$AA@ DB 'vertex[%s]', 00H ; `string'
CONST	ENDS
;	COMDAT ??_C@_02BBAHNLBA@?$CFp?$AA@
CONST	SEGMENT
??_C@_02BBAHNLBA@?$CFp?$AA@ DB '%p', 00H		; `string'
CONST	ENDS
;	COMDAT ??_C@_04OEDFLLKD@?$CC?$CFs?$CC?$AA@
CONST	SEGMENT
??_C@_04OEDFLLKD@?$CC?$CFs?$CC?$AA@ DB '"%s"', 00H	; `string'
CONST	ENDS
;	COMDAT ??_C@_0CH@DHMEAAKB@String?5length?5exceeds?5maximum?5le@
CONST	SEGMENT
??_C@_0CH@DHMEAAKB@String?5length?5exceeds?5maximum?5le@ DB 'String lengt'
	DB	'h exceeds maximum length.', 0aH, 00H	; `string'
CONST	ENDS
;	COMDAT ??_C@_02JMMFPCED@?$CC?$CC?$AA@
CONST	SEGMENT
??_C@_02JMMFPCED@?$CC?$CC?$AA@ DB '""', 00H		; `string'
CONST	ENDS
;	COMDAT ??_C@_03FKNCMABI@?$CFlu?$AA@
CONST	SEGMENT
??_C@_03FKNCMABI@?$CFlu?$AA@ DB '%lu', 00H		; `string'
CONST	ENDS
;	COMDAT ??_C@_03JALODAI@?$CFld?$AA@
CONST	SEGMENT
??_C@_03JALODAI@?$CFld?$AA@ DB '%ld', 00H		; `string'
CONST	ENDS
;	COMDAT ??_C@_02GMHACPFF@?$CFu?$AA@
CONST	SEGMENT
??_C@_02GMHACPFF@?$CFu?$AA@ DB '%u', 00H		; `string'
CONST	ENDS
;	COMDAT ??_C@_02DPKJAMEF@?$CFd?$AA@
CONST	SEGMENT
??_C@_02DPKJAMEF@?$CFd?$AA@ DB '%d', 00H		; `string'
CONST	ENDS
;	COMDAT ??_C@_06IINOEEKG@?$CF2?415g?$AA@
CONST	SEGMENT
??_C@_06IINOEEKG@?$CF2?415g?$AA@ DB '%2.15g', 00H	; `string'
; Function compile flags: /Ogtp
CONST	ENDS
;	COMDAT _print_data_value
_TEXT	SEGMENT
_dest$ = 8						; size = 4
_type$ = 12						; size = 4
_src$ = 16						; size = 4
_maxspace$ = 20						; size = 4
_mode$ = 24						; size = 4
_print_data_value PROC					; COMDAT

; 80   : {   if ( type == ELEMENTID_TYPE )

	push	ebp
	mov	ebp, esp
	mov	eax, DWORD PTR _type$[ebp]
	push	esi
	mov	esi, DWORD PTR _src$[ebp]
	cmp	eax, 18					; 00000012H
	jne	SHORT $LN42@print_data

; 81   :       type = id_type(*(element_id*)src) + VERTEX_TYPE;

	mov	eax, DWORD PTR [esi]
	shr	eax, 29					; 0000001dH
	add	eax, 13					; 0000000dH
$LN42@print_data:

; 82   : 
; 83   :     switch ( type )

	lea	ecx, DWORD PTR [eax-1]
	cmp	ecx, 22					; 00000016H
	ja	$LN3@print_data
	jmp	DWORD PTR $LN64@print_data[ecx*4]
$LN39@print_data:

; 84   :     { case REAL_TYPE:
; 85   :           sprintf(dest,
; 86   : #ifdef FLOAT128
; 87   :               "%2.*Qg",DPREC,*(REAL *)src);
; 88   : #elif defined(LONGDOUBLE)
; 89   :               "%2.*Lg",DPREC,*(REAL *)src);
; 90   : #else
; 91   :               "%2.15g",*(REAL *)src);

	fld	QWORD PTR [esi]
	mov	eax, DWORD PTR _dest$[ebp]
	sub	esp, 8
	fstp	QWORD PTR [esp]
	push	OFFSET ??_C@_06IINOEEKG@?$CF2?415g?$AA@
	push	eax
	call	_sprintf
	add	esp, 16					; 00000010H
	pop	esi

; 183  :      }
; 184  : } // print_data_value()

	pop	ebp
	ret	0
$LN38@print_data:

; 92   : #endif
; 93   :           break; 
; 94   :        case INTEGER_TYPE:
; 95   :             sprintf(dest,"%d",*(int*)src);

	mov	ecx, DWORD PTR [esi]
	mov	edx, DWORD PTR _dest$[ebp]
	push	ecx
	push	OFFSET ??_C@_02DPKJAMEF@?$CFd?$AA@
	push	edx
	call	_sprintf

; 182  :             kb_error(3667,errmsg,RECOVERABLE);

	add	esp, 12					; 0000000cH
	pop	esi

; 183  :      }
; 184  : } // print_data_value()

	pop	ebp
	ret	0
$LN37@print_data:

; 96   :             break;
; 97   :        case UINT_TYPE:
; 98   :             sprintf(dest,"%u",*(unsigned int*)src);

	mov	eax, DWORD PTR [esi]
	mov	ecx, DWORD PTR _dest$[ebp]
	push	eax
	push	OFFSET ??_C@_02GMHACPFF@?$CFu?$AA@
	push	ecx
	call	_sprintf

; 182  :             kb_error(3667,errmsg,RECOVERABLE);

	add	esp, 12					; 0000000cH
	pop	esi

; 183  :      }
; 184  : } // print_data_value()

	pop	ebp
	ret	0
$LN36@print_data:

; 99   :             break;
; 100  :        case CHAR_TYPE:
; 101  :             sprintf(dest,"%d",*(char*)src);

	movsx	edx, BYTE PTR [esi]
	mov	eax, DWORD PTR _dest$[ebp]
	push	edx
	push	OFFSET ??_C@_02DPKJAMEF@?$CFd?$AA@
	push	eax
	call	_sprintf

; 182  :             kb_error(3667,errmsg,RECOVERABLE);

	add	esp, 12					; 0000000cH
	pop	esi

; 183  :      }
; 184  : } // print_data_value()

	pop	ebp
	ret	0
$LN35@print_data:

; 102  :             break;
; 103  :        case UCHAR_TYPE:
; 104  :             sprintf(dest,"%u",*(unsigned char*)src);

	movzx	ecx, BYTE PTR [esi]
	mov	edx, DWORD PTR _dest$[ebp]
	push	ecx
	push	OFFSET ??_C@_02GMHACPFF@?$CFu?$AA@
	push	edx
	call	_sprintf

; 182  :             kb_error(3667,errmsg,RECOVERABLE);

	add	esp, 12					; 0000000cH
	pop	esi

; 183  :      }
; 184  : } // print_data_value()

	pop	ebp
	ret	0
$LN34@print_data:

; 105  :             break;
; 106  :        case SHORT_TYPE:
; 107  :             sprintf(dest,"%d",*(short int*)src);

	movsx	eax, WORD PTR [esi]
	mov	ecx, DWORD PTR _dest$[ebp]
	push	eax
	push	OFFSET ??_C@_02DPKJAMEF@?$CFd?$AA@
	push	ecx
	call	_sprintf

; 182  :             kb_error(3667,errmsg,RECOVERABLE);

	add	esp, 12					; 0000000cH
	pop	esi

; 183  :      }
; 184  : } // print_data_value()

	pop	ebp
	ret	0
$LN33@print_data:

; 108  :             break;
; 109  :        case USHORT_TYPE:
; 110  :             sprintf(dest,"%u",*(unsigned short int*)src);

	movzx	edx, WORD PTR [esi]
	mov	eax, DWORD PTR _dest$[ebp]
	push	edx
	push	OFFSET ??_C@_02GMHACPFF@?$CFu?$AA@
	push	eax
	call	_sprintf

; 182  :             kb_error(3667,errmsg,RECOVERABLE);

	add	esp, 12					; 0000000cH
	pop	esi

; 183  :      }
; 184  : } // print_data_value()

	pop	ebp
	ret	0
$LN32@print_data:

; 111  :             break;
; 112  :        case LONG_TYPE:
; 113  :             sprintf(dest,"%ld",*(long int*)src);

	mov	ecx, DWORD PTR [esi]
	mov	edx, DWORD PTR _dest$[ebp]
	push	ecx
	push	OFFSET ??_C@_03JALODAI@?$CFld?$AA@
	push	edx
	call	_sprintf

; 182  :             kb_error(3667,errmsg,RECOVERABLE);

	add	esp, 12					; 0000000cH
	pop	esi

; 183  :      }
; 184  : } // print_data_value()

	pop	ebp
	ret	0
$LN31@print_data:

; 114  :             break;
; 115  :        case ULONG_TYPE:
; 116  :             sprintf(dest,"%lu",*(unsigned long int*)src);

	mov	eax, DWORD PTR [esi]
	mov	ecx, DWORD PTR _dest$[ebp]
	push	eax
	push	OFFSET ??_C@_03FKNCMABI@?$CFlu?$AA@
	push	ecx
	call	_sprintf

; 182  :             kb_error(3667,errmsg,RECOVERABLE);

	add	esp, 12					; 0000000cH
	pop	esi

; 183  :      }
; 184  : } // print_data_value()

	pop	ebp
	ret	0
$LN30@print_data:

; 117  :             break;
; 118  :        case STRING_TYPE: 
; 119  :             if ( *(char**)src == NULL )

	mov	eax, DWORD PTR [esi]
	test	eax, eax
	jne	SHORT $LN29@print_data

; 120  :               strcpy(dest,"\"\"");

	mov	dx, WORD PTR ??_C@_02JMMFPCED@?$CC?$CC?$AA@
	mov	eax, DWORD PTR _dest$[ebp]
	mov	WORD PTR [eax], dx
	mov	cl, BYTE PTR ??_C@_02JMMFPCED@?$CC?$CC?$AA@+2
	mov	BYTE PTR [eax+2], cl
	pop	esi

; 183  :      }
; 184  : } // print_data_value()

	pop	ebp
	ret	0
$LN29@print_data:

; 121  :             else if ( mode == PRINT_DUMP )

	cmp	DWORD PTR _mode$[ebp], 1002		; 000003eaH
	jne	SHORT $LN27@print_data

; 122  :               convert_string(*(char**)src,dest,maxspace);

	mov	edx, DWORD PTR _maxspace$[ebp]
	mov	ecx, DWORD PTR _dest$[ebp]
	push	edx
	push	ecx
	push	eax
	call	_convert_string

; 182  :             kb_error(3667,errmsg,RECOVERABLE);

	add	esp, 12					; 0000000cH
	pop	esi

; 183  :      }
; 184  : } // print_data_value()

	pop	ebp
	ret	0
$LN27@print_data:

; 123  :             else
; 124  :             { if ( strlen(*(char**)src) > maxspace-5 )

	lea	edx, DWORD PTR [eax+1]
$LL61@print_data:
	mov	cl, BYTE PTR [eax]
	inc	eax
	test	cl, cl
	jne	SHORT $LL61@print_data
	sub	eax, edx
	mov	edx, DWORD PTR _maxspace$[ebp]
	add	edx, -5					; fffffffbH
	cmp	eax, edx
	jbe	SHORT $LN25@print_data

; 125  :                 kb_error(6222,"String length exceeds maximum length.\n",RECOVERABLE);

	push	1
	push	OFFSET ??_C@_0CH@DHMEAAKB@String?5length?5exceeds?5maximum?5le@
	push	6222					; 0000184eH
	call	_kb_error
	add	esp, 12					; 0000000cH
$LN25@print_data:

; 126  :               sprintf(dest,"\"%s\"",*(char**)src);

	mov	eax, DWORD PTR [esi]
	mov	ecx, DWORD PTR _dest$[ebp]
	push	eax
	push	OFFSET ??_C@_04OEDFLLKD@?$CC?$CFs?$CC?$AA@
	push	ecx
	call	_sprintf

; 182  :             kb_error(3667,errmsg,RECOVERABLE);

	add	esp, 12					; 0000000cH
	pop	esi

; 183  :      }
; 184  : } // print_data_value()

	pop	ebp
	ret	0
$LN24@print_data:

; 127  :             }
; 128  :             break;
; 129  :        case PTR_TYPE:
; 130  :             sprintf(dest,"%p",*(char**)src);

	mov	edx, DWORD PTR [esi]
	mov	eax, DWORD PTR _dest$[ebp]
	push	edx
	push	OFFSET ??_C@_02BBAHNLBA@?$CFp?$AA@
	push	eax
	call	_sprintf

; 182  :             kb_error(3667,errmsg,RECOVERABLE);

	add	esp, 12					; 0000000cH
	pop	esi

; 183  :      }
; 184  : } // print_data_value()

	pop	ebp
	ret	0
$LN23@print_data:

; 131  :             break;
; 132  :        case VERTEX_TYPE:
; 133  :             if ( valid_id(*(element_id*)src) )

	mov	esi, DWORD PTR [esi]
	test	esi, 268435456				; 10000000H
	je	SHORT $LN22@print_data

; 134  :               sprintf(dest,"vertex[%s]",ELNAME(*(element_id*)src));

	and	esi, 134217727				; 07ffffffH
	inc	esi
	push	esi
	push	OFFSET ??_C@_02DPKJAMEF@?$CFd?$AA@
	push	OFFSET _elnames
	call	_sprintf
	mov	ecx, DWORD PTR _dest$[ebp]
	push	OFFSET _elnames
	push	OFFSET ??_C@_0L@PMBMNFIG@vertex?$FL?$CFs?$FN?$AA@
	push	ecx
	call	_sprintf
	add	esp, 24					; 00000018H
	pop	esi

; 183  :      }
; 184  : } // print_data_value()

	pop	ebp
	ret	0
$LN22@print_data:

; 135  :             else 
; 136  :               sprintf(dest,"none");

	mov	edx, DWORD PTR _dest$[ebp]
	push	OFFSET ??_C@_04CGFJFPFD@none?$AA@
	push	edx
	call	_sprintf
	add	esp, 8
	pop	esi

; 183  :      }
; 184  : } // print_data_value()

	pop	ebp
	ret	0
$LN20@print_data:

; 137  :             break;
; 138  :        case EDGE_TYPE:
; 139  :             if ( valid_id(*(element_id*)src) )

	mov	esi, DWORD PTR [esi]
	test	esi, 268435456				; 10000000H
	je	SHORT $LN19@print_data

; 140  :               sprintf(dest,"edge[%s]",ELNAME(*(element_id*)src));

	and	esi, 134217727				; 07ffffffH
	inc	esi
	push	esi
	push	OFFSET ??_C@_02DPKJAMEF@?$CFd?$AA@
	push	OFFSET _elnames
	call	_sprintf
	mov	eax, DWORD PTR _dest$[ebp]
	push	OFFSET _elnames
	push	OFFSET ??_C@_08MMAGDJLP@edge?$FL?$CFs?$FN?$AA@
	push	eax
	call	_sprintf
	add	esp, 24					; 00000018H
	pop	esi

; 183  :      }
; 184  : } // print_data_value()

	pop	ebp
	ret	0
$LN19@print_data:

; 141  :             else 
; 142  :               sprintf(dest,"none");

	mov	ecx, DWORD PTR _dest$[ebp]
	push	OFFSET ??_C@_04CGFJFPFD@none?$AA@
	push	ecx
	call	_sprintf
	add	esp, 8
	pop	esi

; 183  :      }
; 184  : } // print_data_value()

	pop	ebp
	ret	0
$LN17@print_data:

; 143  :             break;
; 144  :        case FACET_TYPE:
; 145  :             if ( valid_id(*(element_id*)src) )

	mov	esi, DWORD PTR [esi]
	test	esi, 268435456				; 10000000H
	je	SHORT $LN16@print_data

; 146  :               sprintf(dest,"facet[%s]",ELNAME(*(element_id*)src));

	and	esi, 134217727				; 07ffffffH
	inc	esi
	push	esi
	push	OFFSET ??_C@_02DPKJAMEF@?$CFd?$AA@
	push	OFFSET _elnames
	call	_sprintf
	mov	edx, DWORD PTR _dest$[ebp]
	push	OFFSET _elnames
	push	OFFSET ??_C@_09BNEAKJFC@facet?$FL?$CFs?$FN?$AA@
	push	edx
	call	_sprintf
	add	esp, 24					; 00000018H
	pop	esi

; 183  :      }
; 184  : } // print_data_value()

	pop	ebp
	ret	0
$LN16@print_data:

; 147  :             else 
; 148  :               sprintf(dest,"none");

	mov	eax, DWORD PTR _dest$[ebp]
	push	OFFSET ??_C@_04CGFJFPFD@none?$AA@
	push	eax
	call	_sprintf
	add	esp, 8
	pop	esi

; 183  :      }
; 184  : } // print_data_value()

	pop	ebp
	ret	0
$LN14@print_data:

; 149  :             break;
; 150  :        case BODY_TYPE:
; 151  :             if ( valid_id(*(element_id*)src) )

	mov	esi, DWORD PTR [esi]
	test	esi, 268435456				; 10000000H
	je	$LN22@print_data

; 152  :               sprintf(dest,"body[%s]",ELNAME(*(element_id*)src));

	and	esi, 134217727				; 07ffffffH
	inc	esi
	push	esi
	push	OFFSET ??_C@_02DPKJAMEF@?$CFd?$AA@
	push	OFFSET _elnames
	call	_sprintf
	mov	ecx, DWORD PTR _dest$[ebp]
	push	OFFSET _elnames
	push	OFFSET ??_C@_08LAPBJAFN@body?$FL?$CFs?$FN?$AA@
	push	ecx
	call	_sprintf
	add	esp, 24					; 00000018H
	pop	esi

; 183  :      }
; 184  : } // print_data_value()

	pop	ebp
	ret	0
$LN11@print_data:

; 153  :             else 
; 154  :               sprintf(dest,"none");
; 155  :             break;
; 156  :        case FACETEDGE_TYPE:
; 157  :             if ( valid_id(*(element_id*)src) )

	mov	esi, DWORD PTR [esi]
	test	esi, 268435456				; 10000000H
	je	$LN19@print_data

; 158  :               sprintf(dest,"facetedge[%s]",ELNAME(*(element_id*)src));

	and	esi, 134217727				; 07ffffffH
	inc	esi
	push	esi
	push	OFFSET ??_C@_02DPKJAMEF@?$CFd?$AA@
	push	OFFSET _elnames
	call	_sprintf
	mov	eax, DWORD PTR _dest$[ebp]
	push	OFFSET _elnames
	push	OFFSET ??_C@_0O@NNCDDCPC@facetedge?$FL?$CFs?$FN?$AA@
	push	eax
	call	_sprintf
	add	esp, 24					; 00000018H
	pop	esi

; 183  :      }
; 184  : } // print_data_value()

	pop	ebp
	ret	0
$LN8@print_data:

; 159  :             else 
; 160  :               sprintf(dest,"none");
; 161  :             break;
; 162  :        case BOUNDARY_TYPE:
; 163  :             sprintf(dest,"%s",web.boundaries[*(int*)src].name);

	mov	edx, DWORD PTR [esi]
	mov	eax, DWORD PTR _dest$[ebp]
	imul	edx, 136				; 00000088H
	add	edx, DWORD PTR _web+776
	push	edx
	push	OFFSET ??_C@_02DKCKIIND@?$CFs?$AA@
	push	eax
	call	_sprintf

; 182  :             kb_error(3667,errmsg,RECOVERABLE);

	add	esp, 12					; 0000000cH
	pop	esi

; 183  :      }
; 184  : } // print_data_value()

	pop	ebp
	ret	0
$LN7@print_data:

; 164  :             break;
; 165  :        case CONSTRAINT_TYPE:
; 166  :             sprintf(dest,"%s",get_constraint(*(int*)src)->name);

	mov	ecx, DWORD PTR [esi]
	mov	edx, DWORD PTR _dest$[ebp]
	and	ecx, 1073741823				; 3fffffffH
	imul	ecx, 176				; 000000b0H
	add	ecx, DWORD PTR _web+652
	push	ecx
	push	OFFSET ??_C@_02DKCKIIND@?$CFs?$AA@
	push	edx
	call	_sprintf

; 182  :             kb_error(3667,errmsg,RECOVERABLE);

	add	esp, 12					; 0000000cH
	pop	esi

; 183  :      }
; 184  : } // print_data_value()

	pop	ebp
	ret	0
$LN6@print_data:

; 167  :             break;
; 168  :        case QUANTITY_TYPE:
; 169  :             sprintf(dest,"%s",GEN_QUANT(*(int*)src)->name);

	mov	eax, DWORD PTR [esi]
	mov	ecx, DWORD PTR _dest$[ebp]
	imul	eax, 368				; 00000170H
	add	eax, DWORD PTR _gen_quant_list
	push	eax
	push	OFFSET ??_C@_02DKCKIIND@?$CFs?$AA@
	push	ecx
	call	_sprintf

; 182  :             kb_error(3667,errmsg,RECOVERABLE);

	add	esp, 12					; 0000000cH
	pop	esi

; 183  :      }
; 184  : } // print_data_value()

	pop	ebp
	ret	0
$LN5@print_data:

; 170  :             break;
; 171  :        case INSTANCE_TYPE:
; 172  :             sprintf(dest,"%s",METH_INSTANCE(*(int*)src)->name);

	mov	eax, DWORD PTR [esi]
	cdq
	xor	eax, edx
	sub	eax, edx
	mov	edx, DWORD PTR _dest$[ebp]
	imul	eax, 2928				; 00000b70H
	add	eax, DWORD PTR _meth_inst_list
	push	eax
	push	OFFSET ??_C@_02DKCKIIND@?$CFs?$AA@
	push	edx
	call	_sprintf

; 182  :             kb_error(3667,errmsg,RECOVERABLE);

	add	esp, 12					; 0000000cH
	pop	esi

; 183  :      }
; 184  : } // print_data_value()

	pop	ebp
	ret	0
$LN4@print_data:

; 173  :             break;
; 174  :        case PROCEDURE_TYPE:
; 175  :             sprintf(dest,"%s",globals(*(int*)src)->name);

	mov	eax, DWORD PTR [esi]
	mov	ecx, eax
	and	ecx, -16777216				; ff000000H
	cmp	ecx, 268435456				; 10000000H
	je	SHORT $LN55@print_data
	cmp	ecx, 805306368				; 30000000H
	jne	SHORT $LN57@print_data
	mov	ecx, DWORD PTR _localbase
	and	eax, 16777215				; 00ffffffH
	imul	eax, 224				; 000000e0H
	add	eax, DWORD PTR [ecx]
	mov	ecx, DWORD PTR _dest$[ebp]
	push	eax
	push	OFFSET ??_C@_02DKCKIIND@?$CFs?$AA@
	push	ecx
	call	_sprintf

; 182  :             kb_error(3667,errmsg,RECOVERABLE);

	add	esp, 12					; 0000000cH
	pop	esi

; 183  :      }
; 184  : } // print_data_value()

	pop	ebp
	ret	0
$LN57@print_data:

; 173  :             break;
; 174  :        case PROCEDURE_TYPE:
; 175  :             sprintf(dest,"%s",globals(*(int*)src)->name);

	cmp	ecx, 536870912				; 20000000H
	jne	SHORT $LN55@print_data
	mov	edx, DWORD PTR _web+5656
	mov	ecx, DWORD PTR _dest$[ebp]
	and	eax, 16777215				; 00ffffffH
	mov	eax, DWORD PTR [edx+eax*4]
	push	eax
	push	OFFSET ??_C@_02DKCKIIND@?$CFs?$AA@
	push	ecx
	call	_sprintf

; 182  :             kb_error(3667,errmsg,RECOVERABLE);

	add	esp, 12					; 0000000cH
	pop	esi

; 183  :      }
; 184  : } // print_data_value()

	pop	ebp
	ret	0
$LN55@print_data:

; 173  :             break;
; 174  :        case PROCEDURE_TYPE:
; 175  :             sprintf(dest,"%s",globals(*(int*)src)->name);

	mov	ecx, DWORD PTR _web+5652
	and	eax, 16777215				; 00ffffffH
	lea	edx, DWORD PTR [ecx+eax*4]
	mov	eax, DWORD PTR _dymem
	mov	eax, DWORD PTR [edx+eax]
	mov	ecx, DWORD PTR _dest$[ebp]
	push	eax
	push	OFFSET ??_C@_02DKCKIIND@?$CFs?$AA@
	push	ecx
	call	_sprintf

; 182  :             kb_error(3667,errmsg,RECOVERABLE);

	add	esp, 12					; 0000000cH
	pop	esi

; 183  :      }
; 184  : } // print_data_value()

	pop	ebp
	ret	0
$LN3@print_data:

; 176  :             break;
; 177  :        default: 
; 178  :             if ( type >= 0 && type < NUMDATATYPES )

	cmp	eax, 24					; 00000018H
	ja	SHORT $LN2@print_data

; 179  :              sprintf(errmsg,"Printing of type \"%s\" not implemented.\n",
; 180  :               datatype_name[type]);

	mov	edx, DWORD PTR _datatype_name[eax*4]
	push	edx
	push	OFFSET ??_C@_0CI@BIFFKDPI@Printing?5of?5type?5?$CC?$CFs?$CC?5not?5implem@
	jmp	SHORT $LN63@print_data
$LN2@print_data:

; 181  :             else sprintf(errmsg,"Illegal datatype %d\n",type);

	push	eax
	push	OFFSET ??_C@_0BF@MOPLMDLF@Illegal?5datatype?5?$CFd?6?$AA@
$LN63@print_data:
	push	OFFSET _errmsg
	call	_sprintf
	add	esp, 12					; 0000000cH

; 182  :             kb_error(3667,errmsg,RECOVERABLE);

	push	1
	push	OFFSET _errmsg
	push	3667					; 00000e53H
	call	_kb_error
	add	esp, 12					; 0000000cH
	pop	esi

; 183  :      }
; 184  : } // print_data_value()

	pop	ebp
	ret	0
	npad	3
$LN64@print_data:
	DD	$LN39@print_data
	DD	$LN38@print_data
	DD	$LN31@print_data
	DD	$LN35@print_data
	DD	$LN33@print_data
	DD	$LN37@print_data
	DD	$LN32@print_data
	DD	$LN36@print_data
	DD	$LN34@print_data
	DD	$LN3@print_data
	DD	$LN30@print_data
	DD	$LN24@print_data
	DD	$LN23@print_data
	DD	$LN20@print_data
	DD	$LN17@print_data
	DD	$LN14@print_data
	DD	$LN11@print_data
	DD	$LN3@print_data
	DD	$LN8@print_data
	DD	$LN7@print_data
	DD	$LN6@print_data
	DD	$LN5@print_data
	DD	$LN4@print_data
_print_data_value ENDP
_TEXT	ENDS
PUBLIC	??_C@_01CLKCMJKC@?5?$AA@			; `string'
PUBLIC	??_C@_02MLAGHBOD@?0?6?$AA@			; `string'
PUBLIC	??_C@_01CELHOKLL@?$HN?$AA@			; `string'
PUBLIC	??_C@_02JIKNIHJJ@?6?5?$AA@			; `string'
PUBLIC	??_C@_01IHBHIGKO@?0?$AA@			; `string'
PUBLIC	??_C@_01HCONENDN@?$HL?$AA@			; `string'
PUBLIC	??_C@_01EEMJAFIK@?6?$AA@			; `string'
PUBLIC	_a$GSCopy$
PUBLIC	__$ArrayPad$
PUBLIC	_print_array
EXTRN	_breakflag:DWORD
EXTRN	_outstring:PROC
EXTRN	_msgmax:DWORD
EXTRN	_msg:DWORD
EXTRN	___security_cookie:DWORD
EXTRN	@__security_check_cookie@4:PROC
;	COMDAT ??_C@_01CLKCMJKC@?5?$AA@
CONST	SEGMENT
??_C@_01CLKCMJKC@?5?$AA@ DB ' ', 00H			; `string'
CONST	ENDS
;	COMDAT ??_C@_02MLAGHBOD@?0?6?$AA@
CONST	SEGMENT
??_C@_02MLAGHBOD@?0?6?$AA@ DB ',', 0aH, 00H		; `string'
CONST	ENDS
;	COMDAT ??_C@_01CELHOKLL@?$HN?$AA@
CONST	SEGMENT
??_C@_01CELHOKLL@?$HN?$AA@ DB '}', 00H			; `string'
CONST	ENDS
;	COMDAT ??_C@_02JIKNIHJJ@?6?5?$AA@
CONST	SEGMENT
??_C@_02JIKNIHJJ@?6?5?$AA@ DB 0aH, ' ', 00H		; `string'
CONST	ENDS
;	COMDAT ??_C@_01IHBHIGKO@?0?$AA@
CONST	SEGMENT
??_C@_01IHBHIGKO@?0?$AA@ DB ',', 00H			; `string'
CONST	ENDS
;	COMDAT ??_C@_01HCONENDN@?$HL?$AA@
CONST	SEGMENT
??_C@_01HCONENDN@?$HL?$AA@ DB '{', 00H			; `string'
CONST	ENDS
;	COMDAT ??_C@_01EEMJAFIK@?6?$AA@
CONST	SEGMENT
??_C@_01EEMJAFIK@?6?$AA@ DB 0aH, 00H			; `string'
; Function compile flags: /Ogtp
CONST	ENDS
;	COMDAT _print_array
_TEXT	SEGMENT
_depth$ = -420						; size = 4
_k$ = -416						; size = 4
_spot$ = -412						; size = 4
_a$GSCopy$ = -408					; size = 4
_spots$ = -404						; size = 400
__$ArrayPad$ = -4					; size = 4
_a$ = 8							; size = 4
_datastart$ = 12					; size = 4
_mode$ = 16						; size = 4
_print_array PROC					; COMDAT

; 198  : { int k;

	push	ebp
	mov	ebp, esp
	sub	esp, 420				; 000001a4H
	mov	eax, DWORD PTR ___security_cookie
	xor	eax, ebp
	mov	DWORD PTR __$ArrayPad$[ebp], eax
	mov	eax, DWORD PTR _datastart$[ebp]
	push	esi
	mov	esi, DWORD PTR _a$[ebp]
	push	edi

; 241  : 
; 242  :     if ( breakflag ) break;  /* in case of runaway print, user interrupt */

	mov	DWORD PTR _a$GSCopy$[ebp], esi
	test	eax, eax
	jne	SHORT $LN39@print_arra

; 199  :   int spots[100];
; 200  :   int depth;
; 201  :   char * spot;
; 202  : 
; 203  :   spot = datastart ? datastart : ((char*)a + a->datastart);

	mov	eax, DWORD PTR [esi+20]
	add	eax, esi
$LN39@print_arra:

; 204  : 
; 205  :   if ( a->dim == 0 ) 

	cmp	DWORD PTR [esi+4], 0
	mov	DWORD PTR _spot$[ebp], eax
	jne	SHORT $LN16@print_arra

; 206  :   {
; 207  :     print_data_value(msg+strlen(msg),a->datatype,spot,msgmax-100,mode);

	mov	edx, DWORD PTR _msg
	mov	eax, edx
	lea	edi, DWORD PTR [eax+1]
$LL30@print_arra:
	mov	cl, BYTE PTR [eax]
	inc	eax
	test	cl, cl
	jne	SHORT $LL30@print_arra
	mov	ecx, DWORD PTR _mode$[ebp]
	push	ecx
	mov	ecx, DWORD PTR _msgmax
	add	ecx, -100				; ffffff9cH
	push	ecx
	mov	ecx, DWORD PTR _spot$[ebp]
	push	ecx
	mov	ecx, DWORD PTR [esi+8]
	sub	eax, edi
	push	ecx
	add	eax, edx
	push	eax
	call	_print_data_value

; 208  :     strcat(msg,"\n");

	mov	edi, DWORD PTR _msg
	add	esp, 20					; 00000014H
	dec	edi
$LL31@print_arra:
	mov	al, BYTE PTR [edi+1]
	inc	edi
	test	al, al
	jne	SHORT $LL31@print_arra
	mov	dx, WORD PTR ??_C@_01EEMJAFIK@?6?$AA@
	mov	WORD PTR [edi], dx

; 209  :     outstring(msg);

	mov	eax, DWORD PTR _msg
	push	eax
	call	_outstring
	add	esp, 4
	pop	edi
	pop	esi

; 245  : } /* end print_array */

	mov	ecx, DWORD PTR __$ArrayPad$[ebp]
	xor	ecx, ebp
	call	@__security_check_cookie@4
	mov	esp, ebp
	pop	ebp
	ret	0
$LN16@print_arra:
	push	ebx

; 210  :     return;
; 211  :   }
; 212  : 
; 213  :   outstring("{");

	push	OFFSET ??_C@_01HCONENDN@?$HL?$AA@
	call	_outstring
	add	esp, 4

; 214  :   depth = 1;

	mov	edi, 1

; 215  :   spots[depth] = 0;

	mov	DWORD PTR _spots$[ebp+4], 0
	lea	ebx, DWORD PTR [esi+24]
$LN41@print_arra:

; 214  :   depth = 1;

	mov	DWORD PTR _depth$[ebp], edi
	npad	5
$LL15@print_arra:

; 216  :   for (;;)
; 217  :   { msg[0] = 0;

	mov	ecx, DWORD PTR _msg
	mov	BYTE PTR [ecx], 0

; 218  :     if ( spots[depth] < a->sizes[depth-1] && depth < a->dim )

	mov	eax, DWORD PTR [ebx]
	cmp	DWORD PTR _spots$[ebp+edi*4], eax
	jge	SHORT $LN13@print_arra
	cmp	edi, DWORD PTR [esi+4]
	jge	SHORT $LN40@print_arra

; 219  :     { outstring("{"); depth++; spots[depth] = 0; continue; }

	push	OFFSET ??_C@_01HCONENDN@?$HL?$AA@
	call	_outstring
	inc	edi
	add	esp, 4
	add	ebx, 4
	mov	DWORD PTR _spots$[ebp+edi*4], 0
	jmp	SHORT $LN41@print_arra
$LN13@print_arra:

; 220  :     if ( depth == a->dim )

	cmp	edi, DWORD PTR [esi+4]
$LN40@print_arra:
	jne	$LN12@print_arra

; 221  :     { for ( k = 0 ; k < a->sizes[depth-1] ; k++ )

	mov	esi, DWORD PTR _msg
	mov	DWORD PTR _k$[ebp], 0
	test	eax, eax
	jle	$LN9@print_arra
$LL11@print_arra:

; 222  :       { 
; 223  :         print_data_value(msg+strlen(msg),a->datatype,spot,msgmax-100,mode);

	mov	eax, esi
	lea	edx, DWORD PTR [eax+1]
	npad	3
$LL32@print_arra:
	mov	cl, BYTE PTR [eax]
	inc	eax
	test	cl, cl
	jne	SHORT $LL32@print_arra
	mov	ecx, DWORD PTR _msgmax
	mov	edi, DWORD PTR _spot$[ebp]
	sub	eax, edx
	mov	edx, DWORD PTR _mode$[ebp]
	push	edx
	mov	edx, DWORD PTR _a$GSCopy$[ebp]
	add	ecx, -100				; ffffff9cH
	push	ecx
	mov	ecx, DWORD PTR [edx+8]
	push	edi
	push	ecx
	add	eax, esi
	push	eax
	call	_print_data_value

; 224  :         spot += a->itemsize;

	mov	edx, DWORD PTR _a$GSCopy$[ebp]
	add	edi, DWORD PTR [edx+12]

; 225  :         if ( k < a->sizes[depth-1] - 1 ) strcat(msg,",");

	mov	eax, DWORD PTR [ebx]
	mov	DWORD PTR _spot$[ebp], edi
	mov	edi, DWORD PTR _k$[ebp]
	dec	eax
	add	esp, 20					; 00000014H
	cmp	edi, eax
	jge	SHORT $LN8@print_arra
	mov	edi, DWORD PTR _msg
	dec	edi
$LL33@print_arra:
	mov	al, BYTE PTR [edi+1]
	inc	edi
	test	al, al
	jne	SHORT $LL33@print_arra
	mov	cx, WORD PTR ??_C@_01IHBHIGKO@?0?$AA@
	mov	WORD PTR [edi], cx
	mov	edi, DWORD PTR _k$[ebp]
$LN8@print_arra:

; 226  :         if ( (strlen(msg) > 60) && (k < a->sizes[depth-1] - 1) ) 

	mov	esi, DWORD PTR _msg
	mov	eax, esi
	lea	edx, DWORD PTR [eax+1]
	npad	7
$LL34@print_arra:
	mov	cl, BYTE PTR [eax]
	inc	eax
	test	cl, cl
	jne	SHORT $LL34@print_arra
	sub	eax, edx
	cmp	eax, 60					; 0000003cH
	jbe	SHORT $LN10@print_arra
	mov	edx, DWORD PTR [ebx]
	dec	edx
	cmp	edi, edx
	jge	SHORT $LN10@print_arra

; 227  :         { outstring(msg); 

	push	esi
	call	_outstring

; 228  :           strcpy(msg,"\n ");

	mov	ax, WORD PTR ??_C@_02JIKNIHJJ@?6?5?$AA@
	mov	ecx, DWORD PTR _msg
	mov	WORD PTR [ecx], ax
	mov	dl, BYTE PTR ??_C@_02JIKNIHJJ@?6?5?$AA@+2
	mov	eax, DWORD PTR _msg
	mov	BYTE PTR [eax+2], dl
	mov	esi, DWORD PTR _msg
	add	esp, 4
$LN10@print_arra:

; 221  :     { for ( k = 0 ; k < a->sizes[depth-1] ; k++ )

	inc	edi
	mov	DWORD PTR _k$[ebp], edi
	cmp	edi, DWORD PTR [ebx]
	jl	$LL11@print_arra
	mov	edi, DWORD PTR _depth$[ebp]
$LN9@print_arra:

; 229  :         }
; 230  :       }
; 231  :       outstring(msg);

	push	esi
	call	_outstring
	mov	esi, DWORD PTR _a$GSCopy$[ebp]
	add	esp, 4
$LN12@print_arra:

; 232  :     }
; 233  :     outstring("}");

	push	OFFSET ??_C@_01CELHOKLL@?$HN?$AA@
	call	_outstring

; 234  :     depth--;

	dec	edi
	add	esp, 4
	sub	ebx, 4
	mov	DWORD PTR _depth$[ebp], edi

; 235  :     if ( depth > 0 && (spots[depth]++ < a->sizes[depth-1]-1) )

	test	edi, edi
	jle	SHORT $LN42@print_arra
	mov	eax, DWORD PTR _spots$[ebp+edi*4]
	mov	ecx, DWORD PTR [ebx]
	dec	ecx
	lea	edx, DWORD PTR [eax+1]
	mov	DWORD PTR _spots$[ebp+edi*4], edx
	cmp	eax, ecx
	jge	SHORT $LN37@print_arra

; 236  :     { int i;
; 237  :       outstring(",\n");

	push	OFFSET ??_C@_02MLAGHBOD@?0?6?$AA@
	call	_outstring
	add	esp, 4

; 238  :       for ( i = 0 ; i < depth ; i++ ) outstring(" ");

	test	edi, edi
	jle	SHORT $LN37@print_arra

; 236  :     { int i;
; 237  :       outstring(",\n");

	mov	esi, edi
	npad	5
$LL5@print_arra:

; 238  :       for ( i = 0 ; i < depth ; i++ ) outstring(" ");

	push	OFFSET ??_C@_01CLKCMJKC@?5?$AA@
	call	_outstring
	add	esp, 4
	dec	esi
	jne	SHORT $LL5@print_arra
$LN37@print_arra:
	mov	esi, DWORD PTR _a$GSCopy$[ebp]

; 239  :     }
; 240  :     if ( depth == 0 ) break;

	test	edi, edi
$LN42@print_arra:
	je	SHORT $LN26@print_arra

; 241  : 
; 242  :     if ( breakflag ) break;  /* in case of runaway print, user interrupt */

	cmp	DWORD PTR _breakflag, 0

; 243  :   }

	je	$LL15@print_arra
$LN26@print_arra:

; 244  :   outstring("\n");

	push	OFFSET ??_C@_01EEMJAFIK@?6?$AA@
	call	_outstring

; 245  : } /* end print_array */

	mov	ecx, DWORD PTR __$ArrayPad$[ebp]
	add	esp, 4
	pop	ebx
	pop	edi
	xor	ecx, ebp
	pop	esi
	call	@__security_check_cookie@4
	mov	esp, ebp
	pop	ebp
	ret	0
_print_array ENDP
_TEXT	ENDS
PUBLIC	??_C@_04HOJGNNDP@?6?5?5?5?$AA@			; `string'
PUBLIC	_ex$GSCopy$
PUBLIC	__$ArrayPad$
PUBLIC	_print_array_attribute
;	COMDAT ??_C@_04HOJGNNDP@?6?5?5?5?$AA@
CONST	SEGMENT
??_C@_04HOJGNNDP@?6?5?5?5?$AA@ DB 0aH, '   ', 00H	; `string'
; Function compile flags: /Ogtp
CONST	ENDS
;	COMDAT _print_array_attribute
_TEXT	SEGMENT
_spot$ = -424						; size = 4
_depth$ = -420						; size = 4
tv368 = -416						; size = 4
_ex$GSCopy$ = -412					; size = 4
_linelength$ = -408					; size = 4
_spots$ = -404						; size = 400
__$ArrayPad$ = -4					; size = 4
_ex$ = 8						; size = 4
_datastart$ = 12					; size = 4
_print_array_attribute PROC				; COMDAT

; 259  : { int k;

	push	ebp
	mov	ebp, esp
	sub	esp, 424				; 000001a8H
	mov	eax, DWORD PTR ___security_cookie
	xor	eax, ebp
	mov	DWORD PTR __$ArrayPad$[ebp], eax
	mov	eax, DWORD PTR _datastart$[ebp]
	push	ebx
	mov	ebx, DWORD PTR _ex$[ebp]
	push	edi

; 260  :   int spots[100];
; 261  :   int depth;
; 262  :   char * spot = datastart;
; 263  :   size_t linelength;
; 264  : 
; 265  :   if ( ex->array_spec.dim == 0 ) /* scalar */

	xor	edi, edi

; 280  :     { for ( k = 0 ; k < ex->array_spec.sizes[depth-1] ; k++ )

	mov	DWORD PTR _ex$GSCopy$[ebp], ebx
	mov	DWORD PTR _spot$[ebp], eax
	cmp	DWORD PTR [ebx+76], edi
	jne	SHORT $LN13@print_arra@2

; 266  :   { print_data_value(msg,ex->type,spot,msgmax-5,PRINT_PLAIN);

	mov	ecx, DWORD PTR _msgmax
	mov	edx, DWORD PTR [ebx+68]
	push	1001					; 000003e9H
	add	ecx, -5					; fffffffbH
	push	ecx
	push	eax
	mov	eax, DWORD PTR _msg
	push	edx
	push	eax
	call	_print_data_value

; 267  :     outstring(msg);

	mov	ecx, DWORD PTR _msg
	push	ecx
	call	_outstring
	add	esp, 24					; 00000018H
	pop	edi
	pop	ebx

; 309  : } /* end print_array_attribute() */

	mov	ecx, DWORD PTR __$ArrayPad$[ebp]
	xor	ecx, ebp
	call	@__security_check_cookie@4
	mov	esp, ebp
	pop	ebp
	ret	0
$LN13@print_arra@2:
	push	esi

; 268  :     return;
; 269  :   }
; 270  : 
; 271  :   outstring("{");

	push	OFFSET ??_C@_01HCONENDN@?$HL?$AA@
	call	_outstring

; 273  :   spots[depth] = 0;

	mov	DWORD PTR _spots$[ebp+4], edi

; 274  :   linelength = 0;

	mov	DWORD PTR _linelength$[ebp], edi
	add	esp, 4
	mov	esi, 1
	lea	edi, DWORD PTR [ebx+96]
$LN31@print_arra@2:

; 272  :   depth = 1;

	mov	DWORD PTR tv368[ebp], edi
	mov	DWORD PTR _depth$[ebp], esi
	npad	6
$LL12@print_arra@2:

; 275  :   for (;;)
; 276  :   { msg[0] = 0;

	mov	edx, DWORD PTR _msg
	mov	BYTE PTR [edx], 0

; 277  :     if ( (spots[depth] < ex->array_spec.sizes[depth-1]) && (depth < ex->array_spec.dim) )

	mov	eax, DWORD PTR [edi]
	cmp	DWORD PTR _spots$[ebp+esi*4], eax
	jge	SHORT $LN10@print_arra@2
	cmp	esi, DWORD PTR [ebx+76]
	jge	SHORT $LN30@print_arra@2

; 278  :     { outstring("{"); depth++; spots[depth] = 0; continue; }

	push	OFFSET ??_C@_01HCONENDN@?$HL?$AA@
	call	_outstring
	inc	esi
	add	esp, 4
	add	edi, 4
	mov	DWORD PTR _spots$[ebp+esi*4], 0
	jmp	SHORT $LN31@print_arra@2
$LN10@print_arra@2:

; 279  :     if ( depth == ex->array_spec.dim )

	cmp	esi, DWORD PTR [ebx+76]
$LN30@print_arra@2:
	jne	$LN9@print_arra@2

; 280  :     { for ( k = 0 ; k < ex->array_spec.sizes[depth-1] ; k++ )

	mov	ecx, DWORD PTR _msg
	xor	ebx, ebx
	test	eax, eax
	jle	$LN6@print_arra@2
$LL8@print_arra@2:

; 281  :       { print_data_value(msg+strlen(msg),ex->type,spot,msgmax-100,PRINT_PLAIN);

	mov	eax, ecx
	lea	esi, DWORD PTR [eax+1]
$LL22@print_arra@2:
	mov	dl, BYTE PTR [eax]
	inc	eax
	test	dl, dl
	jne	SHORT $LL22@print_arra@2
	mov	edx, DWORD PTR _msgmax
	push	1001					; 000003e9H
	add	edx, -100				; ffffff9cH
	push	edx
	mov	edx, DWORD PTR _ex$GSCopy$[ebp]
	mov	edx, DWORD PTR [edx+68]
	sub	eax, esi
	mov	esi, DWORD PTR _spot$[ebp]
	push	esi
	push	edx
	add	eax, ecx
	push	eax
	call	_print_data_value

; 282  :         spot += ex->array_spec.itemsize;

	mov	eax, DWORD PTR _ex$GSCopy$[ebp]

; 283  :         if ( k < ex->array_spec.sizes[depth-1] - 1 ) 

	mov	ecx, DWORD PTR [edi]
	add	esi, DWORD PTR [eax+84]
	dec	ecx
	add	esp, 20					; 00000014H
	mov	DWORD PTR _spot$[ebp], esi
	cmp	ebx, ecx
	jge	$LN26@print_arra@2

; 284  :         { strcat(msg,",");

	mov	edi, DWORD PTR _msg
	dec	edi
	npad	6
$LL23@print_arra@2:
	mov	al, BYTE PTR [edi+1]
	inc	edi
	test	al, al
	jne	SHORT $LL23@print_arra@2
	mov	dx, WORD PTR ??_C@_01IHBHIGKO@?0?$AA@
	mov	WORD PTR [edi], dx

; 285  :           if ( linelength+strlen(msg) > 70 )

	mov	ecx, DWORD PTR _msg
	mov	eax, ecx
	lea	esi, DWORD PTR [eax+1]
	npad	3
$LL24@print_arra@2:
	mov	dl, BYTE PTR [eax]
	inc	eax
	test	dl, dl
	jne	SHORT $LL24@print_arra@2
	sub	eax, esi
	add	eax, DWORD PTR _linelength$[ebp]
	cmp	eax, 70					; 00000046H
	jbe	SHORT $LN28@print_arra@2

; 286  :           { outstring(msg);

	push	ecx
	call	_outstring

; 287  :             outstring("\n   ");

	push	OFFSET ??_C@_04HOJGNNDP@?6?5?5?5?$AA@
	call	_outstring

; 288  :             linelength = 0;
; 289  :             msg[0] = 0;

	mov	eax, DWORD PTR _msg
	mov	BYTE PTR [eax], 0
	mov	ecx, DWORD PTR _msg
	add	esp, 8
	mov	DWORD PTR _linelength$[ebp], 0
$LN28@print_arra@2:
	mov	edi, DWORD PTR tv368[ebp]
$LN7@print_arra@2:

; 280  :     { for ( k = 0 ; k < ex->array_spec.sizes[depth-1] ; k++ )

	inc	ebx
	cmp	ebx, DWORD PTR [edi]
	jl	$LL8@print_arra@2
	mov	esi, DWORD PTR _depth$[ebp]
$LN6@print_arra@2:

; 290  :           }
; 291  :         } 
; 292  :       }
; 293  :       outstring(msg);

	push	ecx
	call	_outstring

; 294  :       linelength += strlen(msg);

	mov	eax, DWORD PTR _msg
	add	esp, 4
	lea	edx, DWORD PTR [eax+1]
$LL25@print_arra@2:
	mov	cl, BYTE PTR [eax]
	inc	eax
	test	cl, cl
	jne	SHORT $LL25@print_arra@2
	mov	ebx, DWORD PTR _ex$GSCopy$[ebp]
	sub	eax, edx
	add	DWORD PTR _linelength$[ebp], eax
$LN9@print_arra@2:

; 295  :     }
; 296  :     
; 297  :     outstring("}");

	push	OFFSET ??_C@_01CELHOKLL@?$HN?$AA@
	call	_outstring

; 298  :     depth--;

	dec	esi
	sub	edi, 4
	add	esp, 4
	mov	DWORD PTR _depth$[ebp], esi
	mov	DWORD PTR tv368[ebp], edi

; 299  :     if ( depth > 0 && (spots[depth]++ < ex->array_spec.sizes[depth-1]-1) )

	test	esi, esi
	jle	SHORT $LN32@print_arra@2
	mov	eax, DWORD PTR _spots$[ebp+esi*4]
	mov	ecx, DWORD PTR [edi]
	dec	ecx
	lea	edx, DWORD PTR [eax+1]
	mov	DWORD PTR _spots$[ebp+esi*4], edx
	cmp	eax, ecx
	jge	SHORT $LN29@print_arra@2

; 300  :     { outstring(",");

	push	OFFSET ??_C@_01IHBHIGKO@?0?$AA@
	call	_outstring
	add	esp, 4

; 301  :       if ( linelength > 70 )

	cmp	DWORD PTR _linelength$[ebp], 70		; 00000046H
	jbe	SHORT $LN29@print_arra@2

; 302  :       { outstring("\n   ");

	push	OFFSET ??_C@_04HOJGNNDP@?6?5?5?5?$AA@
	call	_outstring
	add	esp, 4

; 303  :         linelength = 0;

	mov	DWORD PTR _linelength$[ebp], 0
$LN29@print_arra@2:
	mov	ebx, DWORD PTR _ex$GSCopy$[ebp]

; 304  :       }
; 305  :     } 
; 306  :     if ( depth == 0 ) break;

	test	esi, esi
$LN32@print_arra@2:
	jne	$LL12@print_arra@2

; 307  :   }
; 308  :   outstring(" ");

	push	OFFSET ??_C@_01CLKCMJKC@?5?$AA@
	call	_outstring

; 309  : } /* end print_array_attribute() */

	mov	ecx, DWORD PTR __$ArrayPad$[ebp]
	add	esp, 4
	pop	esi
	pop	edi
	xor	ecx, ebp
	pop	ebx
	call	@__security_check_cookie@4
	mov	esp, ebp
	pop	ebp
	ret	0
$LN26@print_arra@2:

; 288  :             linelength = 0;
; 289  :             msg[0] = 0;

	mov	ecx, DWORD PTR _msg
	jmp	$LN7@print_arra@2
_print_array_attribute ENDP
_TEXT	ENDS
PUBLIC	??_C@_0M@MKDFHCFK@?$CDdefine?5?$CFs?5?$AA@	; `string'
PUBLIC	_dump_macros
EXTRN	_macro_subs:DWORD
EXTRN	_macros:DWORD
EXTRN	_macro_count:DWORD
EXTRN	_keep_macros_flag:DWORD
;	COMDAT ??_C@_0M@MKDFHCFK@?$CDdefine?5?$CFs?5?$AA@
CONST	SEGMENT
??_C@_0M@MKDFHCFK@?$CDdefine?5?$CFs?5?$AA@ DB '#define %s ', 00H ; `string'
; Function compile flags: /Ogtp
CONST	ENDS
;	COMDAT _dump_macros
_TEXT	SEGMENT
_dump_macros PROC					; COMDAT

; 906  : 
; 907  :   if ( !keep_macros_flag ) return;

	cmp	DWORD PTR _keep_macros_flag, 0
	je	$LN5@dump_macro

; 908  :   outstring("\n");

	push	edi
	push	OFFSET ??_C@_01EEMJAFIK@?6?$AA@
	call	_outstring

; 909  :   for ( n = 0 ; n < macro_count ; n++ )

	xor	edi, edi
	add	esp, 4
	cmp	DWORD PTR _macro_count, edi
	jle	SHORT $LN1@dump_macro

; 908  :   outstring("\n");

	push	esi
	xor	esi, esi
	npad	8
$LL3@dump_macro:

; 910  :   { sprintf(msg,"#define %s ",macros[n].name);

	mov	eax, DWORD PTR _macros
	mov	edx, DWORD PTR _msg
	lea	ecx, DWORD PTR [esi+eax]
	push	ecx
	push	OFFSET ??_C@_0M@MKDFHCFK@?$CDdefine?5?$CFs?5?$AA@
	push	edx
	call	_sprintf

; 911  :      outstring(msg);

	mov	eax, DWORD PTR _msg
	push	eax
	call	_outstring

; 912  :      outstring(macro_subs+macros[n].offset);

	mov	ecx, DWORD PTR _macros
	mov	edx, DWORD PTR [esi+ecx+32]
	add	edx, DWORD PTR _macro_subs
	push	edx
	call	_outstring

; 913  :      outstring("\n");

	push	OFFSET ??_C@_01EEMJAFIK@?6?$AA@
	call	_outstring
	inc	edi
	add	esp, 24					; 00000018H
	add	esi, 40					; 00000028H
	cmp	edi, DWORD PTR _macro_count
	jl	SHORT $LL3@dump_macro
	pop	esi
$LN1@dump_macro:

; 914  :   }
; 915  :   outstring("\n");

	push	OFFSET ??_C@_01EEMJAFIK@?6?$AA@
	call	_outstring
	add	esp, 4
	pop	edi
$LN5@dump_macro:

; 916  : 
; 917  : } // end dump_macros()

	ret	0
_dump_macros ENDP
_TEXT	ENDS
PUBLIC	??_C@_0BC@JKKDELHO@form_integrand?3?5?6?$AA@	; `string'
PUBLIC	??_C@_0CG@OILKINLB@k_vector_order?5?$CFd?6vector_integra@ ; `string'
PUBLIC	??_C@_06CECNODIB@Q?$CF1d?3?5?$AA@		; `string'
PUBLIC	??_C@_0BE@FFCMACEA@vector_integrand?3?5?6?$AA@	; `string'
PUBLIC	??_C@_0BD@FFHMJOPF@scalar_integrand?3?5?$AA@	; `string'
PUBLIC	??_C@_0BF@HDCJNGOG@?5parameter_1?5?$CF3?415g?5?$AA@ ; `string'
PUBLIC	??_C@_0BB@KHBFAOKE@?5modulus?5?$CF3?415g?5?$AA@	; `string'
PUBLIC	__real@3ff0000000000000
PUBLIC	??_C@_0BC@BKOFLJD@?5element_modulus?5?$AA@	; `string'
PUBLIC	??_C@_0BC@FFFNFGHJ@?5calculate_in_3d?5?$AA@	; `string'
PUBLIC	??_C@_0P@EDHOAPAJ@?5ignore_fixed?5?$AA@		; `string'
PUBLIC	??_C@_0BF@HKBHGILO@?5ignore_constraints?5?$AA@	; `string'
PUBLIC	??_C@_08EALMPJOD@?5global?5?$AA@		; `string'
PUBLIC	_dump_method_specs
EXTRN	_print_express:PROC
EXTRN	_basic_gen_methods:BYTE
;	COMDAT ??_C@_0BC@JKKDELHO@form_integrand?3?5?6?$AA@
CONST	SEGMENT
??_C@_0BC@JKKDELHO@form_integrand?3?5?6?$AA@ DB 'form_integrand: ', 0aH, 00H ; `string'
CONST	ENDS
;	COMDAT ??_C@_0CG@OILKINLB@k_vector_order?5?$CFd?6vector_integra@
CONST	SEGMENT
??_C@_0CG@OILKINLB@k_vector_order?5?$CFd?6vector_integra@ DB 'k_vector_or'
	DB	'der %d', 0aH, 'vector_integrand: ', 0aH, 00H ; `string'
CONST	ENDS
;	COMDAT ??_C@_06CECNODIB@Q?$CF1d?3?5?$AA@
CONST	SEGMENT
??_C@_06CECNODIB@Q?$CF1d?3?5?$AA@ DB 'Q%1d: ', 00H	; `string'
CONST	ENDS
;	COMDAT ??_C@_0BE@FFCMACEA@vector_integrand?3?5?6?$AA@
CONST	SEGMENT
??_C@_0BE@FFCMACEA@vector_integrand?3?5?6?$AA@ DB 'vector_integrand: ', 0aH
	DB	00H						; `string'
CONST	ENDS
;	COMDAT ??_C@_0BD@FFHMJOPF@scalar_integrand?3?5?$AA@
CONST	SEGMENT
??_C@_0BD@FFHMJOPF@scalar_integrand?3?5?$AA@ DB 'scalar_integrand: ', 00H ; `string'
CONST	ENDS
;	COMDAT ??_C@_0BF@HDCJNGOG@?5parameter_1?5?$CF3?415g?5?$AA@
CONST	SEGMENT
??_C@_0BF@HDCJNGOG@?5parameter_1?5?$CF3?415g?5?$AA@ DB ' parameter_1 %3.1'
	DB	'5g ', 00H					; `string'
CONST	ENDS
;	COMDAT ??_C@_0BB@KHBFAOKE@?5modulus?5?$CF3?415g?5?$AA@
CONST	SEGMENT
??_C@_0BB@KHBFAOKE@?5modulus?5?$CF3?415g?5?$AA@ DB ' modulus %3.15g ', 00H ; `string'
CONST	ENDS
;	COMDAT __real@3ff0000000000000
CONST	SEGMENT
__real@3ff0000000000000 DQ 03ff0000000000000r	; 1
CONST	ENDS
;	COMDAT ??_C@_0BC@BKOFLJD@?5element_modulus?5?$AA@
CONST	SEGMENT
??_C@_0BC@BKOFLJD@?5element_modulus?5?$AA@ DB ' element_modulus ', 00H ; `string'
CONST	ENDS
;	COMDAT ??_C@_0BC@FFFNFGHJ@?5calculate_in_3d?5?$AA@
CONST	SEGMENT
??_C@_0BC@FFFNFGHJ@?5calculate_in_3d?5?$AA@ DB ' calculate_in_3d ', 00H ; `string'
CONST	ENDS
;	COMDAT ??_C@_0P@EDHOAPAJ@?5ignore_fixed?5?$AA@
CONST	SEGMENT
??_C@_0P@EDHOAPAJ@?5ignore_fixed?5?$AA@ DB ' ignore_fixed ', 00H ; `string'
CONST	ENDS
;	COMDAT ??_C@_0BF@HKBHGILO@?5ignore_constraints?5?$AA@
CONST	SEGMENT
??_C@_0BF@HKBHGILO@?5ignore_constraints?5?$AA@ DB ' ignore_constraints ', 00H ; `string'
CONST	ENDS
;	COMDAT ??_C@_08EALMPJOD@?5global?5?$AA@
CONST	SEGMENT
??_C@_08EALMPJOD@?5global?5?$AA@ DB ' global ', 00H	; `string'
; Function compile flags: /Ogtp
CONST	ENDS
;	COMDAT _dump_method_specs
_TEXT	SEGMENT
_meth$ = 8						; size = 4
_dump_method_specs PROC					; COMDAT

; 927  : {

	push	ebp
	mov	ebp, esp

; 928  :   struct method_instance *mi = METH_INSTANCE(meth);

	mov	eax, DWORD PTR _meth$[ebp]
	push	esi
	cdq
	mov	esi, eax
	xor	esi, edx
	sub	esi, edx
	imul	esi, 2928				; 00000b70H
	add	esi, DWORD PTR _meth_inst_list
	push	edi

; 929  :   int j;
; 930  : 
; 931  :   if ( mi->flags & GLOBAL_INST ) outstring(" global ");

	test	DWORD PTR [esi+140], 1073741824		; 40000000H
	je	SHORT $LN20@dump_metho
	push	OFFSET ??_C@_08EALMPJOD@?5global?5?$AA@
	call	_outstring
	add	esp, 4
$LN20@dump_metho:

; 932  :   if ( mi->flags & IGNORE_CONSTR ) outstring(" ignore_constraints ");

	test	DWORD PTR [esi+140], 33554432		; 02000000H
	je	SHORT $LN19@dump_metho
	push	OFFSET ??_C@_0BF@HKBHGILO@?5ignore_constraints?5?$AA@
	call	_outstring
	add	esp, 4
$LN19@dump_metho:

; 933  :   if ( mi->flags & IGNORE_FIXED ) outstring(" ignore_fixed ");

	test	DWORD PTR [esi+140], 134217728		; 08000000H
	je	SHORT $LN18@dump_metho
	push	OFFSET ??_C@_0P@EDHOAPAJ@?5ignore_fixed?5?$AA@
	call	_outstring
	add	esp, 4
$LN18@dump_metho:

; 934  :   if ( mi->flags & CALC_IN_3D ) outstring(" calculate_in_3d ");

	push	ebx
	mov	bl, 1
	test	BYTE PTR [esi+140], bl
	je	SHORT $LN17@dump_metho
	push	OFFSET ??_C@_0BC@FFFNFGHJ@?5calculate_in_3d?5?$AA@
	call	_outstring
	add	esp, 4
$LN17@dump_metho:

; 935  :   if ( mi->flags & ELEMENT_MODULUS_FLAG )

	test	DWORD PTR [esi+140], 268435456		; 10000000H
	je	SHORT $LN16@dump_metho

; 936  :   {  outstring(" element_modulus ");

	push	OFFSET ??_C@_0BC@BKOFLJD@?5element_modulus?5?$AA@
	call	_outstring

; 937  :      outstring(EXTRAS(mi->type)[mi->elmodulus].name);

	mov	eax, DWORD PTR [esi+136]
	mov	ecx, DWORD PTR [esi+228]
	imul	eax, 112				; 00000070H
	mov	edx, DWORD PTR _web[eax+104]
	imul	ecx, 240				; 000000f0H
	add	edx, ecx
	add	edx, DWORD PTR _dymem
	push	edx
	call	_outstring
	add	esp, 8
$LN16@dump_metho:

; 938  :   }
; 939  :   if ( mi->modulus != 1.0 )

	fld	QWORD PTR [esi+304]
	fld1
	fucompp
	fnstsw	ax
	test	ah, 68					; 00000044H
	jnp	SHORT $LN15@dump_metho

; 940  :      { 
; 941  : #ifdef FLOAT128
; 942  :         sprintf(msg," modulus %3.*Qg ",DPREC,mi->modulus);
; 943  : #elif defined(LONGDOUBLE)
; 944  :         sprintf(msg," modulus %3.*Lg ",DPREC,mi->modulus);
; 945  : #else
; 946  :         sprintf(msg," modulus %3.15g ",mi->modulus);

	fld	QWORD PTR [esi+304]
	mov	eax, DWORD PTR _msg
	sub	esp, 8
	fstp	QWORD PTR [esp]
	push	OFFSET ??_C@_0BB@KHBFAOKE@?5modulus?5?$CF3?415g?5?$AA@
	push	eax
	call	_sprintf

; 947  : #endif 
; 948  :         outstring(msg);

	mov	ecx, DWORD PTR _msg
	push	ecx
	call	_outstring
	add	esp, 20					; 00000014H
$LN15@dump_metho:

; 949  :      }
; 950  :   if ( mi->flags & METH_PARAMETER_1 )

	test	DWORD PTR [esi+140], 8388608		; 00800000H
	je	SHORT $LN14@dump_metho

; 951  :   { 
; 952  : #ifdef FLOAT128
; 953  :      sprintf(msg," parameter_1 %3.*Lg ",DPREC,mi->parameter_1);
; 954  : #elif defined(LONGDOUBLE)
; 955  :      sprintf(msg," parameter_1 %3.*Lg ",DPREC,mi->parameter_1);
; 956  : #else
; 957  :      sprintf(msg," parameter_1 %3.15g ",mi->parameter_1);

	fld	QWORD PTR [esi+2904]
	mov	edx, DWORD PTR _msg
	sub	esp, 8
	fstp	QWORD PTR [esp]
	push	OFFSET ??_C@_0BF@HDCJNGOG@?5parameter_1?5?$CF3?415g?5?$AA@
	push	edx
	call	_sprintf

; 958  : #endif 
; 959  :      outstring(msg);

	mov	eax, DWORD PTR _msg
	push	eax
	call	_outstring
	add	esp, 20					; 00000014H
$LN14@dump_metho:

; 960  :   }
; 961  :   outstring("\n");

	push	OFFSET ??_C@_01EEMJAFIK@?6?$AA@
	call	_outstring

; 962  :   if ( basic_gen_methods[mi->gen_method].spec_flags & SPEC_SCALAR )

	mov	eax, DWORD PTR [esi+148]
	lea	ecx, DWORD PTR [eax+eax*4]
	shl	ecx, 5
	add	esp, 4
	test	BYTE PTR _basic_gen_methods[ecx+136], bl
	je	SHORT $LN29@dump_metho

; 963  :     { outstring("scalar_integrand: ");

	push	OFFSET ??_C@_0BD@FFHMJOPF@scalar_integrand?3?5?$AA@
	call	_outstring

; 964  :       outstring(print_express(mi->expr[0],'X'));

	mov	edx, DWORD PTR [esi+232]
	push	88					; 00000058H
	push	edx
	call	_print_express
	push	eax
	call	_outstring

; 965  :       outstring("\n");

	push	OFFSET ??_C@_01EEMJAFIK@?6?$AA@
	call	_outstring
	add	esp, 20					; 00000014H
$LN29@dump_metho:

; 966  :     }
; 967  :   if ( basic_gen_methods[mi->gen_method].spec_flags & SPEC_VECTOR )

	mov	eax, DWORD PTR [esi+148]
	lea	eax, DWORD PTR [eax+eax*4]
	shl	eax, 5
	test	BYTE PTR _basic_gen_methods[eax+136], 2
	je	SHORT $LN30@dump_metho

; 968  :     { outstring("vector_integrand: \n");

	push	OFFSET ??_C@_0BE@FFCMACEA@vector_integrand?3?5?6?$AA@
	call	_outstring

; 969  :       for ( j = 0 ; j < SDIM ; j++ )

	xor	eax, eax
	add	esp, 4
	cmp	DWORD PTR _web+616, eax
	jle	SHORT $LN30@dump_metho

; 968  :     { outstring("vector_integrand: \n");

	lea	ebx, DWORD PTR [esi+232]
$LL11@dump_metho:

; 970  :         { sprintf(msg,"Q%1d: ",j+1); outstring(msg); 

	mov	ecx, DWORD PTR _msg
	lea	edi, DWORD PTR [eax+1]
	push	edi
	push	OFFSET ??_C@_06CECNODIB@Q?$CF1d?3?5?$AA@
	push	ecx
	call	_sprintf
	mov	edx, DWORD PTR _msg
	push	edx
	call	_outstring

; 971  :           outstring(print_express(mi->expr[j],'X'));

	mov	eax, DWORD PTR [ebx]
	push	88					; 00000058H
	push	eax
	call	_print_express
	push	eax
	call	_outstring

; 972  :           outstring("\n");

	push	OFFSET ??_C@_01EEMJAFIK@?6?$AA@
	call	_outstring
	mov	eax, edi
	add	esp, 32					; 00000020H
	add	ebx, 4
	cmp	eax, DWORD PTR _web+616
	jl	SHORT $LL11@dump_metho
$LN30@dump_metho:

; 973  :         }
; 974  :     }
; 975  :   if ( basic_gen_methods[mi->gen_method].spec_flags & SPEC_KVECTOR )

	mov	eax, DWORD PTR [esi+148]
	lea	ecx, DWORD PTR [eax+eax*4]
	shl	ecx, 5
	test	BYTE PTR _basic_gen_methods[ecx+136], 64 ; 00000040H
	je	$LN5@dump_metho

; 976  :     { sprintf(msg,"k_vector_order %d\nvector_integrand: \n",mi->vec_order);

	mov	edx, DWORD PTR [esi+224]
	mov	eax, DWORD PTR _msg
	push	edx
	push	OFFSET ??_C@_0CG@OILKINLB@k_vector_order?5?$CFd?6vector_integra@
	push	eax
	call	_sprintf

; 977  :       outstring(msg);

	mov	ecx, DWORD PTR _msg
	push	ecx
	call	_outstring

; 978  :       for ( j = 0 ; j < (SDIM-mi->vec_order)*SDIM ; j++ )

	mov	ecx, DWORD PTR _web+616
	mov	edx, ecx
	sub	edx, DWORD PTR [esi+224]
	add	esp, 16					; 00000010H
	imul	edx, ecx
	xor	eax, eax
	test	edx, edx
	jle	SHORT $LN5@dump_metho

; 976  :     { sprintf(msg,"k_vector_order %d\nvector_integrand: \n",mi->vec_order);

	lea	ebx, DWORD PTR [esi+232]
	npad	8
$LL7@dump_metho:

; 979  :         { sprintf(msg,"Q%1d: ",j+1); outstring(msg); 

	lea	edi, DWORD PTR [eax+1]
	mov	eax, DWORD PTR _msg
	push	edi
	push	OFFSET ??_C@_06CECNODIB@Q?$CF1d?3?5?$AA@
	push	eax
	call	_sprintf
	mov	ecx, DWORD PTR _msg
	push	ecx
	call	_outstring

; 980  :           outstring(print_express(mi->expr[j],'X'));

	mov	edx, DWORD PTR [ebx]
	push	88					; 00000058H
	push	edx
	call	_print_express
	push	eax
	call	_outstring

; 981  :           outstring("\n");

	push	OFFSET ??_C@_01EEMJAFIK@?6?$AA@
	call	_outstring
	mov	ecx, DWORD PTR _web+616
	mov	edx, ecx
	sub	edx, DWORD PTR [esi+224]
	mov	eax, edi
	imul	edx, ecx
	add	esp, 32					; 00000020H
	add	ebx, 4
	cmp	eax, edx
	jl	SHORT $LL7@dump_metho
$LN5@dump_metho:

; 982  :         }
; 983  :     }
; 984  :   if ( basic_gen_methods[mi->gen_method].spec_flags & SPEC_2FORM )

	mov	eax, DWORD PTR [esi+148]
	lea	eax, DWORD PTR [eax+eax*4]
	shl	eax, 5
	test	BYTE PTR _basic_gen_methods[eax+136], 4
	pop	ebx
	je	$LN1@dump_metho

; 985  :     { outstring("form_integrand: \n");

	push	OFFSET ??_C@_0BC@JKKDELHO@form_integrand?3?5?6?$AA@
	call	_outstring

; 986  :       for ( j = 0 ; j < (SDIM*(SDIM-1))/2 ; j++ )

	mov	edx, DWORD PTR _web+616
	lea	eax, DWORD PTR [edx-1]
	imul	eax, edx
	cdq
	sub	eax, edx
	sar	eax, 1
	add	esp, 4
	xor	ecx, ecx
	test	eax, eax
	jle	SHORT $LN1@dump_metho

; 985  :     { outstring("form_integrand: \n");

	lea	edi, DWORD PTR [esi+232]
	npad	5
$LL3@dump_metho:

; 987  :         { sprintf(msg,"Q%1d: ",j+1); outstring(msg); 

	lea	esi, DWORD PTR [ecx+1]
	mov	ecx, DWORD PTR _msg
	push	esi
	push	OFFSET ??_C@_06CECNODIB@Q?$CF1d?3?5?$AA@
	push	ecx
	call	_sprintf
	mov	edx, DWORD PTR _msg
	push	edx
	call	_outstring

; 988  :           outstring(print_express(mi->expr[j],'X'));

	mov	eax, DWORD PTR [edi]
	push	88					; 00000058H
	push	eax
	call	_print_express
	push	eax
	call	_outstring

; 989  :           outstring("\n");

	push	OFFSET ??_C@_01EEMJAFIK@?6?$AA@
	call	_outstring
	mov	edx, DWORD PTR _web+616
	lea	eax, DWORD PTR [edx-1]
	imul	eax, edx
	cdq
	sub	eax, edx
	mov	ecx, esi
	sar	eax, 1
	add	esp, 32					; 00000020H
	add	edi, 4
	cmp	ecx, eax
	jl	SHORT $LL3@dump_metho
$LN1@dump_metho:
	pop	edi
	pop	esi

; 990  :         }
; 991  :     }
; 992  : } /* end dump_method_specs() */

	pop	ebp
	ret	0
_dump_method_specs ENDP
_TEXT	ENDS
PUBLIC	??_C@_06MMEBJFA@?5?$CFs?$CFc?5?$AA@		; `string'
PUBLIC	??_C@_04KMMDIKEB@?5?$CFs?5?$AA@			; `string'
PUBLIC	??_C@_0N@LLGMOCIP@?5original?5?$CFs?$AA@	; `string'
PUBLIC	??_C@_0BE@KMLNMGPF@?5no_hessian_normal?5?$AA@	; `string'
PUBLIC	??_C@_06FGOOKMMP@?5bare?5?$AA@			; `string'
PUBLIC	??_C@_0O@KNIDECJO@?5axial_point?5?$AA@		; `string'
PUBLIC	??_C@_0O@OLGCOGFK@?5hit_partner?5?$AA@		; `string'
PUBLIC	??_C@_07LLDGIOOM@?5fixed?5?$AA@			; `string'
PUBLIC	??_C@_03JDANDILB@?$CFd?5?$AA@			; `string'
PUBLIC	??_C@_03IKGEINEE@?$CFs?5?$AA@			; `string'
PUBLIC	??_C@_0P@NLMCGNKJ@?5?5constraints?5?$AA@	; `string'
PUBLIC	??_C@_04BBFBANHC@?$CF3s?5?$AA@			; `string'
PUBLIC	??_C@_04HCPIBBPC@?$CJ?5?$CK?1?$AA@		; `string'
PUBLIC	??_C@_08DIAEIIJ@?5?$CF17?415g?$AA@		; `string'
PUBLIC	??_C@_05KAJPEEKP@?5?1?$CK?5?$CI?$AA@		; `string'
PUBLIC	??_C@_0P@MGLFIDGF@?5?5boundary?5?$CFs?5?$AA@	; `string'
PUBLIC	??_C@_09EJFODHIB@?5?5?$CF17?415g?$AA@		; `string'
PUBLIC	??_C@_03GLGIAOBD@?$CF3s?$AA@			; `string'
PUBLIC	_vertex_dump
EXTRN	_nullcon:QWORD
EXTRN	_V_BOUNDARY_ATTR:DWORD
EXTRN	_outfd:DWORD
;	COMDAT ??_C@_06MMEBJFA@?5?$CFs?$CFc?5?$AA@
CONST	SEGMENT
??_C@_06MMEBJFA@?5?$CFs?$CFc?5?$AA@ DB ' %s%c ', 00H	; `string'
CONST	ENDS
;	COMDAT ??_C@_04KMMDIKEB@?5?$CFs?5?$AA@
CONST	SEGMENT
??_C@_04KMMDIKEB@?5?$CFs?5?$AA@ DB ' %s ', 00H		; `string'
CONST	ENDS
;	COMDAT ??_C@_0N@LLGMOCIP@?5original?5?$CFs?$AA@
CONST	SEGMENT
??_C@_0N@LLGMOCIP@?5original?5?$CFs?$AA@ DB ' original %s', 00H ; `string'
CONST	ENDS
;	COMDAT ??_C@_0BE@KMLNMGPF@?5no_hessian_normal?5?$AA@
CONST	SEGMENT
??_C@_0BE@KMLNMGPF@?5no_hessian_normal?5?$AA@ DB ' no_hessian_normal ', 00H ; `string'
CONST	ENDS
;	COMDAT ??_C@_06FGOOKMMP@?5bare?5?$AA@
CONST	SEGMENT
??_C@_06FGOOKMMP@?5bare?5?$AA@ DB ' bare ', 00H		; `string'
CONST	ENDS
;	COMDAT ??_C@_0O@KNIDECJO@?5axial_point?5?$AA@
CONST	SEGMENT
??_C@_0O@KNIDECJO@?5axial_point?5?$AA@ DB ' axial_point ', 00H ; `string'
CONST	ENDS
;	COMDAT ??_C@_0O@OLGCOGFK@?5hit_partner?5?$AA@
CONST	SEGMENT
??_C@_0O@OLGCOGFK@?5hit_partner?5?$AA@ DB ' hit_partner ', 00H ; `string'
CONST	ENDS
;	COMDAT ??_C@_07LLDGIOOM@?5fixed?5?$AA@
CONST	SEGMENT
??_C@_07LLDGIOOM@?5fixed?5?$AA@ DB ' fixed ', 00H	; `string'
CONST	ENDS
;	COMDAT ??_C@_03JDANDILB@?$CFd?5?$AA@
CONST	SEGMENT
??_C@_03JDANDILB@?$CFd?5?$AA@ DB '%d ', 00H		; `string'
CONST	ENDS
;	COMDAT ??_C@_03IKGEINEE@?$CFs?5?$AA@
CONST	SEGMENT
??_C@_03IKGEINEE@?$CFs?5?$AA@ DB '%s ', 00H		; `string'
CONST	ENDS
;	COMDAT ??_C@_0P@NLMCGNKJ@?5?5constraints?5?$AA@
CONST	SEGMENT
??_C@_0P@NLMCGNKJ@?5?5constraints?5?$AA@ DB '  constraints ', 00H ; `string'
CONST	ENDS
;	COMDAT ??_C@_04BBFBANHC@?$CF3s?5?$AA@
CONST	SEGMENT
??_C@_04BBFBANHC@?$CF3s?5?$AA@ DB '%3s ', 00H		; `string'
CONST	ENDS
;	COMDAT ??_C@_04HCPIBBPC@?$CJ?5?$CK?1?$AA@
CONST	SEGMENT
??_C@_04HCPIBBPC@?$CJ?5?$CK?1?$AA@ DB ') */', 00H	; `string'
CONST	ENDS
;	COMDAT ??_C@_08DIAEIIJ@?5?$CF17?415g?$AA@
CONST	SEGMENT
??_C@_08DIAEIIJ@?5?$CF17?415g?$AA@ DB ' %17.15g', 00H	; `string'
CONST	ENDS
;	COMDAT ??_C@_05KAJPEEKP@?5?1?$CK?5?$CI?$AA@
CONST	SEGMENT
??_C@_05KAJPEEKP@?5?1?$CK?5?$CI?$AA@ DB ' /* (', 00H	; `string'
CONST	ENDS
;	COMDAT ??_C@_0P@MGLFIDGF@?5?5boundary?5?$CFs?5?$AA@
CONST	SEGMENT
??_C@_0P@MGLFIDGF@?5?5boundary?5?$CFs?5?$AA@ DB '  boundary %s ', 00H ; `string'
CONST	ENDS
;	COMDAT ??_C@_09EJFODHIB@?5?5?$CF17?415g?$AA@
CONST	SEGMENT
??_C@_09EJFODHIB@?5?5?$CF17?415g?$AA@ DB '  %17.15g', 00H ; `string'
CONST	ENDS
;	COMDAT ??_C@_03GLGIAOBD@?$CF3s?$AA@
CONST	SEGMENT
??_C@_03GLGIAOBD@?$CF3s?$AA@ DB '%3s', 00H		; `string'
; Function compile flags: /Ogtp
CONST	ENDS
;	COMDAT _vertex_dump
_TEXT	SEGMENT
tv648 = -24						; size = 8
_attr$ = -16						; size = 8
_old_fd$ = -8						; size = 4
tv576 = -4						; size = 4
tv666 = 8						; size = 4
_v_id$ = 8						; size = 4
_i$ = 12						; size = 4
_x$ = 12						; size = 4
_fd$ = 12						; size = 4
_vertex_dump PROC					; COMDAT

; 1006 : { int i;

	push	ebp
	mov	ebp, esp
	sub	esp, 24					; 00000018H

; 1007 :   REAL *x;
; 1008 :   FILE *old_fd = outfd;

	mov	eax, DWORD PTR _outfd

; 1009 :   struct extra *ex;
; 1010 :   ATTR attr = get_vattr(v_id);

	mov	ecx, DWORD PTR _web+12
	push	esi
	mov	esi, DWORD PTR _v_id$[ebp]
	mov	edx, esi
	and	edx, 134217727				; 07ffffffH
	mov	DWORD PTR _old_fd$[ebp], eax
	mov	eax, DWORD PTR [ecx+edx*4]
	push	edi
	mov	edi, DWORD PTR [eax+8]
	mov	eax, DWORD PTR [eax+12]
	mov	DWORD PTR _attr$[ebp+4], eax

; 1011 :   vertex_id orig;
; 1012 : 
; 1013 :   outfd = fd;

	mov	eax, DWORD PTR _fd$[ebp]
	mov	DWORD PTR tv576[ebp], edx
	mov	DWORD PTR _attr$[ebp], edi
	mov	DWORD PTR _outfd, eax

; 1014 :         
; 1015 :   if ( !valid_id(v_id) ) return;

	test	esi, 268435456				; 10000000H
	je	$LN37@vertex_dum

; 1016 :   x = get_coord(v_id);

	mov	eax, DWORD PTR _dymem
	mov	esi, DWORD PTR _web+104
	mov	esi, DWORD PTR [esi+eax+64]
	mov	ecx, DWORD PTR [ecx+edx*4]

; 1017 :   if ( attr & BOUNDARY )

	mov	eax, edi
	push	ebx
	add	esi, ecx
	and	eax, 128				; 00000080H
	xor	ebx, ebx
	or	eax, ebx
	mov	DWORD PTR _x$[ebp], esi
	je	$LN35@vertex_dum

; 1018 :   { /* print boundary parameters */
; 1019 :     struct boundary *bdry = get_boundary(v_id);

	mov	eax, DWORD PTR _V_BOUNDARY_ATTR
	test	eax, eax
	je	SHORT $LN39@vertex_dum
	mov	edx, DWORD PTR _dymem
	imul	eax, 240				; 000000f0H
	add	eax, DWORD PTR _web+104
	mov	eax, DWORD PTR [eax+edx+64]
	mov	esi, DWORD PTR [eax+ecx]
	imul	esi, 136				; 00000088H
	add	esi, DWORD PTR _web+776
	jmp	SHORT $LN40@vertex_dum
$LN39@vertex_dum:
	xor	esi, esi
$LN40@vertex_dum:

; 1020 :     REAL *param = get_param(v_id);

	mov	edx, DWORD PTR _web+104
	mov	eax, DWORD PTR _dymem
	mov	ebx, DWORD PTR [edx+eax+544]
	add	ebx, ecx

; 1021 : 
; 1022 :     sprintf(msg,"%3s",ELNAME(v_id)); outstring(msg); 

	mov	ecx, DWORD PTR tv576[ebp]
	inc	ecx
	push	ecx
	push	OFFSET ??_C@_02DPKJAMEF@?$CFd?$AA@
	push	OFFSET _elnames
	call	_sprintf
	mov	edx, DWORD PTR _msg
	push	OFFSET _elnames
	push	OFFSET ??_C@_03GLGIAOBD@?$CF3s?$AA@
	push	edx
	call	_sprintf
	mov	eax, DWORD PTR _msg
	push	eax
	call	_outstring

; 1023 :     for ( i = 0 ; i < bdry->pcount ; i++ )

	xor	edi, edi
	add	esp, 28					; 0000001cH
	cmp	DWORD PTR [esi+40], edi
	jle	SHORT $LN32@vertex_dum
	npad	11
$LL34@vertex_dum:

; 1024 : #ifdef FLOAT128
; 1025 :     { sprintf(msg,"  %*.*Qg",DWIDTH,DPREC,param[i]); outstring(msg); }
; 1026 : #elif defined(LONGDOUBLE)
; 1027 :     { sprintf(msg,"  %*.*Lg",DWIDTH,DPREC,param[i]); outstring(msg); }
; 1028 : #else
; 1029 :     { sprintf(msg,"  %17.15g",param[i]); outstring(msg); }

	fld	QWORD PTR [ebx+edi*8]
	mov	ecx, DWORD PTR _msg
	sub	esp, 8
	fstp	QWORD PTR [esp]
	push	OFFSET ??_C@_09EJFODHIB@?5?5?$CF17?415g?$AA@
	push	ecx
	call	_sprintf
	mov	edx, DWORD PTR _msg
	push	edx
	call	_outstring
	inc	edi
	add	esp, 20					; 00000014H
	cmp	edi, DWORD PTR [esi+40]
	jl	SHORT $LL34@vertex_dum
$LN32@vertex_dum:

; 1030 : #endif 
; 1031 :     sprintf(msg,"  boundary %s ",bdry->name); 

	mov	eax, DWORD PTR _msg
	push	esi
	push	OFFSET ??_C@_0P@MGLFIDGF@?5?5boundary?5?$CFs?5?$AA@
	push	eax
	call	_sprintf

; 1032 :     outstring(msg); 

	mov	ecx, DWORD PTR _msg
	push	ecx
	call	_outstring

; 1033 :     sprintf(msg," /* ("); outstring(msg); 

	mov	edx, DWORD PTR _msg
	push	OFFSET ??_C@_05KAJPEEKP@?5?1?$CK?5?$CI?$AA@
	push	edx
	call	_sprintf
	mov	eax, DWORD PTR _msg
	push	eax
	call	_outstring

; 1034 :     for ( i = 0; i < SDIM ; i++)

	xor	esi, esi
	add	esp, 28					; 0000001cH
	cmp	DWORD PTR _web+616, esi
	jle	SHORT $LN29@vertex_dum
	npad	11
$LL31@vertex_dum:

; 1035 : #ifdef FLOAT128
; 1036 :     { sprintf(msg," %*.*Qg",DWIDTH,DPREC,x[i]); outstring(msg); }
; 1037 : #elif defined(LONGDOUBLE)
; 1038 :     { sprintf(msg," %*.*Lg",DWIDTH,DPREC,x[i]); outstring(msg); }
; 1039 : #else
; 1040 :     { sprintf(msg," %17.15g",x[i]); outstring(msg); }

	mov	ecx, DWORD PTR _x$[ebp]
	fld	QWORD PTR [ecx+esi*8]
	mov	edx, DWORD PTR _msg
	sub	esp, 8
	fstp	QWORD PTR [esp]
	push	OFFSET ??_C@_08DIAEIIJ@?5?$CF17?415g?$AA@
	push	edx
	call	_sprintf
	mov	eax, DWORD PTR _msg
	push	eax
	call	_outstring
	inc	esi
	add	esp, 20					; 00000014H
	cmp	esi, DWORD PTR _web+616
	jl	SHORT $LL31@vertex_dum
$LN29@vertex_dum:

; 1041 : #endif 
; 1042 :     sprintf(msg,") */"); outstring(msg); 

	mov	ecx, DWORD PTR _msg
	push	OFFSET ??_C@_04HCPIBBPC@?$CJ?5?$CK?1?$AA@
	push	ecx
	call	_sprintf
	mov	edx, DWORD PTR _msg
	push	edx
	call	_outstring

; 1043 :   } /* end BOUNDARY parameters */
; 1044 :   else

	mov	edi, DWORD PTR _attr$[ebp]
	add	esp, 12					; 0000000cH
	jmp	SHORT $LN25@vertex_dum
$LN35@vertex_dum:

; 1045 :   { /* print regular coordinates */
; 1046 :     sprintf(msg,"%3s ",ELNAME(v_id)); outstring(msg); 

	inc	edx
	push	edx
	push	OFFSET ??_C@_02DPKJAMEF@?$CFd?$AA@
	push	OFFSET _elnames
	call	_sprintf
	mov	eax, DWORD PTR _msg
	push	OFFSET _elnames
	push	OFFSET ??_C@_04BBFBANHC@?$CF3s?5?$AA@
	push	eax
	call	_sprintf
	mov	ecx, DWORD PTR _msg
	push	ecx
	call	_outstring

; 1047 :     for ( i = 0; i < SDIM ; i++)

	xor	ebx, ebx
	add	esp, 28					; 0000001cH
	cmp	DWORD PTR _web+616, ebx
	jle	SHORT $LN25@vertex_dum
	npad	8
$LL27@vertex_dum:

; 1048 : #ifdef FLOAT128
; 1049 :       { sprintf(msg," %*.*Qg",DWIDTH,DPREC,x[i]); outstring(msg); }
; 1050 : #elif defined(LONGDOUBLE)
; 1051 :       { sprintf(msg," %*.*Lg",DWIDTH,DPREC,x[i]); outstring(msg); }
; 1052 : #else
; 1053 :       { sprintf(msg," %17.15g",x[i]); outstring(msg); }

	fld	QWORD PTR [esi+ebx*8]
	mov	edx, DWORD PTR _msg
	sub	esp, 8
	fstp	QWORD PTR [esp]
	push	OFFSET ??_C@_08DIAEIIJ@?5?$CF17?415g?$AA@
	push	edx
	call	_sprintf
	mov	eax, DWORD PTR _msg
	push	eax
	call	_outstring
	inc	ebx
	add	esp, 20					; 00000014H
	cmp	ebx, DWORD PTR _web+616
	jl	SHORT $LL27@vertex_dum
$LN25@vertex_dum:

; 1054 : #endif 
; 1055 :   }
; 1056 :   if ( attr & CONSTRAINT )

	mov	eax, edi
	and	eax, 1024				; 00000400H
	xor	ecx, ecx
	or	eax, ecx
	je	$LN63@vertex_dum

; 1057 :   { conmap_t * conmap = get_v_constraint_map(v_id);

	mov	eax, DWORD PTR _web+104
	mov	ecx, DWORD PTR _dymem
	cmp	DWORD PTR [eax+ecx+1288], 0
	je	SHORT $LN45@vertex_dum
	mov	edx, DWORD PTR _web+12
	mov	esi, DWORD PTR tv576[ebp]
	mov	ebx, DWORD PTR [edx+esi*4]
	add	ebx, DWORD PTR [eax+ecx+1264]
	jmp	SHORT $LN46@vertex_dum
$LN45@vertex_dum:
	mov	ebx, OFFSET _nullcon
$LN46@vertex_dum:

; 1058 :     struct constraint *con;
; 1059 :     sprintf(msg,"  constraints "); outstring(msg); 

	mov	eax, DWORD PTR _msg
	push	OFFSET ??_C@_0P@NLMCGNKJ@?5?5constraints?5?$AA@
	push	eax
	call	_sprintf
	mov	ecx, DWORD PTR _msg
	push	ecx
	call	_outstring
	add	esp, 12					; 0000000cH

; 1060 :     for ( i = 1 ; i <= (int)conmap[0] ; i++ )

	cmp	DWORD PTR [ebx], 1
	mov	DWORD PTR _i$[ebp], 1
	jl	$LN63@vertex_dum
$LL62@vertex_dum:

; 1061 :     { con = get_constraint(conmap[i]);

	mov	edx, DWORD PTR _i$[ebp]
	mov	esi, DWORD PTR [ebx+edx*4]
	and	esi, 1073741823				; 3fffffffH
	mov	eax, esi
	imul	eax, 176				; 000000b0H
	add	eax, DWORD PTR _web+652

; 1062 :       if ( !(con->attr & GLOBAL) )

	xor	edi, edi
	mov	ecx, DWORD PTR [eax+36]
	mov	edx, DWORD PTR [eax+32]
	mov	DWORD PTR tv648[ebp+4], ecx
	mov	ecx, edx
	and	ecx, 4
	or	ecx, edi
	jne	SHORT $LN22@vertex_dum

; 1063 :       { if ( con->attr & NAMED_THING )

	and	edx, 512				; 00000200H
	or	edx, ecx
	je	SHORT $LN19@vertex_dum

; 1064 :          { sprintf(msg,"%s ",con->name); outstring(msg); }

	mov	edx, DWORD PTR _msg
	push	eax
	push	OFFSET ??_C@_03IKGEINEE@?$CFs?5?$AA@
	push	edx
	call	_sprintf
	mov	eax, DWORD PTR _msg
	push	eax

; 1065 :         else

	jmp	SHORT $LN66@vertex_dum
$LN19@vertex_dum:

; 1066 :          { sprintf(msg,"%d ",conmap[i]&CONMASK); outstring(msg); }

	mov	ecx, DWORD PTR _msg
	push	esi
	push	OFFSET ??_C@_03JDANDILB@?$CFd?5?$AA@
	push	ecx
	call	_sprintf
	mov	edx, DWORD PTR _msg
	push	edx
$LN66@vertex_dum:
	call	_outstring
	add	esp, 16					; 00000010H
$LN22@vertex_dum:

; 1060 :     for ( i = 1 ; i <= (int)conmap[0] ; i++ )

	mov	eax, DWORD PTR _i$[ebp]
	inc	eax
	mov	DWORD PTR _i$[ebp], eax
	cmp	eax, DWORD PTR [ebx]
	jle	SHORT $LL62@vertex_dum
	mov	edi, DWORD PTR _attr$[ebp]
$LN63@vertex_dum:

; 1067 :       }
; 1068 :     }
; 1069 :   }
; 1070 :   if ( attr & FIXED ) { sprintf(msg, " fixed "); outstring(msg); }

	mov	eax, edi
	and	eax, 64					; 00000040H
	xor	ecx, ecx
	or	eax, ecx
	je	SHORT $LN17@vertex_dum
	mov	eax, DWORD PTR _msg
	push	OFFSET ??_C@_07LLDGIOOM@?5fixed?5?$AA@
	push	eax
	call	_sprintf
	mov	ecx, DWORD PTR _msg
	push	ecx
	call	_outstring
	add	esp, 12					; 0000000cH
$LN17@vertex_dum:

; 1071 :   if ( attr & HIT_PARTNER ) outstring(" hit_partner ");

	mov	eax, edi
	and	eax, 32768				; 00008000H
	xor	ecx, ecx
	or	eax, ecx
	je	SHORT $LN16@vertex_dum
	push	OFFSET ??_C@_0O@OLGCOGFK@?5hit_partner?5?$AA@
	call	_outstring
	add	esp, 4
$LN16@vertex_dum:

; 1072 :   if ( attr & AXIAL_POINT ) 

	mov	eax, edi
	and	eax, 8388608				; 00800000H
	xor	ecx, ecx
	or	eax, ecx
	je	SHORT $LN15@vertex_dum

; 1073 :      { sprintf(msg, " axial_point "); outstring(msg); }

	mov	edx, DWORD PTR _msg
	push	OFFSET ??_C@_0O@KNIDECJO@?5axial_point?5?$AA@
	push	edx
	call	_sprintf
	mov	eax, DWORD PTR _msg
	push	eax
	call	_outstring
	add	esp, 12					; 0000000cH
$LN15@vertex_dum:

; 1074 :   if ( attr & BARE_NAKED )

	mov	eax, edi
	and	eax, 65536				; 00010000H
	xor	ecx, ecx
	or	eax, ecx
	je	SHORT $LN14@vertex_dum

; 1075 :      { sprintf(msg, " bare "); outstring(msg); }

	mov	ecx, DWORD PTR _msg
	push	OFFSET ??_C@_06FGOOKMMP@?5bare?5?$AA@
	push	ecx
	call	_sprintf
	mov	edx, DWORD PTR _msg
	push	edx
	call	_outstring
	add	esp, 12					; 0000000cH
$LN14@vertex_dum:

; 1076 :   if ( attr & NO_HESSIAN_NORMAL_ATTR )

	and	edi, -2147483648			; 80000000H
	xor	eax, eax
	or	edi, eax
	je	SHORT $LN13@vertex_dum

; 1077 :      { sprintf(msg, " no_hessian_normal "); outstring(msg); }

	mov	eax, DWORD PTR _msg
	push	OFFSET ??_C@_0BE@KMLNMGPF@?5no_hessian_normal?5?$AA@
	push	eax
	call	_sprintf
	mov	ecx, DWORD PTR _msg
	push	ecx
	call	_outstring
	add	esp, 12					; 0000000cH
$LN13@vertex_dum:

; 1078 : 
; 1079 :   orig = get_original(v_id);

	mov	ecx, DWORD PTR _v_id$[ebp]
	mov	edi, DWORD PTR tv576[ebp]
	mov	edx, ecx
	shr	edx, 29					; 0000001dH
	imul	edx, 112				; 00000070H
	mov	eax, DWORD PTR _web[edx+12]
	lea	esi, DWORD PTR _web[edx+12]
	mov	edx, DWORD PTR [eax+edi*4]
	mov	eax, DWORD PTR [edx+20]
	mov	DWORD PTR tv666[ebp], esi

; 1080 :   if ( valid_id(orig) && !equal_element(orig,v_id) ) 

	test	eax, 268435456				; 10000000H
	je	SHORT $LN12@vertex_dum
	mov	edx, eax
	or	edx, 134217728				; 08000000H
	or	ecx, 134217728				; 08000000H
	cmp	edx, ecx
	je	SHORT $LN12@vertex_dum

; 1081 :   { sprintf(msg," original %s",ELNAME(orig)); outstring(msg); }

	and	eax, 134217727				; 07ffffffH
	inc	eax
	push	eax
	push	OFFSET ??_C@_02DPKJAMEF@?$CFd?$AA@
	push	OFFSET _elnames
	call	_sprintf
	mov	eax, DWORD PTR _msg
	push	OFFSET _elnames
	push	OFFSET ??_C@_0N@LLGMOCIP@?5original?5?$CFs?$AA@
	push	eax
	call	_sprintf
	mov	ecx, DWORD PTR _msg
	push	ecx
	call	_outstring
	add	esp, 28					; 0000001cH
$LN12@vertex_dum:

; 1082 : 
; 1083 :   if ( elptr(v_id)->method_count )

	mov	edx, DWORD PTR [esi]
	mov	eax, DWORD PTR [edx+edi*4]
	movzx	ecx, WORD PTR [eax+24]
	test	cx, cx
	je	$LN61@vertex_dum

; 1084 :   { struct method_instance *mi;
; 1085 :     int meth_offset = EXTRAS(VERTEX)[web.meth_attr[VERTEX]].offset;

	mov	edx, DWORD PTR _web+5664

; 1086 :     int *methlist = (int*)((char*)elptr(v_id) + meth_offset);

	mov	esi, DWORD PTR _dymem
	imul	edx, 240				; 000000f0H
	add	edx, DWORD PTR _web+104
	mov	edi, DWORD PTR [edx+esi+64]
	add	edi, eax

; 1087 :     for ( i = 0 ; i < (int)elptr(v_id)->method_count ; i++ )

	xor	eax, eax
	xor	esi, esi
	cmp	ax, cx
	jae	$LN61@vertex_dum
	npad	4
$LL10@vertex_dum:

; 1088 :       { mi = METH_INSTANCE(abs(methlist[i]));

	mov	ecx, DWORD PTR [edi+esi*4]
	mov	eax, ecx
	cdq
	xor	eax, edx
	sub	eax, edx
	cdq
	xor	eax, edx
	sub	eax, edx
	imul	eax, 2928				; 00000b70H
	add	eax, DWORD PTR _meth_inst_list

; 1089 :         if ( GEN_QUANT(mi->quants[0])->flags & (DEFAULT_QUANTITY|Q_DELETED) )

	mov	edx, DWORD PTR [eax+152]
	imul	edx, 368				; 00000170H
	add	edx, DWORD PTR _gen_quant_list
	test	DWORD PTR [edx+136], 532480		; 00082000H
	jne	SHORT $LN9@vertex_dum

; 1090 :           continue;
; 1091 :         if ( mi->flags & IMPLICIT_INSTANCE )

	test	DWORD PTR [eax+140], 2097152		; 00200000H
	je	SHORT $LN6@vertex_dum

; 1092 :            sprintf(msg," %s ",GEN_QUANT(mi->quants[0])->name);

	mov	eax, DWORD PTR _msg
	push	edx
	push	OFFSET ??_C@_04KMMDIKEB@?5?$CFs?5?$AA@
	push	eax
	call	_sprintf
	add	esp, 12					; 0000000cH
	jmp	SHORT $LN5@vertex_dum
$LN6@vertex_dum:

; 1093 :         else sprintf(msg," %s%c ",mi->name,methlist[i]<0?'-':' '); 

	xor	edx, edx
	test	ecx, ecx
	setns	dl
	dec	edx
	and	edx, 13					; 0000000dH
	add	edx, 32					; 00000020H
	push	edx
	push	eax
	mov	eax, DWORD PTR _msg
	push	OFFSET ??_C@_06MMEBJFA@?5?$CFs?$CFc?5?$AA@
	push	eax
	call	_sprintf
	add	esp, 16					; 00000010H
$LN5@vertex_dum:

; 1094 :         outstring(msg); 

	mov	ecx, DWORD PTR _msg
	push	ecx
	call	_outstring
	add	esp, 4
$LN9@vertex_dum:

; 1087 :     for ( i = 0 ; i < (int)elptr(v_id)->method_count ; i++ )

	mov	edx, DWORD PTR tv666[ebp]
	mov	eax, DWORD PTR [edx]
	mov	ecx, DWORD PTR tv576[ebp]
	mov	edx, DWORD PTR [eax+ecx*4]
	movzx	eax, WORD PTR [edx+24]
	inc	esi
	cmp	esi, eax
	jl	$LL10@vertex_dum
$LN61@vertex_dum:

; 1095 :       }
; 1096 :   }
; 1097 : 
; 1098 :   /* extra attributes */
; 1099 :   for ( i = 0, ex = EXTRAS(VERTEX) ; i < web.skel[VERTEX].extra_count;
; 1100 :               i++,ex++ )

	mov	edi, DWORD PTR _web+104
	add	edi, DWORD PTR _dymem
	cmp	DWORD PTR _web+108, 0
	mov	DWORD PTR _i$[ebp], 0
	jle	SHORT $LN2@vertex_dum
	xor	ebx, ebx
	npad	13
$LL65@vertex_dum:

; 1101 :     { char *at = get_v_extra(v_id,i);

	mov	eax, DWORD PTR _web+104
	mov	edx, DWORD PTR _dymem
	lea	ecx, DWORD PTR [ebx+eax]
	mov	esi, DWORD PTR [ecx+edx+64]
	mov	eax, DWORD PTR _web+12
	mov	ecx, DWORD PTR tv576[ebp]
	add	esi, DWORD PTR [eax+ecx*4]

; 1102 :       if ( !(ex->flags & DUMP_ATTR) ) continue;

	test	BYTE PTR [edi+232], 1
	je	SHORT $LN3@vertex_dum

; 1103 :       sprintf(msg," %s ",ex->name);

	mov	edx, DWORD PTR _msg
	push	edi
	push	OFFSET ??_C@_04KMMDIKEB@?5?$CFs?5?$AA@
	push	edx
	call	_sprintf

; 1104 :       outstring(msg);

	mov	eax, DWORD PTR _msg
	push	eax
	call	_outstring

; 1105 :       print_array_attribute(ex,at);

	push	esi
	push	edi
	call	_print_array_attribute
	add	esp, 24					; 00000018H
$LN3@vertex_dum:

; 1095 :       }
; 1096 :   }
; 1097 : 
; 1098 :   /* extra attributes */
; 1099 :   for ( i = 0, ex = EXTRAS(VERTEX) ; i < web.skel[VERTEX].extra_count;
; 1100 :               i++,ex++ )

	mov	eax, DWORD PTR _i$[ebp]
	inc	eax
	add	ebx, 240				; 000000f0H
	add	edi, 240				; 000000f0H
	mov	DWORD PTR _i$[ebp], eax
	cmp	eax, DWORD PTR _web+108
	jl	SHORT $LL65@vertex_dum
$LN2@vertex_dum:

; 1106 :     }
; 1107 : 
; 1108 :   sprintf(msg,"\n"); outstring(msg); 

	mov	ecx, DWORD PTR _msg
	push	OFFSET ??_C@_01EEMJAFIK@?6?$AA@
	push	ecx
	call	_sprintf
	mov	edx, DWORD PTR _msg
	push	edx
	call	_outstring

; 1109 :   outfd = old_fd;

	mov	eax, DWORD PTR _old_fd$[ebp]
	add	esp, 12					; 0000000cH
	mov	DWORD PTR _outfd, eax
	pop	ebx
$LN37@vertex_dum:
	pop	edi
	pop	esi

; 1110 : } /* end vertex_dump() */

	mov	esp, ebp
	pop	ebp
	ret	0
_vertex_dump ENDP
_TEXT	ENDS
PUBLIC	??_C@_05OPNHFOBB@?$CFs?$CFc?5?$AA@		; `string'
PUBLIC	??_C@_0BA@KGNBAPKL@?5?1?$CKlength?5?$CFg?$CK?1?5?$AA@ ; `string'
PUBLIC	??_C@_0L@ICKAJHFD@?5color?5?$CFs?5?$AA@		; `string'
PUBLIC	??_C@_0N@OFNMPAJJ@?5noncontent?5?$AA@		; `string'
PUBLIC	??_C@_0P@LOAPFDCI@?5no_transform?5?$AA@		; `string'
PUBLIC	??_C@_0M@GOKLCPIB@?5no_refine?5?$AA@		; `string'
PUBLIC	??_C@_06LKAOOMKN@fixed?5?$AA@			; `string'
PUBLIC	??_C@_0BB@IPHHNNLI@?5orientation?5?91?5?$AA@	; `string'
PUBLIC	??_C@_0BC@EFJBNHNK@?5?5density?5?$CF1?415g?5?$AA@ ; `string'
PUBLIC	??_C@_0L@INCKGONP@?5wrap?5?$CFld?5?$AA@		; `string'
PUBLIC	??_C@_02FHJIKMCF@?5?$CK?$AA@			; `string'
PUBLIC	??_C@_02EOIDJNGE@?5?$CL?$AA@			; `string'
PUBLIC	??_C@_02BINJDKOC@?5?9?$AA@			; `string'
PUBLIC	??_C@_04CBLHBHNK@?5bad?$AA@			; `string'
PUBLIC	??_C@_0CD@HGIGKDEO@Bad?5wrap?5?$CFlX?5on?5edge?5?$CFs?5period?5?$CF@ ; `string'
PUBLIC	??_C@_0P@PIMBKKPG@?5wrap?50x?$CF06lX?6?$AA@	; `string'
PUBLIC	??_C@_0BB@PFNODBIK@?5?5?1?$CKmidpt?$CK?1?5?$CF3s?5?$AA@ ; `string'
PUBLIC	??_C@_0N@POJAFOAE@?$CF3s?5?5?$CF3s?5?5?5?5?$AA@	; `string'
PUBLIC	??_C@_05CLJOGFLP@?$CF3s?5?5?$AA@		; `string'
PUBLIC	??_C@_00CNPNBAHC@?$AA@				; `string'
PUBLIC	??_C@_08MMMEFFNL@?$CF3s?5?5?5?5?5?$AA@		; `string'
PUBLIC	_edge_dump
EXTRN	_get_edge_length:PROC
EXTRN	_calc_edge:PROC
EXTRN	_E_BOUNDARY_ATTR:DWORD
;	COMDAT ??_C@_05OPNHFOBB@?$CFs?$CFc?5?$AA@
; File c:\levolver\yonkang-sefit\levolver\ev_ogl\inline.h
CONST	SEGMENT
??_C@_05OPNHFOBB@?$CFs?$CFc?5?$AA@ DB '%s%c ', 00H	; `string'
CONST	ENDS
;	COMDAT ??_C@_0BA@KGNBAPKL@?5?1?$CKlength?5?$CFg?$CK?1?5?$AA@
CONST	SEGMENT
??_C@_0BA@KGNBAPKL@?5?1?$CKlength?5?$CFg?$CK?1?5?$AA@ DB ' /*length %g*/ '
	DB	00H						; `string'
CONST	ENDS
;	COMDAT ??_C@_0L@ICKAJHFD@?5color?5?$CFs?5?$AA@
CONST	SEGMENT
??_C@_0L@ICKAJHFD@?5color?5?$CFs?5?$AA@ DB ' color %s ', 00H ; `string'
CONST	ENDS
;	COMDAT ??_C@_0N@OFNMPAJJ@?5noncontent?5?$AA@
CONST	SEGMENT
??_C@_0N@OFNMPAJJ@?5noncontent?5?$AA@ DB ' noncontent ', 00H ; `string'
CONST	ENDS
;	COMDAT ??_C@_0P@LOAPFDCI@?5no_transform?5?$AA@
CONST	SEGMENT
??_C@_0P@LOAPFDCI@?5no_transform?5?$AA@ DB ' no_transform ', 00H ; `string'
CONST	ENDS
;	COMDAT ??_C@_0M@GOKLCPIB@?5no_refine?5?$AA@
CONST	SEGMENT
??_C@_0M@GOKLCPIB@?5no_refine?5?$AA@ DB ' no_refine ', 00H ; `string'
CONST	ENDS
;	COMDAT ??_C@_06LKAOOMKN@fixed?5?$AA@
CONST	SEGMENT
??_C@_06LKAOOMKN@fixed?5?$AA@ DB 'fixed ', 00H		; `string'
CONST	ENDS
;	COMDAT ??_C@_0BB@IPHHNNLI@?5orientation?5?91?5?$AA@
CONST	SEGMENT
??_C@_0BB@IPHHNNLI@?5orientation?5?91?5?$AA@ DB ' orientation -1 ', 00H ; `string'
CONST	ENDS
;	COMDAT ??_C@_0BC@EFJBNHNK@?5?5density?5?$CF1?415g?5?$AA@
CONST	SEGMENT
??_C@_0BC@EFJBNHNK@?5?5density?5?$CF1?415g?5?$AA@ DB '  density %1.15g ', 00H ; `string'
CONST	ENDS
;	COMDAT ??_C@_0L@INCKGONP@?5wrap?5?$CFld?5?$AA@
CONST	SEGMENT
??_C@_0L@INCKGONP@?5wrap?5?$CFld?5?$AA@ DB ' wrap %ld ', 00H ; `string'
CONST	ENDS
;	COMDAT ??_C@_02FHJIKMCF@?5?$CK?$AA@
CONST	SEGMENT
??_C@_02FHJIKMCF@?5?$CK?$AA@ DB ' *', 00H		; `string'
CONST	ENDS
;	COMDAT ??_C@_02EOIDJNGE@?5?$CL?$AA@
CONST	SEGMENT
??_C@_02EOIDJNGE@?5?$CL?$AA@ DB ' +', 00H		; `string'
CONST	ENDS
;	COMDAT ??_C@_02BINJDKOC@?5?9?$AA@
CONST	SEGMENT
??_C@_02BINJDKOC@?5?9?$AA@ DB ' -', 00H			; `string'
CONST	ENDS
;	COMDAT ??_C@_04CBLHBHNK@?5bad?$AA@
CONST	SEGMENT
??_C@_04CBLHBHNK@?5bad?$AA@ DB ' bad', 00H		; `string'
CONST	ENDS
;	COMDAT ??_C@_0CD@HGIGKDEO@Bad?5wrap?5?$CFlX?5on?5edge?5?$CFs?5period?5?$CF@
CONST	SEGMENT
??_C@_0CD@HGIGKDEO@Bad?5wrap?5?$CFlX?5on?5edge?5?$CFs?5period?5?$CF@ DB 'B'
	DB	'ad wrap %lX on edge %s period %d', 0aH, 00H	; `string'
CONST	ENDS
;	COMDAT ??_C@_0P@PIMBKKPG@?5wrap?50x?$CF06lX?6?$AA@
CONST	SEGMENT
??_C@_0P@PIMBKKPG@?5wrap?50x?$CF06lX?6?$AA@ DB ' wrap 0x%06lX', 0aH, 00H ; `string'
CONST	ENDS
;	COMDAT ??_C@_0BB@PFNODBIK@?5?5?1?$CKmidpt?$CK?1?5?$CF3s?5?$AA@
CONST	SEGMENT
??_C@_0BB@PFNODBIK@?5?5?1?$CKmidpt?$CK?1?5?$CF3s?5?$AA@ DB '  /*midpt*/ %'
	DB	'3s ', 00H					; `string'
CONST	ENDS
;	COMDAT ??_C@_0N@POJAFOAE@?$CF3s?5?5?$CF3s?5?5?5?5?$AA@
CONST	SEGMENT
??_C@_0N@POJAFOAE@?$CF3s?5?5?$CF3s?5?5?5?5?$AA@ DB '%3s  %3s    ', 00H ; `string'
CONST	ENDS
;	COMDAT ??_C@_05CLJOGFLP@?$CF3s?5?5?$AA@
CONST	SEGMENT
??_C@_05CLJOGFLP@?$CF3s?5?5?$AA@ DB '%3s  ', 00H	; `string'
CONST	ENDS
;	COMDAT ??_C@_00CNPNBAHC@?$AA@
CONST	SEGMENT
??_C@_00CNPNBAHC@?$AA@ DB 00H				; `string'
CONST	ENDS
;	COMDAT ??_C@_08MMMEFFNL@?$CF3s?5?5?5?5?5?$AA@
CONST	SEGMENT
??_C@_08MMMEFFNL@?$CF3s?5?5?5?5?5?$AA@ DB '%3s     ', 00H ; `string'
; Function compile flags: /Ogtp
; File c:\levolver\yonkang-sefit\levolver\ev_ogl\dump.c
CONST	ENDS
;	COMDAT _edge_dump
_TEXT	SEGMENT
tv1116 = -28						; size = 8
_attr$ = -20						; size = 8
_old_fd$ = -12						; size = 4
_methlist$90317 = -8					; size = 4
_wrap$90214 = -8					; size = 4
_i$ = -8						; size = 4
tv995 = -4						; size = 4
_e_id$ = 8						; size = 4
tv1149 = 12						; size = 4
_fd$ = 12						; size = 4
_edge_dump PROC						; COMDAT

; 1124 : { int i;

	push	ebp
	mov	ebp, esp
	sub	esp, 28					; 0000001cH

; 1125 :   ATTR attr;
; 1126 :   FILE *old_fd = outfd;

	mov	eax, DWORD PTR _outfd

; 1127 :   struct extra *ex;
; 1128 :   edge_id orig;
; 1129 : 
; 1130 :   outfd = fd;

	mov	ecx, DWORD PTR _fd$[ebp]
	push	edi

; 1131 : 
; 1132 :   if ( !valid_id(e_id) ) return;

	mov	edi, DWORD PTR _e_id$[ebp]
	mov	DWORD PTR _old_fd$[ebp], eax
	mov	DWORD PTR _outfd, ecx
	test	edi, 268435456				; 10000000H
	je	$LN65@edge_dump

; 1133 :   attr = get_eattr(e_id);

	mov	edx, DWORD PTR _web+124
	push	ebx
	push	esi
	mov	esi, edi
	and	esi, 134217727				; 07ffffffH
	mov	eax, DWORD PTR [edx+esi*4]
	mov	ecx, DWORD PTR [eax+8]
	mov	edx, DWORD PTR [eax+12]

; 1134 : 
; 1135 :   sprintf(msg,"%3s     ",ELNAME(e_id)); outstring(msg); 

	lea	eax, DWORD PTR [esi+1]
	push	eax
	push	OFFSET ??_C@_02DPKJAMEF@?$CFd?$AA@
	push	OFFSET _elnames
	mov	DWORD PTR tv995[ebp], esi
	mov	DWORD PTR _attr$[ebp], ecx
	mov	DWORD PTR _attr$[ebp+4], edx
	call	_sprintf
	mov	eax, DWORD PTR _msg
	push	OFFSET _elnames
	push	OFFSET ??_C@_08MMMEFFNL@?$CF3s?5?5?5?5?5?$AA@
	push	eax
	call	_sprintf
	mov	ecx, DWORD PTR _msg
	push	ecx
	call	_outstring

; 1136 :   if ( web.modeltype == LAGRANGE )

	mov	eax, 3
	add	esp, 28					; 0000001cH
	cmp	DWORD PTR _web+628, eax
	jne	$LN63@edge_dump

; 1137 :   {
; 1138 :       vertex_id *v = get_edge_vertices(e_id);

	mov	edx, DWORD PTR _dymem
	mov	eax, DWORD PTR _web+216
	mov	ebx, DWORD PTR [eax+edx+304]
	mov	edx, DWORD PTR _web+124

; 1139 :       int num = web.skel[EDGE].ctrlpts;

	mov	edi, DWORD PTR _web+120
	mov	ecx, esi
	add	ebx, DWORD PTR [edx+ecx*4]

; 1140 :       for ( i = 0 ; i < num ; i++ )

	xor	esi, esi
	test	edi, edi
	jle	$LN111@edge_dump
	npad	2
$LL113@edge_dump:

; 1141 :         { sprintf(msg,"%3s  ",ELNAME(v[i])); outstring(msg); }

	mov	eax, DWORD PTR [ebx+esi*4]
	test	eax, 268435456				; 10000000H
	je	SHORT $LN69@edge_dump
	and	eax, 134217727				; 07ffffffH
	inc	eax
	push	eax
	push	OFFSET ??_C@_02DPKJAMEF@?$CFd?$AA@
	push	OFFSET _elnames
	call	_sprintf
	add	esp, 12					; 0000000cH
	mov	eax, OFFSET _elnames
	jmp	SHORT $LN70@edge_dump
$LN69@edge_dump:
	mov	eax, OFFSET ??_C@_00CNPNBAHC@?$AA@
$LN70@edge_dump:
	push	eax
	mov	eax, DWORD PTR _msg
	push	OFFSET ??_C@_05CLJOGFLP@?$CF3s?5?5?$AA@
	push	eax
	call	_sprintf
	mov	ecx, DWORD PTR _msg
	push	ecx
	call	_outstring
	inc	esi
	add	esp, 16					; 00000010H
	cmp	esi, edi
	jl	SHORT $LL113@edge_dump

; 1142 :   }
; 1143 :   else

	jmp	$LN111@edge_dump
$LN63@edge_dump:

; 1144 :   {
; 1145 :     if ( web.representation == SIMPLEX )

	cmp	DWORD PTR _web+624, eax
	jne	$LN58@edge_dump

; 1146 :      { vertex_id *v = get_edge_vertices(e_id);

	mov	edx, DWORD PTR _web+216
	mov	eax, DWORD PTR _dymem
	mov	ebx, DWORD PTR [edx+eax+304]
	mov	ecx, DWORD PTR _web+124
	add	ebx, DWORD PTR [ecx+esi*4]

; 1147 :         for ( i = 0 ; i <= web.dimension-1 ; i++ )

	mov	edx, DWORD PTR _web+620
	xor	esi, esi
	dec	edx
	js	$LN54@edge_dump
	npad	1
$LL57@edge_dump:

; 1148 :           { sprintf(msg,"%3s  ",ELNAME(v[i])); outstring(msg); }

	mov	eax, DWORD PTR [ebx+esi*4]
	test	eax, 268435456				; 10000000H
	je	SHORT $LN71@edge_dump
	and	eax, 134217727				; 07ffffffH
	inc	eax
	push	eax
	push	OFFSET ??_C@_02DPKJAMEF@?$CFd?$AA@
	push	OFFSET _elnames
	call	_sprintf
	add	esp, 12					; 0000000cH
	mov	eax, OFFSET _elnames
	jmp	SHORT $LN72@edge_dump
$LN71@edge_dump:
	mov	eax, OFFSET ??_C@_00CNPNBAHC@?$AA@
$LN72@edge_dump:
	push	eax
	mov	eax, DWORD PTR _msg
	push	OFFSET ??_C@_05CLJOGFLP@?$CF3s?5?5?$AA@
	push	eax
	call	_sprintf
	mov	ecx, DWORD PTR _msg
	push	ecx
	call	_outstring
	mov	edx, DWORD PTR _web+620
	inc	esi
	dec	edx
	add	esp, 16					; 00000010H
	cmp	esi, edx
	jle	SHORT $LL57@edge_dump

; 1149 :      }
; 1150 :     else

	jmp	$LN54@edge_dump
$LN58@edge_dump:

; 1151 :     { sprintf(msg,"%3s  %3s    ", ELNAME(get_edge_tailv(e_id)),
; 1152 :                 ELNAME1(get_edge_headv(e_id))); 

	push	edi
	call	_get_edge_headv
	add	esp, 4
	test	eax, 268435456				; 10000000H
	je	SHORT $LN73@edge_dump
	push	edi
	call	_get_edge_headv
	and	eax, 134217727				; 07ffffffH
	inc	eax
	push	eax
	push	OFFSET ??_C@_02DPKJAMEF@?$CFd?$AA@
	push	OFFSET _elnames+30
	call	_sprintf
	add	esp, 16					; 00000010H
	mov	esi, OFFSET _elnames+30
	jmp	SHORT $LN74@edge_dump
$LN73@edge_dump:
	mov	esi, OFFSET ??_C@_00CNPNBAHC@?$AA@
$LN74@edge_dump:
	push	edi
	call	_get_edge_tailv
	add	esp, 4
	test	eax, 268435456				; 10000000H
	je	SHORT $LN75@edge_dump
	push	edi
	call	_get_edge_tailv
	and	eax, 134217727				; 07ffffffH
	inc	eax
	push	eax
	push	OFFSET ??_C@_02DPKJAMEF@?$CFd?$AA@
	push	OFFSET _elnames
	call	_sprintf
	add	esp, 16					; 00000010H
	mov	eax, OFFSET _elnames
	jmp	SHORT $LN76@edge_dump
$LN75@edge_dump:
	mov	eax, OFFSET ??_C@_00CNPNBAHC@?$AA@
$LN76@edge_dump:
	push	esi
	push	eax
	mov	eax, DWORD PTR _msg
	push	OFFSET ??_C@_0N@POJAFOAE@?$CF3s?5?5?$CF3s?5?5?5?5?$AA@
	push	eax
	call	_sprintf

; 1153 :       outstring(msg); 

	mov	ecx, DWORD PTR _msg
	push	ecx
	call	_outstring
	add	esp, 20					; 00000014H
$LN54@edge_dump:

; 1154 :     }
; 1155 :     if ( web.modeltype == QUADRATIC )

	cmp	DWORD PTR _web+628, 2
	jne	SHORT $LN111@edge_dump

; 1156 :     { sprintf(msg,"  /*midpt*/ %3s ",ELNAME(get_edge_midv(e_id))); 

	mov	edx, DWORD PTR _web+216
	mov	eax, DWORD PTR _dymem
	mov	ecx, DWORD PTR [edx+eax+304]
	mov	eax, DWORD PTR _web+124
	mov	edx, DWORD PTR tv995[ebp]
	mov	edx, DWORD PTR [eax+edx*4]
	mov	eax, DWORD PTR [ecx+edx+8]
	test	eax, 268435456				; 10000000H
	je	SHORT $LN77@edge_dump
	and	eax, 134217727				; 07ffffffH
	inc	eax
	push	eax
	push	OFFSET ??_C@_02DPKJAMEF@?$CFd?$AA@
	push	OFFSET _elnames
	call	_sprintf
	add	esp, 12					; 0000000cH
	mov	eax, OFFSET _elnames
	jmp	SHORT $LN78@edge_dump
$LN77@edge_dump:
	mov	eax, OFFSET ??_C@_00CNPNBAHC@?$AA@
$LN78@edge_dump:
	push	eax
	mov	eax, DWORD PTR _msg
	push	OFFSET ??_C@_0BB@PFNODBIK@?5?5?1?$CKmidpt?$CK?1?5?$CF3s?5?$AA@
	push	eax
	call	_sprintf

; 1157 :       outstring(msg); 

	mov	ecx, DWORD PTR _msg
	push	ecx
	call	_outstring
	add	esp, 16					; 00000010H
$LN111@edge_dump:

; 1158 :     }
; 1159 :   }
; 1160 : 
; 1161 :   if ( web.torus_flag ) 

	cmp	DWORD PTR _web+860, 0
	je	$LN52@edge_dump

; 1162 :   { WRAPTYPE wrap = get_edge_wrap(e_id);

	test	DWORD PTR _e_id$[ebp], 134217728	; 08000000H
	mov	edx, DWORD PTR _web+216
	mov	eax, DWORD PTR _dymem
	mov	ecx, DWORD PTR [edx+eax+784]
	mov	eax, DWORD PTR _web+124
	mov	edx, DWORD PTR tv995[ebp]
	mov	edx, DWORD PTR [eax+edx*4]
	mov	eax, DWORD PTR [ecx+edx]
	je	SHORT $LN91@edge_dump
	push	eax
	call	DWORD PTR _sym_inverse
	mov	esi, eax
	add	esp, 4
	mov	DWORD PTR _wrap$90214[ebp], esi
	jmp	SHORT $LN92@edge_dump
$LN91@edge_dump:
	mov	esi, eax
	mov	DWORD PTR _wrap$90214[ebp], eax
$LN92@edge_dump:

; 1164 :     int smallwrap = 1; /* whether can do with - * + */
; 1165 :     for ( i = 0 ; i < SDIM ; i++, w >>= TWRAPBITS )

	mov	edi, DWORD PTR _web+616
	mov	ecx, esi
	mov	edx, 1
	test	edi, edi
	jle	SHORT $LN44@edge_dump

; 1163 :     WRAPTYPE w = wrap;

	mov	ebx, edi
	npad	4
$LL51@edge_dump:

; 1166 :       switch ( w & WRAPMASK  )

	mov	eax, ecx
	and	eax, 31					; 0000001fH
	jl	SHORT $LN45@edge_dump
	cmp	eax, 1
	jle	SHORT $LN50@edge_dump
	cmp	eax, 31					; 0000001fH

; 1167 :       {
; 1168 :           case  NEGWRAP: case  0:  case  POSWRAP: break;  

	je	SHORT $LN50@edge_dump
$LN45@edge_dump:

; 1169 :           default : 
; 1170 :              smallwrap = 0; 

	xor	edx, edx
$LN50@edge_dump:

; 1164 :     int smallwrap = 1; /* whether can do with - * + */
; 1165 :     for ( i = 0 ; i < SDIM ; i++, w >>= TWRAPBITS )

	sar	ecx, 6
	dec	ebx
	jne	SHORT $LL51@edge_dump

; 1171 :       }
; 1172 :     if ( !smallwrap )

	test	edx, edx
	jne	SHORT $LN44@edge_dump

; 1173 :     { sprintf(msg," wrap 0x%06lX\n",wrap);

	push	esi
	push	OFFSET ??_C@_0P@PIMBKKPG@?5wrap?50x?$CF06lX?6?$AA@

; 1174 :       outstring(msg);
; 1175 :     }
; 1176 :     else 

	jmp	$LN125@edge_dump
$LN44@edge_dump:

; 1177 :      for ( i = 0 ; i < SDIM ; i++, wrap >>= TWRAPBITS )

	xor	ebx, ebx
	test	edi, edi
	jle	$LN116@edge_dump
	mov	edi, DWORD PTR tv995[ebp]
$LL42@edge_dump:

; 1178 :       switch ( wrap & WRAPMASK  )

	mov	esi, DWORD PTR _wrap$90214[ebp]
	and	esi, 31					; 0000001fH
	mov	eax, esi
	sub	eax, 0
	je	$LN36@edge_dump
	dec	eax
	je	$LN35@edge_dump
	sub	eax, 30					; 0000001eH
	je	SHORT $LN37@edge_dump

; 1183 :           default : 
; 1184 :               sprintf(errmsg,"Bad wrap %lX on edge %s period %d\n",
; 1185 :                   wrap&WRAPMASK,ELNAME(e_id),i+1);

	lea	eax, DWORD PTR [edi+1]
	push	eax
	push	OFFSET ??_C@_02DPKJAMEF@?$CFd?$AA@
	push	OFFSET _elnames
	call	_sprintf
	lea	edx, DWORD PTR [ebx+1]
	push	edx
	push	OFFSET _elnames
	push	esi
	push	OFFSET ??_C@_0CD@HGIGKDEO@Bad?5wrap?5?$CFlX?5on?5edge?5?$CFs?5period?5?$CF@
	push	OFFSET _errmsg
	call	_sprintf

; 1186 :               kb_error(1005,errmsg,WARNING);

	push	2
	push	OFFSET _errmsg
	push	1005					; 000003edH
	call	_kb_error

; 1187 :               sprintf(msg," bad"); outstring(msg); 

	mov	eax, DWORD PTR _msg
	push	OFFSET ??_C@_04CBLHBHNK@?5bad?$AA@
	push	eax
	call	_sprintf
	mov	ecx, DWORD PTR _msg
	push	ecx
	call	_outstring
	add	esp, 56					; 00000038H

; 1188 :             break;

	jmp	SHORT $LN41@edge_dump
$LN37@edge_dump:

; 1179 :       {
; 1180 :           case  NEGWRAP : sprintf(msg," -"); outstring(msg);   break;

	mov	edx, DWORD PTR _msg
	push	OFFSET ??_C@_02BINJDKOC@?5?9?$AA@
	push	edx
	call	_sprintf
	mov	eax, DWORD PTR _msg
	push	eax
	jmp	SHORT $LN126@edge_dump
$LN35@edge_dump:

; 1182 :           case  POSWRAP : sprintf(msg," +"); outstring(msg);   break;

	mov	ecx, DWORD PTR _msg
	push	OFFSET ??_C@_02EOIDJNGE@?5?$CL?$AA@
	push	ecx
	call	_sprintf
	mov	edx, DWORD PTR _msg
	push	edx
	jmp	SHORT $LN126@edge_dump
$LN36@edge_dump:

; 1181 :           case  0       : sprintf(msg," *"); outstring(msg);   break;

	mov	eax, DWORD PTR _msg
	push	OFFSET ??_C@_02FHJIKMCF@?5?$CK?$AA@
	push	eax
	call	_sprintf
	mov	ecx, DWORD PTR _msg
	push	ecx
$LN126@edge_dump:
	call	_outstring
	add	esp, 12					; 0000000cH
$LN41@edge_dump:

; 1177 :      for ( i = 0 ; i < SDIM ; i++, wrap >>= TWRAPBITS )

	sar	DWORD PTR _wrap$90214[ebp], 6
	inc	ebx
	cmp	ebx, DWORD PTR _web+616
	jl	$LL42@edge_dump

; 1189 :       }
; 1190 :   }
; 1191 :   else if ( web.symmetry_flag )

	jmp	SHORT $LN116@edge_dump
$LN52@edge_dump:
	cmp	DWORD PTR _web+856, 0
	je	SHORT $LN116@edge_dump

; 1192 :   { WRAPTYPE wrap = get_edge_wrap(e_id);

	test	DWORD PTR _e_id$[ebp], 134217728	; 08000000H
	mov	edx, DWORD PTR _web+216
	mov	eax, DWORD PTR _dymem
	mov	ecx, DWORD PTR [edx+eax+784]
	mov	eax, DWORD PTR _web+124
	mov	edx, DWORD PTR tv995[ebp]
	mov	edx, DWORD PTR [eax+edx*4]
	mov	eax, DWORD PTR [ecx+edx]
	je	SHORT $LN95@edge_dump
	push	eax
	call	DWORD PTR _sym_inverse
	add	esp, 4
$LN95@edge_dump:

; 1193 :     sprintf(msg," wrap %ld ",wrap); outstring(msg); 

	push	eax
	push	OFFSET ??_C@_0L@INCKGONP@?5wrap?5?$CFld?5?$AA@
$LN125@edge_dump:
	mov	eax, DWORD PTR _msg
	push	eax
	call	_sprintf
	mov	ecx, DWORD PTR _msg
	push	ecx
	call	_outstring
	add	esp, 16					; 00000010H
$LN116@edge_dump:

; 1194 :   }
; 1195 :   if ( (attr & DENSITY) || ((web.representation==STRING) &&
; 1196 :                     (get_edge_density(e_id) != 1.0)))

	mov	eax, DWORD PTR _attr$[ebp]
	and	eax, 16					; 00000010H
	xor	ecx, ecx
	or	eax, ecx
	jne	SHORT $LN30@edge_dump
	cmp	DWORD PTR _web+624, 1
	jne	SHORT $LN114@edge_dump
	mov	eax, DWORD PTR tv995[ebp]
	mov	edx, DWORD PTR _web+124
	mov	ecx, DWORD PTR [edx+eax*4]
	fld	QWORD PTR [ecx+40]
	fld1
	fucompp
	fnstsw	ax
	test	ah, 68					; 00000044H
	jnp	SHORT $LN114@edge_dump
$LN30@edge_dump:

; 1197 : #ifdef FLOAT128
; 1198 :     { sprintf(msg,"  density %1.*Qg ",DPREC,get_edge_density(e_id)); outstring(msg); }
; 1199 : #elif defined(LONGDOUBLE)
; 1200 :     { sprintf(msg,"  density %1.*Lg ",DPREC,get_edge_density(e_id)); outstring(msg); }
; 1201 : #else
; 1202 :     { sprintf(msg,"  density %1.15g ",get_edge_density(e_id)); outstring(msg); }

	mov	edx, DWORD PTR tv995[ebp]
	mov	eax, DWORD PTR _web+124
	mov	ecx, DWORD PTR [eax+edx*4]
	fld	QWORD PTR [ecx+40]
	mov	edx, DWORD PTR _msg
	sub	esp, 8
	fstp	QWORD PTR [esp]
	push	OFFSET ??_C@_0BC@EFJBNHNK@?5?5density?5?$CF1?415g?5?$AA@
	push	edx
	call	_sprintf
	mov	eax, DWORD PTR _msg
	push	eax
	call	_outstring
	add	esp, 20					; 00000014H
$LN114@edge_dump:

; 1203 : #endif 
; 1204 :   if ( attr & BOUNDARY )

	mov	eax, DWORD PTR _attr$[ebp]
	and	eax, 128				; 00000080H
	xor	ecx, ecx
	or	eax, ecx
	je	SHORT $LN29@edge_dump

; 1205 :      { struct boundary *bdry = get_edge_boundary(e_id);

	mov	eax, DWORD PTR _E_BOUNDARY_ATTR
	test	eax, eax
	je	SHORT $LN81@edge_dump
	mov	ecx, DWORD PTR _dymem
	imul	eax, 240				; 000000f0H
	add	eax, DWORD PTR _web+216
	mov	edx, DWORD PTR [eax+ecx+64]
	mov	eax, DWORD PTR _web+124
	mov	ecx, DWORD PTR tv995[ebp]
	mov	eax, DWORD PTR [eax+ecx*4]
	mov	eax, DWORD PTR [edx+eax]
	imul	eax, 136				; 00000088H
	add	eax, DWORD PTR _web+776
	jmp	SHORT $LN82@edge_dump
$LN81@edge_dump:
	xor	eax, eax
$LN82@edge_dump:

; 1206 :        sprintf(msg,"  boundary %s ",bdry->name); 

	mov	ecx, DWORD PTR _msg
	push	eax
	push	OFFSET ??_C@_0P@MGLFIDGF@?5?5boundary?5?$CFs?5?$AA@
	push	ecx
	call	_sprintf

; 1207 :        outstring(msg); 

	mov	edx, DWORD PTR _msg
	push	edx
	call	_outstring
	add	esp, 16					; 00000010H
$LN29@edge_dump:

; 1208 :      }                    
; 1209 :   if ( attr & CONSTRAINT )

	mov	eax, DWORD PTR _attr$[ebp]
	and	eax, 1024				; 00000400H
	xor	ecx, ecx
	or	eax, ecx
	je	$LN112@edge_dump

; 1210 :   { conmap_t * conmap = get_e_constraint_map(e_id);

	mov	eax, DWORD PTR _web+216
	mov	ecx, DWORD PTR _dymem
	cmp	DWORD PTR [eax+ecx+1048], 0
	je	SHORT $LN83@edge_dump
	mov	edx, DWORD PTR tv995[ebp]
	mov	esi, DWORD PTR _web+124
	mov	ebx, DWORD PTR [esi+edx*4]
	add	ebx, DWORD PTR [eax+ecx+1024]
	jmp	SHORT $LN84@edge_dump
$LN83@edge_dump:
	mov	ebx, OFFSET _nullcon
$LN84@edge_dump:

; 1211 :     struct constraint *con;
; 1212 :     sprintf(msg,"  constraints "); outstring(msg); 

	mov	eax, DWORD PTR _msg
	push	OFFSET ??_C@_0P@NLMCGNKJ@?5?5constraints?5?$AA@
	push	eax
	call	_sprintf
	mov	ecx, DWORD PTR _msg
	push	ecx
	call	_outstring
	add	esp, 12					; 0000000cH

; 1213 :     for ( i = 1 ; i <= (int)conmap[0] ; i++ )

	cmp	DWORD PTR [ebx], 1
	mov	DWORD PTR _i$[ebp], 1
	jl	$LN112@edge_dump
	npad	1
$LL27@edge_dump:

; 1214 :     { con = get_constraint(conmap[i]);

	mov	edx, DWORD PTR _i$[ebp]
	mov	esi, DWORD PTR [ebx+edx*4]
	and	esi, 1073741823				; 3fffffffH
	mov	eax, esi
	imul	eax, 176				; 000000b0H
	add	eax, DWORD PTR _web+652

; 1215 :       if ( !(con->attr & GLOBAL) )

	xor	edi, edi
	mov	ecx, DWORD PTR [eax+36]
	mov	edx, DWORD PTR [eax+32]
	mov	DWORD PTR tv1116[ebp+4], ecx
	mov	ecx, edx
	and	ecx, 4
	or	ecx, edi
	jne	SHORT $LN26@edge_dump

; 1216 :       { if ( con->attr & NAMED_THING )

	and	edx, 512				; 00000200H
	or	edx, ecx
	je	SHORT $LN23@edge_dump

; 1217 :          { sprintf(msg,"%s ",con->name); outstring(msg); }

	mov	edx, DWORD PTR _msg
	push	eax
	push	OFFSET ??_C@_03IKGEINEE@?$CFs?5?$AA@
	push	edx
	call	_sprintf
	mov	eax, DWORD PTR _msg
	push	eax

; 1218 :         else

	jmp	SHORT $LN127@edge_dump
$LN23@edge_dump:

; 1219 :          { sprintf(msg,"%d ",conmap[i]&CONMASK); outstring(msg); }

	mov	ecx, DWORD PTR _msg
	push	esi
	push	OFFSET ??_C@_03JDANDILB@?$CFd?5?$AA@
	push	ecx
	call	_sprintf
	mov	edx, DWORD PTR _msg
	push	edx
$LN127@edge_dump:
	call	_outstring
	add	esp, 16					; 00000010H
$LN26@edge_dump:

; 1213 :     for ( i = 1 ; i <= (int)conmap[0] ; i++ )

	mov	eax, DWORD PTR _i$[ebp]
	inc	eax
	mov	DWORD PTR _i$[ebp], eax
	cmp	eax, DWORD PTR [ebx]
	jle	SHORT $LL27@edge_dump
$LN112@edge_dump:

; 1220 :       }
; 1221 :     }
; 1222 :   }
; 1223 : 
; 1224 :   if ( attr & NEGBOUNDARY ) outstring(" orientation -1 ");

	mov	esi, DWORD PTR _attr$[ebp]
	mov	eax, esi
	and	eax, 256				; 00000100H
	xor	ecx, ecx
	or	eax, ecx
	je	SHORT $LN120@edge_dump
	push	OFFSET ??_C@_0BB@IPHHNNLI@?5orientation?5?91?5?$AA@
	call	_outstring
	add	esp, 4
$LN120@edge_dump:

; 1225 :   if ( attr & FIXED )

	mov	eax, esi
	and	eax, 64					; 00000040H
	xor	ecx, ecx
	or	eax, ecx
	je	SHORT $LN20@edge_dump

; 1226 :       { sprintf(msg,"fixed "); outstring(msg); }

	mov	eax, DWORD PTR _msg
	push	OFFSET ??_C@_06LKAOOMKN@fixed?5?$AA@
	push	eax
	call	_sprintf
	mov	ecx, DWORD PTR _msg
	push	ecx
	call	_outstring
	add	esp, 12					; 0000000cH
$LN20@edge_dump:

; 1227 :   if ( attr & BARE_NAKED ) { sprintf(msg," bare "); outstring(msg); }

	mov	eax, esi
	and	eax, 65536				; 00010000H
	xor	ecx, ecx
	or	eax, ecx
	je	SHORT $LN19@edge_dump
	mov	edx, DWORD PTR _msg
	push	OFFSET ??_C@_06FGOOKMMP@?5bare?5?$AA@
	push	edx
	call	_sprintf
	mov	eax, DWORD PTR _msg
	push	eax
	call	_outstring
	add	esp, 12					; 0000000cH
$LN19@edge_dump:

; 1228 :   if ( attr & NO_REFINE ) outstring(" no_refine ");

	mov	eax, esi
	and	eax, 16777216				; 01000000H
	xor	ecx, ecx
	or	eax, ecx
	je	SHORT $LN18@edge_dump
	push	OFFSET ??_C@_0M@GOKLCPIB@?5no_refine?5?$AA@
	call	_outstring
	add	esp, 4
$LN18@edge_dump:

; 1229 :   if ( attr & NO_TRANSFORM ) outstring(" no_transform ");

	mov	ecx, DWORD PTR _attr$[ebp+4]
	and	ecx, 1
	xor	eax, eax
	or	eax, ecx
	je	SHORT $LN17@edge_dump
	push	OFFSET ??_C@_0P@LOAPFDCI@?5no_transform?5?$AA@
	call	_outstring
	add	esp, 4
$LN17@edge_dump:

; 1230 :   if ( attr & NONCONTENT ) outstring(" noncontent ");

	and	esi, 536870912				; 20000000H
	mov	eax, esi
	xor	ecx, ecx
	or	eax, ecx
	je	SHORT $LN16@edge_dump
	push	OFFSET ??_C@_0N@OFNMPAJJ@?5noncontent?5?$AA@
	call	_outstring
	add	esp, 4
$LN16@edge_dump:

; 1231 :  
; 1232 :   if ( get_edge_color(e_id)  != DEFAULT_EDGE_COLOR )

	mov	edi, DWORD PTR tv995[ebp]
	mov	ecx, DWORD PTR _web+124
	mov	edx, DWORD PTR [ecx+edi*4]
	movzx	eax, WORD PTR [edx+56]
	test	ax, ax
	je	SHORT $LN15@edge_dump

; 1233 :   { sprintf(msg," color %s ",COLORNAME(get_edge_color(e_id))); outstring(msg); }

	cmp	ax, -1
	jl	SHORT $LN85@edge_dump
	cmp	ax, 15					; 0000000fH
	jg	SHORT $LN85@edge_dump
	cwde
	mov	eax, DWORD PTR _color_names[eax*4+4]
	jmp	SHORT $LN86@edge_dump
$LN85@edge_dump:
	mov	eax, OFFSET ??_C@_05BIMBDNDC@black?$AA@
$LN86@edge_dump:
	mov	ecx, DWORD PTR _msg
	push	eax
	push	OFFSET ??_C@_0L@ICKAJHFD@?5color?5?$CFs?5?$AA@
	push	ecx
	call	_sprintf
	mov	edx, DWORD PTR _msg
	push	edx
	call	_outstring
	add	esp, 16					; 00000010H
$LN15@edge_dump:

; 1234 :   if ( (fd == old_fd) && (web.representation != SIMPLEX) )

	mov	eax, DWORD PTR _old_fd$[ebp]
	cmp	DWORD PTR _fd$[ebp], eax
	jne	SHORT $LN115@edge_dump
	cmp	DWORD PTR _web+624, 3
	je	SHORT $LN115@edge_dump

; 1235 :   { calc_edge(e_id);

	mov	esi, DWORD PTR _e_id$[ebp]
	push	esi
	call	_calc_edge

; 1236 :     sprintf(msg," /*length %g*/ ",(DOUBLE)get_edge_length(e_id)); outstring(msg); 

	push	esi
	call	_get_edge_length
	fstp	QWORD PTR [esp]
	mov	ecx, DWORD PTR _msg
	push	OFFSET ??_C@_0BA@KGNBAPKL@?5?1?$CKlength?5?$CFg?$CK?1?5?$AA@
	push	ecx
	call	_sprintf
	mov	edx, DWORD PTR _msg
	push	edx
	call	_outstring
	add	esp, 20					; 00000014H
	jmp	SHORT $LN14@edge_dump
$LN115@edge_dump:
	mov	esi, DWORD PTR _e_id$[ebp]
$LN14@edge_dump:

; 1237 :   }
; 1238 :   if ( elptr(e_id)->method_count )

	mov	eax, esi
	shr	eax, 29					; 0000001dH
	imul	eax, 112				; 00000070H
	mov	ecx, DWORD PTR _web[eax+12]
	lea	ebx, DWORD PTR _web[eax+12]
	mov	eax, DWORD PTR [ecx+edi*4]
	movzx	ecx, WORD PTR [eax+24]
	mov	DWORD PTR tv1149[ebp], ebx
	test	cx, cx
	je	$LN118@edge_dump

; 1239 :   { struct method_instance *mi;
; 1240 :     int meth_offset = EXTRAS(EDGE)[web.meth_attr[EDGE]].offset;

	mov	edx, DWORD PTR _web+5668

; 1241 :     int *methlist = (int*)((char*)elptr(e_id) + meth_offset);

	mov	edi, DWORD PTR _dymem
	imul	edx, 240				; 000000f0H
	add	edx, DWORD PTR _web+216
	mov	edx, DWORD PTR [edx+edi+64]
	add	edx, eax

; 1242 :     for ( i = 0 ; i < elptr(e_id)->method_count ; i++ )

	xor	eax, eax
	xor	edi, edi
	mov	DWORD PTR _methlist$90317[ebp], edx
	cmp	ax, cx
	jae	$LN118@edge_dump
	mov	ebx, DWORD PTR _gen_quant_list
$LL12@edge_dump:

; 1243 :       { int mm = methlist[i];

	mov	ecx, DWORD PTR _methlist$90317[ebp]
	mov	esi, DWORD PTR [ecx+edi*4]

; 1244 :         mi = METH_INSTANCE(abs(mm));

	mov	eax, esi
	cdq
	xor	eax, edx
	sub	eax, edx
	cdq
	xor	eax, edx
	sub	eax, edx
	imul	eax, 2928				; 00000b70H
	add	eax, DWORD PTR _meth_inst_list

; 1245 :         if ( mi->quants[0] >= 0 && 
; 1246 :           (GEN_QUANT(mi->quants[0])->flags & (DEFAULT_QUANTITY|Q_DELETED)) ) 

	mov	ecx, DWORD PTR [eax+152]
	test	ecx, ecx
	js	SHORT $LN8@edge_dump
	mov	edx, ecx
	imul	edx, 368				; 00000170H
	test	DWORD PTR [edx+ebx+136], 532480		; 00082000H
	jne	SHORT $LN11@edge_dump

; 1247 :           continue;
; 1248 :         if ( mi->quants[0] >= 0 && (mi->flags & IMPLICIT_INSTANCE) )

	test	ecx, ecx
	js	SHORT $LN8@edge_dump
	test	DWORD PTR [eax+140], 2097152		; 00200000H
	je	SHORT $LN8@edge_dump

; 1249 :            sprintf(msg,"%s%c ",GEN_QUANT(mi->quants[0])->name,(mm<0?'-':' '));

	xor	eax, eax
	test	esi, esi
	setns	al
	imul	ecx, 368				; 00000170H
	dec	eax
	and	eax, 13					; 0000000dH
	add	eax, 32					; 00000020H
	push	eax
	add	ecx, ebx
	push	ecx
	mov	ecx, DWORD PTR _msg
	push	OFFSET ??_C@_05OPNHFOBB@?$CFs?$CFc?5?$AA@
	push	ecx
	jmp	SHORT $LN129@edge_dump
$LN8@edge_dump:

; 1250 :         else sprintf(msg,"%s%c ",mi->name,(mm<0?'-':' ')); 

	xor	edx, edx
	test	esi, esi
	setns	dl
	dec	edx
	and	edx, 13					; 0000000dH
	add	edx, 32					; 00000020H
	push	edx
	push	eax
	mov	eax, DWORD PTR _msg
	push	OFFSET ??_C@_05OPNHFOBB@?$CFs?$CFc?5?$AA@
	push	eax
$LN129@edge_dump:
	call	_sprintf

; 1251 :         outstring(msg); 

	mov	ecx, DWORD PTR _msg
	add	esp, 16					; 00000010H
	push	ecx
	call	_outstring
	mov	ebx, DWORD PTR _gen_quant_list
	add	esp, 4
$LN11@edge_dump:

; 1242 :     for ( i = 0 ; i < elptr(e_id)->method_count ; i++ )

	mov	edx, DWORD PTR tv1149[ebp]
	mov	eax, DWORD PTR [edx]
	mov	ecx, DWORD PTR tv995[ebp]
	mov	edx, DWORD PTR [eax+ecx*4]
	movzx	eax, WORD PTR [edx+24]
	inc	edi
	cmp	edi, eax
	jl	$LL12@edge_dump
	mov	ebx, DWORD PTR tv1149[ebp]
	mov	esi, DWORD PTR _e_id$[ebp]
$LN118@edge_dump:

; 1252 :       }
; 1253 :   } 
; 1254 :   orig = get_original(e_id);

	mov	ecx, DWORD PTR [ebx]
	mov	edx, DWORD PTR tv995[ebp]
	mov	eax, DWORD PTR [ecx+edx*4]
	mov	eax, DWORD PTR [eax+20]

; 1255 :   if ( valid_id(orig) && !equal_element(orig,e_id) ) 

	test	eax, 268435456				; 10000000H
	je	SHORT $LN121@edge_dump
	mov	ecx, eax
	or	ecx, 134217728				; 08000000H
	or	esi, 134217728				; 08000000H
	cmp	ecx, esi
	je	SHORT $LN121@edge_dump

; 1256 :      { sprintf(msg," original %s",ELNAME(orig)); outstring(msg); }

	and	eax, 134217727				; 07ffffffH
	inc	eax
	push	eax
	push	OFFSET ??_C@_02DPKJAMEF@?$CFd?$AA@
	push	OFFSET _elnames
	call	_sprintf
	mov	edx, DWORD PTR _msg
	push	OFFSET _elnames
	push	OFFSET ??_C@_0N@LLGMOCIP@?5original?5?$CFs?$AA@
	push	edx
	call	_sprintf
	mov	eax, DWORD PTR _msg
	push	eax
	call	_outstring
	add	esp, 28					; 0000001cH
$LN121@edge_dump:

; 1257 : 
; 1258 :   /* extra attributes */
; 1259 :   for ( i = 0, ex = EXTRAS(EDGE) ; i < web.skel[EDGE].extra_count;
; 1260 :               i++,ex++ )

	mov	esi, DWORD PTR _web+216
	add	esi, DWORD PTR _dymem
	cmp	DWORD PTR _web+220, 0
	mov	DWORD PTR _i$[ebp], 0
	jle	$LN3@edge_dump
	xor	ebx, ebx
	npad	4
$LL5@edge_dump:

; 1261 :     { char *at = get_e_extra(e_id,i);

	mov	eax, DWORD PTR _web+216
	mov	edx, DWORD PTR _dymem
	lea	ecx, DWORD PTR [ebx+eax]
	mov	edi, DWORD PTR [ecx+edx+64]
	mov	eax, DWORD PTR tv995[ebp]
	mov	ecx, DWORD PTR _web+124
	add	edi, DWORD PTR [ecx+eax*4]

; 1262 :       if ( !(ex->flags & DUMP_ATTR) ) continue;

	test	BYTE PTR [esi+232], 1
	je	SHORT $LN4@edge_dump

; 1263 :       if ( ex->array_spec.datacount == 0 ) continue;

	cmp	DWORD PTR [esi+88], 0
	je	SHORT $LN4@edge_dump

; 1264 :       sprintf(msg," %s ",ex->name);

	mov	edx, DWORD PTR _msg
	push	esi
	push	OFFSET ??_C@_04KMMDIKEB@?5?$CFs?5?$AA@
	push	edx
	call	_sprintf

; 1265 :       outstring(msg);

	mov	eax, DWORD PTR _msg
	push	eax
	call	_outstring

; 1266 :       print_array_attribute(ex,at);

	push	edi
	push	esi
	call	_print_array_attribute
	add	esp, 24					; 00000018H
$LN4@edge_dump:

; 1257 : 
; 1258 :   /* extra attributes */
; 1259 :   for ( i = 0, ex = EXTRAS(EDGE) ; i < web.skel[EDGE].extra_count;
; 1260 :               i++,ex++ )

	mov	eax, DWORD PTR _i$[ebp]
	inc	eax
	add	ebx, 240				; 000000f0H
	add	esi, 240				; 000000f0H
	mov	DWORD PTR _i$[ebp], eax
	cmp	eax, DWORD PTR _web+220
	jl	SHORT $LL5@edge_dump
$LN3@edge_dump:

; 1267 :     }
; 1268 : 
; 1269 :   outstring("\n"); 

	push	OFFSET ??_C@_01EEMJAFIK@?6?$AA@
	call	_outstring

; 1270 : 
; 1271 :   outfd = old_fd;

	mov	ecx, DWORD PTR _old_fd$[ebp]
	add	esp, 4
	pop	esi
	mov	DWORD PTR _outfd, ecx
	pop	ebx
$LN65@edge_dump:
	pop	edi

; 1272 : }  /* end edge_dump() */

	mov	esp, ebp
	pop	ebp
	ret	0
_edge_dump ENDP
_TEXT	ENDS
PUBLIC	??_C@_0N@JHGDJNGC@?5?1?$CKarea?5?$CFg?$CK?1?$AA@ ; `string'
PUBLIC	??_C@_0N@MIIHHBLE@?5opacity?5?$CFf?5?$AA@	; `string'
PUBLIC	??_C@_0P@KCECHDMK@?5backcolor?5?$CFs?5?$AA@	; `string'
PUBLIC	??_C@_0L@BGJJKEMM@?5phase?5?$CFd?5?$AA@		; `string'
PUBLIC	??_C@_0L@KGODKILG@?5nodisplay?$AA@		; `string'
PUBLIC	??_C@_0L@DHLHDELA@?5vertices?5?$AA@		; `string'
PUBLIC	??_C@_0BC@LGJNMCBN@?5?2?6?5?5?5?5?5?5?5?5?5?5?5?5?5?5?$AA@ ; `string'
PUBLIC	??_C@_03EEBNCBOD@?5?$CFs?$AA@			; `string'
PUBLIC	??_C@_04HGGBINEM@?$CFs?$CFd?$AA@		; `string'
PUBLIC	??_C@_01JOAMLHOP@?9?$AA@			; `string'
PUBLIC	??_C@_04ENMPAJBG@?5?$CF3s?$AA@			; `string'
PUBLIC	_facet_dump
EXTRN	_recalc_facet_area:PROC
EXTRN	_opacity_attr:DWORD
EXTRN	_F_PHASE_ATTR:DWORD
EXTRN	_phase_flag:DWORD
EXTRN	_F_BOUNDARY_ATTR:DWORD
EXTRN	_binom_coeff:PROC
;	COMDAT ??_C@_0N@JHGDJNGC@?5?1?$CKarea?5?$CFg?$CK?1?$AA@
; File c:\levolver\yonkang-sefit\levolver\ev_ogl\inline.h
CONST	SEGMENT
??_C@_0N@JHGDJNGC@?5?1?$CKarea?5?$CFg?$CK?1?$AA@ DB ' /*area %g*/', 00H ; `string'
CONST	ENDS
;	COMDAT ??_C@_0N@MIIHHBLE@?5opacity?5?$CFf?5?$AA@
CONST	SEGMENT
??_C@_0N@MIIHHBLE@?5opacity?5?$CFf?5?$AA@ DB ' opacity %f ', 00H ; `string'
CONST	ENDS
;	COMDAT ??_C@_0P@KCECHDMK@?5backcolor?5?$CFs?5?$AA@
CONST	SEGMENT
??_C@_0P@KCECHDMK@?5backcolor?5?$CFs?5?$AA@ DB ' backcolor %s ', 00H ; `string'
CONST	ENDS
;	COMDAT ??_C@_0L@BGJJKEMM@?5phase?5?$CFd?5?$AA@
CONST	SEGMENT
??_C@_0L@BGJJKEMM@?5phase?5?$CFd?5?$AA@ DB ' phase %d ', 00H ; `string'
CONST	ENDS
;	COMDAT ??_C@_0L@KGODKILG@?5nodisplay?$AA@
CONST	SEGMENT
??_C@_0L@KGODKILG@?5nodisplay?$AA@ DB ' nodisplay', 00H	; `string'
CONST	ENDS
;	COMDAT ??_C@_0L@DHLHDELA@?5vertices?5?$AA@
CONST	SEGMENT
??_C@_0L@DHLHDELA@?5vertices?5?$AA@ DB ' vertices ', 00H ; `string'
CONST	ENDS
;	COMDAT ??_C@_0BC@LGJNMCBN@?5?2?6?5?5?5?5?5?5?5?5?5?5?5?5?5?5?$AA@
CONST	SEGMENT
??_C@_0BC@LGJNMCBN@?5?2?6?5?5?5?5?5?5?5?5?5?5?5?5?5?5?$AA@ DB ' \', 0aH, ' '
	DB	'             ', 00H				; `string'
CONST	ENDS
;	COMDAT ??_C@_03EEBNCBOD@?5?$CFs?$AA@
CONST	SEGMENT
??_C@_03EEBNCBOD@?5?$CFs?$AA@ DB ' %s', 00H		; `string'
CONST	ENDS
;	COMDAT ??_C@_04HGGBINEM@?$CFs?$CFd?$AA@
CONST	SEGMENT
??_C@_04HGGBINEM@?$CFs?$CFd?$AA@ DB '%s%d', 00H		; `string'
CONST	ENDS
;	COMDAT ??_C@_01JOAMLHOP@?9?$AA@
CONST	SEGMENT
??_C@_01JOAMLHOP@?9?$AA@ DB '-', 00H			; `string'
CONST	ENDS
;	COMDAT ??_C@_04ENMPAJBG@?5?$CF3s?$AA@
CONST	SEGMENT
??_C@_04ENMPAJBG@?5?$CF3s?$AA@ DB ' %3s', 00H		; `string'
; Function compile flags: /Ogtp
; File c:\levolver\yonkang-sefit\levolver\ev_ogl\dump.c
CONST	ENDS
;	COMDAT _facet_dump
_TEXT	SEGMENT
_old_fd$ = -24						; size = 4
_attr$ = -20						; size = 8
tv1272 = -16						; size = 4
tv1209 = -12						; size = 8
_methcount$90496 = -8					; size = 4
tv1088 = -4						; size = 4
_f_id$ = 8						; size = 4
_fe$92195 = 12						; size = 4
_i$ = 12						; size = 4
_fd$ = 12						; size = 4
_facet_dump PROC					; COMDAT

; 1286 : { int i;

	push	ebp
	mov	ebp, esp
	sub	esp, 24					; 00000018H

; 1287 :   int per_line = 0; 
; 1288 :   edge_id e_id;
; 1289 :   facetedge_id fe;
; 1290 :   FILE *old_fd = outfd;

	mov	eax, DWORD PTR _outfd

; 1291 :   struct extra *ex;
; 1292 :   ATTR attr = get_fattr(f_id);

	mov	ecx, DWORD PTR _web+236
	push	ebx
	push	esi
	mov	esi, DWORD PTR _f_id$[ebp]
	push	edi
	mov	edi, esi
	and	edi, 134217727				; 07ffffffH
	mov	DWORD PTR _old_fd$[ebp], eax
	mov	eax, DWORD PTR [ecx+edi*4]
	mov	edx, DWORD PTR [eax+8]
	mov	eax, DWORD PTR [eax+12]

; 1293 :   facet_id orig;
; 1294 : 
; 1295 :   outfd = fd;

	mov	ecx, DWORD PTR _fd$[ebp]
	xor	ebx, ebx
	mov	DWORD PTR tv1088[ebp], edi
	mov	DWORD PTR _attr$[ebp], edx
	mov	DWORD PTR _attr$[ebp+4], eax
	mov	DWORD PTR _outfd, ecx

; 1296 : 
; 1297 :   if ( !valid_id(f_id) ) return;

	test	esi, 268435456				; 10000000H
	je	$LN51@facet_dump

; 1298 :   { sprintf(msg,"%3s  ",ELNAME(f_id)); outstring(msg); }

	lea	edx, DWORD PTR [edi+1]
	push	edx
	push	OFFSET ??_C@_02DPKJAMEF@?$CFd?$AA@
	push	OFFSET _elnames
	call	_sprintf
	mov	eax, DWORD PTR _msg
	push	OFFSET _elnames
	push	OFFSET ??_C@_05CLJOGFLP@?$CF3s?5?5?$AA@
	push	eax
	call	_sprintf
	mov	ecx, DWORD PTR _msg
	push	ecx
	call	_outstring

; 1299 :     if ( web.representation == SIMPLEX )

	mov	eax, 3
	add	esp, 28					; 0000001cH
	cmp	DWORD PTR _web+624, eax
	jne	$LN49@facet_dump

; 1300 :     { vertex_id *v = get_facet_vertices(f_id);

	mov	edx, DWORD PTR _web+236
	mov	ebx, DWORD PTR [edx+edi*4]
	mov	ecx, DWORD PTR _dymem
	mov	edx, DWORD PTR _web+328
	add	ebx, DWORD PTR [edx+ecx+304]

; 1301 :       int num;
; 1302 :       if (web.modeltype == LAGRANGE)

	cmp	DWORD PTR _web+628, eax
	jne	SHORT $LN48@facet_dump

; 1303 :          num = binom_coeff(web.lagrange_order+web.dimension,web.dimension);

	mov	eax, DWORD PTR _web+620
	mov	ecx, DWORD PTR _web+632
	push	eax
	add	ecx, eax
	push	ecx
	call	_binom_coeff
	add	esp, 8
	mov	edi, eax
	jmp	SHORT $LN47@facet_dump
$LN48@facet_dump:

; 1304 :       else num = web.dimension+1;

	mov	edi, DWORD PTR _web+620
	inc	edi
$LN47@facet_dump:

; 1305 :       for ( i = 0 ; i < num ; i++ )

	xor	esi, esi
	test	edi, edi
	jle	$LN106@facet_dump
$LL46@facet_dump:

; 1306 :          { sprintf(msg," %3s",ELNAME(v[i])); outstring(msg); }

	mov	eax, DWORD PTR [ebx+esi*4]
	test	eax, 268435456				; 10000000H
	je	SHORT $LN55@facet_dump
	and	eax, 134217727				; 07ffffffH
	inc	eax
	push	eax
	push	OFFSET ??_C@_02DPKJAMEF@?$CFd?$AA@
	push	OFFSET _elnames
	call	_sprintf
	add	esp, 12					; 0000000cH
	mov	eax, OFFSET _elnames
	jmp	SHORT $LN56@facet_dump
$LN55@facet_dump:
	mov	eax, OFFSET ??_C@_00CNPNBAHC@?$AA@
$LN56@facet_dump:
	mov	edx, DWORD PTR _msg
	push	eax
	push	OFFSET ??_C@_04ENMPAJBG@?5?$CF3s?$AA@
	push	edx
	call	_sprintf
	mov	eax, DWORD PTR _msg
	push	eax
	call	_outstring
	inc	esi
	add	esp, 16					; 00000010H
	cmp	esi, edi
	jl	SHORT $LL46@facet_dump

; 1307 :     }
; 1308 :     else

	jmp	$LN106@facet_dump
$LN49@facet_dump:

; 1309 :     { facetedge_id first_fe;
; 1310 :       fe = first_fe = get_facet_fe(f_id);

	mov	ecx, DWORD PTR _web+236
	mov	edx, DWORD PTR [ecx+edi*4]
	mov	edi, DWORD PTR [edx+28]
	mov	DWORD PTR _fe$92195[ebp], edi
	test	esi, 134217728				; 08000000H
	je	SHORT $LN83@facet_dump
	xor	edi, 134217728				; 08000000H
	mov	DWORD PTR _fe$92195[ebp], edi
$LN83@facet_dump:

; 1311 :       if ( valid_id(fe) ) do

	test	edi, 268435456				; 10000000H
	je	$LN39@facet_dump
	mov	eax, DWORD PTR _web+460
	npad	3
$LL41@facet_dump:

; 1312 :       { e_id = get_fe_edge(fe);

	mov	esi, edi
	and	esi, 134217727				; 07ffffffH
	add	esi, esi
	add	esi, esi
	mov	ecx, DWORD PTR [eax+esi]
	mov	eax, edi
	and	eax, 134217728				; 08000000H
	xor	eax, DWORD PTR [ecx+20]

; 1313 :         sprintf(msg," %s",SELNAME(e_id) );

	test	eax, 268435456				; 10000000H
	je	SHORT $LN59@facet_dump
	mov	ecx, OFFSET ??_C@_01JOAMLHOP@?9?$AA@
	test	eax, 134217728				; 08000000H
	jne	SHORT $LN58@facet_dump
	mov	ecx, OFFSET ??_C@_00CNPNBAHC@?$AA@
$LN58@facet_dump:
	and	eax, 134217727				; 07ffffffH
	inc	eax
	push	eax
	push	ecx
	push	OFFSET ??_C@_04HGGBINEM@?$CFs?$CFd?$AA@
	push	OFFSET _elnames
	call	_sprintf
	add	esp, 16					; 00000010H
	mov	eax, OFFSET _elnames
	jmp	SHORT $LN60@facet_dump
$LN59@facet_dump:
	mov	eax, OFFSET ??_C@_00CNPNBAHC@?$AA@
$LN60@facet_dump:
	mov	edx, DWORD PTR _msg
	push	eax
	push	OFFSET ??_C@_03EEBNCBOD@?5?$CFs?$AA@
	push	edx
	call	_sprintf

; 1314 :         outstring(msg); 

	mov	eax, DWORD PTR _msg
	push	eax
	call	_outstring

; 1315 :         per_line++;

	inc	ebx
	add	esp, 16					; 00000010H

; 1316 :         if ( per_line >= 10 )

	cmp	ebx, 10					; 0000000aH
	jl	SHORT $LN38@facet_dump

; 1317 :         { sprintf(msg," \\\n              "); outstring(msg); 

	mov	ecx, DWORD PTR _msg
	push	OFFSET ??_C@_0BC@LGJNMCBN@?5?2?6?5?5?5?5?5?5?5?5?5?5?5?5?5?5?$AA@
	push	ecx
	call	_sprintf
	mov	edx, DWORD PTR _msg
	push	edx
	call	_outstring
	add	esp, 12					; 0000000cH

; 1318 :           per_line = 0;

	xor	ebx, ebx
$LN38@facet_dump:

; 1319 :         }
; 1320 :         fe = get_next_edge(fe);

	mov	eax, DWORD PTR _web+460
	test	edi, 134217728				; 08000000H
	je	SHORT $LN90@facet_dump
	mov	ecx, DWORD PTR [eax+esi]
	mov	edi, DWORD PTR [ecx+28]
	xor	edi, 134217728				; 08000000H
	jmp	SHORT $LN40@facet_dump
$LN90@facet_dump:
	mov	edx, DWORD PTR [eax+esi]
	mov	edi, DWORD PTR [edx+32]
$LN40@facet_dump:

; 1321 :       } while ( valid_id(fe) && !equal_id(fe,first_fe) );

	test	edi, 268435456				; 10000000H
	je	SHORT $LN39@facet_dump
	cmp	edi, DWORD PTR _fe$92195[ebp]
	jne	$LL41@facet_dump
$LN39@facet_dump:

; 1322 :       if ( (web.modeltype == LAGRANGE) && (web.representation != STRING) )

	cmp	DWORD PTR _web+628, 3
	jne	$LN106@facet_dump
	cmp	DWORD PTR _web+624, 1
	je	$LN106@facet_dump

; 1323 :       { int num = binom_coeff(web.lagrange_order+web.dimension,web.dimension);

	mov	eax, DWORD PTR _web+620
	mov	ecx, DWORD PTR _web+632
	push	eax
	add	ecx, eax
	push	ecx
	call	_binom_coeff

; 1324 :         vertex_id *v = get_facet_vertices(f_id);

	mov	edx, DWORD PTR _web+236
	mov	ecx, DWORD PTR _web+328
	mov	ebx, eax
	mov	eax, DWORD PTR tv1088[ebp]
	mov	edi, DWORD PTR [edx+eax*4]
	mov	edx, DWORD PTR _dymem
	add	edi, DWORD PTR [ecx+edx+304]

; 1325 :         outstring(" vertices ");

	push	OFFSET ??_C@_0L@DHLHDELA@?5vertices?5?$AA@
	call	_outstring
	add	esp, 12					; 0000000cH

; 1326 :         for ( i = 0 ; i < num ; i++ )

	xor	esi, esi
	test	ebx, ebx
	jle	SHORT $LN106@facet_dump
$LL35@facet_dump:

; 1327 :         { sprintf(msg,"%3s ",ELNAME(v[i])); outstring(msg); }

	mov	eax, DWORD PTR [edi+esi*4]
	test	eax, 268435456				; 10000000H
	je	SHORT $LN61@facet_dump
	and	eax, 134217727				; 07ffffffH
	inc	eax
	push	eax
	push	OFFSET ??_C@_02DPKJAMEF@?$CFd?$AA@
	push	OFFSET _elnames
	call	_sprintf
	add	esp, 12					; 0000000cH
	mov	eax, OFFSET _elnames
	jmp	SHORT $LN62@facet_dump
$LN61@facet_dump:
	mov	eax, OFFSET ??_C@_00CNPNBAHC@?$AA@
$LN62@facet_dump:
	push	eax
	mov	eax, DWORD PTR _msg
	push	OFFSET ??_C@_04BBFBANHC@?$CF3s?5?$AA@
	push	eax
	call	_sprintf
	mov	ecx, DWORD PTR _msg
	push	ecx
	call	_outstring
	inc	esi
	add	esp, 16					; 00000010H
	cmp	esi, ebx
	jl	SHORT $LL35@facet_dump
$LN106@facet_dump:

; 1328 :       }
; 1329 :     }
; 1330 :     if ( attr & BOUNDARY )

	mov	esi, DWORD PTR _attr$[ebp]
	mov	eax, esi
	and	eax, 128				; 00000080H
	xor	ecx, ecx
	or	eax, ecx
	je	SHORT $LN32@facet_dump

; 1331 :       { struct boundary *bdry = get_facet_boundary(f_id);

	mov	eax, DWORD PTR _F_BOUNDARY_ATTR
	test	eax, eax
	je	SHORT $LN63@facet_dump
	mov	edx, DWORD PTR _dymem
	imul	eax, 240				; 000000f0H
	add	eax, DWORD PTR _web+328
	mov	ecx, DWORD PTR _web+236
	mov	eax, DWORD PTR [eax+edx+64]
	mov	edx, DWORD PTR tv1088[ebp]
	mov	ecx, DWORD PTR [ecx+edx*4]
	mov	eax, DWORD PTR [eax+ecx]
	imul	eax, 136				; 00000088H
	add	eax, DWORD PTR _web+776
	jmp	SHORT $LN64@facet_dump
$LN63@facet_dump:
	xor	eax, eax
$LN64@facet_dump:

; 1332 :         sprintf(msg,"  boundary %s ",bdry->name); 

	mov	edx, DWORD PTR _msg
	push	eax
	push	OFFSET ??_C@_0P@MGLFIDGF@?5?5boundary?5?$CFs?5?$AA@
	push	edx
	call	_sprintf

; 1333 :         outstring(msg); 

	mov	eax, DWORD PTR _msg
	push	eax
	call	_outstring
	add	esp, 16					; 00000010H
$LN32@facet_dump:

; 1334 :       }                    
; 1335 :     if ( attr & CONSTRAINT )

	mov	eax, esi
	and	eax, 1024				; 00000400H
	xor	ecx, ecx
	or	eax, ecx
	je	$LN108@facet_dump

; 1336 :       { conmap_t * conmap = get_f_constraint_map(f_id);

	mov	eax, DWORD PTR _web+328
	mov	ecx, DWORD PTR _dymem
	cmp	DWORD PTR [eax+ecx+88], 0
	je	SHORT $LN65@facet_dump
	mov	edx, DWORD PTR tv1088[ebp]
	mov	esi, DWORD PTR _web+236
	mov	ebx, DWORD PTR [esi+edx*4]
	add	ebx, DWORD PTR [eax+ecx+64]
	jmp	SHORT $LN66@facet_dump
$LN65@facet_dump:
	mov	ebx, OFFSET _nullcon
$LN66@facet_dump:

; 1337 :         struct constraint *con;
; 1338 :         sprintf(msg,"  constraints "); outstring(msg); 

	mov	eax, DWORD PTR _msg
	push	OFFSET ??_C@_0P@NLMCGNKJ@?5?5constraints?5?$AA@
	push	eax
	call	_sprintf
	mov	ecx, DWORD PTR _msg
	push	ecx
	call	_outstring
	add	esp, 12					; 0000000cH

; 1339 :         for ( i = 1 ; i <= (int)conmap[0] ; i++ )

	cmp	DWORD PTR [ebx], 1
	mov	DWORD PTR _i$[ebp], 1
	jl	$LN108@facet_dump
	npad	2
$LL30@facet_dump:

; 1340 :         { con = get_constraint(conmap[i]);

	mov	edx, DWORD PTR _i$[ebp]
	mov	esi, DWORD PTR [ebx+edx*4]
	and	esi, 1073741823				; 3fffffffH
	mov	eax, esi
	imul	eax, 176				; 000000b0H
	add	eax, DWORD PTR _web+652

; 1341 :           if ( !(con->attr & GLOBAL) )

	xor	edi, edi
	mov	ecx, DWORD PTR [eax+36]
	mov	edx, DWORD PTR [eax+32]
	mov	DWORD PTR tv1209[ebp+4], ecx
	mov	ecx, edx
	and	ecx, 4
	or	ecx, edi
	jne	SHORT $LN29@facet_dump

; 1342 :           { if ( con->attr & NAMED_THING )

	and	edx, 512				; 00000200H
	or	edx, ecx
	je	SHORT $LN26@facet_dump

; 1343 :              { sprintf(msg,"%s ",con->name); outstring(msg); }

	mov	edx, DWORD PTR _msg
	push	eax
	push	OFFSET ??_C@_03IKGEINEE@?$CFs?5?$AA@
	push	edx
	call	_sprintf
	mov	eax, DWORD PTR _msg
	push	eax

; 1344 :             else

	jmp	SHORT $LN116@facet_dump
$LN26@facet_dump:

; 1345 :              { sprintf(msg,"%d ",conmap[i]&CONMASK); outstring(msg); }

	mov	ecx, DWORD PTR _msg
	push	esi
	push	OFFSET ??_C@_03JDANDILB@?$CFd?5?$AA@
	push	ecx
	call	_sprintf
	mov	edx, DWORD PTR _msg
	push	edx
$LN116@facet_dump:
	call	_outstring
	add	esp, 16					; 00000010H
$LN29@facet_dump:

; 1339 :         for ( i = 1 ; i <= (int)conmap[0] ; i++ )

	mov	eax, DWORD PTR _i$[ebp]
	inc	eax
	mov	DWORD PTR _i$[ebp], eax
	cmp	eax, DWORD PTR [ebx]
	jle	SHORT $LL30@facet_dump
$LN108@facet_dump:

; 1346 :       }
; 1347 :         }
; 1348 :       }
; 1349 :     if ( attr & NEGBOUNDARY ) outstring(" orientation -1 ");

	mov	esi, DWORD PTR _attr$[ebp]
	mov	eax, esi
	and	eax, 256				; 00000100H
	xor	ecx, ecx
	or	eax, ecx
	je	SHORT $LN114@facet_dump
	push	OFFSET ??_C@_0BB@IPHHNNLI@?5orientation?5?91?5?$AA@
	call	_outstring
	add	esp, 4
$LN114@facet_dump:

; 1350 :     if ( attr & DENSITY )
; 1351 : #ifdef FLOAT128
; 1352 :     { sprintf(msg,"  density %1.*Qg ",DPREC,get_facet_density(f_id)); outstring(msg); }
; 1353 : #elif defined(LONGDOUBLE)
; 1354 :     { sprintf(msg,"  density %1.*Lg ",DPREC,get_facet_density(f_id)); outstring(msg); }
; 1355 : #else
; 1356 :     { sprintf(msg,"  density %1.15g ",get_facet_density(f_id)); outstring(msg); }

	mov	ebx, DWORD PTR tv1088[ebp]
	mov	eax, esi
	and	eax, 16					; 00000010H
	xor	ecx, ecx
	or	eax, ecx
	je	SHORT $LN23@facet_dump
	mov	eax, DWORD PTR _web+236
	mov	ecx, DWORD PTR [eax+ebx*4]
	fld	QWORD PTR [ecx+32]
	mov	edx, DWORD PTR _msg
	sub	esp, 8
	fstp	QWORD PTR [esp]
	push	OFFSET ??_C@_0BC@EFJBNHNK@?5?5density?5?$CF1?415g?5?$AA@
	push	edx
	call	_sprintf
	mov	eax, DWORD PTR _msg
	push	eax
	call	_outstring
	add	esp, 20					; 00000014H
$LN23@facet_dump:

; 1357 : #endif 
; 1358 :     if ( attr & FIXED )  outstring(" fixed " ); 

	mov	eax, esi
	and	eax, 64					; 00000040H
	xor	ecx, ecx
	or	eax, ecx
	je	SHORT $LN22@facet_dump
	push	OFFSET ??_C@_07LLDGIOOM@?5fixed?5?$AA@
	call	_outstring
	add	esp, 4
$LN22@facet_dump:

; 1359 :     if ( attr & NO_REFINE ) outstring(" no_refine ");

	mov	eax, esi
	and	eax, 16777216				; 01000000H
	xor	ecx, ecx
	or	eax, ecx
	je	SHORT $LN21@facet_dump
	push	OFFSET ??_C@_0M@GOKLCPIB@?5no_refine?5?$AA@
	call	_outstring
	add	esp, 4
$LN21@facet_dump:

; 1360 :     if ( attr & NO_TRANSFORM ) outstring(" no_transform ");

	mov	ecx, DWORD PTR _attr$[ebp+4]
	and	ecx, 1
	xor	eax, eax
	or	eax, ecx
	je	SHORT $LN20@facet_dump
	push	OFFSET ??_C@_0P@LOAPFDCI@?5no_transform?5?$AA@
	call	_outstring
	add	esp, 4
$LN20@facet_dump:

; 1361 :     if ( attr & NONCONTENT ) outstring(" noncontent ");

	mov	eax, esi
	and	eax, 536870912				; 20000000H
	xor	ecx, ecx
	or	eax, ecx
	je	SHORT $LN19@facet_dump
	push	OFFSET ??_C@_0N@OFNMPAJJ@?5noncontent?5?$AA@
	call	_outstring
	add	esp, 4
$LN19@facet_dump:

; 1362 :     if ( attr & NODISPLAY ) outstring(" nodisplay"); 

	and	esi, 2
	xor	eax, eax
	or	esi, eax
	je	SHORT $LN18@facet_dump
	push	OFFSET ??_C@_0L@KGODKILG@?5nodisplay?$AA@
	call	_outstring
	add	esp, 4
$LN18@facet_dump:

; 1363 :     if ( phase_flag && (web.representation == STRING) )

	cmp	DWORD PTR _phase_flag, 0
	je	SHORT $LN17@facet_dump
	cmp	DWORD PTR _web+624, 1
	jne	SHORT $LN17@facet_dump

; 1364 :      { sprintf(msg," phase %d ",get_f_phase(f_id)); outstring(msg); }

	mov	eax, DWORD PTR _F_PHASE_ATTR
	imul	eax, 240				; 000000f0H
	add	eax, DWORD PTR _web+328
	add	eax, DWORD PTR _dymem
	cmp	DWORD PTR [eax+88], 0
	je	SHORT $LN67@facet_dump
	mov	ecx, DWORD PTR _web+236
	mov	edx, DWORD PTR [ecx+ebx*4]
	mov	eax, DWORD PTR [eax+64]
	mov	eax, DWORD PTR [edx+eax]
	jmp	SHORT $LN68@facet_dump
$LN67@facet_dump:
	xor	eax, eax
$LN68@facet_dump:
	mov	ecx, DWORD PTR _msg
	push	eax
	push	OFFSET ??_C@_0L@BGJJKEMM@?5phase?5?$CFd?5?$AA@
	push	ecx
	call	_sprintf
	mov	edx, DWORD PTR _msg
	push	edx
	call	_outstring
	add	esp, 16					; 00000010H
$LN17@facet_dump:

; 1365 :     if ( get_facet_color(f_id) != DEFAULT_FACET_COLOR  )

	mov	eax, DWORD PTR _web+236
	mov	ecx, DWORD PTR [eax+ebx*4]
	movzx	eax, WORD PTR [ecx+48]
	cmp	ax, 15					; 0000000fH
	je	SHORT $LN16@facet_dump

; 1366 :      { sprintf(msg," color %s ",COLORNAME(get_facet_color(f_id)));

	cmp	ax, -1
	jl	SHORT $LN69@facet_dump
	cmp	ax, 15					; 0000000fH
	jg	SHORT $LN69@facet_dump
	movsx	edx, ax
	mov	eax, DWORD PTR _color_names[edx*4+4]
	jmp	SHORT $LN70@facet_dump
$LN69@facet_dump:
	mov	eax, OFFSET ??_C@_05BIMBDNDC@black?$AA@
$LN70@facet_dump:
	push	eax
	mov	eax, DWORD PTR _msg
	push	OFFSET ??_C@_0L@ICKAJHFD@?5color?5?$CFs?5?$AA@
	push	eax
	call	_sprintf

; 1367 :        outstring(msg); }

	mov	ecx, DWORD PTR _msg
	push	ecx
	call	_outstring
	add	esp, 16					; 00000010H
$LN16@facet_dump:

; 1368 :     if ( get_facet_backcolor(f_id) !=  get_facet_color(f_id) )

	mov	edi, DWORD PTR _f_id$[ebp]
	mov	edx, edi
	shr	edx, 27					; 0000001bH
	and	edx, 1
	je	SHORT $LN71@facet_dump
	mov	eax, DWORD PTR _web+236
	mov	eax, DWORD PTR [eax+ebx*4]
	movsx	ecx, WORD PTR [eax+48]
	jmp	SHORT $LN72@facet_dump
$LN71@facet_dump:
	mov	ecx, DWORD PTR _web+236
	mov	eax, DWORD PTR [ecx+ebx*4]
	movsx	ecx, WORD PTR [eax+50]
$LN72@facet_dump:
	movsx	esi, WORD PTR [eax+48]
	cmp	ecx, esi
	je	SHORT $LN15@facet_dump

; 1369 :      { sprintf(msg," backcolor %s ",COLORNAME(get_facet_backcolor(f_id))); 

	mov	ecx, esi
	test	edx, edx
	jne	SHORT $LN74@facet_dump
	movsx	ecx, WORD PTR [eax+50]
$LN74@facet_dump:
	cmp	ecx, -1
	jl	SHORT $LN77@facet_dump
	mov	ecx, esi
	test	edx, edx
	jne	SHORT $LN76@facet_dump
	movsx	ecx, WORD PTR [eax+50]
$LN76@facet_dump:
	cmp	ecx, 15					; 0000000fH
	jg	SHORT $LN77@facet_dump
	test	edx, edx
	je	SHORT $LN78@facet_dump
	mov	eax, esi
	mov	eax, DWORD PTR _color_names[eax*4+4]
	jmp	SHORT $LN80@facet_dump
$LN78@facet_dump:
	movsx	eax, WORD PTR [eax+50]
	mov	eax, DWORD PTR _color_names[eax*4+4]
	jmp	SHORT $LN80@facet_dump
$LN77@facet_dump:
	mov	eax, OFFSET ??_C@_05BIMBDNDC@black?$AA@
$LN80@facet_dump:
	mov	edx, DWORD PTR _msg
	push	eax
	push	OFFSET ??_C@_0P@KCECHDMK@?5backcolor?5?$CFs?5?$AA@
	push	edx
	call	_sprintf

; 1370 :        outstring(msg); }

	mov	eax, DWORD PTR _msg
	push	eax
	call	_outstring
	add	esp, 16					; 00000010H
$LN15@facet_dump:

; 1371 :     if ( opacity_attr )

	mov	ecx, DWORD PTR _opacity_attr
	test	ecx, ecx
	je	SHORT $LN111@facet_dump

; 1372 :     { sprintf(msg," opacity %f ",*(REAL*)get_extra(f_id,opacity_attr));

	mov	eax, edi
	imul	ecx, 240				; 000000f0H
	shr	eax, 29					; 0000001dH
	imul	eax, 112				; 00000070H
	mov	edx, DWORD PTR _web[eax+104]
	mov	eax, DWORD PTR _web[eax+12]
	mov	eax, DWORD PTR [eax+ebx*4]
	add	edx, ecx
	mov	ecx, DWORD PTR _dymem
	mov	edx, DWORD PTR [edx+ecx+64]
	mov	ecx, DWORD PTR _msg
	sub	esp, 8
	fld	QWORD PTR [edx+eax]
	fstp	QWORD PTR [esp]
	push	OFFSET ??_C@_0N@MIIHHBLE@?5opacity?5?$CFf?5?$AA@
	push	ecx
	call	_sprintf

; 1373 :       outstring(msg);

	mov	edx, DWORD PTR _msg
	push	edx
	call	_outstring
	add	esp, 20					; 00000014H
$LN111@facet_dump:

; 1374 :     }
; 1375 :     if ( elptr(f_id)->method_count )

	shr	edi, 29					; 0000001dH
	imul	edi, 112				; 00000070H
	lea	eax, DWORD PTR _web[edi+12]
	mov	DWORD PTR tv1272[ebp], eax
	mov	eax, DWORD PTR [eax]
	mov	ecx, DWORD PTR [eax+ebx*4]
	cmp	WORD PTR [ecx+24], 0
	lea	eax, DWORD PTR [eax+ebx*4]
	je	$LN10@facet_dump

; 1376 :     { struct method_instance *mi;
; 1377 :       int meth_offset = EXTRAS(FACET)[web.meth_attr[FACET]].offset;

	mov	edx, DWORD PTR _web+5672
	imul	edx, 240				; 000000f0H
	add	edx, DWORD PTR _web+328

; 1378 :       int *methlist = (int*)((char*)elptr(f_id) + meth_offset);

	mov	eax, ecx
	mov	ecx, DWORD PTR _dymem
	mov	edi, DWORD PTR [edx+ecx+64]
	add	edi, eax

; 1379 :       int methcount = (int)elptr(f_id)->method_count;

	movzx	eax, WORD PTR [eax+24]
	mov	DWORD PTR _methcount$90496[ebp], eax

; 1380 :       for ( i = 0 ; i < methcount ; i++ )

	mov	DWORD PTR _i$[ebp], 0
	test	eax, eax
	jle	$LN10@facet_dump
	mov	ebx, DWORD PTR _gen_quant_list
	npad	1
$LL12@facet_dump:

; 1381 :         { int mm = methlist[i];

	mov	edx, DWORD PTR _i$[ebp]
	mov	esi, DWORD PTR [edi+edx*4]

; 1382 :           mi = METH_INSTANCE(abs(mm));

	mov	eax, esi
	cdq
	xor	eax, edx
	sub	eax, edx
	cdq
	xor	eax, edx
	sub	eax, edx
	imul	eax, 2928				; 00000b70H
	add	eax, DWORD PTR _meth_inst_list

; 1383 :           if ( mi->quants[0] >= 0 &&
; 1384 :             (GEN_QUANT(mi->quants[0])->flags & (DEFAULT_QUANTITY|Q_DELETED)) )

	mov	ecx, DWORD PTR [eax+152]
	test	ecx, ecx
	js	SHORT $LN8@facet_dump
	mov	edx, ecx
	imul	edx, 368				; 00000170H
	test	DWORD PTR [edx+ebx+136], 532480		; 00082000H
	jne	SHORT $LN11@facet_dump

; 1385 :              continue;
; 1386 :           if ( mi->quants[0] >= 0 && (mi->flags & IMPLICIT_INSTANCE) )

	test	ecx, ecx
	js	SHORT $LN8@facet_dump
	test	DWORD PTR [eax+140], 2097152		; 00200000H
	je	SHORT $LN8@facet_dump

; 1387 :              sprintf(msg," %s%c ",GEN_QUANT(mi->quants[0])->name,(mm<0?'-':' '));

	xor	eax, eax
	test	esi, esi
	setns	al
	imul	ecx, 368				; 00000170H
	dec	eax
	and	eax, 13					; 0000000dH
	add	eax, 32					; 00000020H
	push	eax
	add	ecx, ebx
	push	ecx
	mov	ecx, DWORD PTR _msg
	push	OFFSET ??_C@_06MMEBJFA@?5?$CFs?$CFc?5?$AA@
	push	ecx
	jmp	SHORT $LN118@facet_dump
$LN8@facet_dump:

; 1388 :           else sprintf(msg," %s%c ",mi->name,(mm<0?'-':' ')); 

	xor	edx, edx
	test	esi, esi
	setns	dl
	dec	edx
	and	edx, 13					; 0000000dH
	add	edx, 32					; 00000020H
	push	edx
	push	eax
	mov	eax, DWORD PTR _msg
	push	OFFSET ??_C@_06MMEBJFA@?5?$CFs?$CFc?5?$AA@
	push	eax
$LN118@facet_dump:
	call	_sprintf

; 1389 :           outstring(msg); 

	mov	ecx, DWORD PTR _msg
	add	esp, 16					; 00000010H
	push	ecx
	call	_outstring
	mov	ebx, DWORD PTR _gen_quant_list
	add	esp, 4
$LN11@facet_dump:

; 1380 :       for ( i = 0 ; i < methcount ; i++ )

	mov	eax, DWORD PTR _i$[ebp]
	inc	eax
	mov	DWORD PTR _i$[ebp], eax
	cmp	eax, DWORD PTR _methcount$90496[ebp]
	jl	$LL12@facet_dump
$LN10@facet_dump:

; 1390 :         }
; 1391 :     }
; 1392 :     sprintf(msg," /*area %g*/", (DOUBLE)get_facet_area(f_id)); outstring(msg); 

	mov	esi, DWORD PTR _f_id$[ebp]
	push	esi
	call	_recalc_facet_area
	mov	edx, DWORD PTR _web+236
	mov	edi, DWORD PTR tv1088[ebp]
	mov	eax, DWORD PTR [edx+edi*4]
	fld	QWORD PTR [eax+40]
	push	ecx
	mov	ecx, DWORD PTR _msg
	fstp	QWORD PTR [esp]
	push	OFFSET ??_C@_0N@JHGDJNGC@?5?1?$CKarea?5?$CFg?$CK?1?$AA@
	push	ecx
	call	_sprintf
	mov	edx, DWORD PTR _msg
	push	edx
	call	_outstring

; 1393 :     orig = get_original(f_id);

	mov	eax, DWORD PTR tv1272[ebp]
	mov	ecx, DWORD PTR [eax]
	mov	edx, DWORD PTR [ecx+edi*4]
	mov	eax, DWORD PTR [edx+20]
	add	esp, 20					; 00000014H

; 1394 :     if ( valid_id(orig) && !equal_element(orig,f_id) )

	test	eax, 268435456				; 10000000H
	je	SHORT $LN6@facet_dump
	mov	ecx, eax
	or	ecx, 134217728				; 08000000H
	or	esi, 134217728				; 08000000H
	cmp	ecx, esi
	je	SHORT $LN6@facet_dump

; 1395 :         { sprintf(msg," original %s",ELNAME(orig)); outstring(msg); }

	and	eax, 134217727				; 07ffffffH
	inc	eax
	push	eax
	push	OFFSET ??_C@_02DPKJAMEF@?$CFd?$AA@
	push	OFFSET _elnames
	call	_sprintf
	mov	edx, DWORD PTR _msg
	push	OFFSET _elnames
	push	OFFSET ??_C@_0N@LLGMOCIP@?5original?5?$CFs?$AA@
	push	edx
	call	_sprintf
	mov	eax, DWORD PTR _msg
	push	eax
	call	_outstring
	add	esp, 28					; 0000001cH
$LN6@facet_dump:

; 1396 : 
; 1397 :   /* extra attributes */
; 1398 :   for ( i = 0, ex = EXTRAS(FACET) ; i < web.skel[FACET].extra_count;
; 1399 :               i++,ex++ )

	mov	esi, DWORD PTR _web+328
	add	esi, DWORD PTR _dymem
	cmp	DWORD PTR _web+332, 0
	mov	DWORD PTR _i$[ebp], 0
	jle	$LN3@facet_dump
	xor	ebx, ebx
	npad	9
$LL115@facet_dump:

; 1400 :     { char *at = get_f_extra(f_id,i);

	mov	eax, DWORD PTR _web+328
	mov	edx, DWORD PTR _dymem
	lea	ecx, DWORD PTR [ebx+eax]
	mov	edi, DWORD PTR [ecx+edx+64]
	mov	eax, DWORD PTR _web+236
	mov	ecx, DWORD PTR tv1088[ebp]
	add	edi, DWORD PTR [eax+ecx*4]

; 1401 :       if ( !(ex->flags & DUMP_ATTR) ) continue;

	test	BYTE PTR [esi+232], 1
	je	SHORT $LN4@facet_dump

; 1402 :       if ( ex->array_spec.datacount == 0 ) continue;

	cmp	DWORD PTR [esi+88], 0
	je	SHORT $LN4@facet_dump

; 1403 :       sprintf(msg," %s ",ex->name);

	mov	edx, DWORD PTR _msg
	push	esi
	push	OFFSET ??_C@_04KMMDIKEB@?5?$CFs?5?$AA@
	push	edx
	call	_sprintf

; 1404 :       outstring(msg);

	mov	eax, DWORD PTR _msg
	push	eax
	call	_outstring

; 1405 :       print_array_attribute(ex,at);

	push	edi
	push	esi
	call	_print_array_attribute
	add	esp, 24					; 00000018H
$LN4@facet_dump:

; 1396 : 
; 1397 :   /* extra attributes */
; 1398 :   for ( i = 0, ex = EXTRAS(FACET) ; i < web.skel[FACET].extra_count;
; 1399 :               i++,ex++ )

	mov	eax, DWORD PTR _i$[ebp]
	inc	eax
	add	ebx, 240				; 000000f0H
	add	esi, 240				; 000000f0H
	mov	DWORD PTR _i$[ebp], eax
	cmp	eax, DWORD PTR _web+332
	jl	SHORT $LL115@facet_dump
$LN3@facet_dump:

; 1406 :     }
; 1407 : 
; 1408 :   outstring("\n"); 

	push	OFFSET ??_C@_01EEMJAFIK@?6?$AA@
	call	_outstring

; 1409 : 
; 1410 :   outfd = old_fd;

	mov	ecx, DWORD PTR _old_fd$[ebp]
	add	esp, 4
	mov	DWORD PTR _outfd, ecx
$LN51@facet_dump:
	pop	edi
	pop	esi
	pop	ebx

; 1411 : }  /* end facet_dump() */

	mov	esp, ebp
	pop	ebp
	ret	0
_facet_dump ENDP
_TEXT	ENDS
PUBLIC	??_C@_0L@OKFCHLED@?5PHASE?5?$CFd?5?$AA@		; `string'
PUBLIC	??_C@_0BC@DILLNLHG@?5?5pressure?5?$CF1?415g?$AA@ ; `string'
PUBLIC	??_C@_0BI@HLMDHKDG@?5?5actual_volume?5?$CF1?415g?5?$AA@ ; `string'
PUBLIC	??_C@_0BD@COJGMIHJ@?5?5volconst?5?$CF1?415g?5?$AA@ ; `string'
PUBLIC	??_C@_0P@GOKGMPFB@?5centerofmass?5?$AA@		; `string'
PUBLIC	??_C@_0EA@ILELJPGA@?5?5volume?5?$CF1?415g?5?5?1?$CKactual?3?5?$CF1?415@ ; `string'
PUBLIC	??_C@_0DA@PENAHFJH@Internal?5error?3?5body?5?$CFs?5facet?5li@ ; `string'
PUBLIC	??_C@_0O@CMEKCKCL@?5?2?6?5?5?5?5?5?5?5?5?5?5?$AA@ ; `string'
PUBLIC	??_C@_09IEEJOLKL@?$CF3s?5?5?5?5?5?5?$AA@	; `string'
PUBLIC	_body_dump
EXTRN	_B_PHASE_ATTR:DWORD
EXTRN	_get_next_body_facet:PROC
;	COMDAT ??_C@_0L@OKFCHLED@?5PHASE?5?$CFd?5?$AA@
; File c:\levolver\yonkang-sefit\levolver\ev_ogl\inline.h
CONST	SEGMENT
??_C@_0L@OKFCHLED@?5PHASE?5?$CFd?5?$AA@ DB ' PHASE %d ', 00H ; `string'
CONST	ENDS
;	COMDAT ??_C@_0BC@DILLNLHG@?5?5pressure?5?$CF1?415g?$AA@
CONST	SEGMENT
??_C@_0BC@DILLNLHG@?5?5pressure?5?$CF1?415g?$AA@ DB '  pressure %1.15g', 00H ; `string'
CONST	ENDS
;	COMDAT ??_C@_0BI@HLMDHKDG@?5?5actual_volume?5?$CF1?415g?5?$AA@
CONST	SEGMENT
??_C@_0BI@HLMDHKDG@?5?5actual_volume?5?$CF1?415g?5?$AA@ DB '  actual_volu'
	DB	'me %1.15g ', 00H				; `string'
CONST	ENDS
;	COMDAT ??_C@_0BD@COJGMIHJ@?5?5volconst?5?$CF1?415g?5?$AA@
CONST	SEGMENT
??_C@_0BD@COJGMIHJ@?5?5volconst?5?$CF1?415g?5?$AA@ DB '  volconst %1.15g '
	DB	00H						; `string'
CONST	ENDS
;	COMDAT ??_C@_0P@GOKGMPFB@?5centerofmass?5?$AA@
CONST	SEGMENT
??_C@_0P@GOKGMPFB@?5centerofmass?5?$AA@ DB ' centerofmass ', 00H ; `string'
CONST	ENDS
;	COMDAT ??_C@_0EA@ILELJPGA@?5?5volume?5?$CF1?415g?5?5?1?$CKactual?3?5?$CF1?415@
CONST	SEGMENT
??_C@_0EA@ILELJPGA@?5?5volume?5?$CF1?415g?5?5?1?$CKactual?3?5?$CF1?415@ DB ' '
	DB	' volume %1.15g  /*actual: %1.15g*/ lagrange_multiplier %1.15g'
	DB	' ', 00H					; `string'
CONST	ENDS
;	COMDAT ??_C@_0DA@PENAHFJH@Internal?5error?3?5body?5?$CFs?5facet?5li@
CONST	SEGMENT
??_C@_0DA@PENAHFJH@Internal?5error?3?5body?5?$CFs?5facet?5li@ DB 'Interna'
	DB	'l error: body %s facet list not closed.', 0aH, 00H ; `string'
CONST	ENDS
;	COMDAT ??_C@_0O@CMEKCKCL@?5?2?6?5?5?5?5?5?5?5?5?5?5?$AA@
CONST	SEGMENT
??_C@_0O@CMEKCKCL@?5?2?6?5?5?5?5?5?5?5?5?5?5?$AA@ DB ' \', 0aH, '        '
	DB	'  ', 00H					; `string'
CONST	ENDS
;	COMDAT ??_C@_09IEEJOLKL@?$CF3s?5?5?5?5?5?5?$AA@
CONST	SEGMENT
??_C@_09IEEJOLKL@?$CF3s?5?5?5?5?5?5?$AA@ DB '%3s      ', 00H ; `string'
; Function compile flags: /Ogtp
; File c:\levolver\yonkang-sefit\levolver\ev_ogl\dump.c
CONST	ENDS
;	COMDAT _body_dump
_TEXT	SEGMENT
_old_fd$ = -24						; size = 4
tv740 = -20						; size = 4
_bvol$ = -16						; size = 8
_maxcount$ = -12					; size = 4
_count$ = -8						; size = 4
_per_line$ = -4						; size = 4
tv809 = 8						; size = 4
_i$ = 8							; size = 4
_b_id$ = 8						; size = 4
_startf$ = 12						; size = 4
_fd$ = 12						; size = 4
_body_dump PROC						; COMDAT

; 1425 : { 

	push	ebp
	mov	ebp, esp
	sub	esp, 24					; 00000018H

; 1426 :   REAL den;
; 1427 :   int per_line = 0;
; 1428 :   facet_id startf,f_id;
; 1429 :   int i;
; 1430 :   FILE *old_fd = outfd;

	mov	ecx, DWORD PTR _outfd

; 1431 :   struct extra *ex;
; 1432 :   REAL bvol;
; 1433 :   body_id orig;
; 1434 :   int maxcount = 2*web.skel[FACET].count;

	mov	edx, DWORD PTR _web+288
	push	edi

; 1435 :   int count = 0;
; 1436 : 
; 1437 :   outfd = fd;
; 1438 : 
; 1439 :   if ( !valid_id(b_id) ) return;

	mov	edi, DWORD PTR _b_id$[ebp]
	xor	eax, eax
	mov	DWORD PTR _old_fd$[ebp], ecx
	lea	ecx, DWORD PTR [edx+edx]
	mov	edx, DWORD PTR _fd$[ebp]
	mov	DWORD PTR _per_line$[ebp], eax
	mov	DWORD PTR _maxcount$[ebp], ecx
	mov	DWORD PTR _count$[ebp], eax
	mov	DWORD PTR _outfd, edx
	test	edi, 268435456				; 10000000H
	je	$LN27@body_dump

; 1440 :   /* make_bfacet_lists(); */
; 1441 :   sprintf(msg,"%3s      ",ELNAME(b_id)); outstring(msg); 

	push	ebx
	and	edi, 134217727				; 07ffffffH
	push	esi
	lea	ebx, DWORD PTR [edi+1]
	push	ebx
	push	OFFSET ??_C@_02DPKJAMEF@?$CFd?$AA@
	push	OFFSET _elnames
	mov	DWORD PTR tv740[ebp], edi
	call	_sprintf
	mov	eax, DWORD PTR _msg
	push	OFFSET _elnames
	push	OFFSET ??_C@_09IEEJOLKL@?$CF3s?5?5?5?5?5?5?$AA@
	push	eax
	call	_sprintf
	mov	ecx, DWORD PTR _msg
	push	ecx
	call	_outstring

; 1442 :   startf = f_id = get_body_facet(b_id);

	mov	edx, DWORD PTR _web+348
	mov	eax, DWORD PTR [edx+edi*4]
	mov	esi, DWORD PTR [eax+400]

; 1443 :   while ( valid_id(f_id) )

	mov	eax, esi
	shr	eax, 28					; 0000001cH
	add	esp, 28					; 0000001cH
	and	eax, 1
	mov	DWORD PTR _startf$[ebp], esi
	je	$LN79@body_dump
	npad	2
$LL25@body_dump:

; 1444 :   { sprintf(msg," %s",SELNAME(f_id));

	test	eax, eax
	je	SHORT $LN33@body_dump
	mov	eax, OFFSET ??_C@_01JOAMLHOP@?9?$AA@
	test	esi, 134217728				; 08000000H
	jne	SHORT $LN32@body_dump
	mov	eax, OFFSET ??_C@_00CNPNBAHC@?$AA@
$LN32@body_dump:
	mov	ecx, esi
	and	ecx, 134217727				; 07ffffffH
	inc	ecx
	push	ecx
	push	eax
	push	OFFSET ??_C@_04HGGBINEM@?$CFs?$CFd?$AA@
	push	OFFSET _elnames
	call	_sprintf
	add	esp, 16					; 00000010H
	mov	eax, OFFSET _elnames
	jmp	SHORT $LN34@body_dump
$LN33@body_dump:
	mov	eax, OFFSET ??_C@_00CNPNBAHC@?$AA@
$LN34@body_dump:
	mov	edx, DWORD PTR _msg
	push	eax
	push	OFFSET ??_C@_03EEBNCBOD@?5?$CFs?$AA@
	push	edx
	call	_sprintf

; 1445 :     outstring(msg); 

	mov	eax, DWORD PTR _msg
	push	eax
	call	_outstring

; 1446 :     per_line++;

	mov	eax, DWORD PTR _per_line$[ebp]
	inc	eax
	add	esp, 16					; 00000010H
	mov	DWORD PTR _per_line$[ebp], eax

; 1447 :     if ( per_line >= 10 )

	cmp	eax, 10					; 0000000aH
	jl	SHORT $LN23@body_dump

; 1448 :     { sprintf(msg," \\\n          "); outstring(msg); 

	mov	ecx, DWORD PTR _msg
	push	OFFSET ??_C@_0O@CMEKCKCL@?5?2?6?5?5?5?5?5?5?5?5?5?5?$AA@
	push	ecx
	call	_sprintf
	mov	edx, DWORD PTR _msg
	push	edx
	call	_outstring
	add	esp, 12					; 0000000cH

; 1449 :       per_line = 0;

	mov	DWORD PTR _per_line$[ebp], 0
$LN23@body_dump:

; 1450 :     }
; 1451 :     f_id = get_next_body_facet(f_id);

	push	esi
	call	_get_next_body_facet
	mov	esi, eax
	add	esp, 4

; 1452 :     if ( equal_id(f_id,startf) )

	cmp	esi, DWORD PTR _startf$[ebp]
	je	SHORT $LN79@body_dump

; 1453 :       break;
; 1454 :     if ( count++ > maxcount )

	mov	eax, DWORD PTR _count$[ebp]
	mov	ecx, eax
	inc	eax
	mov	DWORD PTR _count$[ebp], eax
	cmp	ecx, DWORD PTR _maxcount$[ebp]
	jle	SHORT $LN21@body_dump

; 1455 :     { sprintf(errmsg,"Internal error: body %s facet list not closed.\n",
; 1456 :              ELNAME(b_id));

	push	ebx
	push	OFFSET ??_C@_02DPKJAMEF@?$CFd?$AA@
	push	OFFSET _elnames
	call	_sprintf
	push	OFFSET _elnames
	push	OFFSET ??_C@_0DA@PENAHFJH@Internal?5error?3?5body?5?$CFs?5facet?5li@
	push	OFFSET _errmsg
	call	_sprintf

; 1457 :       kb_error(4221,errmsg,RECOVERABLE);

	push	1
	push	OFFSET _errmsg
	push	4221					; 0000107dH
	call	_kb_error
	add	esp, 36					; 00000024H
$LN21@body_dump:

; 1443 :   while ( valid_id(f_id) )

	mov	eax, esi
	shr	eax, 28					; 0000001cH
	and	eax, 1
	jne	$LL25@body_dump
$LN79@body_dump:

; 1458 :     }
; 1459 :   }
; 1460 :   bvol = get_body_volume(b_id);

	mov	edx, DWORD PTR _web+348
	mov	ecx, DWORD PTR [edx+edi*4]

; 1461 :   if ( get_battr(b_id) & FIXEDVOL )

	mov	eax, DWORD PTR [ecx+8]
	fld	QWORD PTR [ecx+40]
	and	eax, 32					; 00000020H
	fst	QWORD PTR _bvol$[ebp]
	xor	edx, edx
	or	eax, edx
	je	SHORT $LN20@body_dump

; 1462 :     { sprintf(msg,
; 1463 : #ifdef FLOAT128
; 1464 :         "  volume %1.*Qg  /*actual: %1.*Qg*/ lagrange_multiplier %1.*Qg ",
; 1465 :                      DPREC,get_body_fixvol(b_id), DPREC,
; 1466 :                      bvol,DPREC,get_body_pressure(b_id));
; 1467 : #elif defined(LONGDOUBLE)
; 1468 :         "  volume %1.*Lg  /*actual: %1.*Lg*/ lagrange_multiplier %1.*Lg ",
; 1469 :                      DPREC,get_body_fixvol(b_id), DPREC,
; 1470 :                      bvol,DPREC,get_body_pressure(b_id));
; 1471 : #else
; 1472 :         "  volume %1.15g  /*actual: %1.15g*/ lagrange_multiplier %1.15g ",
; 1473 :                     get_body_fixvol(b_id), 
; 1474 :                     bvol,get_body_pressure(b_id));

	fld	QWORD PTR [ecx+312]
	mov	eax, DWORD PTR _msg
	sub	esp, 24					; 00000018H
	fstp	QWORD PTR [esp+16]
	fstp	QWORD PTR [esp+8]
	fld	QWORD PTR [ecx+32]
	fstp	QWORD PTR [esp]
	push	OFFSET ??_C@_0EA@ILELJPGA@?5?5volume?5?$CF1?415g?5?5?1?$CKactual?3?5?$CF1?415@
	push	eax
	call	_sprintf

; 1475 : #endif 
; 1476 :       outstring(msg); 

	mov	ecx, DWORD PTR _msg
	push	ecx
	call	_outstring
	fld	QWORD PTR _bvol$[ebp]
	add	esp, 36					; 00000024H
$LN20@body_dump:

; 1477 :     }
; 1478 : 
; 1479 :   if ( get_battr(b_id) & WANT_CENTEROFMASS )

	mov	edx, DWORD PTR _web+348
	mov	eax, DWORD PTR [edx+edi*4]
	mov	ecx, DWORD PTR [eax+12]
	and	ecx, 2
	xor	eax, eax
	or	eax, ecx
	je	SHORT $LN19@body_dump

; 1480 :     {
; 1481 :       outstring(" centerofmass "); 

	push	OFFSET ??_C@_0P@GOKGMPFB@?5centerofmass?5?$AA@
	fstp	ST(0)
	call	_outstring
	fld	QWORD PTR _bvol$[ebp]
	add	esp, 4
$LN19@body_dump:

; 1482 :     }
; 1483 : 
; 1484 :     if ( (get_body_volconst(b_id) != 0.0) )

	mov	eax, DWORD PTR _web+348
	mov	ecx, DWORD PTR [eax+edi*4]
	fld	QWORD PTR [ecx+328]
	fldz
	fucompp
	fnstsw	ax
	test	ah, 68					; 00000044H
	jnp	SHORT $LN18@body_dump
	fstp	ST(0)

; 1485 : #ifdef FLOAT128
; 1486 :       { sprintf(msg, "  volconst %1.*Qg ",DPREC,get_body_volconst(b_id)); 
; 1487 : #elif defined(LONGDOUBLE)
; 1488 :       { sprintf(msg, "  volconst %1.*Lg ",DPREC,get_body_volconst(b_id)); 
; 1489 : #else
; 1490 :       { sprintf(msg, "  volconst %1.15g ",get_body_volconst(b_id)); 

	sub	esp, 8
	fld	QWORD PTR [ecx+328]
	mov	ecx, DWORD PTR _msg
	fstp	QWORD PTR [esp]
	push	OFFSET ??_C@_0BD@COJGMIHJ@?5?5volconst?5?$CF1?415g?5?$AA@
	push	ecx
	call	_sprintf

; 1491 : #endif 
; 1492 :         outstring(msg); }

	mov	edx, DWORD PTR _msg
	push	edx
	call	_outstring
	fld	QWORD PTR _bvol$[ebp]
	add	esp, 20					; 00000014H
$LN18@body_dump:

; 1493 : 
; 1494 :     if ( web.torus_flag && ((bvol > web.torusv) || (bvol < 0.0)) )

	cmp	DWORD PTR _web+860, 0
	je	SHORT $LN99@body_dump
	fld	QWORD PTR _web+1600
	fcomp	ST(1)
	fnstsw	ax
	test	ah, 5
	jnp	SHORT $LN16@body_dump
	fldz
	fcomp	ST(1)
	fnstsw	ax
	test	ah, 65					; 00000041H
	jne	SHORT $LN99@body_dump
$LN16@body_dump:

; 1495 : #ifdef FLOAT128
; 1496 :     { sprintf(msg, "  actual_volume %1.*Qg ",DPREC,bvol); 
; 1497 : #elif defined(LONGDOUBLE)
; 1498 :     { sprintf(msg, "  actual_volume %1.*Lg ",DPREC,bvol); 
; 1499 : #else
; 1500 :     { sprintf(msg, "  actual_volume %1.15g ",bvol); 

	mov	eax, DWORD PTR _msg
	sub	esp, 8
	fstp	QWORD PTR [esp]
	push	OFFSET ??_C@_0BI@HLMDHKDG@?5?5actual_volume?5?$CF1?415g?5?$AA@
	push	eax
	call	_sprintf

; 1501 : #endif 
; 1502 :       outstring(msg); }

	mov	ecx, DWORD PTR _msg
	push	ecx
	call	_outstring
	add	esp, 20					; 00000014H
	jmp	SHORT $LN17@body_dump
$LN99@body_dump:

; 1493 : 
; 1494 :     if ( web.torus_flag && ((bvol > web.torusv) || (bvol < 0.0)) )

	fstp	ST(0)
$LN17@body_dump:

; 1503 : 
; 1504 :     if ( get_battr(b_id) & PRESSURE ) 

	mov	edx, DWORD PTR _web+348
	mov	ecx, DWORD PTR [edx+edi*4]
	mov	eax, DWORD PTR [ecx+8]
	and	eax, 2048				; 00000800H
	xor	edx, edx
	or	eax, edx
	je	SHORT $LN15@body_dump

; 1505 : #ifdef FLOAT128
; 1506 :       { sprintf(msg,"  pressure %1.*Qg",DPREC, get_body_pressure(b_id)); outstring(msg); }
; 1507 : #elif defined(LONGDOUBLE)
; 1508 :       { sprintf(msg,"  pressure %1.*Lg",DPREC, get_body_pressure(b_id)); outstring(msg); }
; 1509 : #else
; 1510 :       { sprintf(msg,"  pressure %1.15g", get_body_pressure(b_id)); outstring(msg); }

	fld	QWORD PTR [ecx+312]
	mov	eax, DWORD PTR _msg
	sub	esp, 8
	fstp	QWORD PTR [esp]
	push	OFFSET ??_C@_0BC@DILLNLHG@?5?5pressure?5?$CF1?415g?$AA@
	push	eax
	call	_sprintf
	mov	ecx, DWORD PTR _msg
	push	ecx
	call	_outstring
	add	esp, 20					; 00000014H
$LN15@body_dump:

; 1511 : #endif 
; 1512 :     den = get_body_density(b_id);

	mov	edx, DWORD PTR _web+348
	mov	eax, DWORD PTR [edx+edi*4]
	fld	QWORD PTR [eax+344]

; 1513 :     if ( den != 0.0 )

	fld	ST(0)
	fldz
	fucompp
	fnstsw	ax
	test	ah, 68					; 00000044H
	jnp	SHORT $LN101@body_dump

; 1514 : #ifdef FLOAT128
; 1515 :          { sprintf(msg,"  density %1.*Qg ",DPREC,den); outstring(msg); }
; 1516 : #elif defined(LONGDOUBLE)
; 1517 :          { sprintf(msg,"  density %1.*Lg ",DPREC,den); outstring(msg); }
; 1518 : #else
; 1519 :          { sprintf(msg,"  density %1.15g ",den); outstring(msg); }

	mov	ecx, DWORD PTR _msg
	sub	esp, 8
	fstp	QWORD PTR [esp]
	push	OFFSET ??_C@_0BC@EFJBNHNK@?5?5density?5?$CF1?415g?5?$AA@
	push	ecx
	call	_sprintf
	mov	edx, DWORD PTR _msg
	push	edx
	call	_outstring
	add	esp, 20					; 00000014H
	jmp	SHORT $LN14@body_dump
$LN101@body_dump:
	fstp	ST(0)
$LN14@body_dump:

; 1520 : #endif 
; 1521 :     if ( phase_flag && (web.representation == SOAPFILM) )

	cmp	DWORD PTR _phase_flag, 0
	je	SHORT $LN13@body_dump
	cmp	DWORD PTR _web+624, 2
	jne	SHORT $LN13@body_dump

; 1522 :          { sprintf(msg," PHASE %d ",get_b_phase(b_id)); outstring(msg); }

	mov	eax, DWORD PTR _B_PHASE_ATTR
	imul	eax, 240				; 000000f0H
	add	eax, DWORD PTR _web+440
	add	eax, DWORD PTR _dymem
	cmp	DWORD PTR [eax+88], 0
	je	SHORT $LN37@body_dump
	mov	edx, DWORD PTR _web+348
	mov	ecx, DWORD PTR [edx+edi*4]
	mov	edx, DWORD PTR [eax+64]
	mov	eax, DWORD PTR [ecx+edx]
	jmp	SHORT $LN38@body_dump
$LN37@body_dump:
	xor	eax, eax
$LN38@body_dump:
	push	eax
	mov	eax, DWORD PTR _msg
	push	OFFSET ??_C@_0L@OKFCHLED@?5PHASE?5?$CFd?5?$AA@
	push	eax
	call	_sprintf
	mov	ecx, DWORD PTR _msg
	push	ecx
	call	_outstring
	add	esp, 16					; 00000010H
$LN13@body_dump:

; 1523 :     orig = get_original(b_id);

	mov	edx, DWORD PTR _b_id$[ebp]
	mov	eax, edx
	shr	eax, 29					; 0000001dH
	imul	eax, 112				; 00000070H
	lea	ecx, DWORD PTR _web[eax+12]
	mov	eax, DWORD PTR [ecx]
	mov	eax, DWORD PTR [eax+edi*4]
	mov	eax, DWORD PTR [eax+20]
	mov	DWORD PTR tv809[ebp], ecx

; 1524 :     if ( valid_id(orig) && !equal_element(orig,b_id) ) 

	test	eax, 268435456				; 10000000H
	je	SHORT $LN12@body_dump
	mov	esi, eax
	or	esi, 134217728				; 08000000H
	or	edx, 134217728				; 08000000H
	cmp	esi, edx
	je	SHORT $LN12@body_dump

; 1525 :     { sprintf(msg," original %s",ELNAME(orig)); 

	and	eax, 134217727				; 07ffffffH
	inc	eax
	push	eax
	push	OFFSET ??_C@_02DPKJAMEF@?$CFd?$AA@
	push	OFFSET _elnames
	call	_sprintf
	mov	ecx, DWORD PTR _msg
	push	OFFSET _elnames
	push	OFFSET ??_C@_0N@LLGMOCIP@?5original?5?$CFs?$AA@
	push	ecx
	call	_sprintf

; 1526 :     outstring(msg); }

	mov	edx, DWORD PTR _msg
	push	edx
	call	_outstring
	mov	ecx, DWORD PTR tv809[ebp]
	add	esp, 28					; 0000001cH
$LN12@body_dump:

; 1527 :     if ( elptr(b_id)->method_count )

	mov	eax, DWORD PTR [ecx]
	mov	eax, DWORD PTR [eax+edi*4]
	movzx	ecx, WORD PTR [eax+24]
	test	cx, cx
	je	$LN80@body_dump

; 1528 :     { struct method_instance *mi;
; 1529 :       int meth_offset = EXTRAS(BODY)[web.meth_attr[BODY]].offset;

	mov	edx, DWORD PTR _web+5676

; 1530 :       int *methlist = (int*)((char*)elptr(b_id) + meth_offset);

	mov	esi, DWORD PTR _dymem
	imul	edx, 240				; 000000f0H
	add	edx, DWORD PTR _web+440
	mov	ebx, DWORD PTR [edx+esi+64]
	add	ebx, eax

; 1531 :       for ( i = 0 ; i < (int)elptr(b_id)->method_count ; i++ )

	xor	eax, eax
	xor	esi, esi
	cmp	ax, cx
	jae	$LN80@body_dump
$LL10@body_dump:

; 1532 :       { mi = METH_INSTANCE(abs(methlist[i]));

	mov	ecx, DWORD PTR [ebx+esi*4]
	mov	eax, ecx
	cdq
	xor	eax, edx
	sub	eax, edx
	cdq
	xor	eax, edx
	sub	eax, edx
	imul	eax, 2928				; 00000b70H
	add	eax, DWORD PTR _meth_inst_list

; 1533 :         if ( mi->flags & IMPLICIT_INSTANCE )

	test	DWORD PTR [eax+140], 2097152		; 00200000H
	je	SHORT $LN7@body_dump

; 1534 :           sprintf(msg,"%s ",GEN_QUANT(mi->quants[0])->name);

	mov	ecx, DWORD PTR [eax+152]
	mov	edx, DWORD PTR _msg
	imul	ecx, 368				; 00000170H
	add	ecx, DWORD PTR _gen_quant_list
	push	ecx
	push	OFFSET ??_C@_03IKGEINEE@?$CFs?5?$AA@
	push	edx
	call	_sprintf
	add	esp, 12					; 0000000cH
	jmp	SHORT $LN6@body_dump
$LN7@body_dump:

; 1535 :         else sprintf(msg,"%s%c ",mi->name,methlist[i]>0?' ':'-'); 

	xor	edx, edx
	test	ecx, ecx
	setle	dl
	dec	edx
	and	edx, -13				; fffffff3H
	add	edx, 45					; 0000002dH
	push	edx
	push	eax
	mov	eax, DWORD PTR _msg
	push	OFFSET ??_C@_05OPNHFOBB@?$CFs?$CFc?5?$AA@
	push	eax
	call	_sprintf
	add	esp, 16					; 00000010H
$LN6@body_dump:

; 1536 :         outstring(msg); 

	mov	ecx, DWORD PTR _msg
	push	ecx
	call	_outstring
	mov	edx, DWORD PTR tv809[ebp]
	mov	eax, DWORD PTR [edx]
	mov	ecx, DWORD PTR [eax+edi*4]
	movzx	edx, WORD PTR [ecx+24]
	inc	esi
	add	esp, 4
	cmp	esi, edx
	jl	$LL10@body_dump
$LN80@body_dump:

; 1537 :       }
; 1538 :     }
; 1539 : 
; 1540 :   /* extra attributes */
; 1541 :   for ( i = 0, ex = EXTRAS(BODY) ; i < web.skel[BODY].extra_count;
; 1542 :               i++,ex++ )

	mov	esi, DWORD PTR _web+440
	add	esi, DWORD PTR _dymem
	xor	ebx, ebx
	mov	DWORD PTR _i$[ebp], ebx
	cmp	DWORD PTR _web+444, ebx
	jle	SHORT $LN3@body_dump
$LL83@body_dump:

; 1543 :     { char *at = get_b_extra(b_id,i);

	mov	edx, DWORD PTR _web+440
	mov	ecx, DWORD PTR _dymem
	lea	eax, DWORD PTR [ebx+edx]
	mov	edi, DWORD PTR [eax+ecx+64]
	mov	edx, DWORD PTR tv740[ebp]
	mov	eax, DWORD PTR _web+348
	add	edi, DWORD PTR [eax+edx*4]

; 1544 :       if ( !(ex->flags & DUMP_ATTR) ) continue;

	test	BYTE PTR [esi+232], 1
	je	SHORT $LN4@body_dump

; 1545 :       if ( ex->array_spec.datacount == 0 ) continue;

	cmp	DWORD PTR [esi+88], 0
	je	SHORT $LN4@body_dump

; 1546 :       sprintf(msg," %s ",ex->name);

	mov	ecx, DWORD PTR _msg
	push	esi
	push	OFFSET ??_C@_04KMMDIKEB@?5?$CFs?5?$AA@
	push	ecx
	call	_sprintf

; 1547 :       outstring(msg);

	mov	edx, DWORD PTR _msg
	push	edx
	call	_outstring

; 1548 :       print_array_attribute(ex,at);

	push	edi
	push	esi
	call	_print_array_attribute
	add	esp, 24					; 00000018H
$LN4@body_dump:

; 1537 :       }
; 1538 :     }
; 1539 : 
; 1540 :   /* extra attributes */
; 1541 :   for ( i = 0, ex = EXTRAS(BODY) ; i < web.skel[BODY].extra_count;
; 1542 :               i++,ex++ )

	mov	eax, DWORD PTR _i$[ebp]
	inc	eax
	add	ebx, 240				; 000000f0H
	add	esi, 240				; 000000f0H
	mov	DWORD PTR _i$[ebp], eax
	cmp	eax, DWORD PTR _web+444
	jl	SHORT $LL83@body_dump
$LN3@body_dump:

; 1549 :     }
; 1550 : 
; 1551 :   outstring("\n"); 

	push	OFFSET ??_C@_01EEMJAFIK@?6?$AA@
	call	_outstring

; 1552 : 
; 1553 :   outfd = old_fd;

	mov	eax, DWORD PTR _old_fd$[ebp]
	add	esp, 4
	pop	esi
	mov	DWORD PTR _outfd, eax
	pop	ebx
$LN27@body_dump:
	pop	edi

; 1554 : } /* end body_dump */

	mov	esp, ebp
	pop	ebp
	ret	0
_body_dump ENDP
_TEXT	ENDS
PUBLIC	??_C@_06GIICIPCE@?$CFs?5on?6?$AA@		; `string'
PUBLIC	??_C@_06OHHADACI@?6read?6?$AA@			; `string'
PUBLIC	_toggle_save
_BSS	SEGMENT
_readflag DD	01H DUP (?)
_BSS	ENDS
;	COMDAT ??_C@_06GIICIPCE@?$CFs?5on?6?$AA@
CONST	SEGMENT
??_C@_06GIICIPCE@?$CFs?5on?6?$AA@ DB '%s on', 0aH, 00H	; `string'
CONST	ENDS
;	COMDAT ??_C@_06OHHADACI@?6read?6?$AA@
CONST	SEGMENT
??_C@_06OHHADACI@?6read?6?$AA@ DB 0aH, 'read', 0aH, 00H	; `string'
; Function compile flags: /Ogtp
CONST	ENDS
;	COMDAT _toggle_save
_TEXT	SEGMENT
_togglename$ = 8					; size = 4
_toggle_save PROC					; COMDAT

; 1569 : { if ( readflag == 0 ) { outstring("\nread\n"); readflag = 1; }

	push	ebp
	mov	ebp, esp
	cmp	DWORD PTR _readflag, 0
	jne	SHORT $LN1@toggle_sav
	push	OFFSET ??_C@_06OHHADACI@?6read?6?$AA@
	call	_outstring
	add	esp, 4
	mov	DWORD PTR _readflag, 1
$LN1@toggle_sav:

; 1570 :   sprintf(msg,"%s on\n",togglename);

	mov	eax, DWORD PTR _togglename$[ebp]
	mov	ecx, DWORD PTR _msg
	push	eax
	push	OFFSET ??_C@_06GIICIPCE@?$CFs?5on?6?$AA@
	push	ecx
	call	_sprintf

; 1571 :   outstring(msg);

	mov	edx, DWORD PTR _msg
	push	edx
	call	_outstring
	add	esp, 16					; 00000010H

; 1572 : 
; 1573 : } // end toggle_save()

	pop	ebp
	ret	0
_toggle_save ENDP
_TEXT	ENDS
PUBLIC	??_C@_07ECPNJEHP@?$CFs?5off?6?$AA@		; `string'
PUBLIC	_toggle_save_off
;	COMDAT ??_C@_07ECPNJEHP@?$CFs?5off?6?$AA@
CONST	SEGMENT
??_C@_07ECPNJEHP@?$CFs?5off?6?$AA@ DB '%s off', 0aH, 00H ; `string'
; Function compile flags: /Ogtp
CONST	ENDS
;	COMDAT _toggle_save_off
_TEXT	SEGMENT
_togglename$ = 8					; size = 4
_toggle_save_off PROC					; COMDAT

; 1585 : { if ( readflag == 0 ) { outstring("\nread\n"); readflag = 1; }

	push	ebp
	mov	ebp, esp
	cmp	DWORD PTR _readflag, 0
	jne	SHORT $LN1@toggle_sav@2
	push	OFFSET ??_C@_06OHHADACI@?6read?6?$AA@
	call	_outstring
	add	esp, 4
	mov	DWORD PTR _readflag, 1
$LN1@toggle_sav@2:

; 1586 :   sprintf(msg,"%s off\n",togglename);

	mov	eax, DWORD PTR _togglename$[ebp]
	mov	ecx, DWORD PTR _msg
	push	eax
	push	OFFSET ??_C@_07ECPNJEHP@?$CFs?5off?6?$AA@
	push	ecx
	call	_sprintf

; 1587 :   outstring(msg);

	mov	edx, DWORD PTR _msg
	push	edx
	call	_outstring
	add	esp, 16					; 00000010H

; 1588 : } // end toggle_save_off()

	pop	ebp
	ret	0
_toggle_save_off ENDP
_TEXT	ENDS
PUBLIC	??_C@_02MCILKGOH@?$HL?$HN?$AA@			; `string'
PUBLIC	??_C@_06JFMACMHF@?$CFs?5?3?$DN?5?$AA@		; `string'
PUBLIC	??_C@_07DMFHGJKH@?$CFs?5?3?3?$DN?5?$AA@		; `string'
PUBLIC	??_C@_0CF@JKOMABIH@?8?$CFs?8?5involved?5in?5cyclic?5definiti@ ; `string'
PUBLIC	_list_proc
EXTRN	_proc_timestamp:DWORD
;	COMDAT ??_C@_02MCILKGOH@?$HL?$HN?$AA@
CONST	SEGMENT
??_C@_02MCILKGOH@?$HL?$HN?$AA@ DB '{}', 00H		; `string'
CONST	ENDS
;	COMDAT ??_C@_06JFMACMHF@?$CFs?5?3?$DN?5?$AA@
CONST	SEGMENT
??_C@_06JFMACMHF@?$CFs?5?3?$DN?5?$AA@ DB '%s := ', 00H	; `string'
CONST	ENDS
;	COMDAT ??_C@_07DMFHGJKH@?$CFs?5?3?3?$DN?5?$AA@
CONST	SEGMENT
??_C@_07DMFHGJKH@?$CFs?5?3?3?$DN?5?$AA@ DB '%s ::= ', 00H ; `string'
CONST	ENDS
;	COMDAT ??_C@_0CF@JKOMABIH@?8?$CFs?8?5involved?5in?5cyclic?5definiti@
CONST	SEGMENT
??_C@_0CF@JKOMABIH@?8?$CFs?8?5involved?5in?5cyclic?5definiti@ DB '''%s'' '
	DB	'involved in cyclic definition.', 0aH, 00H	; `string'
; Function compile flags: /Ogtp
CONST	ENDS
;	COMDAT _list_proc
_TEXT	SEGMENT
_node$ = -4						; size = 4
_g$ = 8							; size = 4
_level$ = 12						; size = 4
_list_proc PROC						; COMDAT

; 1700 : { struct expnode *ex = &g->value.proc;

	push	ebp
	mov	ebp, esp
	push	ecx

; 1701 :   struct treenode *node;
; 1702 :   int pp;
; 1703 : 
; 1704 :   g->attr.procstuff.proc_timestamp = proc_timestamp;

	mov	eax, DWORD PTR _proc_timestamp

; 1705 :   if ( level > web.global_count ) 

	mov	ecx, DWORD PTR _level$[ebp]
	push	ebx
	push	esi
	mov	esi, DWORD PTR _g$[ebp]
	mov	DWORD PTR [esi+176], eax
	lea	ebx, DWORD PTR [esi+64]
	cmp	ecx, DWORD PTR _web+5540
	jle	SHORT $LN13@list_proc

; 1706 :   { sprintf(errmsg,"'%s' involved in cyclic definition.\n",g->name);

	push	esi
	push	OFFSET ??_C@_0CF@JKOMABIH@?8?$CFs?8?5involved?5in?5cyclic?5definiti@
	push	OFFSET _errmsg
	call	_sprintf

; 1707 :      kb_error(1007,errmsg,WARNING);

	push	2
	push	OFFSET _errmsg
	push	1007					; 000003efH
	call	_kb_error
	add	esp, 24					; 00000018H

; 1708 :   }
; 1709 :   else

	jmp	$LN9@list_proc
$LN13@list_proc:

; 1710 :   {
; 1711 :     /* check dependencies */
; 1712 :     for ( node = ex->start ; node != ex->root ; node ++  )

	mov	eax, DWORD PTR [ebx]
	mov	DWORD PTR _node$[ebp], eax
	cmp	eax, DWORD PTR [ebx+4]
	je	$LN9@list_proc
	mov	esi, DWORD PTR _web+5652
	push	edi
	mov	edi, DWORD PTR _dymem
	npad	10
$LL11@list_proc:

; 1713 :       if ( node->type == PROCEDURE_NODE )

	cmp	DWORD PTR [eax], 10026			; 0000272aH
	jne	$LN10@list_proc

; 1714 :       { pp = node->op1.name_id;

	mov	eax, DWORD PTR [eax+32]

; 1715 :         if ( globals(pp)->attr.procstuff.proc_timestamp < proc_timestamp )

	mov	edx, eax
	and	edx, -16777216				; ff000000H
	cmp	edx, 268435456				; 10000000H
	je	SHORT $LN16@list_proc
	cmp	edx, 805306368				; 30000000H
	jne	SHORT $LN18@list_proc
	mov	ebx, DWORD PTR _localbase
	and	eax, 16777215				; 00ffffffH
	mov	ecx, eax
	imul	ecx, 224				; 000000e0H
	add	ecx, DWORD PTR [ebx]
	jmp	SHORT $LN17@list_proc
$LN18@list_proc:
	cmp	edx, 536870912				; 20000000H
	jne	SHORT $LN16@list_proc
	mov	ecx, DWORD PTR _web+5656
	and	eax, 16777215				; 00ffffffH
	mov	ecx, DWORD PTR [ecx+eax*4]
	jmp	SHORT $LN17@list_proc
$LN16@list_proc:
	and	eax, 16777215				; 00ffffffH
	lea	ecx, DWORD PTR [esi+eax*4]
	mov	ecx, DWORD PTR [ecx+edi]
$LN17@list_proc:
	mov	ecx, DWORD PTR [ecx+176]
	cmp	ecx, DWORD PTR _proc_timestamp
	jge	SHORT $LN30@list_proc

; 1716 :             list_proc(globals(pp),level+1);

	cmp	edx, 268435456				; 10000000H
	jne	SHORT $LN26@list_proc
	lea	edx, DWORD PTR [esi+eax*4]
	mov	eax, DWORD PTR [edx+edi]
	jmp	SHORT $LN23@list_proc
$LN26@list_proc:
	cmp	edx, 805306368				; 30000000H
	jne	SHORT $LN24@list_proc
	mov	ecx, DWORD PTR _localbase
	imul	eax, 224				; 000000e0H
	add	eax, DWORD PTR [ecx]
	jmp	SHORT $LN23@list_proc
$LN24@list_proc:
	cmp	edx, 536870912				; 20000000H
	jne	SHORT $LN22@list_proc
	mov	edx, DWORD PTR _web+5656
	mov	eax, DWORD PTR [edx+eax*4]
	jmp	SHORT $LN23@list_proc
$LN22@list_proc:
	lea	eax, DWORD PTR [esi+eax*4]
	mov	eax, DWORD PTR [eax+edi]
$LN23@list_proc:
	mov	ecx, DWORD PTR _level$[ebp]
	inc	ecx
	push	ecx
	push	eax
	call	_list_proc
	mov	esi, DWORD PTR _web+5652
	mov	edi, DWORD PTR _dymem
	add	esp, 8
$LN30@list_proc:
	mov	eax, DWORD PTR _node$[ebp]
$LN10@list_proc:

; 1710 :   {
; 1711 :     /* check dependencies */
; 1712 :     for ( node = ex->start ; node != ex->root ; node ++  )

	mov	ebx, DWORD PTR _g$[ebp]
	add	eax, 168				; 000000a8H
	add	ebx, 64					; 00000040H
	mov	DWORD PTR _node$[ebp], eax
	cmp	eax, DWORD PTR [ebx+4]
	jne	$LL11@list_proc
	mov	esi, DWORD PTR _g$[ebp]
	pop	edi
$LN9@list_proc:

; 1717 :       }
; 1718 :   }
; 1719 : 
; 1720 :   /* print */
; 1721 :   if ( g->flags & PERMANENT )

	test	BYTE PTR [esi+192], 16			; 00000010H

; 1722 :     sprintf(msg,"%s ::= ",g->name);

	push	esi
	je	SHORT $LN6@list_proc
	mov	edx, DWORD PTR _msg
	push	OFFSET ??_C@_07DMFHGJKH@?$CFs?5?3?3?$DN?5?$AA@
	push	edx
	jmp	SHORT $LN31@list_proc
$LN6@list_proc:

; 1723 :   else sprintf(msg,"%s := ",g->name);

	mov	eax, DWORD PTR _msg
	push	OFFSET ??_C@_06JFMACMHF@?$CFs?5?3?$DN?5?$AA@
	push	eax
$LN31@list_proc:
	call	_sprintf

; 1724 :   outstring(msg);

	mov	ecx, DWORD PTR _msg
	add	esp, 12					; 0000000cH
	push	ecx
	call	_outstring

; 1725 :   if ( g->value.proc.root==NULL )

	mov	eax, DWORD PTR [esi+68]
	add	esp, 4
	test	eax, eax
	jne	SHORT $LN4@list_proc

; 1726 :       outstring("{}");

	push	OFFSET ??_C@_02MCILKGOH@?$HL?$HN?$AA@

; 1727 :   else

	jmp	SHORT $LN32@list_proc
$LN4@list_proc:

; 1728 :   { if ( g->value.proc.root->type != COMMAND_BLOCK_NODE )

	cmp	DWORD PTR [eax], 10029			; 0000272dH
	je	SHORT $LN2@list_proc

; 1729 :       outstring("{"); 

	push	OFFSET ??_C@_01HCONENDN@?$HL?$AA@
	call	_outstring
	add	esp, 4
$LN2@list_proc:

; 1730 :     outstring(print_express(&g->value.proc,'X'));

	push	88					; 00000058H
	push	ebx
	call	_print_express
	push	eax
	call	_outstring

; 1731 :     if ( g->value.proc.root->type != COMMAND_BLOCK_NODE )

	mov	edx, DWORD PTR [esi+68]
	add	esp, 12					; 0000000cH
	cmp	DWORD PTR [edx], 10029			; 0000272dH
	je	SHORT $LN1@list_proc

; 1732 :       outstring("}");

	push	OFFSET ??_C@_01CELHOKLL@?$HN?$AA@
$LN32@list_proc:
	call	_outstring
	add	esp, 4
$LN1@list_proc:

; 1733 :   }
; 1734 :   outstring("\n");

	push	OFFSET ??_C@_01EEMJAFIK@?6?$AA@
	call	_outstring

; 1735 :   g->attr.procstuff.proc_timestamp = proc_timestamp;

	mov	eax, DWORD PTR _proc_timestamp
	add	esp, 4
	mov	DWORD PTR [esi+176], eax
	pop	esi
	pop	ebx

; 1736 : } /* end list_proc() */

	mov	esp, ebp
	pop	ebp
	ret	0
_list_proc ENDP
_TEXT	ENDS
PUBLIC	??_C@_02PHMGELLB@?6?6?$AA@			; `string'
PUBLIC	??_C@_0CO@CECCPMNH@?5body?5definition?5has?5not?5been?5ex@ ; `string'
PUBLIC	??_C@_03IAHPLKPE@?1?1?5?$AA@			; `string'
PUBLIC	_list_function
;	COMDAT ??_C@_02PHMGELLB@?6?6?$AA@
CONST	SEGMENT
??_C@_02PHMGELLB@?6?6?$AA@ DB 0aH, 0aH, 00H		; `string'
CONST	ENDS
;	COMDAT ??_C@_0CO@CECCPMNH@?5body?5definition?5has?5not?5been?5ex@
CONST	SEGMENT
??_C@_0CO@CECCPMNH@?5body?5definition?5has?5not?5been?5ex@ DB ' body defi'
	DB	'nition has not been executed yet.', 0aH, 0aH, 00H ; `string'
CONST	ENDS
;	COMDAT ??_C@_03IAHPLKPE@?1?1?5?$AA@
CONST	SEGMENT
??_C@_03IAHPLKPE@?1?1?5?$AA@ DB '// ', 00H		; `string'
; Function compile flags: /Ogtp
CONST	ENDS
;	COMDAT _list_function
_TEXT	SEGMENT
_g$ = 8							; size = 4
_list_function PROC					; COMDAT

; 1746 : { 

	push	ebp
	mov	ebp, esp
	push	esi

; 1747 :   if ( g->value.proc.root == NULL )

	mov	esi, DWORD PTR _g$[ebp]
	cmp	DWORD PTR [esi+68], 0
	jne	SHORT $LN2@list_funct

; 1748 :   { outstring("// ");

	push	OFFSET ??_C@_03IAHPLKPE@?1?1?5?$AA@
	call	_outstring

; 1749 :     outstring(g->name);

	push	esi
	call	_outstring

; 1750 :     outstring(" body definition has not been executed yet.\n\n");

	push	OFFSET ??_C@_0CO@CECCPMNH@?5body?5definition?5has?5not?5been?5ex@
	call	_outstring
	add	esp, 12					; 0000000cH
	pop	esi

; 1755 :   }
; 1756 : } /* end list_function() */

	pop	ebp
	ret	0
$LN2@list_funct:

; 1751 :   }
; 1752 :   else
; 1753 :   { outstring(print_express(&g->value.proc,'X'));

	push	88					; 00000058H
	add	esi, 64					; 00000040H
	push	esi
	call	_print_express
	push	eax
	call	_outstring

; 1754 :     outstring("\n\n");

	push	OFFSET ??_C@_02PHMGELLB@?6?6?$AA@
	call	_outstring
	add	esp, 16					; 00000010H
	pop	esi

; 1755 :   }
; 1756 : } /* end list_function() */

	pop	ebp
	ret	0
_list_function ENDP
_TEXT	ENDS
PUBLIC	_list_procedure
; Function compile flags: /Ogtp
;	COMDAT _list_procedure
_TEXT	SEGMENT
_g$ = 8							; size = 4
_list_procedure PROC					; COMDAT

; 1765 : { if ( g->value.proc.root == NULL )

	push	ebp
	mov	ebp, esp
	push	esi
	mov	esi, DWORD PTR _g$[ebp]
	cmp	DWORD PTR [esi+68], 0
	jne	SHORT $LN2@list_proce

; 1766 :   { outstring("// ");

	push	OFFSET ??_C@_03IAHPLKPE@?1?1?5?$AA@
	call	_outstring

; 1767 :     outstring(g->name);

	push	esi
	call	_outstring

; 1768 :     outstring(" body definition has not been executed yet.\n\n");

	push	OFFSET ??_C@_0CO@CECCPMNH@?5body?5definition?5has?5not?5been?5ex@
	call	_outstring
	add	esp, 12					; 0000000cH
	pop	esi

; 1773 :   }
; 1774 : } /* end list_procedure() */

	pop	ebp
	ret	0
$LN2@list_proce:

; 1769 :   }
; 1770 :   else
; 1771 :   { outstring(print_express(&g->value.proc,'X'));

	push	88					; 00000058H
	add	esi, 64					; 00000040H
	push	esi
	call	_print_express
	push	eax
	call	_outstring

; 1772 :     outstring("\n\n");

	push	OFFSET ??_C@_02PHMGELLB@?6?6?$AA@
	call	_outstring
	add	esp, 16					; 00000010H
	pop	esi

; 1773 :   }
; 1774 : } /* end list_procedure() */

	pop	ebp
	ret	0
_list_procedure ENDP
_TEXT	ENDS
PUBLIC	??_C@_03NBFACCKM@?$CJ?$DL?6?$AA@		; `string'
PUBLIC	??_C@_01ODHLEDKK@?$CI?$AA@			; `string'
PUBLIC	??_C@_0CP@PECBFLEK@?$CI?$CJ?$DL?5?5?1?1?5definition?5has?5not?5been?5@ ; `string'
PUBLIC	??_C@_09LFJOPOOD@function?5?$AA@		; `string'
PUBLIC	__$ArrayPad$
PUBLIC	_list_function_proto
;	COMDAT ??_C@_03NBFACCKM@?$CJ?$DL?6?$AA@
CONST	SEGMENT
??_C@_03NBFACCKM@?$CJ?$DL?6?$AA@ DB ');', 0aH, 00H	; `string'
CONST	ENDS
;	COMDAT ??_C@_01ODHLEDKK@?$CI?$AA@
CONST	SEGMENT
??_C@_01ODHLEDKK@?$CI?$AA@ DB '(', 00H			; `string'
CONST	ENDS
;	COMDAT ??_C@_0CP@PECBFLEK@?$CI?$CJ?$DL?5?5?1?1?5definition?5has?5not?5been?5@
CONST	SEGMENT
??_C@_0CP@PECBFLEK@?$CI?$CJ?$DL?5?5?1?1?5definition?5has?5not?5been?5@ DB '('
	DB	');  // definition has not been executed yet.', 0aH, 00H ; `string'
CONST	ENDS
;	COMDAT ??_C@_09LFJOPOOD@function?5?$AA@
CONST	SEGMENT
??_C@_09LFJOPOOD@function?5?$AA@ DB 'function ', 00H	; `string'
; Function compile flags: /Ogtp
CONST	ENDS
;	COMDAT _list_function_proto
_TEXT	SEGMENT
_ex$ = -108						; size = 104
__$ArrayPad$ = -4					; size = 4
_g$ = 8							; size = 4
_list_function_proto PROC				; COMDAT

; 1783 : { 

	push	ebp
	mov	ebp, esp
	sub	esp, 108				; 0000006cH
	mov	eax, DWORD PTR ___security_cookie
	xor	eax, ebp
	mov	DWORD PTR __$ArrayPad$[ebp], eax
	push	ebx
	mov	ebx, DWORD PTR _g$[ebp]
	push	esi
	push	edi

; 1784 :   struct expnode ex = g->value.proc;  /* copy, since will modify */

	lea	esi, DWORD PTR [ebx+64]
	mov	ecx, 26					; 0000001aH
	lea	edi, DWORD PTR _ex$[ebp]
	rep movsd

; 1785 :   if ( !ex.root ) 

	cmp	DWORD PTR _ex$[ebp+4], 0
	je	$LN1@list_funct@2

; 1786 :       return;
; 1787 :   outstring("function ");

	push	OFFSET ??_C@_09LFJOPOOD@function?5?$AA@
	call	_outstring

; 1788 :   outstring(datatype_name[ex.root->op4.ret_type]);

	mov	eax, DWORD PTR _ex$[ebp+4]
	mov	ecx, DWORD PTR [eax+148]
	mov	edx, DWORD PTR _datatype_name[ecx*4]
	push	edx
	call	_outstring

; 1789 :   outstring(" ");

	push	OFFSET ??_C@_01CLKCMJKC@?5?$AA@
	call	_outstring

; 1790 :   outstring(g->name);

	push	ebx
	call	_outstring
	add	esp, 16					; 00000010H

; 1791 :    if ( ex.root == NULL )

	cmp	DWORD PTR _ex$[ebp+4], 0
	jne	SHORT $LN2@list_funct@2

; 1792 :     outstring("();  // definition has not been executed yet.\n");

	push	OFFSET ??_C@_0CP@PECBFLEK@?$CI?$CJ?$DL?5?5?1?1?5definition?5has?5not?5been?5@
	call	_outstring
	add	esp, 4
	pop	edi
	pop	esi
	pop	ebx

; 1798 :   }
; 1799 : } /* end list_function() */

	mov	ecx, DWORD PTR __$ArrayPad$[ebp]
	xor	ecx, ebp
	call	@__security_check_cookie@4
	mov	esp, ebp
	pop	ebp
	ret	0
$LN2@list_funct@2:

; 1793 :   else
; 1794 :   { outstring("(");

	push	OFFSET ??_C@_01ODHLEDKK@?$CI?$AA@
	call	_outstring

; 1795 :     ex.root += ex.root->left; /* so just does function head */

	mov	eax, DWORD PTR _ex$[ebp+4]
	mov	ecx, DWORD PTR [eax+4]
	imul	ecx, 168				; 000000a8H

; 1796 :     outstring(print_express(&ex,'X'));

	lea	edx, DWORD PTR _ex$[ebp]
	add	eax, ecx
	push	88					; 00000058H
	push	edx
	mov	DWORD PTR _ex$[ebp+4], eax
	call	_print_express
	push	eax
	call	_outstring

; 1797 :     outstring(");\n");

	push	OFFSET ??_C@_03NBFACCKM@?$CJ?$DL?6?$AA@
	call	_outstring
	add	esp, 20					; 00000014H
$LN1@list_funct@2:

; 1798 :   }
; 1799 : } /* end list_function() */

	mov	ecx, DWORD PTR __$ArrayPad$[ebp]
	pop	edi
	pop	esi
	xor	ecx, ebp
	pop	ebx
	call	@__security_check_cookie@4
	mov	esp, ebp
	pop	ebp
	ret	0
_list_function_proto ENDP
_TEXT	ENDS
PUBLIC	??_C@_0CO@EMOGJCEE@?$CI?$CJ?$DL?5?1?1?5definition?5has?5not?5been?5e@ ; `string'
PUBLIC	??_C@_04MHIHGOGI@?$CI?$CJ?$DL?6?$AA@		; `string'
PUBLIC	??_C@_0L@CECPKEKH@procedure?5?$AA@		; `string'
PUBLIC	__$ArrayPad$
PUBLIC	_list_procedure_proto
;	COMDAT ??_C@_0CO@EMOGJCEE@?$CI?$CJ?$DL?5?1?1?5definition?5has?5not?5been?5e@
CONST	SEGMENT
??_C@_0CO@EMOGJCEE@?$CI?$CJ?$DL?5?1?1?5definition?5has?5not?5been?5e@ DB '('
	DB	'); // definition has not been executed yet.', 0aH, 00H ; `string'
CONST	ENDS
;	COMDAT ??_C@_04MHIHGOGI@?$CI?$CJ?$DL?6?$AA@
CONST	SEGMENT
??_C@_04MHIHGOGI@?$CI?$CJ?$DL?6?$AA@ DB '();', 0aH, 00H	; `string'
CONST	ENDS
;	COMDAT ??_C@_0L@CECPKEKH@procedure?5?$AA@
CONST	SEGMENT
??_C@_0L@CECPKEKH@procedure?5?$AA@ DB 'procedure ', 00H	; `string'
; Function compile flags: /Ogtp
CONST	ENDS
;	COMDAT _list_procedure_proto
_TEXT	SEGMENT
_ex$ = -108						; size = 104
__$ArrayPad$ = -4					; size = 4
_g$ = 8							; size = 4
_list_procedure_proto PROC				; COMDAT

; 1808 : { 

	push	ebp
	mov	ebp, esp
	sub	esp, 108				; 0000006cH
	mov	eax, DWORD PTR ___security_cookie
	xor	eax, ebp
	mov	DWORD PTR __$ArrayPad$[ebp], eax
	push	ebx
	mov	ebx, DWORD PTR _g$[ebp]
	push	esi
	push	edi

; 1809 :   struct expnode ex = g->value.proc;

	lea	esi, DWORD PTR [ebx+64]
	mov	ecx, 26					; 0000001aH
	lea	edi, DWORD PTR _ex$[ebp]

; 1810 :   outstring("procedure ");

	push	OFFSET ??_C@_0L@CECPKEKH@procedure?5?$AA@
	rep movsd
	call	_outstring

; 1811 :   outstring(g->name);

	push	ebx
	call	_outstring
	add	esp, 8

; 1812 :   if ( g->attr.procstuff.argcount == 0 ) 

	cmp	DWORD PTR [ebx+168], 0
	jne	SHORT $LN5@list_proce@2

; 1813 :   { if ( g->flags & PROCEDURE_NAME )

	test	DWORD PTR [ebx+192], 2097152		; 00200000H
	je	SHORT $LN4@list_proce@2

; 1814 :        outstring("();\n"); 

	push	OFFSET ??_C@_04MHIHGOGI@?$CI?$CJ?$DL?6?$AA@
	call	_outstring
	add	esp, 4
	pop	edi
	pop	esi
	pop	ebx

; 1825 :   }
; 1826 : } /* end list_procedure_proto() */

	mov	ecx, DWORD PTR __$ArrayPad$[ebp]
	xor	ecx, ebp
	call	@__security_check_cookie@4
	mov	esp, ebp
	pop	ebp
	ret	0
$LN4@list_proce@2:

; 1815 :     else outstring("\n");

	push	OFFSET ??_C@_01EEMJAFIK@?6?$AA@
	call	_outstring
	add	esp, 4
	pop	edi
	pop	esi
	pop	ebx

; 1825 :   }
; 1826 : } /* end list_procedure_proto() */

	mov	ecx, DWORD PTR __$ArrayPad$[ebp]
	xor	ecx, ebp
	call	@__security_check_cookie@4
	mov	esp, ebp
	pop	ebp
	ret	0
$LN5@list_proce@2:

; 1816 :     return;
; 1817 :   }
; 1818 :   if ( ex.root == NULL )

	cmp	DWORD PTR _ex$[ebp+4], 0
	jne	SHORT $LN2@list_proce@2

; 1819 :     outstring("(); // definition has not been executed yet.\n");

	push	OFFSET ??_C@_0CO@EMOGJCEE@?$CI?$CJ?$DL?5?1?1?5definition?5has?5not?5been?5e@
	call	_outstring
	add	esp, 4
	pop	edi
	pop	esi
	pop	ebx

; 1825 :   }
; 1826 : } /* end list_procedure_proto() */

	mov	ecx, DWORD PTR __$ArrayPad$[ebp]
	xor	ecx, ebp
	call	@__security_check_cookie@4
	mov	esp, ebp
	pop	ebp
	ret	0
$LN2@list_proce@2:

; 1820 :   else
; 1821 :   { outstring("(");

	push	OFFSET ??_C@_01ODHLEDKK@?$CI?$AA@
	call	_outstring

; 1822 :     ex.root += ex.root->left; /* so just does procedure head */

	mov	eax, DWORD PTR _ex$[ebp+4]
	mov	ecx, DWORD PTR [eax+4]
	imul	ecx, 168				; 000000a8H

; 1823 :     outstring(print_express(&ex,'X'));

	lea	edx, DWORD PTR _ex$[ebp]
	add	eax, ecx
	push	88					; 00000058H
	push	edx
	mov	DWORD PTR _ex$[ebp+4], eax
	call	_print_express
	push	eax
	call	_outstring

; 1824 :     outstring(");\n");

	push	OFFSET ??_C@_03NBFACCKM@?$CJ?$DL?6?$AA@
	call	_outstring

; 1825 :   }
; 1826 : } /* end list_procedure_proto() */

	mov	ecx, DWORD PTR __$ArrayPad$[ebp]
	add	esp, 20					; 00000014H
	pop	edi
	pop	esi
	xor	ecx, ebp
	pop	ebx
	call	@__security_check_cookie@4
	mov	esp, ebp
	pop	ebp
	ret	0
_list_procedure_proto ENDP
_TEXT	ENDS
PUBLIC	??_C@_0BE@FDCAEBHI@?1?1?5End?5prototypes?6?6?$AA@ ; `string'
PUBLIC	??_C@_0CH@FINLKJDE@?6?1?1?5Function?5and?5procedure?5proto@ ; `string'
PUBLIC	_list_top_procedures
;	COMDAT ??_C@_0BE@FDCAEBHI@?1?1?5End?5prototypes?6?6?$AA@
CONST	SEGMENT
??_C@_0BE@FDCAEBHI@?1?1?5End?5prototypes?6?6?$AA@ DB '// End prototypes', 0aH
	DB	0aH, 00H					; `string'
CONST	ENDS
;	COMDAT ??_C@_0CH@FINLKJDE@?6?1?1?5Function?5and?5procedure?5proto@
CONST	SEGMENT
??_C@_0CH@FINLKJDE@?6?1?1?5Function?5and?5procedure?5proto@ DB 0aH, '// F'
	DB	'unction and procedure prototypes', 0aH, 00H	; `string'
; Function compile flags: /Ogtp
CONST	ENDS
;	COMDAT _list_top_procedures
_TEXT	SEGMENT
_protoflag$ = -4					; size = 4
_flags$90795 = 8					; size = 4
_i$ = 8							; size = 4
_mode$ = 8						; size = 4
_list_top_procedures PROC				; COMDAT

; 1839 : { int i; 

	push	ebp
	mov	ebp, esp
	push	ecx
	push	ebx

; 1840 :   int protoflag = 0; /* whether printed prototype comment */
; 1841 : 
; 1842 :   proc_timestamp++;

	mov	eax, 1
	add	DWORD PTR _proc_timestamp, eax
	xor	ebx, ebx

; 1843 : 
; 1844 :   /* prototypes */
; 1845 :   if ( mode == LIST_PROTO )

	cmp	DWORD PTR _mode$[ebp], eax
	push	esi
	push	edi
	mov	DWORD PTR _protoflag$[ebp], ebx

; 1846 :   for ( i = 0 ; i < web.global_count ; i++ )

	mov	DWORD PTR _i$[ebp], ebx
	jne	$LN64@list_top_p
	cmp	DWORD PTR _web+5540, ebx
	jle	$LN3@list_top_p
	mov	ecx, DWORD PTR _web+5652
	mov	edx, DWORD PTR _dymem
	npad	5
$LL14@list_top_p:

; 1847 :   {
; 1848 :     if ( globals(i)->flags & FUNCTION_NAME ) 

	mov	edi, ebx
	and	edi, -16777216				; ff000000H
	cmp	edi, 268435456				; 10000000H
	je	SHORT $LN18@list_top_p
	cmp	edi, 805306368				; 30000000H
	jne	SHORT $LN20@list_top_p
	mov	esi, ebx
	mov	ebx, DWORD PTR _localbase
	and	esi, 16777215				; 00ffffffH
	mov	eax, esi
	imul	eax, 224				; 000000e0H
	add	eax, DWORD PTR [ebx]
	mov	ebx, DWORD PTR _i$[ebp]
	jmp	SHORT $LN19@list_top_p
$LN20@list_top_p:
	cmp	edi, 536870912				; 20000000H
	jne	SHORT $LN18@list_top_p
	mov	eax, DWORD PTR _web+5656
	mov	esi, ebx
	and	esi, 16777215				; 00ffffffH
	mov	eax, DWORD PTR [eax+esi*4]
	jmp	SHORT $LN19@list_top_p
$LN18@list_top_p:
	mov	esi, ebx
	and	esi, 16777215				; 00ffffffH
	lea	eax, DWORD PTR [ecx+esi*4]
	mov	eax, DWORD PTR [eax+edx]
$LN19@list_top_p:
	test	DWORD PTR [eax+192], 1048576		; 00100000H
	je	SHORT $LN66@list_top_p

; 1849 :     { if ( protoflag == 0 )

	cmp	DWORD PTR _protoflag$[ebp], 0
	jne	SHORT $LN65@list_top_p

; 1850 :       { outstring("\n// Function and procedure prototypes\n");

	push	OFFSET ??_C@_0CH@FINLKJDE@?6?1?1?5Function?5and?5procedure?5proto@
	call	_outstring

; 1851 :         protoflag = 1;

	mov	ecx, DWORD PTR _web+5652
	mov	edx, DWORD PTR _dymem
	add	esp, 4
	mov	DWORD PTR _protoflag$[ebp], 1
$LN65@list_top_p:

; 1852 :       }
; 1853 :       list_function_proto(globals(i));

	cmp	edi, 268435456				; 10000000H
	je	SHORT $LN24@list_top_p
	cmp	edi, 805306368				; 30000000H
	jne	SHORT $LN26@list_top_p
	mov	edx, DWORD PTR _localbase
	mov	eax, esi
	imul	eax, 224				; 000000e0H
	add	eax, DWORD PTR [edx]
	jmp	SHORT $LN25@list_top_p
$LN26@list_top_p:
	cmp	edi, 536870912				; 20000000H
	jne	SHORT $LN24@list_top_p
	mov	eax, DWORD PTR _web+5656
	mov	eax, DWORD PTR [eax+esi*4]
	jmp	SHORT $LN25@list_top_p
$LN24@list_top_p:
	lea	ecx, DWORD PTR [ecx+esi*4]
	mov	eax, DWORD PTR [ecx+edx]
$LN25@list_top_p:
	push	eax
	call	_list_function_proto
	mov	ecx, DWORD PTR _web+5652
	mov	edx, DWORD PTR _dymem
	add	esp, 4
$LN66@list_top_p:

; 1854 :     }
; 1855 :     if ( globals(i)->flags & PROCEDURE_NAME ) 

	cmp	edi, 268435456				; 10000000H
	je	SHORT $LN30@list_top_p
	cmp	edi, 805306368				; 30000000H
	jne	SHORT $LN32@list_top_p
	mov	ebx, DWORD PTR _localbase
	mov	eax, esi
	imul	eax, 224				; 000000e0H
	add	eax, DWORD PTR [ebx]
	mov	ebx, DWORD PTR _i$[ebp]
	jmp	SHORT $LN31@list_top_p
$LN32@list_top_p:
	cmp	edi, 536870912				; 20000000H
	jne	SHORT $LN30@list_top_p
	mov	eax, DWORD PTR _web+5656
	mov	eax, DWORD PTR [eax+esi*4]
	jmp	SHORT $LN31@list_top_p
$LN30@list_top_p:
	lea	eax, DWORD PTR [ecx+esi*4]
	mov	eax, DWORD PTR [eax+edx]
$LN31@list_top_p:
	test	DWORD PTR [eax+192], 2097152		; 00200000H
	je	SHORT $LN13@list_top_p

; 1856 :     { if ( protoflag == 0 )

	cmp	DWORD PTR _protoflag$[ebp], 0
	jne	SHORT $LN8@list_top_p

; 1857 :       { outstring("\n// Function and procedure prototypes\n");

	push	OFFSET ??_C@_0CH@FINLKJDE@?6?1?1?5Function?5and?5procedure?5proto@
	call	_outstring

; 1858 :         protoflag = 1;

	mov	ecx, DWORD PTR _web+5652
	mov	edx, DWORD PTR _dymem
	add	esp, 4
	mov	DWORD PTR _protoflag$[ebp], 1
$LN8@list_top_p:

; 1859 :       }
; 1860 :       list_procedure_proto(globals(i));

	cmp	edi, 268435456				; 10000000H
	je	SHORT $LN36@list_top_p
	cmp	edi, 805306368				; 30000000H
	jne	SHORT $LN38@list_top_p
	mov	edx, DWORD PTR _localbase
	imul	esi, 224				; 000000e0H
	add	esi, DWORD PTR [edx]
	jmp	SHORT $LN37@list_top_p
$LN38@list_top_p:
	cmp	edi, 536870912				; 20000000H
	jne	SHORT $LN36@list_top_p
	mov	eax, DWORD PTR _web+5656
	mov	esi, DWORD PTR [eax+esi*4]
	jmp	SHORT $LN37@list_top_p
$LN36@list_top_p:
	lea	ecx, DWORD PTR [ecx+esi*4]
	mov	esi, DWORD PTR [ecx+edx]
$LN37@list_top_p:
	push	esi
	call	_list_procedure_proto
	mov	ecx, DWORD PTR _web+5652
	mov	edx, DWORD PTR _dymem
	add	esp, 4
$LN13@list_top_p:

; 1846 :   for ( i = 0 ; i < web.global_count ; i++ )

	inc	ebx
	mov	DWORD PTR _i$[ebp], ebx
	cmp	ebx, DWORD PTR _web+5540
	jl	$LL14@list_top_p

; 1861 :     }
; 1862 :   }
; 1863 :   if ( protoflag )

	cmp	DWORD PTR _protoflag$[ebp], 0
	je	$LN3@list_top_p

; 1864 :     outstring("// End prototypes\n\n");

	push	OFFSET ??_C@_0BE@FDCAEBHI@?1?1?5End?5prototypes?6?6?$AA@
	call	_outstring
	add	esp, 4
	pop	edi
	pop	esi
	pop	ebx

; 1876 :   }
; 1877 : 
; 1878 : } /* end list_top_procedures() */

	mov	esp, ebp
	pop	ebp
	ret	0
$LN64@list_top_p:

; 1865 : 
; 1866 :   if ( mode == LIST_PROTO )
; 1867 :     return;
; 1868 : 
; 1869 :   /* full function definitions */
; 1870 :   for ( i = 0 ; i < web.global_count ; i++ )

	cmp	DWORD PTR _web+5540, ebx
	jle	$LN3@list_top_p
	mov	ecx, DWORD PTR _web+5652
	mov	edx, DWORD PTR _dymem
$LL5@list_top_p:

; 1871 :   { int flags = globals(i)->flags;

	mov	edi, ebx
	and	edi, -16777216				; ff000000H
	cmp	edi, 268435456				; 10000000H
	je	SHORT $LN42@list_top_p
	cmp	edi, 805306368				; 30000000H
	jne	SHORT $LN44@list_top_p
	mov	esi, ebx
	mov	ebx, DWORD PTR _localbase
	and	esi, 16777215				; 00ffffffH
	mov	eax, esi
	imul	eax, 224				; 000000e0H
	add	eax, DWORD PTR [ebx]
	mov	ebx, DWORD PTR _i$[ebp]
	jmp	SHORT $LN43@list_top_p
$LN44@list_top_p:
	cmp	edi, 536870912				; 20000000H
	jne	SHORT $LN42@list_top_p
	mov	eax, DWORD PTR _web+5656
	mov	esi, ebx
	and	esi, 16777215				; 00ffffffH
	mov	eax, DWORD PTR [eax+esi*4]
	jmp	SHORT $LN43@list_top_p
$LN42@list_top_p:
	mov	esi, ebx
	and	esi, 16777215				; 00ffffffH
	lea	eax, DWORD PTR [ecx+esi*4]
	mov	eax, DWORD PTR [eax+edx]
$LN43@list_top_p:
	mov	eax, DWORD PTR [eax+192]
	mov	DWORD PTR _flags$90795[ebp], eax

; 1872 :     if ( (flags & FUNCTION_NAME) && (flags & IN_DATAFILE_TOP) ) 

	test	eax, 1048576				; 00100000H
	je	SHORT $LN2@list_top_p
	test	eax, 67108864				; 04000000H
	je	SHORT $LN2@list_top_p

; 1873 :         list_function(globals(i));

	cmp	edi, 268435456				; 10000000H
	je	SHORT $LN48@list_top_p
	cmp	edi, 805306368				; 30000000H
	jne	SHORT $LN50@list_top_p
	mov	edx, DWORD PTR _localbase
	mov	eax, esi
	imul	eax, 224				; 000000e0H
	add	eax, DWORD PTR [edx]
	jmp	SHORT $LN49@list_top_p
$LN50@list_top_p:
	cmp	edi, 536870912				; 20000000H
	jne	SHORT $LN48@list_top_p
	mov	eax, DWORD PTR _web+5656
	mov	eax, DWORD PTR [eax+esi*4]
	jmp	SHORT $LN49@list_top_p
$LN48@list_top_p:
	lea	ecx, DWORD PTR [ecx+esi*4]
	mov	eax, DWORD PTR [ecx+edx]
$LN49@list_top_p:
	push	eax
	call	_list_function
	mov	ecx, DWORD PTR _web+5652
	mov	edx, DWORD PTR _dymem
	mov	eax, DWORD PTR _flags$90795[ebp]
	add	esp, 4
$LN2@list_top_p:

; 1874 :     if ( (flags & PROCEDURE_NAME) && (flags & IN_DATAFILE_TOP) ) 

	test	eax, 2097152				; 00200000H
	je	SHORT $LN4@list_top_p
	test	eax, 67108864				; 04000000H
	je	SHORT $LN4@list_top_p

; 1875 :         list_procedure(globals(i));

	cmp	edi, 268435456				; 10000000H
	je	SHORT $LN54@list_top_p
	cmp	edi, 805306368				; 30000000H
	jne	SHORT $LN56@list_top_p
	mov	ecx, DWORD PTR _localbase
	imul	esi, 224				; 000000e0H
	add	esi, DWORD PTR [ecx]
	jmp	SHORT $LN55@list_top_p
$LN56@list_top_p:
	cmp	edi, 536870912				; 20000000H
	jne	SHORT $LN54@list_top_p
	mov	edx, DWORD PTR _web+5656
	mov	esi, DWORD PTR [edx+esi*4]
	jmp	SHORT $LN55@list_top_p
$LN54@list_top_p:
	lea	eax, DWORD PTR [ecx+esi*4]
	mov	esi, DWORD PTR [eax+edx]
$LN55@list_top_p:
	push	esi
	call	_list_procedure
	mov	ecx, DWORD PTR _web+5652
	mov	edx, DWORD PTR _dymem
	add	esp, 4
$LN4@list_top_p:

; 1865 : 
; 1866 :   if ( mode == LIST_PROTO )
; 1867 :     return;
; 1868 : 
; 1869 :   /* full function definitions */
; 1870 :   for ( i = 0 ; i < web.global_count ; i++ )

	inc	ebx
	mov	DWORD PTR _i$[ebp], ebx
	cmp	ebx, DWORD PTR _web+5540
	jl	$LL5@list_top_p
$LN3@list_top_p:
	pop	edi
	pop	esi
	pop	ebx

; 1876 :   }
; 1877 : 
; 1878 : } /* end list_top_procedures() */

	mov	esp, ebp
	pop	ebp
	ret	0
_list_top_procedures ENDP
_TEXT	ENDS
PUBLIC	??_C@_08CIJIHMDB@?$CFc?5?3?3?3?$DN?5?$AA@	; `string'
PUBLIC	??_C@_02HAOIJKIC@?$CFc?$AA@			; `string'
PUBLIC	??_C@_0CH@FOGKBOPG@?1?1?5Redefined?5single?5letter?5comma@ ; `string'
PUBLIC	??_C@_0DC@NOIDPIGC@?1?1?5Procedures?5and?5functions?5with@ ; `string'
PUBLIC	??_C@_0CC@LAGEPGII@?1?1?5Procedures?5without?5arguments?3@ ; `string'
PUBLIC	??_C@_0L@IHPPGLHE@?$CFs?5?3?3?$DN?5?$HL?$HN?6?$AA@ ; `string'
PUBLIC	??_C@_0CI@EKFPCIEJ@?1?1?5Permanent?5procedures?5and?5func@ ; `string'
PUBLIC	??_C@_09OKJHDHCE@?$CFs?5?3?$DN?5?$HL?$HN?6?$AA@	; `string'
PUBLIC	??_C@_0DC@LLLKONBK@?1?1Procedures?5and?5functions?5forwa@ ; `string'
PUBLIC	??_C@_0N@EMKEKBON@?$CFc?5?3?3?3?$DN?5?$HL?$HN?5?6?$AA@ ; `string'
PUBLIC	??_C@_0DM@HNPEFGEG@?1?1?5Redefined?5single?5letter?5comma@ ; `string'
PUBLIC	_list_procedures
EXTRN	_single_redefine:BYTE
;	COMDAT ??_C@_08CIJIHMDB@?$CFc?5?3?3?3?$DN?5?$AA@
CONST	SEGMENT
??_C@_08CIJIHMDB@?$CFc?5?3?3?3?$DN?5?$AA@ DB '%c :::= ', 00H ; `string'
CONST	ENDS
;	COMDAT ??_C@_02HAOIJKIC@?$CFc?$AA@
CONST	SEGMENT
??_C@_02HAOIJKIC@?$CFc?$AA@ DB '%c', 00H		; `string'
CONST	ENDS
;	COMDAT ??_C@_0CH@FOGKBOPG@?1?1?5Redefined?5single?5letter?5comma@
CONST	SEGMENT
??_C@_0CH@FOGKBOPG@?1?1?5Redefined?5single?5letter?5comma@ DB '// Redefin'
	DB	'ed single letter commands: ', 0aH, 00H	; `string'
CONST	ENDS
;	COMDAT ??_C@_0DC@NOIDPIGC@?1?1?5Procedures?5and?5functions?5with@
CONST	SEGMENT
??_C@_0DC@NOIDPIGC@?1?1?5Procedures?5and?5functions?5with@ DB '// Procedu'
	DB	'res and functions with argument lists:', 0aH, 00H ; `string'
CONST	ENDS
;	COMDAT ??_C@_0CC@LAGEPGII@?1?1?5Procedures?5without?5arguments?3@
CONST	SEGMENT
??_C@_0CC@LAGEPGII@?1?1?5Procedures?5without?5arguments?3@ DB '// Procedu'
	DB	'res without arguments:', 0aH, 00H		; `string'
CONST	ENDS
;	COMDAT ??_C@_0L@IHPPGLHE@?$CFs?5?3?3?$DN?5?$HL?$HN?6?$AA@
CONST	SEGMENT
??_C@_0L@IHPPGLHE@?$CFs?5?3?3?$DN?5?$HL?$HN?6?$AA@ DB '%s ::= {}', 0aH, 00H ; `string'
CONST	ENDS
;	COMDAT ??_C@_0CI@EKFPCIEJ@?1?1?5Permanent?5procedures?5and?5func@
CONST	SEGMENT
??_C@_0CI@EKFPCIEJ@?1?1?5Permanent?5procedures?5and?5func@ DB '// Permane'
	DB	'nt procedures and functions:', 0aH, 00H	; `string'
CONST	ENDS
;	COMDAT ??_C@_09OKJHDHCE@?$CFs?5?3?$DN?5?$HL?$HN?6?$AA@
CONST	SEGMENT
??_C@_09OKJHDHCE@?$CFs?5?3?$DN?5?$HL?$HN?6?$AA@ DB '%s := {}', 0aH, 00H ; `string'
CONST	ENDS
;	COMDAT ??_C@_0DC@LLLKONBK@?1?1Procedures?5and?5functions?5forwa@
CONST	SEGMENT
??_C@_0DC@LLLKONBK@?1?1Procedures?5and?5functions?5forwa@ DB '//Procedure'
	DB	's and functions forward declarations:', 0aH, 00H ; `string'
CONST	ENDS
;	COMDAT ??_C@_0N@EMKEKBON@?$CFc?5?3?3?3?$DN?5?$HL?$HN?5?6?$AA@
CONST	SEGMENT
??_C@_0N@EMKEKBON@?$CFc?5?3?3?3?$DN?5?$HL?$HN?5?6?$AA@ DB '%c :::= {} ', 0aH
	DB	00H						; `string'
CONST	ENDS
;	COMDAT ??_C@_0DM@HNPEFGEG@?1?1?5Redefined?5single?5letter?5comma@
CONST	SEGMENT
??_C@_0DM@HNPEFGEG@?1?1?5Redefined?5single?5letter?5comma@ DB '// Redefin'
	DB	'ed single letter commands forward declarations: ', 0aH, 00H ; `string'
; Function compile flags: /Ogtp
CONST	ENDS
;	COMDAT _list_procedures
_TEXT	SEGMENT
tv588 = -20						; size = 4
_redefheader$ = -16					; size = 4
_without_comment_flag$ = -16				; size = 4
_perm_comment_flag$ = -12				; size = 4
_witharg_comment_flag$ = -8				; size = 4
_i$ = -4						; size = 4
_forward_comment_flag$ = -4				; size = 4
_mode$ = 8						; size = 4
_list_procedures PROC					; COMDAT

; 1889 : { int i; 

	push	ebp
	mov	ebp, esp
	sub	esp, 20					; 00000014H
	push	ebx

; 1890 :   int perm_comment_flag = 0;

	xor	eax, eax
	push	esi

; 1891 :   int witharg_comment_flag = 0;
; 1892 :   int without_comment_flag = 0;
; 1893 :   int forward_comment_flag = 0;
; 1894 :   int redefheader;
; 1895 : 
; 1896 :   proc_timestamp++;

	mov	ecx, 1
	add	DWORD PTR _proc_timestamp, ecx
	push	edi

; 1897 : 
; 1898 :   /* redefined single letters dummy defs (i.e. forward decls) */
; 1899 :   redefheader = 0;

	xor	edi, edi
	mov	DWORD PTR _perm_comment_flag$[ebp], eax
	mov	DWORD PTR _witharg_comment_flag$[ebp], eax
	mov	DWORD PTR _without_comment_flag$[ebp], eax
	mov	DWORD PTR _forward_comment_flag$[ebp], eax

; 1900 :   if ( mode != LIST_PROTO )

	cmp	DWORD PTR _mode$[ebp], ecx
	je	$LN137@list_proce@3

; 1901 :    for ( i = 0 ; i < 128 ; i++ )

	xor	ebx, ebx
	mov	esi, OFFSET _single_redefine
	jmp	SHORT $LN51@list_proce@3
$LL147@list_proce@3:
	xor	eax, eax
$LN51@list_proce@3:

; 1902 :      if ( single_redefine[i].start )

	cmp	DWORD PTR [esi], eax
	je	SHORT $LN50@list_proce@3

; 1903 :      { 
; 1904 :         if ( !redefheader )

	cmp	edi, eax
	jne	SHORT $LN47@list_proce@3

; 1905 :         { outstring("// Redefined single letter commands forward declarations: \n");

	push	OFFSET ??_C@_0DM@HNPEFGEG@?1?1?5Redefined?5single?5letter?5comma@
	call	_outstring
	add	esp, 4

; 1906 :           redefheader = 1;

	mov	edi, 1
$LN47@list_proce@3:

; 1907 :         }
; 1908 :         sprintf(msg,"%c :::= {} \n",i);

	mov	eax, DWORD PTR _msg
	push	ebx
	push	OFFSET ??_C@_0N@EMKEKBON@?$CFc?5?3?3?3?$DN?5?$HL?$HN?5?6?$AA@
	push	eax
	call	_sprintf

; 1909 :         outstring(msg);

	mov	ecx, DWORD PTR _msg
	push	ecx
	call	_outstring
	add	esp, 16					; 00000010H
$LN50@list_proce@3:

; 1901 :    for ( i = 0 ; i < 128 ; i++ )

	add	esi, 104				; 00000068H
	inc	ebx
	cmp	esi, OFFSET _single_redefine+13312
	jl	SHORT $LL147@list_proce@3

; 1910 :      }
; 1911 : 
; 1912 : 
; 1913 :   if ( mode != LIST_PROTO )
; 1914 :   { 
; 1915 :     /* function definition forward decls */
; 1916 :     for ( i = 0 ; i < web.global_count ; i++ )

	mov	ecx, DWORD PTR _web+5652
	mov	edx, DWORD PTR _dymem
	xor	edi, edi
	cmp	DWORD PTR _web+5540, edi
	jle	$LN43@list_proce@3
	npad	8
$LL45@list_proce@3:

; 1917 :     { if ( globals(i)->flags & SUBROUTINE ) 

	mov	ebx, edi
	and	ebx, -16777216				; ff000000H
	mov	DWORD PTR tv588[ebp], ebx
	cmp	ebx, 268435456				; 10000000H
	je	SHORT $LN55@list_proce@3
	cmp	ebx, 805306368				; 30000000H
	jne	SHORT $LN57@list_proce@3
	mov	ebx, DWORD PTR _localbase
	mov	esi, edi
	and	esi, 16777215				; 00ffffffH
	mov	eax, esi
	imul	eax, 224				; 000000e0H
	add	eax, DWORD PTR [ebx]
	mov	ebx, DWORD PTR tv588[ebp]
	jmp	SHORT $LN56@list_proce@3
$LN57@list_proce@3:
	cmp	ebx, 536870912				; 20000000H
	jne	SHORT $LN55@list_proce@3
	mov	eax, DWORD PTR _web+5656
	mov	esi, edi
	and	esi, 16777215				; 00ffffffH
	mov	eax, DWORD PTR [eax+esi*4]
	jmp	SHORT $LN56@list_proce@3
$LN55@list_proce@3:
	mov	esi, edi
	and	esi, 16777215				; 00ffffffH
	lea	eax, DWORD PTR [ecx+esi*4]
	mov	eax, DWORD PTR [eax+edx]
$LN56@list_proce@3:
	test	BYTE PTR [eax+192], 4
	je	$LN44@list_proce@3

; 1918 :       { 
; 1919 :         if ( !forward_comment_flag )

	cmp	DWORD PTR _forward_comment_flag$[ebp], 0
	jne	SHORT $LN41@list_proce@3

; 1920 :         { outstring("//Procedures and functions forward declarations:\n");

	push	OFFSET ??_C@_0DC@LLLKONBK@?1?1Procedures?5and?5functions?5forwa@
	call	_outstring

; 1921 :           forward_comment_flag = 1;

	mov	ecx, DWORD PTR _web+5652
	mov	edx, DWORD PTR _dymem
	add	esp, 4
	mov	DWORD PTR _forward_comment_flag$[ebp], 1
$LN41@list_proce@3:

; 1922 :         }
; 1923 :         sprintf(msg,"%s := {}\n",globals(i)->name);

	cmp	ebx, 268435456				; 10000000H
	je	SHORT $LN61@list_proce@3
	cmp	ebx, 805306368				; 30000000H
	jne	SHORT $LN63@list_proce@3
	mov	edx, DWORD PTR _localbase
	imul	esi, 224				; 000000e0H
	add	esi, DWORD PTR [edx]
	mov	edx, esi
	jmp	SHORT $LN62@list_proce@3
$LN63@list_proce@3:
	cmp	ebx, 536870912				; 20000000H
	jne	SHORT $LN61@list_proce@3
	mov	eax, DWORD PTR _web+5656
	mov	edx, DWORD PTR [eax+esi*4]
	jmp	SHORT $LN62@list_proce@3
$LN61@list_proce@3:
	lea	ecx, DWORD PTR [ecx+esi*4]
	mov	edx, DWORD PTR [ecx+edx]
$LN62@list_proce@3:
	push	edx
	mov	edx, DWORD PTR _msg
	push	OFFSET ??_C@_09OKJHDHCE@?$CFs?5?3?$DN?5?$HL?$HN?6?$AA@
	push	edx
	call	_sprintf

; 1924 :         outstring(msg);

	mov	eax, DWORD PTR _msg
	push	eax
	call	_outstring
	mov	ecx, DWORD PTR _web+5652
	mov	edx, DWORD PTR _dymem
	add	esp, 16					; 00000010H
$LN44@list_proce@3:

; 1910 :      }
; 1911 : 
; 1912 : 
; 1913 :   if ( mode != LIST_PROTO )
; 1914 :   { 
; 1915 :     /* function definition forward decls */
; 1916 :     for ( i = 0 ; i < web.global_count ; i++ )

	inc	edi
	cmp	edi, DWORD PTR _web+5540
	jl	$LL45@list_proce@3
$LN43@list_proce@3:

; 1925 :       }
; 1926 :      
; 1927 :     }
; 1928 :   
; 1929 :     for ( i = 0 ; i < web.perm_global_count ; i++ )

	xor	edi, edi
	cmp	DWORD PTR _web+5548, edi
	jle	SHORT $LN38@list_proce@3
$LL148@list_proce@3:

; 1930 :     { if ( perm_globals(i)->flags & SUBROUTINE ) 

	mov	ecx, DWORD PTR _web+5656
	mov	esi, edi
	and	esi, 16777215				; 00ffffffH
	add	esi, esi
	add	esi, esi
	mov	edx, DWORD PTR [esi+ecx]
	test	BYTE PTR [edx+192], 4
	je	SHORT $LN39@list_proce@3

; 1931 :       { if ( !perm_comment_flag )

	cmp	DWORD PTR _perm_comment_flag$[ebp], 0
	jne	SHORT $LN36@list_proce@3

; 1932 :         { outstring("// Permanent procedures and functions:\n");

	push	OFFSET ??_C@_0CI@EKFPCIEJ@?1?1?5Permanent?5procedures?5and?5func@
	call	_outstring
	add	esp, 4

; 1933 :           perm_comment_flag = 1;

	mov	DWORD PTR _perm_comment_flag$[ebp], 1
$LN36@list_proce@3:

; 1934 :         }
; 1935 :         sprintf(msg,"%s ::= {}\n",perm_globals(i)->name);

	mov	eax, DWORD PTR _web+5656
	mov	ecx, DWORD PTR [esi+eax]
	mov	edx, DWORD PTR _msg
	push	ecx
	push	OFFSET ??_C@_0L@IHPPGLHE@?$CFs?5?3?3?$DN?5?$HL?$HN?6?$AA@
	push	edx
	call	_sprintf

; 1936 :         outstring(msg);

	mov	eax, DWORD PTR _msg
	push	eax
	call	_outstring
	add	esp, 16					; 00000010H
$LN39@list_proce@3:

; 1925 :       }
; 1926 :      
; 1927 :     }
; 1928 :   
; 1929 :     for ( i = 0 ; i < web.perm_global_count ; i++ )

	inc	edi
	cmp	edi, DWORD PTR _web+5548
	jl	SHORT $LL148@list_proce@3
$LN137@list_proce@3:
	mov	edx, DWORD PTR _dymem
	mov	ecx, DWORD PTR _web+5652
$LN38@list_proce@3:

; 1937 :       }
; 1938 :     }
; 1939 :   }
; 1940 : 
; 1941 :   /* full function definitions */
; 1942 :    for ( i = 0 ; i < web.global_count ; i++ )

	xor	ebx, ebx
	mov	DWORD PTR _i$[ebp], ebx
	cmp	DWORD PTR _web+5540, ebx
	jle	$LN33@list_proce@3
	npad	10
$LL35@list_proce@3:

; 1943 :   { if ( globals(i)->flags & SUBROUTINE ) 

	mov	edi, ebx
	and	edi, -16777216				; ff000000H
	cmp	edi, 268435456				; 10000000H
	je	SHORT $LN67@list_proce@3
	cmp	edi, 805306368				; 30000000H
	jne	SHORT $LN69@list_proce@3
	mov	esi, ebx
	mov	ebx, DWORD PTR _localbase
	and	esi, 16777215				; 00ffffffH
	mov	eax, esi
	imul	eax, 224				; 000000e0H
	add	eax, DWORD PTR [ebx]
	mov	ebx, DWORD PTR _i$[ebp]
	jmp	SHORT $LN68@list_proce@3
$LN69@list_proce@3:
	cmp	edi, 536870912				; 20000000H
	jne	SHORT $LN67@list_proce@3
	mov	eax, DWORD PTR _web+5656
	mov	esi, ebx
	and	esi, 16777215				; 00ffffffH
	mov	eax, DWORD PTR [eax+esi*4]
	jmp	SHORT $LN68@list_proce@3
$LN67@list_proce@3:
	mov	esi, ebx
	and	esi, 16777215				; 00ffffffH
	lea	eax, DWORD PTR [ecx+esi*4]
	mov	eax, DWORD PTR [eax+edx]
$LN68@list_proce@3:
	test	BYTE PTR [eax+192], 4
	je	$LN34@list_proce@3

; 1944 :       if ( globals(i)->attr.procstuff.proc_timestamp < proc_timestamp )

	cmp	edi, 268435456				; 10000000H
	je	SHORT $LN73@list_proce@3
	cmp	edi, 805306368				; 30000000H
	jne	SHORT $LN75@list_proce@3
	mov	ebx, DWORD PTR _localbase
	mov	eax, esi
	imul	eax, 224				; 000000e0H
	add	eax, DWORD PTR [ebx]
	jmp	SHORT $LN74@list_proce@3
$LN75@list_proce@3:
	cmp	edi, 536870912				; 20000000H
	jne	SHORT $LN73@list_proce@3
	mov	eax, DWORD PTR _web+5656
	mov	eax, DWORD PTR [eax+esi*4]
	jmp	SHORT $LN74@list_proce@3
$LN73@list_proce@3:
	lea	eax, DWORD PTR [ecx+esi*4]
	mov	eax, DWORD PTR [eax+edx]
$LN74@list_proce@3:
	mov	eax, DWORD PTR [eax+176]
	cmp	eax, DWORD PTR _proc_timestamp
	jge	$LN139@list_proce@3

; 1945 :         { 
; 1946 :           if ( !without_comment_flag )

	cmp	DWORD PTR _without_comment_flag$[ebp], 0
	jne	SHORT $LN138@list_proce@3

; 1947 :           { outstring("// Procedures without arguments:\n");

	push	OFFSET ??_C@_0CC@LAGEPGII@?1?1?5Procedures?5without?5arguments?3@
	call	_outstring

; 1948 :             without_comment_flag = 1;

	mov	ecx, DWORD PTR _web+5652
	mov	edx, DWORD PTR _dymem
	add	esp, 4
	mov	DWORD PTR _without_comment_flag$[ebp], 1
$LN138@list_proce@3:

; 1949 :           }
; 1950 :           if ( mode == LIST_PROTO )

	cmp	DWORD PTR _mode$[ebp], 1
	jne	SHORT $LN29@list_proce@3

; 1951 :             list_procedure_proto(globals(i)); 

	cmp	edi, 268435456				; 10000000H
	je	SHORT $LN79@list_proce@3
	cmp	edi, 805306368				; 30000000H
	jne	SHORT $LN81@list_proce@3
	mov	edx, DWORD PTR _localbase
	imul	esi, 224				; 000000e0H
	add	esi, DWORD PTR [edx]
	mov	edx, esi
	push	edx
	call	_list_procedure_proto
	add	esp, 4

; 1952 :           else

	jmp	SHORT $LN152@list_proce@3
$LN81@list_proce@3:

; 1951 :             list_procedure_proto(globals(i)); 

	cmp	edi, 536870912				; 20000000H
	jne	SHORT $LN79@list_proce@3
	mov	eax, DWORD PTR _web+5656
	mov	edx, DWORD PTR [eax+esi*4]
	push	edx
	call	_list_procedure_proto
	add	esp, 4

; 1952 :           else

	jmp	SHORT $LN152@list_proce@3
$LN79@list_proce@3:

; 1951 :             list_procedure_proto(globals(i)); 

	lea	ecx, DWORD PTR [ecx+esi*4]
	mov	edx, DWORD PTR [ecx+edx]
	push	edx
	call	_list_procedure_proto
	add	esp, 4

; 1952 :           else

	jmp	SHORT $LN152@list_proce@3
$LN29@list_proce@3:

; 1953 :              list_proc(globals(i),0);

	cmp	edi, 268435456				; 10000000H
	je	SHORT $LN85@list_proce@3
	cmp	edi, 805306368				; 30000000H
	jne	SHORT $LN87@list_proce@3
	mov	ecx, DWORD PTR _localbase
	imul	esi, 224				; 000000e0H
	add	esi, DWORD PTR [ecx]
	mov	edx, esi
	jmp	SHORT $LN86@list_proce@3
$LN87@list_proce@3:
	cmp	edi, 536870912				; 20000000H
	jne	SHORT $LN85@list_proce@3
	mov	edx, DWORD PTR _web+5656
	mov	edx, DWORD PTR [edx+esi*4]
	jmp	SHORT $LN86@list_proce@3
$LN85@list_proce@3:
	lea	eax, DWORD PTR [ecx+esi*4]
	mov	edx, DWORD PTR [eax+edx]
$LN86@list_proce@3:
	push	0
	push	edx
	call	_list_proc
	add	esp, 8
$LN152@list_proce@3:
	mov	edx, DWORD PTR _dymem
	mov	ecx, DWORD PTR _web+5652
$LN139@list_proce@3:

; 1952 :           else

	mov	ebx, DWORD PTR _i$[ebp]
$LN34@list_proce@3:

; 1937 :       }
; 1938 :     }
; 1939 :   }
; 1940 : 
; 1941 :   /* full function definitions */
; 1942 :    for ( i = 0 ; i < web.global_count ; i++ )

	inc	ebx
	mov	DWORD PTR _i$[ebp], ebx
	cmp	ebx, DWORD PTR _web+5540
	jl	$LL35@list_proce@3
$LN33@list_proce@3:

; 1954 :         }
; 1955 :   }
; 1956 : 
; 1957 :   for ( i = 0 ; i < web.perm_global_count ; i++ )

	xor	edi, edi
	cmp	DWORD PTR _web+5548, edi
	jle	SHORT $LN141@list_proce@3
	mov	ebx, DWORD PTR _perm_comment_flag$[ebp]
	npad	5
$LL149@list_proce@3:

; 1958 :   { if ( perm_globals(i)->flags & SUBROUTINE ) 

	mov	ecx, DWORD PTR _web+5656
	mov	esi, edi
	and	esi, 16777215				; 00ffffffH
	add	esi, esi
	add	esi, esi
	mov	edx, DWORD PTR [esi+ecx]
	test	BYTE PTR [edx+192], 4
	je	SHORT $LN26@list_proce@3

; 1959 :     { if ( !perm_comment_flag )

	test	ebx, ebx
	jne	SHORT $LN23@list_proce@3

; 1960 :       { outstring("// Permanent procedures and functions:\n");

	push	OFFSET ??_C@_0CI@EKFPCIEJ@?1?1?5Permanent?5procedures?5and?5func@
	call	_outstring
	add	esp, 4

; 1961 :         perm_comment_flag = 1;

	mov	ebx, 1
$LN23@list_proce@3:

; 1962 :       }
; 1963 :       if ( mode == LIST_PROTO )

	cmp	DWORD PTR _mode$[ebp], 1
	jne	SHORT $LN22@list_proce@3

; 1964 :         list_procedure_proto(perm_globals(i));

	mov	eax, DWORD PTR _web+5656
	mov	ecx, DWORD PTR [esi+eax]
	push	ecx
	call	_list_procedure_proto
	add	esp, 4

; 1965 :       else 

	jmp	SHORT $LN26@list_proce@3
$LN22@list_proce@3:

; 1966 :         list_proc(perm_globals(i),0);

	mov	edx, DWORD PTR _web+5656
	mov	eax, DWORD PTR [esi+edx]
	push	0
	push	eax
	call	_list_proc
	add	esp, 8
$LN26@list_proce@3:

; 1954 :         }
; 1955 :   }
; 1956 : 
; 1957 :   for ( i = 0 ; i < web.perm_global_count ; i++ )

	inc	edi
	cmp	edi, DWORD PTR _web+5548
	jl	SHORT $LL149@list_proce@3
	mov	ecx, DWORD PTR _web+5652
	mov	edx, DWORD PTR _dymem
$LN141@list_proce@3:

; 1967 :     }
; 1968 :   }
; 1969 : 
; 1970 :   /* full function definitions */
; 1971 :   for ( i = 0 ; i < web.global_count ; i++ )

	xor	esi, esi
	mov	DWORD PTR _i$[ebp], esi
	cmp	DWORD PTR _web+5540, esi
	jle	$LN18@list_proce@3
	jmp	SHORT $LN20@list_proce@3
	npad	7
$LL145@list_proce@3:
	mov	esi, DWORD PTR _i$[ebp]
$LN20@list_proce@3:

; 1972 :   { int flags = globals(i)->flags; 

	mov	edi, esi
	and	edi, -16777216				; ff000000H
	cmp	edi, 268435456				; 10000000H
	je	SHORT $LN91@list_proce@3
	cmp	edi, 805306368				; 30000000H
	jne	SHORT $LN93@list_proce@3
	mov	ebx, DWORD PTR _localbase
	and	esi, 16777215				; 00ffffffH
	mov	eax, esi
	imul	eax, 224				; 000000e0H
	add	eax, DWORD PTR [ebx]
	jmp	SHORT $LN92@list_proce@3
$LN93@list_proce@3:
	cmp	edi, 536870912				; 20000000H
	jne	SHORT $LN91@list_proce@3
	mov	eax, DWORD PTR _web+5656
	and	esi, 16777215				; 00ffffffH
	mov	eax, DWORD PTR [eax+esi*4]
	jmp	SHORT $LN92@list_proce@3
$LN91@list_proce@3:
	and	esi, 16777215				; 00ffffffH
	lea	eax, DWORD PTR [ecx+esi*4]
	mov	eax, DWORD PTR [eax+edx]
$LN92@list_proce@3:
	mov	ebx, DWORD PTR [eax+192]

; 1973 :     if ( (flags & FUNCTION_NAME) && !(flags & IN_DATAFILE_TOP) ) 

	test	ebx, 1048576				; 00100000H
	je	$LN144@list_proce@3
	test	ebx, 67108864				; 04000000H
	jne	$LN144@list_proce@3

; 1974 :     { 
; 1975 :       if ( !witharg_comment_flag )

	cmp	DWORD PTR _witharg_comment_flag$[ebp], 0
	jne	SHORT $LN143@list_proce@3

; 1976 :       { outstring("// Procedures and functions with argument lists:\n");

	push	OFFSET ??_C@_0DC@NOIDPIGC@?1?1?5Procedures?5and?5functions?5with@
	call	_outstring

; 1977 :         witharg_comment_flag = 1;

	mov	ecx, DWORD PTR _web+5652
	mov	edx, DWORD PTR _dymem
	add	esp, 4
	mov	DWORD PTR _witharg_comment_flag$[ebp], 1
$LN143@list_proce@3:

; 1978 :       }
; 1979 :       if ( mode == LIST_PROTO )

	cmp	DWORD PTR _mode$[ebp], 1
	jne	SHORT $LN15@list_proce@3

; 1980 :         list_function_proto(globals(i));

	cmp	edi, 268435456				; 10000000H
	je	SHORT $LN97@list_proce@3
	cmp	edi, 805306368				; 30000000H
	jne	SHORT $LN99@list_proce@3
	mov	edx, DWORD PTR _localbase
	mov	eax, esi
	imul	eax, 224				; 000000e0H
	add	eax, DWORD PTR [edx]
	push	eax
	call	_list_function_proto

; 1981 :       else 

	jmp	SHORT $LN150@list_proce@3
$LN99@list_proce@3:

; 1980 :         list_function_proto(globals(i));

	cmp	edi, 536870912				; 20000000H
	jne	SHORT $LN97@list_proce@3
	mov	eax, DWORD PTR _web+5656
	mov	eax, DWORD PTR [eax+esi*4]
	push	eax
	call	_list_function_proto

; 1981 :       else 

	jmp	SHORT $LN150@list_proce@3
$LN97@list_proce@3:

; 1980 :         list_function_proto(globals(i));

	lea	ecx, DWORD PTR [ecx+esi*4]
	mov	eax, DWORD PTR [ecx+edx]
	push	eax
	call	_list_function_proto

; 1981 :       else 

	jmp	SHORT $LN150@list_proce@3
$LN15@list_proce@3:

; 1982 :         list_function(globals(i));

	cmp	edi, 268435456				; 10000000H
	je	SHORT $LN103@list_proce@3
	cmp	edi, 805306368				; 30000000H
	jne	SHORT $LN105@list_proce@3
	mov	ecx, DWORD PTR _localbase
	mov	eax, esi
	imul	eax, 224				; 000000e0H
	add	eax, DWORD PTR [ecx]
	jmp	SHORT $LN104@list_proce@3
$LN105@list_proce@3:
	cmp	edi, 536870912				; 20000000H
	jne	SHORT $LN103@list_proce@3
	mov	edx, DWORD PTR _web+5656
	mov	eax, DWORD PTR [edx+esi*4]
	jmp	SHORT $LN104@list_proce@3
$LN103@list_proce@3:
	lea	eax, DWORD PTR [ecx+esi*4]
	mov	eax, DWORD PTR [eax+edx]
$LN104@list_proce@3:
	push	eax
	call	_list_function
$LN150@list_proce@3:
	mov	edx, DWORD PTR _dymem
	mov	ecx, DWORD PTR _web+5652
	add	esp, 4
$LN144@list_proce@3:

; 1983 :     }
; 1984 :     if ( (flags & PROCEDURE_NAME) && !(flags & IN_DATAFILE_TOP) ) 

	test	ebx, 2097152				; 00200000H
	je	$LN19@list_proce@3
	test	ebx, 67108864				; 04000000H
	jne	$LN19@list_proce@3

; 1985 :     { 
; 1986 :       if ( !witharg_comment_flag )

	cmp	DWORD PTR _witharg_comment_flag$[ebp], 0
	jne	SHORT $LN12@list_proce@3

; 1987 :       { outstring("// Procedures and functions with argument lists:\n");

	push	OFFSET ??_C@_0DC@NOIDPIGC@?1?1?5Procedures?5and?5functions?5with@
	call	_outstring

; 1988 :         witharg_comment_flag = 1;

	mov	ecx, DWORD PTR _web+5652
	mov	edx, DWORD PTR _dymem
	add	esp, 4
	mov	DWORD PTR _witharg_comment_flag$[ebp], 1
$LN12@list_proce@3:

; 1989 :       }
; 1990 :       if ( mode == LIST_PROTO )

	cmp	DWORD PTR _mode$[ebp], 1
	jne	SHORT $LN11@list_proce@3

; 1991 :         list_procedure_proto(globals(i));

	cmp	edi, 268435456				; 10000000H
	je	SHORT $LN109@list_proce@3
	cmp	edi, 805306368				; 30000000H
	jne	SHORT $LN111@list_proce@3
	mov	edx, DWORD PTR _localbase
	imul	esi, 224				; 000000e0H
	add	esi, DWORD PTR [edx]
	mov	edx, esi
	push	edx
	call	_list_procedure_proto

; 1992 :       else 

	jmp	SHORT $LN151@list_proce@3
$LN111@list_proce@3:

; 1991 :         list_procedure_proto(globals(i));

	cmp	edi, 536870912				; 20000000H
	jne	SHORT $LN109@list_proce@3
	mov	eax, DWORD PTR _web+5656
	mov	edx, DWORD PTR [eax+esi*4]
	push	edx
	call	_list_procedure_proto

; 1992 :       else 

	jmp	SHORT $LN151@list_proce@3
$LN109@list_proce@3:

; 1991 :         list_procedure_proto(globals(i));

	lea	ecx, DWORD PTR [ecx+esi*4]
	mov	edx, DWORD PTR [ecx+edx]
	push	edx
	call	_list_procedure_proto

; 1992 :       else 

	jmp	SHORT $LN151@list_proce@3
$LN11@list_proce@3:

; 1993 :         list_procedure(globals(i));

	cmp	edi, 268435456				; 10000000H
	je	SHORT $LN115@list_proce@3
	cmp	edi, 805306368				; 30000000H
	jne	SHORT $LN117@list_proce@3
	mov	ecx, DWORD PTR _localbase
	imul	esi, 224				; 000000e0H
	add	esi, DWORD PTR [ecx]
	mov	edx, esi
	jmp	SHORT $LN116@list_proce@3
$LN117@list_proce@3:
	cmp	edi, 536870912				; 20000000H
	jne	SHORT $LN115@list_proce@3
	mov	edx, DWORD PTR _web+5656
	mov	edx, DWORD PTR [edx+esi*4]
	jmp	SHORT $LN116@list_proce@3
$LN115@list_proce@3:
	lea	eax, DWORD PTR [ecx+esi*4]
	mov	edx, DWORD PTR [eax+edx]
$LN116@list_proce@3:
	push	edx
	call	_list_procedure
$LN151@list_proce@3:
	mov	edx, DWORD PTR _dymem
	mov	ecx, DWORD PTR _web+5652
	add	esp, 4
$LN19@list_proce@3:

; 1967 :     }
; 1968 :   }
; 1969 : 
; 1970 :   /* full function definitions */
; 1971 :   for ( i = 0 ; i < web.global_count ; i++ )

	mov	eax, DWORD PTR _i$[ebp]
	inc	eax
	mov	DWORD PTR _i$[ebp], eax
	cmp	eax, DWORD PTR _web+5540
	jl	$LL145@list_proce@3
$LN18@list_proce@3:

; 1994 :     }
; 1995 :   }
; 1996 : 
; 1997 :   /* redefined single letters */
; 1998 :   redefheader = 0;

	xor	ebx, ebx
	mov	DWORD PTR _redefheader$[ebp], ebx
	mov	esi, OFFSET _single_redefine+4
	npad	2
$LL146@list_proce@3:

; 2000 :      if ( single_redefine[i].start )

	cmp	DWORD PTR [esi-4], 0
	lea	edi, DWORD PTR [esi-4]
	je	$LN8@list_proce@3

; 2001 :      { 
; 2002 :         if ( !redefheader )

	cmp	DWORD PTR _redefheader$[ebp], 0
	jne	SHORT $LN5@list_proce@3

; 2003 :         { outstring("// Redefined single letter commands: \n");

	push	OFFSET ??_C@_0CH@FOGKBOPG@?1?1?5Redefined?5single?5letter?5comma@
	call	_outstring
	add	esp, 4

; 2004 :           redefheader = 1;

	mov	DWORD PTR _redefheader$[ebp], 1
$LN5@list_proce@3:

; 2005 :         }
; 2006 :         if ( mode == LIST_PROTO )

	cmp	DWORD PTR _mode$[ebp], 1

; 2007 :         { sprintf(msg,"%c",i);

	push	ebx
	jne	SHORT $LN4@list_proce@3
	mov	ecx, DWORD PTR _msg
	push	OFFSET ??_C@_02HAOIJKIC@?$CFc?$AA@
	push	ecx
	call	_sprintf

; 2008 :           outstring(msg);

	mov	edx, DWORD PTR _msg
	push	edx
	call	_outstring
	add	esp, 16					; 00000010H

; 2009 :         }
; 2010 :         else

	jmp	SHORT $LN1@list_proce@3
$LN4@list_proce@3:

; 2011 :         { sprintf(msg,"%c :::= ",i);

	mov	eax, DWORD PTR _msg
	push	OFFSET ??_C@_08CIJIHMDB@?$CFc?5?3?3?3?$DN?5?$AA@
	push	eax
	call	_sprintf

; 2012 :           outstring(msg);

	mov	ecx, DWORD PTR _msg
	push	ecx
	call	_outstring

; 2013 :           if ( single_redefine[i].root->type != COMMAND_BLOCK_NODE )

	mov	edx, DWORD PTR [esi]
	add	esp, 16					; 00000010H
	cmp	DWORD PTR [edx], 10029			; 0000272dH
	je	SHORT $LN2@list_proce@3

; 2014 :             outstring("{"); 

	push	OFFSET ??_C@_01HCONENDN@?$HL?$AA@
	call	_outstring
	add	esp, 4
$LN2@list_proce@3:

; 2015 :           outstring(print_express(&single_redefine[i],'X'));

	push	88					; 00000058H
	push	edi
	call	_print_express
	push	eax
	call	_outstring

; 2016 :           if ( single_redefine[i].root->type != COMMAND_BLOCK_NODE )

	mov	eax, DWORD PTR [esi]
	add	esp, 12					; 0000000cH
	cmp	DWORD PTR [eax], 10029			; 0000272dH
	je	SHORT $LN1@list_proce@3

; 2017 :             outstring("}"); 

	push	OFFSET ??_C@_01CELHOKLL@?$HN?$AA@
	call	_outstring
	add	esp, 4
$LN1@list_proce@3:

; 2018 :         }
; 2019 :         outstring("\n");

	push	OFFSET ??_C@_01EEMJAFIK@?6?$AA@
	call	_outstring
	add	esp, 4
$LN8@list_proce@3:

; 1999 :   for ( i = 0 ; i < 128 ; i++ )

	add	esi, 104				; 00000068H
	inc	ebx
	cmp	esi, OFFSET _single_redefine+13316
	jl	$LL146@list_proce@3
	pop	edi
	pop	esi
	pop	ebx

; 2020 :      }
; 2021 : } /* end list_procedures() */

	mov	esp, ebp
	pop	ebp
	ret	0
_list_procedures ENDP
_TEXT	ENDS
PUBLIC	??_C@_0BG@INDPJLAD@brightness?5?3?$DN?5?$CF2?415g?6?$AA@ ; `string'
PUBLIC	__real@3fe4cccccccccccd
PUBLIC	??_C@_0BM@OJBOKPEJ@target_tolerance?5?3?$DN?5?$CF2?415g?6?$AA@ ; `string'
PUBLIC	??_C@_0L@DLCCMBJF@transforms?$AA@		; `string'
PUBLIC	??_C@_0BF@GKKNLENB@transform_expr?5?$CC?$CFs?$CC?6?$AA@ ; `string'
PUBLIC	??_C@_0BN@PKOEDJIO@linear_metric_mix?5?3?$DN?5?$CF2?415g?6?$AA@ ; `string'
PUBLIC	??_C@_0O@PLHGPNIO@linear_metric?$AA@		; `string'
PUBLIC	??_C@_07GFBFDLBM@gravity?$AA@			; `string'
PUBLIC	??_C@_0BC@KPHKHJOD@interp_bdry_param?$AA@	; `string'
PUBLIC	??_C@_0N@FFMNCIGF@self_similar?$AA@		; `string'
PUBLIC	??_C@_09BPDDPHCA@gv_binary?$AA@			; `string'
PUBLIC	??_C@_0O@MHBOMMFK@force_pos_def?$AA@		; `string'
PUBLIC	??_C@_0L@MABNKBMJ@autorecalc?$AA@		; `string'
PUBLIC	??_C@_0BC@LJJGFBGD@metric_conversion?$AA@	; `string'
PUBLIC	??_C@_07BCIELMPF@pinning?$AA@			; `string'
PUBLIC	??_C@_0O@PKIOMPCC@normal_motion?$AA@		; `string'
PUBLIC	??_C@_0BD@MOPCCJLG@boundary_curvature?$AA@	; `string'
PUBLIC	??_C@_0N@BNMHNAMC@facet_colors?$AA@		; `string'
PUBLIC	??_C@_07IBJKBKNG@shading?$AA@			; `string'
PUBLIC	??_C@_0BF@KHPBBAHH@div_normal_curvature?$AA@	; `string'
PUBLIC	??_C@_0BB@ODBHHAP@normal_curvature?$AA@		; `string'
PUBLIC	??_C@_0BI@KGGFDDEC@mean_curvature_integral?$AA@	; `string'
PUBLIC	??_C@_0N@NFINOFHM@post_project?$AA@		; `string'
PUBLIC	??_C@_0BG@GAEGJDMI@hessian_double_normal?$AA@	; `string'
PUBLIC	??_C@_0BD@HMMIFHMP@hessian_normal_one?$AA@	; `string'
PUBLIC	??_C@_0BE@IEAFMCH@hessian_normal_perp?$AA@	; `string'
PUBLIC	??_C@_0P@BMDMDICD@hessian_normal?$AA@		; `string'
PUBLIC	??_C@_0N@PBIFKJMI@hessian_diff?$AA@		; `string'
PUBLIC	??_C@_0N@DFPINMIP@smooth_graph?$AA@		; `string'
PUBLIC	??_C@_0BA@MDFPOHGI@ps_crossingflag?$AA@		; `string'
PUBLIC	??_C@_0N@ECHDFDIC@ps_labelflag?$AA@		; `string'
PUBLIC	??_C@_0M@LOFHKFBI@ps_cmykflag?$AA@		; `string'
PUBLIC	??_C@_0N@PDJMPNAK@ps_colorflag?$AA@		; `string'
PUBLIC	??_C@_0M@CAFGBCMP@pop_to_edge?$AA@		; `string'
PUBLIC	??_C@_0M@FHCBDAPB@pop_to_face?$AA@		; `string'
PUBLIC	??_C@_0L@NBNMFCPF@pop_enjoin?$AA@		; `string'
PUBLIC	??_C@_0M@PDGIDHIC@pop_disjoin?$AA@		; `string'
PUBLIC	??_C@_0N@IAKIABKB@sobolev_mode?$AA@		; `string'
PUBLIC	??_C@_0P@DEKALNNI@dirichlet_mode?$AA@		; `string'
PUBLIC	??_C@_0BD@CMGJLAKL@colorfile?5?3?$DN?5?$CC?$CFs?$CC?6?$AA@ ; `string'
PUBLIC	??_C@_08OMBDDLKJ@colormap?$AA@			; `string'
PUBLIC	??_C@_0L@LOICIGID@show_outer?$AA@		; `string'
PUBLIC	??_C@_0L@EAEPHEPG@show_inner?$AA@		; `string'
PUBLIC	??_C@_07KCLCNBJB@thicken?$AA@			; `string'
PUBLIC	??_C@_07HKDEBIPG@clipped?$AA@			; `string'
PUBLIC	??_C@_09JGOMOAGJ@connected?$AA@			; `string'
PUBLIC	??_C@_0P@OMMOBLOA@effective_area?$AA@		; `string'
PUBLIC	??_C@_09MFCEMNNF@conf_edge?$AA@			; `string'
PUBLIC	??_C@_0BD@JAENIDNE@area_normalization?$AA@	; `string'
PUBLIC	??_C@_0P@OGHBAHOF@check_increase?$AA@		; `string'
PUBLIC	??_C@_0M@OBNGAKOC@runge_kutta?$AA@		; `string'
PUBLIC	??_C@_0M@GGBEIMML@approx_curv?$AA@		; `string'
PUBLIC	??_C@_08MINHKHMD@old_area?$AA@			; `string'
PUBLIC	??_C@_07HBPOHFLN@quietgo?$AA@			; `string'
PUBLIC	??_C@_0O@HCDDDEHN@hessian_quiet?$AA@		; `string'
PUBLIC	??_C@_0BH@DJGEPEF@hessian_special_normal?$AA@	; `string'
PUBLIC	??_C@_0BC@OIKNNBJM@augmented_hessian?$AA@	; `string'
PUBLIC	??_C@_05PMBAOCDH@quiet?$AA@			; `string'
PUBLIC	??_C@_0P@BMEBABFE@show_all_edges?$AA@		; `string'
PUBLIC	??_C@_0BB@OFKJMHPN@kraynikpopvertex?$AA@	; `string'
PUBLIC	??_C@_0P@EOAPCHNN@kraynikpopedge?$AA@		; `string'
PUBLIC	??_C@_0L@NAICPCIF@rgb_colors?$AA@		; `string'
PUBLIC	??_C@_0BC@ENFIPPEC@circular_arc_draw?$AA@	; `string'
PUBLIC	??_C@_08BLGPIPGP@autochop?$AA@			; `string'
PUBLIC	??_C@_07LEJGIFAD@autopop?$AA@			; `string'
PUBLIC	??_C@_07ENPKKAPH@sqgauss?$AA@			; `string'
PUBLIC	??_C@_07LLNNGCPP@deturck?$AA@			; `string'
PUBLIC	??_C@_08LDELGPJH@estimate?$AA@			; `string'
PUBLIC	??_C@_06IGFDKMHM@kusner?$AA@			; `string'
PUBLIC	??_C@_07NJBOMLDI@view_4D?$AA@			; `string'
PUBLIC	??_C@_0BA@NLJCNNPB@assume_oriented?$AA@		; `string'
PUBLIC	??_C@_07PIJPCAMN@ribiere?$AA@			; `string'
PUBLIC	??_C@_0BA@HGBJAEID@quantities_only?$AA@		; `string'
PUBLIC	??_C@_09BAKALBHB@conj_grad?$AA@			; `string'
PUBLIC	??_C@_0BB@JEINHGHM@bezier_basis?5on?6?$AA@	; `string'
PUBLIC	??_C@_0BH@CBOEMHLC@convert_to_quantities?6?$AA@	; `string'
PUBLIC	??_C@_0BM@MMPFPOJE@hessian_slant_cutoff?5?3?$DN?5?$CFg?6?$AA@ ; `string'
PUBLIC	??_C@_0BB@NOFPOFEM@thickness?5?3?$DN?5?$CFg?6?$AA@ ; `string'
PUBLIC	??_C@_0M@FKFJNJHN@septum_flag?$AA@		; `string'
PUBLIC	??_C@_0M@NAKIPJII@ps_gridflag?$AA@		; `string'
PUBLIC	??_C@_0P@EJEJKKN@force_edgeswap?$AA@		; `string'
PUBLIC	??_C@_0BC@PCBOIGLG@full_bounding_box?$AA@	; `string'
PUBLIC	??_C@_0BA@FEGMCNGA@K_altitude_mode?$AA@		; `string'
PUBLIC	??_C@_0BA@NBAAGIKN@visibility_test?$AA@		; `string'
PUBLIC	??_C@_0L@KMEPJMME@slice_view?$AA@		; `string'
PUBLIC	??_C@_0CP@MABBEGKP@?5?5view_transforms_unique_point?$FL?$CF@ ; `string'
PUBLIC	??_C@_0CB@GFKKBGMN@view_transforms_use_unique_point@ ; `string'
PUBLIC	??_C@_09FMDIMAMP@clip_view?$AA@			; `string'
PUBLIC	??_C@_0CA@MNCEMECC@window_aspect_ratio?5?3?$DN?5?$CF18?415f?6?$AA@ ; `string'
PUBLIC	??_C@_0L@HHNKKBPM@raw_cells?6?$AA@		; `string'
PUBLIC	??_C@_0L@MOBHNNJG@connected?6?$AA@		; `string'
PUBLIC	??_C@_08KOELILLL@clipped?6?$AA@			; `string'
PUBLIC	??_C@_03NIEPJMFE@?5?$HN?6?$AA@			; `string'
PUBLIC	??_C@_0BA@EGONCABM@?5function?5?6?5?5?$HL?5?$AA@ ; `string'
PUBLIC	??_C@_0BL@EELIHABE@?6define?5?$CFs?5attribute?5?$CFs?5?$CFs?$AA@ ; `string'
PUBLIC	??_C@_06HDICOIMH@?$CFs?5?$DN?5?6?$AA@		; `string'
PUBLIC	??_C@_04KBDJOJNB@?$FL?$CFd?$FN?$AA@		; `string'
PUBLIC	??_C@_09CDKNMAHF@define?5?$CFs?$AA@		; `string'
PUBLIC	??_C@_0BE@DJIEBPB@?$CFs?4pscale?5?$DN?5?$CF2?415g?5?$AA@ ; `string'
PUBLIC	??_C@_0BF@ECEAIEOK@?$CFs?4pdelta?5?$DN?5?$CF2?415g?$DL?5?$AA@ ; `string'
PUBLIC	__real@3f1a36e2eb1c432d
PUBLIC	??_C@_0M@PLDHDBIE@?3?$DN?5?$CF2?415g?$DL?5?$AA@	; `string'
PUBLIC	_bottom_dump
EXTRN	_show_command:BYTE
EXTRN	_show_expr:BYTE
EXTRN	_brightness:QWORD
EXTRN	_transform_count:DWORD
EXTRN	_transforms_flag:DWORD
EXTRN	_transform_expr:BYTE
EXTRN	_linear_metric_mix:QWORD
EXTRN	_hessian_linear_metric_flag:DWORD
EXTRN	_interp_bdry_param:DWORD
EXTRN	_self_similar_flag:DWORD
EXTRN	_gv_binary_flag:DWORD
EXTRN	_make_pos_def_flag:DWORD
EXTRN	_autorecalc_flag:DWORD
EXTRN	_metric_convert_flag:DWORD
EXTRN	_check_pinning_flag:DWORD
EXTRN	_normal_motion_flag:DWORD
EXTRN	_boundary_curvature_flag:DWORD
EXTRN	_color_flag:DWORD
EXTRN	_shading_flag:DWORD
EXTRN	_div_normal_curvature_flag:DWORD
EXTRN	_normal_curvature_flag:DWORD
EXTRN	_mean_curv_int_flag:DWORD
EXTRN	_post_project_flag:DWORD
EXTRN	_hessian_double_normal_flag:DWORD
EXTRN	_hessian_normal_one_flag:DWORD
EXTRN	_hessian_normal_perp_flag:DWORD
EXTRN	_hessian_normal_flag:DWORD
EXTRN	_hessian_by_diff_flag:DWORD
EXTRN	_smooth_graph_flag:DWORD
EXTRN	_crossingflag:DWORD
EXTRN	_labelflag:DWORD
EXTRN	_ps_cmykflag:DWORD
EXTRN	_ps_colorflag:DWORD
EXTRN	_pop_to_edge_flag:DWORD
EXTRN	_pop_to_face_flag:DWORD
EXTRN	_pop_enjoin_flag:DWORD
EXTRN	_pop_disjoin_flag:DWORD
EXTRN	_sobolev_flag:DWORD
EXTRN	_dirichlet_flag:DWORD
EXTRN	_cmapname:BYTE
EXTRN	_colorflag:DWORD
EXTRN	_outerflag:DWORD
EXTRN	_innerflag:DWORD
EXTRN	_thickenflag:DWORD
EXTRN	_effective_area_flag:DWORD
EXTRN	_conf_edge_curv_flag:DWORD
EXTRN	_check_increase_flag:DWORD
EXTRN	_runge_kutta_flag:DWORD
EXTRN	_approx_curve_flag:DWORD
EXTRN	_old_area_flag:DWORD
EXTRN	_quiet_go_flag:DWORD
EXTRN	_hessian_quiet_flag:DWORD
EXTRN	_hessian_special_normal_flag:DWORD
EXTRN	_augmented_hessian_flag:DWORD
EXTRN	_quiet_flag:DWORD
EXTRN	_edgeshow_flag:DWORD
EXTRN	_kraynikpopvertex_flag:DWORD
EXTRN	_kraynikpopedge_flag:DWORD
EXTRN	_rgb_colors_flag:DWORD
EXTRN	_circular_arc_flag:DWORD
EXTRN	_autochop_flag:DWORD
EXTRN	_autopop_flag:DWORD
EXTRN	_sqgauss_flag:DWORD
EXTRN	_unit_normal_flag:DWORD
EXTRN	_estimate_flag:DWORD
EXTRN	_kusner_flag:DWORD
EXTRN	_view_4D_flag:DWORD
EXTRN	_assume_oriented_flag:DWORD
EXTRN	_ribiere_flag:DWORD
EXTRN	_quantities_only_flag:DWORD
EXTRN	_conj_grad_flag:DWORD
EXTRN	_bezier_flag:DWORD
EXTRN	_everything_quantities_flag:DWORD
EXTRN	_hessian_slant_cutoff:QWORD
EXTRN	_thickness:QWORD
EXTRN	_user_thickness_flag:DWORD
EXTRN	_septum_flag:DWORD
EXTRN	_gridflag:DWORD
EXTRN	_force_edgeswap_flag:DWORD
EXTRN	_full_bounding_box_flag:DWORD
EXTRN	_K_altitude_flag:DWORD
EXTRN	_visibility_test:DWORD
EXTRN	_slice_view_flag:DWORD
EXTRN	_view_transforms_unique_point:DWORD
EXTRN	_view_transforms_unique_point_flag:DWORD
EXTRN	_clip_view_flag:DWORD
EXTRN	_window_aspect_ratio:QWORD
EXTRN	_torus_display_mode:DWORD
EXTRN	_typenames:BYTE
;	COMDAT ??_C@_0BG@INDPJLAD@brightness?5?3?$DN?5?$CF2?415g?6?$AA@
CONST	SEGMENT
??_C@_0BG@INDPJLAD@brightness?5?3?$DN?5?$CF2?415g?6?$AA@ DB 'brightness :'
	DB	'= %2.15g', 0aH, 00H				; `string'
CONST	ENDS
;	COMDAT __real@3fe4cccccccccccd
CONST	SEGMENT
__real@3fe4cccccccccccd DQ 03fe4cccccccccccdr	; 0.65
CONST	ENDS
;	COMDAT ??_C@_0BM@OJBOKPEJ@target_tolerance?5?3?$DN?5?$CF2?415g?6?$AA@
CONST	SEGMENT
??_C@_0BM@OJBOKPEJ@target_tolerance?5?3?$DN?5?$CF2?415g?6?$AA@ DB 'target'
	DB	'_tolerance := %2.15g', 0aH, 00H		; `string'
CONST	ENDS
;	COMDAT ??_C@_0L@DLCCMBJF@transforms?$AA@
CONST	SEGMENT
??_C@_0L@DLCCMBJF@transforms?$AA@ DB 'transforms', 00H	; `string'
CONST	ENDS
;	COMDAT ??_C@_0BF@GKKNLENB@transform_expr?5?$CC?$CFs?$CC?6?$AA@
CONST	SEGMENT
??_C@_0BF@GKKNLENB@transform_expr?5?$CC?$CFs?$CC?6?$AA@ DB 'transform_exp'
	DB	'r "%s"', 0aH, 00H				; `string'
CONST	ENDS
;	COMDAT ??_C@_0BN@PKOEDJIO@linear_metric_mix?5?3?$DN?5?$CF2?415g?6?$AA@
CONST	SEGMENT
??_C@_0BN@PKOEDJIO@linear_metric_mix?5?3?$DN?5?$CF2?415g?6?$AA@ DB 'linea'
	DB	'r_metric_mix := %2.15g', 0aH, 00H		; `string'
CONST	ENDS
;	COMDAT ??_C@_0O@PLHGPNIO@linear_metric?$AA@
CONST	SEGMENT
??_C@_0O@PLHGPNIO@linear_metric?$AA@ DB 'linear_metric', 00H ; `string'
CONST	ENDS
;	COMDAT ??_C@_07GFBFDLBM@gravity?$AA@
CONST	SEGMENT
??_C@_07GFBFDLBM@gravity?$AA@ DB 'gravity', 00H		; `string'
CONST	ENDS
;	COMDAT ??_C@_0BC@KPHKHJOD@interp_bdry_param?$AA@
CONST	SEGMENT
??_C@_0BC@KPHKHJOD@interp_bdry_param?$AA@ DB 'interp_bdry_param', 00H ; `string'
CONST	ENDS
;	COMDAT ??_C@_0N@FFMNCIGF@self_similar?$AA@
CONST	SEGMENT
??_C@_0N@FFMNCIGF@self_similar?$AA@ DB 'self_similar', 00H ; `string'
CONST	ENDS
;	COMDAT ??_C@_09BPDDPHCA@gv_binary?$AA@
CONST	SEGMENT
??_C@_09BPDDPHCA@gv_binary?$AA@ DB 'gv_binary', 00H	; `string'
CONST	ENDS
;	COMDAT ??_C@_0O@MHBOMMFK@force_pos_def?$AA@
CONST	SEGMENT
??_C@_0O@MHBOMMFK@force_pos_def?$AA@ DB 'force_pos_def', 00H ; `string'
CONST	ENDS
;	COMDAT ??_C@_0L@MABNKBMJ@autorecalc?$AA@
CONST	SEGMENT
??_C@_0L@MABNKBMJ@autorecalc?$AA@ DB 'autorecalc', 00H	; `string'
CONST	ENDS
;	COMDAT ??_C@_0BC@LJJGFBGD@metric_conversion?$AA@
CONST	SEGMENT
??_C@_0BC@LJJGFBGD@metric_conversion?$AA@ DB 'metric_conversion', 00H ; `string'
CONST	ENDS
;	COMDAT ??_C@_07BCIELMPF@pinning?$AA@
CONST	SEGMENT
??_C@_07BCIELMPF@pinning?$AA@ DB 'pinning', 00H		; `string'
CONST	ENDS
;	COMDAT ??_C@_0O@PKIOMPCC@normal_motion?$AA@
CONST	SEGMENT
??_C@_0O@PKIOMPCC@normal_motion?$AA@ DB 'normal_motion', 00H ; `string'
CONST	ENDS
;	COMDAT ??_C@_0BD@MOPCCJLG@boundary_curvature?$AA@
CONST	SEGMENT
??_C@_0BD@MOPCCJLG@boundary_curvature?$AA@ DB 'boundary_curvature', 00H ; `string'
CONST	ENDS
;	COMDAT ??_C@_0N@BNMHNAMC@facet_colors?$AA@
CONST	SEGMENT
??_C@_0N@BNMHNAMC@facet_colors?$AA@ DB 'facet_colors', 00H ; `string'
CONST	ENDS
;	COMDAT ??_C@_07IBJKBKNG@shading?$AA@
CONST	SEGMENT
??_C@_07IBJKBKNG@shading?$AA@ DB 'shading', 00H		; `string'
CONST	ENDS
;	COMDAT ??_C@_0BF@KHPBBAHH@div_normal_curvature?$AA@
CONST	SEGMENT
??_C@_0BF@KHPBBAHH@div_normal_curvature?$AA@ DB 'div_normal_curvature', 00H ; `string'
CONST	ENDS
;	COMDAT ??_C@_0BB@ODBHHAP@normal_curvature?$AA@
CONST	SEGMENT
??_C@_0BB@ODBHHAP@normal_curvature?$AA@ DB 'normal_curvature', 00H ; `string'
CONST	ENDS
;	COMDAT ??_C@_0BI@KGGFDDEC@mean_curvature_integral?$AA@
CONST	SEGMENT
??_C@_0BI@KGGFDDEC@mean_curvature_integral?$AA@ DB 'mean_curvature_integr'
	DB	'al', 00H					; `string'
CONST	ENDS
;	COMDAT ??_C@_0N@NFINOFHM@post_project?$AA@
CONST	SEGMENT
??_C@_0N@NFINOFHM@post_project?$AA@ DB 'post_project', 00H ; `string'
CONST	ENDS
;	COMDAT ??_C@_0BG@GAEGJDMI@hessian_double_normal?$AA@
CONST	SEGMENT
??_C@_0BG@GAEGJDMI@hessian_double_normal?$AA@ DB 'hessian_double_normal', 00H ; `string'
CONST	ENDS
;	COMDAT ??_C@_0BD@HMMIFHMP@hessian_normal_one?$AA@
CONST	SEGMENT
??_C@_0BD@HMMIFHMP@hessian_normal_one?$AA@ DB 'hessian_normal_one', 00H ; `string'
CONST	ENDS
;	COMDAT ??_C@_0BE@IEAFMCH@hessian_normal_perp?$AA@
CONST	SEGMENT
??_C@_0BE@IEAFMCH@hessian_normal_perp?$AA@ DB 'hessian_normal_perp', 00H ; `string'
CONST	ENDS
;	COMDAT ??_C@_0P@BMDMDICD@hessian_normal?$AA@
CONST	SEGMENT
??_C@_0P@BMDMDICD@hessian_normal?$AA@ DB 'hessian_normal', 00H ; `string'
CONST	ENDS
;	COMDAT ??_C@_0N@PBIFKJMI@hessian_diff?$AA@
CONST	SEGMENT
??_C@_0N@PBIFKJMI@hessian_diff?$AA@ DB 'hessian_diff', 00H ; `string'
CONST	ENDS
;	COMDAT ??_C@_0N@DFPINMIP@smooth_graph?$AA@
CONST	SEGMENT
??_C@_0N@DFPINMIP@smooth_graph?$AA@ DB 'smooth_graph', 00H ; `string'
CONST	ENDS
;	COMDAT ??_C@_0BA@MDFPOHGI@ps_crossingflag?$AA@
CONST	SEGMENT
??_C@_0BA@MDFPOHGI@ps_crossingflag?$AA@ DB 'ps_crossingflag', 00H ; `string'
CONST	ENDS
;	COMDAT ??_C@_0N@ECHDFDIC@ps_labelflag?$AA@
CONST	SEGMENT
??_C@_0N@ECHDFDIC@ps_labelflag?$AA@ DB 'ps_labelflag', 00H ; `string'
CONST	ENDS
;	COMDAT ??_C@_0M@LOFHKFBI@ps_cmykflag?$AA@
CONST	SEGMENT
??_C@_0M@LOFHKFBI@ps_cmykflag?$AA@ DB 'ps_cmykflag', 00H ; `string'
CONST	ENDS
;	COMDAT ??_C@_0N@PDJMPNAK@ps_colorflag?$AA@
CONST	SEGMENT
??_C@_0N@PDJMPNAK@ps_colorflag?$AA@ DB 'ps_colorflag', 00H ; `string'
CONST	ENDS
;	COMDAT ??_C@_0M@CAFGBCMP@pop_to_edge?$AA@
CONST	SEGMENT
??_C@_0M@CAFGBCMP@pop_to_edge?$AA@ DB 'pop_to_edge', 00H ; `string'
CONST	ENDS
;	COMDAT ??_C@_0M@FHCBDAPB@pop_to_face?$AA@
CONST	SEGMENT
??_C@_0M@FHCBDAPB@pop_to_face?$AA@ DB 'pop_to_face', 00H ; `string'
CONST	ENDS
;	COMDAT ??_C@_0L@NBNMFCPF@pop_enjoin?$AA@
CONST	SEGMENT
??_C@_0L@NBNMFCPF@pop_enjoin?$AA@ DB 'pop_enjoin', 00H	; `string'
CONST	ENDS
;	COMDAT ??_C@_0M@PDGIDHIC@pop_disjoin?$AA@
CONST	SEGMENT
??_C@_0M@PDGIDHIC@pop_disjoin?$AA@ DB 'pop_disjoin', 00H ; `string'
CONST	ENDS
;	COMDAT ??_C@_0N@IAKIABKB@sobolev_mode?$AA@
CONST	SEGMENT
??_C@_0N@IAKIABKB@sobolev_mode?$AA@ DB 'sobolev_mode', 00H ; `string'
CONST	ENDS
;	COMDAT ??_C@_0P@DEKALNNI@dirichlet_mode?$AA@
CONST	SEGMENT
??_C@_0P@DEKALNNI@dirichlet_mode?$AA@ DB 'dirichlet_mode', 00H ; `string'
CONST	ENDS
;	COMDAT ??_C@_0BD@CMGJLAKL@colorfile?5?3?$DN?5?$CC?$CFs?$CC?6?$AA@
CONST	SEGMENT
??_C@_0BD@CMGJLAKL@colorfile?5?3?$DN?5?$CC?$CFs?$CC?6?$AA@ DB 'colorfile '
	DB	':= "%s"', 0aH, 00H				; `string'
CONST	ENDS
;	COMDAT ??_C@_08OMBDDLKJ@colormap?$AA@
CONST	SEGMENT
??_C@_08OMBDDLKJ@colormap?$AA@ DB 'colormap', 00H	; `string'
CONST	ENDS
;	COMDAT ??_C@_0L@LOICIGID@show_outer?$AA@
CONST	SEGMENT
??_C@_0L@LOICIGID@show_outer?$AA@ DB 'show_outer', 00H	; `string'
CONST	ENDS
;	COMDAT ??_C@_0L@EAEPHEPG@show_inner?$AA@
CONST	SEGMENT
??_C@_0L@EAEPHEPG@show_inner?$AA@ DB 'show_inner', 00H	; `string'
CONST	ENDS
;	COMDAT ??_C@_07KCLCNBJB@thicken?$AA@
CONST	SEGMENT
??_C@_07KCLCNBJB@thicken?$AA@ DB 'thicken', 00H		; `string'
CONST	ENDS
;	COMDAT ??_C@_07HKDEBIPG@clipped?$AA@
CONST	SEGMENT
??_C@_07HKDEBIPG@clipped?$AA@ DB 'clipped', 00H		; `string'
CONST	ENDS
;	COMDAT ??_C@_09JGOMOAGJ@connected?$AA@
CONST	SEGMENT
??_C@_09JGOMOAGJ@connected?$AA@ DB 'connected', 00H	; `string'
CONST	ENDS
;	COMDAT ??_C@_0P@OMMOBLOA@effective_area?$AA@
CONST	SEGMENT
??_C@_0P@OMMOBLOA@effective_area?$AA@ DB 'effective_area', 00H ; `string'
CONST	ENDS
;	COMDAT ??_C@_09MFCEMNNF@conf_edge?$AA@
CONST	SEGMENT
??_C@_09MFCEMNNF@conf_edge?$AA@ DB 'conf_edge', 00H	; `string'
CONST	ENDS
;	COMDAT ??_C@_0BD@JAENIDNE@area_normalization?$AA@
CONST	SEGMENT
??_C@_0BD@JAENIDNE@area_normalization?$AA@ DB 'area_normalization', 00H ; `string'
CONST	ENDS
;	COMDAT ??_C@_0P@OGHBAHOF@check_increase?$AA@
CONST	SEGMENT
??_C@_0P@OGHBAHOF@check_increase?$AA@ DB 'check_increase', 00H ; `string'
CONST	ENDS
;	COMDAT ??_C@_0M@OBNGAKOC@runge_kutta?$AA@
CONST	SEGMENT
??_C@_0M@OBNGAKOC@runge_kutta?$AA@ DB 'runge_kutta', 00H ; `string'
CONST	ENDS
;	COMDAT ??_C@_0M@GGBEIMML@approx_curv?$AA@
CONST	SEGMENT
??_C@_0M@GGBEIMML@approx_curv?$AA@ DB 'approx_curv', 00H ; `string'
CONST	ENDS
;	COMDAT ??_C@_08MINHKHMD@old_area?$AA@
CONST	SEGMENT
??_C@_08MINHKHMD@old_area?$AA@ DB 'old_area', 00H	; `string'
CONST	ENDS
;	COMDAT ??_C@_07HBPOHFLN@quietgo?$AA@
CONST	SEGMENT
??_C@_07HBPOHFLN@quietgo?$AA@ DB 'quietgo', 00H		; `string'
CONST	ENDS
;	COMDAT ??_C@_0O@HCDDDEHN@hessian_quiet?$AA@
CONST	SEGMENT
??_C@_0O@HCDDDEHN@hessian_quiet?$AA@ DB 'hessian_quiet', 00H ; `string'
CONST	ENDS
;	COMDAT ??_C@_0BH@DJGEPEF@hessian_special_normal?$AA@
CONST	SEGMENT
??_C@_0BH@DJGEPEF@hessian_special_normal?$AA@ DB 'hessian_special_normal', 00H ; `string'
CONST	ENDS
;	COMDAT ??_C@_0BC@OIKNNBJM@augmented_hessian?$AA@
CONST	SEGMENT
??_C@_0BC@OIKNNBJM@augmented_hessian?$AA@ DB 'augmented_hessian', 00H ; `string'
CONST	ENDS
;	COMDAT ??_C@_05PMBAOCDH@quiet?$AA@
CONST	SEGMENT
??_C@_05PMBAOCDH@quiet?$AA@ DB 'quiet', 00H		; `string'
CONST	ENDS
;	COMDAT ??_C@_0P@BMEBABFE@show_all_edges?$AA@
CONST	SEGMENT
??_C@_0P@BMEBABFE@show_all_edges?$AA@ DB 'show_all_edges', 00H ; `string'
CONST	ENDS
;	COMDAT ??_C@_0BB@OFKJMHPN@kraynikpopvertex?$AA@
CONST	SEGMENT
??_C@_0BB@OFKJMHPN@kraynikpopvertex?$AA@ DB 'kraynikpopvertex', 00H ; `string'
CONST	ENDS
;	COMDAT ??_C@_0P@EOAPCHNN@kraynikpopedge?$AA@
CONST	SEGMENT
??_C@_0P@EOAPCHNN@kraynikpopedge?$AA@ DB 'kraynikpopedge', 00H ; `string'
CONST	ENDS
;	COMDAT ??_C@_0L@NAICPCIF@rgb_colors?$AA@
CONST	SEGMENT
??_C@_0L@NAICPCIF@rgb_colors?$AA@ DB 'rgb_colors', 00H	; `string'
CONST	ENDS
;	COMDAT ??_C@_0BC@ENFIPPEC@circular_arc_draw?$AA@
CONST	SEGMENT
??_C@_0BC@ENFIPPEC@circular_arc_draw?$AA@ DB 'circular_arc_draw', 00H ; `string'
CONST	ENDS
;	COMDAT ??_C@_08BLGPIPGP@autochop?$AA@
CONST	SEGMENT
??_C@_08BLGPIPGP@autochop?$AA@ DB 'autochop', 00H	; `string'
CONST	ENDS
;	COMDAT ??_C@_07LEJGIFAD@autopop?$AA@
CONST	SEGMENT
??_C@_07LEJGIFAD@autopop?$AA@ DB 'autopop', 00H		; `string'
CONST	ENDS
;	COMDAT ??_C@_07ENPKKAPH@sqgauss?$AA@
CONST	SEGMENT
??_C@_07ENPKKAPH@sqgauss?$AA@ DB 'sqgauss', 00H		; `string'
CONST	ENDS
;	COMDAT ??_C@_07LLNNGCPP@deturck?$AA@
CONST	SEGMENT
??_C@_07LLNNGCPP@deturck?$AA@ DB 'deturck', 00H		; `string'
CONST	ENDS
;	COMDAT ??_C@_08LDELGPJH@estimate?$AA@
CONST	SEGMENT
??_C@_08LDELGPJH@estimate?$AA@ DB 'estimate', 00H	; `string'
CONST	ENDS
;	COMDAT ??_C@_06IGFDKMHM@kusner?$AA@
CONST	SEGMENT
??_C@_06IGFDKMHM@kusner?$AA@ DB 'kusner', 00H		; `string'
CONST	ENDS
;	COMDAT ??_C@_07NJBOMLDI@view_4D?$AA@
CONST	SEGMENT
??_C@_07NJBOMLDI@view_4D?$AA@ DB 'view_4D', 00H		; `string'
CONST	ENDS
;	COMDAT ??_C@_0BA@NLJCNNPB@assume_oriented?$AA@
CONST	SEGMENT
??_C@_0BA@NLJCNNPB@assume_oriented?$AA@ DB 'assume_oriented', 00H ; `string'
CONST	ENDS
;	COMDAT ??_C@_07PIJPCAMN@ribiere?$AA@
CONST	SEGMENT
??_C@_07PIJPCAMN@ribiere?$AA@ DB 'ribiere', 00H		; `string'
CONST	ENDS
;	COMDAT ??_C@_0BA@HGBJAEID@quantities_only?$AA@
CONST	SEGMENT
??_C@_0BA@HGBJAEID@quantities_only?$AA@ DB 'quantities_only', 00H ; `string'
CONST	ENDS
;	COMDAT ??_C@_09BAKALBHB@conj_grad?$AA@
CONST	SEGMENT
??_C@_09BAKALBHB@conj_grad?$AA@ DB 'conj_grad', 00H	; `string'
CONST	ENDS
;	COMDAT ??_C@_0BB@JEINHGHM@bezier_basis?5on?6?$AA@
CONST	SEGMENT
??_C@_0BB@JEINHGHM@bezier_basis?5on?6?$AA@ DB 'bezier_basis on', 0aH, 00H ; `string'
CONST	ENDS
;	COMDAT ??_C@_0BH@CBOEMHLC@convert_to_quantities?6?$AA@
CONST	SEGMENT
??_C@_0BH@CBOEMHLC@convert_to_quantities?6?$AA@ DB 'convert_to_quantities'
	DB	0aH, 00H					; `string'
CONST	ENDS
;	COMDAT ??_C@_0BM@MMPFPOJE@hessian_slant_cutoff?5?3?$DN?5?$CFg?6?$AA@
CONST	SEGMENT
??_C@_0BM@MMPFPOJE@hessian_slant_cutoff?5?3?$DN?5?$CFg?6?$AA@ DB 'hessian'
	DB	'_slant_cutoff := %g', 0aH, 00H		; `string'
CONST	ENDS
;	COMDAT ??_C@_0BB@NOFPOFEM@thickness?5?3?$DN?5?$CFg?6?$AA@
CONST	SEGMENT
??_C@_0BB@NOFPOFEM@thickness?5?3?$DN?5?$CFg?6?$AA@ DB 'thickness := %g', 0aH
	DB	00H						; `string'
CONST	ENDS
;	COMDAT ??_C@_0M@FKFJNJHN@septum_flag?$AA@
CONST	SEGMENT
??_C@_0M@FKFJNJHN@septum_flag?$AA@ DB 'septum_flag', 00H ; `string'
CONST	ENDS
;	COMDAT ??_C@_0M@NAKIPJII@ps_gridflag?$AA@
CONST	SEGMENT
??_C@_0M@NAKIPJII@ps_gridflag?$AA@ DB 'ps_gridflag', 00H ; `string'
CONST	ENDS
;	COMDAT ??_C@_0P@EJEJKKN@force_edgeswap?$AA@
CONST	SEGMENT
??_C@_0P@EJEJKKN@force_edgeswap?$AA@ DB 'force_edgeswap', 00H ; `string'
CONST	ENDS
;	COMDAT ??_C@_0BC@PCBOIGLG@full_bounding_box?$AA@
CONST	SEGMENT
??_C@_0BC@PCBOIGLG@full_bounding_box?$AA@ DB 'full_bounding_box', 00H ; `string'
CONST	ENDS
;	COMDAT ??_C@_0BA@FEGMCNGA@K_altitude_mode?$AA@
CONST	SEGMENT
??_C@_0BA@FEGMCNGA@K_altitude_mode?$AA@ DB 'K_altitude_mode', 00H ; `string'
CONST	ENDS
;	COMDAT ??_C@_0BA@NBAAGIKN@visibility_test?$AA@
CONST	SEGMENT
??_C@_0BA@NBAAGIKN@visibility_test?$AA@ DB 'visibility_test', 00H ; `string'
CONST	ENDS
;	COMDAT ??_C@_0L@KMEPJMME@slice_view?$AA@
CONST	SEGMENT
??_C@_0L@KMEPJMME@slice_view?$AA@ DB 'slice_view', 00H	; `string'
CONST	ENDS
;	COMDAT ??_C@_0CP@MABBEGKP@?5?5view_transforms_unique_point?$FL?$CF@
CONST	SEGMENT
??_C@_0CP@MABBEGKP@?5?5view_transforms_unique_point?$FL?$CF@ DB '  view_t'
	DB	'ransforms_unique_point[%d] := %18.15f', 0aH, 00H ; `string'
CONST	ENDS
;	COMDAT ??_C@_0CB@GFKKBGMN@view_transforms_use_unique_point@
CONST	SEGMENT
??_C@_0CB@GFKKBGMN@view_transforms_use_unique_point@ DB 'view_transforms_'
	DB	'use_unique_point', 00H			; `string'
CONST	ENDS
;	COMDAT ??_C@_09FMDIMAMP@clip_view?$AA@
CONST	SEGMENT
??_C@_09FMDIMAMP@clip_view?$AA@ DB 'clip_view', 00H	; `string'
CONST	ENDS
;	COMDAT ??_C@_0CA@MNCEMECC@window_aspect_ratio?5?3?$DN?5?$CF18?415f?6?$AA@
CONST	SEGMENT
??_C@_0CA@MNCEMECC@window_aspect_ratio?5?3?$DN?5?$CF18?415f?6?$AA@ DB 'wi'
	DB	'ndow_aspect_ratio := %18.15f', 0aH, 00H	; `string'
CONST	ENDS
;	COMDAT ??_C@_0L@HHNKKBPM@raw_cells?6?$AA@
CONST	SEGMENT
??_C@_0L@HHNKKBPM@raw_cells?6?$AA@ DB 'raw_cells', 0aH, 00H ; `string'
CONST	ENDS
;	COMDAT ??_C@_0L@MOBHNNJG@connected?6?$AA@
CONST	SEGMENT
??_C@_0L@MOBHNNJG@connected?6?$AA@ DB 'connected', 0aH, 00H ; `string'
CONST	ENDS
;	COMDAT ??_C@_08KOELILLL@clipped?6?$AA@
CONST	SEGMENT
??_C@_08KOELILLL@clipped?6?$AA@ DB 'clipped', 0aH, 00H	; `string'
CONST	ENDS
;	COMDAT ??_C@_03NIEPJMFE@?5?$HN?6?$AA@
CONST	SEGMENT
??_C@_03NIEPJMFE@?5?$HN?6?$AA@ DB ' }', 0aH, 00H	; `string'
CONST	ENDS
;	COMDAT ??_C@_0BA@EGONCABM@?5function?5?6?5?5?$HL?5?$AA@
CONST	SEGMENT
??_C@_0BA@EGONCABM@?5function?5?6?5?5?$HL?5?$AA@ DB ' function ', 0aH, ' '
	DB	' { ', 00H					; `string'
CONST	ENDS
;	COMDAT ??_C@_0BL@EELIHABE@?6define?5?$CFs?5attribute?5?$CFs?5?$CFs?$AA@
CONST	SEGMENT
??_C@_0BL@EELIHABE@?6define?5?$CFs?5attribute?5?$CFs?5?$CFs?$AA@ DB 0aH, 'd'
	DB	'efine %s attribute %s %s', 00H		; `string'
CONST	ENDS
;	COMDAT ??_C@_06HDICOIMH@?$CFs?5?$DN?5?6?$AA@
CONST	SEGMENT
??_C@_06HDICOIMH@?$CFs?5?$DN?5?6?$AA@ DB '%s = ', 0aH, 00H ; `string'
CONST	ENDS
;	COMDAT ??_C@_04KBDJOJNB@?$FL?$CFd?$FN?$AA@
CONST	SEGMENT
??_C@_04KBDJOJNB@?$FL?$CFd?$FN?$AA@ DB '[%d]', 00H	; `string'
CONST	ENDS
;	COMDAT ??_C@_09CDKNMAHF@define?5?$CFs?$AA@
CONST	SEGMENT
??_C@_09CDKNMAHF@define?5?$CFs?$AA@ DB 'define %s', 00H	; `string'
CONST	ENDS
;	COMDAT ??_C@_0BE@DJIEBPB@?$CFs?4pscale?5?$DN?5?$CF2?415g?5?$AA@
CONST	SEGMENT
??_C@_0BE@DJIEBPB@?$CFs?4pscale?5?$DN?5?$CF2?415g?5?$AA@ DB '%s.pscale = '
	DB	'%2.15g ', 00H				; `string'
CONST	ENDS
;	COMDAT ??_C@_0BF@ECEAIEOK@?$CFs?4pdelta?5?$DN?5?$CF2?415g?$DL?5?$AA@
CONST	SEGMENT
??_C@_0BF@ECEAIEOK@?$CFs?4pdelta?5?$DN?5?$CF2?415g?$DL?5?$AA@ DB '%s.pdel'
	DB	'ta = %2.15g; ', 00H				; `string'
CONST	ENDS
;	COMDAT __real@3f1a36e2eb1c432d
CONST	SEGMENT
__real@3f1a36e2eb1c432d DQ 03f1a36e2eb1c432dr	; 0.0001
CONST	ENDS
;	COMDAT ??_C@_0M@PLDHDBIE@?3?$DN?5?$CF2?415g?$DL?5?$AA@
CONST	SEGMENT
??_C@_0M@PLDHDBIE@?3?$DN?5?$CF2?415g?$DL?5?$AA@ DB ':= %2.15g; ', 00H ; `string'
; Function compile flags: /Ogtp
CONST	ENDS
;	COMDAT _bottom_dump
_TEXT	SEGMENT
tv1810 = -16						; size = 4
_old_fd$ = -12						; size = 4
tv1825 = -8						; size = 4
tv1703 = -8						; size = 4
tv1701 = -4						; size = 4
_a$90927 = -4						; size = 4
_i$ = 8							; size = 4
_fd$ = 8						; size = 4
_bottom_dump PROC					; COMDAT

; 2032 : { int i;

	push	ebp
	mov	ebp, esp
	sub	esp, 16					; 00000010H

; 2033 :   FILE *old_fd = outfd;

	mov	eax, DWORD PTR _outfd

; 2034 :   int e_type;
; 2035 : 
; 2036 :   outfd = fd;

	mov	ecx, DWORD PTR _fd$[ebp]
	push	ebx
	push	esi
	push	edi

; 2037 :   readflag = 0;

	xor	ebx, ebx

; 2038 : 
; 2039 :   outstring("\nread\n"); readflag = 1;

	push	OFFSET ??_C@_06OHHADACI@?6read?6?$AA@
	mov	DWORD PTR _old_fd$[ebp], eax
	mov	DWORD PTR _outfd, ecx
	mov	DWORD PTR _readflag, ebx
	call	_outstring

; 2040 : 
; 2041 :   /* string variables */
; 2042 :   for ( i = 0 ; i < web.global_count ; i++ )

	mov	eax, DWORD PTR _web+5540
	add	esp, 4
	mov	DWORD PTR _readflag, 1
	cmp	eax, ebx
	jle	$LN167@bottom_dum
	npad	10
$LL171@bottom_dum:

; 2043 :   { struct global *g = globals(i);

	mov	eax, ebx
	and	eax, -16777216				; ff000000H
	cmp	eax, 268435456				; 10000000H
	jne	SHORT $LN137@bottom_dum
	mov	eax, DWORD PTR _web+5652
	mov	edx, ebx
	and	edx, 16777215				; 00ffffffH
	lea	ecx, DWORD PTR [eax+edx*4]
	mov	edx, DWORD PTR _dymem
	mov	esi, DWORD PTR [ecx+edx]
	jmp	SHORT $LN134@bottom_dum
$LN137@bottom_dum:
	cmp	eax, 805306368				; 30000000H
	jne	SHORT $LN135@bottom_dum
	mov	eax, DWORD PTR _localbase
	mov	esi, ebx
	and	esi, 16777215				; 00ffffffH
	imul	esi, 224				; 000000e0H
	add	esi, DWORD PTR [eax]
	jmp	SHORT $LN134@bottom_dum
$LN135@bottom_dum:
	cmp	eax, 536870912				; 20000000H
	jne	SHORT $LN133@bottom_dum
	mov	edx, DWORD PTR _web+5656
	mov	ecx, ebx
	and	ecx, 16777215				; 00ffffffH
	mov	esi, DWORD PTR [edx+ecx*4]
	jmp	SHORT $LN134@bottom_dum
$LN133@bottom_dum:
	mov	ecx, DWORD PTR _web+5652
	mov	eax, ebx
	and	eax, 16777215				; 00ffffffH
	lea	edx, DWORD PTR [ecx+eax*4]
	mov	eax, DWORD PTR _dymem
	mov	esi, DWORD PTR [edx+eax]
$LN134@bottom_dum:

; 2044 :     if ( g->flags & STRINGVAL )

	test	DWORD PTR [esi+192], 8192		; 00002000H
	je	SHORT $LN129@bottom_dum

; 2045 :     { sprintf(msg,"%s := ",g->name);

	mov	ecx, DWORD PTR _msg
	push	esi
	push	OFFSET ??_C@_06JFMACMHF@?$CFs?5?3?$DN?5?$AA@
	push	ecx
	call	_sprintf

; 2046 :       convert_string(g->value.string,msg+strlen(msg),msgmax-100);

	mov	edx, DWORD PTR _msg
	mov	eax, edx
	add	esp, 12					; 0000000cH
	lea	edi, DWORD PTR [eax+1]
$LL159@bottom_dum:
	mov	cl, BYTE PTR [eax]
	inc	eax
	test	cl, cl
	jne	SHORT $LL159@bottom_dum
	mov	ecx, DWORD PTR _msgmax
	sub	eax, edi
	add	ecx, -100				; ffffff9cH
	push	ecx
	add	eax, edx
	mov	edx, DWORD PTR [esi+64]
	push	eax
	push	edx
	call	_convert_string

; 2047 :       strcat(msg,"\n");

	mov	edi, DWORD PTR _msg
	add	esp, 12					; 0000000cH
	dec	edi
	npad	2
$LL160@bottom_dum:
	mov	al, BYTE PTR [edi+1]
	inc	edi
	test	al, al
	jne	SHORT $LL160@bottom_dum
	mov	ax, WORD PTR ??_C@_01EEMJAFIK@?6?$AA@
	mov	WORD PTR [edi], ax

; 2048 :       outstring(msg);

	mov	ecx, DWORD PTR _msg
	push	ecx
	call	_outstring
	add	esp, 4
$LN129@bottom_dum:

; 2040 : 
; 2041 :   /* string variables */
; 2042 :   for ( i = 0 ; i < web.global_count ; i++ )

	mov	eax, DWORD PTR _web+5540
	inc	ebx
	cmp	ebx, eax
	jl	$LL171@bottom_dum
$LN167@bottom_dum:

; 2049 :     }
; 2050 :   }  
; 2051 :   
; 2052 :   /* "no_dump" global variables */
; 2053 :   for ( i = 0 ; i < web.global_count ; i++ )

	mov	DWORD PTR _i$[ebp], 0
	test	eax, eax
	jle	$LN124@bottom_dum
	npad	3
$LL126@bottom_dum:

; 2054 :   { struct global *g = globals(i);

	mov	eax, DWORD PTR _i$[ebp]
	and	eax, -16777216				; ff000000H
	cmp	eax, 268435456				; 10000000H
	jne	SHORT $LN143@bottom_dum
	mov	edx, DWORD PTR _i$[ebp]
	mov	eax, DWORD PTR _web+5652
	and	edx, 16777215				; 00ffffffH
	lea	ecx, DWORD PTR [eax+edx*4]
	mov	edx, DWORD PTR _dymem
	mov	ebx, DWORD PTR [ecx+edx]
	jmp	SHORT $LN140@bottom_dum
$LN143@bottom_dum:
	cmp	eax, 805306368				; 30000000H
	jne	SHORT $LN141@bottom_dum
	mov	ebx, DWORD PTR _i$[ebp]
	mov	eax, DWORD PTR _localbase
	and	ebx, 16777215				; 00ffffffH
	imul	ebx, 224				; 000000e0H
	add	ebx, DWORD PTR [eax]
	jmp	SHORT $LN140@bottom_dum
$LN141@bottom_dum:
	cmp	eax, 536870912				; 20000000H
	jne	SHORT $LN139@bottom_dum
	mov	ecx, DWORD PTR _i$[ebp]
	mov	edx, DWORD PTR _web+5656
	and	ecx, 16777215				; 00ffffffH
	mov	ebx, DWORD PTR [edx+ecx*4]
	jmp	SHORT $LN140@bottom_dum
$LN139@bottom_dum:
	mov	eax, DWORD PTR _i$[ebp]
	mov	ecx, DWORD PTR _web+5652
	and	eax, 16777215				; 00ffffffH
	lea	edx, DWORD PTR [ecx+eax*4]
	mov	eax, DWORD PTR _dymem
	mov	ebx, DWORD PTR [edx+eax]
$LN140@bottom_dum:

; 2055 :     if ( !(g->flags2 & NO_DUMP_BIT) ) continue;

	test	BYTE PTR [ebx+196], 1
	je	$LN125@bottom_dum

; 2056 :     if ( (g->flags & ORDINARY_PARAM) &&
; 2057 :           !(g->flags & (INTERNAL_NAME|QUANTITY_TYPES)) )

	mov	eax, DWORD PTR [ebx+192]
	test	al, 1
	je	$LN122@bottom_dum
	test	eax, 4194752				; 004001c0H
	jne	$LN122@bottom_dum

; 2058 :       { sprintf(msg,"%s ",g->name); 

	mov	ecx, DWORD PTR _msg
	push	ebx
	push	OFFSET ??_C@_03IKGEINEE@?$CFs?5?$AA@
	push	ecx
	call	_sprintf

; 2059 :         outstring(msg); 

	mov	edx, DWORD PTR _msg
	push	edx
	call	_outstring

; 2060 : #ifdef FLOAT128
; 2061 :          sprintf(msg,":= %2.*Qg; ",DPREC,g->value.real); 
; 2062 : #elif defined(LONGDOUBLE)
; 2063 :          sprintf(msg,":= %2.*Lg; ",DPREC,g->value.real); 
; 2064 : #else
; 2065 :          sprintf(msg,":= %2.15g; ",g->value.real); 

	fld	QWORD PTR [ebx+64]
	mov	eax, DWORD PTR _msg
	fstp	QWORD PTR [esp+8]
	add	esp, 8
	push	OFFSET ??_C@_0M@PLDHDBIE@?3?$DN?5?$CF2?415g?$DL?5?$AA@
	push	eax
	call	_sprintf

; 2066 : #endif 
; 2067 :          outstring(msg); 

	mov	ecx, DWORD PTR _msg
	push	ecx
	call	_outstring

; 2068 :          if ( g->attr.varstuff.delta != OPTPARAM_DELTA 
; 2069 :            && g->attr.varstuff.delta != 0.0 )

	fld	QWORD PTR [ebx+168]
	fld	QWORD PTR __real@3f1a36e2eb1c432d
	add	esp, 20					; 00000014H
	fucompp
	fnstsw	ax
	test	ah, 68					; 00000044H
	jnp	SHORT $LN168@bottom_dum
	fld	QWORD PTR [ebx+168]
	fldz
	fucompp
	fnstsw	ax
	test	ah, 68					; 00000044H
	jnp	SHORT $LN168@bottom_dum

; 2070 :          {
; 2071 : #ifdef FLOAT128
; 2072 :             sprintf(msg,"%s.pdelta = %2.*Qg; ",g->name,DPREC,g->attr.varstuff.delta); 
; 2073 : #elif defined(LONGDOUBLE)
; 2074 :             sprintf(msg,"%s.pdelta = %2.*Lg; ",g->name,DPREC,g->attr.varstuff.delta); 
; 2075 : #else
; 2076 :             sprintf(msg,"%s.pdelta = %2.15g; ",g->name,g->attr.varstuff.delta); 

	fld	QWORD PTR [ebx+168]
	mov	edx, DWORD PTR _msg
	sub	esp, 8
	fstp	QWORD PTR [esp]
	push	ebx
	push	OFFSET ??_C@_0BF@ECEAIEOK@?$CFs?4pdelta?5?$DN?5?$CF2?415g?$DL?5?$AA@
	push	edx
	call	_sprintf

; 2077 : #endif 
; 2078 :             outstring(msg); 

	mov	eax, DWORD PTR _msg
	push	eax
	call	_outstring
	add	esp, 24					; 00000018H
$LN168@bottom_dum:

; 2079 :          }
; 2080 :          if ( g->attr.varstuff.pscale != 1.0 
; 2081 :            && g->attr.varstuff.pscale != 0.0 )

	fld	QWORD PTR [ebx+176]
	fld1
	fucompp
	fnstsw	ax
	test	ah, 68					; 00000044H
	jnp	SHORT $LN120@bottom_dum
	fld	QWORD PTR [ebx+176]
	fldz
	fucompp
	fnstsw	ax
	test	ah, 68					; 00000044H
	jnp	SHORT $LN120@bottom_dum

; 2082 :          {
; 2083 : #ifdef FLOAT128
; 2084 :             sprintf(msg,"%s.pscale = %2.*Qg ",g->name,DPREC,g->attr.varstuff.pscale); 
; 2085 : #elif defined(LONGDOUBLE)
; 2086 :             sprintf(msg,"%s.pscale = %2.*Lg ",g->name,DPREC,g->attr.varstuff.pscale); 
; 2087 : #else
; 2088 :             sprintf(msg,"%s.pscale = %2.15g ",g->name,g->attr.varstuff.pscale); 

	fld	QWORD PTR [ebx+176]
	mov	ecx, DWORD PTR _msg
	sub	esp, 8
	fstp	QWORD PTR [esp]
	push	ebx
	push	OFFSET ??_C@_0BE@DJIEBPB@?$CFs?4pscale?5?$DN?5?$CF2?415g?5?$AA@
	push	ecx
	call	_sprintf

; 2089 : #endif 
; 2090 :             outstring(msg); 

	mov	edx, DWORD PTR _msg
	push	edx
	call	_outstring
	add	esp, 24					; 00000018H
$LN120@bottom_dum:

; 2091 :          }
; 2092 :          outstring("\n"); 

	push	OFFSET ??_C@_01EEMJAFIK@?6?$AA@
	call	_outstring
	add	esp, 4
	jmp	$LN125@bottom_dum
$LN122@bottom_dum:

; 2093 :       }
; 2094 :       else if ( g->flags & ARRAY_PARAM )        

	test	eax, 2048				; 00000800H
	je	$LN125@bottom_dum

; 2095 :       { struct array *a = g->attr.arrayptr;

	mov	ecx, DWORD PTR [ebx+168]
	mov	DWORD PTR _a$90927[ebp], ecx

; 2096 :         if ( !(g->flags & INTERNAL_NAME) )

	test	eax, 4194304				; 00400000H
	jne	$LN125@bottom_dum

; 2097 :           if ( a )  /* declaration might not have been executed */

	test	ecx, ecx
	je	$LN125@bottom_dum

; 2098 :           { int j;
; 2099 :             sprintf(msg,"define %s",g->name);

	mov	eax, DWORD PTR _msg
	push	ebx
	push	OFFSET ??_C@_09CDKNMAHF@define?5?$CFs?$AA@
	push	eax
	call	_sprintf

; 2100 :             strcat(msg," ");

	mov	edi, DWORD PTR _msg
	add	esp, 12					; 0000000cH
	dec	edi
$LL161@bottom_dum:
	mov	al, BYTE PTR [edi+1]
	inc	edi
	test	al, al
	jne	SHORT $LL161@bottom_dum
	mov	cx, WORD PTR ??_C@_01CLKCMJKC@?5?$AA@
	mov	WORD PTR [edi], cx

; 2101 :             strcat(msg,datatype_name[g->type]);

	mov	edx, DWORD PTR [ebx+200]
	mov	eax, DWORD PTR _datatype_name[edx*4]
	mov	esi, eax
$LL162@bottom_dum:
	mov	cl, BYTE PTR [eax]
	inc	eax
	test	cl, cl
	jne	SHORT $LL162@bottom_dum
	mov	edi, DWORD PTR _msg
	sub	eax, esi
	dec	edi
$LL163@bottom_dum:
	mov	cl, BYTE PTR [edi+1]
	inc	edi
	test	cl, cl
	jne	SHORT $LL163@bottom_dum
	mov	ecx, eax
	shr	ecx, 2
	rep movsd
	mov	ecx, eax

; 2102 :             for ( j = 0 ; j < a->dim ; j++ )

	mov	eax, DWORD PTR _a$90927[ebp]
	and	ecx, 3
	rep movsb
	xor	esi, esi
	cmp	DWORD PTR [eax+4], esi
	jle	SHORT $LN113@bottom_dum

; 2098 :           { int j;
; 2099 :             sprintf(msg,"define %s",g->name);

	mov	edi, eax
	add	edi, 24					; 00000018H
	npad	10
$LL115@bottom_dum:

; 2103 :               sprintf(msg+strlen(msg),"[%d]",a->sizes[j]);

	mov	edx, DWORD PTR _msg
	mov	eax, edx
	lea	ecx, DWORD PTR [eax+1]
	mov	DWORD PTR tv1825[ebp], ecx
	npad	2
$LL164@bottom_dum:
	mov	cl, BYTE PTR [eax]
	inc	eax
	test	cl, cl
	jne	SHORT $LL164@bottom_dum
	mov	ecx, DWORD PTR [edi]
	sub	eax, DWORD PTR tv1825[ebp]
	push	ecx
	add	eax, edx
	push	OFFSET ??_C@_04KBDJOJNB@?$FL?$CFd?$FN?$AA@
	push	eax
	call	_sprintf
	mov	edx, DWORD PTR _a$90927[ebp]
	inc	esi
	add	esp, 12					; 0000000cH
	add	edi, 4
	cmp	esi, DWORD PTR [edx+4]
	jl	SHORT $LL115@bottom_dum
$LN113@bottom_dum:

; 2104 :             outstring(msg);

	mov	eax, DWORD PTR _msg
	push	eax
	call	_outstring

; 2105 :             outstring("\n");

	push	OFFSET ??_C@_01EEMJAFIK@?6?$AA@
	call	_outstring

; 2106 :             sprintf(msg,"%s = \n",g->name);

	mov	ecx, DWORD PTR _msg
	push	ebx
	push	OFFSET ??_C@_06HDICOIMH@?$CFs?5?$DN?5?6?$AA@
	push	ecx
	call	_sprintf

; 2107 :             print_array(a,NULL,PRINT_DUMP);

	mov	edx, DWORD PTR _a$90927[ebp]
	push	1002					; 000003eaH
	push	0
	push	edx
	call	_print_array

; 2108 :             outstring("\n");

	push	OFFSET ??_C@_01EEMJAFIK@?6?$AA@
	call	_outstring
	add	esp, 36					; 00000024H
$LN125@bottom_dum:

; 2049 :     }
; 2050 :   }  
; 2051 :   
; 2052 :   /* "no_dump" global variables */
; 2053 :   for ( i = 0 ; i < web.global_count ; i++ )

