; Listing generated by Microsoft (R) Optimizing Compiler Version 16.00.40219.01 

	TITLE	C:\levolver\yonkang-sefit\levolver\ev_ogl\EVALTREE.C
	.686P
	.XMM
	include listing.inc
	.model	flat

INCLUDELIB LIBCMT
INCLUDELIB OLDNAMES

_DATA	SEGMENT
COMM	_debugging_flag:DWORD
COMM	_breakcount:DWORD
COMM	_subshell_frame:DWORD:064H
COMM	_current_debug_line:DWORD
COMM	_breaklist:QWORD:064H
_DATA	ENDS
PUBLIC	_set_attr
EXTRN	_web:BYTE
; Function compile flags: /Ogtp
; File c:\levolver\yonkang-sefit\levolver\ev_ogl\inline.h
;	COMDAT _set_attr
_TEXT	SEGMENT
_id$ = 8						; size = 4
_attrib$ = 12						; size = 8
_set_attr PROC						; COMDAT

; 21   : {

	push	ebp
	mov	ebp, esp

; 22   :   elptr(id)->attr |= attrib;

	mov	eax, DWORD PTR _id$[ebp]
	mov	ecx, eax
	shr	ecx, 29					; 0000001dH
	imul	ecx, 112				; 00000070H
	mov	edx, DWORD PTR _web[ecx+12]
	mov	ecx, DWORD PTR _attrib$[ebp]
	and	eax, 134217727				; 07ffffffH
	mov	eax, DWORD PTR [edx+eax*4]
	mov	edx, DWORD PTR _attrib$[ebp+4]
	or	DWORD PTR [eax+8], ecx
	or	DWORD PTR [eax+12], edx

; 23   : }

	pop	ebp
	ret	0
_set_attr ENDP
_TEXT	ENDS
PUBLIC	_unset_attr
; Function compile flags: /Ogtp
;	COMDAT _unset_attr
_TEXT	SEGMENT
_id$ = 8						; size = 4
_attrib$ = 12						; size = 8
_unset_attr PROC					; COMDAT

; 28   : {

	push	ebp
	mov	ebp, esp

; 29   :   elptr(id)->attr &= ~attrib;

	mov	eax, DWORD PTR _id$[ebp]
	mov	ecx, eax
	shr	ecx, 29					; 0000001dH
	imul	ecx, 112				; 00000070H
	mov	edx, DWORD PTR _web[ecx+12]
	mov	ecx, DWORD PTR _attrib$[ebp]
	and	eax, 134217727				; 07ffffffH
	mov	eax, DWORD PTR [edx+eax*4]
	mov	edx, DWORD PTR _attrib$[ebp+4]
	not	ecx
	and	DWORD PTR [eax+8], ecx
	not	edx
	and	DWORD PTR [eax+12], edx

; 30   : }

	pop	ebp
	ret	0
_unset_attr ENDP
_TEXT	ENDS
PUBLIC	_get_fe_edge
; Function compile flags: /Ogtp
;	COMDAT _get_fe_edge
_TEXT	SEGMENT
_fe_id$ = 8						; size = 4
_get_fe_edge PROC					; COMDAT

; 43   : {

	push	ebp
	mov	ebp, esp

; 44   :   edge_id e_id;
; 45   :     
; 46   :   e_id = feptr(fe_id)->fe_edge_id;

	mov	eax, DWORD PTR _fe_id$[ebp]

; 47   : 
; 48   :   /*
; 49   :   if ( inverted(fe_id) ) invert(e_id);
; 50   :   return e_id;
; 51   :   */
; 52   :   
; 53   :   return same_sign(e_id,fe_id);

	mov	edx, DWORD PTR _web+460
	mov	ecx, eax
	and	ecx, 134217727				; 07ffffffH
	mov	ecx, DWORD PTR [edx+ecx*4]
	and	eax, 134217728				; 08000000H
	xor	eax, DWORD PTR [ecx+20]

; 54   : }

	pop	ebp
	ret	0
_get_fe_edge ENDP
_TEXT	ENDS
PUBLIC	_get_fe_facet
EXTRN	_NULLFACET:DWORD
; Function compile flags: /Ogtp
;	COMDAT _get_fe_facet
_TEXT	SEGMENT
_fe_id$ = 8						; size = 4
_get_fe_facet PROC					; COMDAT

; 58   : {

	push	ebp
	mov	ebp, esp

; 59   :   facet_id f_id;
; 60   :   
; 61   :   if ( !valid_id(fe_id) ) return NULLFACET;

	mov	ecx, DWORD PTR _fe_id$[ebp]
	test	ecx, 268435456				; 10000000H
	jne	SHORT $LN2@get_fe_fac
	mov	eax, DWORD PTR _NULLFACET

; 64   :   return f_id;
; 65   : }

	pop	ebp
	ret	0
$LN2@get_fe_fac:

; 62   :   f_id = feptr(fe_id)->fe_facet_id;

	mov	edx, DWORD PTR _web+460
	mov	eax, ecx
	and	eax, 134217727				; 07ffffffH
	mov	eax, DWORD PTR [edx+eax*4]
	mov	eax, DWORD PTR [eax+24]

; 63   :   if ( inverted(fe_id) ) invert(f_id);

	test	ecx, 134217728				; 08000000H
	je	SHORT $LN3@get_fe_fac
	xor	eax, 134217728				; 08000000H
$LN3@get_fe_fac:

; 64   :   return f_id;
; 65   : }

	pop	ebp
	ret	0
_get_fe_facet ENDP
_TEXT	ENDS
PUBLIC	_get_prev_edge
; Function compile flags: /Ogtp
;	COMDAT _get_prev_edge
_TEXT	SEGMENT
_fe_id$ = 8						; size = 4
_get_prev_edge PROC					; COMDAT

; 69   : {

	push	ebp
	mov	ebp, esp

; 70   :   if ( inverted(fe_id) ) return inverse_id(feptr(fe_id)->nextedge[1]);

	mov	eax, DWORD PTR _fe_id$[ebp]
	mov	ecx, DWORD PTR _web+460
	test	eax, 134217728				; 08000000H
	je	SHORT $LN2@get_prev_e
	and	eax, 134217727				; 07ffffffH
	mov	edx, DWORD PTR [ecx+eax*4]
	mov	eax, DWORD PTR [edx+32]
	xor	eax, 134217728				; 08000000H

; 72   : }

	pop	ebp
	ret	0
$LN2@get_prev_e:

; 71   :   else return feptr(fe_id)->nextedge[0];

	and	eax, 134217727				; 07ffffffH
	mov	edx, DWORD PTR [ecx+eax*4]
	mov	eax, DWORD PTR [edx+28]

; 72   : }

	pop	ebp
	ret	0
_get_prev_edge ENDP
_TEXT	ENDS
PUBLIC	_get_next_edge
; Function compile flags: /Ogtp
;	COMDAT _get_next_edge
_TEXT	SEGMENT
_fe_id$ = 8						; size = 4
_get_next_edge PROC					; COMDAT

; 76   : {

	push	ebp
	mov	ebp, esp

; 77   :   if ( inverted(fe_id) ) return inverse_id(feptr(fe_id)->nextedge[0]);

	mov	eax, DWORD PTR _fe_id$[ebp]
	mov	ecx, DWORD PTR _web+460
	test	eax, 134217728				; 08000000H
	je	SHORT $LN2@get_next_e
	and	eax, 134217727				; 07ffffffH
	mov	edx, DWORD PTR [ecx+eax*4]
	mov	eax, DWORD PTR [edx+28]
	xor	eax, 134217728				; 08000000H

; 79   : }

	pop	ebp
	ret	0
$LN2@get_next_e:

; 78   :   else return feptr(fe_id)->nextedge[1];

	and	eax, 134217727				; 07ffffffH
	mov	edx, DWORD PTR [ecx+eax*4]
	mov	eax, DWORD PTR [edx+32]

; 79   : }

	pop	ebp
	ret	0
_get_next_edge ENDP
_TEXT	ENDS
PUBLIC	_get_prev_facet
; Function compile flags: /Ogtp
;	COMDAT _get_prev_facet
_TEXT	SEGMENT
_fe_id$ = 8						; size = 4
_get_prev_facet PROC					; COMDAT

; 83   : {

	push	ebp
	mov	ebp, esp

; 84   :   if ( inverted(fe_id) ) 

	mov	eax, DWORD PTR _fe_id$[ebp]

; 85   :     return inverse_id(feptr(fe_id)->nextfacet[1]);

	mov	ecx, DWORD PTR _web+460
	test	eax, 134217728				; 08000000H
	je	SHORT $LN2@get_prev_f
	and	eax, 134217727				; 07ffffffH
	mov	edx, DWORD PTR [ecx+eax*4]
	mov	eax, DWORD PTR [edx+40]
	xor	eax, 134217728				; 08000000H

; 88   : }

	pop	ebp
	ret	0
$LN2@get_prev_f:

; 86   :   else 
; 87   :     return feptr(fe_id)->nextfacet[0];

	and	eax, 134217727				; 07ffffffH
	mov	edx, DWORD PTR [ecx+eax*4]
	mov	eax, DWORD PTR [edx+36]

; 88   : }

	pop	ebp
	ret	0
_get_prev_facet ENDP
_TEXT	ENDS
PUBLIC	_get_next_facet
; Function compile flags: /Ogtp
;	COMDAT _get_next_facet
_TEXT	SEGMENT
_fe_id$ = 8						; size = 4
_get_next_facet PROC					; COMDAT

; 92   : {

	push	ebp
	mov	ebp, esp

; 93   :   if ( inverted(fe_id) ) 

	mov	eax, DWORD PTR _fe_id$[ebp]

; 94   :     return inverse_id(feptr(fe_id)->nextfacet[0]);

	mov	ecx, DWORD PTR _web+460
	test	eax, 134217728				; 08000000H
	je	SHORT $LN2@get_next_f
	and	eax, 134217727				; 07ffffffH
	mov	edx, DWORD PTR [ecx+eax*4]
	mov	eax, DWORD PTR [edx+36]
	xor	eax, 134217728				; 08000000H

; 97   : }

	pop	ebp
	ret	0
$LN2@get_next_f:

; 95   :   else 
; 96   :     return feptr(fe_id)->nextfacet[1];

	and	eax, 134217727				; 07ffffffH
	mov	edx, DWORD PTR [ecx+eax*4]
	mov	eax, DWORD PTR [edx+40]

; 97   : }

	pop	ebp
	ret	0
_get_next_facet ENDP
_TEXT	ENDS
PUBLIC	_get_edge_wrap
EXTRN	_sym_inverse:DWORD
EXTRN	_dymem:DWORD
; Function compile flags: /Ogtp
;	COMDAT _get_edge_wrap
_TEXT	SEGMENT
_e_id$ = 8						; size = 4
_get_edge_wrap PROC					; COMDAT

; 163  : {

	push	ebp
	mov	ebp, esp

; 164  :   WRAPTYPE wrap = *EINT(e_id,E_WRAP_ATTR) ;

	mov	ecx, DWORD PTR _e_id$[ebp]
	mov	edx, DWORD PTR _web+124
	mov	eax, ecx
	and	eax, 134217727				; 07ffffffH
	mov	eax, DWORD PTR [edx+eax*4]
	mov	edx, DWORD PTR _web+216
	push	esi
	mov	esi, DWORD PTR _dymem
	mov	edx, DWORD PTR [edx+esi+784]
	mov	eax, DWORD PTR [eax+edx]
	pop	esi

; 165  :   return    ( inverted(e_id) ? (*sym_inverse)(wrap) : wrap );

	test	ecx, 134217728				; 08000000H
	je	SHORT $LN4@get_edge_w
	push	eax
	call	DWORD PTR _sym_inverse
	add	esp, 4
$LN4@get_edge_w:

; 166  : }

	pop	ebp
	ret	0
_get_edge_wrap ENDP
_TEXT	ENDS
PUBLIC	_get_edge_fe
; Function compile flags: /Ogtp
;	COMDAT _get_edge_fe
_TEXT	SEGMENT
_e_id$ = 8						; size = 4
_get_edge_fe PROC					; COMDAT

; 179  : {   struct edge *ep;

	push	ebp
	mov	ebp, esp

; 180  :     facetedge_id fe;
; 181  : 
; 182  :  	ep = eptr(e_id);

	mov	ecx, DWORD PTR _e_id$[ebp]
	mov	edx, DWORD PTR _web+124
	mov	eax, ecx
	and	eax, 134217727				; 07ffffffH
	mov	eax, DWORD PTR [edx+eax*4]

; 183  :     if ( !ep ) return NULLID;

	test	eax, eax
	jne	SHORT $LN2@get_edge_f

; 186  :     return fe;
; 187  : }

	pop	ebp
	ret	0
$LN2@get_edge_f:

; 184  :     fe = ep->fe_id; 

	mov	eax, DWORD PTR [eax+28]

; 185  :     if ( inverted(e_id) ) invert(fe);

	test	ecx, 134217728				; 08000000H
	je	SHORT $LN3@get_edge_f
	xor	eax, 134217728				; 08000000H
$LN3@get_edge_f:

; 186  :     return fe;
; 187  : }

	pop	ebp
	ret	0
_get_edge_fe ENDP
_TEXT	ENDS
PUBLIC	_get_edge_tailv
; Function compile flags: /Ogtp
;	COMDAT _get_edge_tailv
_TEXT	SEGMENT
_e_id$ = 8						; size = 4
_get_edge_tailv PROC					; COMDAT

; 191  : {

	push	ebp
	mov	ebp, esp

; 192  :   if ( inverted(e_id) )

	mov	eax, DWORD PTR _e_id$[ebp]

; 193  :      return get_edge_vertices(e_id)[web.headvnum];

	mov	ecx, DWORD PTR _web+124
	test	eax, 134217728				; 08000000H
	je	SHORT $LN2@get_edge_t
	and	eax, 134217727				; 07ffffffH
	mov	edx, DWORD PTR [ecx+eax*4]
	mov	eax, DWORD PTR _web+216
	mov	ecx, DWORD PTR _dymem
	add	edx, DWORD PTR [eax+ecx+304]
	mov	eax, DWORD PTR _web+636
	mov	eax, DWORD PTR [edx+eax*4]

; 196  : }

	pop	ebp
	ret	0
$LN2@get_edge_t:

; 194  :   else
; 195  :      return get_edge_vertices(e_id)[0];

	and	eax, 134217727				; 07ffffffH
	mov	edx, DWORD PTR [ecx+eax*4]
	mov	eax, DWORD PTR _web+216
	mov	ecx, DWORD PTR _dymem
	mov	eax, DWORD PTR [eax+ecx+304]
	mov	eax, DWORD PTR [edx+eax]

; 196  : }

	pop	ebp
	ret	0
_get_edge_tailv ENDP
_TEXT	ENDS
PUBLIC	_get_edge_headv
; Function compile flags: /Ogtp
;	COMDAT _get_edge_headv
_TEXT	SEGMENT
_e_id$ = 8						; size = 4
_get_edge_headv PROC					; COMDAT

; 200  : {

	push	ebp
	mov	ebp, esp

; 201  :   if ( inverted(e_id) )

	mov	eax, DWORD PTR _e_id$[ebp]

; 202  :      return get_edge_vertices(e_id)[0];

	mov	ecx, DWORD PTR _web+124
	test	eax, 134217728				; 08000000H
	je	SHORT $LN2@get_edge_h
	and	eax, 134217727				; 07ffffffH
	mov	edx, DWORD PTR [ecx+eax*4]
	mov	eax, DWORD PTR _web+216
	mov	ecx, DWORD PTR _dymem
	mov	eax, DWORD PTR [eax+ecx+304]
	mov	eax, DWORD PTR [edx+eax]

; 205  : }

	pop	ebp
	ret	0
$LN2@get_edge_h:

; 203  :   else
; 204  :      return get_edge_vertices(e_id)[web.headvnum];

	and	eax, 134217727				; 07ffffffH
	mov	edx, DWORD PTR [ecx+eax*4]
	mov	eax, DWORD PTR _web+216
	mov	ecx, DWORD PTR _dymem
	add	edx, DWORD PTR [eax+ecx+304]
	mov	eax, DWORD PTR _web+636
	mov	eax, DWORD PTR [edx+eax*4]

; 205  : }

	pop	ebp
	ret	0
_get_edge_headv ENDP
_TEXT	ENDS
PUBLIC	_get_facet_body
; Function compile flags: /Ogtp
;	COMDAT _get_facet_body
_TEXT	SEGMENT
_f_id$ = 8						; size = 4
_get_facet_body PROC					; COMDAT

; 250  : {

	push	ebp
	mov	ebp, esp

; 251  :   if ( web.skel[BODY].count == 0 ) return NULLID;

	cmp	DWORD PTR _web+400, 0
	jne	SHORT $LN4@get_facet_
$LN7@get_facet_:
	xor	eax, eax

; 255  : }

	pop	ebp
	ret	0
$LN4@get_facet_:

; 252  :   if ( !valid_id(f_id) ) return NULLID;

	mov	eax, DWORD PTR _f_id$[ebp]
	test	eax, 268435456				; 10000000H
	je	SHORT $LN7@get_facet_

; 253  :   if ( inverted(f_id) ) return F_ELID(f_id,F_BODY_LIST_ATTR)[1];

	mov	ecx, DWORD PTR _web+236
	test	eax, 134217728				; 08000000H
	je	SHORT $LN2@get_facet_
	and	eax, 134217727				; 07ffffffH
	mov	edx, DWORD PTR [ecx+eax*4]
	mov	eax, DWORD PTR _web+328
	mov	ecx, DWORD PTR _dymem
	mov	eax, DWORD PTR [eax+ecx+784]
	mov	eax, DWORD PTR [edx+eax+4]

; 255  : }

	pop	ebp
	ret	0
$LN2@get_facet_:

; 254  :   else  return F_ELID(f_id,F_BODY_LIST_ATTR)[0];

	and	eax, 134217727				; 07ffffffH
	mov	edx, DWORD PTR [ecx+eax*4]
	mov	eax, DWORD PTR _web+328
	mov	ecx, DWORD PTR _dymem
	mov	eax, DWORD PTR [eax+ecx+784]
	mov	eax, DWORD PTR [edx+eax]

; 255  : }

	pop	ebp
	ret	0
_get_facet_body ENDP
_TEXT	ENDS
PUBLIC	_get_facet_fe
; Function compile flags: /Ogtp
;	COMDAT _get_facet_fe
_TEXT	SEGMENT
_f_id$ = 8						; size = 4
_get_facet_fe PROC					; COMDAT

; 260  : {

	push	ebp
	mov	ebp, esp

; 261  :   facetedge_id fe;
; 262  :   
; 263  :   if ( !valid_id(f_id) ) return NULLID;

	mov	ecx, DWORD PTR _f_id$[ebp]
	test	ecx, 268435456				; 10000000H
	jne	SHORT $LN2@get_facet_@2
	xor	eax, eax

; 266  :   return fe;
; 267  : }

	pop	ebp
	ret	0
$LN2@get_facet_@2:

; 264  :   fe = fptr(f_id)->fe_id;

	mov	edx, DWORD PTR _web+236
	mov	eax, ecx
	and	eax, 134217727				; 07ffffffH
	mov	eax, DWORD PTR [edx+eax*4]
	mov	eax, DWORD PTR [eax+28]

; 265  :   if ( inverted(f_id) ) invert(fe);

	test	ecx, 134217728				; 08000000H
	je	SHORT $LN3@get_facet_@2
	xor	eax, 134217728				; 08000000H
$LN3@get_facet_@2:

; 266  :   return fe;
; 267  : }

	pop	ebp
	ret	0
_get_facet_fe ENDP
_TEXT	ENDS
PUBLIC	_get_next_tail_edge
; Function compile flags: /Ogtp
;	COMDAT _get_next_tail_edge
_TEXT	SEGMENT
_e_id$ = 8						; size = 4
_get_next_tail_edge PROC				; COMDAT

; 270  : { return eptr(e_id)->next_vedge[inverted(e_id) ?1: 0] ; }

	push	ebp
	mov	ebp, esp
	mov	eax, DWORD PTR _e_id$[ebp]
	mov	edx, DWORD PTR _web+124
	mov	ecx, eax
	shr	ecx, 27					; 0000001bH
	and	ecx, 1
	and	eax, 134217727				; 07ffffffH
	mov	eax, DWORD PTR [edx+eax*4]
	mov	eax, DWORD PTR [eax+ecx*4+32]
	pop	ebp
	ret	0
_get_next_tail_edge ENDP
_TEXT	ENDS
PUBLIC	_get_body_facet
; Function compile flags: /Ogtp
;	COMDAT _get_body_facet
_TEXT	SEGMENT
_b_id$ = 8						; size = 4
_get_body_facet PROC					; COMDAT

; 279  : { return ( valid_id(b_id) ? bptr(b_id)->f_id : NULLID ); }

	push	ebp
	mov	ebp, esp
	mov	eax, DWORD PTR _b_id$[ebp]
	test	eax, 268435456				; 10000000H
	je	SHORT $LN3@get_body_f
	mov	ecx, DWORD PTR _web+348
	and	eax, 134217727				; 07ffffffH
	mov	edx, DWORD PTR [ecx+eax*4]
	mov	eax, DWORD PTR [edx+400]
	pop	ebp
	ret	0
$LN3@get_body_f:
	xor	eax, eax
	pop	ebp
	ret	0
_get_body_facet ENDP
_TEXT	ENDS
PUBLIC	__real@0000000000000000
PUBLIC	_get_body_density
EXTRN	__fltused:DWORD
;	COMDAT __real@0000000000000000
CONST	SEGMENT
__real@0000000000000000 DQ 00000000000000000r	; 0
; Function compile flags: /Ogtp
CONST	ENDS
;	COMDAT _get_body_density
_TEXT	SEGMENT
_b_id$ = 8						; size = 4
_get_body_density PROC					; COMDAT

; 305  :     { return  ( valid_id(b_id) ?  bptr(b_id)->density : 0.0 ) ; }

	push	ebp
	mov	ebp, esp
	mov	eax, DWORD PTR _b_id$[ebp]
	test	eax, 268435456				; 10000000H
	je	SHORT $LN3@get_body_d
	mov	ecx, DWORD PTR _web+348
	and	eax, 134217727				; 07ffffffH
	mov	edx, DWORD PTR [ecx+eax*4]
	fld	QWORD PTR [edx+344]
	pop	ebp
	ret	0
$LN3@get_body_d:
	fldz
	pop	ebp
	ret	0
_get_body_density ENDP
_TEXT	ENDS
PUBLIC	_get_body_volume
; Function compile flags: /Ogtp
;	COMDAT _get_body_volume
_TEXT	SEGMENT
_b_id$ = 8						; size = 4
_get_body_volume PROC					; COMDAT

; 308  :     { return    ( valid_id(b_id) ?  bptr(b_id)->volume : 0.0 ) ; }

	push	ebp
	mov	ebp, esp
	mov	eax, DWORD PTR _b_id$[ebp]
	test	eax, 268435456				; 10000000H
	je	SHORT $LN3@get_body_v
	mov	ecx, DWORD PTR _web+348
	and	eax, 134217727				; 07ffffffH
	mov	edx, DWORD PTR [ecx+eax*4]
	fld	QWORD PTR [edx+40]
	pop	ebp
	ret	0
$LN3@get_body_v:
	fldz
	pop	ebp
	ret	0
_get_body_volume ENDP
_TEXT	ENDS
PUBLIC	_get_body_fixvol
; Function compile flags: /Ogtp
;	COMDAT _get_body_fixvol
_TEXT	SEGMENT
_b_id$ = 8						; size = 4
_get_body_fixvol PROC					; COMDAT

; 311  :      { return ( valid_id(b_id) ?  bptr(b_id)->fixvol : 0.0 ) ; }

	push	ebp
	mov	ebp, esp
	mov	eax, DWORD PTR _b_id$[ebp]
	test	eax, 268435456				; 10000000H
	je	SHORT $LN3@get_body_f@2
	mov	ecx, DWORD PTR _web+348
	and	eax, 134217727				; 07ffffffH
	mov	edx, DWORD PTR [ecx+eax*4]
	fld	QWORD PTR [edx+32]
	pop	ebp
	ret	0
$LN3@get_body_f@2:
	fldz
	pop	ebp
	ret	0
_get_body_fixvol ENDP
_TEXT	ENDS
PUBLIC	_get_body_pressure
; Function compile flags: /Ogtp
;	COMDAT _get_body_pressure
_TEXT	SEGMENT
_b_id$ = 8						; size = 4
_get_body_pressure PROC					; COMDAT

; 317  :     { return  ( valid_id(b_id) ?    bptr(b_id)->pressure : 0.0 ) ; }

	push	ebp
	mov	ebp, esp
	mov	eax, DWORD PTR _b_id$[ebp]
	test	eax, 268435456				; 10000000H
	je	SHORT $LN3@get_body_p
	mov	ecx, DWORD PTR _web+348
	and	eax, 134217727				; 07ffffffH
	mov	edx, DWORD PTR [ecx+eax*4]
	fld	QWORD PTR [edx+312]
	pop	ebp
	ret	0
$LN3@get_body_p:
	fldz
	pop	ebp
	ret	0
_get_body_pressure ENDP
_TEXT	ENDS
PUBLIC	_get_body_volconst
; Function compile flags: /Ogtp
;	COMDAT _get_body_volconst
_TEXT	SEGMENT
_b_id$ = 8						; size = 4
_get_body_volconst PROC					; COMDAT

; 320  :   { return    ( valid_id(b_id) ?  bptr(b_id)->volconst : 0.0 ) ; }

	push	ebp
	mov	ebp, esp
	mov	eax, DWORD PTR _b_id$[ebp]
	test	eax, 268435456				; 10000000H
	je	SHORT $LN3@get_body_v@2
	mov	ecx, DWORD PTR _web+348
	and	eax, 134217727				; 07ffffffH
	mov	edx, DWORD PTR [ecx+eax*4]
	fld	QWORD PTR [edx+328]
	pop	ebp
	ret	0
$LN3@get_body_v@2:
	fldz
	pop	ebp
	ret	0
_get_body_volconst ENDP
_TEXT	ENDS
PUBLIC	_set_body_density
; Function compile flags: /Ogtp
;	COMDAT _set_body_density
_TEXT	SEGMENT
_b_id$ = 8						; size = 4
_v$ = 12						; size = 8
_set_body_density PROC					; COMDAT

; 323  :       {         ( valid_id(b_id) ?  bptr(b_id)->density = (v) : 0.0 ) ; }

	push	ebp
	mov	ebp, esp
	mov	eax, DWORD PTR _b_id$[ebp]
	test	eax, 268435456				; 10000000H
	je	SHORT $LN3@set_body_d
	mov	ecx, DWORD PTR _web+348
	fld	QWORD PTR _v$[ebp]
	and	eax, 134217727				; 07ffffffH
	mov	edx, DWORD PTR [ecx+eax*4]
	fstp	QWORD PTR [edx+344]
$LN3@set_body_d:
	pop	ebp
	ret	0
_set_body_density ENDP
_TEXT	ENDS
PUBLIC	_set_body_pressure
; Function compile flags: /Ogtp
;	COMDAT _set_body_pressure
_TEXT	SEGMENT
_b_id$ = 8						; size = 4
_v$ = 12						; size = 8
_set_body_pressure PROC					; COMDAT

; 326  :       {         ( valid_id(b_id) ?  bptr(b_id)->pressure = (v) : 0.0 ) ; }

	push	ebp
	mov	ebp, esp
	mov	eax, DWORD PTR _b_id$[ebp]
	test	eax, 268435456				; 10000000H
	je	SHORT $LN3@set_body_p
	mov	ecx, DWORD PTR _web+348
	fld	QWORD PTR _v$[ebp]
	and	eax, 134217727				; 07ffffffH
	mov	edx, DWORD PTR [ecx+eax*4]
	fstp	QWORD PTR [edx+312]
$LN3@set_body_p:
	pop	ebp
	ret	0
_set_body_pressure ENDP
_TEXT	ENDS
PUBLIC	_get_extra
; Function compile flags: /Ogtp
;	COMDAT _get_extra
_TEXT	SEGMENT
_id$ = 8						; size = 4
_n$ = 12						; size = 4
_get_extra PROC						; COMDAT

; 348  : { int type = id_type(id);

	push	ebp
	mov	ebp, esp

; 349  : 
; 350  :   return ( (char*)elptr(id) + EXTRAS(type)[n].offset);

	mov	ecx, DWORD PTR _id$[ebp]
	mov	eax, ecx
	push	esi
	mov	esi, DWORD PTR _n$[ebp]
	shr	eax, 29					; 0000001dH
	imul	esi, 240				; 000000f0H
	imul	eax, 112				; 00000070H
	mov	edx, DWORD PTR _web[eax+12]
	push	edi
	mov	edi, DWORD PTR _web[eax+104]
	and	ecx, 134217727				; 07ffffffH
	mov	eax, DWORD PTR [edx+ecx*4]
	mov	ecx, DWORD PTR _dymem
	add	edi, esi
	add	eax, DWORD PTR [edi+ecx+64]
	pop	edi
	pop	esi

; 351  : }

	pop	ebp
	ret	0
_get_extra ENDP
_TEXT	ENDS
PUBLIC	_get_meth_offset
; Function compile flags: /Ogtp
;	COMDAT _get_meth_offset
_TEXT	SEGMENT
_type$ = 8						; size = 4
_get_meth_offset PROC					; COMDAT

; 376  : { int meth_offset;

	push	ebp
	mov	ebp, esp

; 377  :   meth_offset = EXTRAS(type)[web.meth_attr[type]].offset; 

	mov	eax, DWORD PTR _type$[ebp]
	mov	ecx, DWORD PTR _web[eax*4+5664]
	imul	eax, 112				; 00000070H

; 378  :   return meth_offset;

	mov	edx, DWORD PTR _dymem
	imul	ecx, 240				; 000000f0H
	add	ecx, DWORD PTR _web[eax+104]
	mov	eax, DWORD PTR [ecx+edx+64]

; 379  : }

	pop	ebp
	ret	0
_get_meth_offset ENDP
_TEXT	ENDS
PUBLIC	??_C@_0O@NNFNJGIL@T1?5swaps?3?5?$CFd?6?$AA@	; `string'
PUBLIC	??_C@_0BD@BBGPJFJF@Edges?5swapped?3?5?$CFd?6?$AA@ ; `string'
PUBLIC	??_C@_0BM@KACBHHOP@pop_quad_to_quad?5count?3?5?$CFd?6?$AA@ ; `string'
PUBLIC	??_C@_0BL@PEDKAOCI@pop_edge_to_tri?5count?3?5?$CFd?6?$AA@ ; `string'
PUBLIC	??_C@_0BL@JEEKMHGC@pop_tri_to_edge?5count?3?5?$CFd?6?$AA@ ; `string'
PUBLIC	??_C@_0BC@BGIMLONO@Edges?5popped?3?5?$CFd?6?$AA@ ; `string'
PUBLIC	??_C@_0BF@CLGHNEFK@Vertices?5popped?3?5?$CFd?6?$AA@ ; `string'
PUBLIC	??_C@_0BF@DMMMGPBB@Facets?5reversed?3?5?$CFd?6?$AA@ ; `string'
PUBLIC	??_C@_0BE@PLMNHAIE@Edges?5reversed?3?5?$CFd?6?$AA@ ; `string'
PUBLIC	??_C@_0BG@PPJACOKD@Bodies?5dissolved?3?5?$CFd?6?$AA@ ; `string'
PUBLIC	??_C@_0BG@LAICONBO@Facets?5dissolved?3?5?$CFd?6?$AA@ ; `string'
PUBLIC	??_C@_0BF@DACAILMK@Edges?5dissolved?3?5?$CFd?6?$AA@ ; `string'
PUBLIC	??_C@_0BI@HONGIAHG@Vertices?5dissolved?3?5?$CFd?6?$AA@ ; `string'
PUBLIC	??_C@_0BE@GMOPDIEK@Facets?5refined?3?5?$CFd?6?$AA@ ; `string'
PUBLIC	??_C@_0BD@LKFIBJDB@Edges?5refined?3?5?$CFd?6?$AA@ ; `string'
PUBLIC	??_C@_0BE@LJHADBKI@Facets?5deleted?3?5?$CFd?6?$AA@ ; `string'
PUBLIC	??_C@_0BD@GPMHBAND@Edges?5deleted?3?5?$CFd?6?$AA@ ; `string'
PUBLIC	??_C@_0BJ@GPJLFDDO@Edges?5equiangulated?3?5?$CFd?6?$AA@ ; `string'
PUBLIC	??_C@_0N@FKKKIJJJ@Unfixed?3?5?$CFd?6?$AA@	; `string'
PUBLIC	??_C@_0L@GNADMKFE@Fixed?3?5?$CFd?6?$AA@		; `string'
PUBLIC	_flush_counts
EXTRN	_outstring:PROC
EXTRN	_sprintf:PROC
EXTRN	_msg:DWORD
;	COMDAT ??_C@_0O@NNFNJGIL@T1?5swaps?3?5?$CFd?6?$AA@
; File c:\levolver\yonkang-sefit\levolver\ev_ogl\evaltree.c
CONST	SEGMENT
??_C@_0O@NNFNJGIL@T1?5swaps?3?5?$CFd?6?$AA@ DB 'T1 swaps: %d', 0aH, 00H ; `string'
CONST	ENDS
;	COMDAT ??_C@_0BD@BBGPJFJF@Edges?5swapped?3?5?$CFd?6?$AA@
CONST	SEGMENT
??_C@_0BD@BBGPJFJF@Edges?5swapped?3?5?$CFd?6?$AA@ DB 'Edges swapped: %d', 0aH
	DB	00H						; `string'
CONST	ENDS
;	COMDAT ??_C@_0BM@KACBHHOP@pop_quad_to_quad?5count?3?5?$CFd?6?$AA@
CONST	SEGMENT
??_C@_0BM@KACBHHOP@pop_quad_to_quad?5count?3?5?$CFd?6?$AA@ DB 'pop_quad_t'
	DB	'o_quad count: %d', 0aH, 00H			; `string'
CONST	ENDS
;	COMDAT ??_C@_0BL@PEDKAOCI@pop_edge_to_tri?5count?3?5?$CFd?6?$AA@
CONST	SEGMENT
??_C@_0BL@PEDKAOCI@pop_edge_to_tri?5count?3?5?$CFd?6?$AA@ DB 'pop_edge_to'
	DB	'_tri count: %d', 0aH, 00H			; `string'
CONST	ENDS
;	COMDAT ??_C@_0BL@JEEKMHGC@pop_tri_to_edge?5count?3?5?$CFd?6?$AA@
CONST	SEGMENT
??_C@_0BL@JEEKMHGC@pop_tri_to_edge?5count?3?5?$CFd?6?$AA@ DB 'pop_tri_to_'
	DB	'edge count: %d', 0aH, 00H			; `string'
CONST	ENDS
;	COMDAT ??_C@_0BC@BGIMLONO@Edges?5popped?3?5?$CFd?6?$AA@
CONST	SEGMENT
??_C@_0BC@BGIMLONO@Edges?5popped?3?5?$CFd?6?$AA@ DB 'Edges popped: %d', 0aH
	DB	00H						; `string'
CONST	ENDS
;	COMDAT ??_C@_0BF@CLGHNEFK@Vertices?5popped?3?5?$CFd?6?$AA@
CONST	SEGMENT
??_C@_0BF@CLGHNEFK@Vertices?5popped?3?5?$CFd?6?$AA@ DB 'Vertices popped: '
	DB	'%d', 0aH, 00H				; `string'
CONST	ENDS
;	COMDAT ??_C@_0BF@DMMMGPBB@Facets?5reversed?3?5?$CFd?6?$AA@
CONST	SEGMENT
??_C@_0BF@DMMMGPBB@Facets?5reversed?3?5?$CFd?6?$AA@ DB 'Facets reversed: '
	DB	'%d', 0aH, 00H				; `string'
CONST	ENDS
;	COMDAT ??_C@_0BE@PLMNHAIE@Edges?5reversed?3?5?$CFd?6?$AA@
CONST	SEGMENT
??_C@_0BE@PLMNHAIE@Edges?5reversed?3?5?$CFd?6?$AA@ DB 'Edges reversed: %d'
	DB	0aH, 00H					; `string'
CONST	ENDS
;	COMDAT ??_C@_0BG@PPJACOKD@Bodies?5dissolved?3?5?$CFd?6?$AA@
CONST	SEGMENT
??_C@_0BG@PPJACOKD@Bodies?5dissolved?3?5?$CFd?6?$AA@ DB 'Bodies dissolved'
	DB	': %d', 0aH, 00H				; `string'
CONST	ENDS
;	COMDAT ??_C@_0BG@LAICONBO@Facets?5dissolved?3?5?$CFd?6?$AA@
CONST	SEGMENT
??_C@_0BG@LAICONBO@Facets?5dissolved?3?5?$CFd?6?$AA@ DB 'Facets dissolved'
	DB	': %d', 0aH, 00H				; `string'
CONST	ENDS
;	COMDAT ??_C@_0BF@DACAILMK@Edges?5dissolved?3?5?$CFd?6?$AA@
CONST	SEGMENT
??_C@_0BF@DACAILMK@Edges?5dissolved?3?5?$CFd?6?$AA@ DB 'Edges dissolved: '
	DB	'%d', 0aH, 00H				; `string'
CONST	ENDS
;	COMDAT ??_C@_0BI@HONGIAHG@Vertices?5dissolved?3?5?$CFd?6?$AA@
CONST	SEGMENT
??_C@_0BI@HONGIAHG@Vertices?5dissolved?3?5?$CFd?6?$AA@ DB 'Vertices disso'
	DB	'lved: %d', 0aH, 00H				; `string'
CONST	ENDS
;	COMDAT ??_C@_0BE@GMOPDIEK@Facets?5refined?3?5?$CFd?6?$AA@
CONST	SEGMENT
??_C@_0BE@GMOPDIEK@Facets?5refined?3?5?$CFd?6?$AA@ DB 'Facets refined: %d'
	DB	0aH, 00H					; `string'
CONST	ENDS
;	COMDAT ??_C@_0BD@LKFIBJDB@Edges?5refined?3?5?$CFd?6?$AA@
CONST	SEGMENT
??_C@_0BD@LKFIBJDB@Edges?5refined?3?5?$CFd?6?$AA@ DB 'Edges refined: %d', 0aH
	DB	00H						; `string'
CONST	ENDS
;	COMDAT ??_C@_0BE@LJHADBKI@Facets?5deleted?3?5?$CFd?6?$AA@
CONST	SEGMENT
??_C@_0BE@LJHADBKI@Facets?5deleted?3?5?$CFd?6?$AA@ DB 'Facets deleted: %d'
	DB	0aH, 00H					; `string'
CONST	ENDS
;	COMDAT ??_C@_0BD@GPMHBAND@Edges?5deleted?3?5?$CFd?6?$AA@
CONST	SEGMENT
??_C@_0BD@GPMHBAND@Edges?5deleted?3?5?$CFd?6?$AA@ DB 'Edges deleted: %d', 0aH
	DB	00H						; `string'
CONST	ENDS
;	COMDAT ??_C@_0BJ@GPJLFDDO@Edges?5equiangulated?3?5?$CFd?6?$AA@
CONST	SEGMENT
??_C@_0BJ@GPJLFDDO@Edges?5equiangulated?3?5?$CFd?6?$AA@ DB 'Edges equiang'
	DB	'ulated: %d', 0aH, 00H			; `string'
CONST	ENDS
;	COMDAT ??_C@_0N@FKKKIJJJ@Unfixed?3?5?$CFd?6?$AA@
CONST	SEGMENT
??_C@_0N@FKKKIJJJ@Unfixed?3?5?$CFd?6?$AA@ DB 'Unfixed: %d', 0aH, 00H ; `string'
CONST	ENDS
;	COMDAT ??_C@_0L@GNADMKFE@Fixed?3?5?$CFd?6?$AA@
CONST	SEGMENT
??_C@_0L@GNADMKFE@Fixed?3?5?$CFd?6?$AA@ DB 'Fixed: %d', 0aH, 00H ; `string'
; Function compile flags: /Ogtp
CONST	ENDS
;	COMDAT _flush_counts
_TEXT	SEGMENT
_flush_counts PROC					; COMDAT

; 6462 :      if ( web.counts_changed & fix_count_bit )

	test	DWORD PTR _web+5524, 524288		; 00080000H
	je	SHORT $LN20@flush_coun

; 6463 :      { sprintf(msg,"Fixed: %d\n",web.fix_count); outstring(msg); }

	mov	eax, DWORD PTR _web+5508
	mov	ecx, DWORD PTR _msg
	push	eax
	push	OFFSET ??_C@_0L@GNADMKFE@Fixed?3?5?$CFd?6?$AA@
	push	ecx
	call	_sprintf
	mov	edx, DWORD PTR _msg
	push	edx
	call	_outstring
	add	esp, 16					; 00000010H
$LN20@flush_coun:

; 6464 : 
; 6465 :      if ( web.counts_changed & unfix_count_bit )

	test	DWORD PTR _web+5524, 1048576		; 00100000H
	je	SHORT $LN19@flush_coun

; 6466 :      { sprintf(msg,"Unfixed: %d\n",web.unfix_count); outstring(msg); }

	mov	eax, DWORD PTR _web+5512
	mov	ecx, DWORD PTR _msg
	push	eax
	push	OFFSET ??_C@_0N@FKKKIJJJ@Unfixed?3?5?$CFd?6?$AA@
	push	ecx
	call	_sprintf
	mov	edx, DWORD PTR _msg
	push	edx
	call	_outstring
	add	esp, 16					; 00000010H
$LN19@flush_coun:

; 6467 : 
; 6468 :      if ( web.counts_changed & equi_count_bit )

	test	BYTE PTR _web+5524, 1
	je	SHORT $LN18@flush_coun

; 6469 :      { sprintf(msg,"Edges equiangulated: %d\n",web.equi_count); outstring(msg); }

	mov	eax, DWORD PTR _web+5432
	mov	ecx, DWORD PTR _msg
	push	eax
	push	OFFSET ??_C@_0BJ@GPJLFDDO@Edges?5equiangulated?3?5?$CFd?6?$AA@
	push	ecx
	call	_sprintf
	mov	edx, DWORD PTR _msg
	push	edx
	call	_outstring
	add	esp, 16					; 00000010H
$LN18@flush_coun:

; 6470 : 
; 6471 :      if ( web.counts_changed & edge_delete_count_bit )

	test	BYTE PTR _web+5524, 4
	je	SHORT $LN17@flush_coun

; 6472 :      { sprintf(msg,"Edges deleted: %d\n",web.edge_delete_count); outstring(msg); }

	mov	eax, DWORD PTR _web+5436
	mov	ecx, DWORD PTR _msg
	push	eax
	push	OFFSET ??_C@_0BD@GPMHBAND@Edges?5deleted?3?5?$CFd?6?$AA@
	push	ecx
	call	_sprintf
	mov	edx, DWORD PTR _msg
	push	edx
	call	_outstring
	add	esp, 16					; 00000010H
$LN17@flush_coun:

; 6473 : 
; 6474 :      if ( web.counts_changed & facet_delete_count_bit )

	test	BYTE PTR _web+5524, 8
	je	SHORT $LN16@flush_coun

; 6475 :      { sprintf(msg,"Facets deleted: %d\n",web.facet_delete_count); outstring(msg); }

	mov	eax, DWORD PTR _web+5440
	mov	ecx, DWORD PTR _msg
	push	eax
	push	OFFSET ??_C@_0BE@LJHADBKI@Facets?5deleted?3?5?$CFd?6?$AA@
	push	ecx
	call	_sprintf
	mov	edx, DWORD PTR _msg
	push	edx
	call	_outstring
	add	esp, 16					; 00000010H
$LN16@flush_coun:

; 6476 : 
; 6477 :      if ( web.counts_changed & edge_refine_count_bit )

	test	BYTE PTR _web+5524, 16			; 00000010H
	je	SHORT $LN15@flush_coun

; 6478 :      { sprintf(msg,"Edges refined: %d\n",web.edge_refine_count); outstring(msg); }

	mov	eax, DWORD PTR _web+5444
	mov	ecx, DWORD PTR _msg
	push	eax
	push	OFFSET ??_C@_0BD@LKFIBJDB@Edges?5refined?3?5?$CFd?6?$AA@
	push	ecx
	call	_sprintf
	mov	edx, DWORD PTR _msg
	push	edx
	call	_outstring
	add	esp, 16					; 00000010H
$LN15@flush_coun:

; 6479 : 
; 6480 :      if ( web.counts_changed & facet_refine_count_bit )

	test	BYTE PTR _web+5524, 32			; 00000020H
	je	SHORT $LN14@flush_coun

; 6481 :      { sprintf(msg,"Facets refined: %d\n",web.facet_refine_count); outstring(msg); }

	mov	eax, DWORD PTR _web+5448
	mov	ecx, DWORD PTR _msg
	push	eax
	push	OFFSET ??_C@_0BE@GMOPDIEK@Facets?5refined?3?5?$CFd?6?$AA@
	push	ecx
	call	_sprintf
	mov	edx, DWORD PTR _msg
	push	edx
	call	_outstring
	add	esp, 16					; 00000010H
$LN14@flush_coun:

; 6482 : 
; 6483 :      if ( web.counts_changed & vertex_dissolve_count_bit )

	test	BYTE PTR _web+5524, -128		; ffffff80H
	je	SHORT $LN13@flush_coun

; 6484 :      { sprintf(msg,"Vertices dissolved: %d\n",web.vertex_dissolve_count); outstring(msg); }

	mov	eax, DWORD PTR _web+5452
	mov	ecx, DWORD PTR _msg
	push	eax
	push	OFFSET ??_C@_0BI@HONGIAHG@Vertices?5dissolved?3?5?$CFd?6?$AA@
	push	ecx
	call	_sprintf
	mov	edx, DWORD PTR _msg
	push	edx
	call	_outstring
	add	esp, 16					; 00000010H
$LN13@flush_coun:

; 6485 : 
; 6486 :      if ( web.counts_changed & edge_dissolve_count_bit )

	test	DWORD PTR _web+5524, 256		; 00000100H
	je	SHORT $LN12@flush_coun

; 6487 :      { sprintf(msg, "Edges dissolved: %d\n",web.edge_dissolve_count); outstring(msg); }

	mov	eax, DWORD PTR _web+5456
	mov	ecx, DWORD PTR _msg
	push	eax
	push	OFFSET ??_C@_0BF@DACAILMK@Edges?5dissolved?3?5?$CFd?6?$AA@
	push	ecx
	call	_sprintf
	mov	edx, DWORD PTR _msg
	push	edx
	call	_outstring
	add	esp, 16					; 00000010H
$LN12@flush_coun:

; 6488 : 
; 6489 :      if ( web.counts_changed & facet_dissolve_count_bit )

	test	DWORD PTR _web+5524, 512		; 00000200H
	je	SHORT $LN11@flush_coun

; 6490 :      { sprintf(msg,"Facets dissolved: %d\n",web.facet_dissolve_count); outstring(msg); }

	mov	eax, DWORD PTR _web+5460
	mov	ecx, DWORD PTR _msg
	push	eax
	push	OFFSET ??_C@_0BG@LAICONBO@Facets?5dissolved?3?5?$CFd?6?$AA@
	push	ecx
	call	_sprintf
	mov	edx, DWORD PTR _msg
	push	edx
	call	_outstring
	add	esp, 16					; 00000010H
$LN11@flush_coun:

; 6491 : 
; 6492 :      if ( web.counts_changed & body_dissolve_count_bit )

	test	DWORD PTR _web+5524, 1024		; 00000400H
	je	SHORT $LN10@flush_coun

; 6493 :      { sprintf(msg,"Bodies dissolved: %d\n",web.body_dissolve_count); outstring(msg); }

	mov	eax, DWORD PTR _web+5464
	mov	ecx, DWORD PTR _msg
	push	eax
	push	OFFSET ??_C@_0BG@PPJACOKD@Bodies?5dissolved?3?5?$CFd?6?$AA@
	push	ecx
	call	_sprintf
	mov	edx, DWORD PTR _msg
	push	edx
	call	_outstring
	add	esp, 16					; 00000010H
$LN10@flush_coun:

; 6494 : 
; 6495 :      if ( web.counts_changed & edge_reverse_count_bit )

	test	DWORD PTR _web+5524, 4194304		; 00400000H
	je	SHORT $LN9@flush_coun

; 6496 :      { sprintf(msg, "Edges reversed: %d\n",web.edge_reverse_count); outstring(msg); }

	mov	eax, DWORD PTR _web+5468
	mov	ecx, DWORD PTR _msg
	push	eax
	push	OFFSET ??_C@_0BE@PLMNHAIE@Edges?5reversed?3?5?$CFd?6?$AA@
	push	ecx
	call	_sprintf
	mov	edx, DWORD PTR _msg
	push	edx
	call	_outstring
	add	esp, 16					; 00000010H
$LN9@flush_coun:

; 6497 : 
; 6498 :      if ( web.counts_changed & facet_reverse_count_bit )

	test	DWORD PTR _web+5524, 8388608		; 00800000H
	je	SHORT $LN8@flush_coun

; 6499 :      { sprintf(msg, "Facets reversed: %d\n",web.facet_reverse_count); outstring(msg); }

	mov	eax, DWORD PTR _web+5472
	mov	ecx, DWORD PTR _msg
	push	eax
	push	OFFSET ??_C@_0BF@DMMMGPBB@Facets?5reversed?3?5?$CFd?6?$AA@
	push	ecx
	call	_sprintf
	mov	edx, DWORD PTR _msg
	push	edx
	call	_outstring
	add	esp, 16					; 00000010H
$LN8@flush_coun:

; 6500 : 
; 6501 :      if ( web.counts_changed & vertex_pop_count_bit )

	test	DWORD PTR _web+5524, 2048		; 00000800H
	je	SHORT $LN7@flush_coun

; 6502 :      { sprintf(msg,"Vertices popped: %d\n",web.vertex_pop_count); outstring(msg); }

	mov	eax, DWORD PTR _web+5476
	mov	ecx, DWORD PTR _msg
	push	eax
	push	OFFSET ??_C@_0BF@CLGHNEFK@Vertices?5popped?3?5?$CFd?6?$AA@
	push	ecx
	call	_sprintf
	mov	edx, DWORD PTR _msg
	push	edx
	call	_outstring
	add	esp, 16					; 00000010H
$LN7@flush_coun:

; 6503 : 
; 6504 :      if ( web.counts_changed & edge_pop_count_bit )

	test	DWORD PTR _web+5524, 4096		; 00001000H
	je	SHORT $LN6@flush_coun

; 6505 :      { sprintf(msg,"Edges popped: %d\n",web.edge_pop_count); outstring(msg); }

	mov	eax, DWORD PTR _web+5480
	mov	ecx, DWORD PTR _msg
	push	eax
	push	OFFSET ??_C@_0BC@BGIMLONO@Edges?5popped?3?5?$CFd?6?$AA@
	push	ecx
	call	_sprintf
	mov	edx, DWORD PTR _msg
	push	edx
	call	_outstring
	add	esp, 16					; 00000010H
$LN6@flush_coun:

; 6506 : 
; 6507 :      if ( web.counts_changed & pop_tri_to_edge_count_bit )

	test	DWORD PTR _web+5524, 16384		; 00004000H
	je	SHORT $LN5@flush_coun

; 6508 :      { sprintf(msg,"pop_tri_to_edge count: %d\n",web.pop_tri_to_edge_count); outstring(msg); }

	mov	eax, DWORD PTR _web+5484
	mov	ecx, DWORD PTR _msg
	push	eax
	push	OFFSET ??_C@_0BL@JEEKMHGC@pop_tri_to_edge?5count?3?5?$CFd?6?$AA@
	push	ecx
	call	_sprintf
	mov	edx, DWORD PTR _msg
	push	edx
	call	_outstring
	add	esp, 16					; 00000010H
$LN5@flush_coun:

; 6509 : 
; 6510 :      if ( web.counts_changed & pop_edge_to_tri_count_bit )

	test	DWORD PTR _web+5524, 32768		; 00008000H
	je	SHORT $LN4@flush_coun

; 6511 :      { sprintf(msg,"pop_edge_to_tri count: %d\n",web.pop_edge_to_tri_count); outstring(msg); }

	mov	eax, DWORD PTR _web+5488
	mov	ecx, DWORD PTR _msg
	push	eax
	push	OFFSET ??_C@_0BL@PEDKAOCI@pop_edge_to_tri?5count?3?5?$CFd?6?$AA@
	push	ecx
	call	_sprintf
	mov	edx, DWORD PTR _msg
	push	edx
	call	_outstring
	add	esp, 16					; 00000010H
$LN4@flush_coun:

; 6512 : 
; 6513 :      if ( web.counts_changed & pop_quad_to_quad_count_bit )

	test	DWORD PTR _web+5524, 65536		; 00010000H
	je	SHORT $LN3@flush_coun

; 6514 :      { sprintf(msg,"pop_quad_to_quad count: %d\n",web.pop_quad_to_quad_count); outstring(msg); }

	mov	eax, DWORD PTR _web+5492
	mov	ecx, DWORD PTR _msg
	push	eax
	push	OFFSET ??_C@_0BM@KACBHHOP@pop_quad_to_quad?5count?3?5?$CFd?6?$AA@
	push	ecx
	call	_sprintf
	mov	edx, DWORD PTR _msg
	push	edx
	call	_outstring
	add	esp, 16					; 00000010H
$LN3@flush_coun:

; 6515 : 
; 6516 :      if ( web.counts_changed & edgeswap_count_bit )

	test	DWORD PTR _web+5524, 262144		; 00040000H
	je	SHORT $LN2@flush_coun

; 6517 :      { sprintf(msg,"Edges swapped: %d\n",web.edgeswap_count); outstring(msg); }

	mov	eax, DWORD PTR _web+5500
	mov	ecx, DWORD PTR _msg
	push	eax
	push	OFFSET ??_C@_0BD@BBGPJFJF@Edges?5swapped?3?5?$CFd?6?$AA@
	push	ecx
	call	_sprintf
	mov	edx, DWORD PTR _msg
	push	edx
	call	_outstring
	add	esp, 16					; 00000010H
$LN2@flush_coun:

; 6518 : 
; 6519 :      if ( web.counts_changed & t1_edgeswap_count_bit )

	test	DWORD PTR _web+5524, 2097152		; 00200000H
	je	SHORT $LN23@flush_coun

; 6520 :      { sprintf(msg,"T1 swaps: %d\n",web.t1_edgeswap_count); outstring(msg); }

	mov	eax, DWORD PTR _web+5504
	mov	ecx, DWORD PTR _msg
	push	eax
	push	OFFSET ??_C@_0O@NNFNJGIL@T1?5swaps?3?5?$CFd?6?$AA@
	push	ecx
	call	_sprintf
	mov	edx, DWORD PTR _msg
	push	edx
	call	_outstring
	add	esp, 16					; 00000010H
$LN23@flush_coun:

; 6521 : 
; 6522 : 
; 6523 :      web.counts_reported = ~0;
; 6524 :      web.counts_changed  = 0;

	mov	DWORD PTR _web+5524, 0
	mov	DWORD PTR _web+5520, -1

; 6525 : 
; 6526 : }  // end flush_counts()

	ret	0
_flush_counts ENDP
_TEXT	ENDS
PUBLIC	_reset_counts
; Function compile flags: /Ogtp
;	COMDAT _reset_counts
_TEXT	SEGMENT
_reset_counts PROC					; COMDAT

; 6538 :      web.equi_count = 0;

	xor	eax, eax
	mov	DWORD PTR _web+5432, eax

; 6539 :      web.edge_delete_count = 0;

	mov	DWORD PTR _web+5436, eax

; 6540 :      web.facet_delete_count = 0;

	mov	DWORD PTR _web+5440, eax

; 6541 :      web.edge_refine_count = 0;

	mov	DWORD PTR _web+5444, eax

; 6542 :      web.facet_refine_count = 0;

	mov	DWORD PTR _web+5448, eax

; 6543 :      web.notch_count = 0;
; 6544 :      web.vertex_dissolve_count = 0;

	mov	DWORD PTR _web+5452, eax

; 6545 :      web.edge_dissolve_count = 0;

	mov	DWORD PTR _web+5456, eax

; 6546 :      web.facet_dissolve_count = 0;

	mov	DWORD PTR _web+5460, eax

; 6547 :      web.body_dissolve_count = 0;

	mov	DWORD PTR _web+5464, eax

; 6548 :      web.edge_reverse_count = 0;

	mov	DWORD PTR _web+5468, eax

; 6549 :      web.facet_reverse_count = 0;

	mov	DWORD PTR _web+5472, eax

; 6550 :      web.vertex_pop_count = 0;

	mov	DWORD PTR _web+5476, eax

; 6551 :      web.edge_pop_count = 0;

	mov	DWORD PTR _web+5480, eax

; 6552 :      web.pop_tri_to_edge_count = 0;

	mov	DWORD PTR _web+5484, eax

; 6553 :      web.pop_edge_to_tri_count = 0;

	mov	DWORD PTR _web+5488, eax

; 6554 :      web.pop_quad_to_quad_count = 0;

	mov	DWORD PTR _web+5492, eax

; 6555 :      web.where_count = 0;

	mov	DWORD PTR _web+5496, eax

; 6556 :      web.edgeswap_count = 0;

	mov	DWORD PTR _web+5500, eax

; 6557 :      web.fix_count = 0;

	mov	DWORD PTR _web+5508, eax

; 6558 :      web.unfix_count = 0;

	mov	DWORD PTR _web+5512, eax

; 6559 :      web.t1_edgeswap_count = 0;

	mov	DWORD PTR _web+5504, eax

; 6560 :      web.notch_count = 0;

	mov	DWORD PTR _web+5516, eax

; 6561 : 
; 6562 :      web.counts_reported = 0;

	mov	DWORD PTR _web+5520, eax

; 6563 :      web.counts_changed  = 0; 

	mov	DWORD PTR _web+5524, eax

; 6564 : 
; 6565 : #ifdef PROFILING_ENABLED
; 6566 :    { int i;
; 6567 :      for ( i = LOW_INST ; i < meth_inst_count ; i++ )
; 6568 :      { struct method_instance *mi = METH_INSTANCE(i);
; 6569 :        mi->value_call_count = mi->grad_call_count = mi->hess_call_count = 0;
; 6570 :        mi->value_elapsed_time = mi->grad_elapsed_time 
; 6571 :          = mi->hess_elapsed_time = 0.0;
; 6572 :      }
; 6573 :      for ( i = 0 ; i < 2 ; i++ )
; 6574 :      { element_setup_elapsed_time[i] = 0;
; 6575 :        calc_quants_elapsed_time[i] = 0;
; 6576 :        calc_quant_grads_elapsed_time[i] = 0;
; 6577 :        calc_quant_hess_elapsed_time[i] = 0;
; 6578 :        exparse_elapsed_time[i] = 0;
; 6579 :        yyparse_elapsed_time[i] = 0;
; 6580 :        yylex_elapsed_time[i] = 0;
; 6581 :        kblex_elapsed_time[i] = 0;
; 6582 :        hessian_solve_elapsed_time[i] = 0;
; 6583 :        hessian_mul_elapsed_time[i] = 0;
; 6584 :        hessian_AIJ_setup_elapsed_time[i] = 0;
; 6585 :        hessian_constraint_setup_elapsed_time[i] = 0;
; 6586 :        hessian_project_setup_elapsed_time[i] = 0;
; 6587 :        hessian_factor_elapsed_time[i] = 0;
; 6588 :        hessian_CHinvC_elapsed_time[i] = 0;
; 6589 :      }
; 6590 :      find_cpu_speed();
; 6591 :    }
; 6592 : #endif
; 6593 : } // end reset_counts()

	ret	0
_reset_counts ENDP
_TEXT	ENDS
PUBLIC	??_C@_0DH@JKBABGKM@Facet?5index?0?5?$CFd?0?5exceeds?5number?5@ ; `string'
PUBLIC	??_C@_0DL@GPAGLJBP@Vertex?5index?0?5?$CFd?0?5exceeds?5number@ ; `string'
PUBLIC	??_C@_0DG@HHKGBCBA@Edge?5index?0?5?$CFd?0?5exceeds?5number?5o@ ; `string'
PUBLIC	??_C@_0BF@MJOFPPG@Facet?5has?5no?5edges?4?6?$AA@ ; `string'
PUBLIC	??_C@_0CK@CJDPOKNP@Facet?5?$CFd?5does?5not?5have?5body?5of?5i@ ; `string'
PUBLIC	??_C@_0CO@JEIJBJNB@Illegal?5facet?5body?5index?5?$CFd?$DL?5mus@ ; `string'
PUBLIC	??_C@_0DL@DGCEOMEP@Index?0?5?$CFd?0?5exceeds?5the?5number?5of@ ; `string'
PUBLIC	??_C@_0DH@NEGIGCFB@Facet?5index?0?5?$CFd?0?5exceeds?5number?5@ ; `string'
PUBLIC	??_C@_0DC@GLCPPLLK@Facetedge?5index?0?5?$CFd?0?5exceeds?5val@ ; `string'
PUBLIC	??_C@_0BI@OGEBOFAD@Edge?5?$CFs?5has?5no?5facets?4?6?$AA@ ; `string'
PUBLIC	??_C@_0CN@OBODHBMJ@Edge?5index?5?$CFd?5exceeds?5valence?5of@ ; `string'
PUBLIC	??_C@_0BJ@MADMBEHM@Vertex?5?$CFs?5has?5no?5edges?4?6?$AA@ ; `string'
PUBLIC	??_C@_0DE@IJLDHHGO@Facet?5index?5?$CFd?5exceeds?5facet?5val@ ; `string'
PUBLIC	??_C@_0BK@JCLNBKGI@Vertex?5?$CFs?5has?5no?5facets?4?6?$AA@ ; `string'
PUBLIC	??_C@_00CNPNBAHC@?$AA@				; `string'
PUBLIC	??_C@_02DPKJAMEF@?$CFd?$AA@			; `string'
PUBLIC	??_C@_0BL@LMCMICK@?$CIsource?5file?5?$CFs?0?5line?5?$CFd?$CJ?6?$AA@ ; `string'
PUBLIC	??_C@_0CH@GFIPANE@Element?5index?5must?5be?5positive?5i@ ; `string'
PUBLIC	_get_indexed_subtype
EXTRN	_get_next_body_facet:PROC
EXTRN	_oid:PROC
EXTRN	_get_next_vertex_facet:PROC
EXTRN	_elnames:BYTE
EXTRN	_valid_element:PROC
EXTRN	_get_vertex_first_facet:PROC
EXTRN	_kb_error:PROC
EXTRN	_file_names:DWORD
EXTRN	_errmsg:BYTE
;	COMDAT ??_C@_0DH@JKBABGKM@Facet?5index?0?5?$CFd?0?5exceeds?5number?5@
; File c:\levolver\yonkang-sefit\levolver\ev_ogl\inline.h
CONST	SEGMENT
??_C@_0DH@JKBABGKM@Facet?5index?0?5?$CFd?0?5exceeds?5number?5@ DB 'Facet '
	DB	'index, %d, exceeds number of facets on body %s.', 0aH, 00H ; `string'
CONST	ENDS
;	COMDAT ??_C@_0DL@GPAGLJBP@Vertex?5index?0?5?$CFd?0?5exceeds?5number@
CONST	SEGMENT
??_C@_0DL@GPAGLJBP@Vertex?5index?0?5?$CFd?0?5exceeds?5number@ DB 'Vertex '
	DB	'index, %d, exceeds number of vertices on facet %s.', 0aH, 00H ; `string'
CONST	ENDS
;	COMDAT ??_C@_0DG@HHKGBCBA@Edge?5index?0?5?$CFd?0?5exceeds?5number?5o@
CONST	SEGMENT
??_C@_0DG@HHKGBCBA@Edge?5index?0?5?$CFd?0?5exceeds?5number?5o@ DB 'Edge i'
	DB	'ndex, %d, exceeds number of edges on facet %s.', 0aH, 00H ; `string'
CONST	ENDS
;	COMDAT ??_C@_0BF@MJOFPPG@Facet?5has?5no?5edges?4?6?$AA@
CONST	SEGMENT
??_C@_0BF@MJOFPPG@Facet?5has?5no?5edges?4?6?$AA@ DB 'Facet has no edges.', 0aH
	DB	00H						; `string'
CONST	ENDS
;	COMDAT ??_C@_0CK@CJDPOKNP@Facet?5?$CFd?5does?5not?5have?5body?5of?5i@
CONST	SEGMENT
??_C@_0CK@CJDPOKNP@Facet?5?$CFd?5does?5not?5have?5body?5of?5i@ DB 'Facet '
	DB	'%d does not have body of index %d.', 0aH, 00H ; `string'
CONST	ENDS
;	COMDAT ??_C@_0CO@JEIJBJNB@Illegal?5facet?5body?5index?5?$CFd?$DL?5mus@
CONST	SEGMENT
??_C@_0CO@JEIJBJNB@Illegal?5facet?5body?5index?5?$CFd?$DL?5mus@ DB 'Illeg'
	DB	'al facet body index %d; must be 1 or 2.', 0aH, 00H ; `string'
CONST	ENDS
;	COMDAT ??_C@_0DL@DGCEOMEP@Index?0?5?$CFd?0?5exceeds?5the?5number?5of@
CONST	SEGMENT
??_C@_0DL@DGCEOMEP@Index?0?5?$CFd?0?5exceeds?5the?5number?5of@ DB 'Index,'
	DB	' %d, exceeds the number of vertices on an edge, %d.', 0aH, 00H ; `string'
CONST	ENDS
;	COMDAT ??_C@_0DH@NEGIGCFB@Facet?5index?0?5?$CFd?0?5exceeds?5number?5@
CONST	SEGMENT
??_C@_0DH@NEGIGCFB@Facet?5index?0?5?$CFd?0?5exceeds?5number?5@ DB 'Facet '
	DB	'index, %d, exceeds number of facets on edge %s.', 0aH, 00H ; `string'
CONST	ENDS
;	COMDAT ??_C@_0DC@GLCPPLLK@Facetedge?5index?0?5?$CFd?0?5exceeds?5val@
CONST	SEGMENT
??_C@_0DC@GLCPPLLK@Facetedge?5index?0?5?$CFd?0?5exceeds?5val@ DB 'Faceted'
	DB	'ge index, %d, exceeds valence on edge %s.', 0aH, 00H ; `string'
CONST	ENDS
;	COMDAT ??_C@_0BI@OGEBOFAD@Edge?5?$CFs?5has?5no?5facets?4?6?$AA@
CONST	SEGMENT
??_C@_0BI@OGEBOFAD@Edge?5?$CFs?5has?5no?5facets?4?6?$AA@ DB 'Edge %s has '
	DB	'no facets.', 0aH, 00H			; `string'
CONST	ENDS
;	COMDAT ??_C@_0CN@OBODHBMJ@Edge?5index?5?$CFd?5exceeds?5valence?5of@
CONST	SEGMENT
??_C@_0CN@OBODHBMJ@Edge?5index?5?$CFd?5exceeds?5valence?5of@ DB 'Edge ind'
	DB	'ex %d exceeds valence of vertex %s.', 0aH, 00H ; `string'
CONST	ENDS
;	COMDAT ??_C@_0BJ@MADMBEHM@Vertex?5?$CFs?5has?5no?5edges?4?6?$AA@
CONST	SEGMENT
??_C@_0BJ@MADMBEHM@Vertex?5?$CFs?5has?5no?5edges?4?6?$AA@ DB 'Vertex %s h'
	DB	'as no edges.', 0aH, 00H			; `string'
CONST	ENDS
;	COMDAT ??_C@_0DE@IJLDHHGO@Facet?5index?5?$CFd?5exceeds?5facet?5val@
CONST	SEGMENT
??_C@_0DE@IJLDHHGO@Facet?5index?5?$CFd?5exceeds?5facet?5val@ DB 'Facet in'
	DB	'dex %d exceeds facet valence of vertex %s.', 0aH, 00H ; `string'
CONST	ENDS
;	COMDAT ??_C@_0BK@JCLNBKGI@Vertex?5?$CFs?5has?5no?5facets?4?6?$AA@
CONST	SEGMENT
??_C@_0BK@JCLNBKGI@Vertex?5?$CFs?5has?5no?5facets?4?6?$AA@ DB 'Vertex %s '
	DB	'has no facets.', 0aH, 00H			; `string'
CONST	ENDS
;	COMDAT ??_C@_00CNPNBAHC@?$AA@
CONST	SEGMENT
??_C@_00CNPNBAHC@?$AA@ DB 00H				; `string'
CONST	ENDS
;	COMDAT ??_C@_02DPKJAMEF@?$CFd?$AA@
CONST	SEGMENT
??_C@_02DPKJAMEF@?$CFd?$AA@ DB '%d', 00H		; `string'
CONST	ENDS
;	COMDAT ??_C@_0BL@LMCMICK@?$CIsource?5file?5?$CFs?0?5line?5?$CFd?$CJ?6?$AA@
CONST	SEGMENT
??_C@_0BL@LMCMICK@?$CIsource?5file?5?$CFs?0?5line?5?$CFd?$CJ?6?$AA@ DB '('
	DB	'source file %s, line %d)', 0aH, 00H		; `string'
CONST	ENDS
;	COMDAT ??_C@_0CH@GFIPANE@Element?5index?5must?5be?5positive?5i@
CONST	SEGMENT
??_C@_0CH@GFIPANE@Element?5index?5must?5be?5positive?5i@ DB 'Element inde'
	DB	'x must be positive in %s.', 0aH, 00H	; `string'
; Function compile flags: /Ogtp
; File c:\levolver\yonkang-sefit\levolver\ev_ogl\evaltree.c
CONST	ENDS
;	COMDAT _get_indexed_subtype
_TEXT	SEGMENT
tv1097 = -8						; size = 4
tv972 = -8						; size = 4
tv967 = -8						; size = 4
_first$ = -8						; size = 4
_id$ = -8						; size = 4
_next_id$ = -4						; size = 4
_node$ = 8						; size = 4
_n$ = 12						; size = 4
_ord$ = 12						; size = 4
tv480 = 16						; size = 4
_parent$ = 16						; size = 4
_ex$ = 20						; size = 4
_get_indexed_subtype PROC				; COMDAT

; 6609 : { element_id next_id = NULLID;

	push	ebp
	mov	ebp, esp
	sub	esp, 8

; 6610 :   element_id id;
; 6611 :   int n,i;
; 6612 :   facetedge_id fe;
; 6613 : 
; 6614 :           int ptype = id_type(parent);

	mov	ecx, DWORD PTR _parent$[ebp]
	push	ebx

; 6615 :           element_id first; /* sentinel for looping */
; 6616 : 
; 6617 :           if ( ord < 0 )

	mov	ebx, DWORD PTR _ord$[ebp]
	push	esi
	mov	esi, DWORD PTR _node$[ebp]
	push	edi
	mov	edi, ecx
	shr	edi, 29					; 0000001dH
	mov	DWORD PTR _next_id$[ebp], 0
	test	ebx, ebx
	jns	SHORT $LN106@get_indexe

; 6618 :           { sprintf(errmsg,"Element index must be positive in %s.\n",ex->name);

	mov	eax, DWORD PTR _ex$[ebp]
	add	eax, 20					; 00000014H
	push	eax
	push	OFFSET ??_C@_0CH@GFIPANE@Element?5index?5must?5be?5positive?5i@
	push	OFFSET _errmsg
	call	_sprintf

; 6619 :             sprintf(errmsg+strlen(errmsg),"(source file %s, line %d)\n",
; 6620 :                  file_names[node->file_no],node->line_no);

	mov	eax, OFFSET _errmsg
	add	esp, 12					; 0000000cH
	lea	edx, DWORD PTR [eax+1]
$LL163@get_indexe:
	mov	cl, BYTE PTR [eax]
	inc	eax
	test	cl, cl
	jne	SHORT $LL163@get_indexe
	mov	ecx, DWORD PTR [esi+12]
	push	ecx
	mov	ecx, DWORD PTR _file_names
	sub	eax, edx
	mov	edx, DWORD PTR [esi+16]
	mov	edx, DWORD PTR [ecx+edx*4]
	push	edx
	lea	eax, DWORD PTR _errmsg[eax]
	push	OFFSET ??_C@_0BL@LMCMICK@?$CIsource?5file?5?$CFs?0?5line?5?$CFd?$CJ?6?$AA@
	push	eax
	call	_sprintf

; 6621 :             kb_error(1275,errmsg,RECOVERABLE);

	push	1
	push	OFFSET _errmsg
	push	1275					; 000004fbH
	call	_kb_error
	mov	ecx, DWORD PTR _parent$[ebp]
	add	esp, 28					; 0000001cH
$LN106@get_indexe:

; 6622 :           }
; 6623 :           id=NULLID;
; 6624 :           switch ( ptype )

	cmp	edi, 4
	ja	$LN3@get_indexe
	jmp	DWORD PTR $LN189@get_indexe[edi*4]
$LN103@get_indexe:

; 6625 :           { 
; 6626 :              case VERTEX:
; 6627 :              switch ( node->op1.eltype )/* subtype */ 

	mov	eax, DWORD PTR [esi+32]
	dec	eax
	je	$LN100@get_indexe
	dec	eax
	jne	$LN3@get_indexe

; 6648 :                break;
; 6649 :               
; 6650 :               case FACET: /* indexed facet of vertex */
; 6651 : 
; 6652 :               id = first = get_vertex_first_facet(parent);

	mov	ecx, DWORD PTR _parent$[ebp]
	push	ecx
	call	_get_vertex_first_facet
	mov	ebx, eax

; 6653 :               if ( !valid_element(id) )

	push	ebx
	mov	edi, ebx
	call	_valid_element
	add	esp, 8
	test	eax, eax
	jne	$LN93@get_indexe

; 6654 :               { sprintf(errmsg,"Vertex %s has no facets.\n",ELNAME(parent));

	test	DWORD PTR _parent$[ebp], 268435456	; 10000000H
	je	SHORT $LN113@get_indexe
	mov	edx, DWORD PTR _parent$[ebp]
	and	edx, 134217727				; 07ffffffH
	inc	edx
	push	edx
	push	OFFSET ??_C@_02DPKJAMEF@?$CFd?$AA@
	push	OFFSET _elnames
	call	_sprintf
	add	esp, 12					; 0000000cH
	mov	eax, OFFSET _elnames
	jmp	SHORT $LN114@get_indexe
$LN113@get_indexe:
	mov	eax, OFFSET ??_C@_00CNPNBAHC@?$AA@
$LN114@get_indexe:
	push	eax
	push	OFFSET ??_C@_0BK@JCLNBKGI@Vertex?5?$CFs?5has?5no?5facets?4?6?$AA@
	push	OFFSET _errmsg
	call	_sprintf

; 6655 :                 sprintf(errmsg+strlen(errmsg),"(source file %s, line %d)\n",
; 6656 :                  file_names[node->file_no],node->line_no);

	mov	eax, OFFSET _errmsg
	add	esp, 12					; 0000000cH
	lea	edx, DWORD PTR [eax+1]
$LL164@get_indexe:
	mov	cl, BYTE PTR [eax]
	inc	eax
	test	cl, cl
	jne	SHORT $LL164@get_indexe
	mov	ecx, DWORD PTR [esi+12]
	push	ecx
	mov	ecx, DWORD PTR _file_names
	sub	eax, edx
	mov	edx, DWORD PTR [esi+16]
	mov	edx, DWORD PTR [ecx+edx*4]
	push	edx
	lea	eax, DWORD PTR _errmsg[eax]
	push	OFFSET ??_C@_0BL@LMCMICK@?$CIsource?5file?5?$CFs?0?5line?5?$CFd?$CJ?6?$AA@
	push	eax
	call	_sprintf

; 6657 :                 kb_error(1278,errmsg,RECOVERABLE);

	push	1
	push	OFFSET _errmsg
	push	1278					; 000004feH
	call	_kb_error
	add	esp, 28					; 0000001cH
$LN93@get_indexe:

; 6658 :               }
; 6659 :               for ( n = 1 ; n <= ord ; n++ )

	mov	eax, DWORD PTR _ord$[ebp]
	cmp	eax, 1
	jl	$LN90@get_indexe
	mov	DWORD PTR tv1097[ebp], eax
	npad	1
$LL92@get_indexe:

; 6660 :               { id = get_next_vertex_facet(parent,id);

	mov	ecx, DWORD PTR _parent$[ebp]
	push	edi
	push	ecx
	call	_get_next_vertex_facet
	mov	edi, eax
	add	esp, 8

; 6661 :                 if ( equal_id(id,first) )

	cmp	edi, ebx
	jne	$LN91@get_indexe

; 6662 :                 { sprintf(errmsg,
; 6663 :                     "Facet index %d exceeds facet valence of vertex %s.\n",
; 6664 :                        ord+1,ELNAME(parent));

	test	DWORD PTR _parent$[ebp], 268435456	; 10000000H
	je	SHORT $LN115@get_indexe
	mov	edx, DWORD PTR _parent$[ebp]
	and	edx, 134217727				; 07ffffffH
	inc	edx
	push	edx
	push	OFFSET ??_C@_02DPKJAMEF@?$CFd?$AA@
	push	OFFSET _elnames
	call	_sprintf
	add	esp, 12					; 0000000cH
	mov	eax, OFFSET _elnames
	jmp	SHORT $LN116@get_indexe
$LN115@get_indexe:
	mov	eax, OFFSET ??_C@_00CNPNBAHC@?$AA@
$LN116@get_indexe:
	push	eax
	mov	eax, DWORD PTR _ord$[ebp]
	inc	eax
	push	eax
	push	OFFSET ??_C@_0DE@IJLDHHGO@Facet?5index?5?$CFd?5exceeds?5facet?5val@
	push	OFFSET _errmsg
	call	_sprintf

; 6665 :                   sprintf(errmsg+strlen(errmsg),"(source file %s, line %d)\n",
; 6666 :                     file_names[node->file_no],node->line_no);

	mov	eax, OFFSET _errmsg
	add	esp, 16					; 00000010H
	lea	edx, DWORD PTR [eax+1]
	npad	7
$LL165@get_indexe:
	mov	cl, BYTE PTR [eax]
	inc	eax
	test	cl, cl
	jne	SHORT $LL165@get_indexe
	mov	ecx, DWORD PTR [esi+12]
	push	ecx
	mov	ecx, DWORD PTR _file_names
	sub	eax, edx
	mov	edx, DWORD PTR [esi+16]
	mov	edx, DWORD PTR [ecx+edx*4]
	push	edx
	lea	eax, DWORD PTR _errmsg[eax]
	push	OFFSET ??_C@_0BL@LMCMICK@?$CIsource?5file?5?$CFs?0?5line?5?$CFd?$CJ?6?$AA@
	push	eax
	call	_sprintf

; 6667 :                   kb_error(1279,errmsg,RECOVERABLE);

	push	1
	push	OFFSET _errmsg
	push	1279					; 000004ffH
	call	_kb_error
	add	esp, 28					; 0000001cH
$LN91@get_indexe:

; 6658 :               }
; 6659 :               for ( n = 1 ; n <= ord ; n++ )

	dec	DWORD PTR tv1097[ebp]
	jne	$LL92@get_indexe
$LN90@get_indexe:

; 6668 :                 }
; 6669 :               }
; 6670 :               if ( id_type(id) == FACETEDGE )

	mov	ecx, edi
	and	ecx, -536870912				; e0000000H
	cmp	ecx, -2147483648			; 80000000H
	jne	SHORT $LN88@get_indexe

; 6671 :                 id = get_fe_facet(id);

	push	edi
	call	_get_fe_facet
	add	esp, 4
	mov	edi, eax
$LN88@get_indexe:

; 6672 :               next_id = positive_id(id);

	and	edi, -134217729				; f7ffffffH
	mov	DWORD PTR _next_id$[ebp], edi

; 6912 :              }
; 6913 :              break;
; 6914 :           }
; 6915 : 
; 6916 :           return next_id;

	mov	eax, edi
	pop	edi
	pop	esi
	pop	ebx

; 6917 : 
; 6918 :        } // end get_indexed_subtype()

	mov	esp, ebp
	pop	ebp
	ret	0
$LN100@get_indexe:

; 6628 :              { 
; 6629 :                case EDGE:  /* indexed edge of vertex */
; 6630 :                id = first = get_vertex_edge(parent);

	mov	edi, DWORD PTR _parent$[ebp]
	mov	edx, DWORD PTR _web+12
	and	edi, 134217727				; 07ffffffH
	mov	eax, DWORD PTR [edx+edi*4]
	mov	ebx, DWORD PTR [eax+28]

; 6631 :                if ( !valid_element(id) )

	push	ebx
	mov	DWORD PTR _first$[ebp], ebx
	call	_valid_element
	add	esp, 4
	test	eax, eax
	jne	$LN182@get_indexe

; 6632 :                { sprintf(errmsg,"Vertex %s has no edges.\n",ELNAME(parent));

	test	DWORD PTR _parent$[ebp], 268435456	; 10000000H
	je	SHORT $LN109@get_indexe
	inc	edi
	push	edi
	push	OFFSET ??_C@_02DPKJAMEF@?$CFd?$AA@
	push	OFFSET _elnames
	call	_sprintf
	add	esp, 12					; 0000000cH
	mov	eax, OFFSET _elnames
	jmp	SHORT $LN110@get_indexe
$LN109@get_indexe:
	mov	eax, OFFSET ??_C@_00CNPNBAHC@?$AA@
$LN110@get_indexe:
	push	eax
	push	OFFSET ??_C@_0BJ@MADMBEHM@Vertex?5?$CFs?5has?5no?5edges?4?6?$AA@
	push	OFFSET _errmsg
	call	_sprintf

; 6633 :                  sprintf(errmsg+strlen(errmsg),"(source file %s, line %d)\n",
; 6634 :                     file_names[node->file_no],node->line_no);

	mov	eax, OFFSET _errmsg
	add	esp, 12					; 0000000cH
	lea	edx, DWORD PTR [eax+1]
$LL166@get_indexe:
	mov	cl, BYTE PTR [eax]
	inc	eax
	test	cl, cl
	jne	SHORT $LL166@get_indexe
	mov	ecx, DWORD PTR [esi+12]
	push	ecx
	mov	ecx, DWORD PTR _file_names
	sub	eax, edx
	mov	edx, DWORD PTR [esi+16]
	mov	edx, DWORD PTR [ecx+edx*4]
	push	edx
	lea	eax, DWORD PTR _errmsg[eax]
	push	OFFSET ??_C@_0BL@LMCMICK@?$CIsource?5file?5?$CFs?0?5line?5?$CFd?$CJ?6?$AA@
	push	eax
	call	_sprintf

; 6635 :                  kb_error(1276,errmsg,RECOVERABLE);

	push	1
	push	OFFSET _errmsg
	push	1276					; 000004fcH
	call	_kb_error
	add	esp, 28					; 0000001cH
$LN182@get_indexe:

; 6636 :                }
; 6637 :                for ( n = 1 ; n <= ord ; n++ )

	mov	edi, DWORD PTR _ord$[ebp]
	cmp	edi, 1
	jl	$LN96@get_indexe
	mov	DWORD PTR tv480[ebp], edi
$LL98@get_indexe:

; 6638 :                { id = get_next_tail_edge(id);

	mov	edx, DWORD PTR _web+124
	mov	ecx, ebx
	and	ebx, 134217727				; 07ffffffH
	mov	eax, DWORD PTR [edx+ebx*4]
	shr	ecx, 27					; 0000001bH
	and	ecx, 1
	mov	ebx, DWORD PTR [eax+ecx*4+32]

; 6639 :                  if ( equal_id(id,first) )

	cmp	ebx, DWORD PTR _first$[ebp]
	jne	$LN97@get_indexe

; 6640 :                  { sprintf(errmsg,"Edge index %d exceeds valence of vertex %s.\n",
; 6641 :                      ord+1,ELNAME(id));

	test	ebx, 268435456				; 10000000H
	je	SHORT $LN111@get_indexe
	mov	ecx, ebx
	and	ecx, 134217727				; 07ffffffH
	inc	ecx
	push	ecx
	push	OFFSET ??_C@_02DPKJAMEF@?$CFd?$AA@
	push	OFFSET _elnames
	call	_sprintf
	add	esp, 12					; 0000000cH
	mov	eax, OFFSET _elnames
	jmp	SHORT $LN112@get_indexe
$LN111@get_indexe:
	mov	eax, OFFSET ??_C@_00CNPNBAHC@?$AA@
$LN112@get_indexe:
	push	eax
	lea	edx, DWORD PTR [edi+1]
	push	edx
	push	OFFSET ??_C@_0CN@OBODHBMJ@Edge?5index?5?$CFd?5exceeds?5valence?5of@
	push	OFFSET _errmsg
	call	_sprintf

; 6642 :                    sprintf(errmsg+strlen(errmsg),"(source file %s, line %d)\n",
; 6643 :                       file_names[node->file_no],node->line_no);

	mov	eax, OFFSET _errmsg
	add	esp, 16					; 00000010H
	lea	edx, DWORD PTR [eax+1]
$LL167@get_indexe:
	mov	cl, BYTE PTR [eax]
	inc	eax
	test	cl, cl
	jne	SHORT $LL167@get_indexe
	mov	ecx, DWORD PTR [esi+12]
	push	ecx
	mov	ecx, DWORD PTR _file_names
	sub	eax, edx
	mov	edx, DWORD PTR [esi+16]
	mov	edx, DWORD PTR [ecx+edx*4]
	push	edx
	lea	eax, DWORD PTR _errmsg[eax]
	push	OFFSET ??_C@_0BL@LMCMICK@?$CIsource?5file?5?$CFs?0?5line?5?$CFd?$CJ?6?$AA@
	push	eax
	call	_sprintf

; 6644 :                    kb_error(1277,errmsg,RECOVERABLE);

	push	1
	push	OFFSET _errmsg
	push	1277					; 000004fdH
	call	_kb_error
	add	esp, 28					; 0000001cH
$LN97@get_indexe:

; 6636 :                }
; 6637 :                for ( n = 1 ; n <= ord ; n++ )

	dec	DWORD PTR tv480[ebp]
	jne	$LL98@get_indexe
$LN96@get_indexe:
	pop	edi
	pop	esi

; 6645 :                  }
; 6646 :                }
; 6647 :                next_id = id;

	mov	DWORD PTR _next_id$[ebp], ebx

; 6912 :              }
; 6913 :              break;
; 6914 :           }
; 6915 : 
; 6916 :           return next_id;

	mov	eax, ebx
	pop	ebx

; 6917 : 
; 6918 :        } // end get_indexed_subtype()

	mov	esp, ebp
	pop	ebp
	ret	0
$LN87@get_indexe:

; 6673 :               break;
; 6674 : 
; 6675 :              }
; 6676 :              break;
; 6677 : 
; 6678 :          case EDGE:
; 6679 :             switch ( node->op1.eltype /* subtype */ )

	mov	eax, DWORD PTR [esi+32]
	sub	eax, 0
	je	$LN84@get_indexe
	sub	eax, 2
	je	$LN75@get_indexe
	sub	eax, 2
	jne	$LN3@get_indexe

; 6722 :              break;
; 6723 : 
; 6724 :              case FACETEDGE: 
; 6725 :               id = first = get_edge_fe(parent);

	mov	ecx, DWORD PTR _parent$[ebp]
	push	ecx
	call	_get_edge_fe
	mov	edi, eax

; 6726 :               if ( !valid_element(id) )

	push	edi
	mov	ebx, edi
	call	_valid_element
	add	esp, 8
	test	eax, eax
	jne	$LN68@get_indexe

; 6727 :               { sprintf(errmsg,"Edge %s has no facets.\n",ELNAME(parent));

	test	DWORD PTR _parent$[ebp], 268435456	; 10000000H
	je	SHORT $LN123@get_indexe
	mov	edx, DWORD PTR _parent$[ebp]
	and	edx, 134217727				; 07ffffffH
	inc	edx
	push	edx
	push	OFFSET ??_C@_02DPKJAMEF@?$CFd?$AA@
	push	OFFSET _elnames
	call	_sprintf
	add	esp, 12					; 0000000cH
	mov	eax, OFFSET _elnames
	jmp	SHORT $LN124@get_indexe
$LN123@get_indexe:
	mov	eax, OFFSET ??_C@_00CNPNBAHC@?$AA@
$LN124@get_indexe:
	push	eax
	push	OFFSET ??_C@_0BI@OGEBOFAD@Edge?5?$CFs?5has?5no?5facets?4?6?$AA@
	push	OFFSET _errmsg
	call	_sprintf

; 6728 :                 sprintf(errmsg+strlen(errmsg),"(source file %s, line %d)\n",
; 6729 :                      file_names[node->file_no],node->line_no);

	mov	eax, OFFSET _errmsg
	add	esp, 12					; 0000000cH
	lea	edx, DWORD PTR [eax+1]
$LL168@get_indexe:
	mov	cl, BYTE PTR [eax]
	inc	eax
	test	cl, cl
	jne	SHORT $LL168@get_indexe
	mov	ecx, DWORD PTR [esi+12]
	push	ecx
	mov	ecx, DWORD PTR _file_names
	sub	eax, edx
	mov	edx, DWORD PTR [esi+16]
	mov	edx, DWORD PTR [ecx+edx*4]
	push	edx
	lea	eax, DWORD PTR _errmsg[eax]
	push	OFFSET ??_C@_0BL@LMCMICK@?$CIsource?5file?5?$CFs?0?5line?5?$CFd?$CJ?6?$AA@
	push	eax
	call	_sprintf

; 6730 :                 kb_error(1281,errmsg,RECOVERABLE);

	push	1
	push	OFFSET _errmsg
	push	1281					; 00000501H
	call	_kb_error
	add	esp, 28					; 0000001cH
$LN68@get_indexe:

; 6731 :               }
; 6732 :               for ( n = 1 ; n <= ord ; n++ )

	mov	eax, DWORD PTR _ord$[ebp]
	cmp	eax, 1
	jl	$LN65@get_indexe
	mov	DWORD PTR tv967[ebp], eax
	npad	2
$LL67@get_indexe:

; 6733 :               { id = get_next_facet(id);

	push	ebx
	call	_get_next_facet
	mov	ebx, eax
	add	esp, 4

; 6734 :                 if ( equal_id(id,first) )

	cmp	ebx, edi
	jne	$LN66@get_indexe

; 6735 :                 { sprintf(errmsg,
; 6736 :                     "Facetedge index, %d, exceeds valence on edge %s.\n",
; 6737 :                        ord+1,ELNAME(parent));

	test	DWORD PTR _parent$[ebp], 268435456	; 10000000H
	je	SHORT $LN125@get_indexe
	mov	ecx, DWORD PTR _parent$[ebp]
	and	ecx, 134217727				; 07ffffffH
	inc	ecx
	push	ecx
	push	OFFSET ??_C@_02DPKJAMEF@?$CFd?$AA@
	push	OFFSET _elnames
	call	_sprintf
	add	esp, 12					; 0000000cH
	mov	eax, OFFSET _elnames
	jmp	SHORT $LN126@get_indexe
$LN125@get_indexe:
	mov	eax, OFFSET ??_C@_00CNPNBAHC@?$AA@
$LN126@get_indexe:
	mov	edx, DWORD PTR _ord$[ebp]
	push	eax
	inc	edx
	push	edx
	push	OFFSET ??_C@_0DC@GLCPPLLK@Facetedge?5index?0?5?$CFd?0?5exceeds?5val@
	push	OFFSET _errmsg
	call	_sprintf

; 6738 :                   sprintf(errmsg+strlen(errmsg),"(source file %s, line %d)\n",
; 6739 :                        file_names[node->file_no],node->line_no);

	mov	eax, OFFSET _errmsg
	add	esp, 16					; 00000010H
	lea	edx, DWORD PTR [eax+1]
$LL169@get_indexe:
	mov	cl, BYTE PTR [eax]
	inc	eax
	test	cl, cl
	jne	SHORT $LL169@get_indexe
	mov	ecx, DWORD PTR [esi+12]
	push	ecx
	mov	ecx, DWORD PTR _file_names
	sub	eax, edx
	mov	edx, DWORD PTR [esi+16]
	mov	edx, DWORD PTR [ecx+edx*4]
	push	edx
	lea	eax, DWORD PTR _errmsg[eax]
	push	OFFSET ??_C@_0BL@LMCMICK@?$CIsource?5file?5?$CFs?0?5line?5?$CFd?$CJ?6?$AA@
	push	eax
	call	_sprintf

; 6740 :                   kb_error(1282,errmsg,RECOVERABLE);

	push	1
	push	OFFSET _errmsg
	push	1282					; 00000502H
	call	_kb_error
	add	esp, 28					; 0000001cH
$LN66@get_indexe:

; 6731 :               }
; 6732 :               for ( n = 1 ; n <= ord ; n++ )

	dec	DWORD PTR tv967[ebp]
	jne	$LL67@get_indexe
$LN65@get_indexe:
	pop	edi
	pop	esi

; 6741 :                 }
; 6742 :               }
; 6743 :               next_id = id;

	mov	DWORD PTR _next_id$[ebp], ebx

; 6912 :              }
; 6913 :              break;
; 6914 :           }
; 6915 : 
; 6916 :           return next_id;

	mov	eax, ebx
	pop	ebx

; 6917 : 
; 6918 :        } // end get_indexed_subtype()

	mov	esp, ebp
	pop	ebp
	ret	0
$LN75@get_indexe:

; 6698 :                  } 
; 6699 :               break;
; 6700 : 
; 6701 :             case FACET:
; 6702 :               id = first = get_edge_fe(parent);

	mov	ecx, DWORD PTR _parent$[ebp]
	push	ecx
	call	_get_edge_fe
	mov	edi, eax

; 6703 :               if ( !valid_element(id) )

	push	edi
	mov	ebx, edi
	call	_valid_element
	add	esp, 8
	test	eax, eax
	jne	$LN74@get_indexe

; 6704 :               { sprintf(errmsg,"Edge %s has no facets.\n",ELNAME(parent));

	test	DWORD PTR _parent$[ebp], 268435456	; 10000000H
	je	SHORT $LN119@get_indexe
	mov	edx, DWORD PTR _parent$[ebp]
	and	edx, 134217727				; 07ffffffH
	inc	edx
	push	edx
	push	OFFSET ??_C@_02DPKJAMEF@?$CFd?$AA@
	push	OFFSET _elnames
	call	_sprintf
	add	esp, 12					; 0000000cH
	mov	eax, OFFSET _elnames
	jmp	SHORT $LN120@get_indexe
$LN119@get_indexe:
	mov	eax, OFFSET ??_C@_00CNPNBAHC@?$AA@
$LN120@get_indexe:
	push	eax
	push	OFFSET ??_C@_0BI@OGEBOFAD@Edge?5?$CFs?5has?5no?5facets?4?6?$AA@
	push	OFFSET _errmsg
	call	_sprintf

; 6705 :                 sprintf(errmsg+strlen(errmsg),"(source file %s, line %d)\n",
; 6706 :                  file_names[node->file_no],node->line_no);

	mov	eax, OFFSET _errmsg
	add	esp, 12					; 0000000cH
	lea	edx, DWORD PTR [eax+1]
$LL170@get_indexe:
	mov	cl, BYTE PTR [eax]
	inc	eax
	test	cl, cl
	jne	SHORT $LL170@get_indexe
	mov	ecx, DWORD PTR [esi+12]
	push	ecx
	mov	ecx, DWORD PTR _file_names
	sub	eax, edx
	mov	edx, DWORD PTR [esi+16]
	mov	edx, DWORD PTR [ecx+edx*4]
	push	edx
	lea	eax, DWORD PTR _errmsg[eax]
	push	OFFSET ??_C@_0BL@LMCMICK@?$CIsource?5file?5?$CFs?0?5line?5?$CFd?$CJ?6?$AA@
	push	eax
	call	_sprintf

; 6707 :                 kb_error(1176,errmsg,RECOVERABLE);

	push	1
	push	OFFSET _errmsg
	push	1176					; 00000498H
	call	_kb_error
	add	esp, 28					; 0000001cH
$LN74@get_indexe:

; 6708 :               }
; 6709 :               for ( n = 1 ; n <= ord ; n++ )

	mov	eax, DWORD PTR _ord$[ebp]
	cmp	eax, 1
	jl	$LN71@get_indexe
	mov	DWORD PTR tv972[ebp], eax
$LL73@get_indexe:

; 6710 :               { id = get_next_facet(id);

	push	ebx
	call	_get_next_facet
	mov	ebx, eax
	add	esp, 4

; 6711 :                 if ( equal_id(id,first) )

	cmp	ebx, edi
	jne	$LN72@get_indexe

; 6712 :                 { sprintf(errmsg,
; 6713 :                      "Facet index, %d, exceeds number of facets on edge %s.\n",
; 6714 :                           ord+1,ELNAME(parent));

	test	DWORD PTR _parent$[ebp], 268435456	; 10000000H
	je	SHORT $LN121@get_indexe
	mov	ecx, DWORD PTR _parent$[ebp]
	and	ecx, 134217727				; 07ffffffH
	inc	ecx
	push	ecx
	push	OFFSET ??_C@_02DPKJAMEF@?$CFd?$AA@
	push	OFFSET _elnames
	call	_sprintf
	add	esp, 12					; 0000000cH
	mov	eax, OFFSET _elnames
	jmp	SHORT $LN122@get_indexe
$LN121@get_indexe:
	mov	eax, OFFSET ??_C@_00CNPNBAHC@?$AA@
$LN122@get_indexe:
	mov	edx, DWORD PTR _ord$[ebp]
	push	eax
	inc	edx
	push	edx
	push	OFFSET ??_C@_0DH@NEGIGCFB@Facet?5index?0?5?$CFd?0?5exceeds?5number?5@
	push	OFFSET _errmsg
	call	_sprintf

; 6715 :                   sprintf(errmsg+strlen(errmsg),"(source file %s, line %d)\n",
; 6716 :                        file_names[node->file_no],node->line_no);

	mov	eax, OFFSET _errmsg
	add	esp, 16					; 00000010H
	lea	edx, DWORD PTR [eax+1]
$LL171@get_indexe:
	mov	cl, BYTE PTR [eax]
	inc	eax
	test	cl, cl
	jne	SHORT $LL171@get_indexe
	mov	ecx, DWORD PTR [esi+12]
	push	ecx
	mov	ecx, DWORD PTR _file_names
	sub	eax, edx
	mov	edx, DWORD PTR [esi+16]
	mov	edx, DWORD PTR [ecx+edx*4]
	push	edx
	lea	eax, DWORD PTR _errmsg[eax]
	push	OFFSET ??_C@_0BL@LMCMICK@?$CIsource?5file?5?$CFs?0?5line?5?$CFd?$CJ?6?$AA@
	push	eax
	call	_sprintf

; 6717 :                   kb_error(1186,errmsg,RECOVERABLE);

	push	1
	push	OFFSET _errmsg
	push	1186					; 000004a2H
	call	_kb_error
	add	esp, 28					; 0000001cH
$LN72@get_indexe:

; 6708 :               }
; 6709 :               for ( n = 1 ; n <= ord ; n++ )

	dec	DWORD PTR tv972[ebp]
	jne	$LL73@get_indexe
$LN71@get_indexe:

; 6718 :                 }
; 6719 : 
; 6720 :               }
; 6721 :              next_id = get_fe_facet(id);

	push	ebx
	call	_get_fe_facet

; 6910 :              { case EDGE: next_id = get_fe_edge(parent); break;

	add	esp, 4
	pop	edi
	pop	esi
	mov	DWORD PTR _next_id$[ebp], eax
	pop	ebx

; 6917 : 
; 6918 :        } // end get_indexed_subtype()

	mov	esp, ebp
	pop	ebp
	ret	0
$LN84@get_indexe:

; 6680 :             { case VERTEX:
; 6681 :               if ( ord >= web.skel[EDGE].ctrlpts )

	mov	eax, DWORD PTR _web+120
	cmp	ebx, eax
	jl	SHORT $LN83@get_indexe

; 6682 :               { sprintf(errmsg,
; 6683 :                  "Index, %d, exceeds the number of vertices on an edge, %d.\n",
; 6684 :                      ord+1,web.skel[EDGE].ctrlpts);

	push	eax
	lea	ecx, DWORD PTR [ebx+1]
	push	ecx
	push	OFFSET ??_C@_0DL@DGCEOMEP@Index?0?5?$CFd?0?5exceeds?5the?5number?5of@
	push	OFFSET _errmsg
	call	_sprintf

; 6685 :                 sprintf(errmsg+strlen(errmsg),"(source file %s, line %d)\n",
; 6686 :                    file_names[node->file_no],node->line_no);

	mov	eax, OFFSET _errmsg
	add	esp, 16					; 00000010H
	lea	edx, DWORD PTR [eax+1]
	npad	6
$LL172@get_indexe:
	mov	cl, BYTE PTR [eax]
	inc	eax
	test	cl, cl
	jne	SHORT $LL172@get_indexe
	mov	ecx, DWORD PTR [esi+16]
	sub	eax, edx
	mov	edx, DWORD PTR [esi+12]
	push	edx
	mov	edx, DWORD PTR _file_names
	mov	ecx, DWORD PTR [edx+ecx*4]
	push	ecx
	lea	edx, DWORD PTR _errmsg[eax]
	push	OFFSET ??_C@_0BL@LMCMICK@?$CIsource?5file?5?$CFs?0?5line?5?$CFd?$CJ?6?$AA@
	push	edx
	call	_sprintf

; 6687 :                 kb_error(1280,errmsg, RECOVERABLE);

	push	1
	push	OFFSET _errmsg
	push	1280					; 00000500H
	call	_kb_error
	mov	eax, DWORD PTR _web+120
	mov	ecx, DWORD PTR _parent$[ebp]
	add	esp, 28					; 0000001cH
$LN83@get_indexe:

; 6688 :               } 
; 6689 :               if ( web.modeltype == LAGRANGE )

	cmp	DWORD PTR _web+628, 3
	jne	SHORT $LN82@get_indexe

; 6690 :               { next_id = get_edge_vertices(parent)
; 6691 :                   [inverted(parent) ? web.skel[EDGE].ctrlpts-ord-1 : ord]; 

	test	ecx, 134217728				; 08000000H
	je	SHORT $LN117@get_indexe
	sub	eax, ebx
	dec	eax
	jmp	SHORT $LN118@get_indexe
$LN117@get_indexe:
	mov	eax, ebx
$LN118@get_indexe:
	mov	edx, DWORD PTR _web+124
	mov	esi, DWORD PTR _dymem
	and	ecx, 134217727				; 07ffffffH
	mov	ecx, DWORD PTR [edx+ecx*4]
	mov	edx, DWORD PTR _web+216
	add	ecx, DWORD PTR [edx+esi+304]
	pop	edi
	mov	eax, DWORD PTR [ecx+eax*4]
	pop	esi

; 6910 :              { case EDGE: next_id = get_fe_edge(parent); break;

	mov	DWORD PTR _next_id$[ebp], eax
	pop	ebx

; 6917 : 
; 6918 :        } // end get_indexed_subtype()

	mov	esp, ebp
	pop	ebp
	ret	0
$LN82@get_indexe:

; 6692 :               }
; 6693 :               else 
; 6694 :                  switch ( ord )

	mov	eax, ebx
	sub	eax, 0
	je	SHORT $LN78@get_indexe
	dec	eax
	je	SHORT $LN77@get_indexe
	dec	eax
	jne	$LN3@get_indexe

; 6697 :                    case 2: next_id = get_edge_midv(parent); break;

	mov	edx, DWORD PTR _web+124
	and	ecx, 134217727				; 07ffffffH
	mov	eax, DWORD PTR [edx+ecx*4]
	mov	edx, DWORD PTR _dymem
	mov	ecx, DWORD PTR _web+216
	mov	ecx, DWORD PTR [ecx+edx+304]
	mov	edx, DWORD PTR [eax+ecx+8]
	pop	edi
	pop	esi
	mov	DWORD PTR _next_id$[ebp], edx

; 6912 :              }
; 6913 :              break;
; 6914 :           }
; 6915 : 
; 6916 :           return next_id;

	mov	eax, edx
	pop	ebx

; 6917 : 
; 6918 :        } // end get_indexed_subtype()

	mov	esp, ebp
	pop	ebp
	ret	0
$LN77@get_indexe:

; 6696 :                    case 1: next_id = get_edge_headv(parent); break;

	mov	eax, DWORD PTR _parent$[ebp]
	push	eax
	call	_get_edge_headv

; 6910 :              { case EDGE: next_id = get_fe_edge(parent); break;

	add	esp, 4
	pop	edi
	pop	esi
	mov	DWORD PTR _next_id$[ebp], eax
	pop	ebx

; 6917 : 
; 6918 :        } // end get_indexed_subtype()

	mov	esp, ebp
	pop	ebp
	ret	0
$LN78@get_indexe:

; 6695 :                  { case 0: next_id = get_edge_tailv(parent); break;

	mov	ecx, DWORD PTR _parent$[ebp]
	push	ecx
	call	_get_edge_tailv

; 6910 :              { case EDGE: next_id = get_fe_edge(parent); break;

	add	esp, 4
	pop	edi
	pop	esi
	mov	DWORD PTR _next_id$[ebp], eax
	pop	ebx

; 6917 : 
; 6918 :        } // end get_indexed_subtype()

	mov	esp, ebp
	pop	ebp
	ret	0
$LN63@get_indexe:

; 6744 :               break;
; 6745 :             }
; 6746 :             break;
; 6747 :           
; 6748 :          case FACET:
; 6749 :              switch ( node->op1.eltype /* subtype */ )

	mov	eax, DWORD PTR [esi+32]
	sub	eax, 0
	je	$LN60@get_indexe
	dec	eax
	je	$LN33@get_indexe
	sub	eax, 2
	jne	$LN3@get_indexe

; 6856 :                  break;
; 6857 :              
; 6858 :                 case BODY:
; 6859 :                   switch ( ord )

	mov	eax, ebx
	sub	eax, 0
	je	SHORT $LN18@get_indexe
	dec	eax
	je	SHORT $LN17@get_indexe

; 6863 :                     default: 
; 6864 :                       sprintf(errmsg,
; 6865 :                        "Illegal facet body index %d; must be 1 or 2.\n",ord+1);

	lea	edx, DWORD PTR [ebx+1]
	push	edx
	push	OFFSET ??_C@_0CO@JEIJBJNB@Illegal?5facet?5body?5index?5?$CFd?$DL?5mus@
	push	OFFSET _errmsg
	call	_sprintf

; 6866 :                       sprintf(errmsg+strlen(errmsg),"(source file %s, line %d)\n",
; 6867 :                        file_names[node->file_no],node->line_no);

	mov	eax, OFFSET _errmsg
	add	esp, 12					; 0000000cH
	lea	edx, DWORD PTR [eax+1]
$LL173@get_indexe:
	mov	cl, BYTE PTR [eax]
	inc	eax
	test	cl, cl
	jne	SHORT $LL173@get_indexe
	mov	ecx, DWORD PTR [esi+12]
	push	ecx
	mov	ecx, DWORD PTR _file_names
	sub	eax, edx
	mov	edx, DWORD PTR [esi+16]
	mov	edx, DWORD PTR [ecx+edx*4]
	push	edx
	lea	eax, DWORD PTR _errmsg[eax]
	push	OFFSET ??_C@_0BL@LMCMICK@?$CIsource?5file?5?$CFs?0?5line?5?$CFd?$CJ?6?$AA@
	push	eax
	call	_sprintf

; 6868 :                       kb_error(1287,errmsg, RECOVERABLE);

	push	1
	push	OFFSET _errmsg
	push	1287					; 00000507H
	call	_kb_error
	add	esp, 28					; 0000001cH

; 6869 :                       break;

	jmp	SHORT $LN19@get_indexe
$LN17@get_indexe:

; 6861 :                     case 1: next_id = get_facet_body(inverse_id(parent)); 

	mov	ecx, DWORD PTR _parent$[ebp]
	xor	ecx, 134217728				; 08000000H
	push	ecx

; 6862 :                             break;

	jmp	SHORT $LN187@get_indexe
$LN18@get_indexe:

; 6860 :                   { case 0: next_id = get_facet_body(parent); break;

	mov	edx, DWORD PTR _parent$[ebp]
	push	edx
$LN187@get_indexe:
	call	_get_facet_body
	mov	DWORD PTR _next_id$[ebp], eax
	add	esp, 4
$LN19@get_indexe:

; 6870 :                  }
; 6871 :                  if ( !valid_id(next_id) )

	test	DWORD PTR _next_id$[ebp], 268435456	; 10000000H
	jne	$LN3@get_indexe

; 6872 :                  { sprintf(errmsg,"Facet %d does not have body of index %d.\n",
; 6873 :                       oid(parent),ord+1);

	mov	eax, DWORD PTR _parent$[ebp]
	inc	ebx
	push	ebx
	push	eax
	call	_oid
	add	esp, 4
	push	eax
	push	OFFSET ??_C@_0CK@CJDPOKNP@Facet?5?$CFd?5does?5not?5have?5body?5of?5i@
	push	OFFSET _errmsg
	call	_sprintf

; 6874 :                    sprintf(errmsg+strlen(errmsg),"(source file %s, line %d)\n",
; 6875 :                      file_names[node->file_no],node->line_no);

	mov	eax, OFFSET _errmsg
	add	esp, 16					; 00000010H
	lea	edx, DWORD PTR [eax+1]
$LL174@get_indexe:
	mov	cl, BYTE PTR [eax]
	inc	eax
	test	cl, cl
	jne	SHORT $LL174@get_indexe
	mov	ecx, DWORD PTR [esi+12]
	push	ecx
	mov	ecx, DWORD PTR _file_names
	sub	eax, edx
	mov	edx, DWORD PTR [esi+16]
	mov	edx, DWORD PTR [ecx+edx*4]
	push	edx
	lea	eax, DWORD PTR _errmsg[eax]
	push	OFFSET ??_C@_0BL@LMCMICK@?$CIsource?5file?5?$CFs?0?5line?5?$CFd?$CJ?6?$AA@
	push	eax
	call	_sprintf

; 6876 :                    kb_error(2070,errmsg,RECOVERABLE);

	push	1
	push	OFFSET _errmsg
	push	2070					; 00000816H
	call	_kb_error

; 6912 :              }
; 6913 :              break;
; 6914 :           }
; 6915 : 
; 6916 :           return next_id;

	mov	eax, DWORD PTR _next_id$[ebp]
	add	esp, 28					; 0000001cH
	pop	edi
	pop	esi
	pop	ebx

; 6917 : 
; 6918 :        } // end get_indexed_subtype()

	mov	esp, ebp
	pop	ebp
	ret	0
$LN33@get_indexe:

; 6823 : 
; 6824 :                 break;
; 6825 : 
; 6826 :                case EDGE:
; 6827 :                  id = first = get_facet_fe(parent);

	mov	ecx, DWORD PTR _parent$[ebp]
	push	ecx
	call	_get_facet_fe
	mov	ebx, eax

; 6828 :                  if ( !valid_element(id) )

	push	ebx
	mov	DWORD PTR _first$[ebp], ebx
	mov	edi, ebx
	call	_valid_element
	add	esp, 8
	test	eax, eax
	jne	SHORT $LN32@get_indexe

; 6829 :                  { sprintf(errmsg,"Facet has no edges.\n");

	push	OFFSET ??_C@_0BF@MJOFPPG@Facet?5has?5no?5edges?4?6?$AA@
	push	OFFSET _errmsg
	call	_sprintf

; 6830 :                    sprintf(errmsg+strlen(errmsg),"(source file %s, line %d)\n",
; 6831 :                         file_names[node->file_no],node->line_no);

	mov	eax, OFFSET _errmsg
	add	esp, 8
	lea	edx, DWORD PTR [eax+1]
$LL175@get_indexe:
	mov	cl, BYTE PTR [eax]
	inc	eax
	test	cl, cl
	jne	SHORT $LL175@get_indexe
	mov	ecx, DWORD PTR [esi+16]
	sub	eax, edx
	mov	edx, DWORD PTR [esi+12]
	push	edx
	mov	edx, DWORD PTR _file_names
	mov	ecx, DWORD PTR [edx+ecx*4]
	push	ecx
	lea	edx, DWORD PTR _errmsg[eax]
	push	OFFSET ??_C@_0BL@LMCMICK@?$CIsource?5file?5?$CFs?0?5line?5?$CFd?$CJ?6?$AA@
	push	edx
	call	_sprintf

; 6832 :                    kb_error(1285,errmsg,RECOVERABLE);

	push	1
	push	OFFSET _errmsg
	push	1285					; 00000505H
	call	_kb_error
	add	esp, 28					; 0000001cH
$LN32@get_indexe:

; 6833 :                  }
; 6834 : 
; 6835 :                  if ( inverted(parent) && (web.representation == STRING) ) 

	test	DWORD PTR _parent$[ebp], 134217728	; 08000000H
	je	SHORT $LN183@get_indexe
	cmp	DWORD PTR _web+624, 1
	jne	SHORT $LN183@get_indexe

; 6836 :                  { facetedge_id nextfe=id,startfe=id;

	mov	eax, ebx
$LL30@get_indexe:

; 6837 :                    /* go back round to find start */
; 6838 :                    do
; 6839 :                    { id = nextfe;
; 6840 :                      nextfe = get_prev_edge(id);

	push	eax
	mov	edi, eax
	call	_get_prev_edge
	add	esp, 4

; 6841 :                    } while ( valid_id(nextfe) && !equal_id(nextfe,startfe) );

	test	eax, 268435456				; 10000000H
	je	SHORT $LN27@get_indexe
	cmp	eax, ebx
	jne	SHORT $LL30@get_indexe
$LN27@get_indexe:

; 6842 :                    first = id;

	mov	DWORD PTR _first$[ebp], edi
$LN183@get_indexe:

; 6843 :                  }
; 6844 :                  for ( n = 1 ; n <= ord ; n++ )

	cmp	DWORD PTR _ord$[ebp], 1
	jl	$LN24@get_indexe
	mov	ebx, DWORD PTR _ord$[ebp]
	npad	4
$LL26@get_indexe:

; 6845 :                    { id = get_next_edge(id);

	push	edi
	call	_get_next_edge
	mov	edi, eax
	add	esp, 4

; 6846 :                      if ( !valid_id(id) || equal_id(id,first) )

	test	edi, 268435456				; 10000000H
	je	SHORT $LN22@get_indexe
	cmp	edi, DWORD PTR _first$[ebp]
	jne	$LN25@get_indexe
$LN22@get_indexe:

; 6847 :                      { sprintf(errmsg,
; 6848 :                     "Edge index, %d, exceeds number of edges on facet %s.\n",
; 6849 :                           ord+1,ELNAME(parent));

	test	DWORD PTR _parent$[ebp], 268435456	; 10000000H
	je	SHORT $LN133@get_indexe
	mov	eax, DWORD PTR _parent$[ebp]
	and	eax, 134217727				; 07ffffffH
	inc	eax
	push	eax
	push	OFFSET ??_C@_02DPKJAMEF@?$CFd?$AA@
	push	OFFSET _elnames
	call	_sprintf
	add	esp, 12					; 0000000cH
	mov	eax, OFFSET _elnames
	jmp	SHORT $LN134@get_indexe
$LN133@get_indexe:
	mov	eax, OFFSET ??_C@_00CNPNBAHC@?$AA@
$LN134@get_indexe:
	mov	ecx, DWORD PTR _ord$[ebp]
	push	eax
	inc	ecx
	push	ecx
	push	OFFSET ??_C@_0DG@HHKGBCBA@Edge?5index?0?5?$CFd?0?5exceeds?5number?5o@
	push	OFFSET _errmsg
	call	_sprintf

; 6850 :                       sprintf(errmsg+strlen(errmsg),"(source file %s, line %d)\n",
; 6851 :                           file_names[node->file_no],node->line_no);

	mov	eax, OFFSET _errmsg
	add	esp, 16					; 00000010H
	lea	edx, DWORD PTR [eax+1]
	npad	3
$LL176@get_indexe:
	mov	cl, BYTE PTR [eax]
	inc	eax
	test	cl, cl
	jne	SHORT $LL176@get_indexe
	mov	ecx, DWORD PTR [esi+16]
	sub	eax, edx
	mov	edx, DWORD PTR [esi+12]
	push	edx
	mov	edx, DWORD PTR _file_names
	mov	ecx, DWORD PTR [edx+ecx*4]
	push	ecx
	lea	edx, DWORD PTR _errmsg[eax]
	push	OFFSET ??_C@_0BL@LMCMICK@?$CIsource?5file?5?$CFs?0?5line?5?$CFd?$CJ?6?$AA@
	push	edx
	call	_sprintf

; 6852 :                        kb_error(1286,errmsg,RECOVERABLE);

	push	1
	push	OFFSET _errmsg
	push	1286					; 00000506H
	call	_kb_error
	add	esp, 28					; 0000001cH
$LN25@get_indexe:

; 6843 :                  }
; 6844 :                  for ( n = 1 ; n <= ord ; n++ )

	dec	ebx
	jne	$LL26@get_indexe
$LN24@get_indexe:

; 6853 :                      }
; 6854 :                    }
; 6855 :                    next_id = get_fe_edge(id);

	mov	ecx, DWORD PTR _web+460
	mov	eax, edi
	and	eax, 134217727				; 07ffffffH
	mov	edx, DWORD PTR [ecx+eax*4]
	and	edi, 134217728				; 08000000H
	xor	edi, DWORD PTR [edx+20]
	mov	DWORD PTR _next_id$[ebp], edi

; 6912 :              }
; 6913 :              break;
; 6914 :           }
; 6915 : 
; 6916 :           return next_id;

	mov	eax, edi
	pop	edi
	pop	esi
	pop	ebx

; 6917 : 
; 6918 :        } // end get_indexed_subtype()

	mov	esp, ebp
	pop	ebp
	ret	0
$LN60@get_indexe:

; 6750 :              { case VERTEX:
; 6751 :                  if ( (web.representation == SIMPLEX) ||
; 6752 :                       (web.modeltype == LAGRANGE) )

	mov	eax, DWORD PTR _web+624
	cmp	eax, 3
	je	$LN58@get_indexe
	cmp	DWORD PTR _web+628, 3
	je	$LN58@get_indexe

; 6762 :                    break;
; 6763 :                  }
; 6764 :                  if ( web.representation == SOAPFILM )

	cmp	eax, 2
	jne	$LN56@get_indexe

; 6765 :                  { if ( ord >= web.skel[FACET].ctrlpts )

	cmp	ebx, DWORD PTR _web+232
	jl	$LN55@get_indexe

; 6766 :                    { sprintf(errmsg,
; 6767 :                   "Vertex index, %d, exceeds number of vertices on facet %s.\n",
; 6768 :                         ord+1,ELNAME(parent));

	test	DWORD PTR _parent$[ebp], 268435456	; 10000000H
	je	SHORT $LN129@get_indexe
	mov	eax, DWORD PTR _parent$[ebp]
	and	eax, 134217727				; 07ffffffH
	inc	eax
	push	eax
	push	OFFSET ??_C@_02DPKJAMEF@?$CFd?$AA@
	push	OFFSET _elnames
	call	_sprintf
	add	esp, 12					; 0000000cH
	mov	eax, OFFSET _elnames
	jmp	SHORT $LN130@get_indexe
$LN129@get_indexe:
	mov	eax, OFFSET ??_C@_00CNPNBAHC@?$AA@
$LN130@get_indexe:
	push	eax
	lea	ecx, DWORD PTR [ebx+1]
	push	ecx
	push	OFFSET ??_C@_0DL@GPAGLJBP@Vertex?5index?0?5?$CFd?0?5exceeds?5number@
	push	OFFSET _errmsg
	call	_sprintf

; 6769 :                     sprintf(errmsg+strlen(errmsg),"(source file %s, line %d)\n",
; 6770 :                           file_names[node->file_no],node->line_no);

	mov	eax, OFFSET _errmsg
	add	esp, 16					; 00000010H
	lea	edx, DWORD PTR [eax+1]
	npad	5
$LL177@get_indexe:
	mov	cl, BYTE PTR [eax]
	inc	eax
	test	cl, cl
	jne	SHORT $LL177@get_indexe
	mov	ecx, DWORD PTR [esi+16]
	sub	eax, edx
	mov	edx, DWORD PTR [esi+12]
	push	edx
	mov	edx, DWORD PTR _file_names
	mov	ecx, DWORD PTR [edx+ecx*4]
	push	ecx
	lea	edx, DWORD PTR _errmsg[eax]
	push	OFFSET ??_C@_0BL@LMCMICK@?$CIsource?5file?5?$CFs?0?5line?5?$CFd?$CJ?6?$AA@
	push	edx
	call	_sprintf

; 6771 :                      kb_error(3504,errmsg,RECOVERABLE);

	push	1
	push	OFFSET _errmsg
	push	3504					; 00000db0H
	call	_kb_error
	add	esp, 28					; 0000001cH
$LN55@get_indexe:

; 6772 :                    }
; 6773 :                    fe = get_facet_fe(parent);

	mov	eax, DWORD PTR _parent$[ebp]
	push	eax
	call	_get_facet_fe
	add	esp, 4

; 6774 :                    if ( ord < 3 )

	cmp	ebx, 3
	jge	SHORT $LN188@get_indexe

; 6775 :                    { for ( i = 0 ; i < ord ; i++ )

	test	ebx, ebx
	jle	SHORT $LN51@get_indexe
	mov	esi, ebx
$LL53@get_indexe:

; 6776 :                        fe = get_next_edge(fe);

	push	eax
	call	_get_next_edge
	add	esp, 4
	dec	esi
	jne	SHORT $LL53@get_indexe
$LN51@get_indexe:

; 6777 :                      next_id = get_fe_tailv(fe);

	push	eax
	call	_get_fe_edge
	push	eax
	call	_get_edge_tailv
	add	esp, 8
	pop	edi
	pop	esi

; 6910 :              { case EDGE: next_id = get_fe_edge(parent); break;

	mov	DWORD PTR _next_id$[ebp], eax
	pop	ebx

; 6917 : 
; 6918 :        } // end get_indexed_subtype()

	mov	esp, ebp
	pop	ebp
	ret	0
$LN188@get_indexe:

; 6778 :                    }
; 6779 :                    else 
; 6780 :                    { for ( i = 3 ; i < ord ; i++ )

	jle	SHORT $LN47@get_indexe
	lea	esi, DWORD PTR [ebx-3]
$LL49@get_indexe:

; 6781 :                        fe = get_next_edge(fe);

	push	eax
	call	_get_next_edge
	add	esp, 4
	dec	esi
	jne	SHORT $LL49@get_indexe
$LN47@get_indexe:

; 6782 :                      next_id = get_fe_midv(fe);

	push	eax
	call	_get_fe_edge
	mov	ecx, DWORD PTR _web+124
	add	esp, 4
	and	eax, 134217727				; 07ffffffH
	mov	edx, DWORD PTR [ecx+eax*4]
	mov	ecx, DWORD PTR _dymem
	mov	eax, DWORD PTR _web+216
	mov	eax, DWORD PTR [eax+ecx+304]
	mov	ecx, DWORD PTR [edx+eax+8]
	pop	edi
	pop	esi
	mov	DWORD PTR _next_id$[ebp], ecx

; 6912 :              }
; 6913 :              break;
; 6914 :           }
; 6915 : 
; 6916 :           return next_id;

	mov	eax, ecx
	pop	ebx

; 6917 : 
; 6918 :        } // end get_indexed_subtype()

	mov	esp, ebp
	pop	ebp
	ret	0
$LN56@get_indexe:

; 6783 :                    }
; 6784 :                    break;
; 6785 :                  }
; 6786 : 
; 6787 :                  /* now string */
; 6788 :                  id = first = get_facet_fe(parent);

	mov	edx, DWORD PTR _parent$[ebp]
	push	edx
	call	_get_facet_fe

; 6789 :                  if ( !valid_element(id) )

	push	eax
	mov	DWORD PTR _first$[ebp], eax
	mov	edi, eax
	call	_valid_element
	add	esp, 8
	test	eax, eax
	jne	SHORT $LN46@get_indexe

; 6790 :                  {  sprintf(errmsg,"Facet has no edges.\n");

	push	OFFSET ??_C@_0BF@MJOFPPG@Facet?5has?5no?5edges?4?6?$AA@
	push	OFFSET _errmsg
	call	_sprintf

; 6791 :                     sprintf(errmsg+strlen(errmsg),"(source file %s, line %d)\n",
; 6792 :                          file_names[node->file_no],node->line_no);

	mov	eax, OFFSET _errmsg
	add	esp, 8
	lea	edx, DWORD PTR [eax+1]
	npad	6
$LL178@get_indexe:
	mov	cl, BYTE PTR [eax]
	inc	eax
	test	cl, cl
	jne	SHORT $LL178@get_indexe
	mov	ecx, DWORD PTR [esi+12]
	push	ecx
	mov	ecx, DWORD PTR _file_names
	sub	eax, edx
	mov	edx, DWORD PTR [esi+16]
	mov	edx, DWORD PTR [ecx+edx*4]
	push	edx
	lea	eax, DWORD PTR _errmsg[eax]
	push	OFFSET ??_C@_0BL@LMCMICK@?$CIsource?5file?5?$CFs?0?5line?5?$CFd?$CJ?6?$AA@
	push	eax
	call	_sprintf

; 6793 :                     kb_error(1283,errmsg,RECOVERABLE);

	push	1
	push	OFFSET _errmsg
	push	1283					; 00000503H
	call	_kb_error
	add	esp, 28					; 0000001cH
$LN46@get_indexe:

; 6794 :                  }
; 6795 :                  if ( inverted(parent) ) 

	test	DWORD PTR _parent$[ebp], 134217728	; 08000000H
	je	SHORT $LN45@get_indexe

; 6796 :                  { facetedge_id nextfe=id,startfe=id;

	mov	eax, DWORD PTR _first$[ebp]
	npad	5
$LL44@get_indexe:

; 6797 :                    /* go back round to find start */
; 6798 :                    do
; 6799 :                    { id = nextfe;
; 6800 :                      nextfe = get_prev_edge(id);

	push	eax
	mov	edi, eax
	call	_get_prev_edge
	add	esp, 4

; 6801 :                    } while ( valid_id(nextfe) && !equal_id(nextfe,startfe) );

	test	eax, 268435456				; 10000000H
	je	SHORT $LN41@get_indexe
	cmp	eax, DWORD PTR _first$[ebp]
	jne	SHORT $LL44@get_indexe
$LN41@get_indexe:

; 6802 :                    first = id;

	mov	DWORD PTR _first$[ebp], edi
$LN45@get_indexe:

; 6803 :                  }
; 6804 :                  for ( n = 1 ; n <= ord ; n++ )

	mov	DWORD PTR _n$[ebp], 1
	cmp	ebx, 1
	jl	$LN38@get_indexe
	npad	6
$LL40@get_indexe:

; 6805 :                    { edge_id next_edge = get_next_edge(id);

	push	edi
	call	_get_next_edge

; 6806 :                      if ( !valid_id(next_edge) && n == ord )

	mov	ecx, eax
	shr	ecx, 28					; 0000001cH
	add	esp, 4
	and	ecx, 1
	jne	SHORT $LN184@get_indexe
	cmp	DWORD PTR _n$[ebp], ebx
	je	$LN152@get_indexe
$LN184@get_indexe:

; 6809 :                        break;
; 6810 :                      } 
; 6811 :                      id = next_edge;

	mov	edi, eax

; 6812 :                      if ( !valid_id(id) || equal_id(id,first) )

	test	ecx, ecx
	je	SHORT $LN35@get_indexe
	cmp	eax, DWORD PTR _first$[ebp]
	jne	$LN39@get_indexe
$LN35@get_indexe:

; 6813 :                      { sprintf(errmsg,
; 6814 :                     "Vertex index, %d, exceeds number of vertices on facet %s.\n",
; 6815 :                           ord+1,ELNAME(parent));

	test	DWORD PTR _parent$[ebp], 268435456	; 10000000H
	je	SHORT $LN131@get_indexe
	mov	ecx, DWORD PTR _parent$[ebp]
	and	ecx, 134217727				; 07ffffffH
	inc	ecx
	push	ecx
	push	OFFSET ??_C@_02DPKJAMEF@?$CFd?$AA@
	push	OFFSET _elnames
	call	_sprintf
	add	esp, 12					; 0000000cH
	mov	eax, OFFSET _elnames
	jmp	SHORT $LN132@get_indexe
$LN131@get_indexe:
	mov	eax, OFFSET ??_C@_00CNPNBAHC@?$AA@
$LN132@get_indexe:
	push	eax
	lea	edx, DWORD PTR [ebx+1]
	push	edx
	push	OFFSET ??_C@_0DL@GPAGLJBP@Vertex?5index?0?5?$CFd?0?5exceeds?5number@
	push	OFFSET _errmsg
	call	_sprintf

; 6816 :                       sprintf(errmsg+strlen(errmsg),"(source file %s, line %d)\n",
; 6817 :                           file_names[node->file_no],node->line_no);

	mov	eax, OFFSET _errmsg
	add	esp, 16					; 00000010H
	lea	edx, DWORD PTR [eax+1]
	npad	4
$LL179@get_indexe:
	mov	cl, BYTE PTR [eax]
	inc	eax
	test	cl, cl
	jne	SHORT $LL179@get_indexe
	mov	ecx, DWORD PTR [esi+12]
	push	ecx
	mov	ecx, DWORD PTR _file_names
	sub	eax, edx
	mov	edx, DWORD PTR [esi+16]
	mov	edx, DWORD PTR [ecx+edx*4]
	push	edx
	lea	eax, DWORD PTR _errmsg[eax]
	push	OFFSET ??_C@_0BL@LMCMICK@?$CIsource?5file?5?$CFs?0?5line?5?$CFd?$CJ?6?$AA@
	push	eax
	call	_sprintf

; 6818 :                        kb_error(1284,errmsg,RECOVERABLE);

	push	1
	push	OFFSET _errmsg
	push	1284					; 00000504H
	call	_kb_error
	add	esp, 28					; 0000001cH
$LN39@get_indexe:

; 6803 :                  }
; 6804 :                  for ( n = 1 ; n <= ord ; n++ )

	mov	eax, DWORD PTR _n$[ebp]
	inc	eax
	mov	DWORD PTR _n$[ebp], eax
	cmp	eax, ebx
	jle	$LL40@get_indexe

; 6889 :                 if ( equal_id(id,first) )

	jmp	SHORT $LN38@get_indexe
$LN152@get_indexe:

; 6807 :                      { next_id = get_fe_headv(id);

	push	edi
	call	_get_fe_edge
	push	eax
	call	_get_edge_headv
	add	esp, 8
	mov	DWORD PTR _next_id$[ebp], eax

; 6808 :                        id = NULLID;

	xor	edi, edi
$LN38@get_indexe:

; 6819 :                      }
; 6820 :                    }
; 6821 :                  if ( valid_id(id) ) 

	test	edi, 268435456				; 10000000H
	je	$LN3@get_indexe

; 6822 :                     next_id = get_fe_tailv(id);

	push	edi
	call	_get_fe_edge
	push	eax
	call	_get_edge_tailv
	add	esp, 8
	pop	edi
	pop	esi

; 6910 :              { case EDGE: next_id = get_fe_edge(parent); break;

	mov	DWORD PTR _next_id$[ebp], eax
	pop	ebx

; 6917 : 
; 6918 :        } // end get_indexed_subtype()

	mov	esp, ebp
	pop	ebp
	ret	0
$LN58@get_indexe:

; 6753 :                  { if ( ord >= web.skel[FACET].ctrlpts )

	cmp	ebx, DWORD PTR _web+232
	jl	$LN57@get_indexe

; 6754 :                    { sprintf(errmsg,
; 6755 :                   "Vertex index, %d, exceeds number of vertices on facet %s.\n",
; 6756 :                         ord+1,ELNAME(parent));

	test	ecx, 268435456				; 10000000H
	je	SHORT $LN127@get_indexe
	mov	ecx, DWORD PTR _parent$[ebp]
	and	ecx, 134217727				; 07ffffffH
	inc	ecx
	push	ecx
	push	OFFSET ??_C@_02DPKJAMEF@?$CFd?$AA@
	push	OFFSET _elnames
	call	_sprintf
	add	esp, 12					; 0000000cH
	mov	eax, OFFSET _elnames
	jmp	SHORT $LN128@get_indexe
$LN127@get_indexe:
	mov	eax, OFFSET ??_C@_00CNPNBAHC@?$AA@
$LN128@get_indexe:
	push	eax
	lea	edx, DWORD PTR [ebx+1]
	push	edx
	push	OFFSET ??_C@_0DL@GPAGLJBP@Vertex?5index?0?5?$CFd?0?5exceeds?5number@
	push	OFFSET _errmsg
	call	_sprintf

; 6757 :                     sprintf(errmsg+strlen(errmsg),"(source file %s, line %d)\n",
; 6758 :                           file_names[node->file_no],node->line_no);

	mov	eax, OFFSET _errmsg
	add	esp, 16					; 00000010H
	lea	edx, DWORD PTR [eax+1]
$LL180@get_indexe:
	mov	cl, BYTE PTR [eax]
	inc	eax
	test	cl, cl
	jne	SHORT $LL180@get_indexe
	mov	ecx, DWORD PTR [esi+12]
	push	ecx
	mov	ecx, DWORD PTR _file_names
	sub	eax, edx
	mov	edx, DWORD PTR [esi+16]
	mov	edx, DWORD PTR [ecx+edx*4]
	push	edx
	lea	eax, DWORD PTR _errmsg[eax]
	push	OFFSET ??_C@_0BL@LMCMICK@?$CIsource?5file?5?$CFs?0?5line?5?$CFd?$CJ?6?$AA@
	push	eax
	call	_sprintf

; 6759 :                      kb_error(3503,errmsg,RECOVERABLE);

	push	1
	push	OFFSET _errmsg
	push	3503					; 00000dafH
	call	_kb_error
	mov	ecx, DWORD PTR _parent$[ebp]
	add	esp, 28					; 0000001cH
$LN57@get_indexe:

; 6760 :                    }
; 6761 :                    next_id = get_facet_vertices(parent)[ord];

	mov	edx, DWORD PTR _web+236
	and	ecx, 134217727				; 07ffffffH
	mov	eax, DWORD PTR [edx+ecx*4]
	mov	ecx, DWORD PTR _web+328
	mov	edx, DWORD PTR _dymem
	add	eax, DWORD PTR [ecx+edx+304]
	pop	edi
	mov	eax, DWORD PTR [eax+ebx*4]
	pop	esi

; 6910 :              { case EDGE: next_id = get_fe_edge(parent); break;

	mov	DWORD PTR _next_id$[ebp], eax
	pop	ebx

; 6917 : 
; 6918 :        } // end get_indexed_subtype()

	mov	esp, ebp
	pop	ebp
	ret	0
$LN14@get_indexe:

; 6877 :                  }
; 6878 :                  break;
; 6879 :              } 
; 6880 :              break;
; 6881 :          case BODY:
; 6882 :              switch ( node->op1.eltype /* subtype */ )

	mov	eax, DWORD PTR [esi+32]
	sub	eax, 2
	jne	$LN3@get_indexe

; 6883 :              { case FACET:
; 6884 : 
; 6885 :              id = first = get_body_facet(parent);

	mov	ecx, DWORD PTR _parent$[ebp]
	push	ecx
	call	_get_body_facet

; 6886 :              for ( n = 1 ; n <= ord ; n++ )

	mov	edi, 1
	add	esp, 4
	mov	ebx, eax
	mov	DWORD PTR _id$[ebp], ebx
	cmp	DWORD PTR _ord$[ebp], edi
	jl	SHORT $LN8@get_indexe
	npad	3
$LL10@get_indexe:

; 6887 :               {
; 6888 :                 id = get_next_body_facet(id);

	mov	edx, DWORD PTR _id$[ebp]
	push	edx
	call	_get_next_body_facet
	add	esp, 4
	mov	DWORD PTR _id$[ebp], eax

; 6889 :                 if ( equal_id(id,first) )

	cmp	eax, ebx
	je	SHORT $LN153@get_indexe

; 6886 :              for ( n = 1 ; n <= ord ; n++ )

	inc	edi
	cmp	edi, DWORD PTR _ord$[ebp]
	jle	SHORT $LL10@get_indexe

; 6889 :                 if ( equal_id(id,first) )

	jmp	SHORT $LN8@get_indexe
$LN153@get_indexe:

; 6890 :                 { id = NULLID; 

	mov	DWORD PTR _id$[ebp], 0
$LN8@get_indexe:

; 6891 :                   break;
; 6892 :                 }
; 6893 :                }
; 6894 :                if ( !valid_id(id) )

	mov	eax, 268435456				; 10000000H
	test	DWORD PTR _id$[ebp], eax
	jne	$LN6@get_indexe

; 6895 :                 { sprintf(errmsg,
; 6896 :                    "Facet index, %d, exceeds number of facets on body %s.\n",
; 6897 :                          ord+1, ELNAME(parent));

	test	DWORD PTR _parent$[ebp], eax
	je	SHORT $LN135@get_indexe
	mov	eax, DWORD PTR _parent$[ebp]
	and	eax, 134217727				; 07ffffffH
	inc	eax
	push	eax
	push	OFFSET ??_C@_02DPKJAMEF@?$CFd?$AA@
	push	OFFSET _elnames
	call	_sprintf
	add	esp, 12					; 0000000cH
	mov	eax, OFFSET _elnames
	jmp	SHORT $LN136@get_indexe
$LN135@get_indexe:
	mov	eax, OFFSET ??_C@_00CNPNBAHC@?$AA@
$LN136@get_indexe:
	push	eax
	mov	eax, DWORD PTR _ord$[ebp]
	inc	eax
	push	eax
	push	OFFSET ??_C@_0DH@JKBABGKM@Facet?5index?0?5?$CFd?0?5exceeds?5number?5@
	push	OFFSET _errmsg
	call	_sprintf

; 6898 :                   sprintf(errmsg+strlen(errmsg),"(source file %s, line %d)\n",
; 6899 :                      file_names[node->file_no],node->line_no);

	mov	eax, OFFSET _errmsg
	add	esp, 16					; 00000010H
	lea	edx, DWORD PTR [eax+1]
	npad	3
$LL181@get_indexe:
	mov	cl, BYTE PTR [eax]
	inc	eax
	test	cl, cl
	jne	SHORT $LL181@get_indexe
	mov	ecx, DWORD PTR [esi+12]
	push	ecx
	mov	ecx, DWORD PTR _file_names
	sub	eax, edx
	mov	edx, DWORD PTR [esi+16]
	mov	edx, DWORD PTR [ecx+edx*4]
	push	edx
	lea	eax, DWORD PTR _errmsg[eax]
	push	OFFSET ??_C@_0BL@LMCMICK@?$CIsource?5file?5?$CFs?0?5line?5?$CFd?$CJ?6?$AA@
	push	eax
	call	_sprintf

; 6900 :                         kb_error(1288,errmsg,RECOVERABLE);

	push	1
	push	OFFSET _errmsg
	push	1288					; 00000508H
	call	_kb_error
	add	esp, 28					; 0000001cH
$LN6@get_indexe:

; 6901 :                 }
; 6902 :               
; 6903 :              next_id = id;

	mov	ecx, DWORD PTR _id$[ebp]
	pop	edi
	pop	esi
	mov	DWORD PTR _next_id$[ebp], ecx

; 6912 :              }
; 6913 :              break;
; 6914 :           }
; 6915 : 
; 6916 :           return next_id;

	mov	eax, ecx
	pop	ebx

; 6917 : 
; 6918 :        } // end get_indexed_subtype()

	mov	esp, ebp
	pop	ebp
	ret	0
$LN5@get_indexe:

; 6904 :             break;
; 6905 :            }
; 6906 :            break;
; 6907 : 
; 6908 :          case FACETEDGE:
; 6909 :              switch ( node->op1.eltype /* subtype */ )

	mov	esi, DWORD PTR [esi+32]
	dec	esi
	je	SHORT $LN2@get_indexe
	dec	esi
	jne	SHORT $LN3@get_indexe

; 6911 :                case FACET: next_id = get_fe_facet(parent); break;

	mov	edx, DWORD PTR _parent$[ebp]
	push	edx
	call	_get_fe_facet
	add	esp, 4
	pop	edi
	pop	esi
	mov	DWORD PTR _next_id$[ebp], eax
	pop	ebx

; 6917 : 
; 6918 :        } // end get_indexed_subtype()

	mov	esp, ebp
	pop	ebp
	ret	0
$LN2@get_indexe:

; 6910 :              { case EDGE: next_id = get_fe_edge(parent); break;

	mov	eax, DWORD PTR _parent$[ebp]
	push	eax
	call	_get_fe_edge
	add	esp, 4
	mov	DWORD PTR _next_id$[ebp], eax
$LN3@get_indexe:

; 6912 :              }
; 6913 :              break;
; 6914 :           }
; 6915 : 
; 6916 :           return next_id;

	mov	eax, DWORD PTR _next_id$[ebp]
	pop	edi
	pop	esi
	pop	ebx

; 6917 : 
; 6918 :        } // end get_indexed_subtype()

	mov	esp, ebp
	pop	ebp
	ret	0
	npad	2
$LN189@get_indexe:
	DD	$LN103@get_indexe
	DD	$LN87@get_indexe
	DD	$LN63@get_indexe
	DD	$LN14@get_indexe
	DD	$LN5@get_indexe
_get_indexed_subtype ENDP
_TEXT	ENDS
PUBLIC	??_C@_0DE@KHJAAIFB@Internal?5error?3?5Stack?5misalignme@ ; `string'
PUBLIC	??_C@_0BM@GBPBJJDP@Evaluation?5stack?5overflow?4?6?$AA@ ; `string'
PUBLIC	??_C@_0BA@EFKCGIKP@BAD?5EVAL?5STACK?6?$AA@	; `string'
PUBLIC	??_C@_0CI@OEJLGIBG@Command?5aborted?5due?5to?5user?5inte@ ; `string'
PUBLIC	??_C@_0CN@MKCBCDPJ@Command?5aborted?5due?5to?5break_aft@ ; `string'
PUBLIC	??_C@_0BL@DGMPENFC@Variable?5?$CFs?5is?5read?9only?4?6?$AA@ ; `string'
PUBLIC	??_C@_0DO@MAANDGDB@Index?5?$CFd?5of?5left?5side?5is?5?$CFd?0?5ind@ ; `string'
PUBLIC	??_C@_0CM@JKKPHDDL@Mismatched?5sizes?5in?5matrix?5multi@ ; `string'
PUBLIC	??_C@_0DN@OGAILEKP@Index?5?$CFd?5of?5left?5side?5is?5?$CFd?0?5ind@ ; `string'
PUBLIC	??_C@_0CO@PIJDLECB@Mismatched?5sizes?5in?5matrix?5multi@ ; `string'
PUBLIC	??_C@_0DG@JLMOMNLE@Mismatched?5sizes?5in?5matrix?5multi@ ; `string'
PUBLIC	??_C@_0DF@LLDCAMHI@Mismatched?5sizes?5in?5matrix?5multi@ ; `string'
PUBLIC	??_C@_0BP@DNKGECGN@Dividing?5array?5by?5zero?5in?5?$CFs?4?6?$AA@ ; `string'
PUBLIC	??_C@_0CO@EJMBOHDJ@Array?5addition?3?5Arrays?5have?5diff@ ; `string'
PUBLIC	??_C@_0EE@BENIIKAP@Invalid?5string?5assignment?5operat@ ; `string'
PUBLIC	__real@7e0bbe3ac8d3bd70
PUBLIC	??_C@_0DC@MJPKIDCD@constraint_normal?3?5Constraint?5?$CFd@ ; `string'
PUBLIC	??_C@_0BC@DICJIAOM@Command?5aborted?4?6?$AA@	; `string'
PUBLIC	??_C@_0BD@KKBNAHFA@Division?5by?5zero?4?6?$AA@	; `string'
PUBLIC	??_C@_0DI@KHNAHFIG@Array?5index?5?$CFd?5of?5array?5?$CFs?5is?5?$CFd@ ; `string'
PUBLIC	??_C@_0DH@DOJNKOOH@Array?5index?5?$CFd?5of?5array?5?$CFs?5is?5?$CFd@ ; `string'
PUBLIC	??_C@_0DD@IDPGEBFJ@Internal?5error?$DL?5SET?5node?5?$CFd?5reac@ ; `string'
PUBLIC	??_C@_0CI@EMPMINAB@Parameter?5number?5is?5?$CFd?$DL?5maximum?5@ ; `string'
PUBLIC	??_C@_0DN@PDLOKPJK@Cannot?5set?5?$CFs?5?$CFs?5on?5a?5constraint@ ; `string'
PUBLIC	??_C@_0CA@KOHHCGIN@Illegal?5constraint?5number?3?5?$CFd?4?6?$AA@ ; `string'
PUBLIC	??_C@_0DA@ILOKBJND@Must?5unset?5body?5target?5before?5fi@ ; `string'
PUBLIC	??_C@_0DA@GLPHHFLM@Must?5unset?5body?5pressure?5before?5@ ; `string'
PUBLIC	??_C@_0CE@MDJIMOLA@Trying?5to?5unset?5body?5of?5non?9face@ ; `string'
PUBLIC	??_C@_0CA@CHBGMBCP@Bad?5element?5type?5for?5boundary?4?6?$AA@ ; `string'
PUBLIC	??_C@_0EK@PDNAEKOB@Cannot?5put?5?$CFs?5?$CFs?5on?5boundary?5?$CFd?5@ ; `string'
PUBLIC	??_C@_0BL@HEGGOIJJ@Boundary?5?$CFd?5is?5not?5valid?4?6?$AA@ ; `string'
PUBLIC	??_C@_0EF@DIFGONKI@Cannot?5put?5?$CFs?5?$CFs?5on?5a?5boundary?5s@ ; `string'
PUBLIC	??_C@_0CC@GMFFIBPI@Bad?5element?5type?5for?5constraint?4@ ; `string'
PUBLIC	??_C@_0EJ@GDFDELKD@Changing?5NONCONTENT?5not?5implemen@ ; `string'
PUBLIC	??_C@_0BB@GFLDKPMN@NaN?5?5?5?5?5?5?5?5?5?5?$CFd?6?$AA@ ; `string'
PUBLIC	??_C@_0BP@HMFEOHID@?5?5?5?5?5?5?5?5?5?5?$DM?$DN?50?40?5?5?5?5?5?5?5?5?5?5?5?$CFd?6?$AA@ ; `string'
PUBLIC	??_C@_0BI@HAEINGLM@?$CF10?45g?5?9?5?$CF10?45g?5?5?5?5?5?$CFd?6?$AA@ ; `string'
PUBLIC	??_C@_0BH@LIPFBHGH@No?5qualifying?5values?4?6?$AA@ ; `string'
PUBLIC	__real@7e37e43c8800759c
PUBLIC	__real@fe37e43c8800759c
PUBLIC	__real@4024000000000000
PUBLIC	__real@4034000000000000
PUBLIC	__real@4035000000000000
PUBLIC	??_C@_0CI@BOPKOLFN@Internal?5error?3?5Bad?5aggregate?5ty@ ; `string'
PUBLIC	__real@47d2ced32a16a1b1
PUBLIC	__real@c7d2ced32a16a1b1
PUBLIC	??_C@_0EI@DJBIKLIA@?1?1?5?5?5?5id?5?5?5?5?5?5?5edge?5?5?5?5facet?5?5pr@ ; `string'
PUBLIC	??_C@_0BB@BBHHCCHN@?1?1?5Id?5?5?5?5facets?6?$AA@ ; `string'
PUBLIC	??_C@_0BA@PJOLDBBB@?1?1?5Id?5?5?5?5edges?6?$AA@	; `string'
PUBLIC	??_C@_0BF@FCNHMFEN@?1?1?5Id?5?5?5?5?5?5vertices?6?$AA@ ; `string'
PUBLIC	??_C@_0BE@OOAKAHKL@?1?1?5Id?5?5?5?5endpoints?6?$AA@ ; `string'
PUBLIC	??_C@_0DI@OJNBJBKG@?1?1?5Id?5?5?5?5?5?5?5?5?5?5?5?5?5?5?5X?5?5?5?5?5?5?5?5?5?5?5@ ; `string'
PUBLIC	??_C@_0CI@MDNPENBI@?1?1?5Id?5?5?5?5?5?5?5?5?5?5?5?5?5?5?5X?5?5?5?5?5?5?5?5?5?5?5@ ; `string'
PUBLIC	??_C@_0BL@MACKFC@?$CFs?5index?5?$CFd?5is?5not?5valid?4?6?$AA@ ; `string'
PUBLIC	??_C@_0CI@PJIGNBKB@No?5element?5for?5SELF?5to?5refer?5to?5@ ; `string'
PUBLIC	??_C@_0CE@JPLNIPHC@Can?8t?5do?5boundary?5on?5a?5?$CFs?5?$CIin?5?$CFs@ ; `string'
PUBLIC	??_C@_0DC@LFBDKEHN@Can?5do?5hit_constraints?5only?5on?5v@ ; `string'
PUBLIC	??_C@_0CM@IPCEGKDM@Can?5only?5do?5constraint?5value?5for@ ; `string'
PUBLIC	??_C@_0DE@HOHHBAGN@Can?8t?5do?5constraints?5on?5this?5typ@ ; `string'
PUBLIC	__real@41f0000000000000
PUBLIC	??_C@_0DJ@FLIAONNC@Attribute?5?$CFs?5is?5?$CFs?5attribute?0?5no@ ; `string'
PUBLIC	??_C@_0DF@MPPJKLHD@Attribute?5?$CFs?5index?5?$CFd?5is?5?$CFd?$DL?5max@ ; `string'
PUBLIC	??_C@_0DK@LPLOMNDN@?$CCshow?$CC?5attribute?5applied?5to?5wron@ ; `string'
PUBLIC	??_C@_0DD@EKGPLGNI@Cannot?5do?5MIDV?5except?5in?5QUADRAT@ ; `string'
PUBLIC	??_C@_0CG@KOBCBKLB@Density?5of?5wrong?5type?5element?5in@ ; `string'
PUBLIC	??_C@_0CE@HKCJIFBL@Phase?5of?5wrong?5type?5element?5in?5?$CF@ ; `string'
PUBLIC	??_C@_0DI@FIBFOHNK@Instance?5name?5?8?$CFs?8?5needs?5attribu@ ; `string'
PUBLIC	??_C@_0DI@DLLIPIEC@Quantity?5name?5?8?$CFs?8?5needs?5attribu@ ; `string'
PUBLIC	??_C@_0CC@MAFBFHON@Pressure?5only?5for?5bodies?0?5in?5?$CFs?4@ ; `string'
PUBLIC	??_C@_0EE@DJGKMPPD@Invalid?5index?5?$CFd?5for?5vertexnorma@ ; `string'
PUBLIC	??_C@_02KGHIDFGE@?$HN?6?$AA@			; `string'
PUBLIC	??_C@_07CFKABON@?$CF17?415g?$AA@		; `string'
PUBLIC	??_C@_01IHBHIGKO@?0?$AA@			; `string'
PUBLIC	??_C@_01HCONENDN@?$HL?$AA@			; `string'
PUBLIC	??_C@_0CE@JGNMBEAC@Can?8t?5have?5indexed?5x?5on?5?$CFs?0?5in?5?$CF@ ; `string'
PUBLIC	??_C@_0EE@NBEFOKMP@Invalid?5index?5?$CFd?5for?5x?5in?5?$CFs?$DL?5mu@ ; `string'
PUBLIC	__real@bff0000000000000
PUBLIC	??_C@_0CH@GIHCGDLE@Log?5of?5zero?5or?5negative?5number?5i@ ; `string'
PUBLIC	??_C@_0CO@OHNNCNNA@Log?5of?5zero?5or?5negative?5number?5i@ ; `string'
PUBLIC	??_C@_0DB@MOMMLDEO@Atanh?5argument?5magnitude?5not?5les@ ; `string'
PUBLIC	??_C@_0DI@PCBKKEME@Atanh?5argument?5magnitude?5not?5les@ ; `string'
PUBLIC	__real@4000000000000000
PUBLIC	??_C@_0CD@HNAOPDML@Acosh?5argument?5less?5than?51?5in?5?$CFs@ ; `string'
PUBLIC	??_C@_0CK@LLHODBDC@Acosh?5argument?5less?5than?51?5in?5?$CFs@ ; `string'
PUBLIC	__real@3fe0000000000000
PUBLIC	??_C@_0CK@LOFDGDAB@Square?5root?5of?5negative?5number?5?$CF@ ; `string'
PUBLIC	??_C@_0DB@GKAOKNCG@Square?5root?5of?5negative?5number?5?$CF@ ; `string'
PUBLIC	__real@c059000000000000
PUBLIC	__real@46293e5939a08cea
PUBLIC	??_C@_0CP@OEGDEOLM@Non?9integer?5power?5of?5a?5negative?5@ ; `string'
PUBLIC	??_C@_0DG@JFAPMCOO@Non?9integer?5power?5of?5a?5negative?5@ ; `string'
PUBLIC	??_C@_0CE@DJIGLCFH@Negative?5power?5?$CI?$CFd?$CJ?5of?5zero?5in?5?$CF@ ; `string'
PUBLIC	??_C@_0CL@MCPCMAIK@Negative?5power?5?$CI?$CFd?$CJ?5of?5zero?5in?5?$CF@ ; `string'
PUBLIC	??_C@_0BK@EOENHDHL@Modulus?5base?5zero?5in?5?$CFs?4?6?$AA@ ; `string'
PUBLIC	??_C@_0CB@HIHGBPJM@Modulus?5base?5zero?5in?5?$CFs?0?5?$CFs?5?$CFs?4?6@ ; `string'
PUBLIC	??_C@_0BJ@DKCGOBDB@Division?5by?5zero?5in?5?$CFs?4?6?$AA@ ; `string'
PUBLIC	??_C@_0CA@MCBMPDHE@Division?5by?5zero?5in?5?$CFs?0?5?$CFs?5?$CFs?4?6?$AA@ ; `string'
PUBLIC	??_C@_0DP@CDGHBNOO@Must?5use?5dynamic?5load?5function?5?$CF@ ; `string'
PUBLIC	__real@4005bf0a8b145769
PUBLIC	__real@400921fb54442d18
PUBLIC	??_C@_0DE@HGELOKGG@Internal?5error?3?5Internal?5variabl@ ; `string'
PUBLIC	??_C@_0DF@KGAJMGKH@Really?5strange?5configuration?5aro@ ; `string'
PUBLIC	??_C@_0CA@CLIEDLCM@Bad?5delete?5element?5type?5in?5?$CFs?4?6?$AA@ ; `string'
PUBLIC	??_C@_0CD@FBECANMH@Only?5vertices?5and?5edges?5poppable@ ; `string'
PUBLIC	??_C@_0CA@NGOPNEKB@Bad?5refine?5element?5type?5in?5?$CFs?4?6?$AA@ ; `string'
PUBLIC	??_C@_0BO@BGHMKKAN@Bad?5LIST?5element?5type?5in?5?$CFs?4?6?$AA@ ; `string'
PUBLIC	??_C@_0CN@LGOPNDFF@Internal?5error?3?5no?5FINISH?5node?5a@ ; `string'
PUBLIC	??_C@_0BH@FDCGEHJN@redefined?5command?5?8?$CFc?8?$AA@ ; `string'
PUBLIC	??_C@_0L@HDDEKBBF@EVALTREE?4C?$AA@		; `string'
PUBLIC	??_C@_0BI@CLILKIPO@show?5expression?5for?5?$CFs?4?$AA@ ; `string'
PUBLIC	??_C@_0DG@HCIHCCDE@Procedure?5?$CC?$CFs?$CC?5definition?5has?5no@ ; `string'
PUBLIC	??_C@_0DF@HMCCGFBA@Function?5?$CC?$CFs?$CC?5definition?5has?5not@ ; `string'
PUBLIC	??_C@_0BA@LDMPFPFF@Enter?5command?3?5?$AA@	; `string'
PUBLIC	??_C@_0CM@NLOJJBMG@Calling?5permload?5in?5non?9permanen@ ; `string'
PUBLIC	__real@3abef2d0f5da7dd9
PUBLIC	??_C@_0BK@OMAPGNOH@Cannot?5open?5datafile?5?$CFs?4?6?$AA@ ; `string'
PUBLIC	??_C@_0BP@KDKEJCJM@Can?8t?5reload?5in?5a?5subcommand?4?6?$AA@ ; `string'
PUBLIC	__real@3ff0000000000000
PUBLIC	??_C@_0DC@KLMKCJCH@Changing?5to?5LAGRANGE?5?$CFd?5model?4?5?$CI@ ; `string'
PUBLIC	??_C@_0CN@NAGKEEOG@Changing?5to?5LAGRANGE?5model?4?5?$CIwas@ ; `string'
PUBLIC	??_C@_0CK@JBOLHCFI@Changing?5to?5LAGRANGE?5model?4?5?$CIwas@ ; `string'
PUBLIC	??_C@_0CN@BFEEPGEG@Changing?5to?5QUADRATIC?5model?4?5?$CIwa@ ; `string'
PUBLIC	??_C@_0CL@IKOBFHOD@Changing?5to?5QUADRATIC?5model?4?5?$CIwa@ ; `string'
PUBLIC	??_C@_0CK@JMIEKNGL@Changing?5to?5LINEAR?5model?4?5?$CIwas?5L@ ; `string'
PUBLIC	??_C@_0CL@FEBBPANL@Changing?5to?5LINEAR?5model?4?5?$CIwas?5Q@ ; `string'
PUBLIC	??_C@_0DE@ODNKLDLP@free_discards?5called?5inside?5elem@ ; `string'
PUBLIC	??_C@_06FAPHFCKA@?5?5?5?$CFs?6?$AA@		; `string'
PUBLIC	??_C@_09PBNAGJKF@?5?5?5?$CFs?3?$CFd?6?$AA@	; `string'
PUBLIC	??_C@_01EEMJAFIK@?6?$AA@			; `string'
PUBLIC	??_C@_0BA@FJFLMGGP@File?5?$CFs?0?5?$CFs?3?$CFd?6?$AA@ ; `string'
PUBLIC	??_C@_0CN@JMDJOALI@Cannot?5find?5instruction?5on?5line?5@ ; `string'
PUBLIC	??_C@_0BB@MMHOCNOI@Subcommand?$CI?$CFd?$CJ?3?5?$AA@ ; `string'
PUBLIC	??_C@_0N@FIJGDPF@Subcommand?3?5?$AA@		; `string'
PUBLIC	__real@41684bfe477e06cc
PUBLIC	??_C@_0BE@EMCFOMCB@Debug?5command?$CI?$CFd?$CJ?3?5?$AA@ ; `string'
PUBLIC	??_C@_0BH@MOAJHJDH@Debug?5?$CI?$CC?$CFs?$CC?5line?5?$CFd?$CJ?3?5?$AA@ ; `string'
PUBLIC	??_C@_0CK@NIDPEGMM@Internal?5error?5in?5eval?$CI?$CJ?3?5no?5fra@ ; `string'
PUBLIC	??_C@_0CM@CBLOAPAC@Trying?5to?5evaluate?5null?5expressi@ ; `string'
PUBLIC	_self_id$GSCopy$
PUBLIC	_params$GSCopy$
PUBLIC	_ex_original$GSCopy$
PUBLIC	__$ArrayPad$
PUBLIC	_eval
EXTRN	_longjmp:PROC
EXTRN	_loadjumpbuf:BYTE
EXTRN	_exit_flag:DWORD
EXTRN	_other_stuff:PROC
EXTRN	_free:PROC
EXTRN	_myfree:PROC
EXTRN	_KB_realloc:PROC
EXTRN	_get_name_name:PROC
EXTRN	_eval_all:PROC
EXTRN	_main_thread_id:DWORD
EXTRN	_threadflag:DWORD
EXTRN	_hessian_iterate_flag:DWORD
EXTRN	_dont_resize_flag:DWORD
EXTRN	_kb_temp_realloc:PROC
EXTRN	_unapply_quantity:PROC
EXTRN	_apply_quantity:PROC
EXTRN	_project_v_constr:PROC
EXTRN	_set_v_constraint_map:PROC
EXTRN	_set_e_constraint_map:PROC
EXTRN	_set_f_constraint_map:PROC
EXTRN	_facet_alpha:QWORD
EXTRN	_set_body_fixvol:PROC
EXTRN	_set_body:PROC
EXTRN	_set_facet_body:PROC
EXTRN	_unapply_method:PROC
EXTRN	_fixup_edge_content_meths:PROC
EXTRN	_fixup_vertex_content_meths:PROC
EXTRN	_apply_method_num:PROC
EXTRN	_unset_v_constraint_map:PROC
EXTRN	_unset_e_constraint_map:PROC
EXTRN	_unset_f_constraint_map:PROC
EXTRN	_some_no_transforms_flag:DWORD
EXTRN	_everything_quantities_flag:DWORD
EXTRN	_mpi_subtask_command_flag:DWORD
EXTRN	_temp_free:PROC
EXTRN	_kb_temp_calloc:PROC
EXTRN	_aggregate_depth:DWORD
EXTRN	_V_BOUNDARY_ATTR:DWORD
EXTRN	_E_BOUNDARY_ATTR:DWORD
EXTRN	_F_BOUNDARY_ATTR:DWORD
EXTRN	_get_v_constraint_status:PROC
EXTRN	_v_on_constraint:PROC
EXTRN	_e_on_constraint:PROC
EXTRN	_f_on_constraint:PROC
EXTRN	_autorecalc_flag:DWORD
EXTRN	_interp_facet_attribute:PROC
EXTRN	_interp_edge_attribute:PROC
EXTRN	_no_wall_flag:DWORD
EXTRN	_bdry_showflag:DWORD
EXTRN	_opacity_attr:DWORD
EXTRN	_calc_content:PROC
EXTRN	_info_volume_timestamp:DWORD
EXTRN	_global_timestamp:DWORD
EXTRN	_fixed_volume_timestamp:DWORD
EXTRN	_F_PHASE_ATTR:DWORD
EXTRN	_B_PHASE_ATTR:DWORD
EXTRN	_instance_attribute:PROC
EXTRN	_meth_inst_list:DWORD
EXTRN	_quantity_attribute:PROC
EXTRN	_gen_quant_list:DWORD
EXTRN	_recalc_facet_area:PROC
EXTRN	_get_body_valence:PROC
EXTRN	_get_facet_valence:PROC
EXTRN	_get_edge_valence:PROC
EXTRN	_get_vertex_evalence:PROC
EXTRN	_get_vertex_fvalence:PROC
EXTRN	_vertex_angle:PROC
EXTRN	_dihedral:PROC
EXTRN	_get_edge_length:PROC
EXTRN	_calc_edge:PROC
EXTRN	_vertex_mean_curvature:PROC
EXTRN	_vertex_sq_mean_curvature:PROC
EXTRN	_dot:PROC
EXTRN	_new_calc_vertex_normal:PROC
EXTRN	_mat2d_setup:PROC
EXTRN	_get_edge_side:PROC
EXTRN	_get_facet_normal:PROC
EXTRN	_incompleteEllipticE:PROC
EXTRN	_incompleteEllipticF:PROC
EXTRN	_ellipticE:PROC
EXTRN	_ellipticK:PROC
EXTRN	_ceil:PROC
EXTRN	_machine_eps:QWORD
EXTRN	_sym_compose:DWORD
EXTRN	_userfunc:BYTE
EXTRN	_int_val:DWORD
EXTRN	_optparam:BYTE
EXTRN	_optparamcount:DWORD
EXTRN	_free_element:PROC
EXTRN	_delete_edge:PROC
EXTRN	_delete_facet:PROC
EXTRN	_new_vertex_average:PROC
EXTRN	_reverse_orientation_edge:PROC
EXTRN	_reverse_orientation_facet:PROC
EXTRN	_dissolve_body:PROC
EXTRN	_dissolve_facet:PROC
EXTRN	_dissolve_edge:PROC
EXTRN	_dissolve_vertex:PROC
EXTRN	_equiangulate_edge:PROC
EXTRN	_t1_edgeswap:PROC
EXTRN	_edgeswap:PROC
EXTRN	_pop_quad_to_quad:PROC
EXTRN	_pop_edge_to_tri:PROC
EXTRN	_pop_tri_to_edge:PROC
EXTRN	_pop_given_vertex:PROC
EXTRN	_pop_one_edge:PROC
EXTRN	_edge_refine:PROC
EXTRN	_face_triangulate:PROC
EXTRN	_facetedge_dump:PROC
EXTRN	_body_dump:PROC
EXTRN	_facet_dump:PROC
EXTRN	_edge_dump:PROC
EXTRN	_vertex_dump:PROC
EXTRN	_outfd:DWORD
EXTRN	_quiet_flag:DWORD
EXTRN	_fgetc:PROC
EXTRN	_l_brfd:DWORD
EXTRN	_cProgramBreakDelay:DWORD
EXTRN	_ProgramBreakDelay:DWORD
EXTRN	_l_evolver_mode:DWORD
EXTRN	_gocount:DWORD
EXTRN	_locals_copy_perm:PROC
EXTRN	_perm_free_expr:PROC
EXTRN	_proc_timestamp:DWORD
EXTRN	_locals_copy:PROC
EXTRN	_free_expr:PROC
EXTRN	_update_display:PROC
EXTRN	_do_show:PROC
EXTRN	_go_display_flag:DWORD
EXTRN	_OOGL_flag:DWORD
EXTRN	_show_command:BYTE
EXTRN	_kb_calloc:PROC
EXTRN	_typenames:BYTE
EXTRN	_tree_copy:PROC
EXTRN	_show_expr:BYTE
EXTRN	_show_expr_table:BYTE
EXTRN	_matrix_determinant_command:PROC
EXTRN	_matrix_multiply_command:PROC
EXTRN	_matrix_inverse_command:PROC
EXTRN	_get_name_arrayptr:PROC
EXTRN	_single_redefine:BYTE
EXTRN	_commandfd:DWORD
EXTRN	_startup:PROC
EXTRN	_strncpy:PROC
EXTRN	_loadfilename:BYTE
EXTRN	_perm_tree_copy:PROC
EXTRN	_replace_load_flag:DWORD
EXTRN	_free_element_lists:PROC
EXTRN	__imp__ReleaseMutex@4:PROC
EXTRN	_resize:PROC
EXTRN	_view:DWORD
EXTRN	_pop_commandfd:PROC
EXTRN	_initialize:PROC
EXTRN	_cmdptr:DWORD
EXTRN	_datafile_input_flag:DWORD
EXTRN	_addload_flag:DWORD
EXTRN	_datafile_flag:DWORD
EXTRN	_read_depth:DWORD
EXTRN	_push_commandfd:PROC
EXTRN	__imp__MsgWaitForMultipleObjects@20:PROC
EXTRN	_graphmutex:DWORD
EXTRN	_locking_thread:DWORD
EXTRN	__imp__GetCurrentThreadId@0:PROC
EXTRN	_path_open:PROC
EXTRN	_get_full_id:PROC
EXTRN	_lagrange_to_lagrange:PROC
EXTRN	_quad_to_lagrange:PROC
EXTRN	_linear_to_lagrange:PROC
EXTRN	_lagrange_to_quad:PROC
EXTRN	_linear_to_quad:PROC
EXTRN	_lagrange_to_linear:PROC
EXTRN	_quad_to_linear:PROC
EXTRN	_letter_command:PROC
EXTRN	_free_discards:PROC
EXTRN	_recalc:PROC
EXTRN	_detorus:PROC
EXTRN	_eval_stack_trace:BYTE
EXTRN	_eval_stack_trace_spot:DWORD
EXTRN	_realloc:PROC
EXTRN	_exec_commands:PROC
EXTRN	_jumpbuf:BYTE
EXTRN	_subshell_depth:DWORD
EXTRN	_single_step_debugging:DWORD
EXTRN	_breakflag:DWORD
EXTRN	_l_evolver_break:DWORD
EXTRN	_iterate_flag:DWORD
EXTRN	_win_get_thread_data:PROC
EXTRN	_thread_data_key:DWORD
EXTRN	___security_cookie:DWORD
EXTRN	@__security_check_cookie@4:PROC
EXTRN	__chkstk:PROC
EXTRN	__CIatan:PROC
EXTRN	__CIacos:PROC
EXTRN	__CIasin:PROC
EXTRN	__CIlog:PROC
EXTRN	__CIexp:PROC
EXTRN	__CItan:PROC
EXTRN	__CIcos:PROC
EXTRN	__CIsin:PROC
EXTRN	__CIsqrt:PROC
EXTRN	__CIatan2:PROC
EXTRN	__CIpow:PROC
EXTRN	_floor:PROC
EXTRN	_memcpy:PROC
EXTRN	__ftol2_sse:PROC
EXTRN	_memset:PROC
EXTRN	__setjmp3:PROC
;	COMDAT ??_C@_0DE@KHJAAIFB@Internal?5error?3?5Stack?5misalignme@
CONST	SEGMENT
??_C@_0DE@KHJAAIFB@Internal?5error?3?5Stack?5misalignme@ DB 'Internal err'
	DB	'or: Stack misalignment by %d in eval()', 0aH, 00H ; `string'
CONST	ENDS
;	COMDAT ??_C@_0BM@GBPBJJDP@Evaluation?5stack?5overflow?4?6?$AA@
CONST	SEGMENT
??_C@_0BM@GBPBJJDP@Evaluation?5stack?5overflow?4?6?$AA@ DB 'Evaluation st'
	DB	'ack overflow.', 0aH, 00H			; `string'
CONST	ENDS
;	COMDAT ??_C@_0BA@EFKCGIKP@BAD?5EVAL?5STACK?6?$AA@
CONST	SEGMENT
??_C@_0BA@EFKCGIKP@BAD?5EVAL?5STACK?6?$AA@ DB 'BAD EVAL STACK', 0aH, 00H ; `string'
CONST	ENDS
;	COMDAT ??_C@_0CI@OEJLGIBG@Command?5aborted?5due?5to?5user?5inte@
CONST	SEGMENT
??_C@_0CI@OEJLGIBG@Command?5aborted?5due?5to?5user?5inte@ DB 'Command abo'
	DB	'rted due to user interrupt.', 0aH, 00H	; `string'
CONST	ENDS
;	COMDAT ??_C@_0CN@MKCBCDPJ@Command?5aborted?5due?5to?5break_aft@
CONST	SEGMENT
??_C@_0CN@MKCBCDPJ@Command?5aborted?5due?5to?5break_aft@ DB 'Command abor'
	DB	'ted due to break_after_warning.', 0aH, 00H	; `string'
CONST	ENDS
;	COMDAT ??_C@_0BL@DGMPENFC@Variable?5?$CFs?5is?5read?9only?4?6?$AA@
CONST	SEGMENT
??_C@_0BL@DGMPENFC@Variable?5?$CFs?5is?5read?9only?4?6?$AA@ DB 'Variable '
	DB	'%s is read-only.', 0aH, 00H			; `string'
CONST	ENDS
;	COMDAT ??_C@_0DO@MAANDGDB@Index?5?$CFd?5of?5left?5side?5is?5?$CFd?0?5ind@
CONST	SEGMENT
??_C@_0DO@MAANDGDB@Index?5?$CFd?5of?5left?5side?5is?5?$CFd?0?5ind@ DB 'In'
	DB	'dex %d of left side is %d, index %d of second factor is %d', 0aH
	DB	00H						; `string'
CONST	ENDS
;	COMDAT ??_C@_0CM@JKKPHDDL@Mismatched?5sizes?5in?5matrix?5multi@
CONST	SEGMENT
??_C@_0CM@JKKPHDDL@Mismatched?5sizes?5in?5matrix?5multi@ DB 'Mismatched s'
	DB	'izes in matrix multiplication.', 0aH, 00H	; `string'
CONST	ENDS
;	COMDAT ??_C@_0DN@OGAILEKP@Index?5?$CFd?5of?5left?5side?5is?5?$CFd?0?5ind@
CONST	SEGMENT
??_C@_0DN@OGAILEKP@Index?5?$CFd?5of?5left?5side?5is?5?$CFd?0?5ind@ DB 'In'
	DB	'dex %d of left side is %d, index %d of first factor is %d', 0aH
	DB	00H						; `string'
CONST	ENDS
;	COMDAT ??_C@_0CO@PIJDLECB@Mismatched?5sizes?5in?5matrix?5multi@
CONST	SEGMENT
??_C@_0CO@PIJDLECB@Mismatched?5sizes?5in?5matrix?5multi@ DB 'Mismatched s'
	DB	'izes in matrix multiplication.  ', 0aH, 00H	; `string'
CONST	ENDS
;	COMDAT ??_C@_0DG@JLMOMNLE@Mismatched?5sizes?5in?5matrix?5multi@
CONST	SEGMENT
??_C@_0DG@JLMOMNLE@Mismatched?5sizes?5in?5matrix?5multi@ DB 'Mismatched s'
	DB	'izes in matrix multiplication, %d vs %d.', 0aH, 00H ; `string'
CONST	ENDS
;	COMDAT ??_C@_0DF@LLDCAMHI@Mismatched?5sizes?5in?5matrix?5multi@
CONST	SEGMENT
??_C@_0DF@LLDCAMHI@Mismatched?5sizes?5in?5matrix?5multi@ DB 'Mismatched s'
	DB	'izes in matrix multiplication, %d vs %d', 0aH, 00H ; `string'
CONST	ENDS
;	COMDAT ??_C@_0BP@DNKGECGN@Dividing?5array?5by?5zero?5in?5?$CFs?4?6?$AA@
CONST	SEGMENT
??_C@_0BP@DNKGECGN@Dividing?5array?5by?5zero?5in?5?$CFs?4?6?$AA@ DB 'Divi'
	DB	'ding array by zero in %s.', 0aH, 00H	; `string'
CONST	ENDS
;	COMDAT ??_C@_0CO@EJMBOHDJ@Array?5addition?3?5Arrays?5have?5diff@
CONST	SEGMENT
??_C@_0CO@EJMBOHDJ@Array?5addition?3?5Arrays?5have?5diff@ DB 'Array addit'
	DB	'ion: Arrays have different sizes.', 0aH, 00H ; `string'
CONST	ENDS
;	COMDAT ??_C@_0EE@BENIIKAP@Invalid?5string?5assignment?5operat@
CONST	SEGMENT
??_C@_0EE@BENIIKAP@Invalid?5string?5assignment?5operat@ DB 'Invalid strin'
	DB	'g assignment operator; only plain assignment allowed.', 0aH, 00H ; `string'
CONST	ENDS
;	COMDAT __real@7e0bbe3ac8d3bd70
CONST	SEGMENT
__real@7e0bbe3ac8d3bd70 DQ 07e0bbe3ac8d3bd70r	; 1.45151e+299
CONST	ENDS
;	COMDAT ??_C@_0DC@MJPKIDCD@constraint_normal?3?5Constraint?5?$CFd@
CONST	SEGMENT
??_C@_0DC@MJPKIDCD@constraint_normal?3?5Constraint?5?$CFd@ DB 'constraint'
	DB	'_normal: Constraint %d does not exist.', 0aH, 00H ; `string'
CONST	ENDS
;	COMDAT ??_C@_0BC@DICJIAOM@Command?5aborted?4?6?$AA@
CONST	SEGMENT
??_C@_0BC@DICJIAOM@Command?5aborted?4?6?$AA@ DB 'Command aborted.', 0aH, 00H ; `string'
CONST	ENDS
;	COMDAT ??_C@_0BD@KKBNAHFA@Division?5by?5zero?4?6?$AA@
CONST	SEGMENT
??_C@_0BD@KKBNAHFA@Division?5by?5zero?4?6?$AA@ DB 'Division by zero.', 0aH
	DB	00H						; `string'
CONST	ENDS
;	COMDAT ??_C@_0DI@KHNAHFIG@Array?5index?5?$CFd?5of?5array?5?$CFs?5is?5?$CFd@
CONST	SEGMENT
??_C@_0DI@KHNAHFIG@Array?5index?5?$CFd?5of?5array?5?$CFs?5is?5?$CFd@ DB 'A'
	DB	'rray index %d of array %s is %d; exceeds bound of %d.', 0aH, 00H ; `string'
CONST	ENDS
;	COMDAT ??_C@_0DH@DOJNKOOH@Array?5index?5?$CFd?5of?5array?5?$CFs?5is?5?$CFd@
CONST	SEGMENT
??_C@_0DH@DOJNKOOH@Array?5index?5?$CFd?5of?5array?5?$CFs?5is?5?$CFd@ DB 'A'
	DB	'rray index %d of array %s is %d. Indexes start at 1.', 0aH, 00H ; `string'
CONST	ENDS
;	COMDAT ??_C@_0DD@IDPGEBFJ@Internal?5error?$DL?5SET?5node?5?$CFd?5reac@
CONST	SEGMENT
??_C@_0DD@IDPGEBFJ@Internal?5error?$DL?5SET?5node?5?$CFd?5reac@ DB 'Inter'
	DB	'nal error; SET node %d reached unexpectedly.', 0aH, 00H ; `string'
CONST	ENDS
;	COMDAT ??_C@_0CI@EMPMINAB@Parameter?5number?5is?5?$CFd?$DL?5maximum?5@
CONST	SEGMENT
??_C@_0CI@EMPMINAB@Parameter?5number?5is?5?$CFd?$DL?5maximum?5@ DB 'Param'
	DB	'eter number is %d; maximum is %d.', 0aH, 00H ; `string'
CONST	ENDS
;	COMDAT ??_C@_0DN@PDLOKPJK@Cannot?5set?5?$CFs?5?$CFs?5on?5a?5constraint@
CONST	SEGMENT
??_C@_0DN@PDLOKPJK@Cannot?5set?5?$CFs?5?$CFs?5on?5a?5constraint@ DB 'Cann'
	DB	'ot set %s %s on a constraint since it is on a boundary.', 0aH
	DB	00H						; `string'
CONST	ENDS
;	COMDAT ??_C@_0CA@KOHHCGIN@Illegal?5constraint?5number?3?5?$CFd?4?6?$AA@
CONST	SEGMENT
??_C@_0CA@KOHHCGIN@Illegal?5constraint?5number?3?5?$CFd?4?6?$AA@ DB 'Ille'
	DB	'gal constraint number: %d.', 0aH, 00H	; `string'
CONST	ENDS
;	COMDAT ??_C@_0DA@ILOKBJND@Must?5unset?5body?5target?5before?5fi@
CONST	SEGMENT
??_C@_0DA@ILOKBJND@Must?5unset?5body?5target?5before?5fi@ DB 'Must unset '
	DB	'body target before fixing pressure.', 0aH, 00H ; `string'
CONST	ENDS
;	COMDAT ??_C@_0DA@GLPHHFLM@Must?5unset?5body?5pressure?5before?5@
CONST	SEGMENT
??_C@_0DA@GLPHHFLM@Must?5unset?5body?5pressure?5before?5@ DB 'Must unset '
	DB	'body pressure before fixing target.', 0aH, 00H ; `string'
CONST	ENDS
;	COMDAT ??_C@_0CE@MDJIMOLA@Trying?5to?5unset?5body?5of?5non?9face@
CONST	SEGMENT
??_C@_0CE@MDJIMOLA@Trying?5to?5unset?5body?5of?5non?9face@ DB 'Trying to '
	DB	'unset body of non-facet.', 0aH, 00H		; `string'
CONST	ENDS
;	COMDAT ??_C@_0CA@CHBGMBCP@Bad?5element?5type?5for?5boundary?4?6?$AA@
CONST	SEGMENT
??_C@_0CA@CHBGMBCP@Bad?5element?5type?5for?5boundary?4?6?$AA@ DB 'Bad ele'
	DB	'ment type for boundary.', 0aH, 00H		; `string'
CONST	ENDS
;	COMDAT ??_C@_0EK@PDNAEKOB@Cannot?5put?5?$CFs?5?$CFs?5on?5boundary?5?$CFd?5@
CONST	SEGMENT
??_C@_0EK@PDNAEKOB@Cannot?5put?5?$CFs?5?$CFs?5on?5boundary?5?$CFd?5@ DB 'C'
	DB	'annot put %s %s on boundary %d since it is already on another'
	DB	' boundary.', 0aH, 00H			; `string'
CONST	ENDS
;	COMDAT ??_C@_0BL@HEGGOIJJ@Boundary?5?$CFd?5is?5not?5valid?4?6?$AA@
CONST	SEGMENT
??_C@_0BL@HEGGOIJJ@Boundary?5?$CFd?5is?5not?5valid?4?6?$AA@ DB 'Boundary '
	DB	'%d is not valid.', 0aH, 00H			; `string'
CONST	ENDS
;	COMDAT ??_C@_0EF@DIFGONKI@Cannot?5put?5?$CFs?5?$CFs?5on?5a?5boundary?5s@
CONST	SEGMENT
??_C@_0EF@DIFGONKI@Cannot?5put?5?$CFs?5?$CFs?5on?5a?5boundary?5s@ DB 'Can'
	DB	'not put %s %s on a boundary since it is already on a constrai'
	DB	'nt.', 0aH, 00H				; `string'
CONST	ENDS
;	COMDAT ??_C@_0CC@GMFFIBPI@Bad?5element?5type?5for?5constraint?4@
CONST	SEGMENT
??_C@_0CC@GMFFIBPI@Bad?5element?5type?5for?5constraint?4@ DB 'Bad element'
	DB	' type for constraint.', 0aH, 00H		; `string'
CONST	ENDS
;	COMDAT ??_C@_0EJ@GDFDELKD@Changing?5NONCONTENT?5not?5implemen@
CONST	SEGMENT
??_C@_0EJ@GDFDELKD@Changing?5NONCONTENT?5not?5implemen@ DB 'Changing NONC'
	DB	'ONTENT not implemented for everything_quantities mode yet.', 0aH
	DB	00H						; `string'
CONST	ENDS
;	COMDAT ??_C@_0BB@GFLDKPMN@NaN?5?5?5?5?5?5?5?5?5?5?$CFd?6?$AA@
CONST	SEGMENT
??_C@_0BB@GFLDKPMN@NaN?5?5?5?5?5?5?5?5?5?5?$CFd?6?$AA@ DB 'NaN          %'
	DB	'd', 0aH, 00H				; `string'
CONST	ENDS
;	COMDAT ??_C@_0BP@HMFEOHID@?5?5?5?5?5?5?5?5?5?5?$DM?$DN?50?40?5?5?5?5?5?5?5?5?5?5?5?$CFd?6?$AA@
CONST	SEGMENT
??_C@_0BP@HMFEOHID@?5?5?5?5?5?5?5?5?5?5?$DM?$DN?50?40?5?5?5?5?5?5?5?5?5?5?5?$CFd?6?$AA@ DB ' '
	DB	'         <= 0.0           %d', 0aH, 00H	; `string'
CONST	ENDS
;	COMDAT ??_C@_0BI@HAEINGLM@?$CF10?45g?5?9?5?$CF10?45g?5?5?5?5?5?$CFd?6?$AA@
CONST	SEGMENT
??_C@_0BI@HAEINGLM@?$CF10?45g?5?9?5?$CF10?45g?5?5?5?5?5?$CFd?6?$AA@ DB '%'
	DB	'10.5g - %10.5g     %d', 0aH, 00H		; `string'
CONST	ENDS
;	COMDAT ??_C@_0BH@LIPFBHGH@No?5qualifying?5values?4?6?$AA@
CONST	SEGMENT
??_C@_0BH@LIPFBHGH@No?5qualifying?5values?4?6?$AA@ DB 'No qualifying valu'
	DB	'es.', 0aH, 00H				; `string'
CONST	ENDS
;	COMDAT __real@7e37e43c8800759c
CONST	SEGMENT
__real@7e37e43c8800759c DQ 07e37e43c8800759cr	; 1e+300
CONST	ENDS
;	COMDAT __real@fe37e43c8800759c
CONST	SEGMENT
__real@fe37e43c8800759c DQ 0fe37e43c8800759cr	; -1e+300
CONST	ENDS
;	COMDAT __real@4024000000000000
CONST	SEGMENT
__real@4024000000000000 DQ 04024000000000000r	; 10
CONST	ENDS
;	COMDAT __real@4034000000000000
CONST	SEGMENT
__real@4034000000000000 DQ 04034000000000000r	; 20
CONST	ENDS
;	COMDAT __real@4035000000000000
CONST	SEGMENT
__real@4035000000000000 DQ 04035000000000000r	; 21
CONST	ENDS
;	COMDAT ??_C@_0CI@BOPKOLFN@Internal?5error?3?5Bad?5aggregate?5ty@
CONST	SEGMENT
??_C@_0CI@BOPKOLFN@Internal?5error?3?5Bad?5aggregate?5ty@ DB 'Internal er'
	DB	'ror: Bad aggregate type %d.', 0aH, 00H	; `string'
CONST	ENDS
;	COMDAT __real@47d2ced32a16a1b1
CONST	SEGMENT
__real@47d2ced32a16a1b1 DQ 047d2ced32a16a1b1r	; 1e+038
CONST	ENDS
;	COMDAT __real@c7d2ced32a16a1b1
CONST	SEGMENT
__real@c7d2ced32a16a1b1 DQ 0c7d2ced32a16a1b1r	; -1e+038
CONST	ENDS
;	COMDAT ??_C@_0EI@DJBIKLIA@?1?1?5?5?5?5id?5?5?5?5?5?5?5edge?5?5?5?5facet?5?5pr@
CONST	SEGMENT
??_C@_0EI@DJBIKLIA@?1?1?5?5?5?5id?5?5?5?5?5?5?5edge?5?5?5?5facet?5?5pr@ DB '/'
	DB	'/    id       edge    facet  prevedge nextedge    prevfacet n'
	DB	'extfacet', 0aH, 00H				; `string'
CONST	ENDS
;	COMDAT ??_C@_0BB@BBHHCCHN@?1?1?5Id?5?5?5?5facets?6?$AA@
CONST	SEGMENT
??_C@_0BB@BBHHCCHN@?1?1?5Id?5?5?5?5facets?6?$AA@ DB '// Id    facets', 0aH
	DB	00H						; `string'
CONST	ENDS
;	COMDAT ??_C@_0BA@PJOLDBBB@?1?1?5Id?5?5?5?5edges?6?$AA@
CONST	SEGMENT
??_C@_0BA@PJOLDBBB@?1?1?5Id?5?5?5?5edges?6?$AA@ DB '// Id    edges', 0aH, 00H ; `string'
CONST	ENDS
;	COMDAT ??_C@_0BF@FCNHMFEN@?1?1?5Id?5?5?5?5?5?5vertices?6?$AA@
CONST	SEGMENT
??_C@_0BF@FCNHMFEN@?1?1?5Id?5?5?5?5?5?5vertices?6?$AA@ DB '// Id      ver'
	DB	'tices', 0aH, 00H				; `string'
CONST	ENDS
;	COMDAT ??_C@_0BE@OOAKAHKL@?1?1?5Id?5?5?5?5endpoints?6?$AA@
CONST	SEGMENT
??_C@_0BE@OOAKAHKL@?1?1?5Id?5?5?5?5endpoints?6?$AA@ DB '// Id    endpoint'
	DB	's', 0aH, 00H				; `string'
CONST	ENDS
;	COMDAT ??_C@_0DI@OJNBJBKG@?1?1?5Id?5?5?5?5?5?5?5?5?5?5?5?5?5?5?5X?5?5?5?5?5?5?5?5?5?5?5@
CONST	SEGMENT
??_C@_0DI@OJNBJBKG@?1?1?5Id?5?5?5?5?5?5?5?5?5?5?5?5?5?5?5X?5?5?5?5?5?5?5?5?5?5?5@ DB '/'
	DB	'/ Id               X                Y               Z', 0aH, 00H ; `string'
CONST	ENDS
;	COMDAT ??_C@_0CI@MDNPENBI@?1?1?5Id?5?5?5?5?5?5?5?5?5?5?5?5?5?5?5X?5?5?5?5?5?5?5?5?5?5?5@
CONST	SEGMENT
??_C@_0CI@MDNPENBI@?1?1?5Id?5?5?5?5?5?5?5?5?5?5?5?5?5?5?5X?5?5?5?5?5?5?5?5?5?5?5@ DB '/'
	DB	'/ Id               X                Y', 0aH, 00H ; `string'
CONST	ENDS
;	COMDAT ??_C@_0BL@MACKFC@?$CFs?5index?5?$CFd?5is?5not?5valid?4?6?$AA@
CONST	SEGMENT
??_C@_0BL@MACKFC@?$CFs?5index?5?$CFd?5is?5not?5valid?4?6?$AA@ DB '%s inde'
	DB	'x %d is not valid.', 0aH, 00H		; `string'
CONST	ENDS
;	COMDAT ??_C@_0CI@PJIGNBKB@No?5element?5for?5SELF?5to?5refer?5to?5@
CONST	SEGMENT
??_C@_0CI@PJIGNBKB@No?5element?5for?5SELF?5to?5refer?5to?5@ DB 'No elemen'
	DB	't for SELF to refer to in %s.', 0aH, 00H	; `string'
CONST	ENDS
;	COMDAT ??_C@_0CE@JPLNIPHC@Can?8t?5do?5boundary?5on?5a?5?$CFs?5?$CIin?5?$CFs@
CONST	SEGMENT
??_C@_0CE@JPLNIPHC@Can?8t?5do?5boundary?5on?5a?5?$CFs?5?$CIin?5?$CFs@ DB 'C'
	DB	'an''t do boundary on a %s (in %s).', 0aH, 00H ; `string'
CONST	ENDS
;	COMDAT ??_C@_0DC@LFBDKEHN@Can?5do?5hit_constraints?5only?5on?5v@
CONST	SEGMENT
??_C@_0DC@LFBDKEHN@Can?5do?5hit_constraints?5only?5on?5v@ DB 'Can do hit_'
	DB	'constraints only on vertices (in %s).', 0aH, 00H ; `string'
CONST	ENDS
;	COMDAT ??_C@_0CM@IPCEGKDM@Can?5only?5do?5constraint?5value?5for@
CONST	SEGMENT
??_C@_0CM@IPCEGKDM@Can?5only?5do?5constraint?5value?5for@ DB 'Can only do'
	DB	' constraint value for vertices.', 0aH, 00H	; `string'
CONST	ENDS
;	COMDAT ??_C@_0DE@HOHHBAGN@Can?8t?5do?5constraints?5on?5this?5typ@
CONST	SEGMENT
??_C@_0DE@HOHHBAGN@Can?8t?5do?5constraints?5on?5this?5typ@ DB 'Can''t do '
	DB	'constraints on this type element (in %s).', 0aH, 00H ; `string'
CONST	ENDS
;	COMDAT __real@41f0000000000000
CONST	SEGMENT
__real@41f0000000000000 DQ 041f0000000000000r	; 4.29497e+009
CONST	ENDS
;	COMDAT ??_C@_0DJ@FLIAONNC@Attribute?5?$CFs?5is?5?$CFs?5attribute?0?5no@
CONST	SEGMENT
??_C@_0DJ@FLIAONNC@Attribute?5?$CFs?5is?5?$CFs?5attribute?0?5no@ DB 'Attr'
	DB	'ibute %s is %s attribute, not %s attribute (in %s).', 0aH, 00H ; `string'
CONST	ENDS
;	COMDAT ??_C@_0DF@MPPJKLHD@Attribute?5?$CFs?5index?5?$CFd?5is?5?$CFd?$DL?5max@
CONST	SEGMENT
??_C@_0DF@MPPJKLHD@Attribute?5?$CFs?5index?5?$CFd?5is?5?$CFd?$DL?5max@ DB 'A'
	DB	'ttribute %s index %d is %d; maximum is %d (in %s).', 0aH, 00H ; `string'
CONST	ENDS
;	COMDAT ??_C@_0DK@LPLOMNDN@?$CCshow?$CC?5attribute?5applied?5to?5wron@
CONST	SEGMENT
??_C@_0DK@LPLOMNDN@?$CCshow?$CC?5attribute?5applied?5to?5wron@ DB '"show"'
	DB	' attribute applied to wrong type of element in %s.', 0aH, 00H ; `string'
CONST	ENDS
;	COMDAT ??_C@_0DD@EKGPLGNI@Cannot?5do?5MIDV?5except?5in?5QUADRAT@
CONST	SEGMENT
??_C@_0DD@EKGPLGNI@Cannot?5do?5MIDV?5except?5in?5QUADRAT@ DB 'Cannot do M'
	DB	'IDV except in QUADRATIC model (in %s).', 0aH, 00H ; `string'
CONST	ENDS
;	COMDAT ??_C@_0CG@KOBCBKLB@Density?5of?5wrong?5type?5element?5in@
CONST	SEGMENT
??_C@_0CG@KOBCBKLB@Density?5of?5wrong?5type?5element?5in@ DB 'Density of '
	DB	'wrong type element in %s.', 0aH, 00H	; `string'
CONST	ENDS
;	COMDAT ??_C@_0CE@HKCJIFBL@Phase?5of?5wrong?5type?5element?5in?5?$CF@
CONST	SEGMENT
??_C@_0CE@HKCJIFBL@Phase?5of?5wrong?5type?5element?5in?5?$CF@ DB 'Phase o'
	DB	'f wrong type element in %s.', 0aH, 00H	; `string'
CONST	ENDS
;	COMDAT ??_C@_0DI@FIBFOHNK@Instance?5name?5?8?$CFs?8?5needs?5attribu@
CONST	SEGMENT
??_C@_0DI@FIBFOHNK@Instance?5name?5?8?$CFs?8?5needs?5attribu@ DB 'Instanc'
	DB	'e name ''%s'' needs attribute like .value (in %s)', 0aH, 00H ; `string'
CONST	ENDS
;	COMDAT ??_C@_0DI@DLLIPIEC@Quantity?5name?5?8?$CFs?8?5needs?5attribu@
CONST	SEGMENT
??_C@_0DI@DLLIPIEC@Quantity?5name?5?8?$CFs?8?5needs?5attribu@ DB 'Quantit'
	DB	'y name ''%s'' needs attribute like .value (in %s)', 0aH, 00H ; `string'
CONST	ENDS
;	COMDAT ??_C@_0CC@MAFBFHON@Pressure?5only?5for?5bodies?0?5in?5?$CFs?4@
CONST	SEGMENT
??_C@_0CC@MAFBFHON@Pressure?5only?5for?5bodies?0?5in?5?$CFs?4@ DB 'Pressu'
	DB	're only for bodies, in %s.', 0aH, 00H	; `string'
CONST	ENDS
;	COMDAT ??_C@_0EE@DJGKMPPD@Invalid?5index?5?$CFd?5for?5vertexnorma@
CONST	SEGMENT
??_C@_0EE@DJGKMPPD@Invalid?5index?5?$CFd?5for?5vertexnorma@ DB 'Invalid i'
	DB	'ndex %d for vertexnormal in %s; must be between 1 and %d.', 0aH
	DB	00H						; `string'
CONST	ENDS
;	COMDAT ??_C@_02KGHIDFGE@?$HN?6?$AA@
CONST	SEGMENT
??_C@_02KGHIDFGE@?$HN?6?$AA@ DB '}', 0aH, 00H		; `string'
CONST	ENDS
;	COMDAT ??_C@_07CFKABON@?$CF17?415g?$AA@
CONST	SEGMENT
??_C@_07CFKABON@?$CF17?415g?$AA@ DB '%17.15g', 00H	; `string'
CONST	ENDS
;	COMDAT ??_C@_01IHBHIGKO@?0?$AA@
CONST	SEGMENT
??_C@_01IHBHIGKO@?0?$AA@ DB ',', 00H			; `string'
CONST	ENDS
;	COMDAT ??_C@_01HCONENDN@?$HL?$AA@
CONST	SEGMENT
??_C@_01HCONENDN@?$HL?$AA@ DB '{', 00H			; `string'
CONST	ENDS
;	COMDAT ??_C@_0CE@JGNMBEAC@Can?8t?5have?5indexed?5x?5on?5?$CFs?0?5in?5?$CF@
CONST	SEGMENT
??_C@_0CE@JGNMBEAC@Can?8t?5have?5indexed?5x?5on?5?$CFs?0?5in?5?$CF@ DB 'C'
	DB	'an''t have indexed x on %s, in %s.', 0aH, 00H ; `string'
CONST	ENDS
;	COMDAT ??_C@_0EE@NBEFOKMP@Invalid?5index?5?$CFd?5for?5x?5in?5?$CFs?$DL?5mu@
CONST	SEGMENT
??_C@_0EE@NBEFOKMP@Invalid?5index?5?$CFd?5for?5x?5in?5?$CFs?$DL?5mu@ DB 'I'
	DB	'nvalid index %d for x in %s; must be between 1 and %d, inclus'
	DB	'ive.', 0aH, 00H				; `string'
CONST	ENDS
;	COMDAT __real@bff0000000000000
CONST	SEGMENT
__real@bff0000000000000 DQ 0bff0000000000000r	; -1
CONST	ENDS
;	COMDAT ??_C@_0CH@GIHCGDLE@Log?5of?5zero?5or?5negative?5number?5i@
CONST	SEGMENT
??_C@_0CH@GIHCGDLE@Log?5of?5zero?5or?5negative?5number?5i@ DB 'Log of zer'
	DB	'o or negative number in %s.', 0aH, 00H	; `string'
CONST	ENDS
;	COMDAT ??_C@_0CO@OHNNCNNA@Log?5of?5zero?5or?5negative?5number?5i@
CONST	SEGMENT
??_C@_0CO@OHNNCNNA@Log?5of?5zero?5or?5negative?5number?5i@ DB 'Log of zer'
	DB	'o or negative number in %s, %s %s.', 0aH, 00H ; `string'
CONST	ENDS
;	COMDAT ??_C@_0DB@MOMMLDEO@Atanh?5argument?5magnitude?5not?5les@
CONST	SEGMENT
??_C@_0DB@MOMMLDEO@Atanh?5argument?5magnitude?5not?5les@ DB 'Atanh argume'
	DB	'nt magnitude not less than 1 in %s.', 0aH, 00H ; `string'
CONST	ENDS
;	COMDAT ??_C@_0DI@PCBKKEME@Atanh?5argument?5magnitude?5not?5les@
CONST	SEGMENT
??_C@_0DI@PCBKKEME@Atanh?5argument?5magnitude?5not?5les@ DB 'Atanh argume'
	DB	'nt magnitude not less than 1 in %s, %s %s.', 0aH, 00H ; `string'
CONST	ENDS
;	COMDAT __real@4000000000000000
CONST	SEGMENT
__real@4000000000000000 DQ 04000000000000000r	; 2
CONST	ENDS
;	COMDAT ??_C@_0CD@HNAOPDML@Acosh?5argument?5less?5than?51?5in?5?$CFs@
CONST	SEGMENT
??_C@_0CD@HNAOPDML@Acosh?5argument?5less?5than?51?5in?5?$CFs@ DB 'Acosh a'
	DB	'rgument less than 1 in %s.', 0aH, 00H	; `string'
CONST	ENDS
;	COMDAT ??_C@_0CK@LLHODBDC@Acosh?5argument?5less?5than?51?5in?5?$CFs@
CONST	SEGMENT
??_C@_0CK@LLHODBDC@Acosh?5argument?5less?5than?51?5in?5?$CFs@ DB 'Acosh a'
	DB	'rgument less than 1 in %s, %s %s.', 0aH, 00H ; `string'
CONST	ENDS
;	COMDAT __real@3fe0000000000000
CONST	SEGMENT
__real@3fe0000000000000 DQ 03fe0000000000000r	; 0.5
CONST	ENDS
;	COMDAT ??_C@_0CK@LOFDGDAB@Square?5root?5of?5negative?5number?5?$CF@
CONST	SEGMENT
??_C@_0CK@LOFDGDAB@Square?5root?5of?5negative?5number?5?$CF@ DB 'Square r'
	DB	'oot of negative number %g in %s.', 0aH, 00H	; `string'
CONST	ENDS
;	COMDAT ??_C@_0DB@GKAOKNCG@Square?5root?5of?5negative?5number?5?$CF@
CONST	SEGMENT
??_C@_0DB@GKAOKNCG@Square?5root?5of?5negative?5number?5?$CF@ DB 'Square r'
	DB	'oot of negative number %g in %s, %s %s.', 0aH, 00H ; `string'
CONST	ENDS
;	COMDAT __real@c059000000000000
CONST	SEGMENT
__real@c059000000000000 DQ 0c059000000000000r	; -100
CONST	ENDS
;	COMDAT __real@46293e5939a08cea
CONST	SEGMENT
__real@46293e5939a08cea DQ 046293e5939a08cear	; 1e+030
CONST	ENDS
;	COMDAT ??_C@_0CP@OEGDEOLM@Non?9integer?5power?5of?5a?5negative?5@
CONST	SEGMENT
??_C@_0CP@OEGDEOLM@Non?9integer?5power?5of?5a?5negative?5@ DB 'Non-intege'
	DB	'r power of a negative number in %s.', 0aH, 00H ; `string'
CONST	ENDS
;	COMDAT ??_C@_0DG@JFAPMCOO@Non?9integer?5power?5of?5a?5negative?5@
CONST	SEGMENT
??_C@_0DG@JFAPMCOO@Non?9integer?5power?5of?5a?5negative?5@ DB 'Non-intege'
	DB	'r power of a negative number in %s, %s %s.', 0aH, 00H ; `string'
CONST	ENDS
;	COMDAT ??_C@_0CE@DJIGLCFH@Negative?5power?5?$CI?$CFd?$CJ?5of?5zero?5in?5?$CF@
CONST	SEGMENT
??_C@_0CE@DJIGLCFH@Negative?5power?5?$CI?$CFd?$CJ?5of?5zero?5in?5?$CF@ DB 'N'
	DB	'egative power (%d) of zero in %s.', 0aH, 00H ; `string'
CONST	ENDS
;	COMDAT ??_C@_0CL@MCPCMAIK@Negative?5power?5?$CI?$CFd?$CJ?5of?5zero?5in?5?$CF@
CONST	SEGMENT
??_C@_0CL@MCPCMAIK@Negative?5power?5?$CI?$CFd?$CJ?5of?5zero?5in?5?$CF@ DB 'N'
	DB	'egative power (%d) of zero in %s, %s %s.', 0aH, 00H ; `string'
CONST	ENDS
;	COMDAT ??_C@_0BK@EOENHDHL@Modulus?5base?5zero?5in?5?$CFs?4?6?$AA@
CONST	SEGMENT
??_C@_0BK@EOENHDHL@Modulus?5base?5zero?5in?5?$CFs?4?6?$AA@ DB 'Modulus ba'
	DB	'se zero in %s.', 0aH, 00H			; `string'
CONST	ENDS
;	COMDAT ??_C@_0CB@HIHGBPJM@Modulus?5base?5zero?5in?5?$CFs?0?5?$CFs?5?$CFs?4?6@
CONST	SEGMENT
??_C@_0CB@HIHGBPJM@Modulus?5base?5zero?5in?5?$CFs?0?5?$CFs?5?$CFs?4?6@ DB 'M'
	DB	'odulus base zero in %s, %s %s.', 0aH, 00H	; `string'
CONST	ENDS
;	COMDAT ??_C@_0BJ@DKCGOBDB@Division?5by?5zero?5in?5?$CFs?4?6?$AA@
CONST	SEGMENT
??_C@_0BJ@DKCGOBDB@Division?5by?5zero?5in?5?$CFs?4?6?$AA@ DB 'Division by'
	DB	' zero in %s.', 0aH, 00H			; `string'
CONST	ENDS
;	COMDAT ??_C@_0CA@MCBMPDHE@Division?5by?5zero?5in?5?$CFs?0?5?$CFs?5?$CFs?4?6?$AA@
CONST	SEGMENT
??_C@_0CA@MCBMPDHE@Division?5by?5zero?5in?5?$CFs?0?5?$CFs?5?$CFs?4?6?$AA@ DB 'D'
	DB	'ivision by zero in %s, %s %s.', 0aH, 00H	; `string'
CONST	ENDS
;	COMDAT ??_C@_0DP@CDGHBNOO@Must?5use?5dynamic?5load?5function?5?$CF@
CONST	SEGMENT
??_C@_0DP@CDGHBNOO@Must?5use?5dynamic?5load?5function?5?$CF@ DB 'Must use'
	DB	' dynamic load function %s in context with parameters.', 0aH, 00H ; `string'
CONST	ENDS
;	COMDAT __real@4005bf0a8b145769
CONST	SEGMENT
__real@4005bf0a8b145769 DQ 04005bf0a8b145769r	; 2.71828
CONST	ENDS
;	COMDAT __real@400921fb54442d18
CONST	SEGMENT
__real@400921fb54442d18 DQ 0400921fb54442d18r	; 3.14159
CONST	ENDS
;	COMDAT ??_C@_0DE@HGELOKGG@Internal?5error?3?5Internal?5variabl@
CONST	SEGMENT
??_C@_0DE@HGELOKGG@Internal?5error?3?5Internal?5variabl@ DB 'Internal err'
	DB	'or: Internal variable %s type not set.', 0aH, 00H ; `string'
CONST	ENDS
;	COMDAT ??_C@_0DF@KGAJMGKH@Really?5strange?5configuration?5aro@
CONST	SEGMENT
??_C@_0DF@KGAJMGKH@Really?5strange?5configuration?5aro@ DB 'Really strang'
	DB	'e configuration around deleted edge %s', 0aH, 00H ; `string'
CONST	ENDS
;	COMDAT ??_C@_0CA@CLIEDLCM@Bad?5delete?5element?5type?5in?5?$CFs?4?6?$AA@
CONST	SEGMENT
??_C@_0CA@CLIEDLCM@Bad?5delete?5element?5type?5in?5?$CFs?4?6?$AA@ DB 'Bad'
	DB	' delete element type in %s.', 0aH, 00H	; `string'
CONST	ENDS
;	COMDAT ??_C@_0CD@FBECANMH@Only?5vertices?5and?5edges?5poppable@
CONST	SEGMENT
??_C@_0CD@FBECANMH@Only?5vertices?5and?5edges?5poppable@ DB 'Only vertice'
	DB	's and edges poppable.', 0aH, 00H		; `string'
CONST	ENDS
;	COMDAT ??_C@_0CA@NGOPNEKB@Bad?5refine?5element?5type?5in?5?$CFs?4?6?$AA@
CONST	SEGMENT
??_C@_0CA@NGOPNEKB@Bad?5refine?5element?5type?5in?5?$CFs?4?6?$AA@ DB 'Bad'
	DB	' refine element type in %s.', 0aH, 00H	; `string'
CONST	ENDS
;	COMDAT ??_C@_0BO@BGHMKKAN@Bad?5LIST?5element?5type?5in?5?$CFs?4?6?$AA@
CONST	SEGMENT
??_C@_0BO@BGHMKKAN@Bad?5LIST?5element?5type?5in?5?$CFs?4?6?$AA@ DB 'Bad L'
	DB	'IST element type in %s.', 0aH, 00H		; `string'
CONST	ENDS
;	COMDAT ??_C@_0CN@LGOPNDFF@Internal?5error?3?5no?5FINISH?5node?5a@
CONST	SEGMENT
??_C@_0CN@LGOPNDFF@Internal?5error?3?5no?5FINISH?5node?5a@ DB 'Internal e'
	DB	'rror: no FINISH node after RETURN', 0aH, 00H ; `string'
CONST	ENDS
;	COMDAT ??_C@_0BH@FDCGEHJN@redefined?5command?5?8?$CFc?8?$AA@
CONST	SEGMENT
??_C@_0BH@FDCGEHJN@redefined?5command?5?8?$CFc?8?$AA@ DB 'redefined comma'
	DB	'nd ''%c''', 00H				; `string'
CONST	ENDS
;	COMDAT ??_C@_0L@HDDEKBBF@EVALTREE?4C?$AA@
CONST	SEGMENT
??_C@_0L@HDDEKBBF@EVALTREE?4C?$AA@ DB 'EVALTREE.C', 00H	; `string'
CONST	ENDS
;	COMDAT ??_C@_0BI@CLILKIPO@show?5expression?5for?5?$CFs?4?$AA@
CONST	SEGMENT
??_C@_0BI@CLILKIPO@show?5expression?5for?5?$CFs?4?$AA@ DB 'show expressio'
	DB	'n for %s.', 00H				; `string'
CONST	ENDS
;	COMDAT ??_C@_0DG@HCIHCCDE@Procedure?5?$CC?$CFs?$CC?5definition?5has?5no@
CONST	SEGMENT
??_C@_0DG@HCIHCCDE@Procedure?5?$CC?$CFs?$CC?5definition?5has?5no@ DB 'Pro'
	DB	'cedure "%s" definition has not been executed yet.', 0aH, 00H ; `string'
CONST	ENDS
;	COMDAT ??_C@_0DF@HMCCGFBA@Function?5?$CC?$CFs?$CC?5definition?5has?5not@
CONST	SEGMENT
??_C@_0DF@HMCCGFBA@Function?5?$CC?$CFs?$CC?5definition?5has?5not@ DB 'Fun'
	DB	'ction "%s" definition has not been executed yet.', 0aH, 00H ; `string'
CONST	ENDS
;	COMDAT ??_C@_0BA@LDMPFPFF@Enter?5command?3?5?$AA@
CONST	SEGMENT
??_C@_0BA@LDMPFPFF@Enter?5command?3?5?$AA@ DB 'Enter command: ', 00H ; `string'
CONST	ENDS
;	COMDAT ??_C@_0CM@NLOJJBMG@Calling?5permload?5in?5non?9permanen@
CONST	SEGMENT
??_C@_0CM@NLOJJBMG@Calling?5permload?5in?5non?9permanen@ DB 'Calling perm'
	DB	'load in non-permanent command.', 0aH, 00H	; `string'
CONST	ENDS
;	COMDAT __real@3abef2d0f5da7dd9
CONST	SEGMENT
__real@3abef2d0f5da7dd9 DQ 03abef2d0f5da7dd9r	; 1e-025
CONST	ENDS
;	COMDAT ??_C@_0BK@OMAPGNOH@Cannot?5open?5datafile?5?$CFs?4?6?$AA@
CONST	SEGMENT
??_C@_0BK@OMAPGNOH@Cannot?5open?5datafile?5?$CFs?4?6?$AA@ DB 'Cannot open'
	DB	' datafile %s.', 0aH, 00H			; `string'
CONST	ENDS
;	COMDAT ??_C@_0BP@KDKEJCJM@Can?8t?5reload?5in?5a?5subcommand?4?6?$AA@
CONST	SEGMENT
??_C@_0BP@KDKEJCJM@Can?8t?5reload?5in?5a?5subcommand?4?6?$AA@ DB 'Can''t '
	DB	'reload in a subcommand.', 0aH, 00H		; `string'
CONST	ENDS
;	COMDAT __real@3ff0000000000000
CONST	SEGMENT
__real@3ff0000000000000 DQ 03ff0000000000000r	; 1
CONST	ENDS
;	COMDAT ??_C@_0DC@KLMKCJCH@Changing?5to?5LAGRANGE?5?$CFd?5model?4?5?$CI@
CONST	SEGMENT
??_C@_0DC@KLMKCJCH@Changing?5to?5LAGRANGE?5?$CFd?5model?4?5?$CI@ DB 'Chan'
	DB	'ging to LAGRANGE %d model. (was LAGRANGE %d)', 0aH, 00H ; `string'
CONST	ENDS
;	COMDAT ??_C@_0CN@NAGKEEOG@Changing?5to?5LAGRANGE?5model?4?5?$CIwas@
CONST	SEGMENT
??_C@_0CN@NAGKEEOG@Changing?5to?5LAGRANGE?5model?4?5?$CIwas@ DB 'Changing'
	DB	' to LAGRANGE model. (was QUADRATIC)', 0aH, 00H ; `string'
CONST	ENDS
;	COMDAT ??_C@_0CK@JBOLHCFI@Changing?5to?5LAGRANGE?5model?4?5?$CIwas@
CONST	SEGMENT
??_C@_0CK@JBOLHCFI@Changing?5to?5LAGRANGE?5model?4?5?$CIwas@ DB 'Changing'
	DB	' to LAGRANGE model. (was LINEAR)', 0aH, 00H	; `string'
CONST	ENDS
;	COMDAT ??_C@_0CN@BFEEPGEG@Changing?5to?5QUADRATIC?5model?4?5?$CIwa@
CONST	SEGMENT
??_C@_0CN@BFEEPGEG@Changing?5to?5QUADRATIC?5model?4?5?$CIwa@ DB 'Changing'
	DB	' to QUADRATIC model. (was LAGRANGE)', 0aH, 00H ; `string'
CONST	ENDS
;	COMDAT ??_C@_0CL@IKOBFHOD@Changing?5to?5QUADRATIC?5model?4?5?$CIwa@
CONST	SEGMENT
??_C@_0CL@IKOBFHOD@Changing?5to?5QUADRATIC?5model?4?5?$CIwa@ DB 'Changing'
	DB	' to QUADRATIC model. (was LINEAR)', 0aH, 00H ; `string'
CONST	ENDS
;	COMDAT ??_C@_0CK@JMIEKNGL@Changing?5to?5LINEAR?5model?4?5?$CIwas?5L@
CONST	SEGMENT
??_C@_0CK@JMIEKNGL@Changing?5to?5LINEAR?5model?4?5?$CIwas?5L@ DB 'Changin'
	DB	'g to LINEAR model. (was LAGRANGE)', 0aH, 00H ; `string'
CONST	ENDS
;	COMDAT ??_C@_0CL@FEBBPANL@Changing?5to?5LINEAR?5model?4?5?$CIwas?5Q@
CONST	SEGMENT
??_C@_0CL@FEBBPANL@Changing?5to?5LINEAR?5model?4?5?$CIwas?5Q@ DB 'Changin'
	DB	'g to LINEAR model. (was QUADRATIC)', 0aH, 00H ; `string'
CONST	ENDS
;	COMDAT ??_C@_0DE@ODNKLDLP@free_discards?5called?5inside?5elem@
CONST	SEGMENT
??_C@_0DE@ODNKLDLP@free_discards?5called?5inside?5elem@ DB 'free_discards'
	DB	' called inside element loop. Ignored.', 0aH, 00H ; `string'
CONST	ENDS
;	COMDAT ??_C@_06FAPHFCKA@?5?5?5?$CFs?6?$AA@
CONST	SEGMENT
??_C@_06FAPHFCKA@?5?5?5?$CFs?6?$AA@ DB '   %s', 0aH, 00H ; `string'
CONST	ENDS
;	COMDAT ??_C@_09PBNAGJKF@?5?5?5?$CFs?3?$CFd?6?$AA@
CONST	SEGMENT
??_C@_09PBNAGJKF@?5?5?5?$CFs?3?$CFd?6?$AA@ DB '   %s:%d', 0aH, 00H ; `string'
CONST	ENDS
;	COMDAT ??_C@_01EEMJAFIK@?6?$AA@
CONST	SEGMENT
??_C@_01EEMJAFIK@?6?$AA@ DB 0aH, 00H			; `string'
CONST	ENDS
;	COMDAT ??_C@_0BA@FJFLMGGP@File?5?$CFs?0?5?$CFs?3?$CFd?6?$AA@
CONST	SEGMENT
??_C@_0BA@FJFLMGGP@File?5?$CFs?0?5?$CFs?3?$CFd?6?$AA@ DB 'File %s, %s:%d', 0aH
	DB	00H						; `string'
CONST	ENDS
;	COMDAT ??_C@_0CN@JMDJOALI@Cannot?5find?5instruction?5on?5line?5@
CONST	SEGMENT
??_C@_0CN@JMDJOALI@Cannot?5find?5instruction?5on?5line?5@ DB 'Cannot find'
	DB	' instruction on line %d of "%s".', 0aH, 00H	; `string'
CONST	ENDS
;	COMDAT ??_C@_0BB@MMHOCNOI@Subcommand?$CI?$CFd?$CJ?3?5?$AA@
CONST	SEGMENT
??_C@_0BB@MMHOCNOI@Subcommand?$CI?$CFd?$CJ?3?5?$AA@ DB 'Subcommand(%d): ', 00H ; `string'
CONST	ENDS
;	COMDAT ??_C@_0N@FIJGDPF@Subcommand?3?5?$AA@
CONST	SEGMENT
??_C@_0N@FIJGDPF@Subcommand?3?5?$AA@ DB 'Subcommand: ', 00H ; `string'
CONST	ENDS
;	COMDAT __real@41684bfe477e06cc
CONST	SEGMENT
__real@41684bfe477e06cc DQ 041684bfe477e06ccr	; 1.27385e+007
CONST	ENDS
;	COMDAT ??_C@_0BE@EMCFOMCB@Debug?5command?$CI?$CFd?$CJ?3?5?$AA@
CONST	SEGMENT
??_C@_0BE@EMCFOMCB@Debug?5command?$CI?$CFd?$CJ?3?5?$AA@ DB 'Debug command'
	DB	'(%d): ', 00H				; `string'
CONST	ENDS
;	COMDAT ??_C@_0BH@MOAJHJDH@Debug?5?$CI?$CC?$CFs?$CC?5line?5?$CFd?$CJ?3?5?$AA@
CONST	SEGMENT
??_C@_0BH@MOAJHJDH@Debug?5?$CI?$CC?$CFs?$CC?5line?5?$CFd?$CJ?3?5?$AA@ DB 'D'
	DB	'ebug ("%s" line %d): ', 00H			; `string'
CONST	ENDS
;	COMDAT ??_C@_0CK@NIDPEGMM@Internal?5error?5in?5eval?$CI?$CJ?3?5no?5fra@
CONST	SEGMENT
??_C@_0CK@NIDPEGMM@Internal?5error?5in?5eval?$CI?$CJ?3?5no?5fra@ DB 'Inte'
	DB	'rnal error in eval(): no frame setup', 0aH, 00H ; `string'
CONST	ENDS
;	COMDAT ??_C@_0CM@CBLOAPAC@Trying?5to?5evaluate?5null?5expressi@
CONST	SEGMENT
??_C@_0CM@CBLOAPAC@Trying?5to?5evaluate?5null?5expressi@ DB 'Trying to ev'
	DB	'aluate null expression for %s.', 0aH, 00H	; `string'
; Function compile flags: /Ogtp
CONST	ENDS
;	COMDAT _eval
_TEXT	SEGMENT
_normalqXvS$90303 = -5868				; size = 24
_normalqXvS$90324 = -5844				; size = 24
_normalqXvS$92033 = -5820				; size = 24
_eattr$90768 = -5796					; size = 8
_fval$92048 = -5788					; size = 8
_fattr$90792 = -5780					; size = 8
_attr$90515 = -5772					; size = 8
_pspots$92161 = -5764					; size = 32
_qspots$92162 = -5732					; size = 32
_qspots$92705 = -5700					; size = 32
_pspots$93020 = -5668					; size = 32
_sspots$92706 = -5636					; size = 32
_pspots$92704 = -5604					; size = 32
_pspots$92602 = -5572					; size = 32
_qspots$92882 = -5540					; size = 32
_qspots$92603 = -5508					; size = 32
_sspots$93022 = -5476					; size = 32
_sspots$92604 = -5444					; size = 32
_qspots$93021 = -5412					; size = 32
_qspots$92510 = -5380					; size = 32
_sspots$92883 = -5348					; size = 32
_pspots$92796 = -5316					; size = 32
_qspots$92797 = -5284					; size = 32
_pspots$92881 = -5252					; size = 32
_pspots$92509 = -5220					; size = 32
_density$91690 = -5188					; size = 8
_return_value$ = -5180					; size = 8
_scalar$92790 = -5172					; size = 8
_mag$90307 = -5164					; size = 8
_spot$90825 = -5156					; size = 4
_ex_original$GSCopy$ = -5152				; size = 4
_v_id$ = -5148						; size = 4
_qint$92715 = -5144					; size = 4
_x$91560 = -5140					; size = 4
_param$91803 = -5136					; size = 4
_subshell_stack$89500 = -5132				; size = 4
_rhs$91851 = -5128					; size = 8
_oldp$93037 = -5120					; size = 4
_old_trace_spot$89499 = -5116				; size = 4
_datastart1$89752 = -5112				; size = 4
_b$89755 = -5108					; size = 4
_old_flag$ = -5104					; size = 4
_stemp$93036 = -5100					; size = 4
_datastart1$89742 = -5096				; size = 4
_datastart2$89750 = -5092				; size = 4
_rtemp$93035 = -5088					; size = 4
_e_id$91174 = -5084					; size = 4
_hi$ = -5080						; size = 8
_scalar$92247 = -5072					; size = 8
_ptemp$93034 = -5064					; size = 4
_asvalue$92595 = -5060					; size = 4
_lcount$92168 = -5056					; size = 4
_lastsize$92711 = -5052					; size = 4
_eptr$91004 = -5048					; size = 4
_did_graphlock_here$89651 = -5044			; size = 4
_eptr$90988 = -5040					; size = 4
_binsize$91363 = -5036					; size = 8
_testb$90953 = -5028					; size = 4
_did_graphlock_here$89665 = -5024			; size = 4
_entry_flag$ = -5020					; size = 4
_stackused$89452 = -5016				; size = 4
tv25856 = -5012						; size = 8
tv25819 = -5012						; size = 8
_v$91703 = -5012					; size = 8
tv18539 = -5004						; size = 8
_sign$92717 = -5004					; size = 8
_rcount$92612 = -4996					; size = 4
tv21369 = -4992						; size = 4
_array_info$92805 = -4992				; size = 4
_histo_max$ = -4988					; size = 4
_alvalue$92593 = -4984					; size = 4
_pointercount$92720 = -4980				; size = 4
tv31090 = -4976						; size = 4
_sint$92716 = -4976					; size = 4
$T94754 = -4972						; size = 4
_lastsize$92801 = -4972					; size = 4
tv28924 = -4968						; size = 4
_a$89744 = -4968					; size = 4
_asvalue$92697 = -4964					; size = 4
tv30621 = -4960						; size = 4
_array_info$92718 = -4960				; size = 4
_td$ = -4956						; size = 4
_return_node$ = -4952					; size = 4
_alvalue$92695 = -4948					; size = 4
_g$93184 = -4944					; size = 4
_lowdim$92362 = -4940					; size = 4
_p$92157 = -4936					; size = 4
_a$91953 = -4932					; size = 4
_rcount$92712 = -4928					; size = 4
_arvalue$92789 = -4924					; size = 4
_g$92325 = -4920					; size = 4
_pp$92379 = -4916					; size = 4
_alvalue$92788 = -4912					; size = 4
_q$92158 = -4908					; size = 4
_lo$ = -4904						; size = 8
tv20559 = -4896						; size = 4
_s$92329 = -4896					; size = 4
tv26617 = -4892						; size = 4
tv18554 = -4892						; size = 4
_f_ptr$91272 = -4892					; size = 4
_sdim$93032 = -4888					; size = 4
_lastsize$92609 = -4884					; size = 4
_rcount$93029 = -4880					; size = 4
_sint$92617 = -4876					; size = 4
_s$92878 = -4872					; size = 4
_g$91950 = -4868					; size = 4
_lastsize$92514 = -4864					; size = 4
_q$92877 = -4860					; size = 4
_pint$92615 = -4856					; size = 4
_rdim$92894 = -4852					; size = 4
_qint$92616 = -4848					; size = 4
_pointercount$92900 = -4844				; size = 4
tv30084 = -4840						; size = 4
_lcount$92610 = -4840					; size = 4
_a$91849 = -4836					; size = 4
_pint$92170 = -4832					; size = 4
_q$92700 = -4828					; size = 4
tv31164 = -4824						; size = 4
$T94753 = -4824						; size = 4
_qint$92804 = -4824					; size = 4
_p$92597 = -4820					; size = 4
_scount$92613 = -4816					; size = 4
tv9094 = -4816						; size = 4
_q$92598 = -4812					; size = 4
_p$92505 = -4808					; size = 4
tv29133 = -4804						; size = 4
tv29124 = -4804						; size = 4
_breakline$89528 = -4804				; size = 4
_scount$92713 = -4800					; size = 4
tv8795 = -4800						; size = 4
_pint$92519 = -4796					; size = 4
tv13149 = -4792						; size = 4
_v_id$92046 = -4792					; size = 4
_scount$93030 = -4788					; size = 4
_value$91850 = -4784					; size = 8
_p$92876 = -4776					; size = 4
_arvalue$93012 = -4772					; size = 4
_sdim$92893 = -4768					; size = 4
_histo_data$ = -4764					; size = 4
_alvalue$92872 = -4760					; size = 4
_lastsize$93026 = -4756					; size = 4
_arvalue$92873 = -4752					; size = 4
_g$91855 = -4748					; size = 4
_dim$92803 = -4744					; size = 4
_update_display_flag$ = -4740				; size = 4
_arvalue$92696 = -4736					; size = 4
_id$ = -4732						; size = 4
_dim$92614 = -4728					; size = 4
_prevpp$92364 = -4724					; size = 4
_ldim$93031 = -4720					; size = 4
tv29108 = -4716						; size = 4
_pbase$92359 = -4716					; size = 4
tv29571 = -4712						; size = 4
_q$92506 = -4712					; size = 4
_asvalue$92874 = -4708					; size = 4
tv30675 = -4704						; size = 4
_s$92701 = -4704					; size = 4
_dim$92518 = -4700					; size = 4
_histo_count$ = -4696					; size = 4
tv29569 = -4692						; size = 4
_rcount$92517 = -4692					; size = 4
tv30086 = -4688						; size = 4
_s$92599 = -4688					; size = 4
_dim$92167 = -4684					; size = 4
tv29110 = -4680						; size = 4
_alvalue$92357 = -4680					; size = 4
tv19078 = -4676						; size = 4
_fr$89673 = -4676					; size = 4
_pp$92456 = -4672					; size = 4
_p$93015 = -4668					; size = 4
_alvalue$93011 = -4664					; size = 4
_ldim$92892 = -4660					; size = 4
_bdry$ = -4656						; size = 4
_p$92792 = -4652					; size = 4
_lcount$93027 = -4648					; size = 4
_p$92699 = -4644					; size = 4
_k$ = -4640						; size = 4
_params$GSCopy$ = -4636					; size = 4
_lastsize$92166 = -4632					; size = 4
_localcount$ = -4628					; size = 4
_qint$92520 = -4624					; size = 4
_qr$92639 = -4620					; size = 4
_pr$92189 = -4616					; size = 4
_pr$92538 = -4612					; size = 4
_qint$92171 = -4608					; size = 4
_qi$92637 = -4604					; size = 4
_si$92641 = -4600					; size = 4
tv27649 = -4596						; size = 4
_asvalue$93013 = -4596					; size = 4
_sr$92643 = -4592					; size = 4
_dim$92714 = -4588					; size = 4
_s$93017 = -4584					; size = 4
_pi$92633 = -4580					; size = 4
_pi$92187 = -4576					; size = 4
_pi$92536 = -4572					; size = 4
_g$ = -4568						; size = 4
tv20303 = -4564						; size = 4
_q$92793 = -4564					; size = 4
_q$93016 = -4560					; size = 4
tv17681 = -4556						; size = 4
_showflag$90794 = -4556					; size = 4
tv32424 = -4552						; size = 4
tv31696 = -4552						; size = 4
_pointercount$92807 = -4552				; size = 4
tv28928 = -4548						; size = 4
tv28401 = -4548						; size = 4
_a$92072 = -4548					; size = 4
tv30623 = -4544						; size = 4
tv30008 = -4544						; size = 4
tv29567 = -4544						; size = 4
tv20730 = -4544						; size = 4
_k$92251 = -4544					; size = 4
tv488 = -4544						; size = 4
tv27959 = -4540						; size = 4
tv27367 = -4540						; size = 4
_fe_id$90771 = -4540					; size = 4
tv29131 = -4536						; size = 8
tv29122 = -4536						; size = 8
tv28291 = -4536						; size = 8
tv28281 = -4536						; size = 8
tv28271 = -4536						; size = 8
tv24442 = -4536						; size = 8
tv24440 = -4536						; size = 8
tv24438 = -4536						; size = 8
tv24436 = -4536						; size = 8
tv24434 = -4536						; size = 8
tv18540 = -4536						; size = 8
_p$91711 = -4536					; size = 8
_rdim$93033 = -4528					; size = 4
_ext$90824 = -4524					; size = 4
tv28382 = -4520						; size = 4
tv28293 = -4520						; size = 4
tv28284 = -4520						; size = 4
tv28278 = -4520						; size = 4
tv28273 = -4520						; size = 4
tv28268 = -4520						; size = 4
_a$89754 = -4520					; size = 4
tv19769 = -4516						; size = 4
tv17732 = -4516						; size = 4
tv17378 = -4516						; size = 4
tv17012 = -4516						; size = 4
_found$91006 = -4516					; size = 4
tv32420 = -4512						; size = 4
tv32344 = -4512						; size = 4
_lastsize$92887 = -4512					; size = 4
tv32342 = -4508						; size = 4
tv20300 = -4508						; size = 4
_rcount$92802 = -4508					; size = 4
tv28399 = -4504						; size = 4
tv28191 = -4504						; size = 4
tv28095 = -4504						; size = 4
_connum$92050 = -4504					; size = 4
_pp$92415 = -4500					; size = 4
tv11163 = -4496						; size = 4
tv11150 = -4496						; size = 4
tv11133 = -4496						; size = 4
_lcount$92516 = -4496					; size = 4
tv3308 = -4496						; size = 4
tv3265 = -4496						; size = 4
_n$ = -4492						; size = 4
tv27145 = -4488						; size = 4
tv27143 = -4488						; size = 4
tv27141 = -4488						; size = 4
tv27139 = -4488						; size = 4
tv27109 = -4488						; size = 4
tv27107 = -4488						; size = 4
tv27105 = -4488						; size = 4
tv27060 = -4488						; size = 4
_oldflag$90855 = -4488					; size = 4
tv30010 = -4484						; size = 4
tv29433 = -4484						; size = 4
tv25616 = -4484						; size = 4
tv25615 = -4484						; size = 4
tv25610 = -4484						; size = 4
tv25609 = -4484						; size = 4
tv25605 = -4484						; size = 4
tv20352 = -4484						; size = 4
_normal$92035 = -4484					; size = 4
tv18233 = -4480						; size = 4
_showflag$90770 = -4480					; size = 4
tv27151 = -4476						; size = 4
tv27148 = -4476						; size = 4
tv25904 = -4476						; size = 4
tv25898 = -4476						; size = 4
tv25893 = -4476						; size = 4
tv25762 = -4476						; size = 4
tv25754 = -4476						; size = 4
tv25751 = -4476						; size = 4
tv25617 = -4476						; size = 4
tv25611 = -4476						; size = 4
tv25606 = -4476						; size = 4
tv24967 = -4476						; size = 4
tv21884 = -4476						; size = 4
tv21867 = -4476						; size = 4
tv21612 = -4476						; size = 4
_dim$92891 = -4476					; size = 4
_lastsize$92361 = -4472					; size = 4
tv17206 = -4468						; size = 4
tv17191 = -4468						; size = 4
tv17142 = -4468						; size = 4
tv17081 = -4468						; size = 4
tv16824 = -4468						; size = 4
tv12505 = -4468						; size = 4
tv12490 = -4468						; size = 4
_rcount$92169 = -4468					; size = 4
tv31186 = -4464						; size = 4
tv31110 = -4464						; size = 4
tv21942 = -4464						; size = 4
tv21662 = -4464						; size = 4
_qi$92767 = -4464					; size = 4
tv11268 = -4464						; size = 4
tv7490 = -4464						; size = 4
tv6070 = -4464						; size = 4
tv28170 = -4460						; size = 4
tv27980 = -4460						; size = 4
tv27884 = -4460						; size = 4
tv27808 = -4460						; size = 4
tv27733 = -4460						; size = 4
_one_bin_flag$91364 = -4460				; size = 4
_self_id$GSCopy$ = -4456				; size = 4
tv27768 = -4452						; size = 4
tv27766 = -4452						; size = 4
tv27764 = -4452						; size = 4
tv27762 = -4452						; size = 4
tv27760 = -4452						; size = 4
tv27756 = -4452						; size = 4
tv27752 = -4452						; size = 4
tv27717 = -4452						; size = 4
tv27586 = -4452						; size = 4
tv27585 = -4452						; size = 4
tv27575 = -4452						; size = 4
tv27574 = -4452						; size = 4
tv23353 = -4452						; size = 4
_normal$90305 = -4452					; size = 4
tv28724 = -4448						; size = 4
tv25903 = -4448						; size = 4
tv25902 = -4448						; size = 4
tv25897 = -4448						; size = 4
tv25896 = -4448						; size = 4
tv25858 = -4448						; size = 4
tv25846 = -4448						; size = 4
tv25844 = -4448						; size = 4
tv25834 = -4448						; size = 4
tv25832 = -4448						; size = 4
tv25821 = -4448						; size = 4
tv25761 = -4448						; size = 4
tv25760 = -4448						; size = 4
tv25759 = -4448						; size = 4
tv25758 = -4448						; size = 4
tv19976 = -4448						; size = 4
_xx$91808 = -4448					; size = 4
_recalc_flag$ = -4444					; size = 4
_i$ = -4440						; size = 4
tv29137 = -4438						; size = 2
tv29127 = -4438						; size = 2
tv28296 = -4438						; size = 2
tv28287 = -4438						; size = 2
tv28276 = -4438						; size = 2
tv25861 = -4438						; size = 2
tv25849 = -4438						; size = 2
tv25837 = -4438						; size = 2
tv25824 = -4438						; size = 2
tv18640 = -4436						; size = 4
tv5499 = -4436						; size = 4
tv5404 = -4436						; size = 4
tv5365 = -4436						; size = 4
tv5331 = -4436						; size = 4
tv5317 = -4436						; size = 4
tv5263 = -4436						; size = 4
tv5223 = -4436						; size = 4
tv5125 = -4436						; size = 4
tv4908 = -4436						; size = 4
tv4881 = -4436						; size = 4
tv3076 = -4436						; size = 4
tv3038 = -4436						; size = 4
tv3025 = -4436						; size = 4
tv3012 = -4436						; size = 4
tv2999 = -4436						; size = 4
tv2986 = -4436						; size = 4
tv2973 = -4436						; size = 4
_did_graphlock_here$89774 = -4436			; size = 4
_localstack$ = -4432					; size = 4
_localbase$ = -4428					; size = 4
_q_id$ = -4424						; size = 4
_node$ = -4420						; size = 4
_keeplist$89672 = -4416					; size = 104
_bqnode$89762 = -4312					; size = 104
_ex_current$ = -4208					; size = 104
_ta$92898 = -4104					; size = 56
_normalxJ$92034 = -4048					; size = 288
_normalxJ$90325 = -3760					; size = 288
_normalxJ$90304 = -3472					; size = 288
_inx$92698 = -3184					; size = 400
_inx$92791 = -2784					; size = 400
_inx$92156 = -2384					; size = 400
_inx$92504 = -1984					; size = 400
_inx$92596 = -1584					; size = 400
_minsize$92710 = -1184					; size = 32
_minsize$92800 = -1152					; size = 32
_minsize$92513 = -1120					; size = 32
_minsize$92165 = -1088					; size = 32
_sstride$92607 = -1056					; size = 32
_pstride$92707 = -1024					; size = 32
_qstride$93024 = -992					; size = 32
_qstride$92164 = -960					; size = 32
_pstride$93023 = -928					; size = 32
_qstride$92708 = -896					; size = 32
_qstride$92885 = -864					; size = 32
_minsize$92608 = -832					; size = 32
_pstride$92884 = -800					; size = 32
_qstride$92512 = -768					; size = 32
_qstride$92799 = -736					; size = 32
_pstride$92163 = -704					; size = 32
_pstride$92798 = -672					; size = 32
_sstride$92709 = -640					; size = 32
_qstride$92606 = -608					; size = 32
_pstride$92605 = -576					; size = 32
_pstride$92511 = -544					; size = 32
_inx$92875 = -512					; size = 32
_sstride$93025 = -480					; size = 32
_inx$93014 = -448					; size = 32
_vect$ = -416						; size = 48
_sstride$92886 = -368					; size = 32
_pspots$92365 = -336					; size = 32
_prompt_string$89497 = -304				; size = 100
_prompt_string$89429 = -204				; size = 100
_prompt_string$89438 = -104				; size = 100
__$ArrayPad$ = -4					; size = 4
_ex_original$ = 8					; size = 4
_params$ = 12						; size = 4
_self_id$ = 16						; size = 4
_parent_frame$ = 20					; size = 4
_eval	PROC						; COMDAT

; 83   : { 

	push	ebp
	mov	ebp, esp
	mov	eax, 5868				; 000016ecH
	call	__chkstk
	mov	eax, DWORD PTR ___security_cookie
	xor	eax, ebp
	mov	DWORD PTR __$ArrayPad$[ebp], eax

; 84   :   struct treenode *node; /* currently executing node */
; 85   : 
; 86   :   struct thread_data *td = GET_THREAD_DATA;

	mov	edx, DWORD PTR _thread_data_key

; 87   :   #define newstack  (td->eval_stack)
; 88   :   #define stackmax  (td->eval_stack_size)
; 89   :   #define stacktop  (td->stack_top)
; 90   :   #define this_frame ((struct eval_frame*)(newstack + td->frame_spot))
; 91   : 
; 92   :   int entry_flag = BASE_OF_EVAL; /* so can set frame flag marking entry to eval() */

	mov	eax, DWORD PTR _params$[ebp]
	mov	ecx, DWORD PTR _self_id$[ebp]
	push	ebx
	push	esi
	mov	esi, DWORD PTR _ex_original$[ebp]
	push	edi
	push	edx

; 5554 : 
; 5555 :       case ARRAY_ADD_NODE:   // result to temp array 
; 5556 :       case ARRAY_SUBTRACT_NODE:
; 5557 :         { 
; 5558 :           struct array *alvalue;
; 5559 :           struct array *arvalue= get_name_arrayptr(node->op3.name_id,newstack + localstack,localbase);

	mov	DWORD PTR _ex_original$GSCopy$[ebp], esi
	mov	DWORD PTR _params$GSCopy$[ebp], eax
	mov	DWORD PTR _self_id$GSCopy$[ebp], ecx
	call	_win_get_thread_data
	mov	ebx, eax
	mov	eax, DWORD PTR _self_id$GSCopy$[ebp]
	mov	ecx, 26					; 0000001aH
	lea	edi, DWORD PTR _ex_current$[ebp]
	rep movsd
	mov	ecx, DWORD PTR _iterate_flag
	mov	DWORD PTR _q_id$[ebp], eax
	xor	eax, eax
	add	esp, 4
	mov	DWORD PTR _td$[ebp], ebx
	mov	DWORD PTR _entry_flag$[ebp], 2
	mov	DWORD PTR _return_node$[ebp], eax
	mov	DWORD PTR _old_flag$[ebp], ecx
	mov	DWORD PTR _recalc_flag$[ebp], eax
	mov	DWORD PTR _update_display_flag$[ebp], eax
	cmp	DWORD PTR _l_evolver_break, eax
	je	SHORT $LN1996@eval

; 93   :   
; 94   :   /* variables that act like registers for stack gymnastics */
; 95   :   struct expnode ex_current = *ex_original;
; 96   : 
; 97   :   struct locallist_t *localbase;
; 98   :   int localcount;
; 99   :   element_id q_id = self_id;  /* innermost loop element */
; 100  :   REAL return_value;
; 101  :   struct treenode *return_node = NULL;
; 102  :   int localstack; /* offset of base of local stack, after frame structure */
; 103  : 
; 104  :   /* miscellaneous local variables useful in executing nodes */
; 105  :   int k,n,i;
; 106  :   REAL x,y;
; 107  :   element_id id; 
; 108  :   REAL *bins;
; 109  :   REAL hi;
; 110  :   REAL lo;
; 111  :   REAL val;
; 112  :   int old_flag = iterate_flag;
; 113  :   facet_id f_id;
; 114  :   REAL vect[MAXCOORD];
; 115  :   facetedge_id fe;
; 116  :   vertex_id v_id;
; 117  :   int recalc_flag = 0;
; 118  :   int update_display_flag = 0;
; 119  :   struct boundary *bdry;
; 120  :   REAL *histo_data;
; 121  :   int histo_max;
; 122  :   int histo_count;
; 123  :   struct global *g;
; 124  :   int oldquiet;
; 125  : #ifdef PROF_EVALS
; 126  :   struct expnode *ex_profiling = ex_original; // purely for profiling
; 127  : #endif
; 128  : #ifdef __L_EVOLVER__
; 129  :         if (l_evolver_break)
; 130  :           {
; 131  :           breakflag = BREAKFULL;	
; 132  :           //breakflag = BREAKABORT;	
; 133  : 		  l_evolver_break=FALSE;

	mov	DWORD PTR _breakflag, 1
	mov	DWORD PTR _l_evolver_break, eax
$LN1996@eval:

; 134  :           } 
; 135  : 
; 136  : #endif
; 137  :   
; 138  :   if ( ex_original == NULL ) return 0.0;
; 139  :   ex_current = *ex_original;

	mov	esi, DWORD PTR _ex_original$GSCopy$[ebp]
	mov	ecx, 26					; 0000001aH
	lea	edi, DWORD PTR _ex_current$[ebp]
	rep movsd

; 140  : 
; 141  :   if ( ex_current.start == NULL )

	mov	eax, DWORD PTR _ex_current$[ebp]
	test	eax, eax
	jne	SHORT $LN1994@eval

; 142  :   { sprintf(errmsg,"Trying to evaluate null expression for %s.\n",ex_current.name);

	lea	edx, DWORD PTR _ex_current$[ebp+20]
	push	edx
	push	OFFSET ??_C@_0CM@CBLOAPAC@Trying?5to?5evaluate?5null?5expressi@
	push	OFFSET _errmsg
	call	_sprintf

; 143  :     kb_error(1253,errmsg,WARNING);

	push	2
	push	OFFSET _errmsg
	push	1253					; 000004e5H
	call	_kb_error

; 6448 :   stacktop--; /* since points to occupied spot */
; 6449 :   td->frame_spot = this_frame->parent_frame_spot;
; 6450 :   return 0.0;

	fldz
	add	esp, 24					; 00000018H

; 6451 : } /* end eval() */

	pop	edi
	pop	esi
	pop	ebx
	mov	ecx, DWORD PTR __$ArrayPad$[ebp]
	xor	ecx, ebp
	call	@__security_check_cookie@4
	mov	esp, ebp
	pop	ebp
	ret	0
$LN1994@eval:

; 144  :     return 0.0;
; 145  :   }
; 146  : 
; 147  :   PROF_EVAL_START(ex_profiling);
; 148  :   PROF_COUNT_INCR(ex_profiling);
; 149  : 
; 150  :   if ( !breakflag ) iterate_flag = 2; /* for interrupt handler */

	cmp	DWORD PTR _breakflag, 0
	jne	SHORT $LN1993@eval
	mov	DWORD PTR _iterate_flag, 2
$LN1993@eval:

; 151  : 
; 152  :   if ( ex_current.start[1].type != SETUP_FRAME_NODE )

	cmp	DWORD PTR [eax+168], 10001		; 00002711H
	je	SHORT $LN1992@eval

; 153  :   { sprintf(errmsg,"Internal error in eval(): no frame setup\n");

	push	OFFSET ??_C@_0CK@NIDPEGMM@Internal?5error?5in?5eval?$CI?$CJ?3?5no?5fra@
	push	OFFSET _errmsg
	call	_sprintf

; 154  :     sprintf(errmsg+strlen(errmsg),"(source file %s, line %d)\n",
; 155  :                  file_names[ex_current.start[1].file_no],ex_current.start[1].line_no);

	mov	eax, OFFSET _errmsg
	add	esp, 8
	lea	edx, DWORD PTR [eax+1]
	npad	7
$LL2789@eval:
	mov	cl, BYTE PTR [eax]
	inc	eax
	test	cl, cl
	jne	SHORT $LL2789@eval
	mov	ecx, DWORD PTR _ex_current$[ebp]
	sub	eax, edx
	mov	edx, DWORD PTR [ecx+180]
	mov	ecx, DWORD PTR [ecx+184]
	push	edx
	mov	edx, DWORD PTR _file_names
	mov	ecx, DWORD PTR [edx+ecx*4]
	push	ecx
	lea	edx, DWORD PTR _errmsg[eax]
	push	OFFSET ??_C@_0BL@LMCMICK@?$CIsource?5file?5?$CFs?0?5line?5?$CFd?$CJ?6?$AA@
	push	edx
	call	_sprintf

; 156  :     kb_error(3987,errmsg,RECOVERABLE);

	push	1
	push	OFFSET _errmsg
	push	3987					; 00000f93H
	call	_kb_error
	mov	eax, DWORD PTR _ex_current$[ebp]
	add	esp, 28					; 0000001cH
$LN1992@eval:

; 157  :   }
; 158  :  
; 159  :   for ( node = ex_current.start+1 ; ; node++ )

	add	eax, 168				; 000000a8H
	mov	DWORD PTR _node$[ebp], eax
	npad	4
$LL1991@eval:

; 160  :   {
; 161  :     if ( single_step_debugging && (node->line_no != current_debug_line) )

	cmp	DWORD PTR _single_step_debugging, 0
	je	$LN1988@eval
	mov	eax, DWORD PTR _node$[ebp]
	mov	eax, DWORD PTR [eax+12]
	cmp	eax, DWORD PTR _current_debug_line
	je	$LN1988@eval

; 162  :     { char prompt_string[100];
; 163  :       current_debug_line = node->line_no;

	mov	DWORD PTR _current_debug_line, eax

; 164  :       subshell_depth++;

	mov	eax, DWORD PTR _subshell_depth
	mov	edi, 1
	add	eax, edi
	mov	DWORD PTR _subshell_depth, eax

; 165  :       subshell_frame[subshell_depth] = this_frame;

	mov	ecx, DWORD PTR [ebx+52]
	mov	edx, DWORD PTR [ebx+40]
	lea	ecx, DWORD PTR [edx+ecx*8]
	mov	DWORD PTR _subshell_frame[eax*4], ecx

; 166  :       setjmp(jumpbuf[subshell_depth]);

	shl	eax, 6
	xor	esi, esi
	add	eax, OFFSET _jumpbuf
	push	esi
	push	eax
	call	__setjmp3

; 167  :       if ( subshell_depth == 1 )

	mov	eax, DWORD PTR _subshell_depth
	add	esp, 8
	cmp	eax, edi
	jne	SHORT $LN1987@eval

; 168  :         sprintf(prompt_string,"Debug (\"%s\" line %d): ",ex_current.name,node->line_no);

	mov	edx, DWORD PTR _node$[ebp]
	mov	eax, DWORD PTR [edx+12]
	push	eax
	lea	ecx, DWORD PTR _ex_current$[ebp+20]
	push	ecx
	lea	edx, DWORD PTR _prompt_string$89429[ebp]
	push	OFFSET ??_C@_0BH@MOAJHJDH@Debug?5?$CI?$CC?$CFs?$CC?5line?5?$CFd?$CJ?3?5?$AA@
	push	edx
	call	_sprintf
	add	esp, 16					; 00000010H

; 169  :       else

	jmp	SHORT $LN1986@eval
$LN1987@eval:

; 170  :       { sprintf(prompt_string,"Debug command(%d): ",subshell_depth);

	push	eax
	lea	eax, DWORD PTR _prompt_string$89429[ebp]
	push	OFFSET ??_C@_0BE@EMCFOMCB@Debug?5command?$CI?$CFd?$CJ?3?5?$AA@
	push	eax
	call	_sprintf
	add	esp, 12					; 0000000cH
$LN1986@eval:

; 171  :       }
; 172  :       /* command read and execute loop */
; 173  :       debugging_flag = 1;
; 174  :       single_step_debugging = 0;
; 175  :       exec_commands(NULL,prompt_string);

	lea	ecx, DWORD PTR _prompt_string$89429[ebp]
	push	ecx
	push	esi
	mov	DWORD PTR _debugging_flag, edi
	mov	DWORD PTR _single_step_debugging, esi
	call	_exec_commands
	add	esp, 8

; 176  :       subshell_depth--;

	sub	DWORD PTR _subshell_depth, edi

; 177  :       debugging_flag = 0;

	mov	DWORD PTR _debugging_flag, esi

; 178  :     }  
; 179  :     else

	jmp	$LN3947@eval
$LN1988@eval:

; 180  :     /* have reached node set to a breakpoint */
; 181  :     if ( node->flags & BREAKPOINT_NODE )

	mov	edx, DWORD PTR _node$[ebp]
	test	DWORD PTR [edx+24], 4096		; 00001000H
	je	$LN1984@eval

; 182  :     { char prompt_string[100];
; 183  :       current_debug_line = node->line_no;

	mov	eax, edx
	mov	ecx, DWORD PTR [eax+12]

; 184  :       subshell_depth++;

	mov	eax, DWORD PTR _subshell_depth
	mov	esi, 1
	add	eax, esi
	mov	DWORD PTR _subshell_depth, eax
	mov	DWORD PTR _current_debug_line, ecx

; 185  :       subshell_frame[subshell_depth] = this_frame;

	mov	edx, DWORD PTR [ebx+52]
	mov	ecx, DWORD PTR [ebx+40]
	lea	edx, DWORD PTR [ecx+edx*8]
	mov	DWORD PTR _subshell_frame[eax*4], edx

; 186  :       setjmp(jumpbuf[subshell_depth]);

	shl	eax, 6
	add	eax, OFFSET _jumpbuf
	push	0
	push	eax
	call	__setjmp3

; 187  :       if ( subshell_depth == 1 )

	mov	eax, DWORD PTR _subshell_depth
	add	esp, 8
	cmp	eax, esi
	jne	SHORT $LN1983@eval

; 188  :         sprintf(prompt_string,"Debug (\"%s\" line %d): ",ex_current.name,node->line_no);

	mov	eax, DWORD PTR _node$[ebp]
	mov	ecx, DWORD PTR [eax+12]
	push	ecx
	lea	edx, DWORD PTR _ex_current$[ebp+20]
	push	edx
	lea	eax, DWORD PTR _prompt_string$89438[ebp]
	push	OFFSET ??_C@_0BH@MOAJHJDH@Debug?5?$CI?$CC?$CFs?$CC?5line?5?$CFd?$CJ?3?5?$AA@
	push	eax
	call	_sprintf
	add	esp, 16					; 00000010H

; 189  :       else

	jmp	SHORT $LN1982@eval
$LN1983@eval:

; 190  :       { sprintf(prompt_string,"Debug command(%d): ",subshell_depth);

	push	eax
	lea	ecx, DWORD PTR _prompt_string$89438[ebp]
	push	OFFSET ??_C@_0BE@EMCFOMCB@Debug?5command?$CI?$CFd?$CJ?3?5?$AA@
	push	ecx
	call	_sprintf
	add	esp, 12					; 0000000cH
$LN1982@eval:

; 191  :       }
; 192  :       /* command read and execute loop */
; 193  :       debugging_flag = 1;
; 194  :       exec_commands(NULL,prompt_string);

	lea	edx, DWORD PTR _prompt_string$89438[ebp]
	push	edx
	push	0
	mov	DWORD PTR _debugging_flag, esi
	call	_exec_commands
	add	esp, 8

; 195  :       subshell_depth--;

	sub	DWORD PTR _subshell_depth, esi

; 196  :       debugging_flag = 0;

	mov	DWORD PTR _debugging_flag, 0
$LN3947@eval:
	mov	ebx, DWORD PTR _td$[ebp]
$LN1984@eval:

; 197  :     }
; 198  : 
; 199  : //mem_sanity_check();
; 200  : 
; 201  :     switch ( node->type )

	mov	eax, DWORD PTR _node$[ebp]
	mov	edx, DWORD PTR [eax]
	lea	eax, DWORD PTR [edx-10001]
	cmp	eax, 385				; 00000181H
	ja	$LN18@eval
	jmp	DWORD PTR $LN4028@eval[eax*4]
$LN1979@eval:

; 202  :     {
; 203  :       struct treenode *where,*enode,*eroot;
; 204  : 
; 205  :       case SETUP_FRAME_NODE: /* first node of any procedure */
; 206  :         { int parent_frame_spot;
; 207  :           int stackused = (int)(stacktop-newstack);

	mov	edx, DWORD PTR [ebx+48]
	sub	edx, DWORD PTR [ebx+40]

; 208  :           
; 209  :           /* check stack space */
; 210  :           localbase = ex_current.locals;

	mov	eax, DWORD PTR _ex_current$[ebp+8]
	sar	edx, 3
	mov	DWORD PTR _stackused$89452[ebp], edx
	mov	DWORD PTR _localbase$[ebp], eax

; 211  :           if ( ex_current.locals )

	test	eax, eax
	je	SHORT $LN1978@eval

; 212  :             localcount = ex_current.locals->totalsize;

	mov	eax, DWORD PTR [eax+12]
	jmp	SHORT $LN3948@eval
$LN1978@eval:

; 213  :           else localcount = 0;

	xor	eax, eax
$LN3948@eval:
	mov	DWORD PTR _localcount$[ebp], eax

; 214  :           if ( stackmax  <  stackused + localcount + ex_current.stack_max + FRAME_SPACE + 20 ) 

	add	eax, DWORD PTR _ex_current$[ebp+16]
	add	eax, edx
	lea	ecx, DWORD PTR [eax+36]
	cmp	DWORD PTR [ebx+44], ecx
	jge	SHORT $LN1976@eval

; 215  :           { 
; 216  :             stackmax = stackused + localcount + ex_current.stack_max + FRAME_SPACE + 300;

	add	eax, 316				; 0000013cH

; 217  :             newstack = (REAL*)realloc(newstack,stackmax*sizeof(REAL) );

	lea	edx, DWORD PTR [eax*8]
	mov	DWORD PTR [ebx+44], eax
	mov	eax, DWORD PTR [ebx+40]
	push	edx
	push	eax
	call	_realloc

; 218  :             stacktop = newstack + stackused;
; 219  :             newstack[stackmax-1]  = STACKMAGIC;  /* sentinel */         

	fld	QWORD PTR __real@41684bfe477e06cc
	mov	ecx, DWORD PTR _stackused$89452[ebp]
	lea	edx, DWORD PTR [eax+ecx*8]
	mov	DWORD PTR [ebx+40], eax
	mov	DWORD PTR [ebx+48], edx
	mov	eax, DWORD PTR [ebx+44]
	mov	ecx, DWORD PTR [ebx+40]
	mov	edx, DWORD PTR _stackused$89452[ebp]
	fstp	QWORD PTR [ecx+eax*8-8]
	add	esp, 8
$LN1976@eval:

; 220  :           } 
; 221  : 
; 222  :           /* find parent frame, if any */
; 223  :           parent_frame_spot = td->frame_spot;
; 224  :           if ( stacktop == newstack  )

	mov	ecx, DWORD PTR [ebx+48]
	mov	eax, DWORD PTR [ebx+52]
	cmp	ecx, DWORD PTR [ebx+40]
	jne	SHORT $LN1975@eval

; 225  :              parent_frame = NULL;

	mov	DWORD PTR _parent_frame$[ebp], 0

; 226  : 
; 227  :           else

	jmp	SHORT $LN1974@eval
$LN1975@eval:

; 228  :              parent_frame = (struct eval_frame*)(newstack + parent_frame_spot);

	mov	ecx, DWORD PTR [ebx+40]
	lea	ecx, DWORD PTR [ecx+eax*8]
	mov	DWORD PTR _parent_frame$[ebp], ecx
$LN1974@eval:

; 229  :           stacktop++;

	add	DWORD PTR [ebx+48], 8

; 230  : 
; 231  :           /* Set up first frame at current stack position */
; 232  :           td->frame_spot = (int)(stacktop - newstack);  /* sets this_frame by macro */

	mov	ecx, DWORD PTR [ebx+48]
	sub	ecx, DWORD PTR [ebx+40]
	sar	ecx, 3
	mov	DWORD PTR [ebx+52], ecx

; 233  :           stacktop += FRAME_SPACE-1;

	add	DWORD PTR [ebx+48], 120			; 00000078H

; 234  :           this_frame->base_ex = ex_current;

	mov	ecx, DWORD PTR [ebx+52]
	mov	esi, DWORD PTR [ebx+40]
	lea	edi, DWORD PTR [esi+ecx*8+8]
	mov	ecx, 26					; 0000001aH
	lea	esi, DWORD PTR _ex_current$[ebp]
	rep movsd

; 235  :           this_frame->basenode = &node;  

	mov	ecx, DWORD PTR [ebx+52]
	mov	esi, DWORD PTR [ebx+40]
	lea	edi, DWORD PTR _node$[ebp]
	mov	DWORD PTR [esi+ecx*8], edi

; 236  :           this_frame->parent_frame_spot = parent_frame_spot;

	mov	ecx, DWORD PTR [ebx+52]
	mov	esi, DWORD PTR [ebx+40]
	mov	DWORD PTR [esi+ecx*8+116], eax

; 237  :           td->frame_spot = (int)((REAL*)this_frame - newstack);  // redundant?

	mov	eax, DWORD PTR [ebx+52]

; 238  :           this_frame->self_id = self_id;

	mov	esi, DWORD PTR _self_id$GSCopy$[ebp]

; 239  :           this_frame->return_node = return_node;
; 240  :           this_frame->flags = entry_flag;

	mov	edi, DWORD PTR _entry_flag$[ebp]
	add	eax, eax
	add	eax, eax
	add	eax, eax
	sar	eax, 3
	mov	DWORD PTR [ebx+52], eax
	mov	ecx, DWORD PTR [ebx+40]
	mov	DWORD PTR [ecx+eax*8+112], esi
	mov	eax, DWORD PTR [ebx+52]
	mov	esi, DWORD PTR [ebx+40]
	mov	ecx, DWORD PTR _return_node$[ebp]
	mov	DWORD PTR [esi+eax*8+120], ecx
	mov	eax, DWORD PTR [ebx+52]
	mov	esi, DWORD PTR [ebx+40]
	mov	DWORD PTR [esi+eax*8+124], edi

; 241  :           if ( stackused == 0 )

	test	edx, edx
	jne	SHORT $LN1973@eval

; 242  :             this_frame->flags |= BASE_OF_WHOLE_STACK;

	mov	edx, DWORD PTR [ebx+52]
	mov	eax, DWORD PTR [ebx+40]
	or	DWORD PTR [eax+edx*8+124], 4
	lea	eax, DWORD PTR [eax+edx*8+124]
$LN1973@eval:

; 243  :           entry_flag = 0;
; 244  :           if ( parent_frame ) 

	mov	edx, DWORD PTR _parent_frame$[ebp]
	mov	DWORD PTR _entry_flag$[ebp], 0
	test	edx, edx
	je	SHORT $LN1971@eval

; 245  :           { this_frame->flags |= parent_frame->flags  & IN_ELEMENT_LOOP;

	mov	eax, DWORD PTR [ebx+52]
	mov	esi, DWORD PTR [ebx+40]
	mov	edx, DWORD PTR [edx+124]
	and	edx, 2048				; 00000800H
	or	DWORD PTR [esi+eax*8+124], edx
	lea	eax, DWORD PTR [esi+eax*8+124]

; 246  :             if ( return_node )

	test	ecx, ecx
	je	SHORT $LN1971@eval

; 247  :                 this_frame->flags |= return_node->flags & IN_ELEMENT_LOOP;

	mov	eax, DWORD PTR [ebx+52]
	mov	edx, DWORD PTR [ebx+40]
	mov	ecx, DWORD PTR [ecx+24]
	lea	eax, DWORD PTR [edx+eax*8+124]
	and	ecx, 2048				; 00000800H
	or	DWORD PTR [eax], ecx
$LN1971@eval:

; 248  :           }   
; 249  :           localstack = (int)((stacktop + 1) - newstack);

	mov	eax, DWORD PTR [ebx+48]
	mov	ecx, eax
	sub	ecx, DWORD PTR [ebx+40]
	add	ecx, 8
	sar	ecx, 3

; 250  :           
; 251  :           /* local variables after frame */
; 252  :           if ( localcount )

	cmp	DWORD PTR _localcount$[ebp], 0
	mov	DWORD PTR _localstack$[ebp], ecx
	je	$LN1980@eval

; 253  :           { stacktop++;
; 254  :             memset((char*)stacktop,0,localcount*sizeof(REAL));

	mov	esi, DWORD PTR _localcount$[ebp]
	add	esi, esi
	add	esi, esi
	add	esi, esi
	push	esi
	add	eax, 8
	push	0
	push	eax
	mov	DWORD PTR [ebx+48], eax
	call	_memset

; 255  :             stacktop += localcount-1; /* room for local variables */

	add	esi, -8					; fffffff8H
	add	esp, 12					; 0000000cH
	add	DWORD PTR [ebx+48], esi

; 256  :           }
; 257  : 
; 258  :         }
; 259  :         break;  /* end SETUP_FRAME_NODE */

	jmp	$LN1980@eval
$LN1969@eval:

; 260  : 
; 261  :       case ABORT_NODE:
; 262  : /*
; 263  :           if ( subshell_depth )
; 264  :           { exit_flag = 1;
; 265  :             break;
; 266  :           }
; 267  : */
; 268  :           breakflag = BREAKABORT;

	mov	DWORD PTR _breakflag, 5

; 269  :           break;

	jmp	$LN2783@eval
$LN1968@eval:

; 270  : 
; 271  :       case SUBCOMMAND_NODE:
; 272  :     { char prompt_string[100];
; 273  :       char *pmpt;
; 274  :       int old_trace_spot = eval_stack_trace_spot;
; 275  :       REAL *subshell_stack;
; 276  :       subshell_depth++;

	mov	eax, DWORD PTR _subshell_depth
	mov	edx, DWORD PTR _eval_stack_trace_spot
	inc	eax
	mov	DWORD PTR _subshell_depth, eax

; 277  :       subshell_frame[subshell_depth] = this_frame;

	mov	ecx, DWORD PTR [ebx+52]
	mov	DWORD PTR _old_trace_spot$89499[ebp], edx
	mov	edx, DWORD PTR [ebx+40]
	lea	ecx, DWORD PTR [edx+ecx*8]
	mov	DWORD PTR _subshell_frame[eax*4], ecx

; 278  :       subshell_stack = stacktop;

	mov	edx, DWORD PTR [ebx+48]

; 279  :       setjmp(jumpbuf[subshell_depth]);

	shl	eax, 6
	add	eax, OFFSET _jumpbuf
	push	0
	push	eax
	mov	DWORD PTR _subshell_stack$89500[ebp], edx
	call	__setjmp3

; 280  :       stacktop = subshell_stack;  // set stack properly on return from error

	mov	eax, DWORD PTR _subshell_stack$89500[ebp]
	mov	ebx, DWORD PTR _td$[ebp]
	mov	DWORD PTR [ebx+48], eax

; 281  :       if ( subshell_depth == 1 )

	mov	eax, DWORD PTR _subshell_depth
	add	esp, 8
	cmp	eax, 1
	jne	SHORT $LN1967@eval

; 282  :        pmpt = "Subcommand: ";

	mov	ecx, OFFSET ??_C@_0N@FIJGDPF@Subcommand?3?5?$AA@

; 283  :       else

	jmp	SHORT $LN1966@eval
$LN1967@eval:

; 284  :       { sprintf(prompt_string,"Subcommand(%d): ",subshell_depth);

	push	eax
	lea	ecx, DWORD PTR _prompt_string$89497[ebp]
	push	OFFSET ??_C@_0BB@MMHOCNOI@Subcommand?$CI?$CFd?$CJ?3?5?$AA@
	push	ecx
	call	_sprintf
	add	esp, 12					; 0000000cH

; 285  :         pmpt = prompt_string;

	lea	ecx, DWORD PTR _prompt_string$89497[ebp]
$LN1966@eval:

; 286  :       }
; 287  :       PUSH_TRACE;

	mov	eax, DWORD PTR _eval_stack_trace_spot
	cmp	eax, 100				; 00000064H
	jl	SHORT $LN1965@eval
	xor	eax, eax
$LN1965@eval:
	mov	edx, DWORD PTR _node$[ebp]
	mov	DWORD PTR _eval_stack_trace[eax*4], edx

; 288  :       /* command read and execute loop */
; 289  :       exec_commands(NULL,pmpt);

	push	ecx
	inc	eax
	push	0
	mov	DWORD PTR _eval_stack_trace_spot, eax
	call	_exec_commands

; 290  :       subshell_depth--;
; 291  :       eval_stack_trace_spot = old_trace_spot;

	mov	eax, DWORD PTR _old_trace_spot$89499[ebp]
	add	esp, 8
	dec	DWORD PTR _subshell_depth
	mov	DWORD PTR _eval_stack_trace_spot, eax

; 292  :       break;

	jmp	$LN1980@eval
$LN1964@eval:

; 293  :     }
; 294  : 
; 295  :       case SET_BREAKPOINT_NODE:
; 296  :     { int breakline = (int)(*stacktop--);

	mov	esi, DWORD PTR [ebx+48]
	fld	QWORD PTR [esi]
	call	__ftol2_sse
	add	esi, -8					; fffffff8H
	mov	DWORD PTR [ebx+48], esi

; 297  :       struct expnode *proc;
; 298  :       struct treenode *nodespot;
; 299  :       int found = 0;
; 300  :       /* now set flag bit in first node on line */
; 301  :       proc =  &(globals(node->op1.name_id)->value.proc); 

	mov	ecx, DWORD PTR _node$[ebp]
	mov	edx, DWORD PTR [ecx+32]
	mov	edi, edx
	and	edi, -16777216				; ff000000H
	cmp	edi, 268435456				; 10000000H
	je	SHORT $LN1999@eval
	cmp	edi, 805306368				; 30000000H
	jne	SHORT $LN2001@eval
	mov	ecx, DWORD PTR _localbase$[ebp]
	and	edx, 16777215				; 00ffffffH
	mov	esi, edx
	imul	esi, 224				; 000000e0H
	add	esi, DWORD PTR [ecx]
	jmp	SHORT $LN2000@eval
$LN2001@eval:
	cmp	edi, 536870912				; 20000000H
	jne	SHORT $LN1999@eval
	mov	ecx, DWORD PTR _web+5656
	and	edx, 16777215				; 00ffffffH
	mov	esi, DWORD PTR [ecx+edx*4]
	jmp	SHORT $LN2000@eval
$LN1999@eval:
	mov	ecx, DWORD PTR _web+5652
	mov	esi, DWORD PTR _dymem
	and	edx, 16777215				; 00ffffffH
	lea	ecx, DWORD PTR [ecx+edx*4]
	mov	esi, DWORD PTR [ecx+esi]
$LN2000@eval:

; 302  :       for ( nodespot = proc->start+1 ; nodespot != proc->root ; nodespot++ )

	mov	ecx, DWORD PTR [esi+64]
	mov	esi, DWORD PTR [esi+68]
	add	ecx, 168				; 000000a8H
	cmp	ecx, esi
	je	SHORT $LN1961@eval
$LL1963@eval:

; 303  :         if ( nodespot->line_no == breakline )

	cmp	DWORD PTR [ecx+12], eax
	je	SHORT $LN2609@eval

; 302  :       for ( nodespot = proc->start+1 ; nodespot != proc->root ; nodespot++ )

	add	ecx, 168				; 000000a8H
	cmp	ecx, esi
	jne	SHORT $LL1963@eval
$LN1961@eval:

; 313  :       { sprintf(msg,"Cannot find instruction on line %d of \"%s\".\n",
; 314  :            breakline,globals(node->op1.name_id)->name);

	cmp	edi, 268435456				; 10000000H
	je	SHORT $LN2005@eval
	cmp	edi, 805306368				; 30000000H
	jne	SHORT $LN2007@eval
	mov	ecx, DWORD PTR _localbase$[ebp]
	imul	edx, 224				; 000000e0H
	add	edx, DWORD PTR [ecx]
	jmp	SHORT $LN2006@eval
$LN2609@eval:

; 304  :         { nodespot->flags |= BREAKPOINT_NODE;

	or	DWORD PTR [ecx+24], 4096		; 00001000H

; 305  :           /* record for unset */
; 306  :           breaklist[breakcount].name_id = node->op1.name_id;

	mov	ecx, DWORD PTR _breakcount
	mov	edx, DWORD PTR _node$[ebp]
	mov	edx, DWORD PTR [edx+32]
	mov	DWORD PTR _breaklist[ecx*8], edx

; 307  :           breaklist[breakcount].line = breakline;

	mov	DWORD PTR _breaklist[ecx*8+4], eax

; 308  :           breakcount++;

	inc	ecx
	mov	DWORD PTR _breakcount, ecx

; 309  :           found = 1;
; 310  :           break;
; 311  :         }
; 312  :       if ( !found )

	jmp	$LN1980@eval
$LN2007@eval:

; 313  :       { sprintf(msg,"Cannot find instruction on line %d of \"%s\".\n",
; 314  :            breakline,globals(node->op1.name_id)->name);

	cmp	edi, 536870912				; 20000000H
	jne	SHORT $LN2005@eval
	mov	ecx, DWORD PTR _web+5656
	mov	edx, DWORD PTR [ecx+edx*4]
	jmp	SHORT $LN2006@eval
$LN2005@eval:
	mov	ecx, DWORD PTR _web+5652
	lea	edx, DWORD PTR [ecx+edx*4]
	mov	ecx, DWORD PTR _dymem
	mov	edx, DWORD PTR [edx+ecx]
$LN2006@eval:
	push	edx
	mov	edx, DWORD PTR _msg
	push	eax
	push	OFFSET ??_C@_0CN@JMDJOALI@Cannot?5find?5instruction?5on?5line?5@
	push	edx
	call	_sprintf

; 315  :         outstring(msg);

	mov	eax, DWORD PTR _msg
	push	eax
	call	_outstring
	add	esp, 20					; 00000014H

; 316  :       }
; 317  :       break;

	jmp	$LN1980@eval
$LN1958@eval:

; 318  :     }
; 319  : 
; 320  :       case UNSET_BREAKPOINT_NODE:
; 321  :     { 
; 322  :       struct expnode *proc;
; 323  :       struct treenode *nodespot;
; 324  : 
; 325  :       if ( node->left ) /* particular */

	mov	ecx, DWORD PTR _node$[ebp]
	cmp	DWORD PTR [ecx+4], 0
	je	$LN1957@eval

; 326  :       {
; 327  :         int breakline = (int)(*stacktop--);

	mov	esi, DWORD PTR [ebx+48]
	fld	QWORD PTR [esi]
	call	__ftol2_sse
	add	esi, -8					; fffffff8H
	mov	DWORD PTR [ebx+48], esi

; 328  :         /* unmark breakpoint node */
; 329  :         proc =  &(globals(node->op1.name_id)->value.proc);  

	mov	edx, DWORD PTR _node$[ebp]
	mov	ecx, DWORD PTR [edx+32]
	mov	esi, DWORD PTR _dymem
	mov	edi, DWORD PTR _web+5652
	mov	edx, ecx
	and	edx, -16777216				; ff000000H
	mov	DWORD PTR _breakline$89528[ebp], eax
	cmp	edx, 268435456				; 10000000H
	je	SHORT $LN2011@eval
	cmp	edx, 805306368				; 30000000H
	jne	SHORT $LN2013@eval
	mov	edx, DWORD PTR _localbase$[ebp]
	and	ecx, 16777215				; 00ffffffH
	imul	ecx, 224				; 000000e0H
	add	ecx, DWORD PTR [edx]
	jmp	SHORT $LN2012@eval
$LN2013@eval:
	cmp	edx, 536870912				; 20000000H
	jne	SHORT $LN2011@eval
	mov	edx, DWORD PTR _web+5656
	and	ecx, 16777215				; 00ffffffH
	mov	ecx, DWORD PTR [edx+ecx*4]
	jmp	SHORT $LN2012@eval
$LN2011@eval:
	and	ecx, 16777215				; 00ffffffH
	lea	ecx, DWORD PTR [edi+ecx*4]
	mov	ecx, DWORD PTR [ecx+esi]
$LN2012@eval:

; 330  :         for ( nodespot = proc->start ; nodespot != proc->root ; nodespot++ )

	mov	edx, DWORD PTR [ecx+64]
	cmp	edx, DWORD PTR [ecx+68]
	je	SHORT $LN1954@eval
	mov	esi, -4097				; ffffefffH
	npad	3
$LL1956@eval:

; 331  :           if ( nodespot->line_no == breakline )

	cmp	DWORD PTR [edx+12], eax
	jne	SHORT $LN1955@eval

; 332  :             nodespot->flags &= ~BREAKPOINT_NODE;

	and	DWORD PTR [edx+24], esi
$LN1955@eval:

; 330  :         for ( nodespot = proc->start ; nodespot != proc->root ; nodespot++ )

	add	edx, 168				; 000000a8H
	cmp	edx, DWORD PTR [ecx+68]
	jne	SHORT $LL1956@eval
$LN1954@eval:

; 333  :         /* remove from breakpoint list */
; 334  :         for ( i = 0 ; i < breakcount ; i++ )

	mov	edx, DWORD PTR _breakcount
	xor	esi, esi
	test	edx, edx
	jle	$LN1980@eval
	mov	ecx, OFFSET _breaklist
	npad	8
$LL1952@eval:

; 335  :           if ( (breaklist[i].name_id == node->op1.name_id) &&
; 336  :                 (breaklist[i].line == breakline) )

	mov	eax, DWORD PTR [ecx]
	mov	edi, DWORD PTR _node$[ebp]
	cmp	eax, DWORD PTR [edi+32]
	jne	SHORT $LN1951@eval
	mov	eax, DWORD PTR _breakline$89528[ebp]
	cmp	DWORD PTR [ecx+4], eax
	jne	SHORT $LN1951@eval

; 337  :           { breaklist[i] = breaklist[--breakcount];

	mov	eax, DWORD PTR _breaklist[edx*8-8]
	dec	edx
	mov	DWORD PTR [ecx], eax
	mov	eax, DWORD PTR _breaklist[edx*8+4]
	mov	DWORD PTR _breakcount, edx
	mov	DWORD PTR [ecx+4], eax
$LN1951@eval:

; 333  :         /* remove from breakpoint list */
; 334  :         for ( i = 0 ; i < breakcount ; i++ )

	inc	esi
	add	ecx, 8
	cmp	esi, edx
	jl	SHORT $LL1952@eval

; 338  :           }
; 339  :       }
; 340  :       else /* all */

	jmp	$LN1980@eval
$LN1957@eval:

; 341  :       {
; 342  :         for ( i = 0 ; i < breakcount ; i++ )

	xor	edi, edi
	cmp	DWORD PTR _breakcount, edi
	jle	$LN1945@eval
	mov	esi, DWORD PTR _web+5652
	mov	edx, DWORD PTR _dymem
	npad	7
$LL1947@eval:

; 343  :         { proc =  &(globals(breaklist[i].name_id)->value.proc); 

	mov	eax, DWORD PTR _breaklist[edi*8]
	mov	ecx, eax
	and	ecx, -16777216				; ff000000H
	and	eax, 16777215				; 00ffffffH
	cmp	ecx, 268435456				; 10000000H
	jne	SHORT $LN2021@eval
	lea	ecx, DWORD PTR [esi+eax*4]
	mov	eax, DWORD PTR [ecx+edx]
	jmp	SHORT $LN2018@eval
$LN2021@eval:
	cmp	ecx, 805306368				; 30000000H
	jne	SHORT $LN2019@eval
	mov	ecx, DWORD PTR _localbase$[ebp]
	imul	eax, 224				; 000000e0H
	add	eax, DWORD PTR [ecx]
	jmp	SHORT $LN2018@eval
$LN2019@eval:
	cmp	ecx, 536870912				; 20000000H
	jne	SHORT $LN2017@eval
	mov	ecx, DWORD PTR _web+5656
	mov	eax, DWORD PTR [ecx+eax*4]
	jmp	SHORT $LN2018@eval
$LN2017@eval:
	lea	eax, DWORD PTR [esi+eax*4]
	mov	eax, DWORD PTR [eax+edx]
$LN2018@eval:

; 344  :           for ( nodespot = proc->start ; nodespot != proc->root ; nodespot++ )

	mov	ecx, DWORD PTR [eax+64]
	cmp	ecx, DWORD PTR [eax+68]
	je	SHORT $LN1946@eval
	mov	edx, -4097				; ffffefffH
$LL1944@eval:

; 345  :             nodespot->flags &= ~BREAKPOINT_NODE;

	and	DWORD PTR [ecx+24], edx
	add	ecx, 168				; 000000a8H
	cmp	ecx, DWORD PTR [eax+68]
	jne	SHORT $LL1944@eval

; 344  :           for ( nodespot = proc->start ; nodespot != proc->root ; nodespot++ )

	mov	edx, DWORD PTR _dymem
	mov	esi, DWORD PTR _web+5652
$LN1946@eval:

; 341  :       {
; 342  :         for ( i = 0 ; i < breakcount ; i++ )

	inc	edi
	cmp	edi, DWORD PTR _breakcount
	jl	$LL1947@eval
$LN1945@eval:

; 346  :         }
; 347  :         breakcount = 0;

	mov	DWORD PTR _breakcount, 0

; 348  :       }
; 349  :       break;

	jmp	$LN1980@eval
$LN1941@eval:

; 350  :     }
; 351  : 
; 352  :       case DETORUS_NODE: detorus(); recalc(); break;

	call	_detorus
	call	_recalc
	jmp	$LN1980@eval
$LN1940@eval:

; 353  : 
; 354  :       case WHEREAMI_COMMAND_NODE: /* for use in debugging or subshells */
; 355  :         { struct eval_frame *frame = subshell_frame[subshell_depth];
; 356  :            if ( eval_stack_trace_spot > 0 )

	mov	edi, DWORD PTR _eval_stack_trace_spot
	mov	ecx, DWORD PTR _subshell_depth
	mov	esi, DWORD PTR _subshell_frame[ecx*4]
	test	edi, edi
	jle	SHORT $LN1939@eval

; 357  :            { 
; 358  :              for ( i = eval_stack_trace_spot ; i >= 0 ; i-- )

	js	SHORT $LN1936@eval
$LN1938@eval:

; 359  :              { struct treenode *node = eval_stack_trace[i];

	mov	eax, DWORD PTR _eval_stack_trace[edi*4]

; 360  :                if ( node==NULL ) continue;

	test	eax, eax
	je	SHORT $LN1937@eval

; 361  :                sprintf(errmsg,"File %s, %s:%d\n",
; 362  :                   file_names[node->file_no],frame->base_ex.name,node->line_no);

	mov	edx, DWORD PTR [eax+12]
	push	edx
	mov	edx, DWORD PTR [eax+16]
	mov	eax, DWORD PTR _file_names
	lea	ecx, DWORD PTR [esi+28]
	push	ecx
	mov	ecx, DWORD PTR [eax+edx*4]
	push	ecx
	push	OFFSET ??_C@_0BA@FJFLMGGP@File?5?$CFs?0?5?$CFs?3?$CFd?6?$AA@
	push	OFFSET _errmsg
	call	_sprintf

; 363  :                outstring(errmsg);

	push	OFFSET _errmsg
	call	_outstring

; 364  :                frame = (struct eval_frame*)(newstack + frame->parent_frame_spot);

	mov	edx, DWORD PTR [esi+116]
	mov	eax, DWORD PTR [ebx+40]
	add	esp, 24					; 00000018H
	lea	esi, DWORD PTR [eax+edx*8]
$LN1937@eval:

; 357  :            { 
; 358  :              for ( i = eval_stack_trace_spot ; i >= 0 ; i-- )

	dec	edi
	jns	SHORT $LN1938@eval
$LN1936@eval:

; 365  :              }
; 366  :              outstring("\n");

	push	OFFSET ??_C@_01EEMJAFIK@?6?$AA@
	call	_outstring
	add	esp, 4
$LN1939@eval:

; 367  :           }
; 368  :           frame = subshell_frame[subshell_depth];

	mov	ecx, DWORD PTR _subshell_depth
	mov	esi, DWORD PTR _subshell_frame[ecx*4]

; 369  :           while ( frame )

	test	esi, esi
	je	$LN1980@eval
	npad	7
$LL1934@eval:

; 370  :           { if ( frame->return_node )

	cmp	DWORD PTR [esi+120], 0
	je	SHORT $LN1932@eval

; 371  :                sprintf(msg,"   %s:%d\n",frame->base_ex.name,frame->return_node->line_no);

	mov	edx, DWORD PTR [esi+120]
	mov	eax, DWORD PTR [edx+12]
	mov	edx, DWORD PTR _msg
	push	eax
	lea	ecx, DWORD PTR [esi+28]
	push	ecx
	push	OFFSET ??_C@_09PBNAGJKF@?5?5?5?$CFs?3?$CFd?6?$AA@
	push	edx
	call	_sprintf
	add	esp, 16					; 00000010H

; 372  :             else

	jmp	SHORT $LN1931@eval
$LN1932@eval:

; 373  :                sprintf(msg,"   %s\n",frame->base_ex.name);

	mov	ecx, DWORD PTR _msg
	lea	eax, DWORD PTR [esi+28]
	push	eax
	push	OFFSET ??_C@_06FAPHFCKA@?5?5?5?$CFs?6?$AA@
	push	ecx
	call	_sprintf
	add	esp, 12					; 0000000cH
$LN1931@eval:

; 374  :             outstring(msg);

	mov	edx, DWORD PTR _msg
	push	edx
	call	_outstring
	add	esp, 4

; 375  :             if ( frame->flags & BASE_OF_WHOLE_STACK )

	test	BYTE PTR [esi+124], 4
	jne	$LN1980@eval

; 376  :               frame = NULL;
; 377  :             else
; 378  :               frame = (struct eval_frame*)(newstack + frame->parent_frame_spot);

	mov	eax, DWORD PTR [esi+116]
	mov	ecx, DWORD PTR [ebx+40]
	lea	esi, DWORD PTR [ecx+eax*8]
	test	esi, esi
	jne	SHORT $LL1934@eval

; 379  :           };
; 380  :           break;

	jmp	$LN1980@eval
$LN1928@eval:

; 381  :         }
; 382  : 
; 383  :       case FREE_DISCARDS_NODE:
; 384  :         if ( (node->flags & IN_ELEMENT_LOOP) || 
; 385  :                  ( this_frame->flags & IN_ELEMENT_LOOP ) )

	mov	edx, DWORD PTR _node$[ebp]
	mov	eax, 2048				; 00000800H
	test	DWORD PTR [edx+24], eax
	jne	SHORT $LN1926@eval
	mov	ecx, DWORD PTR [ebx+52]
	mov	edx, DWORD PTR [ebx+40]
	test	DWORD PTR [edx+ecx*8+124], eax
	jne	SHORT $LN1926@eval

; 390  :         }
; 391  :         else
; 392  :           free_discards(DISCARDS_ALL); 

	push	1
	call	_free_discards
	add	esp, 4
	jmp	$LN1980@eval
$LN1926@eval:

; 386  :         { sprintf(errmsg,"free_discards called inside element loop. Ignored.\n");

	push	OFFSET ??_C@_0DE@ODNKLDLP@free_discards?5called?5inside?5elem@
	push	OFFSET _errmsg
	call	_sprintf

; 387  :           sprintf(errmsg+strlen(errmsg),"(source file %s, line %d)\n",
; 388  :                  file_names[node->file_no],node->line_no);

	mov	eax, OFFSET _errmsg
	add	esp, 8
	lea	esi, DWORD PTR [eax+1]
	npad	1
$LL2790@eval:
	mov	cl, BYTE PTR [eax]
	inc	eax
	test	cl, cl
	jne	SHORT $LL2790@eval
	mov	ecx, DWORD PTR _node$[ebp]
	mov	edx, DWORD PTR [ecx+12]
	mov	ecx, DWORD PTR [ecx+16]
	push	edx
	mov	edx, DWORD PTR _file_names
	mov	ecx, DWORD PTR [edx+ecx*4]
	push	ecx
	sub	eax, esi
	lea	edx, DWORD PTR _errmsg[eax]
	push	OFFSET ??_C@_0BL@LMCMICK@?$CIsource?5file?5?$CFs?0?5line?5?$CFd?$CJ?6?$AA@
	push	edx
	call	_sprintf

; 389  :           kb_error(1904,errmsg, WARNING);

	push	2
	push	OFFSET _errmsg
	push	1904					; 00000770H
	call	_kb_error
	add	esp, 28					; 0000001cH

; 393  :         break;

	jmp	$LN1980@eval
$LN1924@eval:

; 394  : 
; 395  :       case SINGLE_LETTER_NODE:
; 396  :           if ( debugging_flag && node->op1.letter == 'n' )  /* special for debugging prompt */

	cmp	DWORD PTR _debugging_flag, 0
	je	SHORT $LN1923@eval
	mov	eax, DWORD PTR _node$[ebp]
	cmp	DWORD PTR [eax+32], 110			; 0000006eH
	je	$LN2625@eval
$LN1923@eval:

; 399  :             goto the_exit;
; 400  :             break;
; 401  :           }
; 402  :           if ( !(node->flags & IN_ELEMENT_LOOP) &&
; 403  :                !(this_frame->flags & IN_ELEMENT_LOOP) )

	mov	ecx, DWORD PTR _node$[ebp]
	test	DWORD PTR [ecx+24], 2048		; 00000800H
	jne	SHORT $LN1922@eval
	mov	edx, DWORD PTR [ebx+52]
	mov	eax, DWORD PTR [ebx+40]
	test	DWORD PTR [eax+edx*8+124], 2048		; 00000800H
	jne	SHORT $LN1922@eval

; 404  :               free_discards(DISCARDS_SOME);

	push	2
	call	_free_discards
	add	esp, 4
$LN1922@eval:

; 405  :           letter_command(node->op1.letter);

	mov	ecx, DWORD PTR _node$[ebp]
	mov	edx, DWORD PTR [ecx+32]
	push	edx
	call	_letter_command
	add	esp, 4

; 406  :           break;

	jmp	$LN1980@eval
$LN1921@eval:

; 407  : 
; 408  : 
; 409  :       case LINEAR_NODE:
; 410  :           if ( web.modeltype == QUADRATIC )

	mov	eax, DWORD PTR _web+628
	cmp	eax, 2
	jne	SHORT $LN1920@eval

; 411  :           { outstring("Changing to LINEAR model. (was QUADRATIC)\n");

	push	OFFSET ??_C@_0CL@FEBBPANL@Changing?5to?5LINEAR?5model?4?5?$CIwas?5Q@
	call	_outstring
	add	esp, 4

; 412  :             quad_to_linear();

	call	_quad_to_linear
	jmp	$LN1980@eval
$LN1920@eval:

; 413  :           }
; 414  :           else if ( web.modeltype == LAGRANGE )

	cmp	eax, 3
	jne	$LN1980@eval

; 415  :           { outstring("Changing to LINEAR model. (was LAGRANGE)\n");

	push	OFFSET ??_C@_0CK@JMIEKNGL@Changing?5to?5LINEAR?5model?4?5?$CIwas?5L@
	call	_outstring
	add	esp, 4

; 416  :             lagrange_to_linear();

	call	_lagrange_to_linear

; 417  :           }
; 418  :           break;

	jmp	$LN1980@eval
$LN1917@eval:

; 419  : 
; 420  :       case QUADRATIC_NODE:
; 421  :           if ( !(node->flags & IN_ELEMENT_LOOP) &&
; 422  :                !(this_frame->flags & IN_ELEMENT_LOOP) )

	mov	ecx, DWORD PTR _node$[ebp]
	mov	eax, 2048				; 00000800H
	test	DWORD PTR [ecx+24], eax
	jne	SHORT $LN1916@eval
	mov	edx, DWORD PTR [ebx+52]
	mov	ecx, DWORD PTR [ebx+40]
	test	DWORD PTR [ecx+edx*8+124], eax
	jne	SHORT $LN1916@eval

; 423  :               free_discards(DISCARDS_SOME);

	push	2
	call	_free_discards
	add	esp, 4
$LN1916@eval:

; 424  :           if ( web.modeltype == LINEAR )

	mov	eax, DWORD PTR _web+628
	cmp	eax, 1
	jne	SHORT $LN1915@eval

; 425  :           { outstring("Changing to QUADRATIC model. (was LINEAR)\n");

	push	OFFSET ??_C@_0CL@IKOBFHOD@Changing?5to?5QUADRATIC?5model?4?5?$CIwa@
	call	_outstring
	add	esp, 4

; 426  :             linear_to_quad(); 

	call	_linear_to_quad
	jmp	$LN1980@eval
$LN1915@eval:

; 427  :           }
; 428  :           else if ( web.modeltype == LAGRANGE )

	cmp	eax, 3
	jne	$LN1980@eval

; 429  :           { outstring("Changing to QUADRATIC model. (was LAGRANGE)\n");

	push	OFFSET ??_C@_0CN@BFEEPGEG@Changing?5to?5QUADRATIC?5model?4?5?$CIwa@
	call	_outstring
	add	esp, 4

; 430  :             lagrange_to_quad();

	call	_lagrange_to_quad

; 431  :           }
; 432  :           break;

	jmp	$LN1980@eval
$LN1912@eval:

; 433  : 
; 434  :       case LAGRANGE_NODE:
; 435  :           if ( !(node->flags & IN_ELEMENT_LOOP) &&
; 436  :                !(this_frame->flags & IN_ELEMENT_LOOP) )

	mov	edx, DWORD PTR _node$[ebp]
	mov	eax, 2048				; 00000800H
	test	DWORD PTR [edx+24], eax
	jne	SHORT $LN1911@eval
	mov	ecx, DWORD PTR [ebx+52]
	mov	edx, DWORD PTR [ebx+40]
	test	DWORD PTR [edx+ecx*8+124], eax
	jne	SHORT $LN1911@eval

; 437  :               free_discards(DISCARDS_SOME);

	push	2
	call	_free_discards
	add	esp, 4
$LN1911@eval:

; 438  :           if ( web.modeltype == LINEAR )

	mov	eax, DWORD PTR _web+628
	cmp	eax, 1
	jne	SHORT $LN1910@eval

; 439  :           { outstring("Changing to LAGRANGE model. (was LINEAR)\n");

	push	OFFSET ??_C@_0CK@JBOLHCFI@Changing?5to?5LAGRANGE?5model?4?5?$CIwas@
	call	_outstring

; 440  :             linear_to_lagrange((int)(*stacktop--)); 

	mov	esi, DWORD PTR [ebx+48]
	fld	QWORD PTR [esi]
	call	__ftol2_sse
	add	esi, -8					; fffffff8H
	push	eax
	mov	DWORD PTR [ebx+48], esi
	call	_linear_to_lagrange
	add	esp, 8
	jmp	$LN1980@eval
$LN1910@eval:

; 441  :           }
; 442  :           else if ( web.modeltype == QUADRATIC )

	cmp	eax, 2
	jne	SHORT $LN1908@eval

; 443  :           { outstring("Changing to LAGRANGE model. (was QUADRATIC)\n");

	push	OFFSET ??_C@_0CN@NAGKEEOG@Changing?5to?5LAGRANGE?5model?4?5?$CIwas@
	call	_outstring

; 444  :             quad_to_lagrange((int)(*stacktop--));

	mov	esi, DWORD PTR [ebx+48]
	fld	QWORD PTR [esi]
	call	__ftol2_sse
	add	esi, -8					; fffffff8H
	push	eax
	mov	DWORD PTR [ebx+48], esi
	call	_quad_to_lagrange
	add	esp, 8

; 445  :           }
; 446  :           else

	jmp	$LN1980@eval
$LN1908@eval:

; 447  :           { sprintf(msg,
; 448  :                        "Changing to LAGRANGE %d model. (was LAGRANGE %d)\n",
; 449  :                            (int)stacktop[0],web.lagrange_order);

	mov	eax, DWORD PTR _web+632
	mov	ecx, DWORD PTR [ebx+48]
	fld	QWORD PTR [ecx]
	push	eax
	call	__ftol2_sse
	mov	edx, DWORD PTR _msg
	push	eax
	push	OFFSET ??_C@_0DC@KLMKCJCH@Changing?5to?5LAGRANGE?5?$CFd?5model?4?5?$CI@
	push	edx
	call	_sprintf

; 450  :             outstring(msg);

	mov	eax, DWORD PTR _msg
	push	eax
	call	_outstring

; 451  :             lagrange_to_lagrange((int)(*stacktop--));

	mov	esi, DWORD PTR [ebx+48]
	fld	QWORD PTR [esi]
	call	__ftol2_sse
	add	esi, -8					; fffffff8H
	push	eax
	mov	DWORD PTR [ebx+48], esi
	call	_lagrange_to_lagrange
	add	esp, 24					; 00000018H

; 452  :           }
; 453  : 
; 454  :           break;

	jmp	$LN1980@eval
$LN1906@eval:

; 455  : 
; 456  :       case ELINDEX_NODE: /* id possibly with mpi task number */
; 457  :          /* creates typeless valid id */
; 458  :          {
; 459  :            if ( *stacktop == 0 )

	mov	ecx, DWORD PTR [ebx+48]
	fld	QWORD PTR [ecx]
	fldz
	fld	ST(0)
	fucomp	ST(2)
	fnstsw	ax
	fstp	ST(1)
	test	ah, 68					; 00000044H
	jp	SHORT $LN1905@eval

; 460  :              id = NULLID;

	xor	eax, eax
	fstp	ST(0)

; 469  :            }
; 470  : #ifdef MPI_EVOLVER
; 471  :          { int task;
; 472  :            if ( node->right )
; 473  :               task = (int)(*stacktop--);
; 474  :            else task = this_task;
; 475  :            if ( task < 0 || task >= mpi_nprocs )
; 476  :            { sprintf(errmsg,
; 477  :                 "Illegal task number %d.  Must be between 1 and %d.\n",task,mpi_nprocs);
; 478  :              sprintf(errmsg+strlen(errmsg),"(source file %s, line %d)\n",
; 479  :                  file_names[node->file_no],node->line_no);
; 480  :              kb_error(1915,errmsg,RECOVERABLE);
; 481  :            }
; 482  :            id |= (element_id)task << TASK_ID_SHIFT;
; 483  :          }
; 484  : #endif
; 485  :           
; 486  :            *(element_id *)stacktop = id;

	mov	DWORD PTR [ecx], eax

; 487  :            break;

	jmp	$LN1980@eval
$LN1905@eval:

; 461  :            else 
; 462  :            { if ( *stacktop > 0.0 )

	fcomp	QWORD PTR [ecx]
	fnstsw	ax

; 463  :              id = ((int)(*stacktop)-1);

	fld	QWORD PTR [ecx]
	test	ah, 5
	jp	SHORT $LN1903@eval
	fnstcw	WORD PTR tv29137[ebp]
	movzx	eax, WORD PTR tv29137[ebp]
	or	eax, 3072				; 00000c00H
	mov	DWORD PTR tv29133[ebp], eax
	fldcw	WORD PTR tv29133[ebp]
	fistp	QWORD PTR tv29131[ebp]
	mov	eax, DWORD PTR tv29131[ebp]
	dec	eax

; 467  :              }
; 468  :              id |= VALIDMASK;

	or	eax, 268435456				; 10000000H

; 469  :            }
; 470  : #ifdef MPI_EVOLVER
; 471  :          { int task;
; 472  :            if ( node->right )
; 473  :               task = (int)(*stacktop--);
; 474  :            else task = this_task;
; 475  :            if ( task < 0 || task >= mpi_nprocs )
; 476  :            { sprintf(errmsg,
; 477  :                 "Illegal task number %d.  Must be between 1 and %d.\n",task,mpi_nprocs);
; 478  :              sprintf(errmsg+strlen(errmsg),"(source file %s, line %d)\n",
; 479  :                  file_names[node->file_no],node->line_no);
; 480  :              kb_error(1915,errmsg,RECOVERABLE);
; 481  :            }
; 482  :            id |= (element_id)task << TASK_ID_SHIFT;
; 483  :          }
; 484  : #endif
; 485  :           
; 486  :            *(element_id *)stacktop = id;

	mov	DWORD PTR [ecx], eax
	fldcw	WORD PTR tv29137[ebp]

; 487  :            break;

	jmp	$LN1980@eval
$LN1903@eval:

; 464  :              else 
; 465  :              { id = -((int)(*stacktop)+1);         
; 466  :                invert(id); 

	fnstcw	WORD PTR tv29127[ebp]
	movzx	eax, WORD PTR tv29127[ebp]
	or	eax, 3072				; 00000c00H
	mov	DWORD PTR tv29124[ebp], eax
	or	eax, -1
	fldcw	WORD PTR tv29124[ebp]
	fistp	QWORD PTR tv29122[ebp]
	mov	edx, DWORD PTR tv29122[ebp]
	sub	eax, edx
	xor	eax, 134217728				; 08000000H

; 467  :              }
; 468  :              id |= VALIDMASK;

	or	eax, 268435456				; 10000000H
	fldcw	WORD PTR tv29127[ebp]

; 469  :            }
; 470  : #ifdef MPI_EVOLVER
; 471  :          { int task;
; 472  :            if ( node->right )
; 473  :               task = (int)(*stacktop--);
; 474  :            else task = this_task;
; 475  :            if ( task < 0 || task >= mpi_nprocs )
; 476  :            { sprintf(errmsg,
; 477  :                 "Illegal task number %d.  Must be between 1 and %d.\n",task,mpi_nprocs);
; 478  :              sprintf(errmsg+strlen(errmsg),"(source file %s, line %d)\n",
; 479  :                  file_names[node->file_no],node->line_no);
; 480  :              kb_error(1915,errmsg,RECOVERABLE);
; 481  :            }
; 482  :            id |= (element_id)task << TASK_ID_SHIFT;
; 483  :          }
; 484  : #endif
; 485  :           
; 486  :            *(element_id *)stacktop = id;

	mov	DWORD PTR [ecx], eax

; 487  :            break;

	jmp	$LN1980@eval
$LN1901@eval:

; 488  :          }
; 489  :  
; 490  :       case PUSH_ELEMENT_ID_NODE:
; 491  :          *(element_id *)(++stacktop) = node->op1.id;

	add	DWORD PTR [ebx+48], 8
	mov	ecx, DWORD PTR _node$[ebp]
	mov	eax, DWORD PTR [ebx+48]
	mov	edx, DWORD PTR [ecx+32]
	mov	DWORD PTR [eax], edx

; 492  :          break;

	jmp	$LN1980@eval
$LN1900@eval:

; 493  : 
; 494  :       case VALID_ELEMENT_NODE:
; 495  :          id = get_full_id(node->op1.eltype,*(element_id*)stacktop);

	mov	eax, DWORD PTR [ebx+48]
	mov	ecx, DWORD PTR [eax]
	mov	edx, DWORD PTR _node$[ebp]
	mov	eax, DWORD PTR [edx+32]
	push	ecx
	push	eax
	call	_get_full_id

; 496  :          *stacktop = valid_element(id) ? 1.0 : 0.0; 

	push	eax
	call	_valid_element
	add	esp, 12					; 0000000cH
	test	eax, eax
	je	SHORT $LN2023@eval
	fld1
	mov	ecx, DWORD PTR [ebx+48]
	fstp	QWORD PTR [ecx]

; 497  :          break;

	jmp	$LN1980@eval
$LN2023@eval:

; 496  :          *stacktop = valid_element(id) ? 1.0 : 0.0; 

	fldz
	mov	ecx, DWORD PTR [ebx+48]
	fstp	QWORD PTR [ecx]

; 497  :          break;

	jmp	$LN1980@eval
$LN1899@eval:

; 498  :  
; 499  :       case VALID_CONSTRAINT_NODE:
; 500  :          { int connum = (int)*stacktop;

	mov	esi, DWORD PTR [ebx+48]
	fld	QWORD PTR [esi]
	call	__ftol2_sse

; 501  :            if ( (connum<0) || (connum>=web.maxcon) || !(get_constraint(connum)->attr & IN_USE))

	test	eax, eax
	js	$LN1897@eval
	cmp	eax, DWORD PTR _web+644
	jge	$LN1897@eval
	mov	edx, DWORD PTR _web+652
	and	eax, 1073741823				; 3fffffffH
	imul	eax, 176				; 000000b0H
	mov	eax, DWORD PTR [eax+edx+32]
$LN4013@eval:
	and	eax, 32					; 00000020H
	xor	ecx, ecx
	or	eax, ecx
	je	$LN1897@eval

; 502  :               *stacktop = 0.0;
; 503  :            else 
; 504  :               *stacktop = 1.0;

	fld1
$LN4014@eval:
	fstp	QWORD PTR [esi]
	jmp	$LN1980@eval
$LN1895@eval:

; 505  :            break;
; 506  :          }
; 507  :  
; 508  :       case VALID_BOUNDARY_NODE:
; 509  :          { int bnum = (int)*stacktop;

	mov	esi, DWORD PTR [ebx+48]
	fld	QWORD PTR [esi]
	call	__ftol2_sse

; 510  :            if ( (bnum<0) || (bnum>=web.bdrymax) || !(web.boundaries[bnum].attr & IN_USE))

	test	eax, eax
	js	$LN1897@eval
	cmp	eax, DWORD PTR _web+768
	jge	$LN1897@eval
	mov	ecx, DWORD PTR _web+776
	imul	eax, 136				; 00000088H
	mov	eax, DWORD PTR [eax+ecx+32]

; 511  :               *stacktop = 0.0;
; 512  :            else 
; 513  :               *stacktop = 1.0;

	jmp	SHORT $LN4013@eval
$LN1891@eval:

; 514  :            break;
; 515  :          }
; 516  : 
; 517  :       case LOAD_NODE:
; 518  :          if ( subshell_depth )

	cmp	DWORD PTR _subshell_depth, 0
	je	$LN1890@eval

; 519  :          { sprintf(errmsg,"Can't reload in a subcommand.\n");

	push	OFFSET ??_C@_0BP@KDKEJCJM@Can?8t?5reload?5in?5a?5subcommand?4?6?$AA@
	push	OFFSET _errmsg
	call	_sprintf

; 520  :            sprintf(errmsg+strlen(errmsg),"(source file %s, line %d)\n",
; 521  :                  file_names[node->file_no],node->line_no);

	mov	eax, OFFSET _errmsg
	add	esp, 8
	lea	esi, DWORD PTR [eax+1]
	npad	7
$LL2791@eval:
	mov	cl, BYTE PTR [eax]
	inc	eax
	test	cl, cl
	jne	SHORT $LL2791@eval
	mov	ecx, DWORD PTR _node$[ebp]
	mov	edx, DWORD PTR [ecx+12]
	mov	ecx, DWORD PTR [ecx+16]
	push	edx
	mov	edx, DWORD PTR _file_names
	mov	ecx, DWORD PTR [edx+ecx*4]
	push	ecx
	sub	eax, esi
	lea	edx, DWORD PTR _errmsg[eax]
	push	OFFSET ??_C@_0BL@LMCMICK@?$CIsource?5file?5?$CFs?0?5line?5?$CFd?$CJ?6?$AA@
	push	edx
	call	_sprintf

; 522  :            kb_error(3634,errmsg,WARNING);

	push	2
	push	OFFSET _errmsg
	push	3634					; 00000e32H
	call	_kb_error
	add	esp, 28					; 0000001cH

; 523  :            stacktop--;

	add	DWORD PTR [ebx+48], -8			; fffffff8H

; 524  :            break;

	jmp	$LN1980@eval
$LN1889@eval:

; 531  : #endif
; 532  :          break;
; 533  : 
; 534  :       case ADDLOAD_NODE:
; 535  :         { FILE *newfd;
; 536  :           int old_read_depth;
; 537  :           char *name = *(char**)(stacktop--);

	mov	eax, DWORD PTR [ebx+48]
	mov	esi, DWORD PTR [eax]
	add	eax, -8					; fffffff8H

; 538  :           newfd = path_open(name,NOTDATAFILENAME);

	push	0
	push	esi
	mov	DWORD PTR [ebx+48], eax
	call	_path_open
	mov	edi, eax
	add	esp, 8

; 539  :           if (newfd == NULL)

	test	edi, edi
	jne	SHORT $LN1888@eval

; 540  :           { if ( name[0] )

	cmp	BYTE PTR [esi], al
	je	$LN1980@eval

; 541  :             {
; 542  :               sprintf(errmsg,"Cannot open datafile %s.\n",name);

	push	esi
	push	OFFSET ??_C@_0BK@OMAPGNOH@Cannot?5open?5datafile?5?$CFs?4?6?$AA@
	push	OFFSET _errmsg
	call	_sprintf

; 543  :               sprintf(errmsg+strlen(errmsg),"(source file %s, line %d)\n",
; 544  :                  file_names[node->file_no],node->line_no);

	mov	eax, OFFSET _errmsg
	add	esp, 12					; 0000000cH
	lea	esi, DWORD PTR [eax+1]
	npad	3
$LL2792@eval:
	mov	cl, BYTE PTR [eax]
	inc	eax
	test	cl, cl
	jne	SHORT $LL2792@eval
	mov	ecx, DWORD PTR _node$[ebp]
	mov	edx, DWORD PTR [ecx+12]
	mov	ecx, DWORD PTR [ecx+16]
	push	edx
	mov	edx, DWORD PTR _file_names
	mov	ecx, DWORD PTR [edx+ecx*4]
	push	ecx
	sub	eax, esi
	lea	edx, DWORD PTR _errmsg[eax]
	push	OFFSET ??_C@_0BL@LMCMICK@?$CIsource?5file?5?$CFs?0?5line?5?$CFd?$CJ?6?$AA@
	push	edx
	call	_sprintf

; 545  :               kb_error(5431,errmsg,RECOVERABLE);

	push	1
	push	OFFSET _errmsg
	push	5431					; 00001537H
	call	_kb_error
	add	esp, 28					; 0000001cH

; 546  :             }
; 547  :             break; /* continue with old */

	jmp	$LN1980@eval
$LN1888@eval:

; 548  :           }
; 549  : 
; 550  : 
; 551  :           ENTER_GRAPH_MUTEX;

	call	DWORD PTR __imp__GetCurrentThreadId@0
	cmp	DWORD PTR _locking_thread, eax
	je	SHORT $LN1886@eval
	push	0
	push	100000					; 000186a0H
	push	0
	push	OFFSET _graphmutex
	push	1
	call	DWORD PTR __imp__MsgWaitForMultipleObjects@20
	call	DWORD PTR __imp__GetCurrentThreadId@0
	mov	DWORD PTR _locking_thread, eax
	mov	DWORD PTR _did_graphlock_here$89651[ebp], 1
	jmp	SHORT $LN1885@eval
$LN1886@eval:
	mov	DWORD PTR _did_graphlock_here$89651[ebp], 0
$LN1885@eval:

; 552  : 
; 553  :           push_commandfd(newfd,name); /* start #include stack */

	push	esi
	push	edi
	call	_push_commandfd

; 554  :           datafile_flag = 1;  /* so parser knows */
; 555  :           addload_flag = 1;
; 556  :           datafile_input_flag = 1;  /* so lex input knows */
; 557  :           cmdptr = 0;
; 558  :           old_read_depth = read_depth;

	mov	esi, DWORD PTR _read_depth
	mov	eax, 1
	add	esp, 8
	mov	DWORD PTR _datafile_flag, eax
	mov	DWORD PTR _addload_flag, eax
	mov	DWORD PTR _datafile_input_flag, eax
	mov	DWORD PTR _cmdptr, 0

; 559  :           initialize();

	call	_initialize

; 560  :           if ( read_depth >= old_read_depth )

	cmp	DWORD PTR _read_depth, esi
	jl	SHORT $LN1884@eval

; 561  :             pop_commandfd();

	call	_pop_commandfd
$LN1884@eval:

; 562  :           datafile_flag = 0;
; 563  :           addload_flag = 0;
; 564  :           if ( fabs(view[0][0])+fabs(view[1][1])+fabs(view[2][2]) < 1e-25 )

	mov	eax, DWORD PTR _view
	xor	esi, esi
	mov	DWORD PTR _datafile_flag, esi
	mov	DWORD PTR _addload_flag, esi
	mov	ecx, DWORD PTR [eax+4]
	mov	edx, DWORD PTR [eax]
	fld	QWORD PTR [ecx+8]
	mov	eax, DWORD PTR [eax+8]
	fabs
	fld	QWORD PTR [edx]
	fabs
	faddp	ST(1), ST(0)
	fld	QWORD PTR [eax+16]
	fabs
	faddp	ST(1), ST(0)
	fcomp	QWORD PTR __real@3abef2d0f5da7dd9
	fnstsw	ax
	test	ah, 5
	jp	SHORT $LN1883@eval

; 565  :             resize();

	call	_resize
$LN1883@eval:

; 566  :   
; 567  :           LEAVE_GRAPH_MUTEX;

	cmp	DWORD PTR _did_graphlock_here$89651[ebp], esi
$LN4016@eval:
	je	SHORT $LN1882@eval
	mov	ecx, DWORD PTR _graphmutex
	push	ecx
	mov	DWORD PTR _locking_thread, esi
	call	DWORD PTR __imp__ReleaseMutex@4
$LN1882@eval:

; 568  :           recalc();

	call	_recalc

; 569  :           break;

	jmp	$LN1980@eval
$LN1881@eval:

; 570  :        }
; 571  : 
; 572  :       case REPLACE_LOAD_NODE:
; 573  :         { FILE *newfd;
; 574  :           int old_read_depth;
; 575  :           char *name = *(char**)(stacktop--);

	mov	eax, DWORD PTR [ebx+48]
	mov	esi, DWORD PTR [eax]
	add	eax, -8					; fffffff8H

; 576  : 
; 577  :           newfd = path_open(name,NOTDATAFILENAME);

	push	0
	push	esi
	mov	DWORD PTR [ebx+48], eax
	call	_path_open
	mov	edi, eax
	add	esp, 8

; 578  :           if (newfd == NULL)

	test	edi, edi
	jne	SHORT $LN1880@eval

; 579  :           { if ( name[0] )

	cmp	BYTE PTR [esi], al
	je	$LN1980@eval

; 580  :             {
; 581  :               sprintf(errmsg,"Cannot open datafile %s.\n",name);

	push	esi
	push	OFFSET ??_C@_0BK@OMAPGNOH@Cannot?5open?5datafile?5?$CFs?4?6?$AA@
	push	OFFSET _errmsg
	call	_sprintf

; 582  :               sprintf(errmsg+strlen(errmsg),"(source file %s, line %d)\n",
; 583  :                  file_names[node->file_no],node->line_no);

	mov	eax, OFFSET _errmsg
	add	esp, 12					; 0000000cH
	lea	esi, DWORD PTR [eax+1]
$LL2793@eval:
	mov	cl, BYTE PTR [eax]
	inc	eax
	test	cl, cl
	jne	SHORT $LL2793@eval
	mov	ecx, DWORD PTR _node$[ebp]
	mov	edx, DWORD PTR [ecx+12]
	mov	ecx, DWORD PTR [ecx+16]
	push	edx
	mov	edx, DWORD PTR _file_names
	mov	ecx, DWORD PTR [edx+ecx*4]
	push	ecx
	sub	eax, esi
	lea	edx, DWORD PTR _errmsg[eax]
	push	OFFSET ??_C@_0BL@LMCMICK@?$CIsource?5file?5?$CFs?0?5line?5?$CFd?$CJ?6?$AA@
	push	edx
	call	_sprintf

; 584  :               kb_error(5432,errmsg,RECOVERABLE);

	push	1
	push	OFFSET _errmsg
	push	5432					; 00001538H
	call	_kb_error
	add	esp, 28					; 0000001cH

; 585  :             }
; 586  :             break; /* continue with old */

	jmp	$LN1980@eval
$LN1880@eval:

; 587  :           }
; 588  : 
; 589  : 
; 590  :           ENTER_GRAPH_MUTEX;

	call	DWORD PTR __imp__GetCurrentThreadId@0
	cmp	DWORD PTR _locking_thread, eax
	je	SHORT $LN1878@eval
	push	0
	push	100000					; 000186a0H
	push	0
	push	OFFSET _graphmutex
	push	1
	call	DWORD PTR __imp__MsgWaitForMultipleObjects@20
	call	DWORD PTR __imp__GetCurrentThreadId@0
	mov	DWORD PTR _locking_thread, eax
	mov	DWORD PTR _did_graphlock_here$89665[ebp], 1
	jmp	SHORT $LN1877@eval
$LN1878@eval:
	mov	DWORD PTR _did_graphlock_here$89665[ebp], 0
$LN1877@eval:

; 591  : 
; 592  :           free_element_lists();

	call	_free_element_lists

; 593  : #ifdef HHHH
; 594  :         { body_id b_id;
; 595  :           facet_id f_id;
; 596  :           edge_id e_id;
; 597  :           vertex_id v_id;
; 598  : 
; 599  :           // Dissolve current surface
; 600  :           FOR_ALL_BODIES(b_id) dissolve_body(b_id);
; 601  :           FOR_ALL_FACETS(f_id) dissolve_facet(f_id);
; 602  :           FOR_ALL_EDGES(e_id)  dissolve_edge(e_id);
; 603  :           FOR_ALL_VERTICES(v_id) dissolve_vertex(v_id);
; 604  :           free_discards(DISCARDS_ALL);
; 605  :         }
; 606  : #endif
; 607  :           // Now proceed as in addload
; 608  : 
; 609  :           push_commandfd(newfd,name); /* start #include stack */

	push	esi
	push	edi
	call	_push_commandfd

; 610  :           datafile_flag = 1;  /* so parser knows */
; 611  :           addload_flag = 1;
; 612  :           replace_load_flag = 1;
; 613  :           datafile_input_flag = 1;  /* so lex input knows */
; 614  :           cmdptr = 0;
; 615  :           old_read_depth = read_depth;

	mov	esi, DWORD PTR _read_depth
	mov	eax, 1
	add	esp, 8
	mov	DWORD PTR _datafile_flag, eax
	mov	DWORD PTR _addload_flag, eax
	mov	DWORD PTR _replace_load_flag, eax
	mov	DWORD PTR _datafile_input_flag, eax
	mov	DWORD PTR _cmdptr, 0

; 616  :           initialize();

	call	_initialize

; 617  :           if ( read_depth >= old_read_depth )

	cmp	DWORD PTR _read_depth, esi
	jl	SHORT $LN1876@eval

; 618  :             pop_commandfd();

	call	_pop_commandfd
$LN1876@eval:

; 619  :           datafile_flag = 0;
; 620  :           addload_flag = 0;
; 621  :           replace_load_flag = 0;
; 622  :           if ( fabs(view[0][0])+fabs(view[1][1])+fabs(view[2][2]) < 1e-25 )

	mov	eax, DWORD PTR _view
	xor	esi, esi
	mov	DWORD PTR _datafile_flag, esi
	mov	DWORD PTR _addload_flag, esi
	mov	DWORD PTR _replace_load_flag, esi
	mov	ecx, DWORD PTR [eax+4]
	mov	edx, DWORD PTR [eax]
	fld	QWORD PTR [ecx+8]
	mov	eax, DWORD PTR [eax+8]
	fabs
	fld	QWORD PTR [edx]
	fabs
	faddp	ST(1), ST(0)
	fld	QWORD PTR [eax+16]
	fabs
	faddp	ST(1), ST(0)
	fcomp	QWORD PTR __real@3abef2d0f5da7dd9
	fnstsw	ax
	test	ah, 5
	jp	SHORT $LN1875@eval

; 623  :             resize();

	call	_resize
$LN1875@eval:

; 624  :   
; 625  :           LEAVE_GRAPH_MUTEX;

	cmp	DWORD PTR _did_graphlock_here$89665[ebp], esi

; 626  :           recalc();
; 627  :           break;

	jmp	$LN4016@eval
$LN1873@eval:

; 628  :        }
; 629  : 
; 630  :       case PERMLOAD_NODE:  /* keep going with same command */
; 631  :              /* with contortions to preserve current list */
; 632  :        { struct expnode keeplist;
; 633  :          struct eval_frame *fr;
; 634  :          size_t spot;
; 635  :          if ( subshell_depth )

	cmp	DWORD PTR _subshell_depth, 0
	je	SHORT $LN1872@eval

; 636  :          { sprintf(errmsg,"Can't reload in a subcommand.\n");

	push	OFFSET ??_C@_0BP@KDKEJCJM@Can?8t?5reload?5in?5a?5subcommand?4?6?$AA@
	push	OFFSET _errmsg
	call	_sprintf

; 637  :            sprintf(errmsg+strlen(errmsg),"(source file %s, line %d)\n",
; 638  :                  file_names[node->file_no],node->line_no);

	mov	eax, OFFSET _errmsg
	add	esp, 8
	lea	esi, DWORD PTR [eax+1]
	npad	2
$LL2794@eval:
	mov	cl, BYTE PTR [eax]
	inc	eax
	test	cl, cl
	jne	SHORT $LL2794@eval
	mov	ecx, DWORD PTR _node$[ebp]
	mov	edx, DWORD PTR [ecx+12]
	mov	ecx, DWORD PTR [ecx+16]
	push	edx
	mov	edx, DWORD PTR _file_names
	mov	ecx, DWORD PTR [edx+ecx*4]
	push	ecx
	sub	eax, esi
	lea	edx, DWORD PTR _errmsg[eax]
	push	OFFSET ??_C@_0BL@LMCMICK@?$CIsource?5file?5?$CFs?0?5line?5?$CFd?$CJ?6?$AA@
	push	edx
	call	_sprintf

; 639  :            kb_error(3635,errmsg,WARNING);

	push	2
	push	OFFSET _errmsg
	push	3635					; 00000e33H
	call	_kb_error
	add	esp, 28					; 0000001cH

; 640  :            stacktop--;

	add	DWORD PTR [ebx+48], -8			; fffffff8H

; 641  :            break;

	jmp	$LN1980@eval
$LN1872@eval:

; 642  : 
; 643  :          }
; 644  : 
; 645  :          /* make sure all parent frames permanent (except very first frame
; 646  :             corresponding to original user command */
; 647  :          for ( fr = this_frame; fr != NULL ; 
; 648  :             fr = (struct eval_frame*)(newstack + fr->parent_frame_spot) )

	mov	eax, DWORD PTR [ebx+52]
	mov	ecx, DWORD PTR [ebx+40]
	lea	eax, DWORD PTR [ecx+eax*8]
	mov	DWORD PTR _fr$89673[ebp], eax
	test	eax, eax
	je	$LN2610@eval
$LL1871@eval:

; 649  :          { if ( !(fr->flags & BASE_OF_WHOLE_STACK) && !(fr->base_ex.start->flags & PERMNODE) )

	test	BYTE PTR [eax+124], 4
	jne	$LN2610@eval
	mov	edx, DWORD PTR [eax+8]
	test	BYTE PTR [edx+24], -128			; ffffff80H
	jne	SHORT $LN1868@eval

; 650  :            { strcpy(errmsg, "Calling permload in non-permanent command.\n");

	mov	ecx, 11					; 0000000bH
	mov	esi, OFFSET ??_C@_0CM@NLOJJBMG@Calling?5permload?5in?5non?9permanen@
	mov	edi, OFFSET _errmsg

; 651  :              sprintf(errmsg+strlen(errmsg),"(source file %s, line %d)\n",
; 652  :                  file_names[node->file_no],node->line_no);

	mov	eax, OFFSET _errmsg
	rep movsd
	lea	edx, DWORD PTR [eax+1]
$LL2795@eval:
	mov	cl, BYTE PTR [eax]
	inc	eax
	test	cl, cl
	jne	SHORT $LL2795@eval
	mov	ecx, DWORD PTR _node$[ebp]
	sub	eax, edx
	mov	edx, DWORD PTR [ecx+12]
	mov	ecx, DWORD PTR [ecx+16]
	push	edx
	mov	edx, DWORD PTR _file_names
	mov	ecx, DWORD PTR [edx+ecx*4]
	push	ecx
	lea	edx, DWORD PTR _errmsg[eax]
	push	OFFSET ??_C@_0BL@LMCMICK@?$CIsource?5file?5?$CFs?0?5line?5?$CFd?$CJ?6?$AA@
	push	edx
	call	_sprintf

; 653  :              kb_error(3364,errmsg, RECOVERABLE);

	push	1
	push	OFFSET _errmsg
	push	3364					; 00000d24H
	call	_kb_error
	mov	eax, DWORD PTR _fr$89673[ebp]
	add	esp, 28					; 0000001cH
$LN1868@eval:

; 654  :            }
; 655  :            if ( fr->flags & BASE_OF_WHOLE_STACK ) break; 

	test	BYTE PTR [eax+124], 4
	jne	SHORT $LN2610@eval

; 642  : 
; 643  :          }
; 644  : 
; 645  :          /* make sure all parent frames permanent (except very first frame
; 646  :             corresponding to original user command */
; 647  :          for ( fr = this_frame; fr != NULL ; 
; 648  :             fr = (struct eval_frame*)(newstack + fr->parent_frame_spot) )

	mov	eax, DWORD PTR [eax+116]
	mov	ecx, DWORD PTR [ebx+40]
	lea	eax, DWORD PTR [ecx+eax*8]
	mov	DWORD PTR _fr$89673[ebp], eax
	test	eax, eax
	jne	$LL1871@eval
$LN2610@eval:

; 656  :          }
; 657  :          if ( !(fr->base_ex.start->flags & PERMNODE) )

	mov	edx, DWORD PTR [eax+8]
	test	BYTE PTR [edx+24], -128			; ffffff80H
	lea	edi, DWORD PTR [eax+8]
	jne	SHORT $LN1866@eval

; 658  :          { /* have to kludge to preserve current command list */
; 659  :            memset(&keeplist,0,sizeof(keeplist));

	push	104					; 00000068H
	lea	eax, DWORD PTR _keeplist$89672[ebp]
	push	0
	push	eax
	call	_memset

; 660  :            perm_tree_copy(&keeplist,fr->base_ex.root);

	mov	esi, DWORD PTR _fr$89673[ebp]
	mov	ecx, DWORD PTR [esi+12]
	push	ecx
	lea	edx, DWORD PTR _keeplist$89672[ebp]
	push	edx
	call	_perm_tree_copy

; 661  :            spot = (*(fr->basenode) - (fr->base_ex.start));

	mov	esi, DWORD PTR [esi]
	mov	ecx, DWORD PTR [esi]
	sub	ecx, DWORD PTR [edi]
	mov	eax, 818089009				; 30c30c31H
	imul	ecx
	sar	edx, 5
	mov	eax, edx
	shr	eax, 31					; 0000001fH
	add	eax, edx

; 662  :            *(fr->basenode) = keeplist.start + spot; 

	imul	eax, 168				; 000000a8H
	add	eax, DWORD PTR _keeplist$89672[ebp]

; 663  :            memset(&(fr->base_ex),0,sizeof(struct expnode)); /* so doesn't do free_expr()later */        

	push	104					; 00000068H
	push	0
	push	edi
	mov	DWORD PTR [esi], eax
	call	_memset

; 664  :            fr->base_ex = keeplist;

	mov	ecx, 26					; 0000001aH
	lea	esi, DWORD PTR _keeplist$89672[ebp]
	add	esp, 32					; 00000020H
	rep movsd
$LN1866@eval:

; 665  :          }
; 666  :          strncpy(loadfilename,*(char**)(stacktop--),sizeof(loadfilename));

	mov	eax, DWORD PTR [ebx+48]
	mov	ecx, DWORD PTR [eax]
	push	1000					; 000003e8H
	push	ecx
	add	eax, -8					; fffffff8H
	push	OFFSET _loadfilename
	mov	DWORD PTR [ebx+48], eax
	call	_strncpy

; 667  :          startup(loadfilename);

	push	OFFSET _loadfilename
	call	_startup

; 668  :          exec_commands(commandfd,"Enter command: "); /* from end of datafile */

	mov	eax, DWORD PTR _commandfd
	push	OFFSET ??_C@_0BA@LDMPFPFF@Enter?5command?3?5?$AA@
	push	eax
	call	_exec_commands
	add	esp, 24					; 00000018H

; 669  :          /* keeplist permanently allocated, but we'll live with memory leak
; 670  :             as price for not doing shenanigans every eval() just to avoid leak. */
; 671  :        }
; 672  :        break;

	jmp	$LN1980@eval
$LN1865@eval:

; 673  : 
; 674  :       case FUNCTION_CALL_NODE:
; 675  :         { struct global *g = globals(node->op1.name_id);

	mov	ecx, DWORD PTR _node$[ebp]
	mov	eax, DWORD PTR [ecx+32]
	mov	ecx, eax
	and	ecx, -16777216				; ff000000H
	cmp	ecx, 268435456				; 10000000H
	je	SHORT $LN2025@eval
	cmp	ecx, 805306368				; 30000000H
	jne	SHORT $LN2027@eval
	mov	edx, DWORD PTR _localbase$[ebp]
	and	eax, 16777215				; 00ffffffH
	imul	eax, 224				; 000000e0H
	add	eax, DWORD PTR [edx]
	mov	edi, eax
	jmp	SHORT $LN2026@eval
$LN2027@eval:
	cmp	ecx, 536870912				; 20000000H
	jne	SHORT $LN2025@eval
	mov	ecx, DWORD PTR _web+5656
	and	eax, 16777215				; 00ffffffH
	mov	edi, DWORD PTR [ecx+eax*4]
	jmp	SHORT $LN2026@eval
$LN2025@eval:
	mov	edx, DWORD PTR _web+5652
	mov	ecx, DWORD PTR _dymem
	and	eax, 16777215				; 00ffffffH
	lea	eax, DWORD PTR [edx+eax*4]
	mov	edi, DWORD PTR [eax+ecx]
$LN2026@eval:

; 676  : 
; 677  :           if ( g->value.proc.root == NULL )

	cmp	DWORD PTR [edi+68], 0
	jne	SHORT $LN1864@eval

; 678  :           { sprintf(errmsg,
; 679  :             "Function \"%s\" definition has not been executed yet.\n",g->name);

	push	edi
	push	OFFSET ??_C@_0DF@HMCCGFBA@Function?5?$CC?$CFs?$CC?5definition?5has?5not@
	push	OFFSET _errmsg
	call	_sprintf

; 680  :              sprintf(errmsg+strlen(errmsg),"(source file %s, line %d)\n",
; 681  :                  file_names[node->file_no],node->line_no);

	mov	eax, OFFSET _errmsg
	add	esp, 12					; 0000000cH
	lea	esi, DWORD PTR [eax+1]
	npad	1
$LL2796@eval:
	mov	cl, BYTE PTR [eax]
	inc	eax
	test	cl, cl
	jne	SHORT $LL2796@eval
	mov	ecx, DWORD PTR _node$[ebp]
	mov	edx, DWORD PTR [ecx+12]
	mov	ecx, DWORD PTR [ecx+16]
	push	edx
	mov	edx, DWORD PTR _file_names
	mov	ecx, DWORD PTR [edx+ecx*4]
	push	ecx
	sub	eax, esi
	lea	edx, DWORD PTR _errmsg[eax]
	push	OFFSET ??_C@_0BL@LMCMICK@?$CIsource?5file?5?$CFs?0?5line?5?$CFd?$CJ?6?$AA@
	push	edx
	call	_sprintf

; 682  :             kb_error(2621,errmsg,RECOVERABLE);

	push	1
	push	OFFSET _errmsg
	push	2621					; 00000a3dH
$LN3997@eval:
	call	_kb_error
	add	esp, 28					; 0000001cH
$LN1864@eval:

; 683  :           }
; 684  :           
; 685  :           ex_current = g->value.proc;
; 686  :           
; 687  :           PROF_EVAL_PUSH_AND_SWITCH(&g->value.proc);
; 688  :           PUSH_TRACE;

	mov	eax, DWORD PTR _eval_stack_trace_spot
	lea	edx, DWORD PTR [edi+64]
	mov	ecx, 26					; 0000001aH
	mov	esi, edx
	lea	edi, DWORD PTR _ex_current$[ebp]
	rep movsd
	cmp	eax, 100				; 00000064H
	jl	SHORT $LN1863@eval
	xor	eax, eax
$LN1863@eval:
	mov	ecx, DWORD PTR _node$[ebp]
	mov	DWORD PTR _eval_stack_trace[eax*4], ecx
	inc	eax
	mov	DWORD PTR _eval_stack_trace_spot, eax

; 689  :           return_node = node;
; 690  :           node = g->value.proc.start;

	mov	eax, DWORD PTR [edx]
	mov	DWORD PTR _return_node$[ebp], ecx
	mov	DWORD PTR _node$[ebp], eax

; 691  :           break;

	jmp	$LN1980@eval
$LN1862@eval:

; 692  :         }
; 693  :         
; 694  :       case FUNCTION_CALL_RETURN_NODE:
; 695  :         { PROF_EVAL_POP;
; 696  :           stacktop -= node->op2.argcount; /* pop arguments */

	mov	ecx, DWORD PTR _node$[ebp]

; 697  :           *(++stacktop) = return_value;

	fld	QWORD PTR _return_value$[ebp]
	mov	edx, DWORD PTR [ecx+136]
	add	edx, edx
	add	edx, edx
	add	edx, edx
	mov	eax, 8
	sub	eax, edx
	add	DWORD PTR [ebx+48], eax
	mov	eax, DWORD PTR [ebx+48]
	fstp	QWORD PTR [eax]
$LN3999@eval:

; 698  :           POP_TRACE;

	cmp	DWORD PTR _eval_stack_trace_spot, 0
	jle	$LN1980@eval
	mov	eax, DWORD PTR _eval_stack_trace_spot
$LN4000@eval:
	mov	DWORD PTR _eval_stack_trace[eax*4], 0
	dec	eax
	mov	DWORD PTR _eval_stack_trace_spot, eax

; 699  :           break;

	jmp	$LN1980@eval
$LN1860@eval:

; 700  :         }
; 701  : 
; 702  :       case PROCEDURE_CALL_NODE: /* with arguments */
; 703  :         { struct global *g = globals(node->op1.name_id);

	mov	ecx, DWORD PTR _node$[ebp]
	mov	eax, DWORD PTR [ecx+32]
	mov	ecx, eax
	and	ecx, -16777216				; ff000000H
	cmp	ecx, 268435456				; 10000000H
	je	SHORT $LN2031@eval
	cmp	ecx, 805306368				; 30000000H
	jne	SHORT $LN2033@eval
	mov	edx, DWORD PTR _localbase$[ebp]
	and	eax, 16777215				; 00ffffffH
	imul	eax, 224				; 000000e0H
	add	eax, DWORD PTR [edx]
	mov	edi, eax
	jmp	SHORT $LN2032@eval
$LN2033@eval:
	cmp	ecx, 536870912				; 20000000H
	jne	SHORT $LN2031@eval
	mov	ecx, DWORD PTR _web+5656
	and	eax, 16777215				; 00ffffffH
	mov	edi, DWORD PTR [ecx+eax*4]
	jmp	SHORT $LN2032@eval
$LN2031@eval:
	mov	edx, DWORD PTR _web+5652
	mov	ecx, DWORD PTR _dymem
	and	eax, 16777215				; 00ffffffH
	lea	eax, DWORD PTR [edx+eax*4]
	mov	edi, DWORD PTR [eax+ecx]
$LN2032@eval:

; 704  :           if ( g->value.proc.root == NULL )

	cmp	DWORD PTR [edi+68], 0
	jne	$LN1864@eval

; 705  :           { sprintf(errmsg,
; 706  :             "Procedure \"%s\" definition has not been executed yet.\n",g->name);

	push	edi
	push	OFFSET ??_C@_0DG@HCIHCCDE@Procedure?5?$CC?$CFs?$CC?5definition?5has?5no@
	push	OFFSET _errmsg
	call	_sprintf

; 707  :             sprintf(errmsg+strlen(errmsg),"(source file %s, line %d)\n",
; 708  :                  file_names[node->file_no],node->line_no);

	mov	eax, OFFSET _errmsg
	add	esp, 12					; 0000000cH
	lea	esi, DWORD PTR [eax+1]
$LL2797@eval:
	mov	cl, BYTE PTR [eax]
	inc	eax
	test	cl, cl
	jne	SHORT $LL2797@eval
	mov	ecx, DWORD PTR _node$[ebp]
	mov	edx, DWORD PTR [ecx+12]
	mov	ecx, DWORD PTR [ecx+16]
	push	edx
	mov	edx, DWORD PTR _file_names
	mov	ecx, DWORD PTR [edx+ecx*4]
	push	ecx
	sub	eax, esi
	lea	edx, DWORD PTR _errmsg[eax]
	push	OFFSET ??_C@_0BL@LMCMICK@?$CIsource?5file?5?$CFs?0?5line?5?$CFd?$CJ?6?$AA@
	push	edx
	call	_sprintf

; 709  :             kb_error(2622,errmsg,RECOVERABLE);

	push	1
	push	OFFSET _errmsg
	push	2622					; 00000a3eH

; 710  :           }
; 711  : 
; 712  :           ex_current = g->value.proc;
; 713  :                     
; 714  :           PROF_EVAL_PUSH_AND_SWITCH(&g->value.proc);
; 715  :           PUSH_TRACE;
; 716  :           return_node = node;
; 717  :           node = g->value.proc.start;             
; 718  :           break;

	jmp	$LN3997@eval
$LN1857@eval:

; 719  :         }
; 720  :         
; 721  :       case PROCEDURE_CALL_RETURN_NODE:    
; 722  :           PROF_EVAL_POP;
; 723  :           stacktop -= node->op2.argcount; /* pop arguments */

	mov	ecx, DWORD PTR _node$[ebp]
	mov	edx, DWORD PTR [ecx+136]
	neg	edx
	add	edx, edx
	add	edx, edx
	add	edx, edx
	add	DWORD PTR [ebx+48], edx

; 724  :           POP_TRACE;
; 725  :           break;

	jmp	$LN3999@eval
$LN1855@eval:

; 726  :         
; 727  : 
; 728  :       case PROCEDURE_NODE:
; 729  :         { struct global *g = globals(node->op1.name_id);

	mov	eax, DWORD PTR _node$[ebp]
	mov	eax, DWORD PTR [eax+32]
	mov	ecx, eax
	and	ecx, -16777216				; ff000000H
	cmp	ecx, 268435456				; 10000000H
	je	SHORT $LN2037@eval
	cmp	ecx, 805306368				; 30000000H
	jne	SHORT $LN2039@eval
	mov	ecx, DWORD PTR _localbase$[ebp]
	and	eax, 16777215				; 00ffffffH
	imul	eax, 224				; 000000e0H
	add	eax, DWORD PTR [ecx]
	jmp	SHORT $LN2038@eval
$LN2039@eval:
	cmp	ecx, 536870912				; 20000000H
	jne	SHORT $LN2037@eval
	mov	edx, DWORD PTR _web+5656
	and	eax, 16777215				; 00ffffffH
	mov	eax, DWORD PTR [edx+eax*4]
	jmp	SHORT $LN2038@eval
$LN2037@eval:
	mov	ecx, DWORD PTR _web+5652
	and	eax, 16777215				; 00ffffffH
	lea	edx, DWORD PTR [ecx+eax*4]
	mov	eax, DWORD PTR _dymem
	mov	eax, DWORD PTR [edx+eax]
$LN2038@eval:

; 730  :           PROF_EVAL_END(ex_profiling);
; 731  :           PUSH_TRACE;

	cmp	DWORD PTR _eval_stack_trace_spot, 100	; 00000064H
	jl	SHORT $LN1854@eval
	mov	DWORD PTR _eval_stack_trace_spot, 0
$LN1854@eval:
	mov	ecx, DWORD PTR _eval_stack_trace_spot
	mov	edx, DWORD PTR _node$[ebp]

; 732  :           eval(&(g->value.proc),NULL,NULLID,NULL);

	push	0
	push	0
	mov	DWORD PTR _eval_stack_trace[ecx*4], edx
	add	eax, 64					; 00000040H
	inc	ecx
	push	0
	push	eax
	mov	DWORD PTR _eval_stack_trace_spot, ecx
	call	_eval
	fstp	ST(0)

; 733  :           PROF_EVAL_START(ex_profiling);
; 734  :           POP_TRACE;

	mov	eax, DWORD PTR _eval_stack_trace_spot
	add	esp, 16					; 00000010H
	test	eax, eax
	jle	$LN1980@eval

; 735  :           break;

	jmp	$LN4000@eval
$LN1852@eval:

; 736  :         }
; 737  : 
; 738  :       case PERM_PROCEDURE_NODE:
; 739  :         { struct expnode *newex;
; 740  :           struct global *g = perm_globals(node->op1.name_id);         

	mov	eax, DWORD PTR _node$[ebp]
	mov	ecx, DWORD PTR [eax+32]
	mov	edx, DWORD PTR _web+5656
	and	ecx, 16777215				; 00ffffffH
	mov	ecx, DWORD PTR [edx+ecx*4]

; 741  :           PROF_EVAL_END(ex_profiling);
; 742  :           newex = &(g->value.proc);
; 743  :           newex->start->flags |= PERMNODE;

	mov	eax, DWORD PTR [ecx+64]
	or	DWORD PTR [eax+24], 128			; 00000080H

; 744  :           PUSH_TRACE;

	mov	eax, DWORD PTR _eval_stack_trace_spot
	add	ecx, 64					; 00000040H
	cmp	eax, 100				; 00000064H
	jl	SHORT $LN1851@eval
	xor	eax, eax
$LN1851@eval:
	mov	edx, DWORD PTR _node$[ebp]

; 745  :           eval(newex,NULL,NULLID,NULL);

	push	0
	push	0
	mov	DWORD PTR _eval_stack_trace[eax*4], edx
	inc	eax
	push	0
	push	ecx
	mov	DWORD PTR _eval_stack_trace_spot, eax
	call	_eval
	fstp	ST(0)
	add	esp, 16					; 00000010H

; 746  :           POP_TRACE;
; 747  :           PROF_EVAL_START(ex_profiling);
; 748  :           break;

	jmp	$LN3999@eval
$LN1846@eval:

; 749  :         }
; 750  : 
; 751  :       case CMDLIST_NODE: case COMMAND_BLOCK_NODE:
; 752  :           /* no action, just holds tree together */
; 753  :           break;
; 754  :    
; 755  :       case DECLARE_LOCAL_NODE: break;
; 756  :       case LOCAL_LIST_START_NODE: break;
; 757  :     
; 758  :       case SINGLE_REDEFD_NODE:
; 759  :           if ( single_redefine[node->op1.letter].start )

	mov	eax, DWORD PTR _node$[ebp]
	mov	eax, DWORD PTR [eax+32]
	mov	ecx, eax
	imul	ecx, 104				; 00000068H
	cmp	DWORD PTR _single_redefine[ecx], 0
	je	SHORT $LN1845@eval

; 760  :           {
; 761  :             PROF_EVAL_END(ex_profiling);
; 762  :             PUSH_TRACE;

	cmp	DWORD PTR _eval_stack_trace_spot, 100	; 00000064H
	jl	SHORT $LN1844@eval
	mov	DWORD PTR _eval_stack_trace_spot, 0
$LN1844@eval:
	mov	ecx, DWORD PTR _eval_stack_trace_spot
	mov	eax, DWORD PTR _node$[ebp]
	mov	DWORD PTR _eval_stack_trace[ecx*4], eax
	inc	ecx
	mov	DWORD PTR _eval_stack_trace_spot, ecx

; 763  :             eval(&single_redefine[node->op1.letter],NULL,NULLID,NULL);

	mov	edx, DWORD PTR [eax+32]
	imul	edx, 104				; 00000068H
	push	0
	push	0
	add	edx, OFFSET _single_redefine
	push	0
	push	edx
	call	_eval
	add	esp, 16					; 00000010H
	fstp	ST(0)

; 764  :             POP_TRACE;
; 765  :             PROF_EVAL_START(ex_profiling);
; 766  :           }
; 767  :           else letter_command(node->op1.letter);

	jmp	$LN3999@eval
$LN1845@eval:
	push	eax
	call	_letter_command
	add	esp, 4

; 768  :           break;

	jmp	$LN1980@eval
$LN1841@eval:

; 769  : 
; 770  : 
; 771  :       case MATRIX_INVERSE_NODE: 
; 772  :         { REAL *datastart2 = *(REAL**)(stacktop--);

	mov	eax, DWORD PTR [ebx+48]
	mov	edi, DWORD PTR [eax]

; 773  :           REAL *datastart1 = *(REAL**)(stacktop--);
; 774  :           struct array *a = get_name_arrayptr(node->op1.name_id,newstack+localstack,localbase);

	mov	esi, DWORD PTR _localstack$[ebp]
	mov	edx, DWORD PTR _localbase$[ebp]
	add	eax, -8					; fffffff8H
	mov	DWORD PTR [ebx+48], eax
	mov	ecx, DWORD PTR [eax]
	add	eax, -8					; fffffff8H
	mov	DWORD PTR [ebx+48], eax
	mov	eax, DWORD PTR [ebx+40]
	add	esi, esi
	add	esi, esi
	push	edx
	mov	DWORD PTR _datastart1$89742[ebp], ecx
	mov	ecx, DWORD PTR _node$[ebp]
	mov	edx, DWORD PTR [ecx+32]
	add	esi, esi
	add	eax, esi
	push	eax
	push	edx
	call	_get_name_arrayptr

; 775  :           struct array *b = get_name_arrayptr(node->op2.name_id,newstack+localstack,localbase);

	mov	ecx, DWORD PTR [ebx+40]
	mov	edx, DWORD PTR _node$[ebp]
	mov	DWORD PTR _a$89744[ebp], eax
	mov	eax, DWORD PTR _localbase$[ebp]
	push	eax
	mov	eax, DWORD PTR [edx+136]
	add	ecx, esi
	push	ecx
	push	eax
	call	_get_name_arrayptr

; 776  :  
; 777  :            *(++stacktop) = (REAL)matrix_inverse_command(a,
; 778  :                  b,datastart1,datastart2);

	mov	ecx, DWORD PTR _datastart1$89742[ebp]
	mov	edx, DWORD PTR _a$89744[ebp]
	add	DWORD PTR [ebx+48], 8
	mov	esi, DWORD PTR [ebx+48]
	push	edi
	push	ecx
	push	eax
	push	edx
	call	_matrix_inverse_command
	mov	DWORD PTR tv28924[ebp], eax
	fild	DWORD PTR tv28924[ebp]
	add	esp, 40					; 00000028H
	fstp	QWORD PTR [esi]

; 779  :         }
; 780  :            break;

	jmp	$LN1980@eval
$LN1840@eval:

; 781  : 
; 782  :       case MATRIX_MULTIPLY_NODE: 
; 783  :         { REAL *datastart3 = *(REAL**)(stacktop--);

	mov	eax, DWORD PTR [ebx+48]
	mov	edi, DWORD PTR [eax]

; 784  :           REAL *datastart2 = *(REAL**)(stacktop--);  
; 785  :           REAL *datastart1 = *(REAL**)(stacktop--); 
; 786  :           struct array *a = get_name_arrayptr(node->op1.name_id,newstack+localstack,localbase);

	mov	esi, DWORD PTR _localstack$[ebp]
	add	eax, -8					; fffffff8H
	mov	DWORD PTR [ebx+48], eax
	mov	ecx, DWORD PTR [eax]
	add	eax, -8					; fffffff8H
	mov	DWORD PTR [ebx+48], eax
	mov	edx, DWORD PTR [eax]
	add	eax, -8					; fffffff8H
	mov	DWORD PTR [ebx+48], eax
	mov	eax, DWORD PTR _localbase$[ebp]
	add	esi, esi
	mov	DWORD PTR _datastart2$89750[ebp], ecx
	mov	ecx, DWORD PTR [ebx+40]
	add	esi, esi
	push	eax
	mov	DWORD PTR _datastart1$89752[ebp], edx
	mov	edx, DWORD PTR _node$[ebp]
	mov	eax, DWORD PTR [edx+32]
	add	esi, esi
	add	ecx, esi
	push	ecx
	push	eax
	call	_get_name_arrayptr

; 787  :           struct array *b = get_name_arrayptr(node->op2.name_id,newstack+localstack,localbase);

	mov	ecx, DWORD PTR _localbase$[ebp]
	mov	edx, DWORD PTR [ebx+40]
	push	ecx
	mov	DWORD PTR _a$89754[ebp], eax
	mov	eax, DWORD PTR _node$[ebp]
	mov	ecx, DWORD PTR [eax+136]
	add	edx, esi
	push	edx
	push	ecx
	call	_get_name_arrayptr

; 788  :           struct array *c = get_name_arrayptr(node->op3.name_id,newstack+localstack,localbase);

	mov	edx, DWORD PTR _localbase$[ebp]
	mov	ecx, DWORD PTR _node$[ebp]
	mov	DWORD PTR _b$89755[ebp], eax
	mov	eax, DWORD PTR [ebx+40]
	push	edx
	mov	edx, DWORD PTR [ecx+140]
	add	eax, esi
	push	eax
	push	edx
	call	_get_name_arrayptr

; 789  :           matrix_multiply_command(a,b,c,datastart1,datastart2,datastart3);

	mov	ecx, DWORD PTR _datastart2$89750[ebp]
	mov	edx, DWORD PTR _datastart1$89752[ebp]
	push	edi
	push	ecx
	mov	ecx, DWORD PTR _a$89754[ebp]
	push	edx
	push	eax
	mov	eax, DWORD PTR _b$89755[ebp]
	push	eax
	push	ecx
	call	_matrix_multiply_command
	add	esp, 60					; 0000003cH

; 790  :         }
; 791  :         break;

	jmp	$LN1980@eval
$LN1839@eval:

; 792  : 
; 793  :       case MATRIX_DETERMINANT_NODE:
; 794  :         { REAL *datastart1 = *(REAL**)(stacktop--);

	mov	eax, DWORD PTR [ebx+48]
	mov	esi, DWORD PTR [eax]

; 795  :           struct array *a = get_name_arrayptr(node->op1.name_id,newstack+localstack,localbase);

	mov	edx, DWORD PTR _localbase$[ebp]
	mov	ecx, DWORD PTR _localstack$[ebp]
	add	eax, -8					; fffffff8H
	mov	DWORD PTR [ebx+48], eax
	mov	eax, DWORD PTR [ebx+40]
	push	edx
	lea	edx, DWORD PTR [eax+ecx*8]
	mov	eax, DWORD PTR _node$[ebp]
	mov	ecx, DWORD PTR [eax+32]
	push	edx
	push	ecx
	call	_get_name_arrayptr

; 796  :           *(++stacktop) = matrix_determinant_command(a,datastart1);

	add	DWORD PTR [ebx+48], 8
	mov	edi, DWORD PTR [ebx+48]
	push	esi
	push	eax
	call	_matrix_determinant_command
	fstp	QWORD PTR [edi]
	add	esp, 20					; 00000014H

; 797  :         }
; 798  :         break;

	jmp	$LN1980@eval
$LN1838@eval:

; 799  : 
; 800  :       case BACKQUOTE_START_NODE:
; 801  :         { struct expnode bqnode = ex_current;
; 802  :           bqnode.start = node;

	mov	eax, DWORD PTR _node$[ebp]
	mov	ecx, 26					; 0000001aH
	lea	esi, DWORD PTR _ex_current$[ebp]
	lea	edi, DWORD PTR _bqnode$89762[ebp]
	rep movsd
	mov	DWORD PTR _bqnode$89762[ebp], eax

; 803  :           bqnode.root = node+node->op1.skipsize;

	mov	edx, DWORD PTR [eax+32]
	imul	edx, 168				; 000000a8H
	add	edx, eax

; 804  :           bqnode.locals = localbase;
; 805  : 
; 806  :           PROF_EVAL_END(ex_profiling);
; 807  :           PUSH_TRACE;

	cmp	DWORD PTR _eval_stack_trace_spot, 100	; 00000064H
	mov	eax, DWORD PTR _localbase$[ebp]
	mov	DWORD PTR _bqnode$89762[ebp+4], edx
	mov	DWORD PTR _bqnode$89762[ebp+8], eax
	jl	SHORT $LN1837@eval
	mov	DWORD PTR _eval_stack_trace_spot, 0
$LN1837@eval:
	mov	eax, DWORD PTR _eval_stack_trace_spot
	mov	ecx, DWORD PTR _node$[ebp]
	mov	DWORD PTR _eval_stack_trace[eax*4], ecx
	inc	eax
	mov	DWORD PTR _eval_stack_trace_spot, eax

; 808  :           eval(&bqnode,params,self_id,this_frame);

	mov	edx, DWORD PTR [ebx+52]
	mov	eax, DWORD PTR [ebx+40]
	lea	ecx, DWORD PTR [eax+edx*8]
	mov	edx, DWORD PTR _self_id$GSCopy$[ebp]
	mov	eax, DWORD PTR _params$GSCopy$[ebp]
	push	ecx
	push	edx
	push	eax
	lea	ecx, DWORD PTR _bqnode$89762[ebp]
	push	ecx
	call	_eval
	fstp	ST(0)

; 809  :           POP_TRACE;

	mov	eax, DWORD PTR _eval_stack_trace_spot
	add	esp, 16					; 00000010H
	test	eax, eax
	jle	SHORT $LN1836@eval
	mov	DWORD PTR _eval_stack_trace[eax*4], 0
	dec	eax
	mov	DWORD PTR _eval_stack_trace_spot, eax
$LN1836@eval:

; 810  :           PROF_EVAL_START(ex_profiling);
; 811  :           node += node->op1.skipsize; /* skip what was evaluated */

	mov	eax, DWORD PTR _node$[ebp]
	mov	edx, DWORD PTR [eax+32]
	imul	edx, 168				; 000000a8H
	add	eax, edx
	mov	DWORD PTR _node$[ebp], eax
	jmp	$LN1980@eval
$LN1830@eval:

; 812  :         }
; 813  :         break;
; 814  :       case BACKQUOTE_END_NODE: break;  /* just a placeholder */
; 815  :       case ACOMMANDEXPR_NODE: /* backquoted command at start of expression */
; 816  :            break;
; 817  : 
; 818  :       case INDEXSET_NODE: break; /* just accumulate index values */
; 819  :       case DIMENSIONSET_NODE: break; /* just accumulate index values */
; 820  :       case DEFINE_FIXED_LOCAL_ARRAY_NODE: break; /* was allocated on stack */
; 821  : 
; 822  :       case SHOW_NODE:
; 823  :       case SHOW_EXPR_NODE:
; 824  :       { int etype; /* element type */  
; 825  :         ENTER_GRAPH_MUTEX

	mov	esi, DWORD PTR __imp__GetCurrentThreadId@0
	call	esi
	cmp	DWORD PTR _locking_thread, eax
	je	SHORT $LN1829@eval
	push	0
	push	100000					; 000186a0H
	push	0
	push	OFFSET _graphmutex
	push	1
	call	DWORD PTR __imp__MsgWaitForMultipleObjects@20
	call	esi
	mov	DWORD PTR _locking_thread, eax
	mov	DWORD PTR _did_graphlock_here$89774[ebp], 1
	jmp	SHORT $LN1828@eval
$LN1829@eval:
	mov	DWORD PTR _did_graphlock_here$89774[ebp], 0
$LN1828@eval:

; 826  :         where = node + node->op1.skipsize;

	mov	eax, DWORD PTR _node$[ebp]
	mov	ecx, DWORD PTR [eax+32]
	imul	ecx, 168				; 000000a8H
	add	ecx, eax

; 827  :         if ( where->type == WHERE_NODE ) /* condition */

	cmp	DWORD PTR [ecx], 10262			; 00002816H
	jne	$LN1827@eval

; 828  :           { /* copy over expression */
; 829  :              enode = where + where->left; /* NEXT */

	mov	esi, DWORD PTR [ecx+4]

; 830  :              eroot = where + where->right;

	mov	eax, DWORD PTR [ecx+8]
	imul	esi, 168				; 000000a8H
	imul	eax, 168				; 000000a8H
	add	esi, ecx
	add	eax, ecx

; 831  :              etype = enode[enode->left].op1.eltype;

	mov	ecx, DWORD PTR [esi+4]
	imul	ecx, 168				; 000000a8H
	mov	edi, DWORD PTR [ecx+esi+32]

; 832  :              show_expr[etype] = show_expr_table + etype;

	mov	edx, edi
	imul	edx, 104				; 00000068H
	lea	ecx, DWORD PTR _show_expr_table[edx]

; 833  :              tree_copy(show_expr[etype],eroot);

	push	eax
	push	ecx
	mov	DWORD PTR _show_expr[edi*4], ecx
	call	_tree_copy

; 834  :              sprintf(show_expr[etype]->name,"show expression for %s.",
; 835  :                 typenames[etype]);

	mov	eax, DWORD PTR _typenames[edi*4]
	mov	ecx, DWORD PTR _show_expr[edi*4]
	push	eax
	add	ecx, 20					; 00000014H
	push	OFFSET ??_C@_0BI@CLILKIPO@show?5expression?5for?5?$CFs?4?$AA@
	push	ecx
	call	_sprintf

; 836  :              /* can use first slot to record type of element */
; 837  :              /* element location */
; 838  :              show_expr[etype]->start->op2.eltype = enode->op2.eltype;

	mov	edx, DWORD PTR _show_expr[edi*4]
	mov	eax, DWORD PTR [edx]
	mov	ecx, DWORD PTR [esi+136]
	mov	DWORD PTR [eax+136], ecx

; 839  :              enode += enode->left; /* INIT */

	mov	edx, DWORD PTR [esi+4]

; 840  :              show_expr[etype]->start->op1.eltype = enode->op1.eltype;

	mov	eax, DWORD PTR _show_expr[edi*4]
	imul	edx, 168				; 000000a8H
	mov	ecx, DWORD PTR [eax]
	mov	edx, DWORD PTR [esi+edx+32]

; 841  :              // copy over local variable data
; 842  :              show_expr[etype]->locals = (struct locallist_t*)mycalloc(1,sizeof(struct locallist_t));

	push	842					; 0000034aH
	push	OFFSET ??_C@_0L@HDDEKBBF@EVALTREE?4C?$AA@
	push	24					; 00000018H
	push	1
	mov	DWORD PTR [ecx+32], edx
	call	_kb_calloc
	mov	ecx, DWORD PTR _show_expr[edi*4]
	mov	DWORD PTR [ecx+8], eax

; 843  :              *(show_expr[etype]->locals) = *(ex_current.locals);

	mov	eax, DWORD PTR _ex_current$[ebp+8]
	mov	edx, DWORD PTR _show_expr[edi*4]
	mov	ecx, DWORD PTR [edx+8]
	mov	edx, DWORD PTR [eax]
	mov	DWORD PTR [ecx], edx
	mov	edx, DWORD PTR [eax+4]
	mov	DWORD PTR [ecx+4], edx
	mov	edx, DWORD PTR [eax+8]
	mov	DWORD PTR [ecx+8], edx
	mov	edx, DWORD PTR [eax+12]
	mov	DWORD PTR [ecx+12], edx
	mov	edx, DWORD PTR [eax+16]
	mov	DWORD PTR [ecx+16], edx
	mov	eax, DWORD PTR [eax+20]

; 844  :              show_expr[etype]->locals->list = 
; 845  :                   (struct localvar_t *)mycalloc(ex_current.locals->count,
; 846  :                              sizeof(struct localvar_t));

	push	846					; 0000034eH
	mov	DWORD PTR [ecx+20], eax
	mov	ecx, DWORD PTR _ex_current$[ebp+8]
	mov	edx, DWORD PTR [ecx+8]
	push	OFFSET ??_C@_0L@HDDEKBBF@EVALTREE?4C?$AA@
	push	224					; 000000e0H
	push	edx
	call	_kb_calloc
	mov	ecx, DWORD PTR _show_expr[edi*4]
	mov	edx, DWORD PTR [ecx+8]
	mov	DWORD PTR [edx], eax

; 847  :              memcpy(show_expr[etype]->locals->list,ex_current.locals->list,ex_current.locals->count*
; 848  :                               sizeof(struct localvar_t));

	mov	eax, DWORD PTR _ex_current$[ebp+8]
	mov	ecx, DWORD PTR [eax+8]
	mov	edx, DWORD PTR [eax]
	imul	ecx, 224				; 000000e0H
	mov	eax, DWORD PTR _show_expr[edi*4]
	push	ecx
	mov	ecx, DWORD PTR [eax+8]
	push	edx
	mov	edx, DWORD PTR [ecx]
	push	edx
	call	_memcpy
	add	esp, 64					; 00000040H

; 849  :           }
; 850  :          else

	jmp	SHORT $LN1826@eval
$LN1827@eval:

; 851  :             { etype =  where[where->left].op1.eltype;

	mov	eax, DWORD PTR [ecx+4]
	imul	eax, 168				; 000000a8H
	mov	edi, DWORD PTR [eax+ecx+32]

; 852  :               tree_copy(show_expr[etype],NULL);

	mov	ecx, DWORD PTR _show_expr[edi*4]
	push	0
	push	ecx
	call	_tree_copy
	add	esp, 8

; 853  :               show_expr[etype] = NULL;

	mov	DWORD PTR _show_expr[edi*4], 0
$LN1826@eval:

; 854  :             }
; 855  :          /* save for dump */ 
; 856  :          tree_copy(show_command+etype,node+node->op1.skipsize+1);

	mov	eax, DWORD PTR _node$[ebp]
	imul	edi, 104				; 00000068H
	mov	edx, DWORD PTR [eax+32]
	inc	edx
	imul	edx, 168				; 000000a8H
	add	edx, eax
	push	edx
	add	edi, OFFSET _show_command
	push	edi
	call	_tree_copy
	add	esp, 8

; 857  :          LEAVE_GRAPH_MUTEX

	cmp	DWORD PTR _did_graphlock_here$89774[ebp], 0
	je	SHORT $LN1825@eval
	mov	eax, DWORD PTR _graphmutex
	push	eax
	mov	DWORD PTR _locking_thread, 0
	call	DWORD PTR __imp__ReleaseMutex@4
$LN1825@eval:

; 858  :          if ( (node->type == SHOW_NODE) && !OOGL_flag && !go_display_flag)

	mov	ecx, DWORD PTR _node$[ebp]
	cmp	DWORD PTR [ecx], 10042			; 0000273aH
	jne	SHORT $LN1824@eval
	cmp	DWORD PTR _OOGL_flag, 0
	jne	SHORT $LN1824@eval
	cmp	DWORD PTR _go_display_flag, 0
	jne	SHORT $LN1824@eval

; 859  :             do_show();

	call	_do_show

; 861  :          node += node->op1.skipsize; /* skip over expression */

	mov	eax, DWORD PTR _node$[ebp]
	mov	edx, DWORD PTR [eax+32]
	imul	edx, 168				; 000000a8H
	add	eax, edx
	mov	DWORD PTR _node$[ebp], eax
	jmp	$LN1980@eval
$LN1824@eval:

; 860  :          else update_display();

	call	_update_display

; 861  :          node += node->op1.skipsize; /* skip over expression */

	mov	eax, DWORD PTR _node$[ebp]
	mov	edx, DWORD PTR [eax+32]
	imul	edx, 168				; 000000a8H
	add	eax, edx
	mov	DWORD PTR _node$[ebp], eax
	jmp	$LN1980@eval
$LN1822@eval:

; 862  :          break;
; 863  :        }
; 864  : 
; 865  :       case UNREDEFINE_SINGLE_NODE:
; 866  :         free_expr(&single_redefine[node->op1.letter]);

	mov	eax, DWORD PTR _node$[ebp]
	mov	ecx, DWORD PTR [eax+32]
	imul	ecx, 104				; 00000068H
	add	ecx, OFFSET _single_redefine
	push	ecx
	call	_free_expr
	add	esp, 4

; 867  :         break;

	jmp	$LN1980@eval
$LN1821@eval:

; 868  :           
; 869  :       case REDEFINE_SINGLE_NODE:
; 870  :         tree_copy(&single_redefine[node->op1.letter],node+node->op2.jumpsize);

	mov	eax, DWORD PTR _node$[ebp]
	mov	edx, DWORD PTR [eax+136]
	imul	edx, 168				; 000000a8H
	add	edx, eax
	mov	eax, DWORD PTR [eax+32]
	imul	eax, 104				; 00000068H
	push	edx
	add	eax, OFFSET _single_redefine
	push	eax
	call	_tree_copy

; 871  :         sprintf(single_redefine[node->op1.letter].name,"redefined command '%c'",
; 872  :              node->op1.letter);

	mov	ecx, DWORD PTR _node$[ebp]
	mov	eax, DWORD PTR [ecx+32]
	push	eax
	imul	eax, 104				; 00000068H
	add	eax, OFFSET _single_redefine+20
	push	OFFSET ??_C@_0BH@FDCGEHJN@redefined?5command?5?8?$CFc?8?$AA@
	push	eax
	call	_sprintf

; 873  :         single_redefine[node->op1.letter].flag = USERCOPY;

	mov	eax, DWORD PTR _node$[ebp]
	mov	edx, DWORD PTR [eax+32]
	imul	edx, 104				; 00000068H
	mov	DWORD PTR _single_redefine[edx+12], 1

; 874  :         locals_copy(&(single_redefine[node->op1.letter].locals),
; 875  :                 node->op5.locals); 

	mov	edx, DWORD PTR [eax+32]
	mov	ecx, DWORD PTR [eax+152]
	imul	edx, 104				; 00000068H
	push	ecx
	add	edx, OFFSET _single_redefine+8
	push	edx
	call	_locals_copy
	add	esp, 28					; 0000001cH
$LN4017@eval:

; 876  :         node += node->op2.jumpsize; /* skip over procedure */

	mov	eax, DWORD PTR _node$[ebp]
	mov	ecx, DWORD PTR [eax+136]
	imul	ecx, 168				; 000000a8H
	add	eax, ecx
	mov	DWORD PTR _node$[ebp], eax
	jmp	$LN1980@eval
$LN1820@eval:

; 877  :         break;
; 878  : 
; 879  :       case SET_PROCEDURE_NODE:
; 880  :         g = globals(node->op1.name_id);

	mov	edx, DWORD PTR _node$[ebp]
	mov	esi, DWORD PTR [edx+32]
	mov	eax, esi
	and	eax, -16777216				; ff000000H
	and	esi, 16777215				; 00ffffffH
	cmp	eax, 268435456				; 10000000H
	jne	SHORT $LN2047@eval
	mov	eax, DWORD PTR _web+5652
	mov	edx, DWORD PTR _dymem
	lea	ecx, DWORD PTR [eax+esi*4]
	mov	esi, DWORD PTR [ecx+edx]
	jmp	SHORT $LN2044@eval
$LN2047@eval:
	cmp	eax, 805306368				; 30000000H
	jne	SHORT $LN2045@eval
	mov	eax, DWORD PTR _localbase$[ebp]
	imul	esi, 224				; 000000e0H
	add	esi, DWORD PTR [eax]
	jmp	SHORT $LN2044@eval
$LN2045@eval:
	cmp	eax, 536870912				; 20000000H
	jne	SHORT $LN2043@eval
	mov	ecx, DWORD PTR _web+5656
	mov	esi, DWORD PTR [ecx+esi*4]
	jmp	SHORT $LN2044@eval
$LN2043@eval:
	mov	edx, DWORD PTR _web+5652
	mov	ecx, DWORD PTR _dymem
	lea	eax, DWORD PTR [edx+esi*4]
	mov	esi, DWORD PTR [eax+ecx]
$LN2044@eval:

; 881  :         free_expr(&g->value.proc);

	lea	edi, DWORD PTR [esi+64]
	push	edi
	call	_free_expr

; 882  :         tree_copy(&g->value.proc, node+node->op2.jumpsize);

	mov	eax, DWORD PTR _node$[ebp]
	mov	edx, DWORD PTR [eax+136]
	imul	edx, 168				; 000000a8H
	add	edx, eax
	push	edx
	push	edi
	call	_tree_copy
	add	esp, 12					; 0000000cH

; 883  :         strcpy(g->value.proc.name, g->name);

	mov	eax, esi
$LL2049@eval:
	mov	cl, BYTE PTR [eax]
	mov	BYTE PTR [eax+84], cl
	inc	eax
	test	cl, cl
	jne	SHORT $LL2049@eval

; 884  :         g->attr.procstuff.proc_timestamp = proc_timestamp++;

	mov	eax, DWORD PTR _proc_timestamp
	mov	DWORD PTR [esi+176], eax

; 885  :         locals_copy(&(g->value.proc.locals),node->op5.locals);

	mov	ecx, DWORD PTR _node$[ebp]
	inc	DWORD PTR _proc_timestamp
	mov	edx, DWORD PTR [ecx+152]
	push	edx
	add	esi, 72					; 00000048H
	push	esi
	call	_locals_copy
	add	esp, 8

; 886  :         node += node->op2.jumpsize; /* skip over procedure */
; 887  :         break;

	jmp	$LN4017@eval
$LN1819@eval:

; 888  : 
; 889  :       case SET_PERM_PROCEDURE_NODE:
; 890  :         g = perm_globals(node->op1.name_id);

	mov	edx, DWORD PTR _node$[ebp]
	mov	eax, DWORD PTR [edx+32]
	mov	ecx, DWORD PTR _web+5656
	and	eax, 16777215				; 00ffffffH
	mov	esi, DWORD PTR [ecx+eax*4]

; 891  :         perm_free_expr(&g->value.proc);

	lea	edi, DWORD PTR [esi+64]
	push	edi
	call	_perm_free_expr

; 892  :         perm_tree_copy(&g->value.proc, node+node->op2.jumpsize);

	mov	eax, DWORD PTR _node$[ebp]
	mov	edx, DWORD PTR [eax+136]
	imul	edx, 168				; 000000a8H
	add	edx, eax
	push	edx
	push	edi
	call	_perm_tree_copy
	add	esp, 12					; 0000000cH

; 893  :         strcpy(g->value.proc.name, g->name);

	mov	eax, esi
	npad	6
$LL2050@eval:
	mov	cl, BYTE PTR [eax]
	mov	BYTE PTR [eax+84], cl
	inc	eax
	test	cl, cl
	jne	SHORT $LL2050@eval

; 894  :         g->attr.procstuff.proc_timestamp = proc_timestamp++;

	mov	eax, DWORD PTR _proc_timestamp
	mov	DWORD PTR [esi+176], eax

; 895  :         locals_copy_perm(&(g->value.proc.locals),node->op5.locals);

	mov	ecx, DWORD PTR _node$[ebp]
	inc	DWORD PTR _proc_timestamp
	mov	edx, DWORD PTR [ecx+152]
	push	edx
	add	esi, 72					; 00000048H
	push	esi
	call	_locals_copy_perm
	add	esp, 8

; 896  :         node += node->op2.jumpsize; /* skip over procedure */
; 897  :         break;

	jmp	$LN4017@eval
$LN1815@eval:

; 898  : 
; 899  :       case SET_FUNCTION_NODE: break;
; 900  :       case FUNCTION_HEAD_NODE: break;
; 901  :       case ARGLIST_NODE: break;
; 902  : 
; 903  :       case FUNCTION_DEF_START_NODE:
; 904  :         g = globals(node->op1.name_id);

	mov	edx, DWORD PTR _node$[ebp]
	mov	esi, DWORD PTR [edx+32]
	mov	eax, esi
	and	eax, -16777216				; ff000000H
	and	esi, 16777215				; 00ffffffH
	cmp	eax, 268435456				; 10000000H
	jne	SHORT $LN2055@eval
	mov	eax, DWORD PTR _web+5652
	mov	edx, DWORD PTR _dymem
	lea	ecx, DWORD PTR [eax+esi*4]
	mov	esi, DWORD PTR [ecx+edx]
	jmp	SHORT $LN2052@eval
$LN2055@eval:
	cmp	eax, 805306368				; 30000000H
	jne	SHORT $LN2053@eval
	mov	eax, DWORD PTR _localbase$[ebp]
	imul	esi, 224				; 000000e0H
	add	esi, DWORD PTR [eax]
	jmp	SHORT $LN2052@eval
$LN2053@eval:
	cmp	eax, 536870912				; 20000000H
	jne	SHORT $LN2051@eval
	mov	ecx, DWORD PTR _web+5656
	mov	esi, DWORD PTR [ecx+esi*4]
	jmp	SHORT $LN2052@eval
$LN2051@eval:
	mov	edx, DWORD PTR _web+5652
	mov	ecx, DWORD PTR _dymem
	lea	eax, DWORD PTR [edx+esi*4]
	mov	esi, DWORD PTR [eax+ecx]
$LN2052@eval:

; 905  :         free_expr(&g->value.proc);

	lea	edi, DWORD PTR [esi+64]
	push	edi
	call	_free_expr

; 906  :         tree_copy(&g->value.proc, node+node->op2.jumpsize);

	mov	eax, DWORD PTR _node$[ebp]
	mov	edx, DWORD PTR [eax+136]
	imul	edx, 168				; 000000a8H
	add	edx, eax
	push	edx
	push	edi
	call	_tree_copy

; 907  :         g->value.proc.start[2].type = FUNCTION_START_NODE;

	mov	eax, DWORD PTR [edi]
	mov	DWORD PTR [eax+336], 10053		; 00002745H
	add	esp, 12					; 0000000cH

; 908  :         strcpy(g->value.proc.name, g->name);

	mov	eax, esi
	npad	7
$LL2057@eval:
	mov	cl, BYTE PTR [eax]
	mov	BYTE PTR [eax+84], cl
	inc	eax
	test	cl, cl
	jne	SHORT $LL2057@eval
$LN4019@eval:

; 909  :         g->attr.procstuff.proc_timestamp = proc_timestamp++;

	mov	ecx, DWORD PTR _proc_timestamp
	mov	DWORD PTR [esi+176], ecx

; 910  :         locals_copy(&(g->value.proc.locals),node->op5.locals);

	mov	edx, DWORD PTR _node$[ebp]
	inc	DWORD PTR _proc_timestamp
	mov	eax, DWORD PTR [edx+152]
	push	eax
	add	esi, 72					; 00000048H
	push	esi
	call	_locals_copy
	add	esp, 8

; 911  :         node += node->op2.jumpsize; /* skip over procedure */
; 912  :         break;

	jmp	$LN4017@eval
$LN1814@eval:

; 913  : 
; 914  :       case FUNCTION_PROTO_START_NODE:
; 915  :         node += node->op2.jumpsize; /* skip over stuff */

	mov	eax, DWORD PTR _node$[ebp]
	mov	edx, DWORD PTR [eax+136]
	imul	edx, 168				; 000000a8H
	add	eax, edx
	mov	DWORD PTR _node$[ebp], eax
	jmp	$LN1980@eval
$LN1813@eval:

; 916  :         break;
; 917  : 
; 918  :       case FUNCTION_START_NODE:  /* function entry code */
; 919  :         /* copy arguments over to local variable space */
; 920  :           memcpy((char*)(stacktop-localcount+1),
; 921  :            (char*)(((REAL*)this_frame)-(node->op3.argcount+PROF_SPACE)),
; 922  :              node->op3.argcount*sizeof(REAL));

	mov	eax, DWORD PTR _node$[ebp]
	mov	eax, DWORD PTR [eax+140]
	mov	edx, DWORD PTR [ebx+52]
	lea	ecx, DWORD PTR [eax*8]
	push	ecx
	sub	edx, eax
	mov	eax, DWORD PTR [ebx+40]
	lea	ecx, DWORD PTR [eax+edx*8]
	mov	edx, DWORD PTR _localcount$[ebp]
	push	ecx
	mov	ecx, DWORD PTR [ebx+48]
	lea	eax, DWORD PTR [edx*8]
	sub	ecx, eax
	add	ecx, 8
	push	ecx
	call	_memcpy
	add	esp, 12					; 0000000cH

; 923  :         break;

	jmp	$LN1980@eval
$LN1810@eval:

; 924  : 
; 925  :       case SET_ARGSPROC_NODE: break;
; 926  :       case PROCEDURE_HEAD_NODE: break;
; 927  : 
; 928  :       case PROCEDURE_DEF_START_NODE:
; 929  :         g = globals(node->op1.name_id);

	mov	edx, DWORD PTR _node$[ebp]
	mov	esi, DWORD PTR [edx+32]
	mov	eax, esi
	and	eax, -16777216				; ff000000H
	and	esi, 16777215				; 00ffffffH
	cmp	eax, 268435456				; 10000000H
	jne	SHORT $LN2062@eval
	mov	eax, DWORD PTR _web+5652
	mov	edx, DWORD PTR _dymem
	lea	ecx, DWORD PTR [eax+esi*4]
	mov	esi, DWORD PTR [ecx+edx]
	jmp	SHORT $LN2059@eval
$LN2062@eval:
	cmp	eax, 805306368				; 30000000H
	jne	SHORT $LN2060@eval
	mov	eax, DWORD PTR _localbase$[ebp]
	imul	esi, 224				; 000000e0H
	add	esi, DWORD PTR [eax]
	jmp	SHORT $LN2059@eval
$LN2060@eval:
	cmp	eax, 536870912				; 20000000H
	jne	SHORT $LN2058@eval
	mov	ecx, DWORD PTR _web+5656
	mov	esi, DWORD PTR [ecx+esi*4]
	jmp	SHORT $LN2059@eval
$LN2058@eval:
	mov	edx, DWORD PTR _web+5652
	mov	ecx, DWORD PTR _dymem
	lea	eax, DWORD PTR [edx+esi*4]
	mov	esi, DWORD PTR [eax+ecx]
$LN2059@eval:

; 930  :         free_expr(&g->value.proc);

	lea	edi, DWORD PTR [esi+64]
	push	edi
	call	_free_expr

; 931  :         tree_copy(&g->value.proc, node+node->op2.jumpsize);

