; Listing generated by Microsoft (R) Optimizing Compiler Version 16.00.40219.01 

	TITLE	C:\levolver\yonkang-sefit\levolver\ev_ogl\EXPRINT.C
	.686P
	.XMM
	include listing.inc
	.model	flat

INCLUDELIB LIBCMT
INCLUDELIB OLDNAMES

_DATA	SEGMENT
COMM	_current_proc_locals:DWORD:064H
COMM	_current_proc_depth:DWORD
_DATA	ENDS
PUBLIC	??_C@_00CNPNBAHC@?$AA@				; `string'
PUBLIC	??_C@_03CHHAMGLO@?5?1?$DN?$AA@			; `string'
PUBLIC	??_C@_03CBLLAEFF@?5?$CK?$DN?$AA@		; `string'
PUBLIC	??_C@_03CEPEBCNA@?5?9?$DN?$AA@			; `string'
PUBLIC	??_C@_03CAHJGOGC@?5?$CL?$DN?$AA@		; `string'
PUBLIC	??_C@_03DNJNKHCF@?5?3?$DN?$AA@			; `string'
PUBLIC	_assign_symbol
;	COMDAT ??_C@_00CNPNBAHC@?$AA@
; File c:\levolver\yonkang-sefit\levolver\ev_ogl\exprint.c
CONST	SEGMENT
??_C@_00CNPNBAHC@?$AA@ DB 00H				; `string'
CONST	ENDS
;	COMDAT ??_C@_03CHHAMGLO@?5?1?$DN?$AA@
CONST	SEGMENT
??_C@_03CHHAMGLO@?5?1?$DN?$AA@ DB ' /=', 00H		; `string'
CONST	ENDS
;	COMDAT ??_C@_03CBLLAEFF@?5?$CK?$DN?$AA@
CONST	SEGMENT
??_C@_03CBLLAEFF@?5?$CK?$DN?$AA@ DB ' *=', 00H		; `string'
CONST	ENDS
;	COMDAT ??_C@_03CEPEBCNA@?5?9?$DN?$AA@
CONST	SEGMENT
??_C@_03CEPEBCNA@?5?9?$DN?$AA@ DB ' -=', 00H		; `string'
CONST	ENDS
;	COMDAT ??_C@_03CAHJGOGC@?5?$CL?$DN?$AA@
CONST	SEGMENT
??_C@_03CAHJGOGC@?5?$CL?$DN?$AA@ DB ' +=', 00H		; `string'
CONST	ENDS
;	COMDAT ??_C@_03DNJNKHCF@?5?3?$DN?$AA@
CONST	SEGMENT
??_C@_03DNJNKHCF@?5?3?$DN?$AA@ DB ' :=', 00H		; `string'
; Function compile flags: /Ogtp
CONST	ENDS
;	COMDAT _assign_symbol
_TEXT	SEGMENT
_sym$ = 8						; size = 4
_assign_symbol PROC					; COMDAT

; 34   : { switch ( sym )

	push	ebp
	mov	ebp, esp
	mov	eax, DWORD PTR _sym$[ebp]
	add	eax, -30001				; ffff8acfH
	cmp	eax, 4
	ja	SHORT $LN6@assign_sym
	jmp	DWORD PTR $LN10@assign_sym[eax*4]
$LN5@assign_sym:

; 35   :   { case ASSIGN_OP: return " :="; 

	mov	eax, OFFSET ??_C@_03DNJNKHCF@?5?3?$DN?$AA@

; 42   : } // end assign_symbol()

	pop	ebp
	ret	0
$LN4@assign_sym:

; 36   :     case PLUSASSIGN_OP: return " +=";

	mov	eax, OFFSET ??_C@_03CAHJGOGC@?5?$CL?$DN?$AA@

; 42   : } // end assign_symbol()

	pop	ebp
	ret	0
$LN3@assign_sym:

; 37   :     case SUBASSIGN_OP: return " -="; 

	mov	eax, OFFSET ??_C@_03CEPEBCNA@?5?9?$DN?$AA@

; 42   : } // end assign_symbol()

	pop	ebp
	ret	0
$LN2@assign_sym:

; 38   :     case MULTASSIGN_OP: return " *=";

	mov	eax, OFFSET ??_C@_03CBLLAEFF@?5?$CK?$DN?$AA@

; 42   : } // end assign_symbol()

	pop	ebp
	ret	0
$LN1@assign_sym:

; 39   :     case DIVASSIGN_OP: return " /=";

	mov	eax, OFFSET ??_C@_03CHHAMGLO@?5?1?$DN?$AA@

; 42   : } // end assign_symbol()

	pop	ebp
	ret	0
$LN6@assign_sym:

; 40   :   }
; 41   :   return ""; 

	mov	eax, OFFSET ??_C@_00CNPNBAHC@?$AA@

; 42   : } // end assign_symbol()

	pop	ebp
	ret	0
	npad	3
$LN10@assign_sym:
	DD	$LN5@assign_sym
	DD	$LN4@assign_sym
	DD	$LN3@assign_sym
	DD	$LN2@assign_sym
	DD	$LN1@assign_sym
_assign_symbol ENDP
_TEXT	ENDS
PUBLIC	_linebreak
EXTRN	_kb_memmove:PROC
EXTRN	_isalpha:PROC
EXTRN	_memset:PROC
_BSS	SEGMENT
_bracket_depth DD 01H DUP (?)
_linestart DD	01H DUP (?)
_pos	DD	01H DUP (?)
; Function compile flags: /Ogtp
_BSS	ENDS
;	COMDAT _linebreak
_TEXT	SEGMENT
tv401 = -12						; size = 4
_extra_indent$ = -8					; size = 4
_cc$ = -4						; size = 4
_linebreak PROC						; COMDAT

; 142  : { int i;

	push	ebp
	mov	ebp, esp
	sub	esp, 12					; 0000000cH

; 143  :   char *c,*cc;
; 144  :   char *minline = linestart + MINLEN;
; 145  :   int extra_indent = 0;
; 146  : 
; 147  :   if ( pos - linestart < GOODLEN ) return;

	mov	eax, DWORD PTR _pos
	mov	ecx, DWORD PTR _linestart
	mov	edx, eax
	sub	edx, ecx
	push	edi
	lea	edi, DWORD PTR [ecx+30]
	mov	DWORD PTR _extra_indent$[ebp], 0
	cmp	edx, 75					; 0000004bH
	jl	$LN5@linebreak

; 148  : 
; 149  :   cc = NULL;

	push	ebx
	xor	ebx, ebx

; 150  :  
; 151  :   /* search for end of quote, starting at end so don't break quote */
; 152  :   for ( c = pos-1 ; c != linestart ; c-- )

	dec	eax
	push	esi
	mov	DWORD PTR _cc$[ebp], ebx
	cmp	eax, ecx
	je	SHORT $LN137@linebreak
$LL83@linebreak:

; 153  :       if ( *c == '"' ) 

	cmp	BYTE PTR [eax], 34			; 00000022H
	je	SHORT $LN107@linebreak

; 150  :  
; 151  :   /* search for end of quote, starting at end so don't break quote */
; 152  :   for ( c = pos-1 ; c != linestart ; c-- )

	dec	eax
	cmp	eax, ecx
	jne	SHORT $LL83@linebreak

; 195  :        if ( *c == '(' ) { cc = c; break; }

	jmp	SHORT $LN137@linebreak
$LN107@linebreak:

; 154  :       { cc = (c[1] == ';' || c[1] == ',') ? c+1 : c; 

	mov	cl, BYTE PTR [eax+1]
	lea	edx, DWORD PTR [eax+1]
	cmp	cl, 59					; 0000003bH
	je	SHORT $LN87@linebreak
	cmp	cl, 44					; 0000002cH
	je	SHORT $LN87@linebreak
	mov	ebx, eax
	mov	DWORD PTR _cc$[ebp], ebx
	jmp	SHORT $LN88@linebreak
$LN87@linebreak:
	mov	ebx, edx
	mov	DWORD PTR _cc$[ebp], edx
$LN88@linebreak:

; 155  :         if ( c[1] == ',' ) extra_indent = 2;

	cmp	cl, 44					; 0000002cH
	jne	SHORT $LN79@linebreak
	mov	DWORD PTR _extra_indent$[ebp], 2
$LN79@linebreak:

; 156  :         break; 
; 157  :       } 
; 158  : 
; 159  :   if ( cc == NULL ) /* search for end bracket */

	test	ebx, ebx
	jne	$LN151@linebreak
$LN137@linebreak:

; 160  :      for ( c = linestart + GOODLEN ; c != minline ; c-- )

	mov	esi, DWORD PTR _linestart
	add	esi, 75					; 0000004bH
	mov	eax, esi
	cmp	eax, edi
	je	SHORT $LN150@linebreak
$LL77@linebreak:

; 161  :     if ( *c == '}' ) { cc = (c[1] == ';') ? c+1 : c; break; }

	cmp	BYTE PTR [eax], 125			; 0000007dH
	je	SHORT $LN108@linebreak

; 160  :      for ( c = linestart + GOODLEN ; c != minline ; c-- )

	dec	eax
	cmp	eax, edi
	jne	SHORT $LL77@linebreak

; 195  :        if ( *c == '(' ) { cc = c; break; }

	jmp	SHORT $LN150@linebreak
$LN108@linebreak:

; 161  :     if ( *c == '}' ) { cc = (c[1] == ';') ? c+1 : c; break; }

	cmp	BYTE PTR [eax+1], 59			; 0000003bH
	lea	ecx, DWORD PTR [eax+1]
	jne	SHORT $LN89@linebreak
	mov	ebx, ecx
	mov	DWORD PTR _cc$[ebp], ebx
	jmp	SHORT $LN90@linebreak
$LN89@linebreak:
	mov	ebx, eax
	mov	DWORD PTR _cc$[ebp], eax
$LN90@linebreak:

; 162  :   if ( cc == NULL ) /* scan back for handy ';' */ 

	test	ebx, ebx
	jne	$LN151@linebreak
$LN150@linebreak:

; 163  :     for ( c = linestart + GOODLEN ; c != minline ; c-- )

	mov	eax, esi
	cmp	eax, edi
	je	SHORT $LN157@linebreak
	npad	1
$LL72@linebreak:

; 164  :      if ( *c == ';' ) { cc = c;  break; }

	cmp	BYTE PTR [eax], 59			; 0000003bH
	je	$LN109@linebreak

; 163  :     for ( c = linestart + GOODLEN ; c != minline ; c-- )

	dec	eax
	cmp	eax, edi
	jne	SHORT $LL72@linebreak
$LN157@linebreak:

; 166  :      for ( c = linestart + GOODLEN ; c != minline ; c-- )

	mov	eax, esi
	cmp	eax, edi
	je	SHORT $LN158@linebreak
$LL67@linebreak:

; 167  :        if ( *c == '{' ) { cc = c; break; }

	cmp	BYTE PTR [eax], 123			; 0000007bH
	je	$LN109@linebreak

; 166  :      for ( c = linestart + GOODLEN ; c != minline ; c-- )

	dec	eax
	cmp	eax, edi
	jne	SHORT $LL67@linebreak
$LN158@linebreak:

; 168  :   if ( cc == NULL ) extra_indent = 2;
; 169  :   if ( cc == NULL ) /* just look for space */
; 170  :      for ( c = linestart + GOODLEN ; c != minline ; c-- )

	mov	eax, esi
	mov	DWORD PTR _extra_indent$[ebp], 2
	cmp	eax, edi
	je	SHORT $LN159@linebreak
	npad	1
$LL61@linebreak:

; 171  :        if ( *c == ' ' ) { cc = c; break; }

	cmp	BYTE PTR [eax], 32			; 00000020H
	je	SHORT $LN109@linebreak

; 168  :   if ( cc == NULL ) extra_indent = 2;
; 169  :   if ( cc == NULL ) /* just look for space */
; 170  :      for ( c = linestart + GOODLEN ; c != minline ; c-- )

	dec	eax
	cmp	eax, edi
	jne	SHORT $LL61@linebreak
$LN159@linebreak:

; 172  :   if ( cc == NULL ) /* just look for comma */
; 173  :      for ( c = linestart + GOODLEN ; c != minline ; c-- )

	mov	eax, esi
	cmp	eax, edi
	je	SHORT $LN160@linebreak
$LL56@linebreak:

; 174  :        if ( *c == ',' ) { cc = c; break; }

	cmp	BYTE PTR [eax], 44			; 0000002cH
	je	SHORT $LN109@linebreak

; 172  :   if ( cc == NULL ) /* just look for comma */
; 173  :      for ( c = linestart + GOODLEN ; c != minline ; c-- )

	dec	eax
	cmp	eax, edi
	jne	SHORT $LL56@linebreak
$LN160@linebreak:

; 175  :   if ( cc == NULL ) /* just look for = */
; 176  :      for ( c = linestart + GOODLEN ; c != minline ; c-- )

	mov	eax, esi
	cmp	eax, edi
	je	SHORT $LN161@linebreak
$LL51@linebreak:

; 177  :        if ( *c == '=' ) { cc = c; break; }

	cmp	BYTE PTR [eax], 61			; 0000003dH
	je	SHORT $LN109@linebreak

; 175  :   if ( cc == NULL ) /* just look for = */
; 176  :      for ( c = linestart + GOODLEN ; c != minline ; c-- )

	dec	eax
	cmp	eax, edi
	jne	SHORT $LL51@linebreak
$LN161@linebreak:

; 178  :   if ( cc == NULL ) /* just look for logic signs */
; 179  :      for ( c = linestart + GOODLEN ; c != minline ; c-- )

	mov	eax, esi
	cmp	eax, edi
	je	SHORT $LN144@linebreak
$LL46@linebreak:

; 180  :        if ( (*c == '&') || (*c == '%') ) 

	mov	cl, BYTE PTR [eax]
	cmp	cl, 38					; 00000026H
	je	SHORT $LN109@linebreak
	cmp	cl, 37					; 00000025H
	je	SHORT $LN109@linebreak

; 178  :   if ( cc == NULL ) /* just look for logic signs */
; 179  :      for ( c = linestart + GOODLEN ; c != minline ; c-- )

	dec	eax
	cmp	eax, edi
	jne	SHORT $LL46@linebreak
$LN144@linebreak:

; 181  :           { cc = c; break; }
; 182  :   if ( cc == NULL ) /* just look for arithmetic signs */
; 183  :    for ( c = linestart + GOODLEN ; c != minline ; c-- )

	cmp	esi, edi
	je	SHORT $LN152@linebreak
$LL40@linebreak:

; 184  :     if ( ((*c == '+') || (*c == '-')) &&  !(isalpha(c[-1]) && !isalpha(c[-2]))) 

	mov	al, BYTE PTR [esi]
	cmp	al, 43					; 0000002bH
	je	SHORT $LN36@linebreak
	cmp	al, 45					; 0000002dH
	jne	SHORT $LN39@linebreak
$LN36@linebreak:
	movsx	eax, BYTE PTR [esi-1]
	push	eax
	call	_isalpha
	add	esp, 4
	test	eax, eax
	je	SHORT $LN115@linebreak
	movsx	ecx, BYTE PTR [esi-2]
	push	ecx
	call	_isalpha
	add	esp, 4
	test	eax, eax
	jne	SHORT $LN115@linebreak
$LN39@linebreak:

; 181  :           { cc = c; break; }
; 182  :   if ( cc == NULL ) /* just look for arithmetic signs */
; 183  :    for ( c = linestart + GOODLEN ; c != minline ; c-- )

	dec	esi
	cmp	esi, edi
	jne	SHORT $LL40@linebreak

; 195  :        if ( *c == '(' ) { cc = c; break; }

	jmp	SHORT $LN152@linebreak
$LN109@linebreak:

; 164  :      if ( *c == ';' ) { cc = c;  break; }

	mov	ebx, eax

; 165  :   if ( cc == NULL ) /* just look for { */

	jmp	SHORT $LN164@linebreak
$LN115@linebreak:

; 185  :           { cc = c; break; }              /* don't split scientific notation */

	mov	ebx, esi
$LN164@linebreak:
	mov	DWORD PTR _cc$[ebp], ebx
$LN151@linebreak:

; 186  :   if ( (cc == NULL) || (cc - linestart < GOODLEN/2) )

	mov	esi, DWORD PTR _linestart
	mov	edx, ebx
	sub	edx, esi
	cmp	edx, 37					; 00000025H
	jge	SHORT $LN153@linebreak
$LN152@linebreak:

; 187  :      for ( c = linestart + GOODLEN ; c != minline ; c-- )

	mov	esi, DWORD PTR _linestart
	mov	edx, DWORD PTR _pos
	lea	eax, DWORD PTR [esi+75]
	cmp	eax, edi
	je	SHORT $LN156@linebreak
$LL32@linebreak:

; 188  :        if ( ((*c == '*') || (*c == '/')) && (c[1] != '=') && (c[1] != '*') ) 

	mov	cl, BYTE PTR [eax]
	cmp	cl, 42					; 0000002aH
	je	SHORT $LN28@linebreak
	cmp	cl, 47					; 0000002fH
	jne	SHORT $LN31@linebreak
$LN28@linebreak:
	mov	cl, BYTE PTR [eax+1]
	cmp	cl, 61					; 0000003dH
	je	SHORT $LN31@linebreak
	cmp	cl, 42					; 0000002aH
	jne	SHORT $LN116@linebreak
$LN31@linebreak:

; 187  :      for ( c = linestart + GOODLEN ; c != minline ; c-- )

	dec	eax
	cmp	eax, edi
	jne	SHORT $LL32@linebreak

; 195  :        if ( *c == '(' ) { cc = c; break; }

	jmp	SHORT $LN156@linebreak
$LN116@linebreak:

; 189  :          { cc = c; break; }

	mov	ebx, eax
	mov	DWORD PTR _cc$[ebp], ebx
	jmp	SHORT $LN156@linebreak
$LN153@linebreak:
	mov	edx, DWORD PTR _pos
$LN156@linebreak:

; 190  :   if ( cc == NULL ) /* just look for closing parenthesis */

	test	ebx, ebx
	jne	SHORT $LN19@linebreak

; 191  :      for ( c = linestart + GOODLEN ; c != minline ; c-- )

	lea	eax, DWORD PTR [esi+75]
	cmp	eax, edi
	je	SHORT $LN145@linebreak
	npad	5
$LL26@linebreak:

; 192  :        if ( *c == ')' ) { cc = c; break; }

	cmp	BYTE PTR [eax], 41			; 00000029H
	je	SHORT $LN118@linebreak

; 191  :      for ( c = linestart + GOODLEN ; c != minline ; c-- )

	dec	eax
	cmp	eax, edi
	jne	SHORT $LL26@linebreak
$LN145@linebreak:

; 193  :   if ( cc == NULL ) /* just look for opening parenthesis */
; 194  :      for ( c = linestart + GOODLEN ; c != minline ; c-- )

	lea	eax, DWORD PTR [esi+75]
	cmp	eax, edi
	je	SHORT $LN17@linebreak
$LL21@linebreak:

; 195  :        if ( *c == '(' ) { cc = c; break; }

	cmp	BYTE PTR [eax], 40			; 00000028H
	je	SHORT $LN118@linebreak

; 193  :   if ( cc == NULL ) /* just look for opening parenthesis */
; 194  :      for ( c = linestart + GOODLEN ; c != minline ; c-- )

	dec	eax
	cmp	eax, edi
	jne	SHORT $LL21@linebreak
$LN17@linebreak:

; 212  :   }
; 213  :   else
; 214  :   { if ( bracket_depth <= 0 ) *(pos++) = '\\';

	mov	eax, DWORD PTR _bracket_depth
	test	eax, eax
	jg	SHORT $LN4@linebreak
	mov	BYTE PTR [edx], 92			; 0000005cH
	inc	edx
$LN4@linebreak:

; 215  :     *(pos++) = '\n';

	inc	edx
	mov	BYTE PTR [edx-1], 10			; 0000000aH

; 216  :     linestart = pos;
; 217  :     for ( i = 0 ; i < INDENT*bracket_depth ; i++ ) *(pos++) = ' ';

	lea	esi, DWORD PTR [eax+eax]
	mov	DWORD PTR _pos, edx
	mov	DWORD PTR _linestart, edx
	test	esi, esi
	jle	SHORT $LN3@linebreak

; 215  :     *(pos++) = '\n';

	push	esi
	mov	edi, edx
	push	32					; 00000020H
	push	edi
	call	_memset
	add	esp, 12					; 0000000cH

; 216  :     linestart = pos;
; 217  :     for ( i = 0 ; i < INDENT*bracket_depth ; i++ ) *(pos++) = ' ';

	add	edi, esi
	mov	DWORD PTR _pos, edi
	mov	edx, edi
$LN3@linebreak:

; 218  :     *pos = 0;

	pop	esi
	mov	BYTE PTR [edx], 0
	pop	ebx
$LN5@linebreak:
	pop	edi

; 219  :   }
; 220  : } // end linebreak()

	mov	esp, ebp
	pop	ebp
	ret	0
$LN118@linebreak:

; 195  :        if ( *c == '(' ) { cc = c; break; }

	mov	DWORD PTR _cc$[ebp], eax
$LN19@linebreak:

; 196  :  
; 197  :   /* Have break, so do split, with *cc as last character on old line */
; 198  :   if ( cc ) 
; 199  :   { char *ch;
; 200  :     int bd = bracket_depth;
; 201  :     linestart = cc+3; 

	mov	ebx, DWORD PTR _cc$[ebp]

; 202  :      c = cc+1 ; while (*c == ' ' ) c++ ;  /* skip spaces */

	cmp	BYTE PTR [ebx+1], 32			; 00000020H
	mov	esi, DWORD PTR _bracket_depth
	lea	eax, DWORD PTR [ebx+3]
	lea	ecx, DWORD PTR [ebx+1]
	mov	DWORD PTR tv401[ebp], eax
	mov	DWORD PTR _linestart, eax
	jne	SHORT $LN148@linebreak
$LL16@linebreak:
	inc	ecx
	cmp	BYTE PTR [ecx], 32			; 00000020H
	je	SHORT $LL16@linebreak
$LN148@linebreak:

; 203  :      for ( ch = c ; ch < pos ; ch++ ) /* unwind bracket depth */

	mov	edi, DWORD PTR _pos
	mov	edx, ecx
	cmp	ecx, edi
	jae	SHORT $LN12@linebreak
$LL14@linebreak:

; 204  :        if ( *ch == '{' ) bd--;

	mov	al, BYTE PTR [edx]
	cmp	al, 123					; 0000007bH
	jne	SHORT $LN11@linebreak
	dec	esi
	jmp	SHORT $LN13@linebreak
$LN11@linebreak:

; 205  :        else if ( *ch == '}' ) bd++;

	cmp	al, 125					; 0000007dH
	jne	SHORT $LN13@linebreak
	inc	esi
$LN13@linebreak:

; 203  :      for ( ch = c ; ch < pos ; ch++ ) /* unwind bracket depth */

	inc	edx
	cmp	edx, edi
	jb	SHORT $LL14@linebreak
$LN12@linebreak:

; 206  :      pos = cc + 3 + INDENT*bd + extra_indent + strlen(c);

	mov	eax, ecx
	lea	edi, DWORD PTR [eax+1]
	npad	4
$LL146@linebreak:
	mov	dl, BYTE PTR [eax]
	inc	eax
	test	dl, dl
	jne	SHORT $LL146@linebreak
	mov	edx, DWORD PTR _extra_indent$[ebp]
	sub	eax, edi
	lea	eax, DWORD PTR [eax+esi*2]
	add	eax, DWORD PTR _cc$[ebp]
	lea	eax, DWORD PTR [eax+edx+3]
	mov	DWORD PTR _pos, eax

; 207  :      kb_memmove(cc+3+INDENT*bd+extra_indent,c,strlen(c));

	mov	eax, ecx
	lea	edi, DWORD PTR [eax+1]
$LL147@linebreak:
	mov	dl, BYTE PTR [eax]
	inc	eax
	test	dl, dl
	jne	SHORT $LL147@linebreak
	sub	eax, edi
	push	eax
	mov	eax, DWORD PTR _extra_indent$[ebp]
	push	ecx
	mov	ecx, DWORD PTR _cc$[ebp]
	lea	edx, DWORD PTR [ecx+esi*2]
	lea	ecx, DWORD PTR [edx+eax+3]
	push	ecx
	call	_kb_memmove

; 208  :      cc[1] = (char)(bd ? ' ' : '\\');
; 209  :      cc[2] = '\n';

	mov	eax, DWORD PTR _cc$[ebp]

; 210  :      for ( i = 0 ; i < INDENT*bd + extra_indent ; i++ ) cc[i+3] = ' ';

	mov	ecx, DWORD PTR _extra_indent$[ebp]
	add	esp, 12					; 0000000cH
	mov	edx, esi
	neg	edx
	sbb	dl, dl
	and	dl, -60					; ffffffc4H
	mov	BYTE PTR [eax+2], 10			; 0000000aH
	add	dl, 92					; 0000005cH
	lea	eax, DWORD PTR [ecx+esi*2]
	mov	BYTE PTR [ebx+1], dl
	test	eax, eax
	jle	SHORT $LN8@linebreak

; 206  :      pos = cc + 3 + INDENT*bd + extra_indent + strlen(c);

	mov	edx, DWORD PTR tv401[ebp]
	push	eax
	push	32					; 00000020H
	push	edx
	call	_memset
	add	esp, 12					; 0000000cH
$LN8@linebreak:

; 211  :      *pos = 0;

	mov	eax, DWORD PTR _pos
	pop	esi
	pop	ebx
	mov	BYTE PTR [eax], 0
	pop	edi

; 219  :   }
; 220  : } // end linebreak()

	mov	esp, ebp
	pop	ebp
	ret	0
_linebreak ENDP
_TEXT	ENDS
PUBLIC	_newline
; Function compile flags: /Ogtp
;	COMDAT _newline
_TEXT	SEGMENT
_newline PROC						; COMDAT

; 229  : {

	push	esi

; 230  :   int i;
; 231  :   *(pos++) = '\n';

	mov	esi, DWORD PTR _pos
	push	edi

; 232  :   for ( i = 0 ; i < INDENT*bracket_depth ; i++ )

	mov	edi, DWORD PTR _bracket_depth
	mov	BYTE PTR [esi], 10			; 0000000aH
	inc	esi
	add	edi, edi
	mov	DWORD PTR _pos, esi
	test	edi, edi
	jle	SHORT $LN8@newline

; 230  :   int i;
; 231  :   *(pos++) = '\n';

	push	edi
	push	32					; 00000020H
	push	esi
	call	_memset
	add	esp, 12					; 0000000cH

; 232  :   for ( i = 0 ; i < INDENT*bracket_depth ; i++ )

	add	esi, edi
	mov	DWORD PTR _pos, esi
$LN8@newline:

; 233  :     *(pos++) = ' ';
; 234  :   *pos = 0;
; 235  :   linestart = pos;

	pop	edi
	mov	DWORD PTR _linestart, esi
	mov	BYTE PTR [esi], 0
	pop	esi

; 236  : 
; 237  : } // end newline()

	ret	0
_newline ENDP
_TEXT	ENDS
PUBLIC	??_C@_09COHMOBAO@EXPRINT?4C?$AA@		; `string'
PUBLIC	_check_room_left
EXTRN	_list_realloc:PROC
_BSS	SEGMENT
_strsize DD	01H DUP (?)
_strstart DD	01H DUP (?)
_BSS	ENDS
;	COMDAT ??_C@_09COHMOBAO@EXPRINT?4C?$AA@
CONST	SEGMENT
??_C@_09COHMOBAO@EXPRINT?4C?$AA@ DB 'EXPRINT.C', 00H	; `string'
; Function compile flags: /Ogtp
CONST	ENDS
;	COMDAT _check_room_left
_TEXT	SEGMENT
_n$ = 8							; size = 4
_check_room_left PROC					; COMDAT

; 247  : {

	push	ebp
	mov	ebp, esp

; 248  :    /* check room remaining */
; 249  :    if ( (pos + n - strstart) > (int)strsize )

	mov	eax, DWORD PTR _strstart
	mov	ecx, DWORD PTR _strsize
	push	ebx
	mov	ebx, DWORD PTR _n$[ebp]
	push	edi
	mov	edi, DWORD PTR _pos
	sub	edi, eax
	lea	edx, DWORD PTR [edi+ebx]
	cmp	edx, ecx
	jle	SHORT $LN1@check_room

; 250  :     { size_t len = pos - strstart;
; 251  :       size_t linespot = linestart - strstart;

	push	esi
	mov	esi, DWORD PTR _linestart

; 252  :       strstart = my_list_realloc(strstart,strsize + 1000 + n,ETERNAL_BLOCK); 

	push	252					; 000000fcH
	push	OFFSET ??_C@_09COHMOBAO@EXPRINT?4C?$AA@
	push	60138					; 0000eaeaH
	lea	ecx, DWORD PTR [ecx+ebx+1000]
	push	ecx
	push	eax
	sub	esi, eax
	call	_list_realloc

; 253  :       strsize += 1000 + n;

	mov	edx, DWORD PTR _strsize
	lea	ecx, DWORD PTR [edx+ebx+1000]

; 254  :       linestart = strstart + linespot;

	lea	edx, DWORD PTR [eax+esi]
	add	esp, 20					; 00000014H
	mov	DWORD PTR _strstart, eax

; 255  :       pos = strstart + len;

	add	eax, edi
	mov	DWORD PTR _strsize, ecx
	mov	DWORD PTR _linestart, edx
	mov	DWORD PTR _pos, eax
	pop	esi
$LN1@check_room:
	pop	edi
	pop	ebx

; 256  :     }
; 257  : } // end check_room_left()

	pop	ebp
	ret	0
_check_room_left ENDP
_TEXT	ENDS
PUBLIC	??_C@_0BC@FIENHNPC@String?5too?5long?4?6?$AA@	; `string'
PUBLIC	_convert_string
EXTRN	_kb_error:PROC
;	COMDAT ??_C@_0BC@FIENHNPC@String?5too?5long?4?6?$AA@
CONST	SEGMENT
??_C@_0BC@FIENHNPC@String?5too?5long?4?6?$AA@ DB 'String too long.', 0aH, 00H ; `string'
; Function compile flags: /Ogtp
CONST	ENDS
;	COMDAT _convert_string
_TEXT	SEGMENT
_c$ = 8							; size = 4
_p$ = 12						; size = 4
_space$ = 16						; size = 4
_convert_string PROC					; COMDAT

; 286  : { int count;

	push	ebp
	mov	ebp, esp
	push	esi

; 287  :   /* convert to C escape sequences */
; 288  :   *(p++) = '"';

	mov	esi, DWORD PTR _p$[ebp]
	push	edi

; 289  :   if ( c )

	mov	edi, DWORD PTR _c$[ebp]
	mov	BYTE PTR [esi], 34			; 00000022H
	inc	esi
	test	edi, edi
	je	$LN1@convert_st

; 290  :   { for ( count=5 ; *c && count<space; c++ )

	mov	cl, BYTE PTR [edi]
	mov	eax, 5
	test	cl, cl
	je	$LN1@convert_st
	push	ebx
	mov	ebx, DWORD PTR _space$[ebp]
	npad	6
$LL20@convert_st:
	cmp	eax, ebx
	jge	SHORT $LN11@convert_st

; 291  :     { switch ( *c )

	movsx	edx, cl
	add	edx, -8					; fffffff8H
	cmp	edx, 84					; 00000054H
	ja	SHORT $LN2@convert_st
	movzx	edx, BYTE PTR $LN19@convert_st[edx]
	jmp	DWORD PTR $LN22@convert_st[edx*4]
$LN8@convert_st:

; 292  :       { case '\n': *(p++) = '\\'; *(p++) = 'n'; count += 2; break;

	mov	WORD PTR [esi], 28252			; 00006e5cH
	add	esi, 2
	add	eax, 2
	jmp	SHORT $LN12@convert_st
$LN7@convert_st:

; 293  :         case '\r': *(p++) = '\\'; *(p++) = 'r'; count += 2; break;

	mov	WORD PTR [esi], 29276			; 0000725cH
	add	esi, 2
	add	eax, 2
	jmp	SHORT $LN12@convert_st
$LN6@convert_st:

; 294  :         case '\t': *(p++) = '\\'; *(p++) = 't'; count += 2; break;

	mov	WORD PTR [esi], 29788			; 0000745cH
	add	esi, 2
	add	eax, 2
	jmp	SHORT $LN12@convert_st
$LN5@convert_st:

; 295  :         case '\b': *(p++) = '\\'; *(p++) = 'b'; count += 2; break;

	mov	WORD PTR [esi], 25180			; 0000625cH
	add	esi, 2
	add	eax, 2
	jmp	SHORT $LN12@convert_st
$LN4@convert_st:

; 296  :         case '"': *(p++) = '\\'; *(p++) = '"'; count += 2; break;

	mov	WORD PTR [esi], 8796			; 0000225cH
	add	esi, 2
	add	eax, 2
	jmp	SHORT $LN12@convert_st
$LN3@convert_st:

; 297  :         case '\\': *(p++) = '\\'; *(p++) = '\\'; count += 2; break;

	mov	WORD PTR [esi], 23644			; 00005c5cH
	add	esi, 2
	add	eax, 2
	jmp	SHORT $LN12@convert_st
$LN2@convert_st:

; 298  :         default: *(p++) = *c; count++;

	mov	BYTE PTR [esi], cl
	inc	esi
	inc	eax
$LN12@convert_st:

; 290  :   { for ( count=5 ; *c && count<space; c++ )

	mov	cl, BYTE PTR [edi+1]
	inc	edi
	test	cl, cl
	jne	SHORT $LL20@convert_st

; 303  :   }
; 304  :   *(p++) = '"';

	pop	ebx
	pop	edi
	mov	WORD PTR [esi], 34			; 00000022H
	pop	esi

; 305  :   *p = 0;
; 306  :   return;
; 307  : }   // end convert_string()

	pop	ebp
	ret	0
$LN11@convert_st:

; 299  :       }
; 300  :    }
; 301  :    if ( *c )

	cmp	BYTE PTR [edi], 0
	je	SHORT $LN21@convert_st

; 302  :      kb_error(4556,"String too long.\n",RECOVERABLE);

	push	1
	push	OFFSET ??_C@_0BC@FIENHNPC@String?5too?5long?4?6?$AA@
	push	4556					; 000011ccH
	call	_kb_error
	add	esp, 12					; 0000000cH
$LN21@convert_st:
	pop	ebx
$LN1@convert_st:
	pop	edi

; 303  :   }
; 304  :   *(p++) = '"';

	mov	WORD PTR [esi], 34			; 00000022H
	pop	esi

; 305  :   *p = 0;
; 306  :   return;
; 307  : }   // end convert_string()

	pop	ebp
	ret	0
$LN22@convert_st:
	DD	$LN5@convert_st
	DD	$LN6@convert_st
	DD	$LN8@convert_st
	DD	$LN7@convert_st
	DD	$LN4@convert_st
	DD	$LN3@convert_st
	DD	$LN2@convert_st
$LN19@convert_st:
	DB	0
	DB	1
	DB	2
	DB	6
	DB	6
	DB	3
	DB	6
	DB	6
	DB	6
	DB	6
	DB	6
	DB	6
	DB	6
	DB	6
	DB	6
	DB	6
	DB	6
	DB	6
	DB	6
	DB	6
	DB	6
	DB	6
	DB	6
	DB	6
	DB	6
	DB	6
	DB	4
	DB	6
	DB	6
	DB	6
	DB	6
	DB	6
	DB	6
	DB	6
	DB	6
	DB	6
	DB	6
	DB	6
	DB	6
	DB	6
	DB	6
	DB	6
	DB	6
	DB	6
	DB	6
	DB	6
	DB	6
	DB	6
	DB	6
	DB	6
	DB	6
	DB	6
	DB	6
	DB	6
	DB	6
	DB	6
	DB	6
	DB	6
	DB	6
	DB	6
	DB	6
	DB	6
	DB	6
	DB	6
	DB	6
	DB	6
	DB	6
	DB	6
	DB	6
	DB	6
	DB	6
	DB	6
	DB	6
	DB	6
	DB	6
	DB	6
	DB	6
	DB	6
	DB	6
	DB	6
	DB	6
	DB	6
	DB	6
	DB	6
	DB	5
_convert_string ENDP
_TEXT	ENDS
PUBLIC	??_C@_01PKGAHCOL@?$CJ?$AA@			; `string'
PUBLIC	??_C@_02DKCKIIND@?$CFs?$AA@			; `string'
PUBLIC	_exprint_recur
PUBLIC	??_C@_01ODHLEDKK@?$CI?$AA@			; `string'
PUBLIC	_binary_print
EXTRN	_sprintf:PROC
;	COMDAT ??_C@_01PKGAHCOL@?$CJ?$AA@
CONST	SEGMENT
??_C@_01PKGAHCOL@?$CJ?$AA@ DB ')', 00H			; `string'
CONST	ENDS
;	COMDAT ??_C@_02DKCKIIND@?$CFs?$AA@
CONST	SEGMENT
??_C@_02DKCKIIND@?$CFs?$AA@ DB '%s', 00H		; `string'
CONST	ENDS
;	COMDAT ??_C@_01ODHLEDKK@?$CI?$AA@
CONST	SEGMENT
??_C@_01ODHLEDKK@?$CI?$AA@ DB '(', 00H			; `string'
; Function compile flags: /Ogtp
CONST	ENDS
;	COMDAT _binary_print
_TEXT	SEGMENT
_node$ = 8						; size = 4
_prec_parent$ = 12					; size = 4
_prec1$ = 16						; size = 4
_op$ = 20						; size = 4
_prec2$ = 24						; size = 4
_binary_print PROC					; COMDAT

; 3452 : {

	push	ebp
	mov	ebp, esp
	push	ebx

; 3453 :   if ( prec_parent > prec1 ) 

	mov	ebx, DWORD PTR _prec_parent$[ebp]
	push	esi
	push	edi
	mov	edi, DWORD PTR _prec1$[ebp]
	cmp	ebx, edi
	jle	SHORT $LN2@binary_pri

; 3454 :    { sprintf(pos,"(");

	mov	eax, DWORD PTR _pos
	push	OFFSET ??_C@_01ODHLEDKK@?$CI?$AA@
	push	eax
	call	_sprintf

; 3455 :      pos += strlen(pos);

	mov	eax, DWORD PTR _pos
	add	esp, 8
	lea	edx, DWORD PTR [eax+1]
	npad	5
$LL5@binary_pri:
	mov	cl, BYTE PTR [eax]
	inc	eax
	test	cl, cl
	jne	SHORT $LL5@binary_pri
	sub	eax, edx
	add	DWORD PTR _pos, eax
$LN2@binary_pri:

; 3456 :    }
; 3457 :   exprint_recur(node+node->left,prec1);

	mov	esi, DWORD PTR _node$[ebp]
	mov	ecx, DWORD PTR [esi+4]
	imul	ecx, 168				; 000000a8H
	add	ecx, esi
	push	edi
	push	ecx
	call	_exprint_recur

; 3458 :   sprintf(pos,"%s",op);

	mov	edx, DWORD PTR _op$[ebp]
	mov	eax, DWORD PTR _pos
	push	edx
	push	OFFSET ??_C@_02DKCKIIND@?$CFs?$AA@
	push	eax
	call	_sprintf

; 3459 :   pos += strlen(pos);

	mov	eax, DWORD PTR _pos
	add	esp, 20					; 00000014H
	lea	edx, DWORD PTR [eax+1]
$LL6@binary_pri:
	mov	cl, BYTE PTR [eax]
	inc	eax
	test	cl, cl
	jne	SHORT $LL6@binary_pri

; 3460 :   exprint_recur(node+node->right,prec2);

	mov	ecx, DWORD PTR _prec2$[ebp]
	sub	eax, edx
	mov	edx, DWORD PTR [esi+8]
	add	DWORD PTR _pos, eax
	imul	edx, 168				; 000000a8H
	push	ecx
	add	edx, esi
	push	edx
	call	_exprint_recur
	add	esp, 8

; 3461 :   if ( prec_parent > prec1 )

	cmp	ebx, edi
	pop	edi
	pop	esi
	pop	ebx
	jle	SHORT $LN1@binary_pri

; 3462 :     { sprintf(pos,")");

	mov	eax, DWORD PTR _pos
	push	OFFSET ??_C@_01PKGAHCOL@?$CJ?$AA@
	push	eax
	call	_sprintf

; 3463 :       pos += strlen(pos);

	mov	eax, DWORD PTR _pos
	add	esp, 8
	lea	edx, DWORD PTR [eax+1]
	npad	4
$LL7@binary_pri:
	mov	cl, BYTE PTR [eax]
	inc	eax
	test	cl, cl
	jne	SHORT $LL7@binary_pri
	sub	eax, edx
	add	DWORD PTR _pos, eax
$LN1@binary_pri:

; 3464 :     }
; 3465 :   return;
; 3466 : } // end binary_print()

	pop	ebp
	ret	0
_binary_print ENDP
_TEXT	ENDS
PUBLIC	_print_attr
; Function compile flags: /Ogtp
;	COMDAT _print_attr
_TEXT	SEGMENT
_node$ = 8						; size = 4
_word$ = 12						; size = 4
_print_attr PROC					; COMDAT

; 3509 : {

	push	ebp
	mov	ebp, esp

; 3510 :   sprintf(pos,"%s",word); 

	mov	eax, DWORD PTR _word$[ebp]
	mov	ecx, DWORD PTR _pos
	push	eax
	push	OFFSET ??_C@_02DKCKIIND@?$CFs?$AA@
	push	ecx
	call	_sprintf

; 3511 :   pos += strlen(pos); return;

	mov	eax, DWORD PTR _pos
	add	esp, 12					; 0000000cH
	lea	edx, DWORD PTR [eax+1]
$LL3@print_attr:
	mov	cl, BYTE PTR [eax]
	inc	eax
	test	cl, cl
	jne	SHORT $LL3@print_attr
	sub	eax, edx
	add	DWORD PTR _pos, eax

; 3512 : } // end print_attr()

	pop	ebp
	ret	0
_print_attr ENDP
_TEXT	ENDS
PUBLIC	_print_set_attr
; Function compile flags: /Ogtp
;	COMDAT _print_set_attr
_TEXT	SEGMENT
_node$ = 8						; size = 4
_word$ = 12						; size = 4
_print_set_attr PROC					; COMDAT

; 3524 : {

	push	ebp
	mov	ebp, esp

; 3525 :   sprintf(pos,"%s",word); 

	mov	eax, DWORD PTR _word$[ebp]
	mov	ecx, DWORD PTR _pos
	push	eax
	push	OFFSET ??_C@_02DKCKIIND@?$CFs?$AA@
	push	ecx
	call	_sprintf

; 3526 :   pos += strlen(pos); return;

	mov	eax, DWORD PTR _pos
	add	esp, 12					; 0000000cH
	lea	edx, DWORD PTR [eax+1]
$LL3@print_set_:
	mov	cl, BYTE PTR [eax]
	inc	eax
	test	cl, cl
	jne	SHORT $LL3@print_set_
	sub	eax, edx
	add	DWORD PTR _pos, eax

; 3527 : } // end print_set_attr()

	pop	ebp
	ret	0
_print_set_attr ENDP
_TEXT	ENDS
PUBLIC	_print_quote
EXTRN	_msgmax:DWORD
; Function compile flags: /Ogtp
;	COMDAT _print_quote
_TEXT	SEGMENT
_c$ = 8							; size = 4
_print_quote PROC					; COMDAT

; 267  : { check_room_left(strlen(c)+30);

	push	ebp
	mov	ebp, esp
	push	esi
	mov	esi, DWORD PTR _c$[ebp]
	mov	eax, esi
	lea	edx, DWORD PTR [eax+1]
	npad	4
$LL3@print_quot:
	mov	cl, BYTE PTR [eax]
	inc	eax
	test	cl, cl
	jne	SHORT $LL3@print_quot
	sub	eax, edx
	add	eax, 30					; 0000001eH
	push	eax
	call	_check_room_left

; 268  :   convert_string(c,pos,msgmax);

	mov	eax, DWORD PTR _msgmax
	mov	ecx, DWORD PTR _pos
	push	eax
	push	ecx
	push	esi
	call	_convert_string

; 269  :   pos += strlen(pos);

	mov	eax, DWORD PTR _pos
	add	esp, 16					; 00000010H
	lea	edx, DWORD PTR [eax+1]
	pop	esi
$LL4@print_quot:
	mov	cl, BYTE PTR [eax]
	inc	eax
	test	cl, cl
	jne	SHORT $LL4@print_quot
	sub	eax, edx
	add	DWORD PTR _pos, eax

; 270  : 
; 271  : } // end print_quote()

	pop	ebp
	ret	0
_print_quote ENDP
_TEXT	ENDS
PUBLIC	??_C@_0P@DFGJEPPA@procedure?5?$CFs?5?$CI?$AA@	; `string'
PUBLIC	??_C@_0DJ@JKBDOPAM@Printing?5of?5expression?5node?5type@ ; `string'
PUBLIC	??_C@_09GPGAJHPD@?$CIunknown?$CJ?$AA@		; `string'
PUBLIC	??_C@_03NBFACCKM@?$CJ?$DL?6?$AA@		; `string'
PUBLIC	??_C@_02MNMNLDAI@?$CJ?6?$AA@			; `string'
PUBLIC	??_C@_0BB@CHELAHME@function?5?$CFs?5?$CFs?5?$CI?$AA@ ; `string'
PUBLIC	??_C@_03HHCAAOLL@?$CJ?3?$CI?$AA@		; `string'
PUBLIC	??_C@_01HCONENDN@?$HL?$AA@			; `string'
PUBLIC	??_C@_08CIJIHMDB@?$CFc?5?3?3?3?$DN?5?$AA@	; `string'
PUBLIC	??_C@_0L@PJAPHMCA@show_expr?5?$AA@		; `string'
PUBLIC	??_C@_0BD@CJDDBPIE@make_thread_lists?5?$AA@	; `string'
PUBLIC	??_C@_05OINEHIOC@else?5?$AA@			; `string'
PUBLIC	??_C@_04BBJKINFE@?5?$HM?$HM?5?$AA@		; `string'
PUBLIC	??_C@_04NEABMJPE@?5?$CG?$CG?5?$AA@		; `string'
PUBLIC	??_C@_03MGHMLHIL@?5?$DM?5?$AA@			; `string'
PUBLIC	??_C@_03MFPIGDOF@?5?$DO?5?$AA@			; `string'
PUBLIC	??_C@_04PLNGDCJO@?5?$DM?$DN?5?$AA@		; `string'
PUBLIC	??_C@_04FBNPPKBF@?5?$DO?$DN?5?$AA@		; `string'
PUBLIC	??_C@_04FJKFLNNM@?5?$CB?$DN?5?$AA@		; `string'
PUBLIC	??_C@_04EDGKFFPL@?5?$DN?$DN?5?$AA@		; `string'
PUBLIC	??_C@_02GFKOMOKH@?5?$CI?$AA@			; `string'
PUBLIC	??_C@_0CM@GOMFLGCL@Internal?5error?3?5bad?5SET_ATTRIBUT@ ; `string'
PUBLIC	??_C@_02OPGFLNEK@p4?$AA@			; `string'
PUBLIC	??_C@_02KACECLIN@p3?$AA@			; `string'
PUBLIC	??_C@_02LJDPBKMM@p2?$AA@			; `string'
PUBLIC	??_C@_02JCBCEJAP@p1?$AA@			; `string'
PUBLIC	??_C@_03MJGCILEH@p1?$FL?$AA@			; `string'
PUBLIC	??_C@_02ENMDKDPO@x8?$AA@			; `string'
PUBLIC	??_C@_02MKFLLPDB@x7?$AA@			; `string'
PUBLIC	??_C@_02NDEAIOHA@x6?$AA@			; `string'
PUBLIC	??_C@_02PIGNNNLD@x5?$AA@			; `string'
PUBLIC	??_C@_02OBHGOMPC@x4?$AA@			; `string'
PUBLIC	??_C@_01GLPGHMHM@z?$AA@				; `string'
PUBLIC	??_C@_02KODHHKDF@x3?$AA@			; `string'
PUBLIC	??_C@_01EANLCPLP@y?$AA@				; `string'
PUBLIC	??_C@_09ENCBKJCG@boundary?5?$AA@		; `string'
PUBLIC	??_C@_01CLKCMJKC@?5?$AA@			; `string'
PUBLIC	??_C@_08KEAKBNCK@mpi_task?$AA@			; `string'
PUBLIC	??_C@_06EMCPHFGM@volume?$AA@			; `string'
PUBLIC	??_C@_04GOEDGNCF@area?$AA@			; `string'
PUBLIC	??_C@_08BKGECACE@dihedral?$AA@			; `string'
PUBLIC	??_C@_07MEIPJMCG@sqcurve?$AA@			; `string'
PUBLIC	??_C@_04NFDDIEML@wrap?$AA@			; `string'
PUBLIC	??_C@_09BPLDEHMH@mid_facet?$AA@			; `string'
PUBLIC	??_C@_08EJNLDOMI@mid_edge?$AA@			; `string'
PUBLIC	??_C@_0BC@KBMGOFNF@no_hessian_normal?$AA@	; `string'
PUBLIC	??_C@_08HEBLBDOI@volfixed?$AA@			; `string'
PUBLIC	??_C@_0P@FKOPBMAL@mean_curvature?$AA@		; `string'
PUBLIC	??_C@_06IJDLPEM@length?$AA@			; `string'
PUBLIC	??_C@_04FKMICODN@show?$AA@			; `string'
PUBLIC	??_C@_0M@KPMDGEHG@orientation?$AA@		; `string'
PUBLIC	??_C@_08JONLCJIM@backbody?$AA@			; `string'
PUBLIC	??_C@_09GNLMKAKO@frontbody?$AA@			; `string'
PUBLIC	??_C@_09OPNKCLNO@backcolor?$AA@			; `string'
PUBLIC	??_C@_0L@DKEJANLD@frontcolor?$AA@		; `string'
PUBLIC	??_C@_05PEENBMOG@color?$AA@			; `string'
PUBLIC	??_C@_07HKCFKCGH@valence?$AA@			; `string'
PUBLIC	??_C@_03PLGJJJLK@oid?$AA@			; `string'
PUBLIC	??_C@_02EGCJHIOB@id?$AA@			; `string'
PUBLIC	??_C@_08LAAABFKN@original?$AA@			; `string'
PUBLIC	??_C@_0L@DKEDBIHO@noncontent?$AA@		; `string'
PUBLIC	??_C@_05OFLEIIDM@fixed?$AA@			; `string'
PUBLIC	??_C@_0M@BIHLDDLK@axial_point?$AA@		; `string'
PUBLIC	??_C@_0M@DFLKEBKH@tetra_point?$AA@		; `string'
PUBLIC	??_C@_0N@DHNCNHBM@triple_point?$AA@		; `string'
PUBLIC	??_C@_04CIOKLOBL@midv?$AA@			; `string'
PUBLIC	??_C@_0N@KCHJBOEN@on_boundary?5?$AA@		; `string'
PUBLIC	??_C@_06OPEHNENO@?5value?$AA@			; `string'
PUBLIC	??_C@_0BF@ICBGKBMB@value_of_constraint?5?$AA@	; `string'
PUBLIC	??_C@_0BA@DDGBMOJE@hit_constraint?5?$AA@	; `string'
PUBLIC	??_C@_0P@NECEKGOL@on_constraint?5?$AA@		; `string'
PUBLIC	??_C@_0BE@FCGNGMMH@on_method_instance?5?$AA@	; `string'
PUBLIC	??_C@_0N@LJDCMFBO@on_quantity?5?$AA@		; `string'
PUBLIC	??_C@_05MKKKJBDN@?5not?5?$AA@			; `string'
PUBLIC	??_C@_0L@OBLFGKBL@ellipticE?$CI?$AA@		; `string'
PUBLIC	??_C@_0L@OLCLEHBB@ellipticK?$CI?$AA@		; `string'
PUBLIC	??_C@_05BNEJBMEK@atan?$CI?$AA@			; `string'
PUBLIC	??_C@_05DLKIBAMI@acos?$CI?$AA@			; `string'
PUBLIC	??_C@_05GKNNOILF@asin?$CI?$AA@			; `string'
PUBLIC	??_C@_04BGJPAGPE@log?$CI?$AA@			; `string'
PUBLIC	??_C@_04MPCILOFG@exp?$CI?$AA@			; `string'
PUBLIC	??_C@_04KJABJGAL@tan?$CI?$AA@			; `string'
PUBLIC	??_C@_04IPOAJKIJ@cos?$CI?$AA@			; `string'
PUBLIC	??_C@_04NOJFGCPE@sin?$CI?$AA@			; `string'
PUBLIC	??_C@_06LLNDMCPI@atanh?$CI?$AA@			; `string'
PUBLIC	??_C@_06JGKGLJIB@asinh?$CI?$AA@			; `string'
PUBLIC	??_C@_06LIEDMBPI@acosh?$CI?$AA@			; `string'
PUBLIC	??_C@_05LKLMPLHE@tanh?$CI?$AA@			; `string'
PUBLIC	??_C@_05LJCMPIHE@cosh?$CI?$AA@			; `string'
PUBLIC	??_C@_05JHMJIAAN@sinh?$CI?$AA@			; `string'
PUBLIC	??_C@_04HEKBBDE@abs?$CI?$AA@			; `string'
PUBLIC	??_C@_05MLDBPPPC@ceil?$CI?$AA@			; `string'
PUBLIC	??_C@_06IHMMIDCC@floor?$CI?$AA@			; `string'
PUBLIC	??_C@_05MIKKOOHN@sqrt?$CI?$AA@			; `string'
PUBLIC	??_C@_03IINDJHJM@?$CJ?$FO2?$AA@			; `string'
PUBLIC	??_C@_0O@HFHNBMBB@wrap_inverse?$CI?$AA@		; `string'
PUBLIC	??_C@_0O@ICELJODO@wrap_compose?$CI?$AA@		; `string'
PUBLIC	??_C@_06NKPIGJJO@atan2?$CI?$AA@			; `string'
PUBLIC	??_C@_0BF@NPPPB@incompleteEllipticE?$CI?$AA@	; `string'
PUBLIC	??_C@_0BF@CELEBKI@incompleteEllipticF?$CI?$AA@	; `string'
PUBLIC	??_C@_08KPBNEKJD@minimum?$CI?$AA@		; `string'
PUBLIC	??_C@_08HIPGPINC@maximum?$CI?$AA@		; `string'
PUBLIC	??_C@_02FKAPCJPD@?$CK?$CK?$AA@			; `string'
PUBLIC	??_C@_04NCKAHEA@?$FO?$CF1d?$AA@			; `string'
PUBLIC	??_C@_05LKLPDELB@?$FO?$CI?91?$CJ?$AA@		; `string'
PUBLIC	??_C@_03HBOLMMFA@?$CJ?$DP?$CI?$AA@		; `string'
PUBLIC	??_C@_06GNLBBOML@?5idiv?5?$AA@			; `string'
PUBLIC	??_C@_06FKGIFEHI@?5imod?5?$AA@			; `string'
PUBLIC	??_C@_01FGNFDNOH@?$CF?$AA@			; `string'
PUBLIC	??_C@_01NBENCBCI@?$CK?$AA@			; `string'
PUBLIC	??_C@_03MHLONNLM@?5?$DN?5?$AA@			; `string'
PUBLIC	??_C@_01KMDKNFGN@?1?$AA@			; `string'
PUBLIC	??_C@_03NLJIHOMM@?5?9?5?$AA@			; `string'
PUBLIC	??_C@_03NPBFACHO@?5?$CL?5?$AA@			; `string'
PUBLIC	??_C@_05FFIBBKIO@usr?$CFd?$AA@			; `string'
PUBLIC	??_C@_08KAJJHIBE@total?5?$CFs?$AA@		; `string'
PUBLIC	??_C@_05NNFHCGPF@?$CFs?4?$CFs?$AA@		; `string'
PUBLIC	??_C@_0O@LMDPDPKO@?$CFs?4p_velocity?$AA@	; `string'
PUBLIC	??_C@_0L@BLNBIMLF@?$CFs?4p_force?$AA@		; `string'
PUBLIC	??_C@_0M@KHJHMLJD@?$CFs?4volconst?$AA@		; `string'
PUBLIC	??_C@_0L@IHGBGJIM@?$CFs?4modulus?$AA@		; `string'
PUBLIC	??_C@_08COKEDFMM@?$CFs?4value?$AA@		; `string'
PUBLIC	??_C@_09GLPADBIC@?$CFs?4target?$AA@		; `string'
PUBLIC	??_C@_0M@NFGODCJB@?$CFs?4pressure?$AA@		; `string'
PUBLIC	??_C@_0N@KCPNEKBJ@?$CFs?4conserved?$AA@		; `string'
PUBLIC	??_C@_0N@IJLOHMIH@?$CFs?4info_only?$AA@		; `string'
PUBLIC	??_C@_09FICCFCDB@?$CFs?4energy?$AA@		; `string'
PUBLIC	??_C@_08MHEECOGP@?$CFs?4fixed?$AA@		; `string'
PUBLIC	??_C@_0BB@KCCCOBAL@?$CFs?4tolerance?5?$CFs?5?$AA@ ; `string'
PUBLIC	??_C@_0BA@NBKDJPNO@?$CFs?4volconst?5?$CFs?5?$AA@ ; `string'
PUBLIC	??_C@_0O@DJDLCKNJ@?$CFs?4target?5?$CFs?5?$AA@	; `string'
PUBLIC	??_C@_0P@HKKNDHOK@?$CFs?4modulus?5?$CFs?5?$AA@	; `string'
PUBLIC	??_C@_03IKJDKKNH@p?$CFd?$AA@			; `string'
PUBLIC	??_C@_04CGHINKND@?$CFc?$CFd?$AA@		; `string'
PUBLIC	??_C@_02HAOIJKIC@?$CFc?$AA@			; `string'
PUBLIC	??_C@_01LFCBOECM@?4?$AA@			; `string'
PUBLIC	??_C@_01BBODEMC@G?$AA@				; `string'
PUBLIC	??_C@_01KGKMHCOC@e?$AA@				; `string'
PUBLIC	??_C@_02OAHAJOFD@pi?$AA@			; `string'
PUBLIC	??_C@_06OEKDGAI@?$CF1?415g?$AA@			; `string'
PUBLIC	??_C@_08HEHJIEEA@?4bodies?5?$AA@		; `string'
PUBLIC	??_C@_07LNGBBGLG@bodies?5?$AA@			; `string'
PUBLIC	??_C@_08JAFMBMKE@?4facets?5?$AA@		; `string'
PUBLIC	??_C@_07FJEEIOFC@facets?5?$AA@			; `string'
PUBLIC	??_C@_07NIBDCADL@?4edges?5?$AA@			; `string'
PUBLIC	??_C@_06MMKBFAEI@edges?5?$AA@			; `string'
PUBLIC	??_C@_0L@GFMBBPLG@?4vertices?5?$AA@		; `string'
PUBLIC	??_C@_09DJCGGCPN@vertices?5?$AA@		; `string'
PUBLIC	??_C@_0M@HIBDCNLL@facetedges?5?$AA@		; `string'
PUBLIC	??_C@_0O@KOCBPMJD@loghistogram?$CI?$AA@		; `string'
PUBLIC	??_C@_0L@MHHMKAFA@histogram?$CI?$AA@		; `string'
PUBLIC	??_C@_06MFABEKNP@count?$CI?$AA@			; `string'
PUBLIC	??_C@_04MDBONKFA@avg?$CI?$AA@			; `string'
PUBLIC	??_C@_04MGBMDEIK@sum?$CI?$AA@			; `string'
PUBLIC	??_C@_04BEFELBH@min?$CI?$AA@			; `string'
PUBLIC	??_C@_04NMFKLMDK@max?$CI?$AA@			; `string'
PUBLIC	??_C@_08ECALEGKJ@foreach?5?$AA@			; `string'
PUBLIC	??_C@_07OFLPJMBB@?5where?5?$AA@			; `string'
PUBLIC	??_C@_04ENCLHBOC@set?5?$AA@			; `string'
PUBLIC	??_C@_0P@BMDMDICD@hessian_normal?$AA@		; `string'
PUBLIC	??_C@_0M@FGEAHLHH@boundary?5?$CFs?$AA@		; `string'
PUBLIC	??_C@_08KIKGFOKI@boundary?$AA@			; `string'
PUBLIC	??_C@_0O@NGEKOGMC@constraint?5?$CFs?$AA@	; `string'
PUBLIC	??_C@_0BA@FCDDEKDG@method_instance?$AA@		; `string'
PUBLIC	??_C@_08OCNIHGPN@quantity?$AA@			; `string'
PUBLIC	??_C@_0M@HCINNPA@constraint?5?$AA@		; `string'
PUBLIC	??_C@_0L@HOHHMJMM@constraint?$AA@		; `string'
PUBLIC	??_C@_07IJGPCJHC@opacity?$AA@			; `string'
PUBLIC	??_C@_08POHEELCJ@pressure?$AA@			; `string'
PUBLIC	??_C@_06JJLAMBGK@target?$AA@			; `string'
PUBLIC	??_C@_08IMINLCCL@volconst?$AA@			; `string'
PUBLIC	??_C@_07HAFFKDBK@density?$AA@			; `string'
PUBLIC	??_C@_04BGEKJPHF@bare?$AA@			; `string'
PUBLIC	??_C@_05CBPKLGJM@phase?$AA@			; `string'
PUBLIC	??_C@_0L@ODCODBLD@no_display?$AA@		; `string'
PUBLIC	??_C@_0N@OFAMNBMC@centerofmass?$AA@		; `string'
PUBLIC	??_C@_0N@CMIGFPCH@no_transform?$AA@		; `string'
PUBLIC	??_C@_05EPBFLBEJ@unset?$AA@			; `string'
PUBLIC	??_C@_09PFNGBABC@no_refine?$AA@			; `string'
PUBLIC	_set_print
PUBLIC	??_C@_03KCHOJKKI@set?$AA@			; `string'
PUBLIC	??_C@_0M@JAGBIOBF@hit_partner?$AA@		; `string'
PUBLIC	??_C@_04PJDNGLKJ@self?$AA@			; `string'
PUBLIC	??_C@_04NPDIJEBN@?4?$CFs?$FL?$AA@		; `string'
PUBLIC	??_C@_0L@HCNHJHCK@facetedge?$FL?$AA@		; `string'
PUBLIC	??_C@_05KGEIKHIF@body?$FL?$AA@			; `string'
PUBLIC	??_C@_06JBIAMLBO@facet?$FL?$AA@			; `string'
PUBLIC	??_C@_05MLBEFDNG@edge?$FL?$AA@			; `string'
PUBLIC	??_C@_07GMIBILEA@vertex?$FL?$AA@		; `string'
PUBLIC	??_C@_01FJMABOPO@x?$AA@				; `string'
PUBLIC	??_C@_0N@ICOOBCNI@vertexnormal?$AA@		; `string'
PUBLIC	??_C@_04KMMDIKEB@?5?$CFs?5?$AA@			; `string'
PUBLIC	??_C@_09OLACHOMO@whereami?5?$AA@		; `string'
PUBLIC	??_C@_0BF@KJJDFLC@reverse_orientation?5?$AA@	; `string'
PUBLIC	??_C@_0N@FPEGLGLO@t1_edgeswap?5?$AA@		; `string'
PUBLIC	??_C@_0BC@PDFHAOFI@pop_quad_to_quad?5?$AA@	; `string'
PUBLIC	??_C@_0BB@HLINOHGN@pop_tri_to_edge?5?$AA@	; `string'
PUBLIC	??_C@_0BB@POFEJAAI@pop_edge_to_tri?5?$AA@	; `string'
PUBLIC	??_C@_0O@PMHDHEAM@equiangulate?5?$AA@		; `string'
PUBLIC	??_C@_0BH@LEHBHCDC@rawest_vertex_average?5?$AA@	; `string'
PUBLIC	??_C@_0BE@LKOOEJIA@raw_vertex_average?5?$AA@	; `string'
PUBLIC	??_C@_0BA@EEDBPPPI@vertex_average?5?$AA@	; `string'
PUBLIC	??_C@_09KNDPNNNB@edgeswap?5?$AA@		; `string'
PUBLIC	??_C@_06HBAHJGAJ@unfix?5?$AA@			; `string'
PUBLIC	??_C@_04KGOHCPMM@fix?5?$AA@			; `string'
PUBLIC	??_C@_04GCDPEDIK@pop?5?$AA@			; `string'
PUBLIC	??_C@_09PLEKKNFD@dissolve?5?$AA@		; `string'
PUBLIC	??_C@_07OHMIIBBL@refine?5?$AA@			; `string'
PUBLIC	??_C@_07GNDMACL@delete?5?$AA@			; `string'
PUBLIC	??_C@_05BKNPGPBN@list?5?$AA@			; `string'
PUBLIC	??_C@_0BB@BEPCFKIE@list?5bottominfo?5?$AA@	; `string'
PUBLIC	??_C@_0O@NKCPFOBE@list?5topinfo?5?$AA@		; `string'
PUBLIC	??_C@_0P@PKNGHLMP@list?5boundary?5?$AA@		; `string'
PUBLIC	??_C@_0BB@OAEJJBFK@list?5constraint?5?$AA@	; `string'
PUBLIC	??_C@_0BD@PNMIFIHL@list?5constraint?5?$CFs?$AA@	; `string'
PUBLIC	??_C@_0BI@HLLNDPKC@list?5method_instance?5?$CFs?$AA@ ; `string'
PUBLIC	??_C@_0BB@DBLGCJFN@list?5quantity?5?$CFs?$AA@	; `string'
PUBLIC	??_C@_0BB@PEELHDCG@list?5attributes?5?$AA@	; `string'
PUBLIC	??_C@_0BB@FEIJOBAO@list?5procedures?5?$AA@	; `string'
PUBLIC	??_C@_05FPPEDHBM@exit?5?$AA@			; `string'
PUBLIC	??_C@_02NAHKEMLJ@j?5?$AA@			; `string'
PUBLIC	??_C@_07KIABCNGA@ometis?5?$AA@			; `string'
PUBLIC	??_C@_0N@EHMDFEMF@edge_divide?5?$AA@		; `string'
PUBLIC	??_C@_06LGDJAKGO@notch?5?$AA@			; `string'
PUBLIC	??_C@_0M@FOAHLABL@body?9metis?5?$AA@		; `string'
PUBLIC	??_C@_07CMELCDJK@kmetis?5?$AA@			; `string'
PUBLIC	??_C@_0BA@DAJKOHFA@metis_readjust?5?$AA@	; `string'
PUBLIC	??_C@_06FJIEJPGA@metis?5?$AA@			; `string'
PUBLIC	??_C@_09LIMDMHNO@edgeweed?5?$AA@		; `string'
PUBLIC	??_C@_09NIJIHPDB@areaweed?5?$AA@		; `string'
PUBLIC	??_C@_05HEPJHAGN@move?5?$AA@			; `string'
PUBLIC	??_C@_0O@MBIEAIBG@hessian_seek?5?$AA@		; `string'
PUBLIC	??_C@_07MAHMAIKH@saddle?5?$AA@			; `string'
PUBLIC	??_C@_0BA@ODEJHEGJ@inverse_periods?$AA@		; `string'
PUBLIC	??_C@_01OHGJGJJP@?$FL?$AA@			; `string'
PUBLIC	??_C@_0O@IMAKABFD@torus_periods?$AA@		; `string'
PUBLIC	??_C@_05HMJDJDEN@ritz?$CI?$AA@			; `string'
PUBLIC	??_C@_0M@ELLGNMC@eigenprobe?5?$AA@		; `string'
PUBLIC	??_C@_08PJBNJOBI@lanczos?5?$AA@			; `string'
PUBLIC	??_C@_09KFKMHJDA@lagrange?5?$AA@		; `string'
PUBLIC	??_C@_07CPAFJHCE@sizeof?$CI?$AA@		; `string'
PUBLIC	??_C@_0L@PEDDBAKP@sizeof?$CI?$CFs?$CJ?$AA@	; `string'
PUBLIC	??_C@_03CJPCKGBB@?9?9?5?$AA@			; `string'
PUBLIC	??_C@_03IBEIFHP@?$CL?$CL?5?$AA@			; `string'
PUBLIC	??_C@_04HDOCAJNK@?$CFs?$CFs?$AA@		; `string'
PUBLIC	??_C@_03GODGAAIB@?5?9?9?$AA@			; `string'
PUBLIC	??_C@_03DMOBNLLF@?5?$CL?$CL?$AA@		; `string'
PUBLIC	??_C@_06PCAHILNI@?$CFs?5?1?$DN?5?$AA@		; `string'
PUBLIC	??_C@_06MFNJHLOK@?$CFs?5?$CK?$DN?5?$AA@		; `string'
PUBLIC	??_C@_06FIAOEDFD@?$CFs?5?9?$DN?5?$AA@		; `string'
PUBLIC	??_C@_06HNGFBMIP@?$CFs?5?$CL?$DN?5?$AA@		; `string'
PUBLIC	??_C@_0BA@DEIKBKKN@?$CFs?4no_dump?5off?5?$AA@	; `string'
PUBLIC	??_C@_0P@HHJNMIJK@?$CFs?4no_dump?5on?5?$AA@	; `string'
PUBLIC	??_C@_06JFMACMHF@?$CFs?5?3?$DN?5?$AA@		; `string'
PUBLIC	??_C@_07DMFHGJKH@?$CFs?5?3?3?$DN?5?$AA@		; `string'
PUBLIC	??_C@_0BI@LALPNJNO@?$CFs?4on_assign_call?5?3?$DN?5?$CFs?$AA@ ; `string'
PUBLIC	??_C@_09PFECEPHA@?$CFs?4pscale?$AA@		; `string'
PUBLIC	??_C@_09OAOCGHOC@?$CFs?4pdelta?$AA@		; `string'
PUBLIC	??_C@_03ECLNAHEM@?$CFs?$CI?$AA@			; `string'
PUBLIC	??_C@_05DNIIFBMG@?$CFs?5?$CFs?$AA@		; `string'
PUBLIC	??_C@_0N@CBEMEMEM@burchard?5?$CFd?5?$AA@	; `string'
PUBLIC	??_C@_08HNDHMNDL@detorus?5?$AA@			; `string'
PUBLIC	??_C@_0M@BKEGOHCM@subcommand?5?$AA@		; `string'
PUBLIC	??_C@_0N@CKNFECO@repartition?5?$AA@		; `string'
PUBLIC	??_C@_0P@IMACOPAH@free_discards?5?$AA@		; `string'
PUBLIC	??_C@_0O@JHIKHPAF@dump_memlist?5?$AA@		; `string'
PUBLIC	??_C@_0O@DBMMCKIH@renumber_all?5?$AA@		; `string'
PUBLIC	??_C@_0BH@EOIPALJK@convert_to_quantities?5?$AA@	; `string'
PUBLIC	??_C@_0O@PFJLCOPI@sobolev_seek?5?$AA@		; `string'
PUBLIC	??_C@_0BA@NMPGOPNM@dirichlet_seek?5?$AA@	; `string'
PUBLIC	??_C@_0BB@ELMGCAEE@reorder_storage?5?$AA@	; `string'
PUBLIC	??_C@_08KJFKOLCI@sobolev?5?$AA@			; `string'
PUBLIC	??_C@_0L@IAMJHGMM@dirichlet?5?$AA@		; `string'
PUBLIC	??_C@_0O@DJOBGCIG@hessian_menu?5?$AA@		; `string'
PUBLIC	??_C@_06HGIJDJHM@showq?5?$AA@			; `string'
PUBLIC	??_C@_0O@ECJLFEKE@simplex_to_fe?$AA@		; `string'
PUBLIC	??_C@_08PGAFJEDJ@hessian?5?$AA@			; `string'
PUBLIC	??_C@_07IJJIIMNN@rebody?5?$AA@			; `string'
PUBLIC	??_C@_0L@IJDLAEPK@quadratic?5?$AA@		; `string'
PUBLIC	??_C@_07CBPAACLJ@linear?5?$AA@			; `string'
PUBLIC	??_C@_0N@DEBOAOL@extrapolate?5?$AA@		; `string'
PUBLIC	??_C@_08DFMDENPP@rawestv?5?$AA@			; `string'
PUBLIC	??_C@_07ODMECLPM@counts?5?$AA@			; `string'
PUBLIC	??_C@_07CJPBOPFA@recalc?5?$AA@			; `string'
PUBLIC	??_C@_06FGENMIEJ@alice?5?$AA@			; `string'
PUBLIC	??_C@_06KPNPMBGA@shell?5?$AA@			; `string'
PUBLIC	??_C@_02NIKCNPOK@g?5?$AA@			; `string'
PUBLIC	??_C@_06KCFEIDLL@utest?5?$AA@			; `string'
PUBLIC	??_C@_0BA@GBCKKNJC@stability_test?5?$AA@	; `string'
PUBLIC	??_C@_05JPJFAEAO@rawv?5?$AA@			; `string'
PUBLIC	??_C@_0N@GJPIEBBJ@long_jiggle?5?$AA@		; `string'
PUBLIC	??_C@_06JFCNFLHN@check?5?$AA@			; `string'
PUBLIC	??_C@_09PKPCIIOC@show_vol?5?$AA@		; `string'
PUBLIC	??_C@_0N@DHGONGJP@colormap?5?3?$DN?5?$AA@	; `string'
PUBLIC	??_C@_05OEFDBPID@dump?5?$AA@			; `string'
PUBLIC	??_C@_0M@HIGONMEP@is_defined?$CI?$AA@		; `string'
PUBLIC	??_C@_0BB@JMHAAMMM@view_transforms?$FL?$AA@	; `string'
PUBLIC	??_C@_0BM@CEMFOJOL@view_transform_swap_colors?$FL?$AA@ ; `string'
PUBLIC	??_C@_0BH@OFAOMDFN@view_transform_parity?$FL?$AA@ ; `string'
PUBLIC	??_C@_09FLILHFPP@geomview?5?$AA@		; `string'
PUBLIC	??_C@_0M@OHJEHJPG@show_trans?5?$AA@		; `string'
PUBLIC	??_C@_0O@GDNEAALN@replace_load?5?$AA@		; `string'
PUBLIC	??_C@_08EECCEAIE@addload?5?$AA@			; `string'
PUBLIC	??_C@_09MFEIJFLH@permload?5?$AA@		; `string'
PUBLIC	??_C@_05HDKJKGNJ@load?5?$AA@			; `string'
PUBLIC	??_C@_05MFNNJD@read?5?$AA@			; `string'
PUBLIC	??_C@_05MELDNFB@exec?5?$AA@			; `string'
PUBLIC	??_C@_07JJGFGBJN@system?5?$AA@			; `string'
PUBLIC	??_C@_06NEAHAKFG@chdir?5?$AA@			; `string'
PUBLIC	??_C@_05EJCIALOD@zoom?5?$AA@			; `string'
PUBLIC	??_C@_02MBMLGKBP@p?5?$AA@			; `string'
PUBLIC	??_C@_0N@GEMGAMM@autochop?5?3?$DN?5?$AA@	; `string'
PUBLIC	??_C@_0M@IAPMLCJI@thicken?5?3?$DN?5?$AA@	; `string'
PUBLIC	??_C@_0O@PDNHPOPF@diffusion?5?3?$DN?5?$AA@	; `string'
PUBLIC	??_C@_0M@LIDLFDJI@gravity?5?1?$DN?5?$AA@	; `string'
PUBLIC	??_C@_0M@IPOFKDKK@gravity?5?$CK?$DN?5?$AA@	; `string'
PUBLIC	??_C@_0M@BCDCJLBD@gravity?5?9?$DN?5?$AA@	; `string'
PUBLIC	??_C@_0M@DHFJMEMP@gravity?5?$CL?$DN?5?$AA@	; `string'
PUBLIC	??_C@_02OAOPJJAK@G?5?$AA@			; `string'
PUBLIC	??_C@_02PJIGCMPP@P?5?$AA@			; `string'
PUBLIC	??_C@_02ONHIBMNM@M?5?$AA@			; `string'
PUBLIC	??_C@_02MOBKFBJA@y?5?$AA@			; `string'
PUBLIC	??_C@_02OJPFGAGO@K?5?$AA@			; `string'
PUBLIC	??_C@_0BB@GOPKHFKJ@gap_constant?5?3?$DN?5?$AA@	; `string'
PUBLIC	??_C@_09FFMPJNE@optimize?5?$AA@			; `string'
PUBLIC	??_C@_02NFDFFKDM@m?5?$AA@			; `string'
PUBLIC	??_C@_01LBDDMOBJ@?$FN?$AA@			; `string'
PUBLIC	??_C@_02DNJFBPJB@?$FN?$FL?$AA@			; `string'
PUBLIC	??_C@_0N@PHJBGNDM@view_matrix?$FL?$AA@		; `string'
PUBLIC	??_C@_06OHLOMLHG@?$CFs?5?$CFs?5?$AA@		; `string'
PUBLIC	??_C@_0BB@DGCNEFB@set?5?$CFs?5conserved?$AA@	; `string'
PUBLIC	??_C@_0BB@CICBOCMP@set?5?$CFs?5info_only?$AA@	; `string'
PUBLIC	??_C@_0O@FLJLJLDN@set?5?$CFs?5energy?$AA@	; `string'
PUBLIC	??_C@_0N@MIGPCOON@set?5?$CFs?5fixed?$AA@	; `string'
PUBLIC	??_C@_08PCDKFCAB@unfix?5?$CFs?$AA@		; `string'
PUBLIC	??_C@_06PGAKKNMC@fix?5?$CFs?$AA@		; `string'
PUBLIC	??_C@_03IKGEINEE@?$CFs?5?$AA@			; `string'
PUBLIC	??_C@_05HHHBCPMM@?$CI?$CFs?$CJ?5?$AA@		; `string'
PUBLIC	??_C@_09MJJMJFJL@ooglfile?5?$AA@		; `string'
PUBLIC	??_C@_0BB@GPAKCJEL@binary_off_file?5?$AA@	; `string'
PUBLIC	??_C@_0M@DEHHELJH@postscript?5?$AA@		; `string'
PUBLIC	??_C@_09PFLHEGFB@geompipe?5?$AA@		; `string'
PUBLIC	??_C@_0N@MKIHCHHJ@geompipe?5?$CFs?5?$AA@	; `string'
PUBLIC	??_C@_0N@MCGFEOAK@geomview?5?$CFs?5?$AA@	; `string'
PUBLIC	??_C@_0P@DNFKKNDG@keylogfile?5?$CFs?5?$AA@	; `string'
PUBLIC	??_C@_0M@DIIJBMIL@logfile?5?$CFs?5?$AA@		; `string'
PUBLIC	??_C@_0N@HEDCIHMP@autochop?5?$CFs?5?$AA@	; `string'
PUBLIC	??_C@_0N@HJPMHHGF@optimize?5?$CFs?5?$AA@	; `string'
PUBLIC	??_C@_03MPPIHBHJ@OFF?$AA@			; `string'
PUBLIC	??_C@_02BFICIOJL@ON?$AA@			; `string'
PUBLIC	??_C@_05NMKAOHIM@?8?$CFc?8?5?$AA@		; `string'
PUBLIC	??_C@_03JGECCODE@?$CFc?5?$AA@			; `string'
PUBLIC	??_C@_08DLMHGJKG@?5?$HM?5?$CC?$CFs?$CC?5?$AA@	; `string'
PUBLIC	??_C@_03LGOGDKEL@?5?$HM?5?$AA@			; `string'
PUBLIC	??_C@_0M@OKBJPLDC@?5?$DO?$DO?$DO2?5?$CC?$CFs?$CC?5?$AA@ ; `string'
PUBLIC	??_C@_06CPNAODOJ@?5?$DO?$DO?$DO2?5?$AA@		; `string'
PUBLIC	??_C@_0L@BOPKLIIE@?5?$DO?$DO2?5?$CC?$CFs?$CC?5?$AA@ ; `string'
PUBLIC	??_C@_05PFBPMHED@?5?$DO?$DO2?5?$AA@		; `string'
PUBLIC	??_C@_0L@EJFFKNML@?5?$DO?$DO?$DO?5?$CC?$CFs?$CC?5?$AA@ ; `string'
PUBLIC	??_C@_05PMAFDOCH@?5?$DO?$DO?$DO?5?$AA@		; `string'
PUBLIC	??_C@_09HOKDEKNN@?5?$DO?$DO?5?$CC?$CFs?$CC?5?$AA@ ; `string'
PUBLIC	??_C@_04FDJJEEEM@?5?$DO?$DO?5?$AA@		; `string'
PUBLIC	??_C@_03MDDDKBAO@?5?$DL?5?$AA@			; `string'
PUBLIC	??_C@_03NMJBNGBA@?5?$CJ?5?$AA@			; `string'
PUBLIC	??_C@_06PDKNMLLK@for?5?$CI?5?$AA@		; `string'
PUBLIC	??_C@_08JPBKNIFM@?5while?5?$CI?$AA@		; `string'
PUBLIC	??_C@_03LMPAOIAI@do?5?$AA@			; `string'
PUBLIC	??_C@_02KCKGHPCA@?$CJ?5?$AA@			; `string'
PUBLIC	??_C@_07JOMAJBDI@while?5?$CI?$AA@		; `string'
PUBLIC	??_C@_02EEBIPDF@?5?$DL?$AA@			; `string'
PUBLIC	??_C@_04JKFHOPAN@?5do?5?$AA@			; `string'
PUBLIC	??_C@_08FAEHJPPB@?5?$CJ?5then?5?$AA@		; `string'
PUBLIC	??_C@_05HEFMBOOH@if?5?$CI?5?$AA@		; `string'
PUBLIC	??_C@_0M@EJKGLOKJ@exprint?5?$CFs?5?$AA@		; `string'
PUBLIC	??_C@_0O@FKNOAAMF@?4vertexnormal?$AA@		; `string'
PUBLIC	??_C@_09CFOJLIBO@print?5?$CFs?5?$AA@		; `string'
PUBLIC	??_C@_09DJMPBLGO@print?5?$CFc?5?$AA@		; `string'
PUBLIC	??_C@_0P@EFNJCGJK@binary_printf?5?$AA@		; `string'
PUBLIC	??_C@_0L@HKMPKJEI@errprintf?5?$AA@		; `string'
PUBLIC	??_C@_07HJAAEDEB@printf?5?$AA@			; `string'
PUBLIC	??_C@_08DDAFHHJG@sprintf?5?$AA@			; `string'
PUBLIC	??_C@_0O@CIMNNBLM@datafilename?5?$AA@		; `string'
PUBLIC	??_C@_0BC@DILLGGAL@warning_messages?5?$AA@	; `string'
PUBLIC	??_C@_0BA@OACEACLK@transform_expr?5?$AA@	; `string'
PUBLIC	??_C@_08GICKAJOK@history?5?$AA@			; `string'
PUBLIC	??_C@_09PGLJMKEH@continue?5?$AA@		; `string'
PUBLIC	??_C@_0M@PLJOCOHN@continue?5?$CFd?$AA@		; `string'
PUBLIC	??_C@_06DLBOLJLP@break?5?$AA@			; `string'
PUBLIC	??_C@_08OOPHKIOJ@break?5?$CFd?$AA@		; `string'
PUBLIC	??_C@_0O@DICBBEEI@date_and_time?$AA@		; `string'
PUBLIC	??_C@_0BA@DKKLMIEO@evolver_version?$AA@		; `string'
PUBLIC	??_C@_07BKFMFPMO@return?5?$AA@			; `string'
PUBLIC	??_C@_05PDJBBECF@pause?$AA@			; `string'
PUBLIC	??_C@_0BA@OHLAHHBM@reset_profiling?$AA@		; `string'
PUBLIC	??_C@_0BA@IBOFDNEL@print?5profiling?$AA@	; `string'
PUBLIC	??_C@_0N@HEKOHBEK@flush_counts?$AA@		; `string'
PUBLIC	??_C@_0N@BFEIANBO@reset_counts?$AA@		; `string'
PUBLIC	??_C@_0BL@KFJJNIHG@unset?5constraint?5?$CFs?5global?$AA@ ; `string'
PUBLIC	??_C@_0BJ@DICHIFDL@set?5constraint?5?$CFs?5global?$AA@ ; `string'
PUBLIC	??_C@_0BC@MDBPAFMN@unset?5constraint?5?$AA@	; `string'
PUBLIC	??_C@_08EALMPJOD@?5global?5?$AA@		; `string'
PUBLIC	??_C@_0BA@FHOMNLOC@set?5constraint?5?$AA@	; `string'
PUBLIC	??_C@_04LAOFCJDB@?5?$CFc?5?$AA@			; `string'
PUBLIC	??_C@_08JODPKOOO@?$FN?4normal?$AA@		; `string'
PUBLIC	??_C@_02DPKJAMEF@?$CFd?$AA@			; `string'
PUBLIC	??_C@_0N@PGNKLKGF@?4constraint?$FL?$AA@		; `string'
PUBLIC	??_C@_03KEMCFGNA@?4?$CFs?$AA@			; `string'
PUBLIC	??_C@_03EEBNCBOD@?5?$CFs?$AA@			; `string'
PUBLIC	??_C@_06EBLGCNEC@print?5?$AA@			; `string'
PUBLIC	??_C@_03NONHGIEJ@?5?$CK?5?$AA@			; `string'
PUBLIC	??_C@_04LJHKMKOP@?5?1?$DN?5?$AA@		; `string'
PUBLIC	??_C@_04IOKEDKNN@?5?$CK?$DN?5?$AA@		; `string'
PUBLIC	??_C@_04BDHDACGE@?5?9?$DN?5?$AA@		; `string'
PUBLIC	??_C@_04DGBIFNLI@?5?$CL?$DN?5?$AA@		; `string'
PUBLIC	??_C@_04NOLNGNEC@?5?3?$DN?5?$AA@		; `string'
PUBLIC	??_C@_04KBDJOJNB@?$FL?$CFd?$FN?$AA@		; `string'
PUBLIC	??_C@_0N@KLABKDID@define?5?$CFs?5?$CFs?$AA@	; `string'
PUBLIC	??_C@_0L@LLAPKIKO@?5function?5?$AA@		; `string'
PUBLIC	??_C@_0BK@OOLEHMJN@define?5?$CFs?5attribute?5?$CFs?5?$CFs?$AA@ ; `string'
PUBLIC	??_C@_0DE@INHIPMAN@?1?$CK?5Definition?5of?5boundary?5?$CFd?5was@ ; `string'
PUBLIC	??_C@_0DE@BLDPCHML@?1?$CK?5Definition?5of?5boundary?5?$CFs?5was@ ; `string'
PUBLIC	??_C@_0DG@DNPIOFL@?1?$CK?5Definition?5of?5constraint?5?$CFd?5w@ ; `string'
PUBLIC	??_C@_0DG@JFJIFFJN@?1?$CK?5Definition?5of?5constraint?5?$CFs?5w@ ; `string'
PUBLIC	??_C@_0DL@PIPFCDIL@?1?$CK?5Definition?5of?5method?5instance@ ; `string'
PUBLIC	??_C@_0DE@JKPGKFB@?1?$CK?5Definition?5of?5quantity?5?$CFs?5was@ ; `string'
PUBLIC	??_C@_06FOGGDAIC@local?5?$AA@			; `string'
PUBLIC	??_C@_01CELHOKLL@?$HN?$AA@			; `string'
PUBLIC	??_C@_02MNJOIFPO@?$HL?5?$AA@			; `string'
PUBLIC	??_C@_0N@LGCBLIJP@facet_merge?$CI?$AA@		; `string'
PUBLIC	??_C@_0M@PJOFJFAC@edge_merge?$CI?$AA@		; `string'
PUBLIC	??_C@_0O@NNPGAOLH@vertex_merge?$CI?$AA@		; `string'
PUBLIC	??_C@_0BH@CJCHMGEH@matrix_determinant?$CI?$CFs?$CJ?$AA@ ; `string'
PUBLIC	??_C@_0BK@EMGJAFJA@matrix_multiply?$CI?$CFs?0?$CFs?0?$CFs?$CJ?$AA@ ; `string'
PUBLIC	??_C@_0BG@ICBGMJLO@matrix_inverse?$CI?$CFs?0?$CFs?$CJ?$AA@ ; `string'
PUBLIC	??_C@_0BA@BCKHPENM@valid_boundary?$CI?$AA@	; `string'
PUBLIC	??_C@_0BC@PBMMAEOP@valid_constraint?$CI?$AA@	; `string'
PUBLIC	??_C@_02CAJMAEOF@?$FN?$CJ?$AA@			; `string'
PUBLIC	??_C@_0BC@HAFOGDEI@valid_element?$CI?$CFs?$FL?$AA@ ; `string'
PUBLIC	??_C@_08IHIBGNIK@?$CFs?$CFd?$EA?$CFd?6?$AA@	; `string'
PUBLIC	??_C@_02BINJDKOC@?5?9?$AA@			; `string'
PUBLIC	??_C@_08PANPCJAE@new_body?$AA@			; `string'
PUBLIC	??_C@_0L@EONBLCMF@new_facet?$CI?$AA@		; `string'
PUBLIC	??_C@_09DHJMEBMJ@new_edge?$CI?$AA@		; `string'
PUBLIC	??_C@_0BA@JMJFPOOP@facet_crosscut?$CI?$AA@	; `string'
PUBLIC	??_C@_0M@CPPKCNFJ@new_vertex?$CI?$AA@		; `string'
PUBLIC	??_C@_01IHBHIGKO@?0?$AA@			; `string'
PUBLIC	??_C@_0N@MHMLBPOO@wrap_vertex?$CI?$AA@		; `string'
PUBLIC	??_C@_03LHCEFAHM@?5?$HN?5?$AA@			; `string'
PUBLIC	??_C@_0M@PNBOCBHK@?5function?5?$HL?$AA@		; `string'
PUBLIC	??_C@_02KEGNLNML@?0?5?$AA@			; `string'
PUBLIC	??_C@_02ENHNEHDL@?$DL?$GA?$AA@			; `string'
PUBLIC	??_C@_0P@CIAKADLN@?$FN?4nonpositive?5?$AA@	; `string'
PUBLIC	??_C@_0P@EPFNEJMO@?$FN?4nonnegative?5?$AA@	; `string'
PUBLIC	??_C@_08KOIKPBDI@?$FN?4fixed?5?$AA@		; `string'
PUBLIC	??_C@_0P@OLFNJOBD@is_constraint?$FL?$AA@	; `string'
PUBLIC	??_C@_0N@GCKGCNIB@delete_text?$CI?$AA@		; `string'
PUBLIC	??_C@_0O@BIKLGEAI@display_text?$CI?$AA@		; `string'
PUBLIC	??_C@_02LNAEAIDO@?$DL?5?$AA@			; `string'
PUBLIC	??_C@_08EJMMFDE@logfile?5?$AA@			; `string'
PUBLIC	??_C@_0M@OLFPELNL@keylogfile?5?$AA@		; `string'
PUBLIC	??_C@_0BE@LDMGAIBD@unsuppress_warning?5?$AA@	; `string'
PUBLIC	??_C@_0BC@MALBFLFO@suppress_warning?5?$AA@	; `string'
PUBLIC	??_C@_0BC@NOJGAMCH@unset?5breakpoints?$AA@	; `string'
PUBLIC	??_C@_0BF@KDLHDBHK@unset?5breakpoint?5?$CFs?5?$AA@ ; `string'
PUBLIC	??_C@_02MCILKGOH@?$HL?$HN?$AA@			; `string'
PUBLIC	??_C@_06BGEGKFCE@abort?5?$AA@			; `string'
PUBLIC	??_C@_0P@HOFIKNGF@breakpoint?5?$CFs?5?$AA@	; `string'
PUBLIC	__$ArrayPad$
EXTRN	_tokname:PROC
EXTRN	_errmsg:BYTE
EXTRN	_msg:DWORD
EXTRN	_default_name:DWORD
EXTRN	_keywordname:PROC
EXTRN	_single_redefine:BYTE
EXTRN	_get_name_name:PROC
EXTRN	_datatype_name:BYTE
EXTRN	_meth_inst_list:DWORD
EXTRN	_gen_quant_list:DWORD
EXTRN	_typenames:BYTE
EXTRN	_dymem:DWORD
EXTRN	_web:BYTE
EXTRN	___security_cookie:DWORD
EXTRN	__fltused:DWORD
EXTRN	@__security_check_cookie@4:PROC
EXTRN	__ftol2_sse:PROC
_BSS	SEGMENT
_vch	DB	01H DUP (?)
_BSS	ENDS
;	COMDAT ??_C@_0P@DFGJEPPA@procedure?5?$CFs?5?$CI?$AA@
CONST	SEGMENT
??_C@_0P@DFGJEPPA@procedure?5?$CFs?5?$CI?$AA@ DB 'procedure %s (', 00H ; `string'
CONST	ENDS
;	COMDAT ??_C@_0DJ@JKBDOPAM@Printing?5of?5expression?5node?5type@
CONST	SEGMENT
??_C@_0DJ@JKBDOPAM@Printing?5of?5expression?5node?5type@ DB 'Printing of '
	DB	'expression node type %s (%d) unimplemented.', 0aH, 00H ; `string'
CONST	ENDS
;	COMDAT ??_C@_09GPGAJHPD@?$CIunknown?$CJ?$AA@
CONST	SEGMENT
??_C@_09GPGAJHPD@?$CIunknown?$CJ?$AA@ DB '(unknown)', 00H ; `string'
CONST	ENDS
;	COMDAT ??_C@_03NBFACCKM@?$CJ?$DL?6?$AA@
CONST	SEGMENT
??_C@_03NBFACCKM@?$CJ?$DL?6?$AA@ DB ');', 0aH, 00H	; `string'
CONST	ENDS
;	COMDAT ??_C@_02MNMNLDAI@?$CJ?6?$AA@
CONST	SEGMENT
??_C@_02MNMNLDAI@?$CJ?6?$AA@ DB ')', 0aH, 00H		; `string'
CONST	ENDS
;	COMDAT ??_C@_0BB@CHELAHME@function?5?$CFs?5?$CFs?5?$CI?$AA@
CONST	SEGMENT
??_C@_0BB@CHELAHME@function?5?$CFs?5?$CFs?5?$CI?$AA@ DB 'function %s %s ('
	DB	00H						; `string'
CONST	ENDS
;	COMDAT ??_C@_03HHCAAOLL@?$CJ?3?$CI?$AA@
CONST	SEGMENT
??_C@_03HHCAAOLL@?$CJ?3?$CI?$AA@ DB '):(', 00H		; `string'
CONST	ENDS
;	COMDAT ??_C@_01HCONENDN@?$HL?$AA@
CONST	SEGMENT
??_C@_01HCONENDN@?$HL?$AA@ DB '{', 00H			; `string'
CONST	ENDS
;	COMDAT ??_C@_08CIJIHMDB@?$CFc?5?3?3?3?$DN?5?$AA@
CONST	SEGMENT
??_C@_08CIJIHMDB@?$CFc?5?3?3?3?$DN?5?$AA@ DB '%c :::= ', 00H ; `string'
CONST	ENDS
;	COMDAT ??_C@_0L@PJAPHMCA@show_expr?5?$AA@
CONST	SEGMENT
??_C@_0L@PJAPHMCA@show_expr?5?$AA@ DB 'show_expr ', 00H	; `string'
CONST	ENDS
;	COMDAT ??_C@_0BD@CJDDBPIE@make_thread_lists?5?$AA@
CONST	SEGMENT
??_C@_0BD@CJDDBPIE@make_thread_lists?5?$AA@ DB 'make_thread_lists ', 00H ; `string'
CONST	ENDS
;	COMDAT ??_C@_05OINEHIOC@else?5?$AA@
CONST	SEGMENT
??_C@_05OINEHIOC@else?5?$AA@ DB 'else ', 00H		; `string'
CONST	ENDS
;	COMDAT ??_C@_04BBJKINFE@?5?$HM?$HM?5?$AA@
CONST	SEGMENT
??_C@_04BBJKINFE@?5?$HM?$HM?5?$AA@ DB ' || ', 00H	; `string'
CONST	ENDS
;	COMDAT ??_C@_04NEABMJPE@?5?$CG?$CG?5?$AA@
CONST	SEGMENT
??_C@_04NEABMJPE@?5?$CG?$CG?5?$AA@ DB ' && ', 00H	; `string'
CONST	ENDS
;	COMDAT ??_C@_03MGHMLHIL@?5?$DM?5?$AA@
CONST	SEGMENT
??_C@_03MGHMLHIL@?5?$DM?5?$AA@ DB ' < ', 00H		; `string'
CONST	ENDS
;	COMDAT ??_C@_03MFPIGDOF@?5?$DO?5?$AA@
CONST	SEGMENT
??_C@_03MFPIGDOF@?5?$DO?5?$AA@ DB ' > ', 00H		; `string'
CONST	ENDS
;	COMDAT ??_C@_04PLNGDCJO@?5?$DM?$DN?5?$AA@
CONST	SEGMENT
??_C@_04PLNGDCJO@?5?$DM?$DN?5?$AA@ DB ' <= ', 00H	; `string'
CONST	ENDS
;	COMDAT ??_C@_04FBNPPKBF@?5?$DO?$DN?5?$AA@
CONST	SEGMENT
??_C@_04FBNPPKBF@?5?$DO?$DN?5?$AA@ DB ' >= ', 00H	; `string'
CONST	ENDS
;	COMDAT ??_C@_04FJKFLNNM@?5?$CB?$DN?5?$AA@
CONST	SEGMENT
??_C@_04FJKFLNNM@?5?$CB?$DN?5?$AA@ DB ' != ', 00H	; `string'
CONST	ENDS
;	COMDAT ??_C@_04EDGKFFPL@?5?$DN?$DN?5?$AA@
CONST	SEGMENT
??_C@_04EDGKFFPL@?5?$DN?$DN?5?$AA@ DB ' == ', 00H	; `string'
CONST	ENDS
;	COMDAT ??_C@_02GFKOMOKH@?5?$CI?$AA@
CONST	SEGMENT
??_C@_02GFKOMOKH@?5?$CI?$AA@ DB ' (', 00H		; `string'
CONST	ENDS
;	COMDAT ??_C@_0CM@GOMFLGCL@Internal?5error?3?5bad?5SET_ATTRIBUT@
CONST	SEGMENT
??_C@_0CM@GOMFLGCL@Internal?5error?3?5bad?5SET_ATTRIBUT@ DB 'Internal err'
	DB	'or: bad SET_ATTRIBUTE type %d.', 0aH, 00H	; `string'
CONST	ENDS
;	COMDAT ??_C@_02OPGFLNEK@p4?$AA@
CONST	SEGMENT
??_C@_02OPGFLNEK@p4?$AA@ DB 'p4', 00H			; `string'
CONST	ENDS
;	COMDAT ??_C@_02KACECLIN@p3?$AA@
CONST	SEGMENT
??_C@_02KACECLIN@p3?$AA@ DB 'p3', 00H			; `string'
CONST	ENDS
;	COMDAT ??_C@_02LJDPBKMM@p2?$AA@
CONST	SEGMENT
??_C@_02LJDPBKMM@p2?$AA@ DB 'p2', 00H			; `string'
CONST	ENDS
;	COMDAT ??_C@_02JCBCEJAP@p1?$AA@
CONST	SEGMENT
??_C@_02JCBCEJAP@p1?$AA@ DB 'p1', 00H			; `string'
CONST	ENDS
;	COMDAT ??_C@_03MJGCILEH@p1?$FL?$AA@
CONST	SEGMENT
??_C@_03MJGCILEH@p1?$FL?$AA@ DB 'p1[', 00H		; `string'
CONST	ENDS
;	COMDAT ??_C@_02ENMDKDPO@x8?$AA@
CONST	SEGMENT
??_C@_02ENMDKDPO@x8?$AA@ DB 'x8', 00H			; `string'
CONST	ENDS
;	COMDAT ??_C@_02MKFLLPDB@x7?$AA@
CONST	SEGMENT
??_C@_02MKFLLPDB@x7?$AA@ DB 'x7', 00H			; `string'
CONST	ENDS
;	COMDAT ??_C@_02NDEAIOHA@x6?$AA@
CONST	SEGMENT
??_C@_02NDEAIOHA@x6?$AA@ DB 'x6', 00H			; `string'
CONST	ENDS
;	COMDAT ??_C@_02PIGNNNLD@x5?$AA@
CONST	SEGMENT
??_C@_02PIGNNNLD@x5?$AA@ DB 'x5', 00H			; `string'
CONST	ENDS
;	COMDAT ??_C@_02OBHGOMPC@x4?$AA@
CONST	SEGMENT
??_C@_02OBHGOMPC@x4?$AA@ DB 'x4', 00H			; `string'
CONST	ENDS
;	COMDAT ??_C@_01GLPGHMHM@z?$AA@
CONST	SEGMENT
??_C@_01GLPGHMHM@z?$AA@ DB 'z', 00H			; `string'
CONST	ENDS
;	COMDAT ??_C@_02KODHHKDF@x3?$AA@
CONST	SEGMENT
??_C@_02KODHHKDF@x3?$AA@ DB 'x3', 00H			; `string'
CONST	ENDS
;	COMDAT ??_C@_01EANLCPLP@y?$AA@
CONST	SEGMENT
??_C@_01EANLCPLP@y?$AA@ DB 'y', 00H			; `string'
CONST	ENDS
;	COMDAT ??_C@_09ENCBKJCG@boundary?5?$AA@
CONST	SEGMENT
??_C@_09ENCBKJCG@boundary?5?$AA@ DB 'boundary ', 00H	; `string'
CONST	ENDS
;	COMDAT ??_C@_01CLKCMJKC@?5?$AA@
CONST	SEGMENT
??_C@_01CLKCMJKC@?5?$AA@ DB ' ', 00H			; `string'
CONST	ENDS
;	COMDAT ??_C@_08KEAKBNCK@mpi_task?$AA@
CONST	SEGMENT
??_C@_08KEAKBNCK@mpi_task?$AA@ DB 'mpi_task', 00H	; `string'
CONST	ENDS
;	COMDAT ??_C@_06EMCPHFGM@volume?$AA@
CONST	SEGMENT
??_C@_06EMCPHFGM@volume?$AA@ DB 'volume', 00H		; `string'
CONST	ENDS
;	COMDAT ??_C@_04GOEDGNCF@area?$AA@
CONST	SEGMENT
??_C@_04GOEDGNCF@area?$AA@ DB 'area', 00H		; `string'
CONST	ENDS
;	COMDAT ??_C@_08BKGECACE@dihedral?$AA@
CONST	SEGMENT
??_C@_08BKGECACE@dihedral?$AA@ DB 'dihedral', 00H	; `string'
CONST	ENDS
;	COMDAT ??_C@_07MEIPJMCG@sqcurve?$AA@
CONST	SEGMENT
??_C@_07MEIPJMCG@sqcurve?$AA@ DB 'sqcurve', 00H		; `string'
CONST	ENDS
;	COMDAT ??_C@_04NFDDIEML@wrap?$AA@
CONST	SEGMENT
??_C@_04NFDDIEML@wrap?$AA@ DB 'wrap', 00H		; `string'
CONST	ENDS
;	COMDAT ??_C@_09BPLDEHMH@mid_facet?$AA@
CONST	SEGMENT
??_C@_09BPLDEHMH@mid_facet?$AA@ DB 'mid_facet', 00H	; `string'
CONST	ENDS
;	COMDAT ??_C@_08EJNLDOMI@mid_edge?$AA@
CONST	SEGMENT
??_C@_08EJNLDOMI@mid_edge?$AA@ DB 'mid_edge', 00H	; `string'
CONST	ENDS
;	COMDAT ??_C@_0BC@KBMGOFNF@no_hessian_normal?$AA@
CONST	SEGMENT
??_C@_0BC@KBMGOFNF@no_hessian_normal?$AA@ DB 'no_hessian_normal', 00H ; `string'
CONST	ENDS
;	COMDAT ??_C@_08HEBLBDOI@volfixed?$AA@
CONST	SEGMENT
??_C@_08HEBLBDOI@volfixed?$AA@ DB 'volfixed', 00H	; `string'
CONST	ENDS
;	COMDAT ??_C@_0P@FKOPBMAL@mean_curvature?$AA@
CONST	SEGMENT
??_C@_0P@FKOPBMAL@mean_curvature?$AA@ DB 'mean_curvature', 00H ; `string'
CONST	ENDS
;	COMDAT ??_C@_06IJDLPEM@length?$AA@
CONST	SEGMENT
??_C@_06IJDLPEM@length?$AA@ DB 'length', 00H		; `string'
CONST	ENDS
;	COMDAT ??_C@_04FKMICODN@show?$AA@
CONST	SEGMENT
??_C@_04FKMICODN@show?$AA@ DB 'show', 00H		; `string'
CONST	ENDS
;	COMDAT ??_C@_0M@KPMDGEHG@orientation?$AA@
CONST	SEGMENT
??_C@_0M@KPMDGEHG@orientation?$AA@ DB 'orientation', 00H ; `string'
CONST	ENDS
;	COMDAT ??_C@_08JONLCJIM@backbody?$AA@
CONST	SEGMENT
??_C@_08JONLCJIM@backbody?$AA@ DB 'backbody', 00H	; `string'
CONST	ENDS
;	COMDAT ??_C@_09GNLMKAKO@frontbody?$AA@
CONST	SEGMENT
??_C@_09GNLMKAKO@frontbody?$AA@ DB 'frontbody', 00H	; `string'
CONST	ENDS
;	COMDAT ??_C@_09OPNKCLNO@backcolor?$AA@
CONST	SEGMENT
??_C@_09OPNKCLNO@backcolor?$AA@ DB 'backcolor', 00H	; `string'
CONST	ENDS
;	COMDAT ??_C@_0L@DKEJANLD@frontcolor?$AA@
CONST	SEGMENT
??_C@_0L@DKEJANLD@frontcolor?$AA@ DB 'frontcolor', 00H	; `string'
CONST	ENDS
;	COMDAT ??_C@_05PEENBMOG@color?$AA@
CONST	SEGMENT
??_C@_05PEENBMOG@color?$AA@ DB 'color', 00H		; `string'
CONST	ENDS
;	COMDAT ??_C@_07HKCFKCGH@valence?$AA@
CONST	SEGMENT
??_C@_07HKCFKCGH@valence?$AA@ DB 'valence', 00H		; `string'
CONST	ENDS
;	COMDAT ??_C@_03PLGJJJLK@oid?$AA@
CONST	SEGMENT
??_C@_03PLGJJJLK@oid?$AA@ DB 'oid', 00H			; `string'
CONST	ENDS
;	COMDAT ??_C@_02EGCJHIOB@id?$AA@
CONST	SEGMENT
??_C@_02EGCJHIOB@id?$AA@ DB 'id', 00H			; `string'
CONST	ENDS
;	COMDAT ??_C@_08LAAABFKN@original?$AA@
CONST	SEGMENT
??_C@_08LAAABFKN@original?$AA@ DB 'original', 00H	; `string'
CONST	ENDS
;	COMDAT ??_C@_0L@DKEDBIHO@noncontent?$AA@
CONST	SEGMENT
??_C@_0L@DKEDBIHO@noncontent?$AA@ DB 'noncontent', 00H	; `string'
CONST	ENDS
;	COMDAT ??_C@_05OFLEIIDM@fixed?$AA@
CONST	SEGMENT
??_C@_05OFLEIIDM@fixed?$AA@ DB 'fixed', 00H		; `string'
CONST	ENDS
;	COMDAT ??_C@_0M@BIHLDDLK@axial_point?$AA@
CONST	SEGMENT
??_C@_0M@BIHLDDLK@axial_point?$AA@ DB 'axial_point', 00H ; `string'
CONST	ENDS
;	COMDAT ??_C@_0M@DFLKEBKH@tetra_point?$AA@
CONST	SEGMENT
??_C@_0M@DFLKEBKH@tetra_point?$AA@ DB 'tetra_point', 00H ; `string'
CONST	ENDS
;	COMDAT ??_C@_0N@DHNCNHBM@triple_point?$AA@
CONST	SEGMENT
??_C@_0N@DHNCNHBM@triple_point?$AA@ DB 'triple_point', 00H ; `string'
CONST	ENDS
;	COMDAT ??_C@_04CIOKLOBL@midv?$AA@
CONST	SEGMENT
??_C@_04CIOKLOBL@midv?$AA@ DB 'midv', 00H		; `string'
CONST	ENDS
;	COMDAT ??_C@_0N@KCHJBOEN@on_boundary?5?$AA@
CONST	SEGMENT
??_C@_0N@KCHJBOEN@on_boundary?5?$AA@ DB 'on_boundary ', 00H ; `string'
CONST	ENDS
;	COMDAT ??_C@_06OPEHNENO@?5value?$AA@
CONST	SEGMENT
??_C@_06OPEHNENO@?5value?$AA@ DB ' value', 00H		; `string'
CONST	ENDS
;	COMDAT ??_C@_0BF@ICBGKBMB@value_of_constraint?5?$AA@
CONST	SEGMENT
??_C@_0BF@ICBGKBMB@value_of_constraint?5?$AA@ DB 'value_of_constraint ', 00H ; `string'
CONST	ENDS
;	COMDAT ??_C@_0BA@DDGBMOJE@hit_constraint?5?$AA@
CONST	SEGMENT
??_C@_0BA@DDGBMOJE@hit_constraint?5?$AA@ DB 'hit_constraint ', 00H ; `string'
CONST	ENDS
;	COMDAT ??_C@_0P@NECEKGOL@on_constraint?5?$AA@
CONST	SEGMENT
??_C@_0P@NECEKGOL@on_constraint?5?$AA@ DB 'on_constraint ', 00H ; `string'
CONST	ENDS
;	COMDAT ??_C@_0BE@FCGNGMMH@on_method_instance?5?$AA@
CONST	SEGMENT
??_C@_0BE@FCGNGMMH@on_method_instance?5?$AA@ DB 'on_method_instance ', 00H ; `string'
CONST	ENDS
;	COMDAT ??_C@_0N@LJDCMFBO@on_quantity?5?$AA@
CONST	SEGMENT
??_C@_0N@LJDCMFBO@on_quantity?5?$AA@ DB 'on_quantity ', 00H ; `string'
CONST	ENDS
;	COMDAT ??_C@_05MKKKJBDN@?5not?5?$AA@
CONST	SEGMENT
??_C@_05MKKKJBDN@?5not?5?$AA@ DB ' not ', 00H		; `string'
CONST	ENDS
;	COMDAT ??_C@_0L@OBLFGKBL@ellipticE?$CI?$AA@
CONST	SEGMENT
??_C@_0L@OBLFGKBL@ellipticE?$CI?$AA@ DB 'ellipticE(', 00H ; `string'
CONST	ENDS
;	COMDAT ??_C@_0L@OLCLEHBB@ellipticK?$CI?$AA@
CONST	SEGMENT
??_C@_0L@OLCLEHBB@ellipticK?$CI?$AA@ DB 'ellipticK(', 00H ; `string'
CONST	ENDS
;	COMDAT ??_C@_05BNEJBMEK@atan?$CI?$AA@
CONST	SEGMENT
??_C@_05BNEJBMEK@atan?$CI?$AA@ DB 'atan(', 00H		; `string'
CONST	ENDS
;	COMDAT ??_C@_05DLKIBAMI@acos?$CI?$AA@
CONST	SEGMENT
??_C@_05DLKIBAMI@acos?$CI?$AA@ DB 'acos(', 00H		; `string'
CONST	ENDS
;	COMDAT ??_C@_05GKNNOILF@asin?$CI?$AA@
CONST	SEGMENT
??_C@_05GKNNOILF@asin?$CI?$AA@ DB 'asin(', 00H		; `string'
CONST	ENDS
;	COMDAT ??_C@_04BGJPAGPE@log?$CI?$AA@
CONST	SEGMENT
??_C@_04BGJPAGPE@log?$CI?$AA@ DB 'log(', 00H		; `string'
CONST	ENDS
;	COMDAT ??_C@_04MPCILOFG@exp?$CI?$AA@
CONST	SEGMENT
??_C@_04MPCILOFG@exp?$CI?$AA@ DB 'exp(', 00H		; `string'
CONST	ENDS
;	COMDAT ??_C@_04KJABJGAL@tan?$CI?$AA@
CONST	SEGMENT
??_C@_04KJABJGAL@tan?$CI?$AA@ DB 'tan(', 00H		; `string'
CONST	ENDS
;	COMDAT ??_C@_04IPOAJKIJ@cos?$CI?$AA@
CONST	SEGMENT
??_C@_04IPOAJKIJ@cos?$CI?$AA@ DB 'cos(', 00H		; `string'
CONST	ENDS
;	COMDAT ??_C@_04NOJFGCPE@sin?$CI?$AA@
CONST	SEGMENT
??_C@_04NOJFGCPE@sin?$CI?$AA@ DB 'sin(', 00H		; `string'
CONST	ENDS
;	COMDAT ??_C@_06LLNDMCPI@atanh?$CI?$AA@
CONST	SEGMENT
??_C@_06LLNDMCPI@atanh?$CI?$AA@ DB 'atanh(', 00H	; `string'
CONST	ENDS
;	COMDAT ??_C@_06JGKGLJIB@asinh?$CI?$AA@
CONST	SEGMENT
??_C@_06JGKGLJIB@asinh?$CI?$AA@ DB 'asinh(', 00H	; `string'
CONST	ENDS
;	COMDAT ??_C@_06LIEDMBPI@acosh?$CI?$AA@
CONST	SEGMENT
??_C@_06LIEDMBPI@acosh?$CI?$AA@ DB 'acosh(', 00H	; `string'
CONST	ENDS
;	COMDAT ??_C@_05LKLMPLHE@tanh?$CI?$AA@
CONST	SEGMENT
??_C@_05LKLMPLHE@tanh?$CI?$AA@ DB 'tanh(', 00H		; `string'
CONST	ENDS
;	COMDAT ??_C@_05LJCMPIHE@cosh?$CI?$AA@
CONST	SEGMENT
??_C@_05LJCMPIHE@cosh?$CI?$AA@ DB 'cosh(', 00H		; `string'
CONST	ENDS
;	COMDAT ??_C@_05JHMJIAAN@sinh?$CI?$AA@
CONST	SEGMENT
??_C@_05JHMJIAAN@sinh?$CI?$AA@ DB 'sinh(', 00H		; `string'
CONST	ENDS
;	COMDAT ??_C@_04HEKBBDE@abs?$CI?$AA@
CONST	SEGMENT
??_C@_04HEKBBDE@abs?$CI?$AA@ DB 'abs(', 00H		; `string'
CONST	ENDS
;	COMDAT ??_C@_05MLDBPPPC@ceil?$CI?$AA@
CONST	SEGMENT
??_C@_05MLDBPPPC@ceil?$CI?$AA@ DB 'ceil(', 00H		; `string'
CONST	ENDS
;	COMDAT ??_C@_06IHMMIDCC@floor?$CI?$AA@
CONST	SEGMENT
??_C@_06IHMMIDCC@floor?$CI?$AA@ DB 'floor(', 00H	; `string'
CONST	ENDS
;	COMDAT ??_C@_05MIKKOOHN@sqrt?$CI?$AA@
CONST	SEGMENT
??_C@_05MIKKOOHN@sqrt?$CI?$AA@ DB 'sqrt(', 00H		; `string'
CONST	ENDS
;	COMDAT ??_C@_03IINDJHJM@?$CJ?$FO2?$AA@
CONST	SEGMENT
??_C@_03IINDJHJM@?$CJ?$FO2?$AA@ DB ')^2', 00H		; `string'
CONST	ENDS
;	COMDAT ??_C@_0O@HFHNBMBB@wrap_inverse?$CI?$AA@
CONST	SEGMENT
??_C@_0O@HFHNBMBB@wrap_inverse?$CI?$AA@ DB 'wrap_inverse(', 00H ; `string'
CONST	ENDS
;	COMDAT ??_C@_0O@ICELJODO@wrap_compose?$CI?$AA@
CONST	SEGMENT
??_C@_0O@ICELJODO@wrap_compose?$CI?$AA@ DB 'wrap_compose(', 00H ; `string'
CONST	ENDS
;	COMDAT ??_C@_06NKPIGJJO@atan2?$CI?$AA@
CONST	SEGMENT
??_C@_06NKPIGJJO@atan2?$CI?$AA@ DB 'atan2(', 00H	; `string'
CONST	ENDS
;	COMDAT ??_C@_0BF@NPPPB@incompleteEllipticE?$CI?$AA@
CONST	SEGMENT
??_C@_0BF@NPPPB@incompleteEllipticE?$CI?$AA@ DB 'incompleteEllipticE(', 00H ; `string'
CONST	ENDS
;	COMDAT ??_C@_0BF@CELEBKI@incompleteEllipticF?$CI?$AA@
CONST	SEGMENT
??_C@_0BF@CELEBKI@incompleteEllipticF?$CI?$AA@ DB 'incompleteEllipticF(', 00H ; `string'
CONST	ENDS
;	COMDAT ??_C@_08KPBNEKJD@minimum?$CI?$AA@
CONST	SEGMENT
??_C@_08KPBNEKJD@minimum?$CI?$AA@ DB 'minimum(', 00H	; `string'
CONST	ENDS
;	COMDAT ??_C@_08HIPGPINC@maximum?$CI?$AA@
CONST	SEGMENT
??_C@_08HIPGPINC@maximum?$CI?$AA@ DB 'maximum(', 00H	; `string'
CONST	ENDS
;	COMDAT ??_C@_02FKAPCJPD@?$CK?$CK?$AA@
CONST	SEGMENT
??_C@_02FKAPCJPD@?$CK?$CK?$AA@ DB '**', 00H		; `string'
CONST	ENDS
;	COMDAT ??_C@_04NCKAHEA@?$FO?$CF1d?$AA@
CONST	SEGMENT
??_C@_04NCKAHEA@?$FO?$CF1d?$AA@ DB '^%1d', 00H		; `string'
CONST	ENDS
;	COMDAT ??_C@_05LKLPDELB@?$FO?$CI?91?$CJ?$AA@
CONST	SEGMENT
??_C@_05LKLPDELB@?$FO?$CI?91?$CJ?$AA@ DB '^(-1)', 00H	; `string'
CONST	ENDS
;	COMDAT ??_C@_03HBOLMMFA@?$CJ?$DP?$CI?$AA@
CONST	SEGMENT
??_C@_03HBOLMMFA@?$CJ?$DP?$CI?$AA@ DB ')?(', 00H	; `string'
CONST	ENDS
;	COMDAT ??_C@_06GNLBBOML@?5idiv?5?$AA@
CONST	SEGMENT
??_C@_06GNLBBOML@?5idiv?5?$AA@ DB ' idiv ', 00H		; `string'
CONST	ENDS
;	COMDAT ??_C@_06FKGIFEHI@?5imod?5?$AA@
CONST	SEGMENT
??_C@_06FKGIFEHI@?5imod?5?$AA@ DB ' imod ', 00H		; `string'
CONST	ENDS
;	COMDAT ??_C@_01FGNFDNOH@?$CF?$AA@
CONST	SEGMENT
??_C@_01FGNFDNOH@?$CF?$AA@ DB '%', 00H			; `string'
CONST	ENDS
;	COMDAT ??_C@_01NBENCBCI@?$CK?$AA@
CONST	SEGMENT
??_C@_01NBENCBCI@?$CK?$AA@ DB '*', 00H			; `string'
CONST	ENDS
;	COMDAT ??_C@_03MHLONNLM@?5?$DN?5?$AA@
CONST	SEGMENT
??_C@_03MHLONNLM@?5?$DN?5?$AA@ DB ' = ', 00H		; `string'
CONST	ENDS
;	COMDAT ??_C@_01KMDKNFGN@?1?$AA@
CONST	SEGMENT
??_C@_01KMDKNFGN@?1?$AA@ DB '/', 00H			; `string'
CONST	ENDS
;	COMDAT ??_C@_03NLJIHOMM@?5?9?5?$AA@
CONST	SEGMENT
??_C@_03NLJIHOMM@?5?9?5?$AA@ DB ' - ', 00H		; `string'
CONST	ENDS
;	COMDAT ??_C@_03NPBFACHO@?5?$CL?5?$AA@
CONST	SEGMENT
??_C@_03NPBFACHO@?5?$CL?5?$AA@ DB ' + ', 00H		; `string'
CONST	ENDS
;	COMDAT ??_C@_05FFIBBKIO@usr?$CFd?$AA@
CONST	SEGMENT
??_C@_05FFIBBKIO@usr?$CFd?$AA@ DB 'usr%d', 00H		; `string'
CONST	ENDS
;	COMDAT ??_C@_08KAJJHIBE@total?5?$CFs?$AA@
CONST	SEGMENT
??_C@_08KAJJHIBE@total?5?$CFs?$AA@ DB 'total %s', 00H	; `string'
CONST	ENDS
;	COMDAT ??_C@_05NNFHCGPF@?$CFs?4?$CFs?$AA@
CONST	SEGMENT
??_C@_05NNFHCGPF@?$CFs?4?$CFs?$AA@ DB '%s.%s', 00H	; `string'
CONST	ENDS
;	COMDAT ??_C@_0O@LMDPDPKO@?$CFs?4p_velocity?$AA@
CONST	SEGMENT
??_C@_0O@LMDPDPKO@?$CFs?4p_velocity?$AA@ DB '%s.p_velocity', 00H ; `string'
CONST	ENDS
;	COMDAT ??_C@_0L@BLNBIMLF@?$CFs?4p_force?$AA@
CONST	SEGMENT
??_C@_0L@BLNBIMLF@?$CFs?4p_force?$AA@ DB '%s.p_force', 00H ; `string'
CONST	ENDS
;	COMDAT ??_C@_0M@KHJHMLJD@?$CFs?4volconst?$AA@
CONST	SEGMENT
??_C@_0M@KHJHMLJD@?$CFs?4volconst?$AA@ DB '%s.volconst', 00H ; `string'
CONST	ENDS
;	COMDAT ??_C@_0L@IHGBGJIM@?$CFs?4modulus?$AA@
CONST	SEGMENT
??_C@_0L@IHGBGJIM@?$CFs?4modulus?$AA@ DB '%s.modulus', 00H ; `string'
CONST	ENDS
;	COMDAT ??_C@_08COKEDFMM@?$CFs?4value?$AA@
CONST	SEGMENT
??_C@_08COKEDFMM@?$CFs?4value?$AA@ DB '%s.value', 00H	; `string'
CONST	ENDS
;	COMDAT ??_C@_09GLPADBIC@?$CFs?4target?$AA@
CONST	SEGMENT
??_C@_09GLPADBIC@?$CFs?4target?$AA@ DB '%s.target', 00H	; `string'
CONST	ENDS
;	COMDAT ??_C@_0M@NFGODCJB@?$CFs?4pressure?$AA@
CONST	SEGMENT
??_C@_0M@NFGODCJB@?$CFs?4pressure?$AA@ DB '%s.pressure', 00H ; `string'
CONST	ENDS
;	COMDAT ??_C@_0N@KCPNEKBJ@?$CFs?4conserved?$AA@
CONST	SEGMENT
??_C@_0N@KCPNEKBJ@?$CFs?4conserved?$AA@ DB '%s.conserved', 00H ; `string'
CONST	ENDS
;	COMDAT ??_C@_0N@IJLOHMIH@?$CFs?4info_only?$AA@
CONST	SEGMENT
??_C@_0N@IJLOHMIH@?$CFs?4info_only?$AA@ DB '%s.info_only', 00H ; `string'
CONST	ENDS
;	COMDAT ??_C@_09FICCFCDB@?$CFs?4energy?$AA@
CONST	SEGMENT
??_C@_09FICCFCDB@?$CFs?4energy?$AA@ DB '%s.energy', 00H	; `string'
CONST	ENDS
;	COMDAT ??_C@_08MHEECOGP@?$CFs?4fixed?$AA@
CONST	SEGMENT
??_C@_08MHEECOGP@?$CFs?4fixed?$AA@ DB '%s.fixed', 00H	; `string'
CONST	ENDS
;	COMDAT ??_C@_0BB@KCCCOBAL@?$CFs?4tolerance?5?$CFs?5?$AA@
CONST	SEGMENT
??_C@_0BB@KCCCOBAL@?$CFs?4tolerance?5?$CFs?5?$AA@ DB '%s.tolerance %s ', 00H ; `string'
CONST	ENDS
;	COMDAT ??_C@_0BA@NBKDJPNO@?$CFs?4volconst?5?$CFs?5?$AA@
CONST	SEGMENT
??_C@_0BA@NBKDJPNO@?$CFs?4volconst?5?$CFs?5?$AA@ DB '%s.volconst %s ', 00H ; `string'
CONST	ENDS
;	COMDAT ??_C@_0O@DJDLCKNJ@?$CFs?4target?5?$CFs?5?$AA@
CONST	SEGMENT
??_C@_0O@DJDLCKNJ@?$CFs?4target?5?$CFs?5?$AA@ DB '%s.target %s ', 00H ; `string'
CONST	ENDS
;	COMDAT ??_C@_0P@HKKNDHOK@?$CFs?4modulus?5?$CFs?5?$AA@
CONST	SEGMENT
??_C@_0P@HKKNDHOK@?$CFs?4modulus?5?$CFs?5?$AA@ DB '%s.modulus %s ', 00H ; `string'
CONST	ENDS
;	COMDAT ??_C@_03IKJDKKNH@p?$CFd?$AA@
CONST	SEGMENT
??_C@_03IKJDKKNH@p?$CFd?$AA@ DB 'p%d', 00H		; `string'
CONST	ENDS
;	COMDAT ??_C@_04CGHINKND@?$CFc?$CFd?$AA@
CONST	SEGMENT
??_C@_04CGHINKND@?$CFc?$CFd?$AA@ DB '%c%d', 00H		; `string'
CONST	ENDS
;	COMDAT ??_C@_02HAOIJKIC@?$CFc?$AA@
CONST	SEGMENT
??_C@_02HAOIJKIC@?$CFc?$AA@ DB '%c', 00H		; `string'
CONST	ENDS
;	COMDAT ??_C@_01LFCBOECM@?4?$AA@
CONST	SEGMENT
??_C@_01LFCBOECM@?4?$AA@ DB '.', 00H			; `string'
CONST	ENDS
;	COMDAT ??_C@_01BBODEMC@G?$AA@
CONST	SEGMENT
??_C@_01BBODEMC@G?$AA@ DB 'G', 00H			; `string'
CONST	ENDS
;	COMDAT ??_C@_01KGKMHCOC@e?$AA@
CONST	SEGMENT
??_C@_01KGKMHCOC@e?$AA@ DB 'e', 00H			; `string'
CONST	ENDS
;	COMDAT ??_C@_02OAHAJOFD@pi?$AA@
CONST	SEGMENT
??_C@_02OAHAJOFD@pi?$AA@ DB 'pi', 00H			; `string'
CONST	ENDS
;	COMDAT ??_C@_06OEKDGAI@?$CF1?415g?$AA@
CONST	SEGMENT
??_C@_06OEKDGAI@?$CF1?415g?$AA@ DB '%1.15g', 00H	; `string'
CONST	ENDS
;	COMDAT ??_C@_08HEHJIEEA@?4bodies?5?$AA@
CONST	SEGMENT
??_C@_08HEHJIEEA@?4bodies?5?$AA@ DB '.bodies ', 00H	; `string'
CONST	ENDS
;	COMDAT ??_C@_07LNGBBGLG@bodies?5?$AA@
CONST	SEGMENT
??_C@_07LNGBBGLG@bodies?5?$AA@ DB 'bodies ', 00H	; `string'
CONST	ENDS
;	COMDAT ??_C@_08JAFMBMKE@?4facets?5?$AA@
CONST	SEGMENT
??_C@_08JAFMBMKE@?4facets?5?$AA@ DB '.facets ', 00H	; `string'
CONST	ENDS
;	COMDAT ??_C@_07FJEEIOFC@facets?5?$AA@
CONST	SEGMENT
??_C@_07FJEEIOFC@facets?5?$AA@ DB 'facets ', 00H	; `string'
CONST	ENDS
;	COMDAT ??_C@_07NIBDCADL@?4edges?5?$AA@
CONST	SEGMENT
??_C@_07NIBDCADL@?4edges?5?$AA@ DB '.edges ', 00H	; `string'
CONST	ENDS
;	COMDAT ??_C@_06MMKBFAEI@edges?5?$AA@
CONST	SEGMENT
??_C@_06MMKBFAEI@edges?5?$AA@ DB 'edges ', 00H		; `string'
CONST	ENDS
;	COMDAT ??_C@_0L@GFMBBPLG@?4vertices?5?$AA@
CONST	SEGMENT
??_C@_0L@GFMBBPLG@?4vertices?5?$AA@ DB '.vertices ', 00H ; `string'
CONST	ENDS
;	COMDAT ??_C@_09DJCGGCPN@vertices?5?$AA@
CONST	SEGMENT
??_C@_09DJCGGCPN@vertices?5?$AA@ DB 'vertices ', 00H	; `string'
CONST	ENDS
;	COMDAT ??_C@_0M@HIBDCNLL@facetedges?5?$AA@
CONST	SEGMENT
??_C@_0M@HIBDCNLL@facetedges?5?$AA@ DB 'facetedges ', 00H ; `string'
CONST	ENDS
;	COMDAT ??_C@_0O@KOCBPMJD@loghistogram?$CI?$AA@
CONST	SEGMENT
??_C@_0O@KOCBPMJD@loghistogram?$CI?$AA@ DB 'loghistogram(', 00H ; `string'
CONST	ENDS
;	COMDAT ??_C@_0L@MHHMKAFA@histogram?$CI?$AA@
CONST	SEGMENT
??_C@_0L@MHHMKAFA@histogram?$CI?$AA@ DB 'histogram(', 00H ; `string'
CONST	ENDS
;	COMDAT ??_C@_06MFABEKNP@count?$CI?$AA@
CONST	SEGMENT
??_C@_06MFABEKNP@count?$CI?$AA@ DB 'count(', 00H	; `string'
CONST	ENDS
;	COMDAT ??_C@_04MDBONKFA@avg?$CI?$AA@
CONST	SEGMENT
??_C@_04MDBONKFA@avg?$CI?$AA@ DB 'avg(', 00H		; `string'
CONST	ENDS
;	COMDAT ??_C@_04MGBMDEIK@sum?$CI?$AA@
CONST	SEGMENT
??_C@_04MGBMDEIK@sum?$CI?$AA@ DB 'sum(', 00H		; `string'
CONST	ENDS
;	COMDAT ??_C@_04BEFELBH@min?$CI?$AA@
CONST	SEGMENT
??_C@_04BEFELBH@min?$CI?$AA@ DB 'min(', 00H		; `string'
CONST	ENDS
;	COMDAT ??_C@_04NMFKLMDK@max?$CI?$AA@
CONST	SEGMENT
??_C@_04NMFKLMDK@max?$CI?$AA@ DB 'max(', 00H		; `string'
CONST	ENDS
;	COMDAT ??_C@_08ECALEGKJ@foreach?5?$AA@
CONST	SEGMENT
??_C@_08ECALEGKJ@foreach?5?$AA@ DB 'foreach ', 00H	; `string'
CONST	ENDS
;	COMDAT ??_C@_07OFLPJMBB@?5where?5?$AA@
CONST	SEGMENT
??_C@_07OFLPJMBB@?5where?5?$AA@ DB ' where ', 00H	; `string'
CONST	ENDS
;	COMDAT ??_C@_04ENCLHBOC@set?5?$AA@
CONST	SEGMENT
??_C@_04ENCLHBOC@set?5?$AA@ DB 'set ', 00H		; `string'
CONST	ENDS
;	COMDAT ??_C@_0P@BMDMDICD@hessian_normal?$AA@
CONST	SEGMENT
??_C@_0P@BMDMDICD@hessian_normal?$AA@ DB 'hessian_normal', 00H ; `string'
CONST	ENDS
;	COMDAT ??_C@_0M@FGEAHLHH@boundary?5?$CFs?$AA@
CONST	SEGMENT
??_C@_0M@FGEAHLHH@boundary?5?$CFs?$AA@ DB 'boundary %s', 00H ; `string'
CONST	ENDS
;	COMDAT ??_C@_08KIKGFOKI@boundary?$AA@
CONST	SEGMENT
??_C@_08KIKGFOKI@boundary?$AA@ DB 'boundary', 00H	; `string'
CONST	ENDS
;	COMDAT ??_C@_0O@NGEKOGMC@constraint?5?$CFs?$AA@
CONST	SEGMENT
??_C@_0O@NGEKOGMC@constraint?5?$CFs?$AA@ DB 'constraint %s', 00H ; `string'
CONST	ENDS
;	COMDAT ??_C@_0BA@FCDDEKDG@method_instance?$AA@
CONST	SEGMENT
??_C@_0BA@FCDDEKDG@method_instance?$AA@ DB 'method_instance', 00H ; `string'
CONST	ENDS
;	COMDAT ??_C@_08OCNIHGPN@quantity?$AA@
CONST	SEGMENT
??_C@_08OCNIHGPN@quantity?$AA@ DB 'quantity', 00H	; `string'
CONST	ENDS
;	COMDAT ??_C@_0M@HCINNPA@constraint?5?$AA@
CONST	SEGMENT
??_C@_0M@HCINNPA@constraint?5?$AA@ DB 'constraint ', 00H ; `string'
CONST	ENDS
;	COMDAT ??_C@_0L@HOHHMJMM@constraint?$AA@
CONST	SEGMENT
??_C@_0L@HOHHMJMM@constraint?$AA@ DB 'constraint', 00H	; `string'
CONST	ENDS
;	COMDAT ??_C@_07IJGPCJHC@opacity?$AA@
CONST	SEGMENT
??_C@_07IJGPCJHC@opacity?$AA@ DB 'opacity', 00H		; `string'
CONST	ENDS
;	COMDAT ??_C@_08POHEELCJ@pressure?$AA@
CONST	SEGMENT
??_C@_08POHEELCJ@pressure?$AA@ DB 'pressure', 00H	; `string'
CONST	ENDS
;	COMDAT ??_C@_06JJLAMBGK@target?$AA@
CONST	SEGMENT
??_C@_06JJLAMBGK@target?$AA@ DB 'target', 00H		; `string'
CONST	ENDS
;	COMDAT ??_C@_08IMINLCCL@volconst?$AA@
CONST	SEGMENT
??_C@_08IMINLCCL@volconst?$AA@ DB 'volconst', 00H	; `string'
CONST	ENDS
;	COMDAT ??_C@_07HAFFKDBK@density?$AA@
CONST	SEGMENT
??_C@_07HAFFKDBK@density?$AA@ DB 'density', 00H		; `string'
CONST	ENDS
;	COMDAT ??_C@_04BGEKJPHF@bare?$AA@
CONST	SEGMENT
??_C@_04BGEKJPHF@bare?$AA@ DB 'bare', 00H		; `string'
CONST	ENDS
;	COMDAT ??_C@_05CBPKLGJM@phase?$AA@
CONST	SEGMENT
??_C@_05CBPKLGJM@phase?$AA@ DB 'phase', 00H		; `string'
CONST	ENDS
;	COMDAT ??_C@_0L@ODCODBLD@no_display?$AA@
CONST	SEGMENT
??_C@_0L@ODCODBLD@no_display?$AA@ DB 'no_display', 00H	; `string'
CONST	ENDS
;	COMDAT ??_C@_0N@OFAMNBMC@centerofmass?$AA@
CONST	SEGMENT
??_C@_0N@OFAMNBMC@centerofmass?$AA@ DB 'centerofmass', 00H ; `string'
CONST	ENDS
;	COMDAT ??_C@_0N@CMIGFPCH@no_transform?$AA@
CONST	SEGMENT
??_C@_0N@CMIGFPCH@no_transform?$AA@ DB 'no_transform', 00H ; `string'
CONST	ENDS
;	COMDAT ??_C@_05EPBFLBEJ@unset?$AA@
CONST	SEGMENT
??_C@_05EPBFLBEJ@unset?$AA@ DB 'unset', 00H		; `string'
CONST	ENDS
;	COMDAT ??_C@_09PFNGBABC@no_refine?$AA@
CONST	SEGMENT
??_C@_09PFNGBABC@no_refine?$AA@ DB 'no_refine', 00H	; `string'
CONST	ENDS
;	COMDAT ??_C@_03KCHOJKKI@set?$AA@
CONST	SEGMENT
??_C@_03KCHOJKKI@set?$AA@ DB 'set', 00H			; `string'
CONST	ENDS
;	COMDAT ??_C@_0M@JAGBIOBF@hit_partner?$AA@
CONST	SEGMENT
??_C@_0M@JAGBIOBF@hit_partner?$AA@ DB 'hit_partner', 00H ; `string'
CONST	ENDS
;	COMDAT ??_C@_04PJDNGLKJ@self?$AA@
CONST	SEGMENT
??_C@_04PJDNGLKJ@self?$AA@ DB 'self', 00H		; `string'
CONST	ENDS
;	COMDAT ??_C@_04NPDIJEBN@?4?$CFs?$FL?$AA@
CONST	SEGMENT
??_C@_04NPDIJEBN@?4?$CFs?$FL?$AA@ DB '.%s[', 00H	; `string'
CONST	ENDS
;	COMDAT ??_C@_0L@HCNHJHCK@facetedge?$FL?$AA@
CONST	SEGMENT
??_C@_0L@HCNHJHCK@facetedge?$FL?$AA@ DB 'facetedge[', 00H ; `string'
CONST	ENDS
;	COMDAT ??_C@_05KGEIKHIF@body?$FL?$AA@
CONST	SEGMENT
??_C@_05KGEIKHIF@body?$FL?$AA@ DB 'body[', 00H		; `string'
CONST	ENDS
;	COMDAT ??_C@_06JBIAMLBO@facet?$FL?$AA@
CONST	SEGMENT
??_C@_06JBIAMLBO@facet?$FL?$AA@ DB 'facet[', 00H	; `string'
CONST	ENDS
;	COMDAT ??_C@_05MLBEFDNG@edge?$FL?$AA@
CONST	SEGMENT
??_C@_05MLBEFDNG@edge?$FL?$AA@ DB 'edge[', 00H		; `string'
CONST	ENDS
;	COMDAT ??_C@_07GMIBILEA@vertex?$FL?$AA@
CONST	SEGMENT
??_C@_07GMIBILEA@vertex?$FL?$AA@ DB 'vertex[', 00H	; `string'
CONST	ENDS
;	COMDAT ??_C@_01FJMABOPO@x?$AA@
CONST	SEGMENT
??_C@_01FJMABOPO@x?$AA@ DB 'x', 00H			; `string'
CONST	ENDS
;	COMDAT ??_C@_0N@ICOOBCNI@vertexnormal?$AA@
CONST	SEGMENT
??_C@_0N@ICOOBCNI@vertexnormal?$AA@ DB 'vertexnormal', 00H ; `string'
CONST	ENDS
;	COMDAT ??_C@_04KMMDIKEB@?5?$CFs?5?$AA@
CONST	SEGMENT
??_C@_04KMMDIKEB@?5?$CFs?5?$AA@ DB ' %s ', 00H		; `string'
CONST	ENDS
;	COMDAT ??_C@_09OLACHOMO@whereami?5?$AA@
CONST	SEGMENT
??_C@_09OLACHOMO@whereami?5?$AA@ DB 'whereami ', 00H	; `string'
CONST	ENDS
;	COMDAT ??_C@_0BF@KJJDFLC@reverse_orientation?5?$AA@
CONST	SEGMENT
??_C@_0BF@KJJDFLC@reverse_orientation?5?$AA@ DB 'reverse_orientation ', 00H ; `string'
CONST	ENDS
;	COMDAT ??_C@_0N@FPEGLGLO@t1_edgeswap?5?$AA@
CONST	SEGMENT
??_C@_0N@FPEGLGLO@t1_edgeswap?5?$AA@ DB 't1_edgeswap ', 00H ; `string'
CONST	ENDS
;	COMDAT ??_C@_0BC@PDFHAOFI@pop_quad_to_quad?5?$AA@
CONST	SEGMENT
??_C@_0BC@PDFHAOFI@pop_quad_to_quad?5?$AA@ DB 'pop_quad_to_quad ', 00H ; `string'
CONST	ENDS
;	COMDAT ??_C@_0BB@HLINOHGN@pop_tri_to_edge?5?$AA@
CONST	SEGMENT
??_C@_0BB@HLINOHGN@pop_tri_to_edge?5?$AA@ DB 'pop_tri_to_edge ', 00H ; `string'
CONST	ENDS
;	COMDAT ??_C@_0BB@POFEJAAI@pop_edge_to_tri?5?$AA@
CONST	SEGMENT
??_C@_0BB@POFEJAAI@pop_edge_to_tri?5?$AA@ DB 'pop_edge_to_tri ', 00H ; `string'
CONST	ENDS
;	COMDAT ??_C@_0O@PMHDHEAM@equiangulate?5?$AA@
CONST	SEGMENT
??_C@_0O@PMHDHEAM@equiangulate?5?$AA@ DB 'equiangulate ', 00H ; `string'
CONST	ENDS
;	COMDAT ??_C@_0BH@LEHBHCDC@rawest_vertex_average?5?$AA@
CONST	SEGMENT
??_C@_0BH@LEHBHCDC@rawest_vertex_average?5?$AA@ DB 'rawest_vertex_average'
	DB	' ', 00H					; `string'
CONST	ENDS
;	COMDAT ??_C@_0BE@LKOOEJIA@raw_vertex_average?5?$AA@
CONST	SEGMENT
??_C@_0BE@LKOOEJIA@raw_vertex_average?5?$AA@ DB 'raw_vertex_average ', 00H ; `string'
CONST	ENDS
;	COMDAT ??_C@_0BA@EEDBPPPI@vertex_average?5?$AA@
CONST	SEGMENT
??_C@_0BA@EEDBPPPI@vertex_average?5?$AA@ DB 'vertex_average ', 00H ; `string'
CONST	ENDS
;	COMDAT ??_C@_09KNDPNNNB@edgeswap?5?$AA@
CONST	SEGMENT
??_C@_09KNDPNNNB@edgeswap?5?$AA@ DB 'edgeswap ', 00H	; `string'
CONST	ENDS
;	COMDAT ??_C@_06HBAHJGAJ@unfix?5?$AA@
CONST	SEGMENT
??_C@_06HBAHJGAJ@unfix?5?$AA@ DB 'unfix ', 00H		; `string'
CONST	ENDS
;	COMDAT ??_C@_04KGOHCPMM@fix?5?$AA@
CONST	SEGMENT
??_C@_04KGOHCPMM@fix?5?$AA@ DB 'fix ', 00H		; `string'
CONST	ENDS
;	COMDAT ??_C@_04GCDPEDIK@pop?5?$AA@
CONST	SEGMENT
??_C@_04GCDPEDIK@pop?5?$AA@ DB 'pop ', 00H		; `string'
CONST	ENDS
;	COMDAT ??_C@_09PLEKKNFD@dissolve?5?$AA@
CONST	SEGMENT
??_C@_09PLEKKNFD@dissolve?5?$AA@ DB 'dissolve ', 00H	; `string'
CONST	ENDS
;	COMDAT ??_C@_07OHMIIBBL@refine?5?$AA@
CONST	SEGMENT
??_C@_07OHMIIBBL@refine?5?$AA@ DB 'refine ', 00H	; `string'
CONST	ENDS
;	COMDAT ??_C@_07GNDMACL@delete?5?$AA@
CONST	SEGMENT
??_C@_07GNDMACL@delete?5?$AA@ DB 'delete ', 00H		; `string'
CONST	ENDS
;	COMDAT ??_C@_05BKNPGPBN@list?5?$AA@
CONST	SEGMENT
??_C@_05BKNPGPBN@list?5?$AA@ DB 'list ', 00H		; `string'
CONST	ENDS
;	COMDAT ??_C@_0BB@BEPCFKIE@list?5bottominfo?5?$AA@
CONST	SEGMENT
??_C@_0BB@BEPCFKIE@list?5bottominfo?5?$AA@ DB 'list bottominfo ', 00H ; `string'
CONST	ENDS
;	COMDAT ??_C@_0O@NKCPFOBE@list?5topinfo?5?$AA@
CONST	SEGMENT
??_C@_0O@NKCPFOBE@list?5topinfo?5?$AA@ DB 'list topinfo ', 00H ; `string'
CONST	ENDS
;	COMDAT ??_C@_0P@PKNGHLMP@list?5boundary?5?$AA@
CONST	SEGMENT
??_C@_0P@PKNGHLMP@list?5boundary?5?$AA@ DB 'list boundary ', 00H ; `string'
CONST	ENDS
;	COMDAT ??_C@_0BB@OAEJJBFK@list?5constraint?5?$AA@
CONST	SEGMENT
??_C@_0BB@OAEJJBFK@list?5constraint?5?$AA@ DB 'list constraint ', 00H ; `string'
CONST	ENDS
;	COMDAT ??_C@_0BD@PNMIFIHL@list?5constraint?5?$CFs?$AA@
CONST	SEGMENT
??_C@_0BD@PNMIFIHL@list?5constraint?5?$CFs?$AA@ DB 'list constraint %s', 00H ; `string'
CONST	ENDS
;	COMDAT ??_C@_0BI@HLLNDPKC@list?5method_instance?5?$CFs?$AA@
CONST	SEGMENT
??_C@_0BI@HLLNDPKC@list?5method_instance?5?$CFs?$AA@ DB 'list method_inst'
	DB	'ance %s', 00H				; `string'
CONST	ENDS
;	COMDAT ??_C@_0BB@DBLGCJFN@list?5quantity?5?$CFs?$AA@
CONST	SEGMENT
??_C@_0BB@DBLGCJFN@list?5quantity?5?$CFs?$AA@ DB 'list quantity %s', 00H ; `string'
CONST	ENDS
;	COMDAT ??_C@_0BB@PEELHDCG@list?5attributes?5?$AA@
CONST	SEGMENT
??_C@_0BB@PEELHDCG@list?5attributes?5?$AA@ DB 'list attributes ', 00H ; `string'
CONST	ENDS
;	COMDAT ??_C@_0BB@FEIJOBAO@list?5procedures?5?$AA@
CONST	SEGMENT
??_C@_0BB@FEIJOBAO@list?5procedures?5?$AA@ DB 'list procedures ', 00H ; `string'
CONST	ENDS
;	COMDAT ??_C@_05FPPEDHBM@exit?5?$AA@
CONST	SEGMENT
??_C@_05FPPEDHBM@exit?5?$AA@ DB 'exit ', 00H		; `string'
CONST	ENDS
;	COMDAT ??_C@_02NAHKEMLJ@j?5?$AA@
CONST	SEGMENT
??_C@_02NAHKEMLJ@j?5?$AA@ DB 'j ', 00H			; `string'
CONST	ENDS
;	COMDAT ??_C@_07KIABCNGA@ometis?5?$AA@
CONST	SEGMENT
??_C@_07KIABCNGA@ometis?5?$AA@ DB 'ometis ', 00H	; `string'
CONST	ENDS
;	COMDAT ??_C@_0N@EHMDFEMF@edge_divide?5?$AA@
CONST	SEGMENT
??_C@_0N@EHMDFEMF@edge_divide?5?$AA@ DB 'edge_divide ', 00H ; `string'
CONST	ENDS
;	COMDAT ??_C@_06LGDJAKGO@notch?5?$AA@
CONST	SEGMENT
??_C@_06LGDJAKGO@notch?5?$AA@ DB 'notch ', 00H		; `string'
CONST	ENDS
;	COMDAT ??_C@_0M@FOAHLABL@body?9metis?5?$AA@
CONST	SEGMENT
??_C@_0M@FOAHLABL@body?9metis?5?$AA@ DB 'body-metis ', 00H ; `string'
CONST	ENDS
;	COMDAT ??_C@_07CMELCDJK@kmetis?5?$AA@
CONST	SEGMENT
??_C@_07CMELCDJK@kmetis?5?$AA@ DB 'kmetis ', 00H	; `string'
CONST	ENDS
;	COMDAT ??_C@_0BA@DAJKOHFA@metis_readjust?5?$AA@
CONST	SEGMENT
??_C@_0BA@DAJKOHFA@metis_readjust?5?$AA@ DB 'metis_readjust ', 00H ; `string'
CONST	ENDS
;	COMDAT ??_C@_06FJIEJPGA@metis?5?$AA@
CONST	SEGMENT
??_C@_06FJIEJPGA@metis?5?$AA@ DB 'metis ', 00H		; `string'
CONST	ENDS
;	COMDAT ??_C@_09LIMDMHNO@edgeweed?5?$AA@
CONST	SEGMENT
??_C@_09LIMDMHNO@edgeweed?5?$AA@ DB 'edgeweed ', 00H	; `string'
CONST	ENDS
;	COMDAT ??_C@_09NIJIHPDB@areaweed?5?$AA@
CONST	SEGMENT
??_C@_09NIJIHPDB@areaweed?5?$AA@ DB 'areaweed ', 00H	; `string'
CONST	ENDS
;	COMDAT ??_C@_05HEPJHAGN@move?5?$AA@
CONST	SEGMENT
??_C@_05HEPJHAGN@move?5?$AA@ DB 'move ', 00H		; `string'
CONST	ENDS
;	COMDAT ??_C@_0O@MBIEAIBG@hessian_seek?5?$AA@
CONST	SEGMENT
??_C@_0O@MBIEAIBG@hessian_seek?5?$AA@ DB 'hessian_seek ', 00H ; `string'
CONST	ENDS
;	COMDAT ??_C@_07MAHMAIKH@saddle?5?$AA@
CONST	SEGMENT
??_C@_07MAHMAIKH@saddle?5?$AA@ DB 'saddle ', 00H	; `string'
CONST	ENDS
;	COMDAT ??_C@_0BA@ODEJHEGJ@inverse_periods?$AA@
CONST	SEGMENT
??_C@_0BA@ODEJHEGJ@inverse_periods?$AA@ DB 'inverse_periods', 00H ; `string'
CONST	ENDS
;	COMDAT ??_C@_01OHGJGJJP@?$FL?$AA@
CONST	SEGMENT
??_C@_01OHGJGJJP@?$FL?$AA@ DB '[', 00H			; `string'
CONST	ENDS
;	COMDAT ??_C@_0O@IMAKABFD@torus_periods?$AA@
CONST	SEGMENT
??_C@_0O@IMAKABFD@torus_periods?$AA@ DB 'torus_periods', 00H ; `string'
CONST	ENDS
;	COMDAT ??_C@_05HMJDJDEN@ritz?$CI?$AA@
CONST	SEGMENT
??_C@_05HMJDJDEN@ritz?$CI?$AA@ DB 'ritz(', 00H		; `string'
CONST	ENDS
;	COMDAT ??_C@_0M@ELLGNMC@eigenprobe?5?$AA@
CONST	SEGMENT
??_C@_0M@ELLGNMC@eigenprobe?5?$AA@ DB 'eigenprobe ', 00H ; `string'
CONST	ENDS
;	COMDAT ??_C@_08PJBNJOBI@lanczos?5?$AA@
CONST	SEGMENT
??_C@_08PJBNJOBI@lanczos?5?$AA@ DB 'lanczos ', 00H	; `string'
CONST	ENDS
;	COMDAT ??_C@_09KFKMHJDA@lagrange?5?$AA@
CONST	SEGMENT
??_C@_09KFKMHJDA@lagrange?5?$AA@ DB 'lagrange ', 00H	; `string'
CONST	ENDS
;	COMDAT ??_C@_07CPAFJHCE@sizeof?$CI?$AA@
CONST	SEGMENT
??_C@_07CPAFJHCE@sizeof?$CI?$AA@ DB 'sizeof(', 00H	; `string'
CONST	ENDS
;	COMDAT ??_C@_0L@PEDDBAKP@sizeof?$CI?$CFs?$CJ?$AA@
CONST	SEGMENT
??_C@_0L@PEDDBAKP@sizeof?$CI?$CFs?$CJ?$AA@ DB 'sizeof(%s)', 00H ; `string'
CONST	ENDS
;	COMDAT ??_C@_03CJPCKGBB@?9?9?5?$AA@
CONST	SEGMENT
??_C@_03CJPCKGBB@?9?9?5?$AA@ DB '-- ', 00H		; `string'
CONST	ENDS
;	COMDAT ??_C@_03IBEIFHP@?$CL?$CL?5?$AA@
CONST	SEGMENT
??_C@_03IBEIFHP@?$CL?$CL?5?$AA@ DB '++ ', 00H		; `string'
CONST	ENDS
;	COMDAT ??_C@_04HDOCAJNK@?$CFs?$CFs?$AA@
CONST	SEGMENT
??_C@_04HDOCAJNK@?$CFs?$CFs?$AA@ DB '%s%s', 00H		; `string'
CONST	ENDS
;	COMDAT ??_C@_03GODGAAIB@?5?9?9?$AA@
CONST	SEGMENT
??_C@_03GODGAAIB@?5?9?9?$AA@ DB ' --', 00H		; `string'
CONST	ENDS
;	COMDAT ??_C@_03DMOBNLLF@?5?$CL?$CL?$AA@
CONST	SEGMENT
??_C@_03DMOBNLLF@?5?$CL?$CL?$AA@ DB ' ++', 00H		; `string'
CONST	ENDS
;	COMDAT ??_C@_06PCAHILNI@?$CFs?5?1?$DN?5?$AA@
CONST	SEGMENT
??_C@_06PCAHILNI@?$CFs?5?1?$DN?5?$AA@ DB '%s /= ', 00H	; `string'
CONST	ENDS
;	COMDAT ??_C@_06MFNJHLOK@?$CFs?5?$CK?$DN?5?$AA@
CONST	SEGMENT
??_C@_06MFNJHLOK@?$CFs?5?$CK?$DN?5?$AA@ DB '%s *= ', 00H ; `string'
CONST	ENDS
;	COMDAT ??_C@_06FIAOEDFD@?$CFs?5?9?$DN?5?$AA@
CONST	SEGMENT
??_C@_06FIAOEDFD@?$CFs?5?9?$DN?5?$AA@ DB '%s -= ', 00H	; `string'
CONST	ENDS
;	COMDAT ??_C@_06HNGFBMIP@?$CFs?5?$CL?$DN?5?$AA@
CONST	SEGMENT
??_C@_06HNGFBMIP@?$CFs?5?$CL?$DN?5?$AA@ DB '%s += ', 00H ; `string'
CONST	ENDS
;	COMDAT ??_C@_0BA@DEIKBKKN@?$CFs?4no_dump?5off?5?$AA@
CONST	SEGMENT
??_C@_0BA@DEIKBKKN@?$CFs?4no_dump?5off?5?$AA@ DB '%s.no_dump off ', 00H ; `string'
CONST	ENDS
;	COMDAT ??_C@_0P@HHJNMIJK@?$CFs?4no_dump?5on?5?$AA@
CONST	SEGMENT
??_C@_0P@HHJNMIJK@?$CFs?4no_dump?5on?5?$AA@ DB '%s.no_dump on ', 00H ; `string'
CONST	ENDS
;	COMDAT ??_C@_06JFMACMHF@?$CFs?5?3?$DN?5?$AA@
CONST	SEGMENT
??_C@_06JFMACMHF@?$CFs?5?3?$DN?5?$AA@ DB '%s := ', 00H	; `string'
CONST	ENDS
;	COMDAT ??_C@_07DMFHGJKH@?$CFs?5?3?3?$DN?5?$AA@
CONST	SEGMENT
??_C@_07DMFHGJKH@?$CFs?5?3?3?$DN?5?$AA@ DB '%s ::= ', 00H ; `string'
CONST	ENDS
;	COMDAT ??_C@_0BI@LALPNJNO@?$CFs?4on_assign_call?5?3?$DN?5?$CFs?$AA@
CONST	SEGMENT
??_C@_0BI@LALPNJNO@?$CFs?4on_assign_call?5?3?$DN?5?$CFs?$AA@ DB '%s.on_as'
	DB	'sign_call := %s', 00H			; `string'
CONST	ENDS
;	COMDAT ??_C@_09PFECEPHA@?$CFs?4pscale?$AA@
CONST	SEGMENT
??_C@_09PFECEPHA@?$CFs?4pscale?$AA@ DB '%s.pscale', 00H	; `string'
CONST	ENDS
;	COMDAT ??_C@_09OAOCGHOC@?$CFs?4pdelta?$AA@
CONST	SEGMENT
??_C@_09OAOCGHOC@?$CFs?4pdelta?$AA@ DB '%s.pdelta', 00H	; `string'
CONST	ENDS
;	COMDAT ??_C@_03ECLNAHEM@?$CFs?$CI?$AA@
CONST	SEGMENT
??_C@_03ECLNAHEM@?$CFs?$CI?$AA@ DB '%s(', 00H		; `string'
CONST	ENDS
;	COMDAT ??_C@_05DNIIFBMG@?$CFs?5?$CFs?$AA@
CONST	SEGMENT
??_C@_05DNIIFBMG@?$CFs?5?$CFs?$AA@ DB '%s %s', 00H	; `string'
CONST	ENDS
;	COMDAT ??_C@_0N@CBEMEMEM@burchard?5?$CFd?5?$AA@
CONST	SEGMENT
??_C@_0N@CBEMEMEM@burchard?5?$CFd?5?$AA@ DB 'burchard %d ', 00H ; `string'
CONST	ENDS
;	COMDAT ??_C@_08HNDHMNDL@detorus?5?$AA@
CONST	SEGMENT
??_C@_08HNDHMNDL@detorus?5?$AA@ DB 'detorus ', 00H	; `string'
CONST	ENDS
;	COMDAT ??_C@_0M@BKEGOHCM@subcommand?5?$AA@
CONST	SEGMENT
??_C@_0M@BKEGOHCM@subcommand?5?$AA@ DB 'subcommand ', 00H ; `string'
CONST	ENDS
;	COMDAT ??_C@_0N@CKNFECO@repartition?5?$AA@
CONST	SEGMENT
??_C@_0N@CKNFECO@repartition?5?$AA@ DB 'repartition ', 00H ; `string'
CONST	ENDS
;	COMDAT ??_C@_0P@IMACOPAH@free_discards?5?$AA@
CONST	SEGMENT
??_C@_0P@IMACOPAH@free_discards?5?$AA@ DB 'free_discards ', 00H ; `string'
CONST	ENDS
;	COMDAT ??_C@_0O@JHIKHPAF@dump_memlist?5?$AA@
CONST	SEGMENT
??_C@_0O@JHIKHPAF@dump_memlist?5?$AA@ DB 'dump_memlist ', 00H ; `string'
CONST	ENDS
;	COMDAT ??_C@_0O@DBMMCKIH@renumber_all?5?$AA@
CONST	SEGMENT
??_C@_0O@DBMMCKIH@renumber_all?5?$AA@ DB 'renumber_all ', 00H ; `string'
CONST	ENDS
;	COMDAT ??_C@_0BH@EOIPALJK@convert_to_quantities?5?$AA@
CONST	SEGMENT
??_C@_0BH@EOIPALJK@convert_to_quantities?5?$AA@ DB 'convert_to_quantities'
	DB	' ', 00H					; `string'
CONST	ENDS
;	COMDAT ??_C@_0O@PFJLCOPI@sobolev_seek?5?$AA@
CONST	SEGMENT
??_C@_0O@PFJLCOPI@sobolev_seek?5?$AA@ DB 'sobolev_seek ', 00H ; `string'
CONST	ENDS
;	COMDAT ??_C@_0BA@NMPGOPNM@dirichlet_seek?5?$AA@
CONST	SEGMENT
??_C@_0BA@NMPGOPNM@dirichlet_seek?5?$AA@ DB 'dirichlet_seek ', 00H ; `string'
CONST	ENDS
;	COMDAT ??_C@_0BB@ELMGCAEE@reorder_storage?5?$AA@
CONST	SEGMENT
??_C@_0BB@ELMGCAEE@reorder_storage?5?$AA@ DB 'reorder_storage ', 00H ; `string'
CONST	ENDS
;	COMDAT ??_C@_08KJFKOLCI@sobolev?5?$AA@
CONST	SEGMENT
??_C@_08KJFKOLCI@sobolev?5?$AA@ DB 'sobolev ', 00H	; `string'
CONST	ENDS
;	COMDAT ??_C@_0L@IAMJHGMM@dirichlet?5?$AA@
CONST	SEGMENT
??_C@_0L@IAMJHGMM@dirichlet?5?$AA@ DB 'dirichlet ', 00H	; `string'
CONST	ENDS
;	COMDAT ??_C@_0O@DJOBGCIG@hessian_menu?5?$AA@
CONST	SEGMENT
??_C@_0O@DJOBGCIG@hessian_menu?5?$AA@ DB 'hessian_menu ', 00H ; `string'
CONST	ENDS
;	COMDAT ??_C@_06HGIJDJHM@showq?5?$AA@
CONST	SEGMENT
??_C@_06HGIJDJHM@showq?5?$AA@ DB 'showq ', 00H		; `string'
CONST	ENDS
;	COMDAT ??_C@_0O@ECJLFEKE@simplex_to_fe?$AA@
CONST	SEGMENT
??_C@_0O@ECJLFEKE@simplex_to_fe?$AA@ DB 'simplex_to_fe', 00H ; `string'
CONST	ENDS
;	COMDAT ??_C@_08PGAFJEDJ@hessian?5?$AA@
CONST	SEGMENT
??_C@_08PGAFJEDJ@hessian?5?$AA@ DB 'hessian ', 00H	; `string'
CONST	ENDS
;	COMDAT ??_C@_07IJJIIMNN@rebody?5?$AA@
CONST	SEGMENT
??_C@_07IJJIIMNN@rebody?5?$AA@ DB 'rebody ', 00H	; `string'
CONST	ENDS
;	COMDAT ??_C@_0L@IJDLAEPK@quadratic?5?$AA@
CONST	SEGMENT
??_C@_0L@IJDLAEPK@quadratic?5?$AA@ DB 'quadratic ', 00H	; `string'
CONST	ENDS
;	COMDAT ??_C@_07CBPAACLJ@linear?5?$AA@
CONST	SEGMENT
??_C@_07CBPAACLJ@linear?5?$AA@ DB 'linear ', 00H	; `string'
CONST	ENDS
;	COMDAT ??_C@_0N@DEBOAOL@extrapolate?5?$AA@
CONST	SEGMENT
??_C@_0N@DEBOAOL@extrapolate?5?$AA@ DB 'extrapolate ', 00H ; `string'
CONST	ENDS
;	COMDAT ??_C@_08DFMDENPP@rawestv?5?$AA@
CONST	SEGMENT
??_C@_08DFMDENPP@rawestv?5?$AA@ DB 'rawestv ', 00H	; `string'
CONST	ENDS
;	COMDAT ??_C@_07ODMECLPM@counts?5?$AA@
CONST	SEGMENT
??_C@_07ODMECLPM@counts?5?$AA@ DB 'counts ', 00H	; `string'
CONST	ENDS
;	COMDAT ??_C@_07CJPBOPFA@recalc?5?$AA@
CONST	SEGMENT
??_C@_07CJPBOPFA@recalc?5?$AA@ DB 'recalc ', 00H	; `string'
CONST	ENDS
;	COMDAT ??_C@_06FGENMIEJ@alice?5?$AA@
CONST	SEGMENT
??_C@_06FGENMIEJ@alice?5?$AA@ DB 'alice ', 00H		; `string'
CONST	ENDS
;	COMDAT ??_C@_06KPNPMBGA@shell?5?$AA@
CONST	SEGMENT
??_C@_06KPNPMBGA@shell?5?$AA@ DB 'shell ', 00H		; `string'
CONST	ENDS
;	COMDAT ??_C@_02NIKCNPOK@g?5?$AA@
CONST	SEGMENT
??_C@_02NIKCNPOK@g?5?$AA@ DB 'g ', 00H			; `string'
CONST	ENDS
;	COMDAT ??_C@_06KCFEIDLL@utest?5?$AA@
CONST	SEGMENT
??_C@_06KCFEIDLL@utest?5?$AA@ DB 'utest ', 00H		; `string'
CONST	ENDS
;	COMDAT ??_C@_0BA@GBCKKNJC@stability_test?5?$AA@
CONST	SEGMENT
??_C@_0BA@GBCKKNJC@stability_test?5?$AA@ DB 'stability_test ', 00H ; `string'
CONST	ENDS
;	COMDAT ??_C@_05JPJFAEAO@rawv?5?$AA@
CONST	SEGMENT
??_C@_05JPJFAEAO@rawv?5?$AA@ DB 'rawv ', 00H		; `string'
CONST	ENDS
;	COMDAT ??_C@_0N@GJPIEBBJ@long_jiggle?5?$AA@
CONST	SEGMENT
??_C@_0N@GJPIEBBJ@long_jiggle?5?$AA@ DB 'long_jiggle ', 00H ; `string'
CONST	ENDS
;	COMDAT ??_C@_06JFCNFLHN@check?5?$AA@
CONST	SEGMENT
??_C@_06JFCNFLHN@check?5?$AA@ DB 'check ', 00H		; `string'
CONST	ENDS
;	COMDAT ??_C@_09PKPCIIOC@show_vol?5?$AA@
CONST	SEGMENT
??_C@_09PKPCIIOC@show_vol?5?$AA@ DB 'show_vol ', 00H	; `string'
CONST	ENDS
;	COMDAT ??_C@_0N@DHGONGJP@colormap?5?3?$DN?5?$AA@
CONST	SEGMENT
??_C@_0N@DHGONGJP@colormap?5?3?$DN?5?$AA@ DB 'colormap := ', 00H ; `string'
CONST	ENDS
;	COMDAT ??_C@_05OEFDBPID@dump?5?$AA@
CONST	SEGMENT
??_C@_05OEFDBPID@dump?5?$AA@ DB 'dump ', 00H		; `string'
CONST	ENDS
;	COMDAT ??_C@_0M@HIGONMEP@is_defined?$CI?$AA@
CONST	SEGMENT
??_C@_0M@HIGONMEP@is_defined?$CI?$AA@ DB 'is_defined(', 00H ; `string'
CONST	ENDS
;	COMDAT ??_C@_0BB@JMHAAMMM@view_transforms?$FL?$AA@
CONST	SEGMENT
??_C@_0BB@JMHAAMMM@view_transforms?$FL?$AA@ DB 'view_transforms[', 00H ; `string'
CONST	ENDS
;	COMDAT ??_C@_0BM@CEMFOJOL@view_transform_swap_colors?$FL?$AA@
CONST	SEGMENT
??_C@_0BM@CEMFOJOL@view_transform_swap_colors?$FL?$AA@ DB 'view_transform'
	DB	'_swap_colors[', 00H				; `string'
CONST	ENDS
;	COMDAT ??_C@_0BH@OFAOMDFN@view_transform_parity?$FL?$AA@
CONST	SEGMENT
??_C@_0BH@OFAOMDFN@view_transform_parity?$FL?$AA@ DB 'view_transform_pari'
	DB	'ty[', 00H					; `string'
CONST	ENDS
;	COMDAT ??_C@_09FLILHFPP@geomview?5?$AA@
CONST	SEGMENT
??_C@_09FLILHFPP@geomview?5?$AA@ DB 'geomview ', 00H	; `string'
CONST	ENDS
;	COMDAT ??_C@_0M@OHJEHJPG@show_trans?5?$AA@
CONST	SEGMENT
??_C@_0M@OHJEHJPG@show_trans?5?$AA@ DB 'show_trans ', 00H ; `string'
CONST	ENDS
;	COMDAT ??_C@_0O@GDNEAALN@replace_load?5?$AA@
CONST	SEGMENT
??_C@_0O@GDNEAALN@replace_load?5?$AA@ DB 'replace_load ', 00H ; `string'
CONST	ENDS
;	COMDAT ??_C@_08EECCEAIE@addload?5?$AA@
CONST	SEGMENT
??_C@_08EECCEAIE@addload?5?$AA@ DB 'addload ', 00H	; `string'
CONST	ENDS
;	COMDAT ??_C@_09MFEIJFLH@permload?5?$AA@
CONST	SEGMENT
??_C@_09MFEIJFLH@permload?5?$AA@ DB 'permload ', 00H	; `string'
CONST	ENDS
;	COMDAT ??_C@_05HDKJKGNJ@load?5?$AA@
CONST	SEGMENT
??_C@_05HDKJKGNJ@load?5?$AA@ DB 'load ', 00H		; `string'
CONST	ENDS
;	COMDAT ??_C@_05MFNNJD@read?5?$AA@
CONST	SEGMENT
??_C@_05MFNNJD@read?5?$AA@ DB 'read ', 00H		; `string'
CONST	ENDS
;	COMDAT ??_C@_05MELDNFB@exec?5?$AA@
CONST	SEGMENT
??_C@_05MELDNFB@exec?5?$AA@ DB 'exec ', 00H		; `string'
CONST	ENDS
;	COMDAT ??_C@_07JJGFGBJN@system?5?$AA@
CONST	SEGMENT
??_C@_07JJGFGBJN@system?5?$AA@ DB 'system ', 00H	; `string'
CONST	ENDS
;	COMDAT ??_C@_06NEAHAKFG@chdir?5?$AA@
CONST	SEGMENT
??_C@_06NEAHAKFG@chdir?5?$AA@ DB 'chdir ', 00H		; `string'
CONST	ENDS
;	COMDAT ??_C@_05EJCIALOD@zoom?5?$AA@
CONST	SEGMENT
??_C@_05EJCIALOD@zoom?5?$AA@ DB 'zoom ', 00H		; `string'
CONST	ENDS
;	COMDAT ??_C@_02MBMLGKBP@p?5?$AA@
CONST	SEGMENT
??_C@_02MBMLGKBP@p?5?$AA@ DB 'p ', 00H			; `string'
CONST	ENDS
;	COMDAT ??_C@_0N@GEMGAMM@autochop?5?3?$DN?5?$AA@
CONST	SEGMENT
??_C@_0N@GEMGAMM@autochop?5?3?$DN?5?$AA@ DB 'autochop := ', 00H ; `string'
CONST	ENDS
;	COMDAT ??_C@_0M@IAPMLCJI@thicken?5?3?$DN?5?$AA@
CONST	SEGMENT
??_C@_0M@IAPMLCJI@thicken?5?3?$DN?5?$AA@ DB 'thicken := ', 00H ; `string'
CONST	ENDS
;	COMDAT ??_C@_0O@PDNHPOPF@diffusion?5?3?$DN?5?$AA@
CONST	SEGMENT
??_C@_0O@PDNHPOPF@diffusion?5?3?$DN?5?$AA@ DB 'diffusion := ', 00H ; `string'
CONST	ENDS
;	COMDAT ??_C@_0M@LIDLFDJI@gravity?5?1?$DN?5?$AA@
CONST	SEGMENT
??_C@_0M@LIDLFDJI@gravity?5?1?$DN?5?$AA@ DB 'gravity /= ', 00H ; `string'
CONST	ENDS
;	COMDAT ??_C@_0M@IPOFKDKK@gravity?5?$CK?$DN?5?$AA@
CONST	SEGMENT
??_C@_0M@IPOFKDKK@gravity?5?$CK?$DN?5?$AA@ DB 'gravity *= ', 00H ; `string'
CONST	ENDS
;	COMDAT ??_C@_0M@BCDCJLBD@gravity?5?9?$DN?5?$AA@
CONST	SEGMENT
??_C@_0M@BCDCJLBD@gravity?5?9?$DN?5?$AA@ DB 'gravity -= ', 00H ; `string'
CONST	ENDS
;	COMDAT ??_C@_0M@DHFJMEMP@gravity?5?$CL?$DN?5?$AA@
CONST	SEGMENT
??_C@_0M@DHFJMEMP@gravity?5?$CL?$DN?5?$AA@ DB 'gravity += ', 00H ; `string'
CONST	ENDS
;	COMDAT ??_C@_02OAOPJJAK@G?5?$AA@
CONST	SEGMENT
??_C@_02OAOPJJAK@G?5?$AA@ DB 'G ', 00H			; `string'
CONST	ENDS
;	COMDAT ??_C@_02PJIGCMPP@P?5?$AA@
CONST	SEGMENT
??_C@_02PJIGCMPP@P?5?$AA@ DB 'P ', 00H			; `string'
CONST	ENDS
;	COMDAT ??_C@_02ONHIBMNM@M?5?$AA@
CONST	SEGMENT
??_C@_02ONHIBMNM@M?5?$AA@ DB 'M ', 00H			; `string'
CONST	ENDS
;	COMDAT ??_C@_02MOBKFBJA@y?5?$AA@
CONST	SEGMENT
??_C@_02MOBKFBJA@y?5?$AA@ DB 'y ', 00H			; `string'
CONST	ENDS
;	COMDAT ??_C@_02OJPFGAGO@K?5?$AA@
CONST	SEGMENT
??_C@_02OJPFGAGO@K?5?$AA@ DB 'K ', 00H			; `string'
CONST	ENDS
;	COMDAT ??_C@_0BB@GOPKHFKJ@gap_constant?5?3?$DN?5?$AA@
CONST	SEGMENT
??_C@_0BB@GOPKHFKJ@gap_constant?5?3?$DN?5?$AA@ DB 'gap_constant := ', 00H ; `string'
CONST	ENDS
;	COMDAT ??_C@_09FFMPJNE@optimize?5?$AA@
CONST	SEGMENT
??_C@_09FFMPJNE@optimize?5?$AA@ DB 'optimize ', 00H	; `string'
CONST	ENDS
;	COMDAT ??_C@_02NFDFFKDM@m?5?$AA@
CONST	SEGMENT
??_C@_02NFDFFKDM@m?5?$AA@ DB 'm ', 00H			; `string'
CONST	ENDS
;	COMDAT ??_C@_01LBDDMOBJ@?$FN?$AA@
CONST	SEGMENT
??_C@_01LBDDMOBJ@?$FN?$AA@ DB ']', 00H			; `string'
CONST	ENDS
;	COMDAT ??_C@_02DNJFBPJB@?$FN?$FL?$AA@
CONST	SEGMENT
??_C@_02DNJFBPJB@?$FN?$FL?$AA@ DB '][', 00H		; `string'
CONST	ENDS
;	COMDAT ??_C@_0N@PHJBGNDM@view_matrix?$FL?$AA@
CONST	SEGMENT
??_C@_0N@PHJBGNDM@view_matrix?$FL?$AA@ DB 'view_matrix[', 00H ; `string'
CONST	ENDS
;	COMDAT ??_C@_06OHLOMLHG@?$CFs?5?$CFs?5?$AA@
CONST	SEGMENT
??_C@_06OHLOMLHG@?$CFs?5?$CFs?5?$AA@ DB '%s %s ', 00H	; `string'
CONST	ENDS
;	COMDAT ??_C@_0BB@DGCNEFB@set?5?$CFs?5conserved?$AA@
CONST	SEGMENT
??_C@_0BB@DGCNEFB@set?5?$CFs?5conserved?$AA@ DB 'set %s conserved', 00H ; `string'
CONST	ENDS
;	COMDAT ??_C@_0BB@CICBOCMP@set?5?$CFs?5info_only?$AA@
CONST	SEGMENT
??_C@_0BB@CICBOCMP@set?5?$CFs?5info_only?$AA@ DB 'set %s info_only', 00H ; `string'
CONST	ENDS
;	COMDAT ??_C@_0O@FLJLJLDN@set?5?$CFs?5energy?$AA@
CONST	SEGMENT
??_C@_0O@FLJLJLDN@set?5?$CFs?5energy?$AA@ DB 'set %s energy', 00H ; `string'
CONST	ENDS
;	COMDAT ??_C@_0N@MIGPCOON@set?5?$CFs?5fixed?$AA@
CONST	SEGMENT
??_C@_0N@MIGPCOON@set?5?$CFs?5fixed?$AA@ DB 'set %s fixed', 00H ; `string'
CONST	ENDS
;	COMDAT ??_C@_08PCDKFCAB@unfix?5?$CFs?$AA@
CONST	SEGMENT
??_C@_08PCDKFCAB@unfix?5?$CFs?$AA@ DB 'unfix %s', 00H	; `string'
CONST	ENDS
;	COMDAT ??_C@_06PGAKKNMC@fix?5?$CFs?$AA@
CONST	SEGMENT
??_C@_06PGAKKNMC@fix?5?$CFs?$AA@ DB 'fix %s', 00H	; `string'
CONST	ENDS
;	COMDAT ??_C@_03IKGEINEE@?$CFs?5?$AA@
CONST	SEGMENT
??_C@_03IKGEINEE@?$CFs?5?$AA@ DB '%s ', 00H		; `string'
CONST	ENDS
;	COMDAT ??_C@_05HHHBCPMM@?$CI?$CFs?$CJ?5?$AA@
CONST	SEGMENT
??_C@_05HHHBCPMM@?$CI?$CFs?$CJ?5?$AA@ DB '(%s) ', 00H	; `string'
CONST	ENDS
;	COMDAT ??_C@_09MJJMJFJL@ooglfile?5?$AA@
CONST	SEGMENT
??_C@_09MJJMJFJL@ooglfile?5?$AA@ DB 'ooglfile ', 00H	; `string'
CONST	ENDS
;	COMDAT ??_C@_0BB@GPAKCJEL@binary_off_file?5?$AA@
CONST	SEGMENT
??_C@_0BB@GPAKCJEL@binary_off_file?5?$AA@ DB 'binary_off_file ', 00H ; `string'
CONST	ENDS
;	COMDAT ??_C@_0M@DEHHELJH@postscript?5?$AA@
CONST	SEGMENT
??_C@_0M@DEHHELJH@postscript?5?$AA@ DB 'postscript ', 00H ; `string'
CONST	ENDS
;	COMDAT ??_C@_09PFLHEGFB@geompipe?5?$AA@
CONST	SEGMENT
??_C@_09PFLHEGFB@geompipe?5?$AA@ DB 'geompipe ', 00H	; `string'
CONST	ENDS
;	COMDAT ??_C@_0N@MKIHCHHJ@geompipe?5?$CFs?5?$AA@
CONST	SEGMENT
??_C@_0N@MKIHCHHJ@geompipe?5?$CFs?5?$AA@ DB 'geompipe %s ', 00H ; `string'
CONST	ENDS
;	COMDAT ??_C@_0N@MCGFEOAK@geomview?5?$CFs?5?$AA@
CONST	SEGMENT
??_C@_0N@MCGFEOAK@geomview?5?$CFs?5?$AA@ DB 'geomview %s ', 00H ; `string'
CONST	ENDS
;	COMDAT ??_C@_0P@DNFKKNDG@keylogfile?5?$CFs?5?$AA@
CONST	SEGMENT
??_C@_0P@DNFKKNDG@keylogfile?5?$CFs?5?$AA@ DB 'keylogfile %s ', 00H ; `string'
CONST	ENDS
;	COMDAT ??_C@_0M@DIIJBMIL@logfile?5?$CFs?5?$AA@
CONST	SEGMENT
??_C@_0M@DIIJBMIL@logfile?5?$CFs?5?$AA@ DB 'logfile %s ', 00H ; `string'
CONST	ENDS
;	COMDAT ??_C@_0N@HEDCIHMP@autochop?5?$CFs?5?$AA@
CONST	SEGMENT
??_C@_0N@HEDCIHMP@autochop?5?$CFs?5?$AA@ DB 'autochop %s ', 00H ; `string'
CONST	ENDS
;	COMDAT ??_C@_0N@HJPMHHGF@optimize?5?$CFs?5?$AA@
CONST	SEGMENT
??_C@_0N@HJPMHHGF@optimize?5?$CFs?5?$AA@ DB 'optimize %s ', 00H ; `string'
CONST	ENDS
;	COMDAT ??_C@_03MPPIHBHJ@OFF?$AA@
CONST	SEGMENT
??_C@_03MPPIHBHJ@OFF?$AA@ DB 'OFF', 00H			; `string'
CONST	ENDS
;	COMDAT ??_C@_02BFICIOJL@ON?$AA@
CONST	SEGMENT
??_C@_02BFICIOJL@ON?$AA@ DB 'ON', 00H			; `string'
CONST	ENDS
;	COMDAT ??_C@_05NMKAOHIM@?8?$CFc?8?5?$AA@
CONST	SEGMENT
??_C@_05NMKAOHIM@?8?$CFc?8?5?$AA@ DB '''%c'' ', 00H	; `string'
CONST	ENDS
;	COMDAT ??_C@_03JGECCODE@?$CFc?5?$AA@
CONST	SEGMENT
??_C@_03JGECCODE@?$CFc?5?$AA@ DB '%c ', 00H		; `string'
CONST	ENDS
;	COMDAT ??_C@_08DLMHGJKG@?5?$HM?5?$CC?$CFs?$CC?5?$AA@
CONST	SEGMENT
??_C@_08DLMHGJKG@?5?$HM?5?$CC?$CFs?$CC?5?$AA@ DB ' | "%s" ', 00H ; `string'
CONST	ENDS
;	COMDAT ??_C@_03LGOGDKEL@?5?$HM?5?$AA@
CONST	SEGMENT
??_C@_03LGOGDKEL@?5?$HM?5?$AA@ DB ' | ', 00H		; `string'
CONST	ENDS
;	COMDAT ??_C@_0M@OKBJPLDC@?5?$DO?$DO?$DO2?5?$CC?$CFs?$CC?5?$AA@
CONST	SEGMENT
??_C@_0M@OKBJPLDC@?5?$DO?$DO?$DO2?5?$CC?$CFs?$CC?5?$AA@ DB ' >>>2 "%s" ', 00H ; `string'
CONST	ENDS
;	COMDAT ??_C@_06CPNAODOJ@?5?$DO?$DO?$DO2?5?$AA@
CONST	SEGMENT
??_C@_06CPNAODOJ@?5?$DO?$DO?$DO2?5?$AA@ DB ' >>>2 ', 00H ; `string'
CONST	ENDS
;	COMDAT ??_C@_0L@BOPKLIIE@?5?$DO?$DO2?5?$CC?$CFs?$CC?5?$AA@
CONST	SEGMENT
??_C@_0L@BOPKLIIE@?5?$DO?$DO2?5?$CC?$CFs?$CC?5?$AA@ DB ' >>2 "%s" ', 00H ; `string'
CONST	ENDS
;	COMDAT ??_C@_05PFBPMHED@?5?$DO?$DO2?5?$AA@
CONST	SEGMENT
??_C@_05PFBPMHED@?5?$DO?$DO2?5?$AA@ DB ' >>2 ', 00H	; `string'
CONST	ENDS
;	COMDAT ??_C@_0L@EJFFKNML@?5?$DO?$DO?$DO?5?$CC?$CFs?$CC?5?$AA@
CONST	SEGMENT
??_C@_0L@EJFFKNML@?5?$DO?$DO?$DO?5?$CC?$CFs?$CC?5?$AA@ DB ' >>> "%s" ', 00H ; `string'
CONST	ENDS
;	COMDAT ??_C@_05PMAFDOCH@?5?$DO?$DO?$DO?5?$AA@
CONST	SEGMENT
??_C@_05PMAFDOCH@?5?$DO?$DO?$DO?5?$AA@ DB ' >>> ', 00H	; `string'
CONST	ENDS
;	COMDAT ??_C@_09HOKDEKNN@?5?$DO?$DO?5?$CC?$CFs?$CC?5?$AA@
CONST	SEGMENT
??_C@_09HOKDEKNN@?5?$DO?$DO?5?$CC?$CFs?$CC?5?$AA@ DB ' >> "%s" ', 00H ; `string'
CONST	ENDS
;	COMDAT ??_C@_04FDJJEEEM@?5?$DO?$DO?5?$AA@
CONST	SEGMENT
??_C@_04FDJJEEEM@?5?$DO?$DO?5?$AA@ DB ' >> ', 00H	; `string'
CONST	ENDS
;	COMDAT ??_C@_03MDDDKBAO@?5?$DL?5?$AA@
CONST	SEGMENT
??_C@_03MDDDKBAO@?5?$DL?5?$AA@ DB ' ; ', 00H		; `string'
CONST	ENDS
;	COMDAT ??_C@_03NMJBNGBA@?5?$CJ?5?$AA@
CONST	SEGMENT
??_C@_03NMJBNGBA@?5?$CJ?5?$AA@ DB ' ) ', 00H		; `string'
CONST	ENDS
;	COMDAT ??_C@_06PDKNMLLK@for?5?$CI?5?$AA@
CONST	SEGMENT
??_C@_06PDKNMLLK@for?5?$CI?5?$AA@ DB 'for ( ', 00H	; `string'
CONST	ENDS
;	COMDAT ??_C@_08JPBKNIFM@?5while?5?$CI?$AA@
CONST	SEGMENT
??_C@_08JPBKNIFM@?5while?5?$CI?$AA@ DB ' while (', 00H	; `string'
CONST	ENDS
;	COMDAT ??_C@_03LMPAOIAI@do?5?$AA@
CONST	SEGMENT
??_C@_03LMPAOIAI@do?5?$AA@ DB 'do ', 00H		; `string'
CONST	ENDS
;	COMDAT ??_C@_02KCKGHPCA@?$CJ?5?$AA@
CONST	SEGMENT
??_C@_02KCKGHPCA@?$CJ?5?$AA@ DB ') ', 00H		; `string'
CONST	ENDS
;	COMDAT ??_C@_07JOMAJBDI@while?5?$CI?$AA@
CONST	SEGMENT
??_C@_07JOMAJBDI@while?5?$CI?$AA@ DB 'while (', 00H	; `string'
CONST	ENDS
;	COMDAT ??_C@_02EEBIPDF@?5?$DL?$AA@
CONST	SEGMENT
??_C@_02EEBIPDF@?5?$DL?$AA@ DB ' ;', 00H		; `string'
CONST	ENDS
;	COMDAT ??_C@_04JKFHOPAN@?5do?5?$AA@
CONST	SEGMENT
??_C@_04JKFHOPAN@?5do?5?$AA@ DB ' do ', 00H		; `string'
CONST	ENDS
;	COMDAT ??_C@_08FAEHJPPB@?5?$CJ?5then?5?$AA@
CONST	SEGMENT
??_C@_08FAEHJPPB@?5?$CJ?5then?5?$AA@ DB ' ) then ', 00H	; `string'
CONST	ENDS
;	COMDAT ??_C@_05HEFMBOOH@if?5?$CI?5?$AA@
CONST	SEGMENT
??_C@_05HEFMBOOH@if?5?$CI?5?$AA@ DB 'if ( ', 00H	; `string'
CONST	ENDS
;	COMDAT ??_C@_0M@EJKGLOKJ@exprint?5?$CFs?5?$AA@
CONST	SEGMENT
??_C@_0M@EJKGLOKJ@exprint?5?$CFs?5?$AA@ DB 'exprint %s ', 00H ; `string'
CONST	ENDS
;	COMDAT ??_C@_0O@FKNOAAMF@?4vertexnormal?$AA@
CONST	SEGMENT
??_C@_0O@FKNOAAMF@?4vertexnormal?$AA@ DB '.vertexnormal', 00H ; `string'
CONST	ENDS
;	COMDAT ??_C@_09CFOJLIBO@print?5?$CFs?5?$AA@
CONST	SEGMENT
??_C@_09CFOJLIBO@print?5?$CFs?5?$AA@ DB 'print %s ', 00H ; `string'
CONST	ENDS
;	COMDAT ??_C@_09DJMPBLGO@print?5?$CFc?5?$AA@
CONST	SEGMENT
??_C@_09DJMPBLGO@print?5?$CFc?5?$AA@ DB 'print %c ', 00H ; `string'
CONST	ENDS
;	COMDAT ??_C@_0P@EFNJCGJK@binary_printf?5?$AA@
CONST	SEGMENT
??_C@_0P@EFNJCGJK@binary_printf?5?$AA@ DB 'binary_printf ', 00H ; `string'
CONST	ENDS
;	COMDAT ??_C@_0L@HKMPKJEI@errprintf?5?$AA@
CONST	SEGMENT
??_C@_0L@HKMPKJEI@errprintf?5?$AA@ DB 'errprintf ', 00H	; `string'
CONST	ENDS
;	COMDAT ??_C@_07HJAAEDEB@printf?5?$AA@
CONST	SEGMENT
??_C@_07HJAAEDEB@printf?5?$AA@ DB 'printf ', 00H	; `string'
CONST	ENDS
;	COMDAT ??_C@_08DDAFHHJG@sprintf?5?$AA@
CONST	SEGMENT
??_C@_08DDAFHHJG@sprintf?5?$AA@ DB 'sprintf ', 00H	; `string'
CONST	ENDS
;	COMDAT ??_C@_0O@CIMNNBLM@datafilename?5?$AA@
CONST	SEGMENT
??_C@_0O@CIMNNBLM@datafilename?5?$AA@ DB 'datafilename ', 00H ; `string'
CONST	ENDS
;	COMDAT ??_C@_0BC@DILLGGAL@warning_messages?5?$AA@
CONST	SEGMENT
??_C@_0BC@DILLGGAL@warning_messages?5?$AA@ DB 'warning_messages ', 00H ; `string'
CONST	ENDS
;	COMDAT ??_C@_0BA@OACEACLK@transform_expr?5?$AA@
CONST	SEGMENT
??_C@_0BA@OACEACLK@transform_expr?5?$AA@ DB 'transform_expr ', 00H ; `string'
CONST	ENDS
;	COMDAT ??_C@_08GICKAJOK@history?5?$AA@
CONST	SEGMENT
??_C@_08GICKAJOK@history?5?$AA@ DB 'history ', 00H	; `string'
CONST	ENDS
;	COMDAT ??_C@_09PGLJMKEH@continue?5?$AA@
CONST	SEGMENT
??_C@_09PGLJMKEH@continue?5?$AA@ DB 'continue ', 00H	; `string'
CONST	ENDS
;	COMDAT ??_C@_0M@PLJOCOHN@continue?5?$CFd?$AA@
CONST	SEGMENT
??_C@_0M@PLJOCOHN@continue?5?$CFd?$AA@ DB 'continue %d', 00H ; `string'
CONST	ENDS
;	COMDAT ??_C@_06DLBOLJLP@break?5?$AA@
CONST	SEGMENT
??_C@_06DLBOLJLP@break?5?$AA@ DB 'break ', 00H		; `string'
CONST	ENDS
;	COMDAT ??_C@_08OOPHKIOJ@break?5?$CFd?$AA@
CONST	SEGMENT
??_C@_08OOPHKIOJ@break?5?$CFd?$AA@ DB 'break %d', 00H	; `string'
CONST	ENDS
;	COMDAT ??_C@_0O@DICBBEEI@date_and_time?$AA@
CONST	SEGMENT
??_C@_0O@DICBBEEI@date_and_time?$AA@ DB 'date_and_time', 00H ; `string'
CONST	ENDS
;	COMDAT ??_C@_0BA@DKKLMIEO@evolver_version?$AA@
CONST	SEGMENT
??_C@_0BA@DKKLMIEO@evolver_version?$AA@ DB 'evolver_version', 00H ; `string'
CONST	ENDS
;	COMDAT ??_C@_07BKFMFPMO@return?5?$AA@
CONST	SEGMENT
??_C@_07BKFMFPMO@return?5?$AA@ DB 'return ', 00H	; `string'
CONST	ENDS
;	COMDAT ??_C@_05PDJBBECF@pause?$AA@
CONST	SEGMENT
??_C@_05PDJBBECF@pause?$AA@ DB 'pause', 00H		; `string'
CONST	ENDS
;	COMDAT ??_C@_0BA@OHLAHHBM@reset_profiling?$AA@
CONST	SEGMENT
??_C@_0BA@OHLAHHBM@reset_profiling?$AA@ DB 'reset_profiling', 00H ; `string'
CONST	ENDS
;	COMDAT ??_C@_0BA@IBOFDNEL@print?5profiling?$AA@
CONST	SEGMENT
??_C@_0BA@IBOFDNEL@print?5profiling?$AA@ DB 'print profiling', 00H ; `string'
CONST	ENDS
;	COMDAT ??_C@_0N@HEKOHBEK@flush_counts?$AA@
CONST	SEGMENT
??_C@_0N@HEKOHBEK@flush_counts?$AA@ DB 'flush_counts', 00H ; `string'
CONST	ENDS
;	COMDAT ??_C@_0N@BFEIANBO@reset_counts?$AA@
CONST	SEGMENT
??_C@_0N@BFEIANBO@reset_counts?$AA@ DB 'reset_counts', 00H ; `string'
CONST	ENDS
;	COMDAT ??_C@_0BL@KFJJNIHG@unset?5constraint?5?$CFs?5global?$AA@
CONST	SEGMENT
??_C@_0BL@KFJJNIHG@unset?5constraint?5?$CFs?5global?$AA@ DB 'unset constr'
	DB	'aint %s global', 00H			; `string'
CONST	ENDS
;	COMDAT ??_C@_0BJ@DICHIFDL@set?5constraint?5?$CFs?5global?$AA@
CONST	SEGMENT
??_C@_0BJ@DICHIFDL@set?5constraint?5?$CFs?5global?$AA@ DB 'set constraint'
	DB	' %s global', 00H				; `string'
CONST	ENDS
;	COMDAT ??_C@_0BC@MDBPAFMN@unset?5constraint?5?$AA@
CONST	SEGMENT
??_C@_0BC@MDBPAFMN@unset?5constraint?5?$AA@ DB 'unset constraint ', 00H ; `string'
CONST	ENDS
;	COMDAT ??_C@_08EALMPJOD@?5global?5?$AA@
CONST	SEGMENT
??_C@_08EALMPJOD@?5global?5?$AA@ DB ' global ', 00H	; `string'
CONST	ENDS
;	COMDAT ??_C@_0BA@FHOMNLOC@set?5constraint?5?$AA@
CONST	SEGMENT
??_C@_0BA@FHOMNLOC@set?5constraint?5?$AA@ DB 'set constraint ', 00H ; `string'
CONST	ENDS
;	COMDAT ??_C@_04LAOFCJDB@?5?$CFc?5?$AA@
CONST	SEGMENT
??_C@_04LAOFCJDB@?5?$CFc?5?$AA@ DB ' %c ', 00H		; `string'
CONST	ENDS
;	COMDAT ??_C@_08JODPKOOO@?$FN?4normal?$AA@
CONST	SEGMENT
??_C@_08JODPKOOO@?$FN?4normal?$AA@ DB '].normal', 00H	; `string'
CONST	ENDS
;	COMDAT ??_C@_02DPKJAMEF@?$CFd?$AA@
CONST	SEGMENT
??_C@_02DPKJAMEF@?$CFd?$AA@ DB '%d', 00H		; `string'
CONST	ENDS
;	COMDAT ??_C@_0N@PGNKLKGF@?4constraint?$FL?$AA@
CONST	SEGMENT
??_C@_0N@PGNKLKGF@?4constraint?$FL?$AA@ DB '.constraint[', 00H ; `string'
CONST	ENDS
;	COMDAT ??_C@_03KEMCFGNA@?4?$CFs?$AA@
CONST	SEGMENT
??_C@_03KEMCFGNA@?4?$CFs?$AA@ DB '.%s', 00H		; `string'
CONST	ENDS
;	COMDAT ??_C@_03EEBNCBOD@?5?$CFs?$AA@
CONST	SEGMENT
??_C@_03EEBNCBOD@?5?$CFs?$AA@ DB ' %s', 00H		; `string'
CONST	ENDS
;	COMDAT ??_C@_06EBLGCNEC@print?5?$AA@
CONST	SEGMENT
??_C@_06EBLGCNEC@print?5?$AA@ DB 'print ', 00H		; `string'
CONST	ENDS
;	COMDAT ??_C@_03NONHGIEJ@?5?$CK?5?$AA@
CONST	SEGMENT
??_C@_03NONHGIEJ@?5?$CK?5?$AA@ DB ' * ', 00H		; `string'
CONST	ENDS
;	COMDAT ??_C@_04LJHKMKOP@?5?1?$DN?5?$AA@
CONST	SEGMENT
??_C@_04LJHKMKOP@?5?1?$DN?5?$AA@ DB ' /= ', 00H		; `string'
CONST	ENDS
;	COMDAT ??_C@_04IOKEDKNN@?5?$CK?$DN?5?$AA@
CONST	SEGMENT
??_C@_04IOKEDKNN@?5?$CK?$DN?5?$AA@ DB ' *= ', 00H	; `string'
CONST	ENDS
;	COMDAT ??_C@_04BDHDACGE@?5?9?$DN?5?$AA@
CONST	SEGMENT
??_C@_04BDHDACGE@?5?9?$DN?5?$AA@ DB ' -= ', 00H		; `string'
CONST	ENDS
;	COMDAT ??_C@_04DGBIFNLI@?5?$CL?$DN?5?$AA@
CONST	SEGMENT
??_C@_04DGBIFNLI@?5?$CL?$DN?5?$AA@ DB ' += ', 00H	; `string'
CONST	ENDS
;	COMDAT ??_C@_04NOLNGNEC@?5?3?$DN?5?$AA@
CONST	SEGMENT
??_C@_04NOLNGNEC@?5?3?$DN?5?$AA@ DB ' := ', 00H		; `string'
CONST	ENDS
;	COMDAT ??_C@_04KBDJOJNB@?$FL?$CFd?$FN?$AA@
CONST	SEGMENT
??_C@_04KBDJOJNB@?$FL?$CFd?$FN?$AA@ DB '[%d]', 00H	; `string'
CONST	ENDS
;	COMDAT ??_C@_0N@KLABKDID@define?5?$CFs?5?$CFs?$AA@
CONST	SEGMENT
??_C@_0N@KLABKDID@define?5?$CFs?5?$CFs?$AA@ DB 'define %s %s', 00H ; `string'
CONST	ENDS
;	COMDAT ??_C@_0L@LLAPKIKO@?5function?5?$AA@
CONST	SEGMENT
??_C@_0L@LLAPKIKO@?5function?5?$AA@ DB ' function ', 00H ; `string'
CONST	ENDS
;	COMDAT ??_C@_0BK@OOLEHMJN@define?5?$CFs?5attribute?5?$CFs?5?$CFs?$AA@
CONST	SEGMENT
??_C@_0BK@OOLEHMJN@define?5?$CFs?5attribute?5?$CFs?5?$CFs?$AA@ DB 'define'
	DB	' %s attribute %s %s', 00H			; `string'
CONST	ENDS
;	COMDAT ??_C@_0DE@INHIPMAN@?1?$CK?5Definition?5of?5boundary?5?$CFd?5was@
CONST	SEGMENT
??_C@_0DE@INHIPMAN@?1?$CK?5Definition?5of?5boundary?5?$CFd?5was@ DB '/* D'
	DB	'efinition of boundary %d was originally here.*/', 00H ; `string'
CONST	ENDS
;	COMDAT ??_C@_0DE@BLDPCHML@?1?$CK?5Definition?5of?5boundary?5?$CFs?5was@
CONST	SEGMENT
??_C@_0DE@BLDPCHML@?1?$CK?5Definition?5of?5boundary?5?$CFs?5was@ DB '/* D'
	DB	'efinition of boundary %s was originally here.*/', 00H ; `string'
CONST	ENDS
;	COMDAT ??_C@_0DG@DNPIOFL@?1?$CK?5Definition?5of?5constraint?5?$CFd?5w@
CONST	SEGMENT
??_C@_0DG@DNPIOFL@?1?$CK?5Definition?5of?5constraint?5?$CFd?5w@ DB '/* De'
	DB	'finition of constraint %d was originally here.*/', 00H ; `string'
CONST	ENDS
;	COMDAT ??_C@_0DG@JFJIFFJN@?1?$CK?5Definition?5of?5constraint?5?$CFs?5w@
CONST	SEGMENT
??_C@_0DG@JFJIFFJN@?1?$CK?5Definition?5of?5constraint?5?$CFs?5w@ DB '/* D'
	DB	'efinition of constraint %s was originally here.*/', 00H ; `string'
CONST	ENDS
;	COMDAT ??_C@_0DL@PIPFCDIL@?1?$CK?5Definition?5of?5method?5instance@
CONST	SEGMENT
??_C@_0DL@PIPFCDIL@?1?$CK?5Definition?5of?5method?5instance@ DB '/* Defin'
	DB	'ition of method instance %s was originally here.*/', 00H ; `string'
CONST	ENDS
;	COMDAT ??_C@_0DE@JKPGKFB@?1?$CK?5Definition?5of?5quantity?5?$CFs?5was@
CONST	SEGMENT
??_C@_0DE@JKPGKFB@?1?$CK?5Definition?5of?5quantity?5?$CFs?5was@ DB '/* De'
	DB	'finition of quantity %s was originally here.*/', 00H ; `string'
CONST	ENDS
;	COMDAT ??_C@_06FOGGDAIC@local?5?$AA@
CONST	SEGMENT
??_C@_06FOGGDAIC@local?5?$AA@ DB 'local ', 00H		; `string'
CONST	ENDS
;	COMDAT ??_C@_01CELHOKLL@?$HN?$AA@
CONST	SEGMENT
??_C@_01CELHOKLL@?$HN?$AA@ DB '}', 00H			; `string'
CONST	ENDS
;	COMDAT ??_C@_02MNJOIFPO@?$HL?5?$AA@
CONST	SEGMENT
??_C@_02MNJOIFPO@?$HL?5?$AA@ DB '{ ', 00H		; `string'
CONST	ENDS
;	COMDAT ??_C@_0N@LGCBLIJP@facet_merge?$CI?$AA@
CONST	SEGMENT
??_C@_0N@LGCBLIJP@facet_merge?$CI?$AA@ DB 'facet_merge(', 00H ; `string'
CONST	ENDS
;	COMDAT ??_C@_0M@PJOFJFAC@edge_merge?$CI?$AA@
CONST	SEGMENT
??_C@_0M@PJOFJFAC@edge_merge?$CI?$AA@ DB 'edge_merge(', 00H ; `string'
CONST	ENDS
;	COMDAT ??_C@_0O@NNPGAOLH@vertex_merge?$CI?$AA@
CONST	SEGMENT
??_C@_0O@NNPGAOLH@vertex_merge?$CI?$AA@ DB 'vertex_merge(', 00H ; `string'
CONST	ENDS
;	COMDAT ??_C@_0BH@CJCHMGEH@matrix_determinant?$CI?$CFs?$CJ?$AA@
CONST	SEGMENT
??_C@_0BH@CJCHMGEH@matrix_determinant?$CI?$CFs?$CJ?$AA@ DB 'matrix_determ'
	DB	'inant(%s)', 00H				; `string'
CONST	ENDS
;	COMDAT ??_C@_0BK@EMGJAFJA@matrix_multiply?$CI?$CFs?0?$CFs?0?$CFs?$CJ?$AA@
CONST	SEGMENT
??_C@_0BK@EMGJAFJA@matrix_multiply?$CI?$CFs?0?$CFs?0?$CFs?$CJ?$AA@ DB 'ma'
	DB	'trix_multiply(%s,%s,%s)', 00H		; `string'
CONST	ENDS
;	COMDAT ??_C@_0BG@ICBGMJLO@matrix_inverse?$CI?$CFs?0?$CFs?$CJ?$AA@
CONST	SEGMENT
??_C@_0BG@ICBGMJLO@matrix_inverse?$CI?$CFs?0?$CFs?$CJ?$AA@ DB 'matrix_inv'
	DB	'erse(%s,%s)', 00H				; `string'
CONST	ENDS
;	COMDAT ??_C@_0BA@BCKHPENM@valid_boundary?$CI?$AA@
CONST	SEGMENT
??_C@_0BA@BCKHPENM@valid_boundary?$CI?$AA@ DB 'valid_boundary(', 00H ; `string'
CONST	ENDS
;	COMDAT ??_C@_0BC@PBMMAEOP@valid_constraint?$CI?$AA@
CONST	SEGMENT
??_C@_0BC@PBMMAEOP@valid_constraint?$CI?$AA@ DB 'valid_constraint(', 00H ; `string'
CONST	ENDS
;	COMDAT ??_C@_02CAJMAEOF@?$FN?$CJ?$AA@
CONST	SEGMENT
??_C@_02CAJMAEOF@?$FN?$CJ?$AA@ DB '])', 00H		; `string'
CONST	ENDS
;	COMDAT ??_C@_0BC@HAFOGDEI@valid_element?$CI?$CFs?$FL?$AA@
CONST	SEGMENT
??_C@_0BC@HAFOGDEI@valid_element?$CI?$CFs?$FL?$AA@ DB 'valid_element(%s[', 00H ; `string'
CONST	ENDS
;	COMDAT ??_C@_08IHIBGNIK@?$CFs?$CFd?$EA?$CFd?6?$AA@
CONST	SEGMENT
??_C@_08IHIBGNIK@?$CFs?$CFd?$EA?$CFd?6?$AA@ DB '%s%d@%d', 0aH, 00H ; `string'
CONST	ENDS
;	COMDAT ??_C@_02BINJDKOC@?5?9?$AA@
CONST	SEGMENT
??_C@_02BINJDKOC@?5?9?$AA@ DB ' -', 00H			; `string'
CONST	ENDS
;	COMDAT ??_C@_08PANPCJAE@new_body?$AA@
CONST	SEGMENT
??_C@_08PANPCJAE@new_body?$AA@ DB 'new_body', 00H	; `string'
CONST	ENDS
;	COMDAT ??_C@_0L@EONBLCMF@new_facet?$CI?$AA@
CONST	SEGMENT
??_C@_0L@EONBLCMF@new_facet?$CI?$AA@ DB 'new_facet(', 00H ; `string'
CONST	ENDS
;	COMDAT ??_C@_09DHJMEBMJ@new_edge?$CI?$AA@
CONST	SEGMENT
??_C@_09DHJMEBMJ@new_edge?$CI?$AA@ DB 'new_edge(', 00H	; `string'
CONST	ENDS
;	COMDAT ??_C@_0BA@JMJFPOOP@facet_crosscut?$CI?$AA@
CONST	SEGMENT
??_C@_0BA@JMJFPOOP@facet_crosscut?$CI?$AA@ DB 'facet_crosscut(', 00H ; `string'
CONST	ENDS
;	COMDAT ??_C@_0M@CPPKCNFJ@new_vertex?$CI?$AA@
CONST	SEGMENT
??_C@_0M@CPPKCNFJ@new_vertex?$CI?$AA@ DB 'new_vertex(', 00H ; `string'
CONST	ENDS
;	COMDAT ??_C@_01IHBHIGKO@?0?$AA@
CONST	SEGMENT
??_C@_01IHBHIGKO@?0?$AA@ DB ',', 00H			; `string'
CONST	ENDS
;	COMDAT ??_C@_0N@MHMLBPOO@wrap_vertex?$CI?$AA@
CONST	SEGMENT
??_C@_0N@MHMLBPOO@wrap_vertex?$CI?$AA@ DB 'wrap_vertex(', 00H ; `string'
CONST	ENDS
;	COMDAT ??_C@_03LHCEFAHM@?5?$HN?5?$AA@
CONST	SEGMENT
??_C@_03LHCEFAHM@?5?$HN?5?$AA@ DB ' } ', 00H		; `string'
CONST	ENDS
;	COMDAT ??_C@_0M@PNBOCBHK@?5function?5?$HL?$AA@
CONST	SEGMENT
??_C@_0M@PNBOCBHK@?5function?5?$HL?$AA@ DB ' function {', 00H ; `string'
CONST	ENDS
;	COMDAT ??_C@_02KEGNLNML@?0?5?$AA@
CONST	SEGMENT
??_C@_02KEGNLNML@?0?5?$AA@ DB ', ', 00H			; `string'
CONST	ENDS
;	COMDAT ??_C@_02ENHNEHDL@?$DL?$GA?$AA@
CONST	SEGMENT
??_C@_02ENHNEHDL@?$DL?$GA?$AA@ DB ';`', 00H		; `string'
CONST	ENDS
;	COMDAT ??_C@_0P@CIAKADLN@?$FN?4nonpositive?5?$AA@
CONST	SEGMENT
??_C@_0P@CIAKADLN@?$FN?4nonpositive?5?$AA@ DB '].nonpositive ', 00H ; `string'
CONST	ENDS
;	COMDAT ??_C@_0P@EPFNEJMO@?$FN?4nonnegative?5?$AA@
CONST	SEGMENT
??_C@_0P@EPFNEJMO@?$FN?4nonnegative?5?$AA@ DB '].nonnegative ', 00H ; `string'
CONST	ENDS
;	COMDAT ??_C@_08KOIKPBDI@?$FN?4fixed?5?$AA@
CONST	SEGMENT
??_C@_08KOIKPBDI@?$FN?4fixed?5?$AA@ DB '].fixed ', 00H	; `string'
CONST	ENDS
;	COMDAT ??_C@_0P@OLFNJOBD@is_constraint?$FL?$AA@
CONST	SEGMENT
??_C@_0P@OLFNJOBD@is_constraint?$FL?$AA@ DB 'is_constraint[', 00H ; `string'
CONST	ENDS
;	COMDAT ??_C@_0N@GCKGCNIB@delete_text?$CI?$AA@
CONST	SEGMENT
??_C@_0N@GCKGCNIB@delete_text?$CI?$AA@ DB 'delete_text(', 00H ; `string'
CONST	ENDS
;	COMDAT ??_C@_0O@BIKLGEAI@display_text?$CI?$AA@
CONST	SEGMENT
??_C@_0O@BIKLGEAI@display_text?$CI?$AA@ DB 'display_text(', 00H ; `string'
CONST	ENDS
;	COMDAT ??_C@_02LNAEAIDO@?$DL?5?$AA@
CONST	SEGMENT
??_C@_02LNAEAIDO@?$DL?5?$AA@ DB '; ', 00H		; `string'
CONST	ENDS
;	COMDAT ??_C@_08EJMMFDE@logfile?5?$AA@
CONST	SEGMENT
??_C@_08EJMMFDE@logfile?5?$AA@ DB 'logfile ', 00H	; `string'
CONST	ENDS
;	COMDAT ??_C@_0M@OLFPELNL@keylogfile?5?$AA@
CONST	SEGMENT
??_C@_0M@OLFPELNL@keylogfile?5?$AA@ DB 'keylogfile ', 00H ; `string'
CONST	ENDS
;	COMDAT ??_C@_0BE@LDMGAIBD@unsuppress_warning?5?$AA@
CONST	SEGMENT
??_C@_0BE@LDMGAIBD@unsuppress_warning?5?$AA@ DB 'unsuppress_warning ', 00H ; `string'
CONST	ENDS
;	COMDAT ??_C@_0BC@MALBFLFO@suppress_warning?5?$AA@
CONST	SEGMENT
??_C@_0BC@MALBFLFO@suppress_warning?5?$AA@ DB 'suppress_warning ', 00H ; `string'
CONST	ENDS
;	COMDAT ??_C@_0BC@NOJGAMCH@unset?5breakpoints?$AA@
CONST	SEGMENT
??_C@_0BC@NOJGAMCH@unset?5breakpoints?$AA@ DB 'unset breakpoints', 00H ; `string'
CONST	ENDS
;	COMDAT ??_C@_0BF@KDLHDBHK@unset?5breakpoint?5?$CFs?5?$AA@
CONST	SEGMENT
??_C@_0BF@KDLHDBHK@unset?5breakpoint?5?$CFs?5?$AA@ DB 'unset breakpoint %'
	DB	's ', 00H					; `string'
CONST	ENDS
;	COMDAT ??_C@_02MCILKGOH@?$HL?$HN?$AA@
CONST	SEGMENT
??_C@_02MCILKGOH@?$HL?$HN?$AA@ DB '{}', 00H		; `string'
CONST	ENDS
;	COMDAT ??_C@_06BGEGKFCE@abort?5?$AA@
CONST	SEGMENT
??_C@_06BGEGKFCE@abort?5?$AA@ DB 'abort ', 00H		; `string'
CONST	ENDS
;	COMDAT ??_C@_0P@HOFIKNGF@breakpoint?5?$CFs?5?$AA@
CONST	SEGMENT
??_C@_0P@HOFIKNGF@breakpoint?5?$CFs?5?$AA@ DB 'breakpoint %s ', 00H ; `string'
; Function compile flags: /Ogtp
CONST	ENDS
;	COMDAT _exprint_recur
_TEXT	SEGMENT
tv5077 = -216						; size = 8
tv5044 = -212						; size = 4
_g$90156 = -208						; size = 4
_a$89727 = -208						; size = 4
_localbase$ = -208					; size = 4
tv5000 = -206						; size = 2
_temp$90495 = -204					; size = 100
_temp$90488 = -104					; size = 100
__$ArrayPad$ = -4					; size = 4
_node$ = 8						; size = 4
_prec_parent$ = 12					; size = 4
_exprint_recur PROC					; COMDAT

; 320  : {

	push	ebp
	mov	ebp, esp
	sub	esp, 216				; 000000d8H
	mov	eax, DWORD PTR ___security_cookie
	xor	eax, ebp
	mov	DWORD PTR __$ArrayPad$[ebp], eax

; 321  :   struct treenode *nn;
; 322  :   struct extra *ex;
; 323  :   struct locallist_t *localbase = current_proc_locals[current_proc_depth];

	mov	eax, DWORD PTR _current_proc_depth
	push	ebx
	mov	ebx, DWORD PTR _node$[ebp]
	push	esi
	mov	esi, DWORD PTR _current_proc_locals[eax*4]
	push	edi

; 324  : 
; 325  :    check_room_left(1000); 

	push	1000					; 000003e8H
	mov	DWORD PTR _localbase$[ebp], esi
	call	_check_room_left

; 326  :   /* insert some handy line breaks */
; 327  :   if ( (pos - linestart > GOODLEN) /* && (pos[-2] != ';') */ ) 

	mov	ecx, DWORD PTR _pos
	mov	edx, ecx
	sub	edx, DWORD PTR _linestart
	add	esp, 4
	cmp	edx, 75					; 0000004bH
	jle	SHORT $LN732@exprint_re

; 328  :     linebreak(); 

	call	_linebreak
	mov	ecx, DWORD PTR _pos
$LN732@exprint_re:

; 329  :   switch ( node->type )

	mov	edx, DWORD PTR [ebx]
	mov	eax, edx
	cmp	eax, 10002				; 00002712H
	jg	$LN1055@exprint_re
	je	$LN440@exprint_re
	cmp	eax, 4096				; 00001000H
	jne	$LN1@exprint_re

; 333  :       case NULLCMD_NODE:  return;
; 334  : 
; 335  :       case BREAKPOINT_NODE:
; 336  :          sprintf(pos,"breakpoint %s ",globals(node->op1.name_id)->name);

	mov	eax, DWORD PTR [ebx+32]
	mov	edx, eax
	and	edx, -16777216				; ff000000H
	cmp	edx, 268435456				; 10000000H
	je	SHORT $LN735@exprint_re
	cmp	edx, 805306368				; 30000000H
	jne	SHORT $LN737@exprint_re
	and	eax, 16777215				; 00ffffffH
	imul	eax, 224				; 000000e0H
	add	eax, DWORD PTR [esi]
	jmp	SHORT $LN736@exprint_re
$LN737@exprint_re:
	cmp	edx, 536870912				; 20000000H
	jne	SHORT $LN735@exprint_re
	mov	edx, DWORD PTR _web+5656
	and	eax, 16777215				; 00ffffffH
	mov	eax, DWORD PTR [edx+eax*4]
	jmp	SHORT $LN736@exprint_re
$LN735@exprint_re:
	mov	edx, DWORD PTR _web+5652
	and	eax, 16777215				; 00ffffffH
	lea	eax, DWORD PTR [edx+eax*4]
	mov	edx, DWORD PTR _dymem
	mov	eax, DWORD PTR [eax+edx]
$LN736@exprint_re:
	push	eax
	push	OFFSET ??_C@_0P@HOFIKNGF@breakpoint?5?$CFs?5?$AA@
	push	ecx
	call	_sprintf

; 337  :          pos += strlen(pos);

	mov	eax, DWORD PTR _pos
	add	esp, 12					; 0000000cH
	lea	edx, DWORD PTR [eax+1]
$LL1060@exprint_re:
	mov	cl, BYTE PTR [eax]
	inc	eax
	test	cl, cl
	jne	SHORT $LL1060@exprint_re

; 338  :          exprint_recur(node+node->left,prec_parent);
; 339  :          return;

	jmp	$LN1676@exprint_re
$LN440@exprint_re:

; 1577 :       case ABORT_NODE: sprintf(pos,"abort "); pos+=strlen(pos); break;

	push	OFFSET ??_C@_06BGEGKFCE@abort?5?$AA@
	push	ecx
	call	_sprintf
	mov	eax, DWORD PTR _pos
	add	esp, 8
	lea	edx, DWORD PTR [eax+1]
$LL1061@exprint_re:
	mov	cl, BYTE PTR [eax]
	inc	eax
	test	cl, cl
	jne	SHORT $LL1061@exprint_re
	pop	edi
	sub	eax, edx
	add	DWORD PTR _pos, eax
	pop	esi
	pop	ebx

; 3431 : 
; 3432 :          return;
; 3433 :      }
; 3434 :   return ; /* shouldn't happen */
; 3435 : } /* end exprint_recur */

	mov	ecx, DWORD PTR __$ArrayPad$[ebp]
	xor	ecx, ebp
	call	@__security_check_cookie@4
	mov	esp, ebp
	pop	ebp
	ret	0
$LN1055@exprint_re:

; 329  :   switch ( node->type )

	cmp	eax, 10755				; 00002a03H
	jg	$LN1056@exprint_re
	cmp	eax, 10749				; 000029fdH
	jge	$LN538@exprint_re
	sub	eax, 10003				; 00002713H
	cmp	eax, 744				; 000002e8H
	ja	$LN1@exprint_re
	jmp	DWORD PTR $LN1691@exprint_re[eax*4]
$LN728@exprint_re:

; 330  :     { 
; 331  :       case NOP_NODE:  return;
; 332  :       case NULLBLOCK_NODE: sprintf(pos,"{}");pos+=2; return;

	push	OFFSET ??_C@_02MCILKGOH@?$HL?$HN?$AA@
	push	ecx
	call	_sprintf
	add	esp, 8
	add	DWORD PTR _pos, 2
	pop	edi
	pop	esi
	pop	ebx

; 3431 : 
; 3432 :          return;
; 3433 :      }
; 3434 :   return ; /* shouldn't happen */
; 3435 : } /* end exprint_recur */

	mov	ecx, DWORD PTR __$ArrayPad$[ebp]
	xor	ecx, ebp
	call	@__security_check_cookie@4
	mov	esp, ebp
	pop	ebp
	ret	0
$LN725@exprint_re:

; 340  :          
; 341  :       case UNSET_BREAKPOINT_NODE:
; 342  :          if ( node->left )

	cmp	DWORD PTR [ebx+4], 0
	je	$LN724@exprint_re

; 343  :          { sprintf(pos,"unset breakpoint %s ",globals(node->op1.name_id)->name);

	mov	eax, DWORD PTR [ebx+32]
	mov	edx, eax
	and	edx, -16777216				; ff000000H
	cmp	edx, 268435456				; 10000000H
	je	SHORT $LN741@exprint_re
	cmp	edx, 805306368				; 30000000H
	jne	SHORT $LN743@exprint_re
	and	eax, 16777215				; 00ffffffH
	imul	eax, 224				; 000000e0H
	add	eax, DWORD PTR [esi]
	jmp	SHORT $LN742@exprint_re
$LN743@exprint_re:
	cmp	edx, 536870912				; 20000000H
	jne	SHORT $LN741@exprint_re
	mov	edx, DWORD PTR _web+5656
	and	eax, 16777215				; 00ffffffH
	mov	eax, DWORD PTR [edx+eax*4]
	jmp	SHORT $LN742@exprint_re
$LN741@exprint_re:
	mov	edx, DWORD PTR _web+5652
	and	eax, 16777215				; 00ffffffH
	lea	eax, DWORD PTR [edx+eax*4]
	mov	edx, DWORD PTR _dymem
	mov	eax, DWORD PTR [eax+edx]
$LN742@exprint_re:
	push	eax
	push	OFFSET ??_C@_0BF@KDLHDBHK@unset?5breakpoint?5?$CFs?5?$AA@
	push	ecx
	call	_sprintf

; 344  :            pos += strlen(pos);

	mov	eax, DWORD PTR _pos
	add	esp, 12					; 0000000cH
	lea	edx, DWORD PTR [eax+1]
$LL1062@exprint_re:
	mov	cl, BYTE PTR [eax]
	inc	eax
	test	cl, cl
	jne	SHORT $LL1062@exprint_re

; 345  :            exprint_recur(node+node->left,prec_parent);
; 346  :          }
; 347  :          else

	jmp	$LN1676@exprint_re
$LN724@exprint_re:

; 348  :          { sprintf(pos,"unset breakpoints");

	push	OFFSET ??_C@_0BC@NOJGAMCH@unset?5breakpoints?$AA@
	push	ecx
	call	_sprintf

; 349  :            pos += strlen(pos);

	mov	eax, DWORD PTR _pos
	add	esp, 8
	lea	edx, DWORD PTR [eax+1]
$LL1063@exprint_re:
	mov	cl, BYTE PTR [eax]
	inc	eax
	test	cl, cl
	jne	SHORT $LL1063@exprint_re
	pop	edi
	sub	eax, edx
	add	DWORD PTR _pos, eax
	pop	esi
	pop	ebx

; 3431 : 
; 3432 :          return;
; 3433 :      }
; 3434 :   return ; /* shouldn't happen */
; 3435 : } /* end exprint_recur */

	mov	ecx, DWORD PTR __$ArrayPad$[ebp]
	xor	ecx, ebp
	call	@__security_check_cookie@4
	mov	esp, ebp
	pop	ebp
	ret	0
$LN722@exprint_re:

; 350  :          }
; 351  :          return;
; 352  :          
; 353  :       case SUPPRESS_WARNING_NODE:
; 354  :          sprintf(pos,"suppress_warning "); pos += strlen(pos);

	push	OFFSET ??_C@_0BC@MALBFLFO@suppress_warning?5?$AA@
	push	ecx
	call	_sprintf
	mov	eax, DWORD PTR _pos
	add	esp, 8
	lea	edx, DWORD PTR [eax+1]
	npad	3
$LL1064@exprint_re:
	mov	cl, BYTE PTR [eax]
	inc	eax
	test	cl, cl
	jne	SHORT $LL1064@exprint_re
	sub	eax, edx
	add	DWORD PTR _pos, eax

; 1334 :          exprint_recur(node+node->left,PREC_ASSIGN);

	mov	eax, DWORD PTR [ebx+4]
	mov	edx, DWORD PTR _prec_parent$[ebp]
	imul	eax, 168				; 000000a8H
	push	edx
	add	eax, ebx
	push	eax
	call	_exprint_recur
	add	esp, 8
	pop	edi
	pop	esi
	pop	ebx

; 3431 : 
; 3432 :          return;
; 3433 :      }
; 3434 :   return ; /* shouldn't happen */
; 3435 : } /* end exprint_recur */

	mov	ecx, DWORD PTR __$ArrayPad$[ebp]
	xor	ecx, ebp
	call	@__security_check_cookie@4
	mov	esp, ebp
	pop	ebp
	ret	0
$LN721@exprint_re:

; 355  :          exprint_recur(node+node->left,prec_parent);
; 356  :          return;
; 357  : 
; 358  :       case UNSUPPRESS_WARNING_NODE:
; 359  :          sprintf(pos,"unsuppress_warning "); pos += strlen(pos);

	push	OFFSET ??_C@_0BE@LDMGAIBD@unsuppress_warning?5?$AA@
	push	ecx
	call	_sprintf
	mov	eax, DWORD PTR _pos
	add	esp, 8
	lea	edx, DWORD PTR [eax+1]
	npad	2
$LL1065@exprint_re:
	mov	cl, BYTE PTR [eax]
	inc	eax
	test	cl, cl
	jne	SHORT $LL1065@exprint_re

; 360  :          exprint_recur(node+node->left,prec_parent);
; 361  :          return;

	jmp	$LN1651@exprint_re
$LN720@exprint_re:

; 362  : 
; 363  :       case KEYLOGFILE_NODE:
; 364  :          sprintf(pos,"keylogfile "); pos += strlen(pos);

	push	OFFSET ??_C@_0M@OLFPELNL@keylogfile?5?$AA@
	push	ecx
	call	_sprintf
	mov	eax, DWORD PTR _pos
	add	esp, 8
	lea	edx, DWORD PTR [eax+1]
$LL1066@exprint_re:
	mov	cl, BYTE PTR [eax]
	inc	eax
	test	cl, cl
	jne	SHORT $LL1066@exprint_re

; 365  :          exprint_recur(node+node->left,prec_parent);
; 366  :          return;

	jmp	$LN1676@exprint_re
$LN719@exprint_re:

; 367  : 
; 368  :       case LOGFILE_NODE:
; 369  :          sprintf(pos,"logfile "); pos += strlen(pos);

	push	OFFSET ??_C@_08EJMMFDE@logfile?5?$AA@
	push	ecx
	call	_sprintf
	mov	eax, DWORD PTR _pos
	add	esp, 8
	lea	edx, DWORD PTR [eax+1]
$LL1067@exprint_re:
	mov	cl, BYTE PTR [eax]
	inc	eax
	test	cl, cl
	jne	SHORT $LL1067@exprint_re
	sub	eax, edx
	add	DWORD PTR _pos, eax

; 1334 :          exprint_recur(node+node->left,PREC_ASSIGN);

	mov	eax, DWORD PTR [ebx+4]
	mov	edx, DWORD PTR _prec_parent$[ebp]
	imul	eax, 168				; 000000a8H
	push	edx
	add	eax, ebx
	push	eax
	call	_exprint_recur
	add	esp, 8
	pop	edi
	pop	esi
	pop	ebx

; 3431 : 
; 3432 :          return;
; 3433 :      }
; 3434 :   return ; /* shouldn't happen */
; 3435 : } /* end exprint_recur */

	mov	ecx, DWORD PTR __$ArrayPad$[ebp]
	xor	ecx, ebp
	call	@__security_check_cookie@4
	mov	esp, ebp
	pop	ebp
	ret	0
$LN718@exprint_re:

; 370  :          exprint_recur(node+node->left,prec_parent);
; 371  :          return;
; 372  : 
; 373  :       case CMDLIST_NODE:
; 374  :          exprint_recur(node+node->left,prec_parent);

	mov	ecx, DWORD PTR [ebx+4]
	mov	esi, DWORD PTR _prec_parent$[ebp]
	imul	ecx, 168				; 000000a8H
	add	ecx, ebx
	push	esi
	push	ecx
	call	_exprint_recur
	add	esp, 8

; 375  :          if ( node->right )

	cmp	DWORD PTR [ebx+8], 0
	je	$LN730@exprint_re

; 376  :          {  if ( pos[-1] == ' ' ) 

	mov	eax, DWORD PTR _pos
	cmp	BYTE PTR [eax-1], 32			; 00000020H
	jne	SHORT $LN716@exprint_re
	dec	eax

; 377  :               pos--;

	mov	DWORD PTR _pos, eax
$LN716@exprint_re:

; 378  :             sprintf(pos,"; "); pos += 2;

	push	OFFSET ??_C@_02LNAEAIDO@?$DL?5?$AA@
	push	eax
	call	_sprintf
	add	DWORD PTR _pos, 2

; 379  :             newline();

	call	_newline

; 380  :             exprint_recur(node+node->right,prec_parent);

	mov	edx, DWORD PTR [ebx+8]
	imul	edx, 168				; 000000a8H
	add	edx, ebx
	push	esi
	push	edx

; 657  :          exprint_recur(node+node->right,prec_parent);

	call	_exprint_recur
	add	esp, 16					; 00000010H
	pop	edi
	pop	esi
	pop	ebx

; 3431 : 
; 3432 :          return;
; 3433 :      }
; 3434 :   return ; /* shouldn't happen */
; 3435 : } /* end exprint_recur */

	mov	ecx, DWORD PTR __$ArrayPad$[ebp]
	xor	ecx, ebp
	call	@__security_check_cookie@4
	mov	esp, ebp
	pop	ebp
	ret	0
$LN714@exprint_re:

; 381  :           }
; 382  :          return;
; 383  :      
; 384  :       case BACKQUOTE_START_NODE: return;
; 385  :       case BACKQUOTE_END_NODE:
; 386  :          exprint_recur(node+node->right,prec_parent); /* left was dummy */

	mov	ecx, DWORD PTR [ebx+8]
	mov	eax, DWORD PTR _prec_parent$[ebp]

; 1267 :          exprint_recur(node+node->left,prec_parent);

	imul	ecx, 168				; 000000a8H
	push	eax
	add	ecx, ebx
	push	ecx
	call	_exprint_recur
	add	esp, 8
	pop	edi
	pop	esi
	pop	ebx

; 3431 : 
; 3432 :          return;
; 3433 :      }
; 3434 :   return ; /* shouldn't happen */
; 3435 : } /* end exprint_recur */

	mov	ecx, DWORD PTR __$ArrayPad$[ebp]
	xor	ecx, ebp
	call	@__security_check_cookie@4
	mov	esp, ebp
	pop	ebp
	ret	0
$LN712@exprint_re:

; 387  :          return;
; 388  : 
; 389  :       case TEXT_SPOT_NODE:
; 390  :          exprint_recur(node+node->left,prec_parent); 
; 391  :          *(pos++) = ',';  *pos = 0;
; 392  :          exprint_recur(node+node->right,prec_parent);
; 393  :          return;
; 394  : 
; 395  :       case TEXT_SIZE_NODE:
; 396  :          exprint_recur(node+node->left,prec_parent); 

	mov	ecx, DWORD PTR [ebx+4]
	mov	esi, DWORD PTR _prec_parent$[ebp]
	imul	ecx, 168				; 000000a8H
	add	ecx, ebx
	push	esi
	push	ecx
	call	_exprint_recur

; 397  :          *(pos++) = ',';  *pos = 0;

	mov	eax, DWORD PTR _pos
	mov	BYTE PTR [eax], 44			; 0000002cH
	inc	eax
	mov	BYTE PTR [eax], 0

; 398  :          exprint_recur(node+node->right,prec_parent);

	mov	edx, DWORD PTR [ebx+8]
	imul	edx, 168				; 000000a8H
	add	edx, ebx
	push	esi
	push	edx
	mov	DWORD PTR _pos, eax

; 657  :          exprint_recur(node+node->right,prec_parent);

	call	_exprint_recur
	add	esp, 16					; 00000010H
	pop	edi
	pop	esi
	pop	ebx

; 3431 : 
; 3432 :          return;
; 3433 :      }
; 3434 :   return ; /* shouldn't happen */
; 3435 : } /* end exprint_recur */

	mov	ecx, DWORD PTR __$ArrayPad$[ebp]
	xor	ecx, ebp
	call	@__security_check_cookie@4
	mov	esp, ebp
	pop	ebp
	ret	0
$LN711@exprint_re:

; 399  :          return;
; 400  : 
; 401  :       case DISPLAY_TEXT_NODE:
; 402  :          sprintf(pos,"display_text("); pos += strlen(pos);

	push	OFFSET ??_C@_0O@BIKLGEAI@display_text?$CI?$AA@
	push	ecx
	call	_sprintf
	mov	eax, DWORD PTR _pos
	add	esp, 8
	lea	edx, DWORD PTR [eax+1]
$LL1068@exprint_re:
	mov	cl, BYTE PTR [eax]
	inc	eax
	test	cl, cl
	jne	SHORT $LL1068@exprint_re

; 403  :          exprint_recur(node+node->left,prec_parent);

	mov	esi, DWORD PTR _prec_parent$[ebp]
	sub	eax, edx
	add	DWORD PTR _pos, eax
	mov	eax, DWORD PTR [ebx+4]
	imul	eax, 168				; 000000a8H
	add	eax, ebx
	push	esi
	push	eax
	call	_exprint_recur

; 404  :          *(pos++) = ',';  *pos = 0;

	mov	eax, DWORD PTR _pos
	mov	BYTE PTR [eax], 44			; 0000002cH
	inc	eax
	mov	BYTE PTR [eax], 0

; 405  :          exprint_recur(node+node->right,prec_parent);

	mov	ecx, DWORD PTR [ebx+8]
	imul	ecx, 168				; 000000a8H
	add	ecx, ebx
	push	esi
	push	ecx
	mov	DWORD PTR _pos, eax
	call	_exprint_recur
	add	esp, 16					; 00000010H

; 406  :          *(pos++) = ')';  *pos = 0;
; 407  :          return;

	jmp	$LN1665@exprint_re
$LN710@exprint_re:

; 408  : 
; 409  :       case DELETE_TEXT_NODE:
; 410  :          sprintf(pos,"delete_text("); pos += strlen(pos);

	push	OFFSET ??_C@_0N@GCKGCNIB@delete_text?$CI?$AA@
	push	ecx
	call	_sprintf
	mov	eax, DWORD PTR _pos
	add	esp, 8
	lea	edx, DWORD PTR [eax+1]
	npad	4
$LL1069@exprint_re:
	mov	cl, BYTE PTR [eax]
	inc	eax
	test	cl, cl
	jne	SHORT $LL1069@exprint_re
	sub	eax, edx
	add	DWORD PTR _pos, eax

; 411  :          exprint_recur(node+node->left,prec_parent);

	mov	eax, DWORD PTR [ebx+4]
	mov	edx, DWORD PTR _prec_parent$[ebp]
	imul	eax, 168				; 000000a8H
	push	edx
	add	eax, ebx
	push	eax

; 412  :          *(pos++) = ')';  *pos = 0;
; 413  :          return;

	jmp	$LN1666@exprint_re
$LN709@exprint_re:

; 414  : 
; 415  :       case CONSTRAINT_FIXED_NODE:
; 416  :          strcat(pos,"is_constraint["); pos += strlen(pos);

	lea	esi, DWORD PTR [ecx-1]
$LL1070@exprint_re:
	mov	al, BYTE PTR [esi+1]
	inc	esi
	test	al, al
	jne	SHORT $LL1070@exprint_re
	mov	edx, DWORD PTR ??_C@_0P@OLFNJOBD@is_constraint?$FL?$AA@
	mov	DWORD PTR [esi], edx
	mov	eax, DWORD PTR ??_C@_0P@OLFNJOBD@is_constraint?$FL?$AA@+4
	mov	DWORD PTR [esi+4], eax
	mov	edx, DWORD PTR ??_C@_0P@OLFNJOBD@is_constraint?$FL?$AA@+8
	mov	DWORD PTR [esi+8], edx
	mov	ax, WORD PTR ??_C@_0P@OLFNJOBD@is_constraint?$FL?$AA@+12
	mov	WORD PTR [esi+12], ax
	mov	dl, BYTE PTR ??_C@_0P@OLFNJOBD@is_constraint?$FL?$AA@+14
	mov	BYTE PTR [esi+14], dl
	mov	esi, ecx
	lea	edx, DWORD PTR [esi+1]
$LL1071@exprint_re:
	mov	al, BYTE PTR [esi]
	inc	esi
	test	al, al
	jne	SHORT $LL1071@exprint_re

; 417  :          exprint_recur(node+node->left,prec_parent);

	mov	eax, DWORD PTR _prec_parent$[ebp]
	sub	esi, edx
	add	ecx, esi
	mov	DWORD PTR _pos, ecx
	mov	ecx, DWORD PTR [ebx+4]
	imul	ecx, 168				; 000000a8H
	push	eax
	add	ecx, ebx
	push	ecx
	call	_exprint_recur

; 418  :          strcat(pos,"].fixed "); pos += strlen(pos);

	mov	edx, DWORD PTR _pos
	add	esp, 8
	lea	eax, DWORD PTR [edx-1]
$LL1072@exprint_re:
	mov	cl, BYTE PTR [eax+1]
	inc	eax
	test	cl, cl
	jne	SHORT $LL1072@exprint_re
	mov	ecx, DWORD PTR ??_C@_08KOIKPBDI@?$FN?4fixed?5?$AA@
	mov	DWORD PTR [eax], ecx
	mov	ecx, DWORD PTR ??_C@_08KOIKPBDI@?$FN?4fixed?5?$AA@+4
	mov	DWORD PTR [eax+4], ecx
	mov	cl, BYTE PTR ??_C@_08KOIKPBDI@?$FN?4fixed?5?$AA@+8
	mov	BYTE PTR [eax+8], cl
	mov	eax, edx
	lea	esi, DWORD PTR [eax+1]
	npad	7
$LL1073@exprint_re:
	mov	cl, BYTE PTR [eax]
	inc	eax
	test	cl, cl
	jne	SHORT $LL1073@exprint_re
	sub	eax, esi
	pop	edi
	add	edx, eax
	pop	esi
	mov	DWORD PTR _pos, edx
	pop	ebx

; 3431 : 
; 3432 :          return;
; 3433 :      }
; 3434 :   return ; /* shouldn't happen */
; 3435 : } /* end exprint_recur */

	mov	ecx, DWORD PTR __$ArrayPad$[ebp]
	xor	ecx, ebp
	call	@__security_check_cookie@4
	mov	esp, ebp
	pop	ebp
	ret	0
$LN708@exprint_re:

; 419  :          break;
; 420  : 
; 421  :          case CONSTRAINT_NONNEGATIVE_NODE:
; 422  :          strcat(pos,"is_constraint["); pos += strlen(pos);

	lea	esi, DWORD PTR [ecx-1]
$LL1074@exprint_re:
	mov	al, BYTE PTR [esi+1]
	inc	esi
	test	al, al
	jne	SHORT $LL1074@exprint_re
	mov	edx, DWORD PTR ??_C@_0P@OLFNJOBD@is_constraint?$FL?$AA@
	mov	DWORD PTR [esi], edx
	mov	eax, DWORD PTR ??_C@_0P@OLFNJOBD@is_constraint?$FL?$AA@+4
	mov	DWORD PTR [esi+4], eax
	mov	edx, DWORD PTR ??_C@_0P@OLFNJOBD@is_constraint?$FL?$AA@+8
	mov	DWORD PTR [esi+8], edx
	mov	ax, WORD PTR ??_C@_0P@OLFNJOBD@is_constraint?$FL?$AA@+12
	mov	WORD PTR [esi+12], ax
	mov	dl, BYTE PTR ??_C@_0P@OLFNJOBD@is_constraint?$FL?$AA@+14
	mov	BYTE PTR [esi+14], dl
	mov	esi, ecx
	lea	edx, DWORD PTR [esi+1]
	npad	2
$LL1075@exprint_re:
	mov	al, BYTE PTR [esi]
	inc	esi
	test	al, al
	jne	SHORT $LL1075@exprint_re

; 423  :          exprint_recur(node+node->left,prec_parent);

	mov	eax, DWORD PTR _prec_parent$[ebp]
	sub	esi, edx
	add	ecx, esi
	mov	DWORD PTR _pos, ecx
	mov	ecx, DWORD PTR [ebx+4]
	imul	ecx, 168				; 000000a8H
	push	eax
	add	ecx, ebx
	push	ecx
	call	_exprint_recur

; 424  :          strcat(pos,"].nonnegative "); pos += strlen(pos);

	mov	edx, DWORD PTR _pos
	add	esp, 8
	lea	eax, DWORD PTR [edx-1]
$LL1076@exprint_re:
	mov	cl, BYTE PTR [eax+1]
	inc	eax
	test	cl, cl
	jne	SHORT $LL1076@exprint_re
	mov	ecx, DWORD PTR ??_C@_0P@EPFNEJMO@?$FN?4nonnegative?5?$AA@
	mov	DWORD PTR [eax], ecx
	mov	ecx, DWORD PTR ??_C@_0P@EPFNEJMO@?$FN?4nonnegative?5?$AA@+4
	mov	DWORD PTR [eax+4], ecx
	mov	ecx, DWORD PTR ??_C@_0P@EPFNEJMO@?$FN?4nonnegative?5?$AA@+8
	mov	DWORD PTR [eax+8], ecx
	mov	cx, WORD PTR ??_C@_0P@EPFNEJMO@?$FN?4nonnegative?5?$AA@+12
	mov	WORD PTR [eax+12], cx
	mov	cl, BYTE PTR ??_C@_0P@EPFNEJMO@?$FN?4nonnegative?5?$AA@+14
	mov	BYTE PTR [eax+14], cl
	mov	eax, edx
	lea	esi, DWORD PTR [eax+1]
	npad	3
$LL1077@exprint_re:
	mov	cl, BYTE PTR [eax]
	inc	eax
	test	cl, cl
	jne	SHORT $LL1077@exprint_re
	sub	eax, esi
	pop	edi
	add	edx, eax
	pop	esi
	mov	DWORD PTR _pos, edx
	pop	ebx

; 3431 : 
; 3432 :          return;
; 3433 :      }
; 3434 :   return ; /* shouldn't happen */
; 3435 : } /* end exprint_recur */

	mov	ecx, DWORD PTR __$ArrayPad$[ebp]
	xor	ecx, ebp
	call	@__security_check_cookie@4
	mov	esp, ebp
	pop	ebp
	ret	0
$LN707@exprint_re:

; 425  :          break;
; 426  : 
; 427  :      case CONSTRAINT_NONPOSITIVE_NODE:
; 428  :          strcat(pos,"is_constraint["); pos += strlen(pos);

	lea	esi, DWORD PTR [ecx-1]
$LL1078@exprint_re:
	mov	al, BYTE PTR [esi+1]
	inc	esi
	test	al, al
	jne	SHORT $LL1078@exprint_re
	mov	edx, DWORD PTR ??_C@_0P@OLFNJOBD@is_constraint?$FL?$AA@
	mov	DWORD PTR [esi], edx
	mov	eax, DWORD PTR ??_C@_0P@OLFNJOBD@is_constraint?$FL?$AA@+4
	mov	DWORD PTR [esi+4], eax
	mov	edx, DWORD PTR ??_C@_0P@OLFNJOBD@is_constraint?$FL?$AA@+8
	mov	DWORD PTR [esi+8], edx
	mov	ax, WORD PTR ??_C@_0P@OLFNJOBD@is_constraint?$FL?$AA@+12
	mov	WORD PTR [esi+12], ax
	mov	dl, BYTE PTR ??_C@_0P@OLFNJOBD@is_constraint?$FL?$AA@+14
	mov	BYTE PTR [esi+14], dl
	mov	esi, ecx
	lea	edx, DWORD PTR [esi+1]
	npad	2
$LL1079@exprint_re:
	mov	al, BYTE PTR [esi]
	inc	esi
	test	al, al
	jne	SHORT $LL1079@exprint_re

; 429  :          exprint_recur(node+node->left,prec_parent);

	mov	eax, DWORD PTR _prec_parent$[ebp]
	sub	esi, edx
	add	ecx, esi
	mov	DWORD PTR _pos, ecx
	mov	ecx, DWORD PTR [ebx+4]
	imul	ecx, 168				; 000000a8H
	push	eax
	add	ecx, ebx
	push	ecx
	call	_exprint_recur

; 430  :          strcat(pos,"].nonpositive "); pos += strlen(pos);

	mov	edx, DWORD PTR _pos
	add	esp, 8
	lea	eax, DWORD PTR [edx-1]
$LL1080@exprint_re:
	mov	cl, BYTE PTR [eax+1]
	inc	eax
	test	cl, cl
	jne	SHORT $LL1080@exprint_re
	mov	ecx, DWORD PTR ??_C@_0P@CIAKADLN@?$FN?4nonpositive?5?$AA@
	mov	DWORD PTR [eax], ecx
	mov	ecx, DWORD PTR ??_C@_0P@CIAKADLN@?$FN?4nonpositive?5?$AA@+4
	mov	DWORD PTR [eax+4], ecx
	mov	ecx, DWORD PTR ??_C@_0P@CIAKADLN@?$FN?4nonpositive?5?$AA@+8
	mov	DWORD PTR [eax+8], ecx
	mov	cx, WORD PTR ??_C@_0P@CIAKADLN@?$FN?4nonpositive?5?$AA@+12
	mov	WORD PTR [eax+12], cx
	mov	cl, BYTE PTR ??_C@_0P@CIAKADLN@?$FN?4nonpositive?5?$AA@+14
	mov	BYTE PTR [eax+14], cl
	mov	eax, edx
	lea	esi, DWORD PTR [eax+1]
	npad	3
$LL1081@exprint_re:
	mov	cl, BYTE PTR [eax]
	inc	eax
	test	cl, cl
	jne	SHORT $LL1081@exprint_re
	sub	eax, esi
	pop	edi
	add	edx, eax
	pop	esi
	mov	DWORD PTR _pos, edx
	pop	ebx

; 3431 : 
; 3432 :          return;
; 3433 :      }
; 3434 :   return ; /* shouldn't happen */
; 3435 : } /* end exprint_recur */

	mov	ecx, DWORD PTR __$ArrayPad$[ebp]
	xor	ecx, ebp
	call	@__security_check_cookie@4
	mov	esp, ebp
	pop	ebp
	ret	0
$LN706@exprint_re:

; 431  :          break;
; 432  : 
; 433  :       case ACOMMANDEXPR_NODE:
; 434  :          *(pos++) = '`';   *pos = 0;/* surround with backquotes */
; 435  :          exprint_recur(node+node->left,prec_parent);

	mov	esi, DWORD PTR _prec_parent$[ebp]
	mov	BYTE PTR [ecx], 96			; 00000060H
	inc	ecx
	mov	BYTE PTR [ecx], 0
	mov	edx, DWORD PTR [ebx+4]
	imul	edx, 168				; 000000a8H
	add	edx, ebx
	push	esi
	push	edx
	mov	DWORD PTR _pos, ecx
	call	_exprint_recur

; 436  :          sprintf(pos,";`");

	mov	eax, DWORD PTR _pos
	push	OFFSET ??_C@_02ENHNEHDL@?$DL?$GA?$AA@
	push	eax
	call	_sprintf

; 437  :          pos+=2; /* surround with backquotes; make sure of ; */

	mov	edi, 2
	add	DWORD PTR _pos, edi
	add	esp, 16					; 00000010H

; 438  :          if ( node->right )

	cmp	DWORD PTR [ebx+8], 0
	je	$LN730@exprint_re

; 439  :           { sprintf(pos,", "); pos += 2;

	mov	ecx, DWORD PTR _pos
	push	OFFSET ??_C@_02KEGNLNML@?0?5?$AA@
	push	ecx
	call	_sprintf

; 440  :             exprint_recur(node+node->right,prec_parent);

	mov	edx, DWORD PTR [ebx+8]
	add	DWORD PTR _pos, edi
	imul	edx, 168				; 000000a8H
	add	edx, ebx
	push	esi
	push	edx

; 657  :          exprint_recur(node+node->right,prec_parent);

	call	_exprint_recur
	add	esp, 16					; 00000010H
	pop	edi
	pop	esi
	pop	ebx

; 3431 : 
; 3432 :          return;
; 3433 :      }
; 3434 :   return ; /* shouldn't happen */
; 3435 : } /* end exprint_recur */

	mov	ecx, DWORD PTR __$ArrayPad$[ebp]
	xor	ecx, ebp
	call	@__security_check_cookie@4
	mov	esp, ebp
	pop	ebp
	ret	0
$LN704@exprint_re:

; 441  :           }
; 442  :          return;
; 443  : 
; 444  :       case ATTR_FUNCTION_END_NODE:
; 445  :          exprint_recur(node+node->left,prec_parent);  /* define part */

	mov	eax, DWORD PTR [ebx+4]
	mov	edi, DWORD PTR _prec_parent$[ebp]
	imul	eax, 168				; 000000a8H
	add	eax, ebx
	push	edi
	push	eax
	call	_exprint_recur

; 446  :          strcat(pos," function {"); pos += strlen(pos);

	mov	edx, DWORD PTR _pos
	add	esp, 8
	lea	eax, DWORD PTR [edx-1]
	npad	6
$LL1082@exprint_re:
	mov	cl, BYTE PTR [eax+1]
	inc	eax
	test	cl, cl
	jne	SHORT $LL1082@exprint_re
	mov	ecx, DWORD PTR ??_C@_0M@PNBOCBHK@?5function?5?$HL?$AA@
	mov	DWORD PTR [eax], ecx
	mov	ecx, DWORD PTR ??_C@_0M@PNBOCBHK@?5function?5?$HL?$AA@+4
	mov	DWORD PTR [eax+4], ecx
	mov	ecx, DWORD PTR ??_C@_0M@PNBOCBHK@?5function?5?$HL?$AA@+8
	mov	DWORD PTR [eax+8], ecx
	mov	eax, edx
	lea	esi, DWORD PTR [eax+1]
$LL1083@exprint_re:
	mov	cl, BYTE PTR [eax]
	inc	eax
	test	cl, cl
	jne	SHORT $LL1083@exprint_re
	sub	eax, esi
	add	edx, eax
	mov	DWORD PTR _pos, edx

; 447  :          exprint_recur(node+node->right,prec_parent);  /* code part */

	mov	edx, DWORD PTR [ebx+8]
	imul	edx, 168				; 000000a8H
	add	edx, ebx
	push	edi
	push	edx
	call	_exprint_recur

; 448  :          strcat(pos," } "); pos += strlen(pos);

	mov	edx, DWORD PTR _pos
	add	esp, 8
	lea	edi, DWORD PTR [edx-1]
$LL1084@exprint_re:
	mov	al, BYTE PTR [edi+1]
	inc	edi
	test	al, al
	jne	SHORT $LL1084@exprint_re
	mov	eax, DWORD PTR ??_C@_03LHCEFAHM@?5?$HN?5?$AA@
	mov	DWORD PTR [edi], eax
	mov	eax, edx
	lea	esi, DWORD PTR [eax+1]
	npad	6
$LL1085@exprint_re:
	mov	cl, BYTE PTR [eax]
	inc	eax
	test	cl, cl
	jne	SHORT $LL1085@exprint_re
	sub	eax, esi
	pop	edi
	add	edx, eax
	pop	esi
	mov	DWORD PTR _pos, edx
	pop	ebx

; 3431 : 
; 3432 :          return;
; 3433 :      }
; 3434 :   return ; /* shouldn't happen */
; 3435 : } /* end exprint_recur */

	mov	ecx, DWORD PTR __$ArrayPad$[ebp]
	xor	ecx, ebp
	call	@__security_check_cookie@4
	mov	esp, ebp
	pop	ebp
	ret	0
$LN702@exprint_re:

; 449  :          return;
; 450  :      
; 451  :       case ATTR_FUNCTION_NODE:
; 452  :          exprint_recur(node+node->left,prec_parent);  /* define part */
; 453  :          return;
; 454  : 
; 455  :       case WRAP_VERTEX_NODE:
; 456  :          strcat(pos,"wrap_vertex("); pos += strlen(pos);

	lea	esi, DWORD PTR [ecx-1]
$LL1086@exprint_re:
	mov	al, BYTE PTR [esi+1]
	inc	esi
	test	al, al
	jne	SHORT $LL1086@exprint_re
	mov	eax, DWORD PTR ??_C@_0N@MHMLBPOO@wrap_vertex?$CI?$AA@
	mov	DWORD PTR [esi], eax
	mov	edx, DWORD PTR ??_C@_0N@MHMLBPOO@wrap_vertex?$CI?$AA@+4
	mov	DWORD PTR [esi+4], edx
	mov	eax, DWORD PTR ??_C@_0N@MHMLBPOO@wrap_vertex?$CI?$AA@+8
	mov	DWORD PTR [esi+8], eax
	mov	dl, BYTE PTR ??_C@_0N@MHMLBPOO@wrap_vertex?$CI?$AA@+12
	mov	BYTE PTR [esi+12], dl
	mov	esi, ecx
	lea	edx, DWORD PTR [esi+1]
$LL1087@exprint_re:
	mov	al, BYTE PTR [esi]
	inc	esi
	test	al, al
	jne	SHORT $LL1087@exprint_re
	sub	esi, edx
	add	ecx, esi
	mov	DWORD PTR _pos, ecx
$LN1667@exprint_re:

; 457  :          exprint_recur(node+node->left,prec_parent);

	mov	eax, DWORD PTR [ebx+4]
	mov	esi, DWORD PTR _prec_parent$[ebp]
	imul	eax, 168				; 000000a8H
	add	eax, ebx
	push	esi
	push	eax
	call	_exprint_recur

; 458  :          sprintf(pos,","); pos++;

	mov	ecx, DWORD PTR _pos
	push	OFFSET ??_C@_01IHBHIGKO@?0?$AA@
	push	ecx
	call	_sprintf

; 459  :          exprint_recur(node+node->right,prec_parent);

	mov	edx, DWORD PTR [ebx+8]
	imul	edx, 168				; 000000a8H
	add	edx, ebx
	push	esi
	mov	edi, 1
	add	DWORD PTR _pos, edi
	push	edx
	call	_exprint_recur

; 460  :          sprintf(pos,")"); pos++;

	mov	eax, DWORD PTR _pos
	push	OFFSET ??_C@_01PKGAHCOL@?$CJ?$AA@
	push	eax
	call	_sprintf
	add	esp, 32					; 00000020H
	add	DWORD PTR _pos, edi
	pop	edi
	pop	esi
	pop	ebx

; 3431 : 
; 3432 :          return;
; 3433 :      }
; 3434 :   return ; /* shouldn't happen */
; 3435 : } /* end exprint_recur */

	mov	ecx, DWORD PTR __$ArrayPad$[ebp]
	xor	ecx, ebp
	call	@__security_check_cookie@4
	mov	esp, ebp
	pop	ebp
	ret	0
$LN701@exprint_re:

; 461  :          return;
; 462  : 
; 463  :       case CREATE_VERTEX_NODE:
; 464  :          sprintf(pos,"new_vertex("); pos += strlen(pos);

	push	OFFSET ??_C@_0M@CPPKCNFJ@new_vertex?$CI?$AA@
	push	ecx
	call	_sprintf
	mov	eax, DWORD PTR _pos
	add	esp, 8
	lea	edx, DWORD PTR [eax+1]
$LL1088@exprint_re:
	mov	cl, BYTE PTR [eax]
	inc	eax
	test	cl, cl
	jne	SHORT $LL1088@exprint_re
$LN1668@exprint_re:

; 465  :          exprint_recur(node+node->left,prec_parent);

	mov	ecx, DWORD PTR _prec_parent$[ebp]
	sub	eax, edx
	mov	edx, DWORD PTR [ebx+4]
	add	DWORD PTR _pos, eax
	imul	edx, 168				; 000000a8H
	push	ecx
	add	edx, ebx
	push	edx
	call	_exprint_recur

; 466  :          sprintf(pos,")"); pos++;

	mov	eax, DWORD PTR _pos
	push	OFFSET ??_C@_01PKGAHCOL@?$CJ?$AA@
	push	eax
$LN1669@exprint_re:
	call	_sprintf
	add	esp, 16					; 00000010H
	inc	DWORD PTR _pos
	pop	edi
	pop	esi
	pop	ebx

; 3431 : 
; 3432 :          return;
; 3433 :      }
; 3434 :   return ; /* shouldn't happen */
; 3435 : } /* end exprint_recur */

	mov	ecx, DWORD PTR __$ArrayPad$[ebp]
	xor	ecx, ebp
	call	@__security_check_cookie@4
	mov	esp, ebp
	pop	ebp
	ret	0
$LN700@exprint_re:

; 467  :          return;
; 468  : 
; 469  :       case FACET_CROSSCUT_NODE:
; 470  :          sprintf(pos,"facet_crosscut("); pos += strlen(pos);

	push	OFFSET ??_C@_0BA@JMJFPOOP@facet_crosscut?$CI?$AA@
	push	ecx
	call	_sprintf
	mov	eax, DWORD PTR _pos
	add	esp, 8
	lea	edx, DWORD PTR [eax+1]
	npad	5
$LL1089@exprint_re:
	mov	cl, BYTE PTR [eax]
	inc	eax
	test	cl, cl
	jne	SHORT $LL1089@exprint_re

; 471  :          exprint_recur(node+node->left,prec_parent);
; 472  :          sprintf(pos,")"); pos++;
; 473  :          return;

	jmp	SHORT $LN1668@exprint_re
$LN699@exprint_re:

; 474  : 
; 475  :       case CREATE_EDGE_NODE:
; 476  :          sprintf(pos,"new_edge("); pos += strlen(pos);

	push	OFFSET ??_C@_09DHJMEBMJ@new_edge?$CI?$AA@
	push	ecx
	call	_sprintf
	mov	eax, DWORD PTR _pos
	add	esp, 8
	lea	edx, DWORD PTR [eax+1]
	npad	1
$LL1090@exprint_re:
	mov	cl, BYTE PTR [eax]
	inc	eax
	test	cl, cl
	jne	SHORT $LL1090@exprint_re
$LN1670@exprint_re:

; 477  :          exprint_recur(node+node->left,prec_parent);

	mov	ecx, DWORD PTR [ebx+4]
	mov	esi, DWORD PTR _prec_parent$[ebp]
	imul	ecx, 168				; 000000a8H
	add	ecx, ebx
	sub	eax, edx
	add	DWORD PTR _pos, eax
	push	esi
	push	ecx
	call	_exprint_recur

; 478  :          sprintf(pos,","); pos++;

	mov	edx, DWORD PTR _pos
	push	OFFSET ??_C@_01IHBHIGKO@?0?$AA@
	push	edx
	call	_sprintf

; 479  :          exprint_recur(node+node->right,prec_parent);

	mov	eax, DWORD PTR [ebx+8]
	imul	eax, 168				; 000000a8H
	add	eax, ebx
	push	esi
	mov	edi, 1
	add	DWORD PTR _pos, edi
	push	eax
	call	_exprint_recur

; 480  :          sprintf(pos,")"); pos++;

	mov	ecx, DWORD PTR _pos
	push	OFFSET ??_C@_01PKGAHCOL@?$CJ?$AA@
	push	ecx
$LN1671@exprint_re:
	call	_sprintf
	add	esp, 32					; 00000020H
	add	DWORD PTR _pos, edi
	pop	edi
	pop	esi
	pop	ebx

; 3431 : 
; 3432 :          return;
; 3433 :      }
; 3434 :   return ; /* shouldn't happen */
; 3435 : } /* end exprint_recur */

	mov	ecx, DWORD PTR __$ArrayPad$[ebp]
	xor	ecx, ebp
	call	@__security_check_cookie@4
	mov	esp, ebp
	pop	ebp
	ret	0
$LN698@exprint_re:

; 481  :          return;
; 482  : 
; 483  :       case CREATE_FACET_NODE:
; 484  :          sprintf(pos,"new_facet("); pos += strlen(pos);

	push	OFFSET ??_C@_0L@EONBLCMF@new_facet?$CI?$AA@
	push	ecx
	call	_sprintf
	mov	eax, DWORD PTR _pos
	add	esp, 8
	lea	edx, DWORD PTR [eax+1]
$LL1091@exprint_re:
	mov	cl, BYTE PTR [eax]
	inc	eax
	test	cl, cl
	jne	SHORT $LL1091@exprint_re
	sub	eax, edx
	add	DWORD PTR _pos, eax

; 485  :          exprint_recur(node+node->left,prec_parent);

	mov	eax, DWORD PTR [ebx+4]
	mov	edx, DWORD PTR _prec_parent$[ebp]
	imul	eax, 168				; 000000a8H
	push	edx
	add	eax, ebx
	push	eax
	call	_exprint_recur

; 486  :          sprintf(pos,")"); pos++;

	mov	ecx, DWORD PTR _pos
	push	OFFSET ??_C@_01PKGAHCOL@?$CJ?$AA@
	push	ecx

; 487  :          return;

	jmp	$LN1669@exprint_re
$LN697@exprint_re:

; 488  : 
; 489  :       case CREATE_BODY_NODE:
; 490  :          sprintf(pos,"new_body"); pos += strlen(pos);

	push	OFFSET ??_C@_08PANPCJAE@new_body?$AA@
	push	ecx
	call	_sprintf
	mov	eax, DWORD PTR _pos
	add	esp, 8
	lea	edx, DWORD PTR [eax+1]
	npad	2
$LL1092@exprint_re:
	mov	cl, BYTE PTR [eax]
	inc	eax
	test	cl, cl
	jne	SHORT $LL1092@exprint_re
	pop	edi
	sub	eax, edx
	add	DWORD PTR _pos, eax
	pop	esi
	pop	ebx

; 3431 : 
; 3432 :          return;
; 3433 :      }
; 3434 :   return ; /* shouldn't happen */
; 3435 : } /* end exprint_recur */

	mov	ecx, DWORD PTR __$ArrayPad$[ebp]
	xor	ecx, ebp
	call	@__security_check_cookie@4
	mov	esp, ebp
	pop	ebp
	ret	0
$LN696@exprint_re:

; 491  :          return;
; 492  : 
; 493  :       case ELINDEX_NODE:
; 494  :          exprint_recur(node+node->left,prec_parent);

	mov	edx, DWORD PTR [ebx+4]
	mov	esi, DWORD PTR _prec_parent$[ebp]
	imul	edx, 168				; 000000a8H
	add	edx, ebx
	push	esi
	push	edx
	call	_exprint_recur
	add	esp, 8

; 495  :          if ( node->right )

	cmp	DWORD PTR [ebx+8], 0
	je	$LN730@exprint_re

; 496  :          { *pos = '@'; pos++; *pos = 0;

	mov	eax, DWORD PTR _pos
	mov	BYTE PTR [eax], 64			; 00000040H
	inc	eax
	mov	DWORD PTR _pos, eax
	mov	BYTE PTR [eax], 0

; 497  :             exprint_recur(node+node->right,prec_parent);

	mov	eax, DWORD PTR [ebx+8]

; 1334 :          exprint_recur(node+node->left,PREC_ASSIGN);

	imul	eax, 168				; 000000a8H
	add	eax, ebx
	push	esi
	push	eax
	call	_exprint_recur
	add	esp, 8
	pop	edi
	pop	esi
	pop	ebx

; 3431 : 
; 3432 :          return;
; 3433 :      }
; 3434 :   return ; /* shouldn't happen */
; 3435 : } /* end exprint_recur */

	mov	ecx, DWORD PTR __$ArrayPad$[ebp]
	xor	ecx, ebp
	call	@__security_check_cookie@4
	mov	esp, ebp
	pop	ebp
	ret	0
$LN694@exprint_re:

; 498  :          }
; 499  :          return;
; 500  : 
; 501  :       case PUSH_ELEMENT_ID_NODE:
; 502  : 		  sprintf(pos,"%s%d@%d\n",(inverted(node->op1.id)?" -":""),
; 503  :              node->op1.id & OFFSETMASK, id_task(node->op1.id));

	mov	ebx, DWORD PTR [ebx+32]
	mov	eax, OFFSET ??_C@_02BINJDKOC@?5?9?$AA@
	test	ebx, 134217728				; 08000000H
	jne	SHORT $LN748@exprint_re
	mov	eax, OFFSET ??_C@_00CNPNBAHC@?$AA@
$LN748@exprint_re:
	push	0
	and	ebx, 134217727				; 07ffffffH
	push	ebx
	push	eax
	push	OFFSET ??_C@_08IHIBGNIK@?$CFs?$CFd?$EA?$CFd?6?$AA@
	push	ecx
	call	_sprintf

; 504  :          pos += strlen(pos);

	mov	eax, DWORD PTR _pos
	add	esp, 20					; 00000014H
	lea	edx, DWORD PTR [eax+1]
	npad	2
$LL1093@exprint_re:
	mov	cl, BYTE PTR [eax]
	inc	eax
	test	cl, cl
	jne	SHORT $LL1093@exprint_re
	pop	edi
	sub	eax, edx
	add	DWORD PTR _pos, eax
	pop	esi
	pop	ebx

; 3431 : 
; 3432 :          return;
; 3433 :      }
; 3434 :   return ; /* shouldn't happen */
; 3435 : } /* end exprint_recur */

	mov	ecx, DWORD PTR __$ArrayPad$[ebp]
	xor	ecx, ebp
	call	@__security_check_cookie@4
	mov	esp, ebp
	pop	ebp
	ret	0
$LN693@exprint_re:

; 505  :          return;
; 506  :          
; 507  :       case VALID_ELEMENT_NODE:
; 508  :          sprintf(pos,"valid_element(%s[",typenames[node->op1.eltype]); 

	mov	edx, DWORD PTR [ebx+32]
	mov	eax, DWORD PTR _typenames[edx*4]
	push	eax
	push	OFFSET ??_C@_0BC@HAFOGDEI@valid_element?$CI?$CFs?$FL?$AA@
	push	ecx
	call	_sprintf

; 509  :          pos += strlen(pos);

	mov	eax, DWORD PTR _pos
	add	esp, 12					; 0000000cH
	lea	edx, DWORD PTR [eax+1]
$LL1094@exprint_re:
	mov	cl, BYTE PTR [eax]
	inc	eax
	test	cl, cl
	jne	SHORT $LL1094@exprint_re

; 510  :          exprint_recur(node+node->left,prec_parent);

	mov	ecx, DWORD PTR _prec_parent$[ebp]
	sub	eax, edx
	mov	edx, DWORD PTR [ebx+4]
	add	DWORD PTR _pos, eax
	imul	edx, 168				; 000000a8H
	push	ecx
	add	edx, ebx
	push	edx
	call	_exprint_recur

; 511  :          sprintf(pos,"])"); pos+=2;

	mov	eax, DWORD PTR _pos
	push	OFFSET ??_C@_02CAJMAEOF@?$FN?$CJ?$AA@
	push	eax
	call	_sprintf
	add	esp, 16					; 00000010H
	add	DWORD PTR _pos, 2
	pop	edi
	pop	esi
	pop	ebx

; 3431 : 
; 3432 :          return;
; 3433 :      }
; 3434 :   return ; /* shouldn't happen */
; 3435 : } /* end exprint_recur */

	mov	ecx, DWORD PTR __$ArrayPad$[ebp]
	xor	ecx, ebp
	call	@__security_check_cookie@4
	mov	esp, ebp
	pop	ebp
	ret	0
$LN692@exprint_re:

; 512  :          return;
; 513  :    
; 514  :       case VALID_CONSTRAINT_NODE:
; 515  :          sprintf(pos,"valid_constraint("); 

	push	OFFSET ??_C@_0BC@PBMMAEOP@valid_constraint?$CI?$AA@
	push	ecx
	call	_sprintf

; 516  :          pos += strlen(pos);

	mov	eax, DWORD PTR _pos
	add	esp, 8
	lea	edx, DWORD PTR [eax+1]
$LL1095@exprint_re:
	mov	cl, BYTE PTR [eax]
	inc	eax
	test	cl, cl
	jne	SHORT $LL1095@exprint_re

; 517  :          exprint_recur(node+node->left,prec_parent);
; 518  :          sprintf(pos,")"); pos+=1;
; 519  :          return;

	jmp	$LN1668@exprint_re
$LN691@exprint_re:

; 520  :    
; 521  :       case VALID_BOUNDARY_NODE:
; 522  :          sprintf(pos,"valid_boundary("); 

	push	OFFSET ??_C@_0BA@BCKHPENM@valid_boundary?$CI?$AA@
	push	ecx
	call	_sprintf

; 523  :          pos += strlen(pos);

	mov	eax, DWORD PTR _pos
	add	esp, 8
	lea	edx, DWORD PTR [eax+1]
$LL1096@exprint_re:
	mov	cl, BYTE PTR [eax]
	inc	eax
	test	cl, cl
	jne	SHORT $LL1096@exprint_re

; 524  :          exprint_recur(node+node->left,prec_parent);
; 525  :          sprintf(pos,")"); pos+=1;
; 526  :          return;

	jmp	$LN1668@exprint_re
$LN690@exprint_re:

; 527  :    
; 528  :       case MATRIX_INVERSE_NODE:
; 529  :          sprintf(pos,"matrix_inverse(%s,%s)",
; 530  :             globals(node->op1.name_id)->name,globals(node->op2.name_id)->name);

	mov	eax, DWORD PTR [ebx+136]
	mov	edi, DWORD PTR _dymem
	mov	edx, eax
	and	edx, -16777216				; ff000000H
	cmp	edx, 268435456				; 10000000H
	je	SHORT $LN749@exprint_re
	cmp	edx, 805306368				; 30000000H
	jne	SHORT $LN751@exprint_re
	and	eax, 16777215				; 00ffffffH
	imul	eax, 224				; 000000e0H
	add	eax, DWORD PTR [esi]
	jmp	SHORT $LN750@exprint_re
$LN751@exprint_re:
	cmp	edx, 536870912				; 20000000H
	jne	SHORT $LN749@exprint_re
	mov	edx, DWORD PTR _web+5656
	and	eax, 16777215				; 00ffffffH
	mov	eax, DWORD PTR [edx+eax*4]
	jmp	SHORT $LN750@exprint_re
$LN749@exprint_re:
	mov	edx, DWORD PTR _web+5652
	and	eax, 16777215				; 00ffffffH
	lea	eax, DWORD PTR [edx+eax*4]
	mov	eax, DWORD PTR [eax+edi]
$LN750@exprint_re:
	mov	ebx, DWORD PTR [ebx+32]
	mov	edx, ebx
	and	edx, -16777216				; ff000000H
	cmp	edx, 268435456				; 10000000H
	je	SHORT $LN755@exprint_re
	cmp	edx, 805306368				; 30000000H
	jne	SHORT $LN757@exprint_re
	and	ebx, 16777215				; 00ffffffH
	imul	ebx, 224				; 000000e0H
	add	ebx, DWORD PTR [esi]
	jmp	SHORT $LN756@exprint_re
$LN757@exprint_re:
	cmp	edx, 536870912				; 20000000H
	jne	SHORT $LN755@exprint_re
	mov	edx, DWORD PTR _web+5656
	and	ebx, 16777215				; 00ffffffH
	mov	ebx, DWORD PTR [edx+ebx*4]
	jmp	SHORT $LN756@exprint_re
$LN755@exprint_re:
	mov	edx, DWORD PTR _web+5652
	and	ebx, 16777215				; 00ffffffH
	lea	edx, DWORD PTR [edx+ebx*4]
	mov	ebx, DWORD PTR [edx+edi]
$LN756@exprint_re:
	push	eax
	push	ebx
	push	OFFSET ??_C@_0BG@ICBGMJLO@matrix_inverse?$CI?$CFs?0?$CFs?$CJ?$AA@
	push	ecx
	call	_sprintf

; 531  :          pos += strlen(pos);

	mov	eax, DWORD PTR _pos
	add	esp, 16					; 00000010H
	lea	edx, DWORD PTR [eax+1]
	npad	2
$LL1097@exprint_re:
	mov	cl, BYTE PTR [eax]
	inc	eax
	test	cl, cl
	jne	SHORT $LL1097@exprint_re
	pop	edi
	sub	eax, edx
	add	DWORD PTR _pos, eax
	pop	esi
	pop	ebx

; 3431 : 
; 3432 :          return;
; 3433 :      }
; 3434 :   return ; /* shouldn't happen */
; 3435 : } /* end exprint_recur */

	mov	ecx, DWORD PTR __$ArrayPad$[ebp]
	xor	ecx, ebp
	call	@__security_check_cookie@4
	mov	esp, ebp
	pop	ebp
	ret	0
$LN689@exprint_re:

; 532  :          return;
; 533  : 
; 534  :       case MATRIX_MULTIPLY_NODE:
; 535  :          sprintf(pos,"matrix_multiply(%s,%s,%s)",
; 536  :             globals(node->op1.name_id)->name,globals(node->op2.name_id)->name,
; 537  :             globals(node->op3.name_id)->name);

	mov	eax, DWORD PTR [ebx+140]
	mov	edi, DWORD PTR _dymem
	mov	edx, eax
	and	edx, -16777216				; ff000000H
	cmp	edx, 268435456				; 10000000H
	je	SHORT $LN761@exprint_re
	cmp	edx, 805306368				; 30000000H
	jne	SHORT $LN763@exprint_re
	and	eax, 16777215				; 00ffffffH
	imul	eax, 224				; 000000e0H
	add	eax, DWORD PTR [esi]
	jmp	SHORT $LN762@exprint_re
$LN763@exprint_re:
	cmp	edx, 536870912				; 20000000H
	jne	SHORT $LN761@exprint_re
	mov	edx, DWORD PTR _web+5656
	and	eax, 16777215				; 00ffffffH
	mov	eax, DWORD PTR [edx+eax*4]
	jmp	SHORT $LN762@exprint_re
$LN761@exprint_re:
	mov	edx, DWORD PTR _web+5652
	and	eax, 16777215				; 00ffffffH
	lea	eax, DWORD PTR [edx+eax*4]
	mov	eax, DWORD PTR [eax+edi]
$LN762@exprint_re:
	mov	edx, DWORD PTR [ebx+136]
	mov	esi, edx
	and	esi, -16777216				; ff000000H
	cmp	esi, 268435456				; 10000000H
	je	SHORT $LN767@exprint_re
	cmp	esi, 805306368				; 30000000H
	jne	SHORT $LN769@exprint_re
	mov	esi, DWORD PTR _localbase$[ebp]
	and	edx, 16777215				; 00ffffffH
	imul	edx, 224				; 000000e0H
	add	edx, DWORD PTR [esi]
	jmp	SHORT $LN768@exprint_re
$LN769@exprint_re:
	cmp	esi, 536870912				; 20000000H
	jne	SHORT $LN767@exprint_re
	mov	esi, DWORD PTR _web+5656
	and	edx, 16777215				; 00ffffffH
	mov	edx, DWORD PTR [esi+edx*4]
	jmp	SHORT $LN768@exprint_re
$LN767@exprint_re:
	mov	esi, DWORD PTR _web+5652
	and	edx, 16777215				; 00ffffffH
	lea	edx, DWORD PTR [esi+edx*4]
	mov	edx, DWORD PTR [edx+edi]
$LN768@exprint_re:
	mov	ebx, DWORD PTR [ebx+32]
	mov	esi, ebx
	and	esi, -16777216				; ff000000H
	cmp	esi, 268435456				; 10000000H
	je	SHORT $LN773@exprint_re
	cmp	esi, 805306368				; 30000000H
	jne	SHORT $LN775@exprint_re
	mov	esi, DWORD PTR _localbase$[ebp]
	and	ebx, 16777215				; 00ffffffH
	imul	ebx, 224				; 000000e0H
	add	ebx, DWORD PTR [esi]
	jmp	SHORT $LN774@exprint_re
$LN775@exprint_re:
	cmp	esi, 536870912				; 20000000H
	jne	SHORT $LN773@exprint_re
	mov	esi, DWORD PTR _web+5656
	and	ebx, 16777215				; 00ffffffH
	mov	ebx, DWORD PTR [esi+ebx*4]
	jmp	SHORT $LN774@exprint_re
$LN773@exprint_re:
	mov	esi, DWORD PTR _web+5652
	and	ebx, 16777215				; 00ffffffH
	lea	esi, DWORD PTR [esi+ebx*4]
	mov	ebx, DWORD PTR [esi+edi]
$LN774@exprint_re:
	push	eax
	push	edx
	push	ebx
	push	OFFSET ??_C@_0BK@EMGJAFJA@matrix_multiply?$CI?$CFs?0?$CFs?0?$CFs?$CJ?$AA@
	push	ecx
	call	_sprintf

; 538  :          pos += strlen(pos);

	mov	eax, DWORD PTR _pos
	add	esp, 20					; 00000014H
	lea	edx, DWORD PTR [eax+1]
$LL1098@exprint_re:
	mov	cl, BYTE PTR [eax]
	inc	eax
	test	cl, cl
	jne	SHORT $LL1098@exprint_re
	pop	edi
	sub	eax, edx
	add	DWORD PTR _pos, eax
	pop	esi
	pop	ebx

; 3431 : 
; 3432 :          return;
; 3433 :      }
; 3434 :   return ; /* shouldn't happen */
; 3435 : } /* end exprint_recur */

	mov	ecx, DWORD PTR __$ArrayPad$[ebp]
	xor	ecx, ebp
	call	@__security_check_cookie@4
	mov	esp, ebp
	pop	ebp
	ret	0
$LN688@exprint_re:

; 539  :          return;
; 540  : 
; 541  :       case MATRIX_DETERMINANT_NODE:
; 542  :          sprintf(pos,"matrix_determinant(%s)",
; 543  :             globals(node->op1.name_id)->name);

	mov	ebx, DWORD PTR [ebx+32]
	mov	eax, ebx
	and	eax, -16777216				; ff000000H
	cmp	eax, 268435456				; 10000000H
	je	SHORT $LN779@exprint_re
	cmp	eax, 805306368				; 30000000H
	jne	SHORT $LN781@exprint_re
	and	ebx, 16777215				; 00ffffffH
	imul	ebx, 224				; 000000e0H
	add	ebx, DWORD PTR [esi]
	jmp	SHORT $LN780@exprint_re
$LN781@exprint_re:
	cmp	eax, 536870912				; 20000000H
	jne	SHORT $LN779@exprint_re
	mov	edx, DWORD PTR _web+5656
	and	ebx, 16777215				; 00ffffffH
	mov	ebx, DWORD PTR [edx+ebx*4]
	jmp	SHORT $LN780@exprint_re
$LN779@exprint_re:
	mov	eax, DWORD PTR _web+5652
	and	ebx, 16777215				; 00ffffffH
	lea	edx, DWORD PTR [eax+ebx*4]
	mov	eax, DWORD PTR _dymem
	mov	ebx, DWORD PTR [edx+eax]
$LN780@exprint_re:
	push	ebx
	push	OFFSET ??_C@_0BH@CJCHMGEH@matrix_determinant?$CI?$CFs?$CJ?$AA@
	push	ecx
	call	_sprintf

; 544  :          pos += strlen(pos);

	mov	eax, DWORD PTR _pos
	add	esp, 12					; 0000000cH
	lea	edx, DWORD PTR [eax+1]
	npad	3
$LL1099@exprint_re:
	mov	cl, BYTE PTR [eax]
	inc	eax
	test	cl, cl
	jne	SHORT $LL1099@exprint_re
	pop	edi
	sub	eax, edx
	add	DWORD PTR _pos, eax
	pop	esi
	pop	ebx

; 3431 : 
; 3432 :          return;
; 3433 :      }
; 3434 :   return ; /* shouldn't happen */
; 3435 : } /* end exprint_recur */

	mov	ecx, DWORD PTR __$ArrayPad$[ebp]
	xor	ecx, ebp
	call	@__security_check_cookie@4
	mov	esp, ebp
	pop	ebp
	ret	0
$LN687@exprint_re:

; 545  :          return;
; 546  : 
; 547  :       case MERGE_VERTEX_NODE:
; 548  :          sprintf(pos,"vertex_merge("); pos += strlen(pos);

	push	OFFSET ??_C@_0O@NNPGAOLH@vertex_merge?$CI?$AA@
	push	ecx
	call	_sprintf
	mov	eax, DWORD PTR _pos
	add	esp, 8
	lea	edx, DWORD PTR [eax+1]
$LL1100@exprint_re:
	mov	cl, BYTE PTR [eax]
	inc	eax
	test	cl, cl
	jne	SHORT $LL1100@exprint_re

; 549  :          exprint_recur(node+node->left,prec_parent);
; 550  :          sprintf(pos,","); pos++;
; 551  :          exprint_recur(node+node->right,prec_parent);
; 552  :          sprintf(pos,")"); pos++;
; 553  :          return;

	jmp	$LN1670@exprint_re
$LN686@exprint_re:

; 554  : 
; 555  :       case MERGE_EDGE_NODE:
; 556  :          sprintf(pos,"edge_merge("); pos += strlen(pos);

	push	OFFSET ??_C@_0M@PJOFJFAC@edge_merge?$CI?$AA@
	push	ecx
	call	_sprintf
	mov	eax, DWORD PTR _pos
	add	esp, 8
	lea	edx, DWORD PTR [eax+1]
$LL1101@exprint_re:
	mov	cl, BYTE PTR [eax]
	inc	eax
	test	cl, cl
	jne	SHORT $LL1101@exprint_re

; 557  :          exprint_recur(node+node->left,prec_parent);

	mov	esi, DWORD PTR _prec_parent$[ebp]
	sub	eax, edx
	mov	edx, DWORD PTR [ebx+4]
	add	DWORD PTR _pos, eax
	imul	edx, 168				; 000000a8H
	add	edx, ebx
	push	esi
	push	edx
	call	_exprint_recur

; 558  :          sprintf(pos,","); pos++;

	mov	eax, DWORD PTR _pos
	push	OFFSET ??_C@_01IHBHIGKO@?0?$AA@
	push	eax
	call	_sprintf

; 559  :          exprint_recur(node+node->right,prec_parent);

	mov	ecx, DWORD PTR [ebx+8]
	imul	ecx, 168				; 000000a8H
	add	ecx, ebx
	push	esi
	mov	edi, 1
	add	DWORD PTR _pos, edi
	push	ecx
	call	_exprint_recur

; 560  :          sprintf(pos,")"); pos++;

	mov	edx, DWORD PTR _pos
	push	OFFSET ??_C@_01PKGAHCOL@?$CJ?$AA@
	push	edx

; 561  :          return;

	jmp	$LN1671@exprint_re
$LN685@exprint_re:

; 562  : 
; 563  :       case MERGE_FACET_NODE:
; 564  :          sprintf(pos,"facet_merge("); pos += strlen(pos);

	push	OFFSET ??_C@_0N@LGCBLIJP@facet_merge?$CI?$AA@
	push	ecx
	call	_sprintf
	mov	eax, DWORD PTR _pos
	add	esp, 8
	lea	edx, DWORD PTR [eax+1]
$LL1102@exprint_re:
	mov	cl, BYTE PTR [eax]
	inc	eax
	test	cl, cl
	jne	SHORT $LL1102@exprint_re
	sub	eax, edx
	add	DWORD PTR _pos, eax

; 565  :          exprint_recur(node+node->left,prec_parent);
; 566  :          sprintf(pos,","); pos++;
; 567  :          exprint_recur(node+node->right,prec_parent);
; 568  :          sprintf(pos,")"); pos++;
; 569  :          return;

	jmp	$LN1667@exprint_re
$LN684@exprint_re:

; 570  : 
; 571  :       case COMMAND_BLOCK_NODE:
; 572  :          sprintf(pos,"{ "); pos+=2; bracket_depth++;

	push	OFFSET ??_C@_02MNJOIFPO@?$HL?5?$AA@
	push	ecx
	call	_sprintf

; 573  :          exprint_recur(node+node->left,prec_parent);

	mov	edx, DWORD PTR [ebx+4]
	mov	ecx, DWORD PTR _prec_parent$[ebp]
	imul	edx, 168				; 000000a8H
	add	DWORD PTR _pos, 2
	push	ecx
	add	edx, ebx
	mov	esi, 1
	add	DWORD PTR _bracket_depth, esi
	push	edx
	call	_exprint_recur

; 574  :          bracket_depth--;

	sub	DWORD PTR _bracket_depth, esi

; 575  :          newline();

	call	_newline

; 576  :          sprintf(pos,"}"); pos++;

	mov	eax, DWORD PTR _pos
	push	OFFSET ??_C@_01CELHOKLL@?$HN?$AA@
	push	eax
	call	_sprintf
	add	esp, 24					; 00000018H
	add	DWORD PTR _pos, esi
	pop	edi
	pop	esi
	pop	ebx

; 3431 : 
; 3432 :          return;
; 3433 :      }
; 3434 :   return ; /* shouldn't happen */
; 3435 : } /* end exprint_recur */

	mov	ecx, DWORD PTR __$ArrayPad$[ebp]
	xor	ecx, ebp
	call	@__security_check_cookie@4
	mov	esp, ebp
	pop	ebp
	ret	0
$LN683@exprint_re:

; 577  :          return;
; 578  : 
; 579  :       case LOCAL_LIST_START_NODE:
; 580  :          sprintf (pos,"local ");

	push	OFFSET ??_C@_06FOGGDAIC@local?5?$AA@
	push	ecx
	call	_sprintf

; 581  :          pos += strlen(pos);

	mov	eax, DWORD PTR _pos
	add	esp, 8
	lea	edx, DWORD PTR [eax+1]
$LL1103@exprint_re:
	mov	cl, BYTE PTR [eax]
	inc	eax
	test	cl, cl
	jne	SHORT $LL1103@exprint_re
$LN1651@exprint_re:
	sub	eax, edx
	add	DWORD PTR _pos, eax
$LN417@exprint_re:

; 582  :          exprint_recur(node+node->left,prec_parent);

	mov	ecx, DWORD PTR _prec_parent$[ebp]
	push	ecx
$LN1653@exprint_re:
	mov	edx, DWORD PTR [ebx+4]
$LN1654@exprint_re:
	imul	edx, 168				; 000000a8H
	add	edx, ebx
$LN1655@exprint_re:
	push	edx
$LN1652@exprint_re:
	call	_exprint_recur
	add	esp, 8
	pop	edi
	pop	esi
	pop	ebx

; 3431 : 
; 3432 :          return;
; 3433 :      }
; 3434 :   return ; /* shouldn't happen */
; 3435 : } /* end exprint_recur */

	mov	ecx, DWORD PTR __$ArrayPad$[ebp]
	xor	ecx, ebp
	call	@__security_check_cookie@4
	mov	esp, ebp
	pop	ebp
	ret	0
$LN682@exprint_re:

; 583  :          break;
; 584  : 
; 585  :       case DECLARE_LOCAL_NODE:
; 586  :        { 
; 587  :          if ( node->left )

	mov	eax, DWORD PTR [ebx+4]
	test	eax, eax
	je	SHORT $LN681@exprint_re

; 588  :          { 
; 589  :            exprint_recur(node+node->left,0);

	imul	eax, 168				; 000000a8H
	add	eax, ebx
	push	0
	push	eax
	call	_exprint_recur

; 590  :            *pos = ','; pos++; *pos = 0;

	mov	ecx, DWORD PTR _pos
	mov	BYTE PTR [ecx], 44			; 0000002cH
	add	esp, 8
	inc	ecx
	mov	DWORD PTR _pos, ecx
	mov	BYTE PTR [ecx], 0
$LN681@exprint_re:

; 591  :          }
; 592  :          sprintf (pos,"%s",globals(node->op1.name_id)->name);

	mov	ebx, DWORD PTR [ebx+32]
	mov	eax, ebx
	and	eax, -16777216				; ff000000H
	cmp	eax, 268435456				; 10000000H
	je	SHORT $LN785@exprint_re
	cmp	eax, 805306368				; 30000000H
	jne	SHORT $LN787@exprint_re
	and	ebx, 16777215				; 00ffffffH
	imul	ebx, 224				; 000000e0H
	add	ebx, DWORD PTR [esi]
	jmp	SHORT $LN786@exprint_re
$LN787@exprint_re:
	cmp	eax, 536870912				; 20000000H
	jne	SHORT $LN785@exprint_re
	mov	edx, DWORD PTR _web+5656
	and	ebx, 16777215				; 00ffffffH
	mov	ebx, DWORD PTR [edx+ebx*4]
	jmp	SHORT $LN786@exprint_re
$LN785@exprint_re:
	mov	eax, DWORD PTR _web+5652
	and	ebx, 16777215				; 00ffffffH
	lea	edx, DWORD PTR [eax+ebx*4]
	mov	eax, DWORD PTR _dymem
	mov	ebx, DWORD PTR [edx+eax]
$LN786@exprint_re:
	push	ebx
	push	OFFSET ??_C@_02DKCKIIND@?$CFs?$AA@
	push	ecx
	call	_sprintf

; 593  :          pos += strlen(pos);

	mov	eax, DWORD PTR _pos
	add	esp, 12					; 0000000cH
	lea	edx, DWORD PTR [eax+1]
$LL1104@exprint_re:
	mov	cl, BYTE PTR [eax]
	inc	eax
	test	cl, cl
	jne	SHORT $LL1104@exprint_re
	pop	edi
	sub	eax, edx
	add	DWORD PTR _pos, eax
	pop	esi
	pop	ebx

; 3431 : 
; 3432 :          return;
; 3433 :      }
; 3434 :   return ; /* shouldn't happen */
; 3435 : } /* end exprint_recur */

	mov	ecx, DWORD PTR __$ArrayPad$[ebp]
	xor	ecx, ebp
	call	@__security_check_cookie@4
	mov	esp, ebp
	pop	ebp
	ret	0
$LN680@exprint_re:

; 594  :          return;
; 595  :        }
; 596  :       
; 597  :       case DEFINE_QUANTITY_NODE:
; 598  :        { struct gen_quant *g = GEN_QUANT(node->op1.quant_id);

	mov	edx, DWORD PTR [ebx+32]
	imul	edx, 368				; 00000170H
	add	edx, DWORD PTR _gen_quant_list

; 599  :          sprintf(pos,"/* Definition of quantity %s was originally here.*/",
; 600  :             g->name);

	push	edx
	push	OFFSET ??_C@_0DE@JKPGKFB@?1?$CK?5Definition?5of?5quantity?5?$CFs?5was@
	push	ecx
	call	_sprintf

; 601  :          pos += strlen(pos);

	mov	eax, DWORD PTR _pos
	add	esp, 12					; 0000000cH
	lea	edx, DWORD PTR [eax+1]
	npad	7
$LL1105@exprint_re:
	mov	cl, BYTE PTR [eax]
	inc	eax
	test	cl, cl
	jne	SHORT $LL1105@exprint_re
	pop	edi
	sub	eax, edx
	add	DWORD PTR _pos, eax
	pop	esi
	pop	ebx

; 3431 : 
; 3432 :          return;
; 3433 :      }
; 3434 :   return ; /* shouldn't happen */
; 3435 : } /* end exprint_recur */

	mov	ecx, DWORD PTR __$ArrayPad$[ebp]
	xor	ecx, ebp
	call	@__security_check_cookie@4
	mov	esp, ebp
	pop	ebp
	ret	0
$LN679@exprint_re:

; 602  :          return;
; 603  :        }
; 604  : 
; 605  :       case DEFINE_METHOD_INSTANCE_NODE:
; 606  :        { struct method_instance *mi = METH_INSTANCE(node->op1.meth_id);

	mov	eax, DWORD PTR [ebx+32]
	cdq
	xor	eax, edx
	sub	eax, edx
	imul	eax, 2928				; 00000b70H
	add	eax, DWORD PTR _meth_inst_list

; 607  :          sprintf(pos,
; 608  :            "/* Definition of method instance %s was originally here.*/",
; 609  :             mi->name);

	push	eax
	push	OFFSET ??_C@_0DL@PIPFCDIL@?1?$CK?5Definition?5of?5method?5instance@
	push	ecx
	call	_sprintf

; 610  :          pos += strlen(pos);

	mov	eax, DWORD PTR _pos
	add	esp, 12					; 0000000cH
	lea	edx, DWORD PTR [eax+1]
	npad	5
$LL1106@exprint_re:
	mov	cl, BYTE PTR [eax]
	inc	eax
	test	cl, cl
	jne	SHORT $LL1106@exprint_re
	pop	edi
	sub	eax, edx
	add	DWORD PTR _pos, eax
	pop	esi
	pop	ebx

; 3431 : 
; 3432 :          return;
; 3433 :      }
; 3434 :   return ; /* shouldn't happen */
; 3435 : } /* end exprint_recur */

	mov	ecx, DWORD PTR __$ArrayPad$[ebp]
	xor	ecx, ebp
	call	@__security_check_cookie@4
	mov	esp, ebp
	pop	ebp
	ret	0
$LN678@exprint_re:

; 611  :          return;
; 612  :        }
; 613  : 
; 614  :       case DEFINE_CONSTRAINT_NODE:
; 615  :        { struct constraint *con = get_constraint(node->op1.con_id);

	mov	ebx, DWORD PTR [ebx+32]
	mov	eax, ebx
	and	eax, 1073741823				; 3fffffffH
	imul	eax, 176				; 000000b0H
	add	eax, DWORD PTR _web+652

; 616  :          if ( con->attr & NAMED_THING )

	xor	esi, esi
	mov	edx, DWORD PTR [eax+32]
	and	edx, 512				; 00000200H
	or	edx, esi
	je	SHORT $LN677@exprint_re

; 617  :            sprintf(pos,
; 618  :              "/* Definition of constraint %s was originally here.*/",
; 619  :               con->name);

	push	eax
	push	OFFSET ??_C@_0DG@JFJIFFJN@?1?$CK?5Definition?5of?5constraint?5?$CFs?5w@

; 620  :          else

	jmp	SHORT $LN1633@exprint_re
$LN677@exprint_re:

; 621  :            sprintf(pos,
; 622  :              "/* Definition of constraint %d was originally here.*/",
; 623  :               node->op1.con_id);

	push	ebx
	push	OFFSET ??_C@_0DG@DNPIOFL@?1?$CK?5Definition?5of?5constraint?5?$CFd?5w@
$LN1633@exprint_re:
	push	ecx
	call	_sprintf

; 624  :          pos += strlen(pos);

	mov	eax, DWORD PTR _pos
	add	esp, 12					; 0000000cH
	lea	edx, DWORD PTR [eax+1]
$LL1107@exprint_re:
	mov	cl, BYTE PTR [eax]
	inc	eax
	test	cl, cl
	jne	SHORT $LL1107@exprint_re
	pop	edi
	sub	eax, edx
	add	DWORD PTR _pos, eax
	pop	esi
	pop	ebx

; 3431 : 
; 3432 :          return;
; 3433 :      }
; 3434 :   return ; /* shouldn't happen */
; 3435 : } /* end exprint_recur */

	mov	ecx, DWORD PTR __$ArrayPad$[ebp]
	xor	ecx, ebp
	call	@__security_check_cookie@4
	mov	esp, ebp
	pop	ebp
	ret	0
$LN675@exprint_re:

; 625  :          return;
; 626  :        }
; 627  : 
; 628  :       case DEFINE_BOUNDARY_NODE:
; 629  :        { struct boundary *bdry = web.boundaries+node->op1.bdry_id;

	mov	ebx, DWORD PTR [ebx+32]
	mov	eax, ebx
	imul	eax, 136				; 00000088H
	add	eax, DWORD PTR _web+776

; 630  :          if ( bdry->attr & NAMED_THING )

	xor	esi, esi
	mov	edx, DWORD PTR [eax+32]
	and	edx, 512				; 00000200H
	or	edx, esi
	je	SHORT $LN674@exprint_re

; 631  :            sprintf(pos,
; 632  :              "/* Definition of boundary %s was originally here.*/",
; 633  :               bdry->name);

	push	eax
	push	OFFSET ??_C@_0DE@BLDPCHML@?1?$CK?5Definition?5of?5boundary?5?$CFs?5was@

; 634  :          else

	jmp	SHORT $LN1634@exprint_re
$LN674@exprint_re:

; 635  :            sprintf(pos,
; 636  :              "/* Definition of boundary %d was originally here.*/",
; 637  :               node->op1.con_id);

	push	ebx
	push	OFFSET ??_C@_0DE@INHIPMAN@?1?$CK?5Definition?5of?5boundary?5?$CFd?5was@
$LN1634@exprint_re:
	push	ecx
	call	_sprintf

; 638  :          pos += strlen(pos);

	mov	eax, DWORD PTR _pos
	add	esp, 12					; 0000000cH
	lea	edx, DWORD PTR [eax+1]
$LL1108@exprint_re:
	mov	cl, BYTE PTR [eax]
	inc	eax
	test	cl, cl
	jne	SHORT $LL1108@exprint_re
	pop	edi
	sub	eax, edx
	add	DWORD PTR _pos, eax
	pop	esi
	pop	ebx

; 3431 : 
; 3432 :          return;
; 3433 :      }
; 3434 :   return ; /* shouldn't happen */
; 3435 : } /* end exprint_recur */

	mov	ecx, DWORD PTR __$ArrayPad$[ebp]
	xor	ecx, ebp
	call	@__security_check_cookie@4
	mov	esp, ebp
	pop	ebp
	ret	0
$LN672@exprint_re:

; 639  :          return;
; 640  :        }
; 641  : 
; 642  :       case DEFINE_EXTRA_NODE:
; 643  :          ex = EXTRAS(node->op2.eltype)+node->op1.extranum;

	mov	eax, DWORD PTR [ebx+136]
	mov	edi, DWORD PTR [ebx+32]
	mov	edx, eax
	imul	edi, 240				; 000000f0H

; 644  :          sprintf(pos,"define %s attribute %s %s",
; 645  :            typenames[node->op2.eltype],ex->name, datatype_name[ex->type]);

	mov	eax, DWORD PTR _typenames[eax*4]
	imul	edx, 112				; 00000070H
	mov	esi, DWORD PTR _web[edx+104]
	add	esi, edi
	add	esi, DWORD PTR _dymem
	mov	edx, DWORD PTR [esi+68]
	mov	edx, DWORD PTR _datatype_name[edx*4]
	push	edx
	push	esi
	push	eax
	push	OFFSET ??_C@_0BK@OOLEHMJN@define?5?$CFs?5attribute?5?$CFs?5?$CFs?$AA@
	push	ecx
	call	_sprintf

; 646  :          pos += strlen(pos);

	mov	ecx, DWORD PTR _pos
	mov	eax, ecx
	add	esp, 20					; 00000014H
	lea	edi, DWORD PTR [eax+1]
$LL1109@exprint_re:
	mov	dl, BYTE PTR [eax]
	inc	eax
	test	dl, dl
	jne	SHORT $LL1109@exprint_re
	sub	eax, edi
	add	ecx, eax

; 647  :          if ( ex->code.start )

	cmp	DWORD PTR [esi+128], 0
	mov	DWORD PTR _pos, ecx
	je	$LN730@exprint_re

; 648  :          { strcat(pos," function "); pos += strlen(pos);

	lea	eax, DWORD PTR [ecx-1]
$LL1110@exprint_re:
	mov	dl, BYTE PTR [eax+1]
	inc	eax
	test	dl, dl
	jne	SHORT $LL1110@exprint_re
	mov	edx, DWORD PTR ??_C@_0L@LLAPKIKO@?5function?5?$AA@
	mov	DWORD PTR [eax], edx
	mov	edx, DWORD PTR ??_C@_0L@LLAPKIKO@?5function?5?$AA@+4
	mov	DWORD PTR [eax+4], edx
	mov	dx, WORD PTR ??_C@_0L@LLAPKIKO@?5function?5?$AA@+8
	mov	WORD PTR [eax+8], dx
	mov	dl, BYTE PTR ??_C@_0L@LLAPKIKO@?5function?5?$AA@+10
	mov	BYTE PTR [eax+10], dl
	mov	eax, ecx
	lea	edi, DWORD PTR [eax+1]
$LL1111@exprint_re:
	mov	dl, BYTE PTR [eax]
	inc	eax
	test	dl, dl
	jne	SHORT $LL1111@exprint_re
	sub	eax, edi
	add	ecx, eax

; 649  :            /*current_proc_locals[++current_proc_depth] = ex->locals;*/
; 650  :            exprint_recur(ex->code.root,prec_parent);

	mov	eax, DWORD PTR _prec_parent$[ebp]
	mov	DWORD PTR _pos, ecx
	mov	ecx, DWORD PTR [esi+132]
	push	eax
	push	ecx
	call	_exprint_recur
	add	esp, 8
	pop	edi
	pop	esi
	pop	ebx

; 3431 : 
; 3432 :          return;
; 3433 :      }
; 3434 :   return ; /* shouldn't happen */
; 3435 : } /* end exprint_recur */

	mov	ecx, DWORD PTR __$ArrayPad$[ebp]
	xor	ecx, ebp
	call	@__security_check_cookie@4
	mov	esp, ebp
	pop	ebp
	ret	0
$LN670@exprint_re:

; 651  :            /*current_proc_depth--;*/
; 652  :          }
; 653  :          break;
; 654  : 
; 655  :       case DEFINE_EXTRA_INDEX_NODE:
; 656  :          exprint_recur(node+node->left,prec_parent);

	mov	edx, DWORD PTR [ebx+4]
	mov	esi, DWORD PTR _prec_parent$[ebp]
	imul	edx, 168				; 000000a8H
	add	edx, ebx
	push	esi
	push	edx
	call	_exprint_recur
$LN1657@exprint_re:

; 657  :          exprint_recur(node+node->right,prec_parent);

	mov	eax, DWORD PTR [ebx+8]
	push	esi
$LN1660@exprint_re:
	imul	eax, 168				; 000000a8H
	add	eax, ebx
	push	eax
$LN1658@exprint_re:
	call	_exprint_recur
	add	esp, 16					; 00000010H
	pop	edi
	pop	esi
	pop	ebx

; 3431 : 
; 3432 :          return;
; 3433 :      }
; 3434 :   return ; /* shouldn't happen */
; 3435 : } /* end exprint_recur */

	mov	ecx, DWORD PTR __$ArrayPad$[ebp]
	xor	ecx, ebp
	call	@__security_check_cookie@4
	mov	esp, ebp
	pop	ebp
	ret	0
$LN669@exprint_re:

; 658  :          break; 
; 659  : 
; 660  :       case DEFINE_ARRAY_NODE: 
; 661  :          sprintf(pos,"define %s %s",globals(node->op1.name_id)->name,
; 662  :             datatype_name[node->op2.valtype]);

	mov	eax, DWORD PTR [ebx+32]
	mov	edx, eax
	and	edx, -16777216				; ff000000H
	cmp	edx, 268435456				; 10000000H
	je	SHORT $LN791@exprint_re
	cmp	edx, 805306368				; 30000000H
	jne	SHORT $LN793@exprint_re
	and	eax, 16777215				; 00ffffffH
	imul	eax, 224				; 000000e0H
	add	eax, DWORD PTR [esi]
	jmp	SHORT $LN792@exprint_re
$LN793@exprint_re:
	cmp	edx, 536870912				; 20000000H
	jne	SHORT $LN791@exprint_re
	mov	edx, DWORD PTR _web+5656
	and	eax, 16777215				; 00ffffffH
	mov	eax, DWORD PTR [edx+eax*4]
	jmp	SHORT $LN792@exprint_re
$LN791@exprint_re:
	mov	edx, DWORD PTR _web+5652
	and	eax, 16777215				; 00ffffffH
	lea	eax, DWORD PTR [edx+eax*4]
	mov	edx, DWORD PTR _dymem
	mov	eax, DWORD PTR [eax+edx]
$LN792@exprint_re:
	mov	edx, DWORD PTR [ebx+136]
	mov	edx, DWORD PTR _datatype_name[edx*4]
	push	edx
	push	eax
	push	OFFSET ??_C@_0N@KLABKDID@define?5?$CFs?5?$CFs?$AA@
	push	ecx
	call	_sprintf

; 663  :          pos += strlen(pos);

	mov	eax, DWORD PTR _pos
	add	esp, 16					; 00000010H
	lea	edx, DWORD PTR [eax+1]
$LL1112@exprint_re:
	mov	cl, BYTE PTR [eax]
	inc	eax
	test	cl, cl
	jne	SHORT $LL1112@exprint_re
$LN1661@exprint_re:
	sub	eax, edx
	add	DWORD PTR _pos, eax
$LN664@exprint_re:

; 664  :          exprint_recur(node+node->left,prec_parent);

	mov	eax, DWORD PTR _prec_parent$[ebp]
	mov	ecx, DWORD PTR [ebx+4]
$LN1688@exprint_re:
	imul	ecx, 168				; 000000a8H
	push	eax
	add	ecx, ebx
	push	ecx
$LN1662@exprint_re:
	call	_exprint_recur
	add	esp, 8
	pop	edi
	pop	esi
	pop	ebx

; 3431 : 
; 3432 :          return;
; 3433 :      }
; 3434 :   return ; /* shouldn't happen */
; 3435 : } /* end exprint_recur */

	mov	ecx, DWORD PTR __$ArrayPad$[ebp]
	xor	ecx, ebp
	call	@__security_check_cookie@4
	mov	esp, ebp
	pop	ebp
	ret	0
$LN668@exprint_re:

; 665  :          break;
; 666  : 
; 667  :       case DEFINE_FIXED_LOCAL_ARRAY_NODE: 
; 668  :         { struct global *g = globals(node->op1.name_id);

	mov	eax, DWORD PTR [ebx+32]
	mov	edx, eax
	and	edx, -16777216				; ff000000H
	cmp	edx, 268435456				; 10000000H
	je	SHORT $LN797@exprint_re
	cmp	edx, 805306368				; 30000000H
	jne	SHORT $LN799@exprint_re
	and	eax, 16777215				; 00ffffffH
	imul	eax, 224				; 000000e0H
	add	eax, DWORD PTR [esi]
	jmp	SHORT $LN798@exprint_re
$LN799@exprint_re:
	cmp	edx, 536870912				; 20000000H
	jne	SHORT $LN797@exprint_re
	mov	edx, DWORD PTR _web+5656
	and	eax, 16777215				; 00ffffffH
	mov	eax, DWORD PTR [edx+eax*4]
	jmp	SHORT $LN798@exprint_re
$LN797@exprint_re:
	mov	edx, DWORD PTR _web+5652
	and	eax, 16777215				; 00ffffffH
	lea	eax, DWORD PTR [edx+eax*4]
	mov	edx, DWORD PTR _dymem
	mov	eax, DWORD PTR [eax+edx]
$LN798@exprint_re:

; 670  :           int i;
; 671  : 
; 672  :           sprintf(pos,"define %s %s",g->name,
; 673  :             datatype_name[node->op2.valtype]);

	mov	edx, DWORD PTR [ebx+136]
	mov	edx, DWORD PTR _datatype_name[edx*4]
	mov	edi, DWORD PTR [eax+168]
	push	edx
	push	eax
	push	OFFSET ??_C@_0N@KLABKDID@define?5?$CFs?5?$CFs?$AA@
	push	ecx
	mov	DWORD PTR _a$89727[ebp], edi
	call	_sprintf

; 674  :           pos += strlen(pos);

	mov	ecx, DWORD PTR _pos
	mov	eax, ecx
	add	esp, 16					; 00000010H
	lea	esi, DWORD PTR [eax+1]
$LL1113@exprint_re:
	mov	dl, BYTE PTR [eax]
	inc	eax
	test	dl, dl
	jne	SHORT $LL1113@exprint_re
	sub	eax, esi
	add	ecx, eax

; 675  :           for ( i = 0 ; i < a->dim ; i++ )

	xor	esi, esi
	mov	DWORD PTR _pos, ecx
	cmp	DWORD PTR [edi+4], esi
	jle	$LN730@exprint_re

; 669  :           struct array *a = g->attr.arrayptr;

	lea	ebx, DWORD PTR [edi+24]
$LL667@exprint_re:

; 676  :           { sprintf(pos,"[%d]",a->sizes[i]);

	mov	eax, DWORD PTR [ebx]
	push	eax
	push	OFFSET ??_C@_04KBDJOJNB@?$FL?$CFd?$FN?$AA@
	push	ecx
	call	_sprintf

; 677  :             pos += strlen(pos);

	mov	ecx, DWORD PTR _pos
	mov	eax, ecx
	add	esp, 12					; 0000000cH
	lea	edi, DWORD PTR [eax+1]
$LL1114@exprint_re:
	mov	dl, BYTE PTR [eax]
	inc	eax
	test	dl, dl
	jne	SHORT $LL1114@exprint_re
	mov	edx, DWORD PTR _a$89727[ebp]
	sub	eax, edi
	add	ecx, eax
	inc	esi
	add	ebx, 4
	mov	DWORD PTR _pos, ecx
	cmp	esi, DWORD PTR [edx+4]
	jl	SHORT $LL667@exprint_re
	pop	edi
	pop	esi
	pop	ebx

; 3431 : 
; 3432 :          return;
; 3433 :      }
; 3434 :   return ; /* shouldn't happen */
; 3435 : } /* end exprint_recur */

	mov	ecx, DWORD PTR __$ArrayPad$[ebp]
	xor	ecx, ebp
	call	@__security_check_cookie@4
	mov	esp, ebp
	pop	ebp
	ret	0
$LN663@exprint_re:

; 678  :           }
; 679  :         }
; 680  :          break;
; 681  : 
; 682  :       case ARRAY_EVAL_NODE:
; 683  :          exprint_recur(node+node->left,prec_parent);
; 684  :          break;
; 685  : 
; 686  :       case ARRAY_HEAD_NODE:
; 687  :          exprint_recur(node+node->left,prec_parent);

	mov	edx, DWORD PTR _prec_parent$[ebp]
	mov	eax, DWORD PTR [ebx+4]
	push	edx
$LN1664@exprint_re:
	imul	eax, 168				; 000000a8H
	add	eax, ebx
	push	eax
	call	_exprint_recur
	add	esp, 8
	pop	edi
	pop	esi
	pop	ebx

; 3431 : 
; 3432 :          return;
; 3433 :      }
; 3434 :   return ; /* shouldn't happen */
; 3435 : } /* end exprint_recur */

	mov	ecx, DWORD PTR __$ArrayPad$[ebp]
	xor	ecx, ebp
	call	@__security_check_cookie@4
	mov	esp, ebp
	pop	ebp
	ret	0
$LN662@exprint_re:

; 688  :          break;
; 689  : 
; 690  :       case ARRAYASSIGN_NODE:
; 691  :          sprintf(pos,"%s",globals(node->op2.name_id)->name);

	mov	eax, DWORD PTR [ebx+136]
	mov	edx, eax
	and	edx, -16777216				; ff000000H
	cmp	edx, 268435456				; 10000000H
	je	SHORT $LN803@exprint_re
	cmp	edx, 805306368				; 30000000H
	jne	SHORT $LN805@exprint_re
	and	eax, 16777215				; 00ffffffH
	imul	eax, 224				; 000000e0H
	add	eax, DWORD PTR [esi]
	jmp	SHORT $LN804@exprint_re
$LN805@exprint_re:
	cmp	edx, 536870912				; 20000000H
	jne	SHORT $LN803@exprint_re
	mov	edx, DWORD PTR _web+5656
	and	eax, 16777215				; 00ffffffH
	mov	eax, DWORD PTR [edx+eax*4]
	jmp	SHORT $LN804@exprint_re
$LN803@exprint_re:
	mov	edx, DWORD PTR _web+5652
	and	eax, 16777215				; 00ffffffH
	lea	eax, DWORD PTR [edx+eax*4]
	mov	edx, DWORD PTR _dymem
	mov	eax, DWORD PTR [eax+edx]
$LN804@exprint_re:
	push	eax
	push	OFFSET ??_C@_02DKCKIIND@?$CFs?$AA@
	push	ecx
	call	_sprintf

; 692  :          pos += strlen(pos);

	mov	eax, DWORD PTR _pos
	add	esp, 12					; 0000000cH
	lea	edx, DWORD PTR [eax+1]
$LL1115@exprint_re:
	mov	cl, BYTE PTR [eax]
	inc	eax
	test	cl, cl
	jne	SHORT $LL1115@exprint_re
	sub	eax, edx
	add	DWORD PTR _pos, eax

; 693  :          exprint_recur(node+node->left,PREC_ASSIGN);

	mov	eax, DWORD PTR [ebx+4]
	imul	eax, 168				; 000000a8H
	add	eax, ebx
	push	10					; 0000000aH
	push	eax
	call	_exprint_recur

; 694  :          switch ( node->op1.assigntype )

	mov	eax, DWORD PTR [ebx+32]
	add	eax, -30001				; ffff8acfH
	add	esp, 8
	cmp	eax, 4
	ja	SHORT $LN660@exprint_re
	jmp	DWORD PTR $LN1692@exprint_re[eax*4]
$LN659@exprint_re:

; 695  :          { case ASSIGN_OP: sprintf(pos," := "); break;

	mov	ecx, DWORD PTR _pos
	push	OFFSET ??_C@_04NOLNGNEC@?5?3?$DN?5?$AA@
	push	ecx
	jmp	SHORT $LN1635@exprint_re
$LN658@exprint_re:

; 696  :            case PLUSASSIGN_OP: sprintf(pos," += "); break;

	push	OFFSET ??_C@_04DGBIFNLI@?5?$CL?$DN?5?$AA@
	jmp	SHORT $LN1636@exprint_re
$LN657@exprint_re:

; 697  :            case SUBASSIGN_OP: sprintf(pos," -= "); break;

	mov	eax, DWORD PTR _pos
	push	OFFSET ??_C@_04BDHDACGE@?5?9?$DN?5?$AA@
	push	eax
	jmp	SHORT $LN1635@exprint_re
$LN656@exprint_re:

; 698  :            case MULTASSIGN_OP: sprintf(pos," *= "); break;

	mov	ecx, DWORD PTR _pos
	push	OFFSET ??_C@_04IOKEDKNN@?5?$CK?$DN?5?$AA@
	push	ecx
	jmp	SHORT $LN1635@exprint_re
$LN655@exprint_re:

; 699  :            case DIVASSIGN_OP: sprintf(pos," /= "); break;

	push	OFFSET ??_C@_04LJHKMKOP@?5?1?$DN?5?$AA@
$LN1636@exprint_re:
	mov	edx, DWORD PTR _pos
	push	edx
$LN1635@exprint_re:
	call	_sprintf
	add	esp, 8
$LN660@exprint_re:

; 700  :          } 
; 701  :          pos += strlen(pos);

	mov	eax, DWORD PTR _pos
	lea	edx, DWORD PTR [eax+1]
$LL1116@exprint_re:
	mov	cl, BYTE PTR [eax]
	inc	eax
	test	cl, cl
	jne	SHORT $LL1116@exprint_re
	sub	eax, edx
	add	DWORD PTR _pos, eax

; 702  :          exprint_recur(node+node->right,PREC_ASSIGN);

	mov	eax, DWORD PTR [ebx+8]
	push	10					; 0000000aH

; 703  :          break;

	jmp	$LN1664@exprint_re
$LN654@exprint_re:

; 704  : 
; 705  :       case ARRAYEVAL_NODE:
; 706  :          sprintf(pos,"%s",globals(node->op2.name_id)->name);

	mov	eax, DWORD PTR [ebx+136]
	mov	edx, eax
	and	edx, -16777216				; ff000000H
	cmp	edx, 268435456				; 10000000H
	je	SHORT $LN809@exprint_re
	cmp	edx, 805306368				; 30000000H
	jne	SHORT $LN811@exprint_re
	and	eax, 16777215				; 00ffffffH
	imul	eax, 224				; 000000e0H
	add	eax, DWORD PTR [esi]
	jmp	SHORT $LN810@exprint_re
$LN811@exprint_re:
	cmp	edx, 536870912				; 20000000H
	jne	SHORT $LN809@exprint_re
	mov	edx, DWORD PTR _web+5656
	and	eax, 16777215				; 00ffffffH
	mov	eax, DWORD PTR [edx+eax*4]
	jmp	SHORT $LN810@exprint_re
$LN809@exprint_re:
	mov	edx, DWORD PTR _web+5652
	and	eax, 16777215				; 00ffffffH
	lea	eax, DWORD PTR [edx+eax*4]
	mov	edx, DWORD PTR _dymem
	mov	eax, DWORD PTR [eax+edx]
$LN810@exprint_re:
	push	eax
	push	OFFSET ??_C@_02DKCKIIND@?$CFs?$AA@
	push	ecx
	call	_sprintf

; 707  :          pos += strlen(pos);

	mov	eax, DWORD PTR _pos
	add	esp, 12					; 0000000cH
	lea	edx, DWORD PTR [eax+1]
$LL1117@exprint_re:
	mov	cl, BYTE PTR [eax]
	inc	eax
	test	cl, cl
	jne	SHORT $LL1117@exprint_re

; 708  :          exprint_recur(node+node->left,prec_parent);
; 709  :          break;  

	jmp	$LN1661@exprint_re
$LN653@exprint_re:

; 710  : 
; 711  :       /* initializer array syntax */
; 712  :       case ARRAYLIST_NODE: 
; 713  :         exprint_recur(node+node->left,prec_parent);

	mov	edx, DWORD PTR [ebx+4]
	mov	esi, DWORD PTR _prec_parent$[ebp]
	imul	edx, 168				; 000000a8H
	add	edx, ebx
	push	esi
	push	edx
	call	_exprint_recur

; 714  :         *(pos++) = ','; *pos=0;

	mov	eax, DWORD PTR _pos
	mov	BYTE PTR [eax], 44			; 0000002cH
	inc	eax
	mov	DWORD PTR _pos, eax
	mov	BYTE PTR [eax], 0

; 715  :         exprint_recur(node+node->right,prec_parent);
; 716  :         break;

	jmp	$LN1657@exprint_re
$LN652@exprint_re:

; 717  : 
; 718  :       case ARRAYEXPR_NODE:
; 719  :         *(pos++) = '{'; *pos = 0;

	mov	BYTE PTR [ecx], 123			; 0000007bH
	inc	ecx
	mov	BYTE PTR [ecx], 0

; 720  :         if ( node->left )

	mov	eax, DWORD PTR [ebx+4]
	mov	DWORD PTR _pos, ecx
	test	eax, eax
	je	SHORT $LN651@exprint_re

; 721  :           exprint_recur(node+node->left,prec_parent);

	mov	ecx, DWORD PTR _prec_parent$[ebp]
	imul	eax, 168				; 000000a8H
	push	ecx
	add	eax, ebx
	push	eax
	call	_exprint_recur
	mov	ecx, DWORD PTR _pos
	add	esp, 8
$LN651@exprint_re:

; 722  :         *(pos++) = '}';

	pop	edi
	mov	BYTE PTR [ecx], 125			; 0000007dH
	inc	ecx
	pop	esi
	mov	DWORD PTR _pos, ecx

; 723  :         *pos = 0;

	mov	BYTE PTR [ecx], 0
	pop	ebx

; 3431 : 
; 3432 :          return;
; 3433 :      }
; 3434 :   return ; /* shouldn't happen */
; 3435 : } /* end exprint_recur */

	mov	ecx, DWORD PTR __$ArrayPad$[ebp]
	xor	ecx, ebp
	call	@__security_check_cookie@4
	mov	esp, ebp
	pop	ebp
	ret	0
$LN650@exprint_re:

; 724  :         break;
; 725  : 
; 726  : 
; 727  :       /* whole-array syntax */
; 728  :       case ARRAYIDENT_NODE:
; 729  :       case FIXED_ARRAY_RVAL_NODE:
; 730  :          sprintf(pos,"%s",get_name_name(node->op2.name_id,localbase));

	mov	edx, DWORD PTR [ebx+136]
	push	esi
	push	edx
	call	_get_name_name
	push	eax
	mov	eax, DWORD PTR _pos
	push	OFFSET ??_C@_02DKCKIIND@?$CFs?$AA@
	push	eax
	call	_sprintf

; 731  :          pos += strlen(pos);

	mov	eax, DWORD PTR _pos
	add	esp, 20					; 00000014H
	lea	edx, DWORD PTR [eax+1]
	npad	2
$LL1118@exprint_re:
	mov	cl, BYTE PTR [eax]
	inc	eax
	test	cl, cl
	jne	SHORT $LL1118@exprint_re
	pop	edi
	sub	eax, edx
	add	DWORD PTR _pos, eax
	pop	esi
	pop	ebx

; 3431 : 
; 3432 :          return;
; 3433 :      }
; 3434 :   return ; /* shouldn't happen */
; 3435 : } /* end exprint_recur */

	mov	ecx, DWORD PTR __$ArrayPad$[ebp]
	xor	ecx, ebp
	call	@__security_check_cookie@4
	mov	esp, ebp
	pop	ebp
	ret	0
$LN649@exprint_re:

; 732  :          break;
; 733  : 
; 734  :       case ARRAY_ASSIGNOP_ARRAY_NODE:
; 735  :       case ARRAYEXPR_ASSIGN_NODE:
; 736  :       case ARRAY_ASSIGNOP_SCALAR_NODE:
; 737  :       case ARRAY_ASSIGNOP_STRING_NODE:
; 738  :       case ARRAY_ASSIGNOP_S_X_A_NODE:
; 739  :       case ARRAY_ASSIGNOP_A_P_A_NODE:
; 740  :       case ARRAY_ASSIGNOP_A_S_A_NODE:
; 741  :       case ARRAY_ASSIGNOP_A_X_A_NODE:
; 742  :          exprint_recur(node+node->left,PREC_ASSIGN);

	mov	ecx, DWORD PTR [ebx+4]
	imul	ecx, 168				; 000000a8H
	add	ecx, ebx
	push	10					; 0000000aH
	push	ecx
	call	_exprint_recur
	add	esp, 8

; 743  :          if ( !(node->flags & SET_ASSIGNOP) )

	test	DWORD PTR [ebx+24], 16384		; 00004000H
	jne	$LN648@exprint_re

; 744  :          {
; 745  :            switch ( node->op1.assigntype )

	mov	eax, DWORD PTR [ebx+32]
	add	eax, -30001				; ffff8acfH
	cmp	eax, 4
	ja	SHORT $LN646@exprint_re
	jmp	DWORD PTR $LN1693@exprint_re[eax*4]
$LN645@exprint_re:

; 746  :            { case ASSIGN_OP: sprintf(pos," := "); break;

	mov	edx, DWORD PTR _pos
	push	OFFSET ??_C@_04NOLNGNEC@?5?3?$DN?5?$AA@
	push	edx
	jmp	SHORT $LN1637@exprint_re
$LN644@exprint_re:

; 747  :              case PLUSASSIGN_OP: sprintf(pos," += "); break;

	push	OFFSET ??_C@_04DGBIFNLI@?5?$CL?$DN?5?$AA@
	jmp	SHORT $LN1638@exprint_re
$LN643@exprint_re:

; 748  :              case SUBASSIGN_OP: sprintf(pos," -= "); break;

	mov	ecx, DWORD PTR _pos
	push	OFFSET ??_C@_04BDHDACGE@?5?9?$DN?5?$AA@
	push	ecx
	jmp	SHORT $LN1637@exprint_re
$LN642@exprint_re:

; 749  :              case MULTASSIGN_OP: sprintf(pos," *= "); break;

	mov	edx, DWORD PTR _pos
	push	OFFSET ??_C@_04IOKEDKNN@?5?$CK?$DN?5?$AA@
	push	edx
	jmp	SHORT $LN1637@exprint_re
$LN641@exprint_re:

; 750  :              case DIVASSIGN_OP: sprintf(pos," /= "); break;

	push	OFFSET ??_C@_04LJHKMKOP@?5?1?$DN?5?$AA@
$LN1638@exprint_re:
	mov	eax, DWORD PTR _pos
	push	eax
$LN1637@exprint_re:
	call	_sprintf
	add	esp, 8
$LN646@exprint_re:

; 751  :            } 
; 752  :            pos += strlen(pos);

	mov	eax, DWORD PTR _pos
	lea	edx, DWORD PTR [eax+1]
$LL1119@exprint_re:
	mov	cl, BYTE PTR [eax]
	inc	eax
	test	cl, cl
	jne	SHORT $LL1119@exprint_re

; 753  :            exprint_recur(node+node->right,PREC_ASSIGN);

	mov	ecx, DWORD PTR [ebx+8]

; 1267 :          exprint_recur(node+node->left,prec_parent);

	imul	ecx, 168				; 000000a8H
	sub	eax, edx
	add	DWORD PTR _pos, eax
	push	10					; 0000000aH
	add	ecx, ebx
	push	ecx

; 1268 :          break;

	jmp	$LN1652@exprint_re
$LN648@exprint_re:

; 754  :          }
; 755  :          else
; 756  :          {
; 757  :            sprintf(pos++,"(");  // kludge for "-" after []     

	mov	eax, DWORD PTR _pos
	mov	ecx, eax
	inc	eax
	push	OFFSET ??_C@_01ODHLEDKK@?$CI?$AA@
	push	ecx
	mov	DWORD PTR _pos, eax
	call	_sprintf

; 758  :            exprint_recur(node+node->right,PREC_ASSIGN);

	mov	edx, DWORD PTR [ebx+8]
	imul	edx, 168				; 000000a8H
	add	edx, ebx
	push	10					; 0000000aH
	push	edx
	call	_exprint_recur

; 759  :            sprintf(pos++,")");

	mov	eax, DWORD PTR _pos
	mov	ecx, eax
	inc	eax
	push	OFFSET ??_C@_01PKGAHCOL@?$CJ?$AA@
	push	ecx
	mov	DWORD PTR _pos, eax
	call	_sprintf
	add	esp, 24					; 00000018H
	pop	edi
	pop	esi
	pop	ebx

; 3431 : 
; 3432 :          return;
; 3433 :      }
; 3434 :   return ; /* shouldn't happen */
; 3435 : } /* end exprint_recur */

	mov	ecx, DWORD PTR __$ArrayPad$[ebp]
	xor	ecx, ebp
	call	@__security_check_cookie@4
	mov	esp, ebp
	pop	ebp
	ret	0
$LN639@exprint_re:

; 760  :          }
; 761  :          break;
; 762  : 
; 763  :       case DOT_NODE:
; 764  :          binary_print(node,prec_parent,PREC_MUL," * ",PREC_MUL);

	mov	eax, DWORD PTR _prec_parent$[ebp]
	push	40					; 00000028H
	push	OFFSET ??_C@_03NONHGIEJ@?5?$CK?5?$AA@
	push	40					; 00000028H
	push	eax
	push	ebx
	call	_binary_print
	add	esp, 20					; 00000014H
	pop	edi
	pop	esi
	pop	ebx

; 3431 : 
; 3432 :          return;
; 3433 :      }
; 3434 :   return ; /* shouldn't happen */
; 3435 : } /* end exprint_recur */

	mov	ecx, DWORD PTR __$ArrayPad$[ebp]
	xor	ecx, ebp
	call	@__security_check_cookie@4
	mov	esp, ebp
	pop	ebp
	ret	0
$LN638@exprint_re:

; 765  :          break;
; 766  : 
; 767  :       case ARRAY_LVALUE_INDEXED_NODE:
; 768  :       case ARRAY_RVALUE_INDEXED_NODE:
; 769  :          exprint_recur(node+node->left,PREC_INDEX);

	mov	ecx, DWORD PTR [ebx+4]
	imul	ecx, 168				; 000000a8H
	add	ecx, ebx
	push	55					; 00000037H
	push	ecx
	call	_exprint_recur

; 770  :          if ( node->right )

	mov	eax, DWORD PTR [ebx+8]
	add	esp, 8
	test	eax, eax
	je	$LN730@exprint_re

; 771  :            exprint_recur(node+node->right,PREC_INDEX);

	imul	eax, 168				; 000000a8H
	push	55					; 00000037H
	add	eax, ebx
	push	eax

; 772  :      //    *pos = ' '; *(++pos) = 0;  //why would this be needed?
; 773  :          break;

	jmp	$LN1662@exprint_re
$LN636@exprint_re:

; 774  : 
; 775  :       case PRINT_ARRAY_LVALUE_NODE:
; 776  :          sprintf(pos,"print ");

	push	OFFSET ??_C@_06EBLGCNEC@print?5?$AA@
	push	ecx
	call	_sprintf

; 777  :          pos += strlen(pos);

	mov	eax, DWORD PTR _pos
	add	esp, 8
	lea	edx, DWORD PTR [eax+1]
	npad	6
$LL1120@exprint_re:
	mov	cl, BYTE PTR [eax]
	inc	eax
	test	cl, cl
	jne	SHORT $LL1120@exprint_re
$LN1687@exprint_re:
	sub	eax, edx
	add	DWORD PTR _pos, eax

; 778  :          exprint_recur(node+node->left,prec_parent);

	mov	eax, DWORD PTR [ebx+4]
	mov	edx, DWORD PTR _prec_parent$[ebp]
	imul	eax, 168				; 000000a8H
	push	edx
	add	eax, ebx
	push	eax

; 779  :          break;

	jmp	$LN1662@exprint_re
$LN635@exprint_re:

; 780  :            
; 781  :       case ATTRIB_LVALUE_NODE:
; 782  :       case ARRAY_VERTEX_NORMAL_NODE:
; 783  :       case ARRAY_EDGE_VECTOR_NODE:
; 784  :       case ARRAY_FACET_NORMAL_NODE:
; 785  :          if ( node->left )

	mov	eax, DWORD PTR [ebx+4]
	test	eax, eax
	je	SHORT $LN634@exprint_re

; 786  :          { exprint_recur(node+node->left,prec_parent);

	mov	ecx, DWORD PTR _prec_parent$[ebp]
	imul	eax, 168				; 000000a8H
	push	ecx
	add	eax, ebx
	push	eax
	call	_exprint_recur
	add	esp, 8
$LN634@exprint_re:

; 787  :          }
; 788  :          if ( node->op1.localnum == 0)

	cmp	DWORD PTR [ebx+32], 0

; 789  :            sprintf(pos," %s",get_name_name(node->op2.name_id,localbase));

	push	esi
	jne	SHORT $LN633@exprint_re
	mov	edx, DWORD PTR [ebx+136]
	push	edx
	call	_get_name_name
	push	eax
	mov	eax, DWORD PTR _pos
	push	OFFSET ??_C@_03EEBNCBOD@?5?$CFs?$AA@
	push	eax

; 790  :          else

	jmp	SHORT $LN1639@exprint_re
$LN633@exprint_re:

; 791  :            sprintf(pos,".%s",get_name_name(node->op2.name_id,localbase));

	mov	ecx, DWORD PTR [ebx+136]
	push	ecx
	call	_get_name_name
	mov	edx, DWORD PTR _pos
	push	eax
	push	OFFSET ??_C@_03KEMCFGNA@?4?$CFs?$AA@
	push	edx
$LN1639@exprint_re:
	call	_sprintf

; 792  :          pos += strlen(pos);

	mov	eax, DWORD PTR _pos
	add	esp, 20					; 00000014H
	lea	edx, DWORD PTR [eax+1]
	npad	6
$LL1121@exprint_re:
	mov	cl, BYTE PTR [eax]
	inc	eax
	test	cl, cl
	jne	SHORT $LL1121@exprint_re
	pop	edi
	sub	eax, edx
	add	DWORD PTR _pos, eax
	pop	esi
	pop	ebx

; 3431 : 
; 3432 :          return;
; 3433 :      }
; 3434 :   return ; /* shouldn't happen */
; 3435 : } /* end exprint_recur */

	mov	ecx, DWORD PTR __$ArrayPad$[ebp]
	xor	ecx, ebp
	call	@__security_check_cookie@4
	mov	esp, ebp
	pop	ebp
	ret	0
$LN631@exprint_re:

; 793  :          break;
; 794  : 
; 795  :       case ARRAY_VERTEX_CONSTRAINT_NORMAL_NODE:
; 796  :          exprint_recur(node+node->left,prec_parent);

	mov	eax, DWORD PTR [ebx+4]
	mov	esi, DWORD PTR _prec_parent$[ebp]
	imul	eax, 168				; 000000a8H
	add	eax, ebx
	push	esi
	push	eax
	call	_exprint_recur

; 797  :          strcat(pos,".constraint[");

	mov	edi, DWORD PTR _pos
	add	esp, 8
	lea	eax, DWORD PTR [edi-1]
$LL1122@exprint_re:
	mov	cl, BYTE PTR [eax+1]
	inc	eax
	test	cl, cl
	jne	SHORT $LL1122@exprint_re
	mov	ecx, DWORD PTR ??_C@_0N@PGNKLKGF@?4constraint?$FL?$AA@
	mov	DWORD PTR [eax], ecx
	mov	edx, DWORD PTR ??_C@_0N@PGNKLKGF@?4constraint?$FL?$AA@+4
	mov	DWORD PTR [eax+4], edx
	mov	ecx, DWORD PTR ??_C@_0N@PGNKLKGF@?4constraint?$FL?$AA@+8
	mov	DWORD PTR [eax+8], ecx
	mov	dl, BYTE PTR ??_C@_0N@PGNKLKGF@?4constraint?$FL?$AA@+12
	mov	BYTE PTR [eax+12], dl

; 798  :          pos += strlen(pos);

	mov	eax, edi
	lea	edx, DWORD PTR [eax+1]
$LL1123@exprint_re:
	mov	cl, BYTE PTR [eax]
	inc	eax
	test	cl, cl
	jne	SHORT $LL1123@exprint_re
	sub	eax, edx
	add	edi, eax

; 799  :          if ( node[node->right].type == PUSHCONST_NODE )

	mov	eax, DWORD PTR [ebx+8]
	imul	eax, 168				; 000000a8H
	add	ebx, eax
	cmp	DWORD PTR [ebx], 10095			; 0000276fH
	mov	DWORD PTR _pos, edi
	jne	SHORT $LN630@exprint_re

; 800  :          { int connum = (int)(node[node->right].op1.real);

	fld	QWORD PTR [ebx+32]
	call	__ftol2_sse

; 801  :            struct constraint *con;
; 802  :            if ( connum < 1 || connum >= web.maxcon )

	cmp	eax, 1
	jl	SHORT $LN628@exprint_re
	cmp	eax, DWORD PTR _web+644
	jge	SHORT $LN628@exprint_re

; 804  :            else
; 805  :            { con= get_constraint(connum);

	and	eax, 1073741823				; 3fffffffH
	imul	eax, 176				; 000000b0H
	add	eax, DWORD PTR _web+652

; 806  :              strcat(pos,con->name);

	mov	ecx, eax
	npad	3
$LL1124@exprint_re:
	mov	dl, BYTE PTR [eax]
	inc	eax
	test	dl, dl
	jne	SHORT $LL1124@exprint_re
	sub	eax, ecx
	mov	esi, ecx
	dec	edi
	npad	4
$LL1125@exprint_re:
	mov	cl, BYTE PTR [edi+1]
	inc	edi
	test	cl, cl
	jne	SHORT $LL1125@exprint_re
	mov	ecx, eax
	shr	ecx, 2
	rep movsd
	mov	ecx, eax
	and	ecx, 3
	rep movsb
	jmp	SHORT $LN627@exprint_re
$LN628@exprint_re:

; 803  :              sprintf(pos,"%d",connum);

	push	eax
	push	OFFSET ??_C@_02DPKJAMEF@?$CFd?$AA@
	push	edi
	call	_sprintf
	add	esp, 12					; 0000000cH
$LN627@exprint_re:

; 807  :            }
; 808  :            pos += strlen(pos);

	mov	edx, DWORD PTR _pos
	mov	eax, edx
	lea	esi, DWORD PTR [eax+1]
$LL1126@exprint_re:
	mov	cl, BYTE PTR [eax]
	inc	eax
	test	cl, cl
	jne	SHORT $LL1126@exprint_re
	sub	eax, esi
	add	edx, eax

; 809  :          }
; 810  :          else

	jmp	SHORT $LN626@exprint_re
$LN630@exprint_re:

; 811  :            exprint_recur(node+node->right,prec_parent);

	push	esi
	push	ebx
	call	_exprint_recur
	mov	edx, DWORD PTR _pos
	add	esp, 8
$LN626@exprint_re:

; 812  :          strcat(pos,"].normal"); 

	lea	eax, DWORD PTR [edx-1]
$LL1127@exprint_re:
	mov	cl, BYTE PTR [eax+1]
	inc	eax
	test	cl, cl
	jne	SHORT $LL1127@exprint_re
	mov	ecx, DWORD PTR ??_C@_08JODPKOOO@?$FN?4normal?$AA@
	mov	DWORD PTR [eax], ecx
	mov	ecx, DWORD PTR ??_C@_08JODPKOOO@?$FN?4normal?$AA@+4
	mov	DWORD PTR [eax+4], ecx
	mov	cl, BYTE PTR ??_C@_08JODPKOOO@?$FN?4normal?$AA@+8
	mov	BYTE PTR [eax+8], cl

; 813  :          pos += strlen(pos);

	mov	eax, edx
	lea	esi, DWORD PTR [eax+1]
	npad	7
$LL1128@exprint_re:
	mov	cl, BYTE PTR [eax]
	inc	eax
	test	cl, cl
	jne	SHORT $LL1128@exprint_re
	sub	eax, esi
	pop	edi
	add	edx, eax
	pop	esi
	mov	DWORD PTR _pos, edx
	pop	ebx

; 3431 : 
; 3432 :          return;
; 3433 :      }
; 3434 :   return ; /* shouldn't happen */
; 3435 : } /* end exprint_recur */

	mov	ecx, DWORD PTR __$ArrayPad$[ebp]
	xor	ecx, ebp
	call	@__security_check_cookie@4
	mov	esp, ebp
	pop	ebp
	ret	0
$LN625@exprint_re:

; 814  :          break;
; 815  : 
; 816  :       case ARRAY_RVALUE_NODE:
; 817  : 		  exprint_recur(node+node->left,node->op1.intval=='*'?PREC_MUL:PREC_ADD);

	mov	edx, DWORD PTR [ebx+32]
	mov	eax, DWORD PTR [ebx+4]
	sub	edx, 42					; 0000002aH
	neg	edx
	sbb	edx, edx
	imul	eax, 168				; 000000a8H
	and	edx, -5					; fffffffbH
	add	edx, 40					; 00000028H
	push	edx
	add	eax, ebx
	push	eax
	call	_exprint_recur

; 818  :          sprintf(pos," %c ",node->op1.intval);

	mov	ecx, DWORD PTR [ebx+32]
	mov	edx, DWORD PTR _pos
	push	ecx
	push	OFFSET ??_C@_04LAOFCJDB@?5?$CFc?5?$AA@
	push	edx
	call	_sprintf

; 819  :          pos += strlen(pos);

	mov	eax, DWORD PTR _pos
	add	esp, 20					; 00000014H
	lea	edx, DWORD PTR [eax+1]
$LL1129@exprint_re:
	mov	cl, BYTE PTR [eax]
	inc	eax
	test	cl, cl
	jne	SHORT $LL1129@exprint_re

; 820  :          exprint_recur(node+node->right,node->op1.intval=='*'?PREC_MUL:PREC_ADD);

	mov	ecx, DWORD PTR [ebx+8]
	sub	eax, edx
	add	DWORD PTR _pos, eax
	mov	eax, DWORD PTR [ebx+32]
	sub	eax, 42					; 0000002aH
	neg	eax
	sbb	eax, eax
	and	eax, -5					; fffffffbH
	add	eax, 40					; 00000028H

; 821  :          break;

	jmp	$LN1688@exprint_re
$LN624@exprint_re:

; 822  : 
; 823  :       /* end whole-array syntax */
; 824  : 
; 825  :       case SET_CONSTRAINT_GLOBAL_NODE:
; 826  :          strcat(pos,"set constraint "); pos += strlen(pos);

	lea	esi, DWORD PTR [ecx-1]
	npad	2
$LL1130@exprint_re:
	mov	al, BYTE PTR [esi+1]
	inc	esi
	test	al, al
	jne	SHORT $LL1130@exprint_re
	mov	edx, DWORD PTR ??_C@_0BA@FHOMNLOC@set?5constraint?5?$AA@
	mov	DWORD PTR [esi], edx
	mov	eax, DWORD PTR ??_C@_0BA@FHOMNLOC@set?5constraint?5?$AA@+4
	mov	DWORD PTR [esi+4], eax
	mov	edx, DWORD PTR ??_C@_0BA@FHOMNLOC@set?5constraint?5?$AA@+8
	mov	DWORD PTR [esi+8], edx
	mov	eax, DWORD PTR ??_C@_0BA@FHOMNLOC@set?5constraint?5?$AA@+12
	mov	DWORD PTR [esi+12], eax
	mov	esi, ecx
	lea	edx, DWORD PTR [esi+1]
	npad	2
$LL1131@exprint_re:
	mov	al, BYTE PTR [esi]
	inc	esi
	test	al, al
	jne	SHORT $LL1131@exprint_re
	sub	esi, edx

; 827  :          exprint_recur(node+node->left,prec_parent);

	mov	edx, DWORD PTR [ebx+4]
	imul	edx, 168				; 000000a8H
	add	ecx, esi
	mov	DWORD PTR _pos, ecx
	mov	ecx, DWORD PTR _prec_parent$[ebp]
	push	ecx
	add	edx, ebx
	push	edx
	call	_exprint_recur

; 828  :          strcat(pos," global "); pos += strlen(pos);

	mov	edx, DWORD PTR _pos
	add	esp, 8
	lea	eax, DWORD PTR [edx-1]
$LL1132@exprint_re:
	mov	cl, BYTE PTR [eax+1]
	inc	eax
	test	cl, cl
	jne	SHORT $LL1132@exprint_re
	mov	ecx, DWORD PTR ??_C@_08EALMPJOD@?5global?5?$AA@
	mov	DWORD PTR [eax], ecx
	mov	ecx, DWORD PTR ??_C@_08EALMPJOD@?5global?5?$AA@+4
	mov	DWORD PTR [eax+4], ecx
	mov	cl, BYTE PTR ??_C@_08EALMPJOD@?5global?5?$AA@+8
	mov	BYTE PTR [eax+8], cl
	mov	eax, edx
	lea	esi, DWORD PTR [eax+1]
	npad	7
$LL1133@exprint_re:
	mov	cl, BYTE PTR [eax]
	inc	eax
	test	cl, cl
	jne	SHORT $LL1133@exprint_re
	sub	eax, esi
	pop	edi
	add	edx, eax
	pop	esi
	mov	DWORD PTR _pos, edx
	pop	ebx

; 3431 : 
; 3432 :          return;
; 3433 :      }
; 3434 :   return ; /* shouldn't happen */
; 3435 : } /* end exprint_recur */

	mov	ecx, DWORD PTR __$ArrayPad$[ebp]
	xor	ecx, ebp
	call	@__security_check_cookie@4
	mov	esp, ebp
	pop	ebp
	ret	0
$LN623@exprint_re:

; 829  :          break;
; 830  : 
; 831  :       case UNSET_CONSTRAINT_GLOBAL_NODE:
; 832  :          strcat(pos,"unset constraint "); pos += strlen(pos);

	lea	esi, DWORD PTR [ecx-1]
$LL1134@exprint_re:
	mov	al, BYTE PTR [esi+1]
	inc	esi
	test	al, al
	jne	SHORT $LL1134@exprint_re
	mov	edx, DWORD PTR ??_C@_0BC@MDBPAFMN@unset?5constraint?5?$AA@
	mov	DWORD PTR [esi], edx
	mov	eax, DWORD PTR ??_C@_0BC@MDBPAFMN@unset?5constraint?5?$AA@+4
	mov	DWORD PTR [esi+4], eax
	mov	edx, DWORD PTR ??_C@_0BC@MDBPAFMN@unset?5constraint?5?$AA@+8
	mov	DWORD PTR [esi+8], edx
	mov	eax, DWORD PTR ??_C@_0BC@MDBPAFMN@unset?5constraint?5?$AA@+12
	mov	DWORD PTR [esi+12], eax
	mov	dx, WORD PTR ??_C@_0BC@MDBPAFMN@unset?5constraint?5?$AA@+16
	mov	WORD PTR [esi+16], dx
	mov	esi, ecx
	lea	edx, DWORD PTR [esi+1]
	npad	2
$LL1135@exprint_re:
	mov	al, BYTE PTR [esi]
	inc	esi
	test	al, al
	jne	SHORT $LL1135@exprint_re

; 833  :          exprint_recur(node+node->left,prec_parent);

	mov	eax, DWORD PTR _prec_parent$[ebp]
	sub	esi, edx
	add	ecx, esi
	mov	DWORD PTR _pos, ecx
	mov	ecx, DWORD PTR [ebx+4]
	imul	ecx, 168				; 000000a8H
	push	eax
	add	ecx, ebx
	push	ecx
	call	_exprint_recur

; 834  :          strcat(pos," global "); pos += strlen(pos);

	mov	edx, DWORD PTR _pos
	add	esp, 8
	lea	eax, DWORD PTR [edx-1]
$LL1136@exprint_re:
	mov	cl, BYTE PTR [eax+1]
	inc	eax
	test	cl, cl
	jne	SHORT $LL1136@exprint_re
	mov	ecx, DWORD PTR ??_C@_08EALMPJOD@?5global?5?$AA@
	mov	DWORD PTR [eax], ecx
	mov	ecx, DWORD PTR ??_C@_08EALMPJOD@?5global?5?$AA@+4
	mov	DWORD PTR [eax+4], ecx
	mov	cl, BYTE PTR ??_C@_08EALMPJOD@?5global?5?$AA@+8
	mov	BYTE PTR [eax+8], cl
	mov	eax, edx
	lea	esi, DWORD PTR [eax+1]
	npad	7
$LL1137@exprint_re:
	mov	cl, BYTE PTR [eax]
	inc	eax
	test	cl, cl
	jne	SHORT $LL1137@exprint_re
	sub	eax, esi
	pop	edi
	add	edx, eax
	pop	esi
	mov	DWORD PTR _pos, edx
	pop	ebx

; 3431 : 
; 3432 :          return;
; 3433 :      }
; 3434 :   return ; /* shouldn't happen */
; 3435 : } /* end exprint_recur */

	mov	ecx, DWORD PTR __$ArrayPad$[ebp]
	xor	ecx, ebp
	call	@__security_check_cookie@4
	mov	esp, ebp
	pop	ebp
	ret	0
$LN622@exprint_re:

; 835  :          break;
; 836  : 
; 837  :       case SET_CONSTRAINT_NAME_GLOBAL_NODE:
; 838  :          sprintf(pos,"set constraint %s global",
; 839  :               get_constraint(node->op3.connum)->name); 

	mov	edx, DWORD PTR [ebx+140]
	and	edx, 1073741823				; 3fffffffH
	imul	edx, 176				; 000000b0H
	add	edx, DWORD PTR _web+652
	push	edx
	push	OFFSET ??_C@_0BJ@DICHIFDL@set?5constraint?5?$CFs?5global?$AA@
	push	ecx
	call	_sprintf

; 840  :          pos += strlen(pos);   

	mov	eax, DWORD PTR _pos
	add	esp, 12					; 0000000cH
	lea	edx, DWORD PTR [eax+1]
$LL1138@exprint_re:
	mov	cl, BYTE PTR [eax]
	inc	eax
	test	cl, cl
	jne	SHORT $LL1138@exprint_re
	pop	edi
	sub	eax, edx
	add	DWORD PTR _pos, eax
	pop	esi
	pop	ebx

; 3431 : 
; 3432 :          return;
; 3433 :      }
; 3434 :   return ; /* shouldn't happen */
; 3435 : } /* end exprint_recur */

	mov	ecx, DWORD PTR __$ArrayPad$[ebp]
	xor	ecx, ebp
	call	@__security_check_cookie@4
	mov	esp, ebp
	pop	ebp
	ret	0
$LN621@exprint_re:

; 841  :          break;
; 842  : 
; 843  :       case UNSET_CONSTRAINT_NAME_GLOBAL_NODE:
; 844  :          sprintf(pos,"unset constraint %s global",
; 845  :               get_constraint(node->op3.connum)->name); 

	mov	eax, DWORD PTR [ebx+140]
	and	eax, 1073741823				; 3fffffffH
	imul	eax, 176				; 000000b0H
	add	eax, DWORD PTR _web+652
	push	eax
	push	OFFSET ??_C@_0BL@KFJJNIHG@unset?5constraint?5?$CFs?5global?$AA@
	push	ecx
	call	_sprintf

; 846  :          pos += strlen(pos);

	mov	eax, DWORD PTR _pos
	add	esp, 12					; 0000000cH
	lea	edx, DWORD PTR [eax+1]
	npad	1
$LL1139@exprint_re:
	mov	cl, BYTE PTR [eax]
	inc	eax
	test	cl, cl
	jne	SHORT $LL1139@exprint_re
	pop	edi
	sub	eax, edx
	add	DWORD PTR _pos, eax
	pop	esi
	pop	ebx

; 3431 : 
; 3432 :          return;
; 3433 :      }
; 3434 :   return ; /* shouldn't happen */
; 3435 : } /* end exprint_recur */

	mov	ecx, DWORD PTR __$ArrayPad$[ebp]
	xor	ecx, ebp
	call	@__security_check_cookie@4
	mov	esp, ebp
	pop	ebp
	ret	0
$LN620@exprint_re:

; 847  :          break;
; 848  : 
; 849  :       case RESET_COUNTS_NODE:
; 850  :          strcat(pos,"reset_counts"); pos += strlen(pos); 

	lea	eax, DWORD PTR [ecx-1]
$LL1140@exprint_re:
	mov	dl, BYTE PTR [eax+1]
	inc	eax
	test	dl, dl
	jne	SHORT $LL1140@exprint_re
	mov	edx, DWORD PTR ??_C@_0N@BFEIANBO@reset_counts?$AA@
	mov	DWORD PTR [eax], edx
	mov	edx, DWORD PTR ??_C@_0N@BFEIANBO@reset_counts?$AA@+4
	mov	DWORD PTR [eax+4], edx
	mov	edx, DWORD PTR ??_C@_0N@BFEIANBO@reset_counts?$AA@+8
	mov	DWORD PTR [eax+8], edx
	mov	dl, BYTE PTR ??_C@_0N@BFEIANBO@reset_counts?$AA@+12
	mov	BYTE PTR [eax+12], dl
	mov	eax, ecx
	lea	esi, DWORD PTR [eax+1]
$LL1141@exprint_re:
	mov	dl, BYTE PTR [eax]
	inc	eax
	test	dl, dl
	jne	SHORT $LL1141@exprint_re
	sub	eax, esi
	pop	edi
	add	ecx, eax
	pop	esi
	mov	DWORD PTR _pos, ecx
	pop	ebx

; 3431 : 
; 3432 :          return;
; 3433 :      }
; 3434 :   return ; /* shouldn't happen */
; 3435 : } /* end exprint_recur */

	mov	ecx, DWORD PTR __$ArrayPad$[ebp]
	xor	ecx, ebp
	call	@__security_check_cookie@4
	mov	esp, ebp
	pop	ebp
	ret	0
$LN619@exprint_re:

; 851  :          return;
; 852  : 
; 853  :       case FLUSH_COUNTS_NODE:
; 854  :          strcat(pos,"flush_counts"); pos += strlen(pos); 

	lea	eax, DWORD PTR [ecx-1]
$LL1142@exprint_re:
	mov	dl, BYTE PTR [eax+1]
	inc	eax
	test	dl, dl
	jne	SHORT $LL1142@exprint_re
	mov	edx, DWORD PTR ??_C@_0N@HEKOHBEK@flush_counts?$AA@
	mov	DWORD PTR [eax], edx
	mov	edx, DWORD PTR ??_C@_0N@HEKOHBEK@flush_counts?$AA@+4
	mov	DWORD PTR [eax+4], edx
	mov	edx, DWORD PTR ??_C@_0N@HEKOHBEK@flush_counts?$AA@+8
	mov	DWORD PTR [eax+8], edx
	mov	dl, BYTE PTR ??_C@_0N@HEKOHBEK@flush_counts?$AA@+12
	mov	BYTE PTR [eax+12], dl
	mov	eax, ecx
	lea	esi, DWORD PTR [eax+1]
$LL1143@exprint_re:
	mov	dl, BYTE PTR [eax]
	inc	eax
	test	dl, dl
	jne	SHORT $LL1143@exprint_re
	sub	eax, esi
	pop	edi
	add	ecx, eax
	pop	esi
	mov	DWORD PTR _pos, ecx
	pop	ebx

; 3431 : 
; 3432 :          return;
; 3433 :      }
; 3434 :   return ; /* shouldn't happen */
; 3435 : } /* end exprint_recur */

	mov	ecx, DWORD PTR __$ArrayPad$[ebp]
	xor	ecx, ebp
	call	@__security_check_cookie@4
	mov	esp, ebp
	pop	ebp
	ret	0
$LN618@exprint_re:

; 855  :          return;
; 856  : 
; 857  :       case PRINT_PROFILING_NODE:
; 858  :          strcat(pos,"print profiling"); pos += strlen(pos); 

	lea	eax, DWORD PTR [ecx-1]
	npad	3
$LL1144@exprint_re:
	mov	dl, BYTE PTR [eax+1]
	inc	eax
	test	dl, dl
	jne	SHORT $LL1144@exprint_re
	mov	edx, DWORD PTR ??_C@_0BA@IBOFDNEL@print?5profiling?$AA@
	mov	DWORD PTR [eax], edx
	mov	edx, DWORD PTR ??_C@_0BA@IBOFDNEL@print?5profiling?$AA@+4
	mov	DWORD PTR [eax+4], edx
	mov	edx, DWORD PTR ??_C@_0BA@IBOFDNEL@print?5profiling?$AA@+8
	mov	DWORD PTR [eax+8], edx
	mov	edx, DWORD PTR ??_C@_0BA@IBOFDNEL@print?5profiling?$AA@+12
	mov	DWORD PTR [eax+12], edx
	mov	eax, ecx
	lea	esi, DWORD PTR [eax+1]
$LL1145@exprint_re:
	mov	dl, BYTE PTR [eax]
	inc	eax
	test	dl, dl
	jne	SHORT $LL1145@exprint_re
	sub	eax, esi
	pop	edi
	add	ecx, eax
	pop	esi
	mov	DWORD PTR _pos, ecx
	pop	ebx

; 3431 : 
; 3432 :          return;
; 3433 :      }
; 3434 :   return ; /* shouldn't happen */
; 3435 : } /* end exprint_recur */

	mov	ecx, DWORD PTR __$ArrayPad$[ebp]
	xor	ecx, ebp
	call	@__security_check_cookie@4
	mov	esp, ebp
	pop	ebp
	ret	0
$LN617@exprint_re:

; 859  :          return;
; 860  : 
; 861  :       case RESET_PROFILING_NODE:
; 862  :          strcat(pos,"reset_profiling"); pos += strlen(pos); 

	lea	eax, DWORD PTR [ecx-1]
$LL1146@exprint_re:
	mov	dl, BYTE PTR [eax+1]
	inc	eax
	test	dl, dl
	jne	SHORT $LL1146@exprint_re
	mov	edx, DWORD PTR ??_C@_0BA@OHLAHHBM@reset_profiling?$AA@
	mov	DWORD PTR [eax], edx
	mov	edx, DWORD PTR ??_C@_0BA@OHLAHHBM@reset_profiling?$AA@+4
	mov	DWORD PTR [eax+4], edx
	mov	edx, DWORD PTR ??_C@_0BA@OHLAHHBM@reset_profiling?$AA@+8
	mov	DWORD PTR [eax+8], edx
	mov	edx, DWORD PTR ??_C@_0BA@OHLAHHBM@reset_profiling?$AA@+12
	mov	DWORD PTR [eax+12], edx
	mov	eax, ecx
	lea	esi, DWORD PTR [eax+1]
$LL1147@exprint_re:
	mov	dl, BYTE PTR [eax]
	inc	eax
	test	dl, dl
	jne	SHORT $LL1147@exprint_re
	sub	eax, esi
	pop	edi
	add	ecx, eax
	pop	esi
	mov	DWORD PTR _pos, ecx
	pop	ebx

; 3431 : 
; 3432 :          return;
; 3433 :      }
; 3434 :   return ; /* shouldn't happen */
; 3435 : } /* end exprint_recur */

	mov	ecx, DWORD PTR __$ArrayPad$[ebp]
	xor	ecx, ebp
	call	@__security_check_cookie@4
	mov	esp, ebp
	pop	ebp
	ret	0
$LN616@exprint_re:

; 863  :          return;
; 864  : 
; 865  :       case PAUSE_NODE:
; 866  :          strcat(pos,"pause"); pos += strlen(pos); 

	lea	eax, DWORD PTR [ecx-1]
	npad	6
$LL1148@exprint_re:
	mov	dl, BYTE PTR [eax+1]
	inc	eax
	test	dl, dl
	jne	SHORT $LL1148@exprint_re
	mov	edx, DWORD PTR ??_C@_05PDJBBECF@pause?$AA@
	mov	DWORD PTR [eax], edx
	mov	dx, WORD PTR ??_C@_05PDJBBECF@pause?$AA@+4
	mov	WORD PTR [eax+4], dx
	mov	eax, ecx
	lea	esi, DWORD PTR [eax+1]
$LL1149@exprint_re:
	mov	dl, BYTE PTR [eax]
	inc	eax
	test	dl, dl
	jne	SHORT $LL1149@exprint_re
	sub	eax, esi
	pop	edi
	add	ecx, eax
	pop	esi
	mov	DWORD PTR _pos, ecx
	pop	ebx

; 3431 : 
; 3432 :          return;
; 3433 :      }
; 3434 :   return ; /* shouldn't happen */
; 3435 : } /* end exprint_recur */

	mov	ecx, DWORD PTR __$ArrayPad$[ebp]
	xor	ecx, ebp
	call	@__security_check_cookie@4
	mov	esp, ebp
	pop	ebp
	ret	0
$LN615@exprint_re:

; 867  :          return;
; 868  : 
; 869  :       case RETURN_NODE:
; 870  :          strcat(pos,"return "); pos += strlen(pos); 

	lea	esi, DWORD PTR [ecx-1]
$LL1150@exprint_re:
	mov	al, BYTE PTR [esi+1]
	inc	esi
	test	al, al
	jne	SHORT $LL1150@exprint_re
	mov	eax, DWORD PTR ??_C@_07BKFMFPMO@return?5?$AA@
	mov	DWORD PTR [esi], eax
	mov	edx, DWORD PTR ??_C@_07BKFMFPMO@return?5?$AA@+4
	mov	DWORD PTR [esi+4], edx
	mov	esi, ecx
	lea	edx, DWORD PTR [esi+1]
$LL1151@exprint_re:
	mov	al, BYTE PTR [esi]
	inc	esi
	test	al, al
	jne	SHORT $LL1151@exprint_re

; 871  :          if ( node->left )

	mov	eax, DWORD PTR [ebx+4]
	sub	esi, edx
	add	ecx, esi
	mov	DWORD PTR _pos, ecx
	test	eax, eax
	je	$LN730@exprint_re

; 872  :            exprint_recur(node+node->left,prec_parent);

	mov	ecx, DWORD PTR _prec_parent$[ebp]

; 1334 :          exprint_recur(node+node->left,PREC_ASSIGN);

	imul	eax, 168				; 000000a8H
	push	ecx
	add	eax, ebx
	push	eax

; 1335 :          break;

	jmp	$LN1652@exprint_re
$LN613@exprint_re:

; 873  :          return;
; 874  : 
; 875  :       case EVOLVER_VERSION_NODE:
; 876  :          strcat(pos,"evolver_version"); pos += strlen(pos); 

	lea	eax, DWORD PTR [ecx-1]
$LL1152@exprint_re:
	mov	dl, BYTE PTR [eax+1]
	inc	eax
	test	dl, dl
	jne	SHORT $LL1152@exprint_re
	mov	edx, DWORD PTR ??_C@_0BA@DKKLMIEO@evolver_version?$AA@
	mov	DWORD PTR [eax], edx
	mov	edx, DWORD PTR ??_C@_0BA@DKKLMIEO@evolver_version?$AA@+4
	mov	DWORD PTR [eax+4], edx
	mov	edx, DWORD PTR ??_C@_0BA@DKKLMIEO@evolver_version?$AA@+8
	mov	DWORD PTR [eax+8], edx
	mov	edx, DWORD PTR ??_C@_0BA@DKKLMIEO@evolver_version?$AA@+12
	mov	DWORD PTR [eax+12], edx
	mov	eax, ecx
	lea	esi, DWORD PTR [eax+1]
$LL1153@exprint_re:
	mov	dl, BYTE PTR [eax]
	inc	eax
	test	dl, dl
	jne	SHORT $LL1153@exprint_re
	sub	eax, esi
	pop	edi
	add	ecx, eax
	pop	esi
	mov	DWORD PTR _pos, ecx
	pop	ebx

; 3431 : 
; 3432 :          return;
; 3433 :      }
; 3434 :   return ; /* shouldn't happen */
; 3435 : } /* end exprint_recur */

	mov	ecx, DWORD PTR __$ArrayPad$[ebp]
	xor	ecx, ebp
	call	@__security_check_cookie@4
	mov	esp, ebp
	pop	ebp
	ret	0
$LN612@exprint_re:

; 877  :          return;
; 878  : 
; 879  :       case DATE_AND_TIME_NODE:
; 880  :          strcat(pos,"date_and_time"); pos += strlen(pos); 

	lea	eax, DWORD PTR [ecx-1]
$LL1154@exprint_re:
	mov	dl, BYTE PTR [eax+1]
	inc	eax
	test	dl, dl
	jne	SHORT $LL1154@exprint_re
	mov	edx, DWORD PTR ??_C@_0O@DICBBEEI@date_and_time?$AA@
	mov	DWORD PTR [eax], edx
	mov	edx, DWORD PTR ??_C@_0O@DICBBEEI@date_and_time?$AA@+4
	mov	DWORD PTR [eax+4], edx
	mov	edx, DWORD PTR ??_C@_0O@DICBBEEI@date_and_time?$AA@+8
	mov	DWORD PTR [eax+8], edx
	mov	dx, WORD PTR ??_C@_0O@DICBBEEI@date_and_time?$AA@+12
	mov	WORD PTR [eax+12], dx
	mov	eax, ecx
	lea	esi, DWORD PTR [eax+1]
	npad	6
$LL1155@exprint_re:
	mov	dl, BYTE PTR [eax]
	inc	eax
	test	dl, dl
	jne	SHORT $LL1155@exprint_re
	sub	eax, esi
	pop	edi
	add	ecx, eax
	pop	esi
	mov	DWORD PTR _pos, ecx
	pop	ebx

; 3431 : 
; 3432 :          return;
; 3433 :      }
; 3434 :   return ; /* shouldn't happen */
; 3435 : } /* end exprint_recur */

	mov	ecx, DWORD PTR __$ArrayPad$[ebp]
	xor	ecx, ebp
	call	@__security_check_cookie@4
	mov	esp, ebp
	pop	ebp
	ret	0
$LN611@exprint_re:

; 881  :          return;
; 882  : 
; 883  :       case BREAK_NODE:
; 884  :          if ( node->op2.breakdepth > 1 )

	mov	ebx, DWORD PTR [ebx+136]
	cmp	ebx, 1
	jle	SHORT $LN610@exprint_re

; 885  :          sprintf(pos,"break %d",node->op2.breakdepth);

	push	ebx
	push	OFFSET ??_C@_08OOPHKIOJ@break?5?$CFd?$AA@
	push	ecx
	call	_sprintf
	mov	ecx, DWORD PTR _pos
	add	esp, 12					; 0000000cH
	jmp	SHORT $LN609@exprint_re
$LN610@exprint_re:

; 886  :          else strcat(pos,"break "); 

	lea	eax, DWORD PTR [ecx-1]
$LL1156@exprint_re:
	mov	dl, BYTE PTR [eax+1]
	inc	eax
	test	dl, dl
	jne	SHORT $LL1156@exprint_re
	mov	edx, DWORD PTR ??_C@_06DLBOLJLP@break?5?$AA@
	mov	DWORD PTR [eax], edx
	mov	dx, WORD PTR ??_C@_06DLBOLJLP@break?5?$AA@+4
	mov	WORD PTR [eax+4], dx
	mov	dl, BYTE PTR ??_C@_06DLBOLJLP@break?5?$AA@+6
	mov	BYTE PTR [eax+6], dl
$LN609@exprint_re:

; 887  :          pos += strlen(pos);

	mov	eax, ecx
	lea	esi, DWORD PTR [eax+1]
$LL1157@exprint_re:
	mov	dl, BYTE PTR [eax]
	inc	eax
	test	dl, dl
	jne	SHORT $LL1157@exprint_re
	sub	eax, esi
	pop	edi
	add	ecx, eax
	pop	esi
	mov	DWORD PTR _pos, ecx
	pop	ebx

; 3431 : 
; 3432 :          return;
; 3433 :      }
; 3434 :   return ; /* shouldn't happen */
; 3435 : } /* end exprint_recur */

	mov	ecx, DWORD PTR __$ArrayPad$[ebp]
	xor	ecx, ebp
	call	@__security_check_cookie@4
	mov	esp, ebp
	pop	ebp
	ret	0
$LN608@exprint_re:

; 888  :          return;
; 889  : 
; 890  :       case CONTINUE_NODE:
; 891  :          if ( node->op2.breakdepth > 1 )

	mov	ebx, DWORD PTR [ebx+136]
	cmp	ebx, 1
	jle	SHORT $LN607@exprint_re

; 892  :          sprintf(pos,"continue %d",node->op2.breakdepth);

	push	ebx
	push	OFFSET ??_C@_0M@PLJOCOHN@continue?5?$CFd?$AA@
	push	ecx
	call	_sprintf
	mov	ecx, DWORD PTR _pos
	add	esp, 12					; 0000000cH
	jmp	SHORT $LN606@exprint_re
$LN607@exprint_re:

; 893  :          else strcat(pos,"continue "); 

	lea	eax, DWORD PTR [ecx-1]
$LL1158@exprint_re:
	mov	dl, BYTE PTR [eax+1]
	inc	eax
	test	dl, dl
	jne	SHORT $LL1158@exprint_re
	mov	edx, DWORD PTR ??_C@_09PGLJMKEH@continue?5?$AA@
	mov	DWORD PTR [eax], edx
	mov	edx, DWORD PTR ??_C@_09PGLJMKEH@continue?5?$AA@+4
	mov	DWORD PTR [eax+4], edx
	mov	dx, WORD PTR ??_C@_09PGLJMKEH@continue?5?$AA@+8
	mov	WORD PTR [eax+8], dx
$LN606@exprint_re:

; 894  :          pos += strlen(pos);

	mov	eax, ecx
	lea	esi, DWORD PTR [eax+1]
$LL1159@exprint_re:
	mov	dl, BYTE PTR [eax]
	inc	eax
	test	dl, dl
	jne	SHORT $LL1159@exprint_re
	sub	eax, esi
	pop	edi
	add	ecx, eax
	pop	esi
	mov	DWORD PTR _pos, ecx
	pop	ebx

; 3431 : 
; 3432 :          return;
; 3433 :      }
; 3434 :   return ; /* shouldn't happen */
; 3435 : } /* end exprint_recur */

	mov	ecx, DWORD PTR __$ArrayPad$[ebp]
	xor	ecx, ebp
	call	@__security_check_cookie@4
	mov	esp, ebp
	pop	ebp
	ret	0
$LN605@exprint_re:

; 895  :          return;
; 896  : 
; 897  :       case HISTORY_NODE:
; 898  :          strcat(pos,"history "); pos += strlen(pos);

	lea	eax, DWORD PTR [ecx-1]
$LL1160@exprint_re:
	mov	dl, BYTE PTR [eax+1]
	inc	eax
	test	dl, dl
	jne	SHORT $LL1160@exprint_re
	mov	edx, DWORD PTR ??_C@_08GICKAJOK@history?5?$AA@
	mov	DWORD PTR [eax], edx
	mov	edx, DWORD PTR ??_C@_08GICKAJOK@history?5?$AA@+4
	mov	DWORD PTR [eax+4], edx
	mov	dl, BYTE PTR ??_C@_08GICKAJOK@history?5?$AA@+8
	mov	BYTE PTR [eax+8], dl
	mov	eax, ecx
	lea	esi, DWORD PTR [eax+1]
	npad	4
$LL1161@exprint_re:
	mov	dl, BYTE PTR [eax]
	inc	eax
	test	dl, dl
	jne	SHORT $LL1161@exprint_re
	sub	eax, esi
	pop	edi
	add	ecx, eax
	pop	esi
	mov	DWORD PTR _pos, ecx
	pop	ebx

; 3431 : 
; 3432 :          return;
; 3433 :      }
; 3434 :   return ; /* shouldn't happen */
; 3435 : } /* end exprint_recur */

	mov	ecx, DWORD PTR __$ArrayPad$[ebp]
	xor	ecx, ebp
	call	@__security_check_cookie@4
	mov	esp, ebp
	pop	ebp
	ret	0
$LN604@exprint_re:

; 899  :          return;
; 900  : 
; 901  :       case GET_TRANSFORM_EXPR_NODE:
; 902  :          strcat(pos,"transform_expr "); pos += strlen(pos);

	lea	eax, DWORD PTR [ecx-1]
$LL1162@exprint_re:
	mov	dl, BYTE PTR [eax+1]
	inc	eax
	test	dl, dl
	jne	SHORT $LL1162@exprint_re
	mov	edx, DWORD PTR ??_C@_0BA@OACEACLK@transform_expr?5?$AA@
	mov	DWORD PTR [eax], edx
	mov	edx, DWORD PTR ??_C@_0BA@OACEACLK@transform_expr?5?$AA@+4
	mov	DWORD PTR [eax+4], edx
	mov	edx, DWORD PTR ??_C@_0BA@OACEACLK@transform_expr?5?$AA@+8
	mov	DWORD PTR [eax+8], edx
	mov	edx, DWORD PTR ??_C@_0BA@OACEACLK@transform_expr?5?$AA@+12
	mov	DWORD PTR [eax+12], edx
	mov	eax, ecx
	lea	esi, DWORD PTR [eax+1]
$LL1163@exprint_re:
	mov	dl, BYTE PTR [eax]
	inc	eax
	test	dl, dl
	jne	SHORT $LL1163@exprint_re
	sub	eax, esi
	pop	edi
	add	ecx, eax
	pop	esi
	mov	DWORD PTR _pos, ecx
	pop	ebx

; 3431 : 
; 3432 :          return;
; 3433 :      }
; 3434 :   return ; /* shouldn't happen */
; 3435 : } /* end exprint_recur */

	mov	ecx, DWORD PTR __$ArrayPad$[ebp]
	xor	ecx, ebp
	call	@__security_check_cookie@4
	mov	esp, ebp
	pop	ebp
	ret	0
$LN603@exprint_re:

; 903  :          return;
; 904  : 
; 905  :       case WARNING_MESSAGES_NODE:
; 906  :          strcat(pos,"warning_messages "); pos += strlen(pos);

	lea	eax, DWORD PTR [ecx-1]
	npad	6
$LL1164@exprint_re:
	mov	dl, BYTE PTR [eax+1]
	inc	eax
	test	dl, dl
	jne	SHORT $LL1164@exprint_re
	mov	edx, DWORD PTR ??_C@_0BC@DILLGGAL@warning_messages?5?$AA@
	mov	DWORD PTR [eax], edx
	mov	edx, DWORD PTR ??_C@_0BC@DILLGGAL@warning_messages?5?$AA@+4
	mov	DWORD PTR [eax+4], edx
	mov	edx, DWORD PTR ??_C@_0BC@DILLGGAL@warning_messages?5?$AA@+8
	mov	DWORD PTR [eax+8], edx
	mov	edx, DWORD PTR ??_C@_0BC@DILLGGAL@warning_messages?5?$AA@+12
	mov	DWORD PTR [eax+12], edx
	mov	dx, WORD PTR ??_C@_0BC@DILLGGAL@warning_messages?5?$AA@+16
	mov	WORD PTR [eax+16], dx
	mov	eax, ecx
	lea	esi, DWORD PTR [eax+1]
	npad	5
$LL1165@exprint_re:
	mov	dl, BYTE PTR [eax]
	inc	eax
	test	dl, dl
	jne	SHORT $LL1165@exprint_re
	sub	eax, esi
	pop	edi
	add	ecx, eax
	pop	esi
	mov	DWORD PTR _pos, ecx
	pop	ebx

; 3431 : 
; 3432 :          return;
; 3433 :      }
; 3434 :   return ; /* shouldn't happen */
; 3435 : } /* end exprint_recur */

	mov	ecx, DWORD PTR __$ArrayPad$[ebp]
	xor	ecx, ebp
	call	@__security_check_cookie@4
	mov	esp, ebp
	pop	ebp
	ret	0
$LN602@exprint_re:

; 907  :          return;
; 908  : 
; 909  :       case DATAFILENAME_NODE:
; 910  :          strcat(pos,"datafilename "); pos += strlen(pos);

	lea	eax, DWORD PTR [ecx-1]
$LL1166@exprint_re:
	mov	dl, BYTE PTR [eax+1]
	inc	eax
	test	dl, dl
	jne	SHORT $LL1166@exprint_re
	mov	edx, DWORD PTR ??_C@_0O@CIMNNBLM@datafilename?5?$AA@
	mov	DWORD PTR [eax], edx
	mov	edx, DWORD PTR ??_C@_0O@CIMNNBLM@datafilename?5?$AA@+4
	mov	DWORD PTR [eax+4], edx
	mov	edx, DWORD PTR ??_C@_0O@CIMNNBLM@datafilename?5?$AA@+8
	mov	DWORD PTR [eax+8], edx
	mov	dx, WORD PTR ??_C@_0O@CIMNNBLM@datafilename?5?$AA@+12
	mov	WORD PTR [eax+12], dx
	mov	eax, ecx
	lea	esi, DWORD PTR [eax+1]
$LL1167@exprint_re:
	mov	dl, BYTE PTR [eax]
	inc	eax
	test	dl, dl
	jne	SHORT $LL1167@exprint_re
	sub	eax, esi
	pop	edi
	add	ecx, eax
	pop	esi
	mov	DWORD PTR _pos, ecx
	pop	ebx

; 3431 : 
; 3432 :          return;
; 3433 :      }
; 3434 :   return ; /* shouldn't happen */
; 3435 : } /* end exprint_recur */

	mov	ecx, DWORD PTR __$ArrayPad$[ebp]
	xor	ecx, ebp
	call	@__security_check_cookie@4
	mov	esp, ebp
	pop	ebp
	ret	0
$LN601@exprint_re:

; 911  :          return;
; 912  : 
; 913  :       case REPEAT_NODE:
; 914  :          exprint_recur(node+node->right,PREC_ARG);

	mov	eax, DWORD PTR [ebx+8]
	imul	eax, 168				; 000000a8H
	add	eax, ebx
	push	0
	push	eax
	call	_exprint_recur

; 915  :          nn = node + node->left;

	mov	eax, DWORD PTR [ebx+4]

; 916  :          *pos = ' '; pos++; *pos = 0;

	mov	ecx, DWORD PTR _pos
	imul	eax, 168				; 000000a8H
	mov	BYTE PTR [ecx], 32			; 00000020H
	inc	ecx
	add	eax, ebx
	mov	DWORD PTR _pos, ecx
	mov	BYTE PTR [ecx], 0

; 917  :          exprint_recur(nn+nn->left,PREC_ARG);

	mov	ecx, DWORD PTR [eax+4]
	imul	ecx, 168				; 000000a8H
	push	0
	add	ecx, eax
	push	ecx

; 918  :          return;

	jmp	$LN1658@exprint_re
$LN600@exprint_re:

; 919  : 
; 920  :       case EXPRLIST_NODE:
; 921  :          exprint_recur(node+node->left,PREC_ARG);

	mov	edx, DWORD PTR [ebx+4]
	imul	edx, 168				; 000000a8H
	add	edx, ebx
	push	0
	push	edx
	call	_exprint_recur
	add	esp, 8

; 922  :          if ( node->right )

	cmp	DWORD PTR [ebx+8], 0
	je	$LN730@exprint_re

; 923  :           { strcat(pos,", "); pos += 2;

	mov	eax, DWORD PTR _pos
	dec	eax
$LL1168@exprint_re:
	mov	cl, BYTE PTR [eax+1]
	inc	eax
	test	cl, cl
	jne	SHORT $LL1168@exprint_re
	mov	cx, WORD PTR ??_C@_02KEGNLNML@?0?5?$AA@
	add	DWORD PTR _pos, 2
	mov	WORD PTR [eax], cx
	mov	dl, BYTE PTR ??_C@_02KEGNLNML@?0?5?$AA@+2
	mov	BYTE PTR [eax+2], dl

; 924  :             exprint_recur(node+node->right,PREC_ARG);

	mov	eax, DWORD PTR [ebx+8]

; 1334 :          exprint_recur(node+node->left,PREC_ASSIGN);

	imul	eax, 168				; 000000a8H
	push	0
	add	eax, ebx
	push	eax

; 1335 :          break;

	jmp	$LN1652@exprint_re
$LN597@exprint_re:

; 930  :          return;
; 931  : 
; 932  :       case SPRINTFHEAD_NODE:
; 933  :       case PRESPRINTF_NODE:
; 934  :          sprintf(pos,"sprintf ");

	push	OFFSET ??_C@_08DDAFHHJG@sprintf?5?$AA@
	push	ecx
	call	_sprintf

; 935  :          pos += strlen(pos);

	mov	eax, DWORD PTR _pos
	add	esp, 8
	lea	edx, DWORD PTR [eax+1]
	npad	2
$LL1169@exprint_re:
	mov	cl, BYTE PTR [eax]
	inc	eax
	test	cl, cl
	jne	SHORT $LL1169@exprint_re
	sub	eax, edx
	add	DWORD PTR _pos, eax

; 936  :          if ( node->op1.string ) print_quote(node->op1.string);

	cmp	DWORD PTR [ebx+32], 0
	je	$LN596@exprint_re
$LN1675@exprint_re:
	mov	edx, DWORD PTR [ebx+32]
	push	edx
	call	_print_quote
	add	esp, 4
	pop	edi
	pop	esi
	pop	ebx

; 3431 : 
; 3432 :          return;
; 3433 :      }
; 3434 :   return ; /* shouldn't happen */
; 3435 : } /* end exprint_recur */

	mov	ecx, DWORD PTR __$ArrayPad$[ebp]
	xor	ecx, ebp
	call	@__security_check_cookie@4
	mov	esp, ebp
	pop	ebp
	ret	0
$LN594@exprint_re:

; 937  :          else exprint_recur(node+node->left,PREC_ARG);
; 938  :          return;
; 939  : 
; 940  :       case PREPRINTF_NODE:
; 941  :       case PRINTFHEAD_NODE:
; 942  :          sprintf(pos,"printf ");

	push	OFFSET ??_C@_07HJAAEDEB@printf?5?$AA@
	push	ecx
	call	_sprintf

; 943  :          pos += strlen(pos);

	mov	eax, DWORD PTR _pos
	add	esp, 8
	lea	edx, DWORD PTR [eax+1]
	npad	4
$LL1170@exprint_re:
	mov	cl, BYTE PTR [eax]
	inc	eax
	test	cl, cl
	jne	SHORT $LL1170@exprint_re
	sub	eax, edx
	add	DWORD PTR _pos, eax

; 944  :          if ( node->op1.string ) print_quote(node->op1.string);

	cmp	DWORD PTR [ebx+32], 0
	je	$LN593@exprint_re
$LN598@exprint_re:

; 925  :           }
; 926  :          return;
; 927  :      
; 928  :       case QUOTATION_NODE:
; 929  :          print_quote(node->op1.string);

	mov	ecx, DWORD PTR [ebx+32]
	push	ecx
	call	_print_quote
	add	esp, 4
	pop	edi
	pop	esi
	pop	ebx

; 3431 : 
; 3432 :          return;
; 3433 :      }
; 3434 :   return ; /* shouldn't happen */
; 3435 : } /* end exprint_recur */

	mov	ecx, DWORD PTR __$ArrayPad$[ebp]
	xor	ecx, ebp
	call	@__security_check_cookie@4
	mov	esp, ebp
	pop	ebp
	ret	0
$LN591@exprint_re:

; 945  :          else exprint_recur(node+node->left,PREC_ARG);
; 946  :          return;
; 947  : 
; 948  :       case ERRPRINTFHEAD_NODE:
; 949  :          sprintf(pos,"errprintf ");

	push	OFFSET ??_C@_0L@HKMPKJEI@errprintf?5?$AA@
	push	ecx
	call	_sprintf

; 950  :          pos += strlen(pos);

	mov	eax, DWORD PTR _pos
	add	esp, 8
	lea	edx, DWORD PTR [eax+1]
	npad	4
$LL1171@exprint_re:
	mov	cl, BYTE PTR [eax]
	inc	eax
	test	cl, cl
	jne	SHORT $LL1171@exprint_re
	sub	eax, edx
	add	DWORD PTR _pos, eax

; 951  :          if ( node->op1.string ) print_quote(node->op1.string);

	cmp	DWORD PTR [ebx+32], 0
	je	$LN590@exprint_re
	mov	eax, DWORD PTR [ebx+32]
	push	eax
	call	_print_quote
	add	esp, 4
	pop	edi
	pop	esi
	pop	ebx

; 3431 : 
; 3432 :          return;
; 3433 :      }
; 3434 :   return ; /* shouldn't happen */
; 3435 : } /* end exprint_recur */

	mov	ecx, DWORD PTR __$ArrayPad$[ebp]
	xor	ecx, ebp
	call	@__security_check_cookie@4
	mov	esp, ebp
	pop	ebp
	ret	0
$LN588@exprint_re:

; 952  :          else exprint_recur(node+node->left,PREC_ARG);
; 953  :          return;
; 954  : 
; 955  :       case BINARY_PRINTFHEAD_NODE:
; 956  :          sprintf(pos,"binary_printf ");

	push	OFFSET ??_C@_0P@EFNJCGJK@binary_printf?5?$AA@
	push	ecx
	call	_sprintf

; 957  :          pos += strlen(pos);

	mov	eax, DWORD PTR _pos
	add	esp, 8
	lea	edx, DWORD PTR [eax+1]
	npad	4
$LL1172@exprint_re:
	mov	cl, BYTE PTR [eax]
	inc	eax
	test	cl, cl
	jne	SHORT $LL1172@exprint_re
	sub	eax, edx
	add	DWORD PTR _pos, eax

; 958  :          if ( node->op1.string ) print_quote(node->op1.string);

	cmp	DWORD PTR [ebx+32], 0
	jne	$LN1675@exprint_re

; 1334 :          exprint_recur(node+node->left,PREC_ASSIGN);

	mov	eax, DWORD PTR [ebx+4]
	imul	eax, 168				; 000000a8H
	push	0
	add	eax, ebx
	push	eax

; 1335 :          break;

	jmp	$LN1652@exprint_re
$LN585@exprint_re:

; 959  :          else exprint_recur(node+node->left,PREC_ARG);
; 960  :          return;
; 961  : 
; 962  :       case PRINTF_NODE:
; 963  :       case BINARY_PRINTF_NODE:
; 964  :       case ERRPRINTF_NODE:
; 965  :       case SPRINTF_NODE:
; 966  :          exprint_recur(node+node->left,PREC_ARG);

	mov	ecx, DWORD PTR [ebx+4]
	imul	ecx, 168				; 000000a8H
	add	ecx, ebx
	push	0
	push	ecx
	call	_exprint_recur

; 967  :          strcat(pos++,",");

	mov	eax, DWORD PTR _pos
	add	esp, 8
	lea	edi, DWORD PTR [eax-1]
	inc	eax
	mov	DWORD PTR _pos, eax
$LL1173@exprint_re:
	mov	al, BYTE PTR [edi+1]
	inc	edi
	test	al, al
	jne	SHORT $LL1173@exprint_re
	mov	dx, WORD PTR ??_C@_01IHBHIGKO@?0?$AA@
	mov	WORD PTR [edi], dx

; 968  :          exprint_recur(node+node->right,PREC_ARG);

	mov	eax, DWORD PTR [ebx+8]

; 1334 :          exprint_recur(node+node->left,PREC_ASSIGN);

	imul	eax, 168				; 000000a8H
	push	0
	add	eax, ebx
	push	eax

; 1335 :          break;

	jmp	$LN1652@exprint_re
$LN584@exprint_re:

; 969  :          return;
; 970  : 
; 971  :       case STRPRINT_NODE: 
; 972  :       case PRINT_NODE: 
; 973  :       case EPRINT_NODE:
; 974  :          sprintf(pos,"print "); pos += strlen(pos);

	push	OFFSET ??_C@_06EBLGCNEC@print?5?$AA@
	push	ecx
	call	_sprintf
	mov	eax, DWORD PTR _pos
	add	esp, 8
	lea	edx, DWORD PTR [eax+1]
	npad	5
$LL1174@exprint_re:
	mov	cl, BYTE PTR [eax]
	inc	eax
	test	cl, cl
	jne	SHORT $LL1174@exprint_re
	sub	eax, edx
	add	DWORD PTR _pos, eax
$LN590@exprint_re:

; 1267 :          exprint_recur(node+node->left,prec_parent);

	mov	ecx, DWORD PTR [ebx+4]
	imul	ecx, 168				; 000000a8H
	push	0
	add	ecx, ebx
	push	ecx

; 1268 :          break;

	jmp	$LN1652@exprint_re
$LN583@exprint_re:

; 975  :          exprint_recur(node+node->left,PREC_ARG);
; 976  :          return;
; 977  :     
; 978  :       case PRINT_LETTER_NODE: 
; 979  :          sprintf(pos,"print %c ",node->op1.name_id); 

	mov	edx, DWORD PTR [ebx+32]
	push	edx
	push	OFFSET ??_C@_09DJMPBLGO@print?5?$CFc?5?$AA@
	push	ecx
	call	_sprintf

; 980  :          pos += strlen(pos);

	mov	eax, DWORD PTR _pos
	add	esp, 12					; 0000000cH
	lea	edx, DWORD PTR [eax+1]
	npad	4
$LL1175@exprint_re:
	mov	cl, BYTE PTR [eax]
	inc	eax
	test	cl, cl
	jne	SHORT $LL1175@exprint_re
	pop	edi
	sub	eax, edx
	add	DWORD PTR _pos, eax
	pop	esi
	pop	ebx

; 3431 : 
; 3432 :          return;
; 3433 :      }
; 3434 :   return ; /* shouldn't happen */
; 3435 : } /* end exprint_recur */

	mov	ecx, DWORD PTR __$ArrayPad$[ebp]
	xor	ecx, ebp
	call	@__security_check_cookie@4
	mov	esp, ebp
	pop	ebp
	ret	0
$LN582@exprint_re:

; 981  :          return;
; 982  :     
; 983  :       case PRINT_PROCEDURE_NODE: 
; 984  :       case PRINT_ARRAY_NODE: 
; 985  :          sprintf(pos,"print %s ",globals(node->op1.name_id)->name); 

	mov	ebx, DWORD PTR [ebx+32]
	mov	eax, ebx
	and	eax, -16777216				; ff000000H
	cmp	eax, 268435456				; 10000000H
	je	SHORT $LN815@exprint_re
	cmp	eax, 805306368				; 30000000H
	jne	SHORT $LN817@exprint_re
	and	ebx, 16777215				; 00ffffffH
	imul	ebx, 224				; 000000e0H
	add	ebx, DWORD PTR [esi]
	jmp	SHORT $LN816@exprint_re
$LN817@exprint_re:
	cmp	eax, 536870912				; 20000000H
	jne	SHORT $LN815@exprint_re
	mov	edx, DWORD PTR _web+5656
	and	ebx, 16777215				; 00ffffffH
	mov	ebx, DWORD PTR [edx+ebx*4]
	jmp	SHORT $LN816@exprint_re
$LN815@exprint_re:
	mov	eax, DWORD PTR _web+5652
	and	ebx, 16777215				; 00ffffffH
	lea	edx, DWORD PTR [eax+ebx*4]
	mov	eax, DWORD PTR _dymem
	mov	ebx, DWORD PTR [edx+eax]
$LN816@exprint_re:
	push	ebx
	push	OFFSET ??_C@_09CFOJLIBO@print?5?$CFs?5?$AA@
	push	ecx
	call	_sprintf

; 986  :          pos += strlen(pos);

	mov	eax, DWORD PTR _pos
	add	esp, 12					; 0000000cH
	lea	edx, DWORD PTR [eax+1]
	npad	3
$LL1176@exprint_re:
	mov	cl, BYTE PTR [eax]
	inc	eax
	test	cl, cl
	jne	SHORT $LL1176@exprint_re
	pop	edi
	sub	eax, edx
	add	DWORD PTR _pos, eax
	pop	esi
	pop	ebx

; 3431 : 
; 3432 :          return;
; 3433 :      }
; 3434 :   return ; /* shouldn't happen */
; 3435 : } /* end exprint_recur */

	mov	ecx, DWORD PTR __$ArrayPad$[ebp]
	xor	ecx, ebp
	call	@__security_check_cookie@4
	mov	esp, ebp
	pop	ebp
	ret	0
$LN581@exprint_re:

; 987  :          return;
; 988  :     
; 989  :       case PRINT_ARRAYPART_NODE: 
; 990  :          sprintf(pos,"print ");

	push	OFFSET ??_C@_06EBLGCNEC@print?5?$AA@
	push	ecx
	call	_sprintf

; 991  :          pos += strlen(pos);

	mov	eax, DWORD PTR _pos
	add	esp, 8
	lea	edx, DWORD PTR [eax+1]
$LL1177@exprint_re:
	mov	cl, BYTE PTR [eax]
	inc	eax
	test	cl, cl
	jne	SHORT $LL1177@exprint_re

; 1267 :          exprint_recur(node+node->left,prec_parent);

	mov	ecx, DWORD PTR [ebx+4]
	imul	ecx, 168				; 000000a8H
	sub	eax, edx
	add	DWORD PTR _pos, eax
	push	0
	add	ecx, ebx
	push	ecx

; 1268 :          break;

	jmp	$LN1652@exprint_re
$LN580@exprint_re:

; 992  :          exprint_recur(node+node->left,PREC_ARG);
; 993  :          return;
; 994  :     
; 995  :       case PRINT_VERTEXNORMAL_NODE:
; 996  :          sprintf(pos,"print ");

	push	OFFSET ??_C@_06EBLGCNEC@print?5?$AA@
	push	ecx
	call	_sprintf

; 997  :          pos += strlen(pos);

	mov	eax, DWORD PTR _pos
	add	esp, 8
	lea	edx, DWORD PTR [eax+1]
	npad	2
$LL1178@exprint_re:
	mov	cl, BYTE PTR [eax]
	inc	eax
	test	cl, cl
	jne	SHORT $LL1178@exprint_re
	sub	eax, edx

; 998  :          exprint_recur(node+node->left,PREC_ARG);

	mov	edx, DWORD PTR [ebx+4]
	add	DWORD PTR _pos, eax
	imul	edx, 168				; 000000a8H
	add	edx, ebx
	push	0
	push	edx
	call	_exprint_recur

; 999  :          strcat(pos,".vertexnormal");

	mov	edx, DWORD PTR _pos
	add	esp, 8
	lea	eax, DWORD PTR [edx-1]
	npad	2
$LL1179@exprint_re:
	mov	cl, BYTE PTR [eax+1]
	inc	eax
	test	cl, cl
	jne	SHORT $LL1179@exprint_re
	mov	ecx, DWORD PTR ??_C@_0O@FKNOAAMF@?4vertexnormal?$AA@
	mov	DWORD PTR [eax], ecx
	mov	ecx, DWORD PTR ??_C@_0O@FKNOAAMF@?4vertexnormal?$AA@+4
	mov	DWORD PTR [eax+4], ecx
	mov	ecx, DWORD PTR ??_C@_0O@FKNOAAMF@?4vertexnormal?$AA@+8
	mov	DWORD PTR [eax+8], ecx
	mov	cx, WORD PTR ??_C@_0O@FKNOAAMF@?4vertexnormal?$AA@+12
	mov	WORD PTR [eax+12], cx

; 1000 :          pos += strlen(pos);

	mov	eax, edx
	lea	esi, DWORD PTR [eax+1]
$LL1180@exprint_re:
	mov	cl, BYTE PTR [eax]
	inc	eax
	test	cl, cl
	jne	SHORT $LL1180@exprint_re
	sub	eax, esi
	pop	edi
	add	edx, eax
	pop	esi
	mov	DWORD PTR _pos, edx
	pop	ebx

; 3431 : 
; 3432 :          return;
; 3433 :      }
; 3434 :   return ; /* shouldn't happen */
; 3435 : } /* end exprint_recur */

	mov	ecx, DWORD PTR __$ArrayPad$[ebp]
	xor	ecx, ebp
	call	@__security_check_cookie@4
	mov	esp, ebp
	pop	ebp
	ret	0
$LN579@exprint_re:

; 1001 :          return;
; 1002 : 
; 1003 :       case PRINT_ATTR_ARRAY_NODE: 
; 1004 :          sprintf(pos,"print ");

	push	OFFSET ??_C@_06EBLGCNEC@print?5?$AA@
	push	ecx
	call	_sprintf

; 1005 :          pos += strlen(pos);

	mov	eax, DWORD PTR _pos
	add	esp, 8
	lea	edx, DWORD PTR [eax+1]
	npad	6
$LL1181@exprint_re:
	mov	cl, BYTE PTR [eax]
	inc	eax
	test	cl, cl
	jne	SHORT $LL1181@exprint_re
	sub	eax, edx

; 1006 :          exprint_recur(node+node->left,PREC_INDEX);

	mov	edx, DWORD PTR [ebx+4]
	add	DWORD PTR _pos, eax
	imul	edx, 168				; 000000a8H
	add	edx, ebx
	push	55					; 00000037H
	push	edx
	call	_exprint_recur

; 1007 :          sprintf(pos,".%s",EXTRAS(node->op2.eltype)[node->op3.extranum].name);

	mov	eax, DWORD PTR [ebx+136]
	mov	ecx, DWORD PTR [ebx+140]
	imul	eax, 112				; 00000070H
	mov	edx, DWORD PTR _web[eax+104]
	imul	ecx, 240				; 000000f0H
	mov	eax, DWORD PTR _pos
	add	edx, ecx
	add	edx, DWORD PTR _dymem
	push	edx
	push	OFFSET ??_C@_03KEMCFGNA@?4?$CFs?$AA@
	push	eax
	call	_sprintf

; 1008 :          pos += strlen(pos);

	mov	eax, DWORD PTR _pos
	add	esp, 20					; 00000014H
	lea	esi, DWORD PTR [eax+1]
$LL1182@exprint_re:
	mov	cl, BYTE PTR [eax]
	inc	eax
	test	cl, cl
	jne	SHORT $LL1182@exprint_re
	sub	eax, esi
	add	DWORD PTR _pos, eax

; 1009 :          if ( node->right )

	mov	eax, DWORD PTR [ebx+8]
	test	eax, eax
	je	$LN730@exprint_re

; 1334 :          exprint_recur(node+node->left,PREC_ASSIGN);

	imul	eax, 168				; 000000a8H
	push	55					; 00000037H
	add	eax, ebx
	push	eax

; 1335 :          break;

	jmp	$LN1652@exprint_re
$LN577@exprint_re:

; 1010 :            exprint_recur(node+node->right,PREC_INDEX);
; 1011 :          return;
; 1012 :     
; 1013 :       case PRINT_PERM_PROCEDURE_NODE: 
; 1014 :          sprintf(pos,"print %s ",perm_globals(node->op1.name_id)->name); 

	mov	edx, DWORD PTR [ebx+32]
	mov	eax, DWORD PTR _web+5656
	and	edx, 16777215				; 00ffffffH
	mov	edx, DWORD PTR [eax+edx*4]
	push	edx
	push	OFFSET ??_C@_09CFOJLIBO@print?5?$CFs?5?$AA@
	push	ecx
	call	_sprintf

; 1015 :          pos += strlen(pos);

	mov	eax, DWORD PTR _pos
	add	esp, 12					; 0000000cH
	lea	edx, DWORD PTR [eax+1]
$LL1183@exprint_re:
	mov	cl, BYTE PTR [eax]
	inc	eax
	test	cl, cl
	jne	SHORT $LL1183@exprint_re
	pop	edi
	sub	eax, edx
	add	DWORD PTR _pos, eax
	pop	esi
	pop	ebx

; 3431 : 
; 3432 :          return;
; 3433 :      }
; 3434 :   return ; /* shouldn't happen */
; 3435 : } /* end exprint_recur */

	mov	ecx, DWORD PTR __$ArrayPad$[ebp]
	xor	ecx, ebp
	call	@__security_check_cookie@4
	mov	esp, ebp
	pop	ebp
	ret	0
$LN576@exprint_re:

; 1016 :          return;
; 1017 :     
; 1018 :       case EXPRINT_PROCEDURE_NODE: 
; 1019 :          sprintf(pos,"exprint %s ",globals(node->op1.name_id)->name); 

	mov	ebx, DWORD PTR [ebx+32]
	mov	eax, ebx
	and	eax, -16777216				; ff000000H
	cmp	eax, 268435456				; 10000000H
	je	SHORT $LN821@exprint_re
	cmp	eax, 805306368				; 30000000H
	jne	SHORT $LN823@exprint_re
	and	ebx, 16777215				; 00ffffffH
	imul	ebx, 224				; 000000e0H
	add	ebx, DWORD PTR [esi]
	jmp	SHORT $LN822@exprint_re
$LN823@exprint_re:
	cmp	eax, 536870912				; 20000000H
	jne	SHORT $LN821@exprint_re
	mov	edx, DWORD PTR _web+5656
	and	ebx, 16777215				; 00ffffffH
	mov	ebx, DWORD PTR [edx+ebx*4]
	jmp	SHORT $LN822@exprint_re
$LN821@exprint_re:
	mov	eax, DWORD PTR _web+5652
	and	ebx, 16777215				; 00ffffffH
	lea	edx, DWORD PTR [eax+ebx*4]
	mov	eax, DWORD PTR _dymem
	mov	ebx, DWORD PTR [edx+eax]
$LN822@exprint_re:
	push	ebx
	push	OFFSET ??_C@_0M@EJKGLOKJ@exprint?5?$CFs?5?$AA@
	push	ecx
	call	_sprintf

; 1020 :          pos += strlen(pos);

	mov	eax, DWORD PTR _pos
	add	esp, 12					; 0000000cH
	lea	edx, DWORD PTR [eax+1]
$LL1184@exprint_re:
	mov	cl, BYTE PTR [eax]
	inc	eax
	test	cl, cl
	jne	SHORT $LL1184@exprint_re
	pop	edi
	sub	eax, edx
	add	DWORD PTR _pos, eax
	pop	esi
	pop	ebx

; 3431 : 
; 3432 :          return;
; 3433 :      }
; 3434 :   return ; /* shouldn't happen */
; 3435 : } /* end exprint_recur */

	mov	ecx, DWORD PTR __$ArrayPad$[ebp]
	xor	ecx, ebp
	call	@__security_check_cookie@4
	mov	esp, ebp
	pop	ebp
	ret	0
$LN572@exprint_re:

; 1033 :            }
; 1034 :          else bracket_depth--;
; 1035 :          return;
; 1036 : 
; 1037 :       case IF_NODE:
; 1038 :          exprint_recur(node+node->left,prec_parent); /* IF part */

	mov	ecx, DWORD PTR [ebx+4]
	mov	esi, DWORD PTR _prec_parent$[ebp]
	imul	ecx, 168				; 000000a8H
	add	ecx, ebx
	push	esi
	push	ecx
	call	_exprint_recur

; 1039 :          exprint_recur(node+node->right,prec_parent); /* command */

	mov	edx, DWORD PTR [ebx+8]
	imul	edx, 168				; 000000a8H
	push	esi
	add	edx, ebx
	push	edx

; 1040 :          return;

	jmp	$LN1658@exprint_re
$LN571@exprint_re:

; 1041 :          
; 1042 :       case IFTEST_NODE:
; 1043 :          sprintf(pos,"if ( "); pos += strlen(pos);

	push	OFFSET ??_C@_05HEFMBOOH@if?5?$CI?5?$AA@
	push	ecx
	call	_sprintf
	mov	eax, DWORD PTR _pos
	add	esp, 8
	lea	edx, DWORD PTR [eax+1]
	npad	3
$LL1185@exprint_re:
	mov	cl, BYTE PTR [eax]
	inc	eax
	test	cl, cl
	jne	SHORT $LL1185@exprint_re

; 1044 :          exprint_recur(node+node->left,prec_parent); /* expr */

	mov	ecx, DWORD PTR [ebx+4]
	imul	ecx, 168				; 000000a8H
	sub	eax, edx
	add	DWORD PTR _pos, eax
	mov	eax, DWORD PTR _prec_parent$[ebp]
	push	eax
	add	ecx, ebx
	push	ecx
	call	_exprint_recur

; 1045 :          sprintf(pos," ) then "); pos += strlen(pos);

	mov	edx, DWORD PTR _pos
	push	OFFSET ??_C@_08FAEHJPPB@?5?$CJ?5then?5?$AA@
	push	edx
	call	_sprintf
	mov	eax, DWORD PTR _pos
	add	esp, 16					; 00000010H
	lea	edx, DWORD PTR [eax+1]
$LL1186@exprint_re:
	mov	cl, BYTE PTR [eax]
	inc	eax
	test	cl, cl
	jne	SHORT $LL1186@exprint_re

; 1046 :          bracket_depth++;

	inc	DWORD PTR _bracket_depth
	sub	eax, edx
	add	DWORD PTR _pos, eax

; 1047 :          newline();

	call	_newline
	pop	edi
	pop	esi
	pop	ebx

; 3431 : 
; 3432 :          return;
; 3433 :      }
; 3434 :   return ; /* shouldn't happen */
; 3435 : } /* end exprint_recur */

	mov	ecx, DWORD PTR __$ArrayPad$[ebp]
	xor	ecx, ebp
	call	@__security_check_cookie@4
	mov	esp, ebp
	pop	ebp
	ret	0
$LN570@exprint_re:

; 1048 :          return;
; 1049 : 
; 1050 :       case WHILE_END_NODE:
; 1051 :          exprint_recur(node+node->left,prec_parent); /* test part */

	mov	eax, DWORD PTR [ebx+4]
	mov	edi, DWORD PTR _prec_parent$[ebp]
	imul	eax, 168				; 000000a8H
	add	eax, ebx
	push	edi
	push	eax
	call	_exprint_recur

; 1052 :          sprintf(pos," do "); pos += strlen(pos);

	mov	ecx, DWORD PTR _pos
	push	OFFSET ??_C@_04JKFHOPAN@?5do?5?$AA@
	push	ecx
	call	_sprintf
	mov	esi, DWORD PTR _pos
	mov	eax, esi
	add	esp, 16					; 00000010H
	lea	edx, DWORD PTR [eax+1]
	npad	1
$LL1187@exprint_re:
	mov	cl, BYTE PTR [eax]
	inc	eax
	test	cl, cl
	jne	SHORT $LL1187@exprint_re

; 1053 :          bracket_depth++;

	inc	DWORD PTR _bracket_depth
	sub	eax, edx
	add	esi, eax

; 1054 :          if ( node->right )

	cmp	DWORD PTR [ebx+8], 0
	mov	DWORD PTR _pos, esi
	je	SHORT $LN569@exprint_re

; 1055 :          { newline();

	call	_newline

; 1056 :            exprint_recur(node+node->right,prec_parent); /* command */

	mov	edx, DWORD PTR [ebx+8]
	imul	edx, 168				; 000000a8H
	add	edx, ebx
	push	edi
	push	edx
	call	_exprint_recur
	add	esp, 8

; 1059 :          bracket_depth--;

	dec	DWORD PTR _bracket_depth
	pop	edi
	pop	esi
	pop	ebx

; 3431 : 
; 3432 :          return;
; 3433 :      }
; 3434 :   return ; /* shouldn't happen */
; 3435 : } /* end exprint_recur */

	mov	ecx, DWORD PTR __$ArrayPad$[ebp]
	xor	ecx, ebp
	call	@__security_check_cookie@4
	mov	esp, ebp
	pop	ebp
	ret	0
$LN569@exprint_re:

; 1057 :          } else
; 1058 :          { strcat(pos," ;"); pos += strlen(pos); }

	lea	eax, DWORD PTR [esi-1]
$LL1188@exprint_re:
	mov	cl, BYTE PTR [eax+1]
	inc	eax
	test	cl, cl
	jne	SHORT $LL1188@exprint_re
	mov	cx, WORD PTR ??_C@_02EEBIPDF@?5?$DL?$AA@
	mov	WORD PTR [eax], cx
	mov	dl, BYTE PTR ??_C@_02EEBIPDF@?5?$DL?$AA@+2
	mov	BYTE PTR [eax+2], dl
	mov	eax, esi
	lea	edx, DWORD PTR [eax+1]
$LL1189@exprint_re:
	mov	cl, BYTE PTR [eax]
	inc	eax
	test	cl, cl
	jne	SHORT $LL1189@exprint_re
	sub	eax, edx
	add	esi, eax
	mov	DWORD PTR _pos, esi
$LN568@exprint_re:

; 1059 :          bracket_depth--;

	dec	DWORD PTR _bracket_depth
	pop	edi
	pop	esi
	pop	ebx

; 3431 : 
; 3432 :          return;
; 3433 :      }
; 3434 :   return ; /* shouldn't happen */
; 3435 : } /* end exprint_recur */

	mov	ecx, DWORD PTR __$ArrayPad$[ebp]
	xor	ecx, ebp
	call	@__security_check_cookie@4
	mov	esp, ebp
	pop	ebp
	ret	0
$LN567@exprint_re:

; 1060 :          return;
; 1061 : 
; 1062 :       case WHILE_TOP_NODE:
; 1063 :          sprintf(pos,"while ("); pos += strlen(pos);

	push	OFFSET ??_C@_07JOMAJBDI@while?5?$CI?$AA@
	push	ecx
	call	_sprintf
	mov	eax, DWORD PTR _pos
	add	esp, 8
	lea	edx, DWORD PTR [eax+1]
	npad	1
$LL1190@exprint_re:
	mov	cl, BYTE PTR [eax]
	inc	eax
	test	cl, cl
	jne	SHORT $LL1190@exprint_re
	sub	eax, edx
	add	DWORD PTR _pos, eax

; 1064 :          exprint_recur(node+node->left,PREC_ARG); /* expr */

	mov	eax, DWORD PTR [ebx+4]
	imul	eax, 168				; 000000a8H
	add	eax, ebx
	push	0
	push	eax
	call	_exprint_recur

; 1065 :          strcat(pos,") "); pos += strlen(pos);

	mov	edx, DWORD PTR _pos
	add	esp, 8
	lea	eax, DWORD PTR [edx-1]
	npad	2
$LL1191@exprint_re:
	mov	cl, BYTE PTR [eax+1]
	inc	eax
	test	cl, cl
	jne	SHORT $LL1191@exprint_re
	mov	cx, WORD PTR ??_C@_02KCKGHPCA@?$CJ?5?$AA@
	mov	WORD PTR [eax], cx
	mov	cl, BYTE PTR ??_C@_02KCKGHPCA@?$CJ?5?$AA@+2
	mov	BYTE PTR [eax+2], cl
	mov	eax, edx
	lea	esi, DWORD PTR [eax+1]
$LL1192@exprint_re:
	mov	cl, BYTE PTR [eax]
	inc	eax
	test	cl, cl
	jne	SHORT $LL1192@exprint_re
	sub	eax, esi
	pop	edi
	add	edx, eax
	pop	esi
	mov	DWORD PTR _pos, edx
	pop	ebx

; 3431 : 
; 3432 :          return;
; 3433 :      }
; 3434 :   return ; /* shouldn't happen */
; 3435 : } /* end exprint_recur */

	mov	ecx, DWORD PTR __$ArrayPad$[ebp]
	xor	ecx, ebp
	call	@__security_check_cookie@4
	mov	esp, ebp
	pop	ebp
	ret	0
$LN566@exprint_re:

; 1066 :          return;
; 1067 : 
; 1068 :       case DO_TOP_NODE:
; 1069 :          exprint_recur(node+node->right,prec_parent); /* command */

	mov	eax, DWORD PTR [ebx+8]
	mov	edx, DWORD PTR _prec_parent$[ebp]

; 1334 :          exprint_recur(node+node->left,PREC_ASSIGN);

	imul	eax, 168				; 000000a8H
	push	edx
	add	eax, ebx
	push	eax

; 1335 :          break;

	jmp	$LN1652@exprint_re
$LN565@exprint_re:

; 1070 :          return;
; 1071 : 
; 1072 :       case DO_END_NODE:
; 1073 :          sprintf(pos,"do "); pos += strlen(pos);

	push	OFFSET ??_C@_03LMPAOIAI@do?5?$AA@
	push	ecx
	call	_sprintf
	mov	eax, DWORD PTR _pos
	add	esp, 8
	lea	edx, DWORD PTR [eax+1]
	npad	3
$LL1193@exprint_re:
	mov	cl, BYTE PTR [eax]
	inc	eax
	test	cl, cl
	jne	SHORT $LL1193@exprint_re
	sub	eax, edx
	add	DWORD PTR _pos, eax

; 1074 :          bracket_depth++;

	mov	esi, 1
	add	DWORD PTR _bracket_depth, esi

; 1075 :          newline();

	call	_newline

; 1076 :          exprint_recur(node+node->left,prec_parent); /* command */

	mov	edx, DWORD PTR [ebx+4]
	mov	ecx, DWORD PTR _prec_parent$[ebp]
	imul	edx, 168				; 000000a8H
	push	ecx
	add	edx, ebx
	push	edx
	call	_exprint_recur

; 1077 :          bracket_depth--;

	sub	DWORD PTR _bracket_depth, esi

; 1078 :          newline();

	call	_newline

; 1079 :          sprintf(pos," while ("); pos += strlen(pos);

	mov	eax, DWORD PTR _pos
	push	OFFSET ??_C@_08JPBKNIFM@?5while?5?$CI?$AA@
	push	eax
	call	_sprintf
	mov	eax, DWORD PTR _pos
	add	esp, 16					; 00000010H
	lea	esi, DWORD PTR [eax+1]
	npad	6
$LL1194@exprint_re:
	mov	cl, BYTE PTR [eax]
	inc	eax
	test	cl, cl
	jne	SHORT $LL1194@exprint_re

; 1080 :          exprint_recur(node+node->right,PREC_ARG); /* expr */

	mov	ecx, DWORD PTR [ebx+8]
	imul	ecx, 168				; 000000a8H
	add	ecx, ebx
	sub	eax, esi
	add	DWORD PTR _pos, eax
	push	0
	push	ecx
	call	_exprint_recur

; 1081 :          strcat(pos,") "); pos += strlen(pos);

	mov	edx, DWORD PTR _pos
	add	esp, 8
	lea	eax, DWORD PTR [edx-1]
	npad	2
$LL1195@exprint_re:
	mov	cl, BYTE PTR [eax+1]
	inc	eax
	test	cl, cl
	jne	SHORT $LL1195@exprint_re
	mov	cx, WORD PTR ??_C@_02KCKGHPCA@?$CJ?5?$AA@
	mov	WORD PTR [eax], cx
	mov	cl, BYTE PTR ??_C@_02KCKGHPCA@?$CJ?5?$AA@+2
	mov	BYTE PTR [eax+2], cl
	mov	eax, edx
	lea	esi, DWORD PTR [eax+1]
$LL1196@exprint_re:
	mov	cl, BYTE PTR [eax]
	inc	eax
	test	cl, cl
	jne	SHORT $LL1196@exprint_re
	sub	eax, esi
	pop	edi
	add	edx, eax
	pop	esi
	mov	DWORD PTR _pos, edx
	pop	ebx

; 3431 : 
; 3432 :          return;
; 3433 :      }
; 3434 :   return ; /* shouldn't happen */
; 3435 : } /* end exprint_recur */

	mov	ecx, DWORD PTR __$ArrayPad$[ebp]
	xor	ecx, ebp
	call	@__security_check_cookie@4
	mov	esp, ebp
	pop	ebp
	ret	0
$LN564@exprint_re:

; 1082 :          return;
; 1083 : 
; 1084 :       case FOR_END_NODE:
; 1085 :          sprintf(pos,"for ( "); pos += strlen(pos);

	push	OFFSET ??_C@_06PDKNMLLK@for?5?$CI?5?$AA@
	push	ecx
	call	_sprintf
	mov	eax, DWORD PTR _pos
	add	esp, 8
	lea	edx, DWORD PTR [eax+1]
$LL1197@exprint_re:
	mov	cl, BYTE PTR [eax]
	inc	eax
	test	cl, cl
	jne	SHORT $LL1197@exprint_re
	sub	eax, edx

; 1086 :          exprint_recur(node+node->left,PREC_ARG); /* FOR_TOP_ */

	mov	edx, DWORD PTR [ebx+4]
	add	DWORD PTR _pos, eax
