; Listing generated by Microsoft (R) Optimizing Compiler Version 16.00.40219.01 

	TITLE	C:\levolver\yonkang-sefit\levolver\ev_ogl\GRAPHGEN.C
	.686P
	.XMM
	include listing.inc
	.model	flat

INCLUDELIB LIBCMT
INCLUDELIB OLDNAMES

PUBLIC	_set_attr
EXTRN	_web:BYTE
; Function compile flags: /Ogtp
; File c:\levolver\yonkang-sefit\levolver\ev_ogl\inline.h
;	COMDAT _set_attr
_TEXT	SEGMENT
_id$ = 8						; size = 4
_attrib$ = 12						; size = 8
_set_attr PROC						; COMDAT

; 21   : {

	push	ebp
	mov	ebp, esp

; 22   :   elptr(id)->attr |= attrib;

	mov	eax, DWORD PTR _id$[ebp]
	mov	ecx, eax
	shr	ecx, 29					; 0000001dH
	imul	ecx, 112				; 00000070H
	mov	edx, DWORD PTR _web[ecx+12]
	mov	ecx, DWORD PTR _attrib$[ebp]
	and	eax, 134217727				; 07ffffffH
	mov	eax, DWORD PTR [edx+eax*4]
	mov	edx, DWORD PTR _attrib$[ebp+4]
	or	DWORD PTR [eax+8], ecx
	or	DWORD PTR [eax+12], edx

; 23   : }

	pop	ebp
	ret	0
_set_attr ENDP
_TEXT	ENDS
PUBLIC	_unset_attr
; Function compile flags: /Ogtp
;	COMDAT _unset_attr
_TEXT	SEGMENT
_id$ = 8						; size = 4
_attrib$ = 12						; size = 8
_unset_attr PROC					; COMDAT

; 28   : {

	push	ebp
	mov	ebp, esp

; 29   :   elptr(id)->attr &= ~attrib;

	mov	eax, DWORD PTR _id$[ebp]
	mov	ecx, eax
	shr	ecx, 29					; 0000001dH
	imul	ecx, 112				; 00000070H
	mov	edx, DWORD PTR _web[ecx+12]
	mov	ecx, DWORD PTR _attrib$[ebp]
	and	eax, 134217727				; 07ffffffH
	mov	eax, DWORD PTR [edx+eax*4]
	mov	edx, DWORD PTR _attrib$[ebp+4]
	not	ecx
	and	DWORD PTR [eax+8], ecx
	not	edx
	and	DWORD PTR [eax+12], edx

; 30   : }

	pop	ebp
	ret	0
_unset_attr ENDP
_TEXT	ENDS
PUBLIC	_get_fe_edge
; Function compile flags: /Ogtp
;	COMDAT _get_fe_edge
_TEXT	SEGMENT
_fe_id$ = 8						; size = 4
_get_fe_edge PROC					; COMDAT

; 43   : {

	push	ebp
	mov	ebp, esp

; 44   :   edge_id e_id;
; 45   :     
; 46   :   e_id = feptr(fe_id)->fe_edge_id;

	mov	eax, DWORD PTR _fe_id$[ebp]

; 47   : 
; 48   :   /*
; 49   :   if ( inverted(fe_id) ) invert(e_id);
; 50   :   return e_id;
; 51   :   */
; 52   :   
; 53   :   return same_sign(e_id,fe_id);

	mov	edx, DWORD PTR _web+460
	mov	ecx, eax
	and	ecx, 134217727				; 07ffffffH
	mov	ecx, DWORD PTR [edx+ecx*4]
	and	eax, 134217728				; 08000000H
	xor	eax, DWORD PTR [ecx+20]

; 54   : }

	pop	ebp
	ret	0
_get_fe_edge ENDP
_TEXT	ENDS
PUBLIC	_get_fe_facet
EXTRN	_NULLFACET:DWORD
; Function compile flags: /Ogtp
;	COMDAT _get_fe_facet
_TEXT	SEGMENT
_fe_id$ = 8						; size = 4
_get_fe_facet PROC					; COMDAT

; 58   : {

	push	ebp
	mov	ebp, esp

; 59   :   facet_id f_id;
; 60   :   
; 61   :   if ( !valid_id(fe_id) ) return NULLFACET;

	mov	ecx, DWORD PTR _fe_id$[ebp]
	test	ecx, 268435456				; 10000000H
	jne	SHORT $LN2@get_fe_fac
	mov	eax, DWORD PTR _NULLFACET

; 64   :   return f_id;
; 65   : }

	pop	ebp
	ret	0
$LN2@get_fe_fac:

; 62   :   f_id = feptr(fe_id)->fe_facet_id;

	mov	edx, DWORD PTR _web+460
	mov	eax, ecx
	and	eax, 134217727				; 07ffffffH
	mov	eax, DWORD PTR [edx+eax*4]
	mov	eax, DWORD PTR [eax+24]

; 63   :   if ( inverted(fe_id) ) invert(f_id);

	test	ecx, 134217728				; 08000000H
	je	SHORT $LN3@get_fe_fac
	xor	eax, 134217728				; 08000000H
$LN3@get_fe_fac:

; 64   :   return f_id;
; 65   : }

	pop	ebp
	ret	0
_get_fe_facet ENDP
_TEXT	ENDS
PUBLIC	_get_prev_edge
; Function compile flags: /Ogtp
;	COMDAT _get_prev_edge
_TEXT	SEGMENT
_fe_id$ = 8						; size = 4
_get_prev_edge PROC					; COMDAT

; 69   : {

	push	ebp
	mov	ebp, esp

; 70   :   if ( inverted(fe_id) ) return inverse_id(feptr(fe_id)->nextedge[1]);

	mov	eax, DWORD PTR _fe_id$[ebp]
	mov	ecx, DWORD PTR _web+460
	test	eax, 134217728				; 08000000H
	je	SHORT $LN2@get_prev_e
	and	eax, 134217727				; 07ffffffH
	mov	edx, DWORD PTR [ecx+eax*4]
	mov	eax, DWORD PTR [edx+32]
	xor	eax, 134217728				; 08000000H

; 72   : }

	pop	ebp
	ret	0
$LN2@get_prev_e:

; 71   :   else return feptr(fe_id)->nextedge[0];

	and	eax, 134217727				; 07ffffffH
	mov	edx, DWORD PTR [ecx+eax*4]
	mov	eax, DWORD PTR [edx+28]

; 72   : }

	pop	ebp
	ret	0
_get_prev_edge ENDP
_TEXT	ENDS
PUBLIC	_get_next_edge
; Function compile flags: /Ogtp
;	COMDAT _get_next_edge
_TEXT	SEGMENT
_fe_id$ = 8						; size = 4
_get_next_edge PROC					; COMDAT

; 76   : {

	push	ebp
	mov	ebp, esp

; 77   :   if ( inverted(fe_id) ) return inverse_id(feptr(fe_id)->nextedge[0]);

	mov	eax, DWORD PTR _fe_id$[ebp]
	mov	ecx, DWORD PTR _web+460
	test	eax, 134217728				; 08000000H
	je	SHORT $LN2@get_next_e
	and	eax, 134217727				; 07ffffffH
	mov	edx, DWORD PTR [ecx+eax*4]
	mov	eax, DWORD PTR [edx+28]
	xor	eax, 134217728				; 08000000H

; 79   : }

	pop	ebp
	ret	0
$LN2@get_next_e:

; 78   :   else return feptr(fe_id)->nextedge[1];

	and	eax, 134217727				; 07ffffffH
	mov	edx, DWORD PTR [ecx+eax*4]
	mov	eax, DWORD PTR [edx+32]

; 79   : }

	pop	ebp
	ret	0
_get_next_edge ENDP
_TEXT	ENDS
PUBLIC	_get_prev_facet
; Function compile flags: /Ogtp
;	COMDAT _get_prev_facet
_TEXT	SEGMENT
_fe_id$ = 8						; size = 4
_get_prev_facet PROC					; COMDAT

; 83   : {

	push	ebp
	mov	ebp, esp

; 84   :   if ( inverted(fe_id) ) 

	mov	eax, DWORD PTR _fe_id$[ebp]

; 85   :     return inverse_id(feptr(fe_id)->nextfacet[1]);

	mov	ecx, DWORD PTR _web+460
	test	eax, 134217728				; 08000000H
	je	SHORT $LN2@get_prev_f
	and	eax, 134217727				; 07ffffffH
	mov	edx, DWORD PTR [ecx+eax*4]
	mov	eax, DWORD PTR [edx+40]
	xor	eax, 134217728				; 08000000H

; 88   : }

	pop	ebp
	ret	0
$LN2@get_prev_f:

; 86   :   else 
; 87   :     return feptr(fe_id)->nextfacet[0];

	and	eax, 134217727				; 07ffffffH
	mov	edx, DWORD PTR [ecx+eax*4]
	mov	eax, DWORD PTR [edx+36]

; 88   : }

	pop	ebp
	ret	0
_get_prev_facet ENDP
_TEXT	ENDS
PUBLIC	_get_next_facet
; Function compile flags: /Ogtp
;	COMDAT _get_next_facet
_TEXT	SEGMENT
_fe_id$ = 8						; size = 4
_get_next_facet PROC					; COMDAT

; 92   : {

	push	ebp
	mov	ebp, esp

; 93   :   if ( inverted(fe_id) ) 

	mov	eax, DWORD PTR _fe_id$[ebp]

; 94   :     return inverse_id(feptr(fe_id)->nextfacet[0]);

	mov	ecx, DWORD PTR _web+460
	test	eax, 134217728				; 08000000H
	je	SHORT $LN2@get_next_f
	and	eax, 134217727				; 07ffffffH
	mov	edx, DWORD PTR [ecx+eax*4]
	mov	eax, DWORD PTR [edx+36]
	xor	eax, 134217728				; 08000000H

; 97   : }

	pop	ebp
	ret	0
$LN2@get_next_f:

; 95   :   else 
; 96   :     return feptr(fe_id)->nextfacet[1];

	and	eax, 134217727				; 07ffffffH
	mov	edx, DWORD PTR [ecx+eax*4]
	mov	eax, DWORD PTR [edx+40]

; 97   : }

	pop	ebp
	ret	0
_get_next_facet ENDP
_TEXT	ENDS
PUBLIC	_get_edge_wrap
EXTRN	_sym_inverse:DWORD
EXTRN	_dymem:DWORD
; Function compile flags: /Ogtp
;	COMDAT _get_edge_wrap
_TEXT	SEGMENT
_e_id$ = 8						; size = 4
_get_edge_wrap PROC					; COMDAT

; 163  : {

	push	ebp
	mov	ebp, esp

; 164  :   WRAPTYPE wrap = *EINT(e_id,E_WRAP_ATTR) ;

	mov	ecx, DWORD PTR _e_id$[ebp]
	mov	edx, DWORD PTR _web+124
	mov	eax, ecx
	and	eax, 134217727				; 07ffffffH
	mov	eax, DWORD PTR [edx+eax*4]
	mov	edx, DWORD PTR _web+216
	push	esi
	mov	esi, DWORD PTR _dymem
	mov	edx, DWORD PTR [edx+esi+784]
	mov	eax, DWORD PTR [eax+edx]
	pop	esi

; 165  :   return    ( inverted(e_id) ? (*sym_inverse)(wrap) : wrap );

	test	ecx, 134217728				; 08000000H
	je	SHORT $LN4@get_edge_w
	push	eax
	call	DWORD PTR _sym_inverse
	add	esp, 4
$LN4@get_edge_w:

; 166  : }

	pop	ebp
	ret	0
_get_edge_wrap ENDP
_TEXT	ENDS
PUBLIC	_get_edge_fe
; Function compile flags: /Ogtp
;	COMDAT _get_edge_fe
_TEXT	SEGMENT
_e_id$ = 8						; size = 4
_get_edge_fe PROC					; COMDAT

; 179  : {   struct edge *ep;

	push	ebp
	mov	ebp, esp

; 180  :     facetedge_id fe;
; 181  : 
; 182  :  	ep = eptr(e_id);

	mov	ecx, DWORD PTR _e_id$[ebp]
	mov	edx, DWORD PTR _web+124
	mov	eax, ecx
	and	eax, 134217727				; 07ffffffH
	mov	eax, DWORD PTR [edx+eax*4]

; 183  :     if ( !ep ) return NULLID;

	test	eax, eax
	jne	SHORT $LN2@get_edge_f

; 186  :     return fe;
; 187  : }

	pop	ebp
	ret	0
$LN2@get_edge_f:

; 184  :     fe = ep->fe_id; 

	mov	eax, DWORD PTR [eax+28]

; 185  :     if ( inverted(e_id) ) invert(fe);

	test	ecx, 134217728				; 08000000H
	je	SHORT $LN3@get_edge_f
	xor	eax, 134217728				; 08000000H
$LN3@get_edge_f:

; 186  :     return fe;
; 187  : }

	pop	ebp
	ret	0
_get_edge_fe ENDP
_TEXT	ENDS
PUBLIC	_get_edge_tailv
; Function compile flags: /Ogtp
;	COMDAT _get_edge_tailv
_TEXT	SEGMENT
_e_id$ = 8						; size = 4
_get_edge_tailv PROC					; COMDAT

; 191  : {

	push	ebp
	mov	ebp, esp

; 192  :   if ( inverted(e_id) )

	mov	eax, DWORD PTR _e_id$[ebp]

; 193  :      return get_edge_vertices(e_id)[web.headvnum];

	mov	ecx, DWORD PTR _web+124
	test	eax, 134217728				; 08000000H
	je	SHORT $LN2@get_edge_t
	and	eax, 134217727				; 07ffffffH
	mov	edx, DWORD PTR [ecx+eax*4]
	mov	eax, DWORD PTR _web+216
	mov	ecx, DWORD PTR _dymem
	add	edx, DWORD PTR [eax+ecx+304]
	mov	eax, DWORD PTR _web+636
	mov	eax, DWORD PTR [edx+eax*4]

; 196  : }

	pop	ebp
	ret	0
$LN2@get_edge_t:

; 194  :   else
; 195  :      return get_edge_vertices(e_id)[0];

	and	eax, 134217727				; 07ffffffH
	mov	edx, DWORD PTR [ecx+eax*4]
	mov	eax, DWORD PTR _web+216
	mov	ecx, DWORD PTR _dymem
	mov	eax, DWORD PTR [eax+ecx+304]
	mov	eax, DWORD PTR [edx+eax]

; 196  : }

	pop	ebp
	ret	0
_get_edge_tailv ENDP
_TEXT	ENDS
PUBLIC	_get_edge_headv
; Function compile flags: /Ogtp
;	COMDAT _get_edge_headv
_TEXT	SEGMENT
_e_id$ = 8						; size = 4
_get_edge_headv PROC					; COMDAT

; 200  : {

	push	ebp
	mov	ebp, esp

; 201  :   if ( inverted(e_id) )

	mov	eax, DWORD PTR _e_id$[ebp]

; 202  :      return get_edge_vertices(e_id)[0];

	mov	ecx, DWORD PTR _web+124
	test	eax, 134217728				; 08000000H
	je	SHORT $LN2@get_edge_h
	and	eax, 134217727				; 07ffffffH
	mov	edx, DWORD PTR [ecx+eax*4]
	mov	eax, DWORD PTR _web+216
	mov	ecx, DWORD PTR _dymem
	mov	eax, DWORD PTR [eax+ecx+304]
	mov	eax, DWORD PTR [edx+eax]

; 205  : }

	pop	ebp
	ret	0
$LN2@get_edge_h:

; 203  :   else
; 204  :      return get_edge_vertices(e_id)[web.headvnum];

	and	eax, 134217727				; 07ffffffH
	mov	edx, DWORD PTR [ecx+eax*4]
	mov	eax, DWORD PTR _web+216
	mov	ecx, DWORD PTR _dymem
	add	edx, DWORD PTR [eax+ecx+304]
	mov	eax, DWORD PTR _web+636
	mov	eax, DWORD PTR [edx+eax*4]

; 205  : }

	pop	ebp
	ret	0
_get_edge_headv ENDP
_TEXT	ENDS
PUBLIC	_get_facet_body
; Function compile flags: /Ogtp
;	COMDAT _get_facet_body
_TEXT	SEGMENT
_f_id$ = 8						; size = 4
_get_facet_body PROC					; COMDAT

; 250  : {

	push	ebp
	mov	ebp, esp

; 251  :   if ( web.skel[BODY].count == 0 ) return NULLID;

	cmp	DWORD PTR _web+400, 0
	jne	SHORT $LN4@get_facet_
$LN7@get_facet_:
	xor	eax, eax

; 255  : }

	pop	ebp
	ret	0
$LN4@get_facet_:

; 252  :   if ( !valid_id(f_id) ) return NULLID;

	mov	eax, DWORD PTR _f_id$[ebp]
	test	eax, 268435456				; 10000000H
	je	SHORT $LN7@get_facet_

; 253  :   if ( inverted(f_id) ) return F_ELID(f_id,F_BODY_LIST_ATTR)[1];

	mov	ecx, DWORD PTR _web+236
	test	eax, 134217728				; 08000000H
	je	SHORT $LN2@get_facet_
	and	eax, 134217727				; 07ffffffH
	mov	edx, DWORD PTR [ecx+eax*4]
	mov	eax, DWORD PTR _web+328
	mov	ecx, DWORD PTR _dymem
	mov	eax, DWORD PTR [eax+ecx+784]
	mov	eax, DWORD PTR [edx+eax+4]

; 255  : }

	pop	ebp
	ret	0
$LN2@get_facet_:

; 254  :   else  return F_ELID(f_id,F_BODY_LIST_ATTR)[0];

	and	eax, 134217727				; 07ffffffH
	mov	edx, DWORD PTR [ecx+eax*4]
	mov	eax, DWORD PTR _web+328
	mov	ecx, DWORD PTR _dymem
	mov	eax, DWORD PTR [eax+ecx+784]
	mov	eax, DWORD PTR [edx+eax]

; 255  : }

	pop	ebp
	ret	0
_get_facet_body ENDP
_TEXT	ENDS
PUBLIC	_get_facet_fe
; Function compile flags: /Ogtp
;	COMDAT _get_facet_fe
_TEXT	SEGMENT
_f_id$ = 8						; size = 4
_get_facet_fe PROC					; COMDAT

; 260  : {

	push	ebp
	mov	ebp, esp

; 261  :   facetedge_id fe;
; 262  :   
; 263  :   if ( !valid_id(f_id) ) return NULLID;

	mov	ecx, DWORD PTR _f_id$[ebp]
	test	ecx, 268435456				; 10000000H
	jne	SHORT $LN2@get_facet_@2
	xor	eax, eax

; 266  :   return fe;
; 267  : }

	pop	ebp
	ret	0
$LN2@get_facet_@2:

; 264  :   fe = fptr(f_id)->fe_id;

	mov	edx, DWORD PTR _web+236
	mov	eax, ecx
	and	eax, 134217727				; 07ffffffH
	mov	eax, DWORD PTR [edx+eax*4]
	mov	eax, DWORD PTR [eax+28]

; 265  :   if ( inverted(f_id) ) invert(fe);

	test	ecx, 134217728				; 08000000H
	je	SHORT $LN3@get_facet_@2
	xor	eax, 134217728				; 08000000H
$LN3@get_facet_@2:

; 266  :   return fe;
; 267  : }

	pop	ebp
	ret	0
_get_facet_fe ENDP
_TEXT	ENDS
PUBLIC	_get_extra
; Function compile flags: /Ogtp
;	COMDAT _get_extra
_TEXT	SEGMENT
_id$ = 8						; size = 4
_n$ = 12						; size = 4
_get_extra PROC						; COMDAT

; 348  : { int type = id_type(id);

	push	ebp
	mov	ebp, esp

; 349  : 
; 350  :   return ( (char*)elptr(id) + EXTRAS(type)[n].offset);

	mov	ecx, DWORD PTR _id$[ebp]
	mov	eax, ecx
	push	esi
	mov	esi, DWORD PTR _n$[ebp]
	shr	eax, 29					; 0000001dH
	imul	esi, 240				; 000000f0H
	imul	eax, 112				; 00000070H
	mov	edx, DWORD PTR _web[eax+12]
	push	edi
	mov	edi, DWORD PTR _web[eax+104]
	and	ecx, 134217727				; 07ffffffH
	mov	eax, DWORD PTR [edx+ecx*4]
	mov	ecx, DWORD PTR _dymem
	add	edi, esi
	add	eax, DWORD PTR [edi+ecx+64]
	pop	edi
	pop	esi

; 351  : }

	pop	ebp
	ret	0
_get_extra ENDP
_TEXT	ENDS
PUBLIC	__real@406fe00000000000
PUBLIC	__real@c06fe00000000000
PUBLIC	_INDEX_TO_RGBA
EXTRN	_rgb_colors:BYTE
EXTRN	__fltused:DWORD
EXTRN	__ftol2_sse:PROC
;	COMDAT __real@406fe00000000000
; File c:\levolver\yonkang-sefit\levolver\ev_ogl\graphgen.c
CONST	SEGMENT
__real@406fe00000000000 DQ 0406fe00000000000r	; 255
CONST	ENDS
;	COMDAT __real@c06fe00000000000
CONST	SEGMENT
__real@c06fe00000000000 DQ 0c06fe00000000000r	; -255
; Function compile flags: /Ogtp
CONST	ENDS
;	COMDAT _INDEX_TO_RGBA
_TEXT	SEGMENT
_c$ = 8							; size = 4
_INDEX_TO_RGBA PROC					; COMDAT

; 33   : { return 

	push	ebp
	mov	ebp, esp
	push	esi

; 34   :     ((int)(rgb_colors[c][0]*255)<<24) +
; 35   :     ((int)(rgb_colors[c][1]*255)<<16) +
; 36   :     ((int)(rgb_colors[c][2]*255)<<8)  +
; 37   :     ((int)(rgb_colors[c][3]*255));

	mov	esi, DWORD PTR _c$[ebp]
	shl	esi, 5
	fld	QWORD PTR _rgb_colors[esi]
	push	edi
	fld	QWORD PTR __real@c06fe00000000000
	fmul	ST(1), ST(0)
	fxch	ST(1)
	call	__ftol2_sse
	fld	QWORD PTR _rgb_colors[esi+8]
	mov	edi, eax
	fmul	ST(0), ST(1)
	shl	edi, 8
	call	__ftol2_sse
	fmul	QWORD PTR _rgb_colors[esi+16]
	add	edi, eax
	shl	edi, 8
	call	__ftol2_sse
	fld	QWORD PTR _rgb_colors[esi+24]
	fmul	QWORD PTR __real@406fe00000000000
	add	edi, eax
	shl	edi, 8
	call	__ftol2_sse
	sub	eax, edi
	pop	edi
	pop	esi

; 38   : } // end INDEX_TO_RGBA()

	pop	ebp
	ret	0
_INDEX_TO_RGBA ENDP
_TEXT	ENDS
PUBLIC	_get_edge_color_2
EXTRN	_edge_alpha_flag:DWORD
EXTRN	_edge_rgb_color_attr:DWORD
; Function compile flags: /Ogtp
;	COMDAT _get_edge_color_2
_TEXT	SEGMENT
_e_id$ = 8						; size = 4
_get_edge_color_2 PROC					; COMDAT

; 42   : { if ( edge_rgb_color_attr > 0 )

	push	ebp
	mov	ebp, esp
	mov	edx, DWORD PTR _edge_rgb_color_attr
	test	edx, edx
	jle	$LN2@get_edge_c

; 43   :   { REAL *c = (REAL*)get_extra(e_id,edge_rgb_color_attr);

	mov	ecx, DWORD PTR _e_id$[ebp]
	imul	edx, 240				; 000000f0H
	mov	eax, ecx
	shr	eax, 29					; 0000001dH
	imul	eax, 112				; 00000070H
	push	ebx
	push	esi
	mov	esi, DWORD PTR _web[eax+12]
	mov	eax, DWORD PTR _web[eax+104]
	and	ecx, 134217727				; 07ffffffH
	mov	esi, DWORD PTR [esi+ecx*4]
	mov	ecx, DWORD PTR _dymem
	add	eax, edx
	add	esi, DWORD PTR [eax+ecx+64]

; 44   :     return 
; 45   :     ((int)(c[0]*255)<<24) +
; 46   :     ((int)(c[1]*255)<<16) +
; 47   :     ((int)(c[2]*255)<<8)  +
; 48   :     (edge_alpha_flag ? ((int)(c[3]*255)) : 255);

	cmp	DWORD PTR _edge_alpha_flag, 0
	push	edi
	je	SHORT $LN5@get_edge_c
	fld	QWORD PTR [esi+24]
	fmul	QWORD PTR __real@406fe00000000000
	call	__ftol2_sse
	mov	edi, eax
	jmp	SHORT $LN6@get_edge_c
$LN5@get_edge_c:
	mov	edi, 255				; 000000ffH
$LN6@get_edge_c:
	fld	QWORD PTR [esi]
	fld	QWORD PTR __real@c06fe00000000000
	fmul	ST(1), ST(0)
	fxch	ST(1)
	call	__ftol2_sse
	fld	QWORD PTR [esi+8]
	mov	ebx, eax
	fmul	ST(0), ST(1)
	shl	ebx, 8
	call	__ftol2_sse
	fmul	QWORD PTR [esi+16]
	add	ebx, eax
	shl	ebx, 8
	call	__ftol2_sse
	add	ebx, eax
	mov	eax, edi
	pop	edi
	shl	ebx, 8
	pop	esi
	sub	eax, ebx
	pop	ebx

; 51   : } // end get_edge_color_2()

	pop	ebp
	ret	0
$LN2@get_edge_c:

; 49   :   } 
; 50   :   else return get_edge_color(e_id);

	mov	edx, DWORD PTR _e_id$[ebp]
	mov	eax, DWORD PTR _web+124
	and	edx, 134217727				; 07ffffffH
	mov	ecx, DWORD PTR [eax+edx*4]
	movsx	eax, WORD PTR [ecx+56]

; 51   : } // end get_edge_color_2()

	pop	ebp
	ret	0
_get_edge_color_2 ENDP
_TEXT	ENDS
PUBLIC	_get_facet_frontcolor_2
EXTRN	_facet_alpha_flag:DWORD
EXTRN	_facet_rgb_color_attr:DWORD
; Function compile flags: /Ogtp
;	COMDAT _get_facet_frontcolor_2
_TEXT	SEGMENT
_f_id$ = 8						; size = 4
_get_facet_frontcolor_2 PROC				; COMDAT

; 55   : { if ( facet_rgb_color_attr > 0 )

	push	ebp
	mov	ebp, esp
	mov	edx, DWORD PTR _facet_rgb_color_attr
	test	edx, edx
	jle	$LN2@get_facet_@3

; 56   :   { REAL *c = (REAL*)get_extra(f_id,facet_rgb_color_attr);

	mov	ecx, DWORD PTR _f_id$[ebp]
	imul	edx, 240				; 000000f0H
	mov	eax, ecx
	shr	eax, 29					; 0000001dH
	imul	eax, 112				; 00000070H
	push	ebx
	push	esi
	mov	esi, DWORD PTR _web[eax+12]
	mov	eax, DWORD PTR _web[eax+104]
	and	ecx, 134217727				; 07ffffffH
	mov	esi, DWORD PTR [esi+ecx*4]
	mov	ecx, DWORD PTR _dymem
	add	eax, edx
	add	esi, DWORD PTR [eax+ecx+64]

; 57   :     return 
; 58   :     ((int)(c[0]*255)<<24) +
; 59   :     ((int)(c[1]*255)<<16) +
; 60   :     ((int)(c[2]*255)<<8)  +
; 61   :     (facet_alpha_flag ? ((int)(c[3]*255)) : 255 );

	cmp	DWORD PTR _facet_alpha_flag, 0
	push	edi
	je	SHORT $LN5@get_facet_@3
	fld	QWORD PTR [esi+24]
	fmul	QWORD PTR __real@406fe00000000000
	call	__ftol2_sse
	mov	edi, eax
	jmp	SHORT $LN6@get_facet_@3
$LN5@get_facet_@3:
	mov	edi, 255				; 000000ffH
$LN6@get_facet_@3:
	fld	QWORD PTR [esi]
	fld	QWORD PTR __real@c06fe00000000000
	fmul	ST(1), ST(0)
	fxch	ST(1)
	call	__ftol2_sse
	fld	QWORD PTR [esi+8]
	mov	ebx, eax
	fmul	ST(0), ST(1)
	shl	ebx, 8
	call	__ftol2_sse
	fmul	QWORD PTR [esi+16]
	add	ebx, eax
	shl	ebx, 8
	call	__ftol2_sse
	add	ebx, eax
	mov	eax, edi
	pop	edi
	shl	ebx, 8
	pop	esi
	sub	eax, ebx
	pop	ebx

; 64   : } // end get_facet_frontcolor_2()

	pop	ebp
	ret	0
$LN2@get_facet_@3:

; 62   :   } 
; 63   :   else return get_facet_frontcolor(f_id);

	mov	eax, DWORD PTR _f_id$[ebp]
	test	eax, 134217728				; 08000000H
	je	SHORT $LN7@get_facet_@3
	mov	edx, DWORD PTR _web+236
	and	eax, 134217727				; 07ffffffH
	mov	eax, DWORD PTR [edx+eax*4]
	movsx	eax, WORD PTR [eax+50]

; 64   : } // end get_facet_frontcolor_2()

	pop	ebp
	ret	0
$LN7@get_facet_@3:

; 62   :   } 
; 63   :   else return get_facet_frontcolor(f_id);

	mov	ecx, DWORD PTR _web+236
	and	eax, 134217727				; 07ffffffH
	mov	edx, DWORD PTR [ecx+eax*4]
	movsx	eax, WORD PTR [edx+48]

; 64   : } // end get_facet_frontcolor_2()

	pop	ebp
	ret	0
_get_facet_frontcolor_2 ENDP
_TEXT	ENDS
PUBLIC	_get_facet_color_2
; Function compile flags: /Ogtp
;	COMDAT _get_facet_color_2
_TEXT	SEGMENT
_f_id$ = 8						; size = 4
_get_facet_color_2 PROC					; COMDAT

; 68   : { return get_facet_frontcolor_2(f_id);

	push	ebp
	mov	ebp, esp

; 69   : } // end get_facet_color_2()

	pop	ebp

; 68   : { return get_facet_frontcolor_2(f_id);

	jmp	_get_facet_frontcolor_2
_get_facet_color_2 ENDP
_TEXT	ENDS
PUBLIC	_get_facet_backcolor_2
EXTRN	_facetback_alpha_flag:DWORD
EXTRN	_facet_rgb_backcolor_attr:DWORD
; Function compile flags: /Ogtp
;	COMDAT _get_facet_backcolor_2
_TEXT	SEGMENT
_f_id$ = 8						; size = 4
_get_facet_backcolor_2 PROC				; COMDAT

; 73   : {

	push	ebp
	mov	ebp, esp

; 74   :   if ( facet_rgb_color_attr > 0 )

	cmp	DWORD PTR _facet_rgb_color_attr, 0
	jle	$LN4@get_facet_@4

; 75   :   {
; 76   :     if ( facet_rgb_backcolor_attr > 0 )

	mov	edx, DWORD PTR _facet_rgb_backcolor_attr
	test	edx, edx
	jle	$LN3@get_facet_@4

; 77   :     { REAL *c = (REAL*)get_extra(f_id,facet_rgb_backcolor_attr);

	mov	ecx, DWORD PTR _f_id$[ebp]
	imul	edx, 240				; 000000f0H
	mov	eax, ecx
	shr	eax, 29					; 0000001dH
	imul	eax, 112				; 00000070H
	push	ebx
	push	esi
	mov	esi, DWORD PTR _web[eax+12]
	mov	eax, DWORD PTR _web[eax+104]
	and	ecx, 134217727				; 07ffffffH
	mov	esi, DWORD PTR [esi+ecx*4]
	mov	ecx, DWORD PTR _dymem
	add	eax, edx
	add	esi, DWORD PTR [eax+ecx+64]

; 78   :       return 
; 79   :       ((int)(c[0]*255)<<24) +
; 80   :       ((int)(c[1]*255)<<16) +
; 81   :       ((int)(c[2]*255)<<8)  +
; 82   :       (facetback_alpha_flag ? ((int)(c[3]*255)) : 255);

	cmp	DWORD PTR _facetback_alpha_flag, 0
	push	edi
	je	SHORT $LN7@get_facet_@4
	fld	QWORD PTR [esi+24]
	fmul	QWORD PTR __real@406fe00000000000
	call	__ftol2_sse
	mov	edi, eax
	jmp	SHORT $LN8@get_facet_@4
$LN7@get_facet_@4:
	mov	edi, 255				; 000000ffH
$LN8@get_facet_@4:
	fld	QWORD PTR [esi]
	fld	QWORD PTR __real@c06fe00000000000
	fmul	ST(1), ST(0)
	fxch	ST(1)
	call	__ftol2_sse
	fld	QWORD PTR [esi+8]
	mov	ebx, eax
	fmul	ST(0), ST(1)
	shl	ebx, 8
	call	__ftol2_sse
	fmul	QWORD PTR [esi+16]
	add	ebx, eax
	shl	ebx, 8
	call	__ftol2_sse
	add	ebx, eax
	mov	eax, edi
	pop	edi
	shl	ebx, 8
	pop	esi
	sub	eax, ebx
	pop	ebx

; 87   : } // end get_facet_backcolor_2()

	pop	ebp
	ret	0
$LN3@get_facet_@4:

; 83   :     } 
; 84   :     else return INDEX_TO_RGBA(get_facet_backcolor(f_id));

	mov	eax, DWORD PTR _f_id$[ebp]
	test	eax, 134217728				; 08000000H
	je	SHORT $LN9@get_facet_@4
	mov	edx, DWORD PTR _web+236
	and	eax, 134217727				; 07ffffffH
	mov	eax, DWORD PTR [edx+eax*4]
	movsx	eax, WORD PTR [eax+48]
	push	eax
	call	_INDEX_TO_RGBA
	add	esp, 4

; 87   : } // end get_facet_backcolor_2()

	pop	ebp
	ret	0
$LN9@get_facet_@4:

; 83   :     } 
; 84   :     else return INDEX_TO_RGBA(get_facet_backcolor(f_id));

	mov	ecx, DWORD PTR _web+236
	and	eax, 134217727				; 07ffffffH
	mov	edx, DWORD PTR [ecx+eax*4]
	movsx	eax, WORD PTR [edx+50]
	push	eax
	call	_INDEX_TO_RGBA
	add	esp, 4

; 87   : } // end get_facet_backcolor_2()

	pop	ebp
	ret	0
$LN4@get_facet_@4:

; 85   :   }
; 86   :   else return get_facet_backcolor(f_id);

	mov	eax, DWORD PTR _f_id$[ebp]
	mov	ecx, DWORD PTR _web+236
	test	eax, 134217728				; 08000000H
	je	SHORT $LN11@get_facet_@4
	and	eax, 134217727				; 07ffffffH
	mov	edx, DWORD PTR [ecx+eax*4]
	movsx	eax, WORD PTR [edx+48]

; 87   : } // end get_facet_backcolor_2()

	pop	ebp
	ret	0
$LN11@get_facet_@4:

; 85   :   }
; 86   :   else return get_facet_backcolor(f_id);

	and	eax, 134217727				; 07ffffffH
	mov	edx, DWORD PTR [ecx+eax*4]
	movsx	eax, WORD PTR [edx+50]

; 87   : } // end get_facet_backcolor_2()

	pop	ebp
	ret	0
_get_facet_backcolor_2 ENDP
_TEXT	ENDS
PUBLIC	__real@3e112e0be826d695
PUBLIC	_torus_edge_clip
PUBLIC	_graph_edge_transforms
PUBLIC	__real@c000000000000000
PUBLIC	__real@4010000000000000
PUBLIC	__real@3ddb7cdfd9d7bdbb
PUBLIC	__real@401921fb54442d18
PUBLIC	__real@0000000000000000
PUBLIC	__real@3fd0000000000000
PUBLIC	__real@3fe0000000000000
PUBLIC	__real@40af400000000000
PUBLIC	_m$GSCopy$
PUBLIC	_gdata$GSCopy$
PUBLIC	__$ArrayPad$
PUBLIC	_torus_arc_clip
EXTRN	_dot:PROC
EXTRN	___security_cookie:DWORD
EXTRN	@__security_check_cookie@4:PROC
EXTRN	__CIcos:PROC
EXTRN	__CIsin:PROC
EXTRN	__CIatan2:PROC
EXTRN	__CIsqrt:PROC
EXTRN	_floor:PROC
;	COMDAT __real@3e112e0be826d695
CONST	SEGMENT
__real@3e112e0be826d695 DQ 03e112e0be826d695r	; 1e-009
CONST	ENDS
;	COMDAT __real@c000000000000000
CONST	SEGMENT
__real@c000000000000000 DQ 0c000000000000000r	; -2
CONST	ENDS
;	COMDAT __real@4010000000000000
CONST	SEGMENT
__real@4010000000000000 DQ 04010000000000000r	; 4
CONST	ENDS
;	COMDAT __real@3ddb7cdfd9d7bdbb
CONST	SEGMENT
__real@3ddb7cdfd9d7bdbb DQ 03ddb7cdfd9d7bdbbr	; 1e-010
CONST	ENDS
;	COMDAT __real@401921fb54442d18
CONST	SEGMENT
__real@401921fb54442d18 DQ 0401921fb54442d18r	; 6.28319
CONST	ENDS
;	COMDAT __real@0000000000000000
CONST	SEGMENT
__real@0000000000000000 DQ 00000000000000000r	; 0
CONST	ENDS
;	COMDAT __real@3fd0000000000000
CONST	SEGMENT
__real@3fd0000000000000 DQ 03fd0000000000000r	; 0.25
CONST	ENDS
;	COMDAT __real@3fe0000000000000
CONST	SEGMENT
__real@3fe0000000000000 DQ 03fe0000000000000r	; 0.5
CONST	ENDS
;	COMDAT __real@40af400000000000
CONST	SEGMENT
__real@40af400000000000 DQ 040af400000000000r	; 4000
; Function compile flags: /Ogtp
CONST	ENDS
;	COMDAT _torus_arc_clip
_TEXT	SEGMENT
tv4170 = -1100						; size = 8
_x0$ = -1092						; size = 8
tv4147 = -1088						; size = 4
_angle2$ = -1084					; size = 8
_det$ = -1084						; size = 8
_angle1$ = -1076					; size = 8
_m$GSCopy$ = -1068					; size = 4
_x2$ = -1064						; size = 8
_c$ = -1064						; size = 8
_y2$ = -1056						; size = 8
_a$ = -1056						; size = 8
_y1$ = -1048						; size = 8
_v$ = -1048						; size = 8
_per$ = -1040						; size = 4
tv4311 = -1036						; size = 8
tv4248 = -1036						; size = 8
_u$ = -1036						; size = 8
_center$ = -1028					; size = 16
tv9453 = -1012						; size = 8
tv4321 = -1012						; size = 8
tv4238 = -1012						; size = 8
_theta2$ = -1012					; size = 8
_b$ = -1012						; size = 8
_mag1$ = -1012						; size = 8
_radius$ = -1004					; size = 8
_theta1$ = -996						; size = 8
_y0$ = -996						; size = 8
tv10031 = -992						; size = 4
tv10021 = -992						; size = 4
tv9068 = -992						; size = 4
tv8524 = -992						; size = 4
tv7948 = -992						; size = 4
tv6544 = -992						; size = 4
tv6224 = -992						; size = 4
tv5904 = -992						; size = 4
tv5439 = -992						; size = 4
_x1$ = -988						; size = 8
tv9052 = -984						; size = 4
tv8476 = -984						; size = 4
tv7900 = -984						; size = 4
tv6528 = -984						; size = 4
tv6208 = -984						; size = 4
tv5888 = -984						; size = 4
_invper$ = -984						; size = 4
_gdata$GSCopy$ = -980					; size = 4
_gdata2$ = -976						; size = 432
_gdata1$ = -544						; size = 432
_w2$ = -112						; size = 48
_w1$ = -64						; size = 48
_wrap$ = -16						; size = 12
__$ArrayPad$ = -4					; size = 4
_gdata$ = 8						; size = 4
_m$ = 12						; size = 4
_torus_arc_clip PROC					; COMDAT

; 1643 : {

	push	ebp
	mov	ebp, esp
	sub	esp, 1100				; 0000044cH
	mov	eax, DWORD PTR ___security_cookie
	xor	eax, ebp
	mov	DWORD PTR __$ArrayPad$[ebp], eax

; 1644 :   struct graphdata gdata1[3];  /* for possible subdivided edge */
; 1645 :   struct graphdata gdata2[3];  /* for possible subdivided edge */
; 1646 :   int i,j;
; 1647 :   REAL a,b,c,h,k,u,v,x0,x1,x2,y0,y1,y2,t1,t2,discr;
; 1648 :   int wrap[3];
; 1649 :   REAL **per;
; 1650 :   REAL **invper;
; 1651 :   REAL w1[MAXCOORD],w2[MAXCOORD],mag1,mag2,w1w2,center[2],radius;
; 1652 :   REAL angle1,angle2,det,theta1,theta2;
; 1653 : 
; 1654 :   if ( web.torus_display_period )

	mov	ecx, DWORD PTR _web+1620
	mov	eax, DWORD PTR _gdata$[ebp]
	push	ebx
	mov	ebx, DWORD PTR _m$[ebp]
	push	esi
	push	edi

; 1953 :   
; 1954 :           for ( i = 0 ; i < 3 ; i++ )

	mov	DWORD PTR _gdata$GSCopy$[ebp], eax
	mov	DWORD PTR _m$GSCopy$[ebp], ebx
	test	ecx, ecx
	je	SHORT $LN113@torus_arc_

; 1655 :   { per = web.torus_display_period;
; 1656 :     invper = web.inverse_display_periods;

	mov	DWORD PTR _per$[ebp], ecx
	mov	ecx, DWORD PTR _web+1672

; 1657 :   }
; 1658 :   else

	jmp	SHORT $LN298@torus_arc_
$LN113@torus_arc_:

; 1659 :   { per = web.torus_period;

	mov	edx, DWORD PTR _web+1608

; 1660 :     invper = web.inverse_periods;

	mov	ecx, DWORD PTR _web+1612
	mov	DWORD PTR _per$[ebp], edx
$LN298@torus_arc_:
	mov	DWORD PTR _invper$[ebp], ecx

; 1661 :   }
; 1662 : 
; 1663 :   for ( i = 0 ; i < 3 ; i++ )
; 1664 :     gdata1[i] = gdata2[i] = gdata[i]; /* flags and stuff */

	mov	ecx, 36					; 00000024H
	mov	esi, eax
	lea	edi, DWORD PTR _gdata2$[ebp]
	rep movsd
	mov	ecx, 36					; 00000024H
	mov	esi, eax
	lea	edi, DWORD PTR _gdata1$[ebp]
	rep movsd
	mov	ecx, 36					; 00000024H
	lea	esi, DWORD PTR [eax+144]
	lea	edi, DWORD PTR _gdata2$[ebp+144]
	rep movsd
	mov	ecx, 36					; 00000024H
	lea	esi, DWORD PTR [eax+144]
	lea	edi, DWORD PTR _gdata1$[ebp+144]
	rep movsd
	mov	ecx, 36					; 00000024H
	lea	esi, DWORD PTR [eax+288]
	lea	edi, DWORD PTR _gdata2$[ebp+288]
	rep movsd
	mov	ecx, 36					; 00000024H
	lea	esi, DWORD PTR [eax+288]
	lea	edi, DWORD PTR _gdata1$[ebp+288]
	rep movsd
	add	ebx, ebx

; 1665 : 
; 1666 :   /* see where vertices are relative to cell in this coordinate */
; 1667 :   for ( i = 0 ; i < 3 ; i++ )

	xor	esi, esi
	add	ebx, ebx
	mov	edi, eax
	npad	6
$LL108@torus_arc_:

; 1668 :      wrap[i] = (int)floor(SDIM_dot(invper[m],gdata[i].x));

	mov	edx, DWORD PTR _web+616
	mov	eax, DWORD PTR _invper$[ebp]
	mov	ecx, DWORD PTR [ebx+eax]
	push	edx
	push	edi
	push	ecx
	call	_dot
	fstp	QWORD PTR [esp+4]
	add	esp, 4
	call	_floor
	add	esp, 8
	call	__ftol2_sse
	mov	DWORD PTR _wrap$[ebp+esi*4], eax
	inc	esi
	add	edi, 144				; 00000090H
	cmp	esi, 3
	jl	SHORT $LL108@torus_arc_

; 1669 : 
; 1670 :   /* solve for geometric parameters */
; 1671 :   for (i = 0 ; i < SDIM ; i++ )

	mov	edi, DWORD PTR _web+616
	mov	esi, DWORD PTR _gdata$GSCopy$[ebp]
	xor	ecx, ecx
	cmp	edi, 4
	jl	$LC177@torus_arc_
	lea	edx, DWORD PTR [edi-3]
	lea	eax, DWORD PTR [esi+288]
	npad	5
$LL178@torus_arc_:

; 1672 :   { w1[i] = gdata[1].x[i] - gdata[0].x[i];

	fld	QWORD PTR [eax-144]

; 1673 :     w2[i] = gdata[2].x[i] - gdata[0].x[i];

	add	ecx, 4
	fsub	QWORD PTR [eax-288]
	add	eax, 32					; 00000020H
	fstp	QWORD PTR _w1$[ebp+ecx*8-32]
	fld	QWORD PTR [eax-32]
	fsub	QWORD PTR [eax-320]
	fstp	QWORD PTR _w2$[ebp+ecx*8-32]
	fld	QWORD PTR [eax-168]
	fsub	QWORD PTR [eax-312]
	fstp	QWORD PTR _w1$[ebp+ecx*8-24]
	fld	QWORD PTR [eax-24]
	fsub	QWORD PTR [eax-312]
	fstp	QWORD PTR _w2$[ebp+ecx*8-24]
	fld	QWORD PTR [eax-160]
	fsub	QWORD PTR [eax-304]
	fstp	QWORD PTR _w1$[ebp+ecx*8-16]
	fld	QWORD PTR [eax-16]
	fsub	QWORD PTR [eax-304]
	fstp	QWORD PTR _w2$[ebp+ecx*8-16]
	fld	QWORD PTR [eax-152]
	fsub	QWORD PTR [eax-296]
	fstp	QWORD PTR _w1$[ebp+ecx*8-8]
	fld	QWORD PTR [eax-8]
	fsub	QWORD PTR [eax-296]
	fstp	QWORD PTR _w2$[ebp+ecx*8-8]
	cmp	ecx, edx
	jl	$LL178@torus_arc_
$LC177@torus_arc_:

; 1669 : 
; 1670 :   /* solve for geometric parameters */
; 1671 :   for (i = 0 ; i < SDIM ; i++ )

	cmp	ecx, edi
	jge	SHORT $LN211@torus_arc_
	lea	edx, DWORD PTR _w2$[ebp]
	sub	edx, esi
	mov	DWORD PTR tv5439[ebp], edx
	mov	edx, DWORD PTR _web+616
	lea	edi, DWORD PTR _w1$[ebp]
	sub	edi, esi
	lea	eax, DWORD PTR [esi+ecx*8]
	sub	edx, ecx
	mov	ecx, DWORD PTR tv5439[ebp]
	npad	3
$LC105@torus_arc_:

; 1672 :   { w1[i] = gdata[1].x[i] - gdata[0].x[i];

	fld	QWORD PTR [eax+144]
	add	eax, 8
	dec	edx
	fsub	QWORD PTR [eax-8]
	fstp	QWORD PTR [edi+eax-8]

; 1673 :     w2[i] = gdata[2].x[i] - gdata[0].x[i];

	fld	QWORD PTR [eax+280]
	fsub	QWORD PTR [eax-8]
	fstp	QWORD PTR [ecx+eax-8]
	jne	SHORT $LC105@torus_arc_

; 1669 : 
; 1670 :   /* solve for geometric parameters */
; 1671 :   for (i = 0 ; i < SDIM ; i++ )

	mov	edi, DWORD PTR _web+616
$LN211@torus_arc_:

; 1674 :   }
; 1675 :   det = w1[0]*w2[1] - w1[1]*w2[0];

	fld	QWORD PTR _w2$[ebp+8]

; 1676 :   mag1 = SDIM_dot(w1,w1); mag2 = SDIM_dot(w2,w2);

	lea	edx, DWORD PTR _w1$[ebp]
	fmul	QWORD PTR _w1$[ebp]
	push	edi
	fld	QWORD PTR _w2$[ebp]
	push	edx
	fmul	QWORD PTR _w1$[ebp+8]
	mov	eax, edx
	push	eax
	fsubp	ST(1), ST(0)
	fstp	QWORD PTR _det$[ebp]
	call	_dot
	mov	ecx, DWORD PTR _web+616
	fstp	QWORD PTR _mag1$[ebp]
	push	ecx
	lea	edx, DWORD PTR _w2$[ebp]
	push	edx
	mov	eax, edx
	push	eax
	call	_dot

; 1677 :   w1w2 = w1[0]*w2[0] + w1[1]*w2[1];

	fld	QWORD PTR _w1$[ebp+8]
	fld	ST(0)
	add	esp, 24					; 00000018H
	fld	QWORD PTR _w2$[ebp+8]
	fmul	ST(1), ST(0)
	fld	QWORD PTR _w2$[ebp]
	fld	QWORD PTR _w1$[ebp]
	fmul	ST(0), ST(1)
	faddp	ST(3), ST(0)

; 1678 :   if ( 4000*det*det < mag1*mag1*mag2 + mag1*mag2*mag2 - 2*mag1*w1w2*mag2 )

	fld	ST(4)
	fld	QWORD PTR _mag1$[ebp]
	fmul	ST(1), ST(0)
	fxch	ST(1)
	fmul	ST(0), ST(6)
	fld	ST(1)
	fmul	ST(0), ST(2)
	fmul	ST(0), ST(7)
	faddp	ST(1), ST(0)
	fld	ST(1)
	fadd	ST(0), ST(0)
	fmulp	ST(5), ST(0)
	fxch	ST(4)
	fmul	ST(0), ST(6)
	fsubp	ST(4), ST(0)
	fld	QWORD PTR _det$[ebp]
	fld	QWORD PTR __real@40af400000000000
	fmul	ST(0), ST(1)
	fmul	ST(0), ST(1)
	fcomp	ST(5)
	fnstsw	ax
	test	ah, 5
	jp	SHORT $LN102@torus_arc_
	fstp	ST(0)

; 1679 :   { /* practically straight line */
; 1680 :     for ( i = 0 ; i < SDIM ; i++ )

	xor	ecx, ecx
	fstp	ST(0)
	fstp	ST(4)
	fstp	ST(2)
	fstp	ST(0)
	fstp	ST(0)
	fstp	ST(0)
	cmp	DWORD PTR _web+616, ecx
	jle	SHORT $LN99@torus_arc_
	lea	eax, DWORD PTR [esi+144]
$LL101@torus_arc_:

; 1681 :       gdata[1].x[i] = gdata[2].x[i];

	fld	QWORD PTR [eax+144]
	inc	ecx
	fstp	QWORD PTR [eax]
	add	eax, 8
	cmp	ecx, DWORD PTR _web+616
	jl	SHORT $LL101@torus_arc_
$LN99@torus_arc_:

; 1682 :     gdata[0].flags &= ~EDGE_ARC;
; 1683 :     torus_edge_clip(gdata,m);

	mov	ecx, DWORD PTR _m$GSCopy$[ebp]
	and	DWORD PTR [esi+136], -32769		; ffff7fffH
	push	ecx
	push	esi

; 1684 :     return;

	jmp	$LN299@torus_arc_
$LN102@torus_arc_:

; 1685 :   }
; 1686 :   /* circle */
; 1687 :   center[0] = gdata[0].x[0] + 0.5*(w2[1]*mag1 - w1[1]*mag2)/det;

	fld	ST(1)
	fmulp	ST(4), ST(0)
	fld	ST(6)
	fmulp	ST(6), ST(0)
	fxch	ST(3)
	fsubrp	ST(5), ST(0)
	fld	QWORD PTR __real@3fe0000000000000
	fmul	ST(5), ST(0)
	fxch	ST(5)
	fdiv	ST(0), ST(3)
	fadd	QWORD PTR [esi]
	fstp	QWORD PTR _center$[ebp]

; 1688 :   center[1] = gdata[0].x[1] + 0.5*(-w2[0]*mag1 + w1[0]*mag2)/det;

	fxch	ST(5)
	fmul	QWORD PTR _w1$[ebp]
	fxch	ST(5)
	fmulp	ST(1), ST(0)
	fsubp	ST(4), ST(0)
	fxch	ST(3)
	fmulp	ST(2), ST(0)
	fxch	ST(1)
	fdiv	ST(0), ST(2)
	fadd	QWORD PTR [esi+8]
	fstp	QWORD PTR _center$[ebp+8]

; 1689 :   radius =  sqrt((mag1*mag1*mag2+mag1*mag2*mag2-2*mag1*w1w2*mag2)/4/det/det);

	fmul	QWORD PTR __real@3fd0000000000000
	fdiv	ST(0), ST(1)
	fdivrp	ST(1), ST(0)
	call	__CIsqrt
	fstp	QWORD PTR _radius$[ebp]

; 1690 :   angle1 = atan2(gdata[0].x[1]-center[1],gdata[0].x[0]-center[0]);

	fld	QWORD PTR [esi+8]
	fsub	QWORD PTR _center$[ebp+8]
	fld	QWORD PTR [esi]
	fsub	QWORD PTR _center$[ebp]
	call	__CIatan2
	fstp	QWORD PTR _angle1$[ebp]

; 1691 :   angle2 = atan2(gdata[2].x[1]-center[1],gdata[2].x[0]-center[0]);

	fld	QWORD PTR [esi+296]
	fsub	QWORD PTR _center$[ebp+8]
	fld	QWORD PTR [esi+288]
	fsub	QWORD PTR _center$[ebp]
	call	__CIatan2

; 1692 :   if ( det < 0.0 ) /* swap to get counterclockwise order around circle */

	fldz
	fcomp	QWORD PTR _det$[ebp]
	fnstsw	ax

; 1693 :   { REAL temp = angle1; angle1 = angle2; angle2 = temp; 

	fld	QWORD PTR _angle1$[ebp]
	test	ah, 65					; 00000041H
	jne	SHORT $LN204@torus_arc_

; 1694 :     wrap[0] = wrap[2]; /* only one we use */
; 1695 :     temp = gdata[0].x[0]; gdata[0].x[0] = gdata[2].x[0]; gdata[2].x[0] = temp;

	fld	QWORD PTR [esi]
	fld	QWORD PTR [esi+288]
	fstp	QWORD PTR [esi]
	fstp	QWORD PTR [esi+288]

; 1696 :     temp = gdata[0].x[1]; gdata[0].x[1] = gdata[2].x[1]; gdata[2].x[1] = temp;

	fld	QWORD PTR [esi+8]
	fld	QWORD PTR [esi+296]
	fstp	QWORD PTR [esi+8]
	fstp	QWORD PTR [esi+296]
	jmp	SHORT $LN98@torus_arc_
$LN204@torus_arc_:
	fxch	ST(1)
$LN98@torus_arc_:

; 1697 :   }
; 1698 :   if ( angle2 < angle1 )

	fcom	ST(1)
	fnstsw	ax
	test	ah, 5
	jp	SHORT $LN97@torus_arc_

; 1699 :     angle2 += 2*M_PI;

	fadd	QWORD PTR __real@401921fb54442d18
$LN97@torus_arc_:

; 1700 : 
; 1701 :   /* shrink arc a bit to avoid numerical problems */
; 1702 :   angle1 += 1e-10;

	fld	QWORD PTR __real@3ddb7cdfd9d7bdbb

; 1703 :   angle2 -= 1e-10;
; 1704 :   wrap[0] = (int)floor(invper[m][0]*(center[0]+radius*cos(angle1))
; 1705 :               + invper[m][1]*(center[1]+radius*sin(angle1)));

	mov	edx, DWORD PTR _invper$[ebp]
	mov	edi, DWORD PTR [ebx+edx]
	fadd	ST(2), ST(0)
	fxch	ST(2)
	fst	QWORD PTR _angle1$[ebp]
	fxch	ST(1)
	fsubrp	ST(2), ST(0)
	fxch	ST(1)
	fstp	QWORD PTR _angle2$[ebp]
	call	__CIsin
	fmul	QWORD PTR _radius$[ebp]
	fadd	QWORD PTR _center$[ebp+8]
	fmul	QWORD PTR [edi+8]
	fstp	QWORD PTR tv9453[ebp]
	fld	QWORD PTR _angle1$[ebp]
	call	__CIcos
	fmul	QWORD PTR _radius$[ebp]
	sub	esp, 8
	fadd	QWORD PTR _center$[ebp]
	fmul	QWORD PTR [edi]
	fadd	QWORD PTR tv9453[ebp]
	fstp	QWORD PTR [esp]
	call	_floor
	add	esp, 8
	call	__ftol2_sse
	mov	edi, eax

; 1706 :   
; 1707 :   /* intersect with line for low side */
; 1708 :   h = center[0]; k = center[1]; 
; 1709 :   u = per[1-m][0]; v = per[1-m][1];

	mov	eax, DWORD PTR _per$[ebp]
	sub	eax, ebx
	add	eax, 4
	mov	DWORD PTR tv4147[ebp], eax
	mov	eax, DWORD PTR [eax]
	fld	QWORD PTR [eax]
	mov	DWORD PTR _wrap$[ebp], edi
	fst	QWORD PTR _u$[ebp]
	fld	QWORD PTR [eax+8]
	fst	QWORD PTR _v$[ebp]

; 1710 :   x0 = 0.0; y0 = 0.0;
; 1711 :   a = u*u + v*v;

	fld	ST(0)
	fmul	ST(0), ST(1)
	fld	ST(2)
	fmul	ST(0), ST(3)
	faddp	ST(1), ST(0)
	fst	QWORD PTR _a$[ebp]

; 1712 :   b = 2*(u*(x0-h) + v*(y0-k));

	fldz
	fld	QWORD PTR _center$[ebp+8]
	fsubr	ST(0), ST(1)
	fld	ST(1)
	fsub	QWORD PTR _center$[ebp]
	fld	ST(1)
	fmulp	ST(5), ST(0)
	fld	ST(0)
	fmulp	ST(6), ST(0)
	fxch	ST(4)
	faddp	ST(5), ST(0)
	fxch	ST(4)
	fadd	ST(0), ST(0)
	fst	QWORD PTR _b$[ebp]

; 1713 :   c = (x0-h)*(x0-h) + (y0-k)*(y0-k) - radius*radius;

	fld	QWORD PTR _radius$[ebp]
	fmul	ST(0), ST(0)
	fst	QWORD PTR tv4170[ebp]
	fld	ST(4)
	fmulp	ST(5), ST(0)
	fld	ST(5)
	fmulp	ST(6), ST(0)
	fxch	ST(4)
	faddp	ST(5), ST(0)
	fxch	ST(4)
	fsubrp	ST(3), ST(0)
	fxch	ST(2)
	fst	QWORD PTR _c$[ebp]

; 1714 :   discr = b*b - 4*a*c;

	fld	ST(3)
	fmul	ST(0), ST(4)
	fxch	ST(2)
	fmul	QWORD PTR __real@4010000000000000
	fmulp	ST(1), ST(0)
	fsubp	ST(1), ST(0)

; 1715 :   if ( discr > 0.0 )

	fcom	ST(1)
	fnstsw	ax
	test	ah, 65					; 00000041H
	jne	$LN226@torus_arc_

; 1716 :   { /* potential intersection */
; 1717 :     t1 = b > 0.0 ? -2*c/(b + sqrt(discr)) : (-b + sqrt(discr))/2/a;

	fxch	ST(2)
	fcompp
	fnstsw	ax
	test	ah, 65					; 00000041H
	jne	SHORT $LN116@torus_arc_
	call	__CIsqrt
	fld	QWORD PTR _c$[ebp]
	fmul	QWORD PTR __real@c000000000000000
	fld	QWORD PTR _b$[ebp]
	fld	ST(0)
	fadd	ST(0), ST(3)
	fdivp	ST(2), ST(0)
	jmp	SHORT $LN117@torus_arc_
$LN116@torus_arc_:
	call	__CIsqrt
	fld	ST(0)
	fld	QWORD PTR _b$[ebp]
	fsub	ST(1), ST(0)
	fxch	ST(1)
	fmul	QWORD PTR __real@3fe0000000000000
	fdiv	QWORD PTR _a$[ebp]
	fxch	ST(1)
$LN117@torus_arc_:

; 1718 :     t2 = b > 0.0 ? (-b - sqrt(discr))/2/a : -2*c/(b - sqrt(discr));

	fldz
	fcom	ST(1)
	fnstsw	ax
	test	ah, 5
	jp	SHORT $LN118@torus_arc_
	fxch	ST(1)
	fchs
	fsubrp	ST(3), ST(0)
	fxch	ST(2)
	fmul	QWORD PTR __real@3fe0000000000000
	fdiv	QWORD PTR _a$[ebp]
	jmp	SHORT $LN119@torus_arc_
$LN118@torus_arc_:
	fld	QWORD PTR _c$[ebp]
	fmul	QWORD PTR __real@c000000000000000
	fxch	ST(2)
	fsubrp	ST(4), ST(0)
	fxch	ST(1)
	fdivrp	ST(3), ST(0)
	fxch	ST(2)
$LN119@torus_arc_:

; 1719 :     x1 = x0 + t1*u; y1 = y0 + t1*v;

	fld	ST(1)
	fld	QWORD PTR _u$[ebp]
	fmul	ST(1), ST(0)
	fxch	ST(1)
	fadd	ST(0), ST(4)
	fst	QWORD PTR _x1$[ebp]
	fld	QWORD PTR _v$[ebp]
	fmul	ST(4), ST(0)
	fxch	ST(4)
	fadd	ST(0), ST(5)
	fst	QWORD PTR _y1$[ebp]

; 1720 :     x2 = x0 + t2*u; y2 = y0 + t2*v;

	fld	ST(3)
	fmulp	ST(3), ST(0)
	fxch	ST(2)
	fadd	ST(0), ST(5)
	fstp	QWORD PTR _x2$[ebp]
	fxch	ST(2)
	fmulp	ST(3), ST(0)
	fxch	ST(2)
	faddp	ST(3), ST(0)
	fxch	ST(2)
	fstp	QWORD PTR _y2$[ebp]

; 1721 :     theta1 = atan2(y1-center[1],x1-center[0]);

	fsub	QWORD PTR _center$[ebp+8]
	fxch	ST(1)
	fsub	QWORD PTR _center$[ebp]
	call	__CIatan2
	fstp	QWORD PTR _theta1$[ebp]

; 1722 :     theta2 = atan2(y2-center[1],x2-center[0]);

	fld	QWORD PTR _y2$[ebp]
	fsub	QWORD PTR _center$[ebp+8]
	fld	QWORD PTR _x2$[ebp]
	fsub	QWORD PTR _center$[ebp]
	call	__CIatan2
	fst	QWORD PTR _theta2$[ebp]

; 1723 :     if ( theta1 < angle1 )  theta1 += 2*M_PI;

	fld	QWORD PTR _angle1$[ebp]
	fld	QWORD PTR _theta1$[ebp]
	fcom	ST(1)
	fnstsw	ax
	test	ah, 5
	jp	SHORT $LN205@torus_arc_
	fadd	QWORD PTR __real@401921fb54442d18
	fst	QWORD PTR _theta1$[ebp]
$LN205@torus_arc_:

; 1724 :     if ( theta2 < angle1 )  theta2 += 2*M_PI;

	fxch	ST(2)
	fcom	ST(1)
	fnstsw	ax
	test	ah, 5
	jp	SHORT $LN94@torus_arc_
	fadd	QWORD PTR __real@401921fb54442d18
	fst	QWORD PTR _theta2$[ebp]
$LN94@torus_arc_:

; 1725 :     if ( theta1 > theta2 )

	fcom	ST(2)
	fnstsw	ax
	test	ah, 5
	jp	SHORT $LN206@torus_arc_

; 1726 :     { REAL temp = theta1; theta1 = theta2; theta2 = temp;

	fst	QWORD PTR _theta1$[ebp]
	fxch	ST(2)
	fst	QWORD PTR _theta2$[ebp]

; 1727 :       temp = x1; x1 = x2; x2 = temp;

	fld	QWORD PTR _x1$[ebp]
	fld	QWORD PTR _x2$[ebp]
	fstp	QWORD PTR _x1$[ebp]
	fst	QWORD PTR _x2$[ebp]

; 1728 :       temp = y1; y1 = y2; y2 = temp;

	fld	QWORD PTR _y1$[ebp]
	fld	QWORD PTR _y2$[ebp]
	fstp	QWORD PTR _y1$[ebp]
	fst	QWORD PTR _y2$[ebp]
	jmp	SHORT $LN93@torus_arc_
$LN206@torus_arc_:
	fld	QWORD PTR _x2$[ebp]
	fld	QWORD PTR _y2$[ebp]
$LN93@torus_arc_:

; 1729 :     }
; 1730 :     if ( theta1 >= angle2 )

	fld	QWORD PTR _angle2$[ebp]
	fcom	ST(5)
	fnstsw	ax
	test	ah, 65					; 00000041H
	jp	SHORT $LN92@torus_arc_
	fstp	ST(3)
	fstp	ST(2)
	fstp	ST(3)
	fstp	ST(2)
	fstp	ST(1)
	fstp	ST(0)

; 1731 :     { /* no intersection, but may have to wrap */
; 1732 :       if ( wrap[0] < 0 )

	test	edi, edi
	jns	$LN207@torus_arc_

; 1733 :        for ( i = 0 ; i < 3 ; i++ )

	mov	edi, 3
	npad	7
$LL90@torus_arc_:

; 1734 :         for ( j = 0 ; j < SDIM ; j++ )

	xor	edx, edx
	cmp	DWORD PTR _web+616, edx
	jle	SHORT $LN89@torus_arc_
	mov	eax, DWORD PTR _per$[ebp]
	mov	ecx, DWORD PTR [ebx+eax]
	mov	eax, esi
$LL213@torus_arc_:

; 1735 :          gdata[i].x[j] += per[m][j];

	fld	QWORD PTR [ecx]
	inc	edx
	fadd	QWORD PTR [eax]
	add	ecx, 8
	add	eax, 8
	fstp	QWORD PTR [eax-8]
	cmp	edx, DWORD PTR _web+616
	jl	SHORT $LL213@torus_arc_
$LN89@torus_arc_:

; 1733 :        for ( i = 0 ; i < 3 ; i++ )

	add	esi, 144				; 00000090H
	dec	edi
	jne	SHORT $LL90@torus_arc_

; 1736 :     }
; 1737 :     else /* split in at least two */

	fldz
	jmp	$LN203@torus_arc_
$LN92@torus_arc_:

; 1738 :     { if ( theta2 > angle2 )

	fcom	ST(3)
	fnstsw	ax
	test	ah, 5
	jp	$LN250@torus_arc_
	fstp	ST(3)
	fstp	ST(1)
	fstp	ST(0)

; 1739 :       { /* split in half, top half in gdata in case of further split on top */
; 1740 :         if ( wrap[0] >= 0 )

	test	edi, edi
	js	$LN253@torus_arc_

; 1741 :         { gdata1[0].x[0] = x1;
; 1742 :           gdata1[0].x[1] = y1;
; 1743 :           gdata1[0].flags |= EDGE_ARC;

	or	DWORD PTR _gdata1$[ebp+136], 32768	; 00008000H
	fstp	ST(1)
	fld	QWORD PTR _x1$[ebp]
	fstp	QWORD PTR _gdata1$[ebp]
	fld	QWORD PTR _y1$[ebp]
	fstp	QWORD PTR _gdata1$[ebp+8]

; 1744 :           gdata1[1].x[0] = center[0] + radius*cos((angle2+theta1)/2);

	faddp	ST(1), ST(0)
	fmul	QWORD PTR __real@3fe0000000000000
	fst	QWORD PTR tv4238[ebp]
	call	__CIcos
	fmul	QWORD PTR _radius$[ebp]
	fadd	QWORD PTR _center$[ebp]
	fstp	QWORD PTR _gdata1$[ebp+144]

; 1745 :           gdata1[1].x[1] = center[1] + radius*sin((angle2+theta1)/2);

	fld	QWORD PTR tv4238[ebp]
	call	__CIsin
	fmul	QWORD PTR _radius$[ebp]

; 1746 :           gdata1[2] = gdata[2];

	mov	esi, DWORD PTR _gdata$GSCopy$[ebp]
	mov	ecx, 36					; 00000024H
	fadd	QWORD PTR _center$[ebp+8]
	add	esi, 288				; 00000120H
	lea	edi, DWORD PTR _gdata1$[ebp+288]
	fstp	QWORD PTR _gdata1$[ebp+152]
	rep movsd

; 1747 :   
; 1748 :           gdata[1].x[0] = center[0] + radius*cos((angle1+theta1)/2);

	fld	QWORD PTR _theta1$[ebp]
	fadd	QWORD PTR _angle1$[ebp]
	fmul	QWORD PTR __real@3fe0000000000000
	fst	QWORD PTR tv4248[ebp]
	call	__CIcos
	mov	eax, DWORD PTR _gdata$GSCopy$[ebp]
	fmul	QWORD PTR _radius$[ebp]
	fadd	QWORD PTR _center$[ebp]
	fstp	QWORD PTR [eax+144]

; 1749 :           gdata[1].x[1] = center[1] + radius*sin((angle1+theta1)/2);

	fld	QWORD PTR tv4248[ebp]
	call	__CIsin
	fmul	QWORD PTR _radius$[ebp]
	mov	eax, DWORD PTR _gdata$GSCopy$[ebp]
	mov	edx, DWORD PTR _per$[ebp]
	fadd	QWORD PTR _center$[ebp+8]
	fstp	QWORD PTR [eax+152]

; 1750 :           gdata[2].x[0] = x1;

	fld	QWORD PTR _x1$[ebp]
	mov	DWORD PTR tv5888[ebp], 0
	fstp	QWORD PTR [eax+288]

; 1751 :           gdata[2].x[1] = y1;

	fld	QWORD PTR _y1$[ebp]
	fstp	QWORD PTR [eax+296]
	mov	esi, DWORD PTR _web+616
	lea	eax, DWORD PTR _gdata1$[ebp+8]
	mov	DWORD PTR tv5904[ebp], eax
$LL81@torus_arc_:

; 1753 :            for ( j = 0 ; j < SDIM ; j++ )

	xor	ecx, ecx
	cmp	esi, 4
	jl	SHORT $LC180@torus_arc_
	npad	2
$LL181@torus_arc_:

; 1754 :             gdata1[i].x[j] += per[m][j];

	mov	edi, DWORD PTR [ebx+edx]
	fld	QWORD PTR [edi+ecx*8]
	add	ecx, 4
	fadd	QWORD PTR [eax-8]
	add	eax, 32					; 00000020H
	fstp	QWORD PTR [eax-40]
	mov	edi, DWORD PTR [ebx+edx]
	fld	QWORD PTR [edi+ecx*8-24]
	fadd	QWORD PTR [eax-32]
	fstp	QWORD PTR [eax-32]
	mov	edi, DWORD PTR [ebx+edx]
	fld	QWORD PTR [edi+ecx*8-16]
	fadd	QWORD PTR [eax-24]
	fstp	QWORD PTR [eax-24]
	mov	edi, DWORD PTR [ebx+edx]
	fld	QWORD PTR [edi+ecx*8-8]
	lea	edi, DWORD PTR [esi-3]
	fadd	QWORD PTR [eax-16]
	fstp	QWORD PTR [eax-16]
	cmp	ecx, edi
	jl	SHORT $LL181@torus_arc_
$LC180@torus_arc_:

; 1753 :            for ( j = 0 ; j < SDIM ; j++ )

	cmp	ecx, esi
	jge	SHORT $LN80@torus_arc_
	mov	eax, DWORD PTR tv5888[ebp]
	add	eax, ecx
	lea	eax, DWORD PTR _gdata1$[ebp+eax*8]
$LC78@torus_arc_:

; 1754 :             gdata1[i].x[j] += per[m][j];

	mov	edi, DWORD PTR [ebx+edx]
	fld	QWORD PTR [edi+ecx*8]
	inc	ecx
	fadd	QWORD PTR [eax]
	add	eax, 8
	fstp	QWORD PTR [eax-8]
	cmp	ecx, esi
	jl	SHORT $LC78@torus_arc_
$LN80@torus_arc_:

; 1752 :           for ( i = 0 ; i < 3 ; i++ )

	mov	ecx, DWORD PTR tv5888[ebp]
	mov	eax, DWORD PTR tv5904[ebp]
	add	ecx, 18					; 00000012H
	add	eax, 144				; 00000090H
	mov	DWORD PTR tv5904[ebp], eax
	mov	DWORD PTR tv5888[ebp], ecx
	cmp	ecx, 54					; 00000036H
	jl	$LL81@torus_arc_

; 1755 :         }
; 1756 :         else

	mov	edi, DWORD PTR _m$GSCopy$[ebp]
	jmp	$LN52@torus_arc_
$LN253@torus_arc_:

; 1757 :         { gdata1[0] = gdata[0];

	mov	esi, DWORD PTR _gdata$GSCopy$[ebp]
	fstp	ST(0)

; 1758 :           gdata1[1].x[0] = center[0] + radius*cos((angle1+theta1)/2);

	faddp	ST(1), ST(0)
	mov	ecx, 36					; 00000024H
	lea	edi, DWORD PTR _gdata1$[ebp]
	rep movsd
	fmul	QWORD PTR __real@3fe0000000000000
	fst	QWORD PTR tv4248[ebp]
	call	__CIcos
	fmul	QWORD PTR _radius$[ebp]
	fadd	QWORD PTR _center$[ebp]
	fstp	QWORD PTR _gdata1$[ebp+144]

; 1759 :           gdata1[1].x[1] = center[1] + radius*sin((angle1+theta1)/2);

	fld	QWORD PTR tv4248[ebp]
	call	__CIsin
	fmul	QWORD PTR _radius$[ebp]

; 1760 :           gdata1[2].x[0] = x1;
; 1761 :           gdata1[2].x[1] = y1;
; 1762 :   
; 1763 :           gdata[0].x[0] = x1;

	mov	esi, DWORD PTR _gdata$GSCopy$[ebp]
	fadd	QWORD PTR _center$[ebp+8]
	fstp	QWORD PTR _gdata1$[ebp+152]
	fld	QWORD PTR _x1$[ebp]
	fst	QWORD PTR _gdata1$[ebp+288]
	fld	QWORD PTR _y1$[ebp]
	fst	QWORD PTR _gdata1$[ebp+296]
	fxch	ST(1)
	fstp	QWORD PTR [esi]

; 1764 :           gdata[0].x[1] = y1;

	fstp	QWORD PTR [esi+8]

; 1765 :           gdata[1].x[0] = center[0] + radius*cos((angle2+theta1)/2);

	fld	QWORD PTR _theta1$[ebp]
	fadd	QWORD PTR _angle2$[ebp]
	fmul	QWORD PTR __real@3fe0000000000000
	fst	QWORD PTR tv4238[ebp]
	call	__CIcos
	fmul	QWORD PTR _radius$[ebp]
	fadd	QWORD PTR _center$[ebp]
	fstp	QWORD PTR [esi+144]

; 1766 :           gdata[1].x[1] = center[1] + radius*sin((angle2+theta1)/2);

	fld	QWORD PTR tv4238[ebp]
	call	__CIsin
	fmul	QWORD PTR _radius$[ebp]
	mov	edx, DWORD PTR _per$[ebp]
	lea	eax, DWORD PTR _gdata1$[ebp+8]
	fadd	QWORD PTR _center$[ebp+8]
	mov	DWORD PTR tv6208[ebp], 0
	mov	DWORD PTR tv6224[ebp], eax
	fstp	QWORD PTR [esi+152]
	mov	esi, DWORD PTR _web+616
$LL74@torus_arc_:

; 1768 :            for ( j = 0 ; j < SDIM ; j++ )

	xor	ecx, ecx
	cmp	esi, 4
	jl	SHORT $LC183@torus_arc_
	npad	5
$LL184@torus_arc_:

; 1769 :             gdata1[i].x[j] += per[m][j];

	mov	edi, DWORD PTR [ebx+edx]
	fld	QWORD PTR [edi+ecx*8]
	add	ecx, 4
	fadd	QWORD PTR [eax-8]
	add	eax, 32					; 00000020H
	fstp	QWORD PTR [eax-40]
	mov	edi, DWORD PTR [ebx+edx]
	fld	QWORD PTR [edi+ecx*8-24]
	fadd	QWORD PTR [eax-32]
	fstp	QWORD PTR [eax-32]
	mov	edi, DWORD PTR [ebx+edx]
	fld	QWORD PTR [edi+ecx*8-16]
	fadd	QWORD PTR [eax-24]
	fstp	QWORD PTR [eax-24]
	mov	edi, DWORD PTR [ebx+edx]
	fld	QWORD PTR [edi+ecx*8-8]
	lea	edi, DWORD PTR [esi-3]
	fadd	QWORD PTR [eax-16]
	fstp	QWORD PTR [eax-16]
	cmp	ecx, edi
	jl	SHORT $LL184@torus_arc_
$LC183@torus_arc_:

; 1768 :            for ( j = 0 ; j < SDIM ; j++ )

	cmp	ecx, esi
	jge	SHORT $LN73@torus_arc_
	mov	eax, DWORD PTR tv6208[ebp]
	add	eax, ecx
	lea	eax, DWORD PTR _gdata1$[ebp+eax*8]
$LC71@torus_arc_:

; 1769 :             gdata1[i].x[j] += per[m][j];

	mov	edi, DWORD PTR [ebx+edx]
	fld	QWORD PTR [edi+ecx*8]
	inc	ecx
	fadd	QWORD PTR [eax]
	add	eax, 8
	fstp	QWORD PTR [eax-8]
	cmp	ecx, esi
	jl	SHORT $LC71@torus_arc_
$LN73@torus_arc_:

; 1767 :           for ( i = 0 ; i < 3 ; i++ )

	mov	ecx, DWORD PTR tv6208[ebp]
	mov	eax, DWORD PTR tv6224[ebp]
	add	ecx, 18					; 00000012H
	add	eax, 144				; 00000090H
	mov	DWORD PTR tv6224[ebp], eax
	mov	DWORD PTR tv6208[ebp], ecx
	cmp	ecx, 54					; 00000036H
	jl	$LL74@torus_arc_

; 1770 :         }
; 1771 :       }
; 1772 :       else /* split in three */

	mov	edi, DWORD PTR _m$GSCopy$[ebp]
	jmp	$LN52@torus_arc_
$LN250@torus_arc_:

; 1738 :     { if ( theta2 > angle2 )

	fstp	ST(5)
	fstp	ST(3)

; 1773 :       { if ( wrap[0] >= 0 )
; 1774 :         {
; 1775 :           gdata2[0].x[0] = x2;

	fstp	QWORD PTR _gdata2$[ebp]

; 1776 :           gdata2[0].x[1] = y2;

	fxch	ST(1)
	fstp	QWORD PTR _gdata2$[ebp+8]

; 1777 :           gdata2[1].x[0] = center[0] + radius*cos((angle2+theta2)/2);

	faddp	ST(1), ST(0)
	fmul	QWORD PTR __real@3fe0000000000000
	fst	QWORD PTR tv4311[ebp]
	call	__CIcos
	fmul	QWORD PTR _radius$[ebp]
	fadd	QWORD PTR _center$[ebp]
	fstp	QWORD PTR _gdata2$[ebp+144]

; 1778 :           gdata2[1].x[1] = center[1] + radius*sin((angle2+theta2)/2);

	fld	QWORD PTR tv4311[ebp]
	call	__CIsin
	fmul	QWORD PTR _radius$[ebp]

; 1779 :           gdata2[2] = gdata[2];

	mov	esi, DWORD PTR _gdata$GSCopy$[ebp]
	add	esi, 288				; 00000120H
	fadd	QWORD PTR _center$[ebp+8]
	test	edi, edi
	mov	ecx, 36					; 00000024H
	lea	edi, DWORD PTR _gdata2$[ebp+288]
	fstp	QWORD PTR _gdata2$[ebp+152]
	rep movsd
	js	$LN67@torus_arc_

; 1780 :           gdata2[0].flags |= EDGE_ARC;
; 1781 :   
; 1782 :           gdata1[0].flags |= EDGE_ARC;
; 1783 :           gdata1[0].x[0] = x2;

	fld	QWORD PTR _x2$[ebp]
	mov	eax, 32768				; 00008000H
	or	DWORD PTR _gdata2$[ebp+136], eax
	fstp	QWORD PTR _gdata1$[ebp]

; 1784 :           gdata1[0].x[1] = y2;

	fld	QWORD PTR _y2$[ebp]
	or	DWORD PTR _gdata1$[ebp+136], eax
	fstp	QWORD PTR _gdata1$[ebp+8]

; 1785 :           gdata1[1].x[0] = center[0] + radius*cos((theta2+theta1)/2);

	fld	QWORD PTR _theta2$[ebp]
	fadd	QWORD PTR _theta1$[ebp]
	fmul	QWORD PTR __real@3fe0000000000000
	fst	QWORD PTR tv4321[ebp]
	call	__CIcos
	fmul	QWORD PTR _radius$[ebp]
	fadd	QWORD PTR _center$[ebp]
	fstp	QWORD PTR _gdata1$[ebp+144]

; 1786 :           gdata1[1].x[1] = center[1] + radius*sin((theta2+theta1)/2);

	fld	QWORD PTR tv4321[ebp]
	call	__CIsin
	fmul	QWORD PTR _radius$[ebp]
	fadd	QWORD PTR _center$[ebp+8]
	fstp	QWORD PTR _gdata1$[ebp+152]

; 1787 :           gdata1[2].x[0] = x1;

	fld	QWORD PTR _x1$[ebp]
	fstp	QWORD PTR _gdata1$[ebp+288]

; 1788 :           gdata1[2].x[1] = y1;

	fld	QWORD PTR _y1$[ebp]
	fstp	QWORD PTR _gdata1$[ebp+296]

; 1789 :   
; 1790 :           gdata[1].x[0] = center[0] + radius*cos((angle1+theta1)/2);

	fld	QWORD PTR _theta1$[ebp]
	fadd	QWORD PTR _angle1$[ebp]
	fmul	QWORD PTR __real@3fe0000000000000
	fst	QWORD PTR tv4248[ebp]
	call	__CIcos
	fmul	QWORD PTR _radius$[ebp]
	mov	eax, DWORD PTR _gdata$GSCopy$[ebp]
	fadd	QWORD PTR _center$[ebp]
	fstp	QWORD PTR [eax+144]

; 1791 :           gdata[1].x[1] = center[1] + radius*sin((angle1+theta1)/2);

	fld	QWORD PTR tv4248[ebp]
	call	__CIsin
	fmul	QWORD PTR _radius$[ebp]
	mov	eax, DWORD PTR _gdata$GSCopy$[ebp]
	mov	edx, DWORD PTR _per$[ebp]
	fadd	QWORD PTR _center$[ebp+8]
	fstp	QWORD PTR [eax+152]

; 1792 :           gdata[2].x[0] = x1;

	fld	QWORD PTR _x1$[ebp]
	mov	DWORD PTR tv6528[ebp], 0
	fstp	QWORD PTR [eax+288]

; 1793 :           gdata[2].x[1] = y1;

	fld	QWORD PTR _y1$[ebp]
	fstp	QWORD PTR [eax+296]
	mov	edi, DWORD PTR _web+616
	lea	eax, DWORD PTR _gdata1$[ebp+8]
	mov	DWORD PTR tv6544[ebp], eax
	npad	2
$LL66@torus_arc_:

; 1795 :            for ( j = 0 ; j < SDIM ; j++ )

	xor	ecx, ecx
	cmp	edi, 4
	jl	SHORT $LC186@torus_arc_
$LL187@torus_arc_:

; 1796 :             gdata1[i].x[j] += per[m][j];

	mov	esi, DWORD PTR [ebx+edx]
	fld	QWORD PTR [esi+ecx*8]
	add	ecx, 4
	fadd	QWORD PTR [eax-8]
	add	eax, 32					; 00000020H
	fstp	QWORD PTR [eax-40]
	mov	esi, DWORD PTR [ebx+edx]
	fld	QWORD PTR [esi+ecx*8-24]
	fadd	QWORD PTR [eax-32]
	fstp	QWORD PTR [eax-32]
	mov	esi, DWORD PTR [ebx+edx]
	fld	QWORD PTR [esi+ecx*8-16]
	fadd	QWORD PTR [eax-24]
	fstp	QWORD PTR [eax-24]
	mov	esi, DWORD PTR [ebx+edx]
	fld	QWORD PTR [esi+ecx*8-8]
	lea	esi, DWORD PTR [edi-3]
	fadd	QWORD PTR [eax-16]
	fstp	QWORD PTR [eax-16]
	cmp	ecx, esi
	jl	SHORT $LL187@torus_arc_
$LC186@torus_arc_:

; 1795 :            for ( j = 0 ; j < SDIM ; j++ )

	cmp	ecx, edi
	jge	SHORT $LN65@torus_arc_
	mov	eax, DWORD PTR tv6528[ebp]
	add	eax, ecx
	lea	eax, DWORD PTR _gdata1$[ebp+eax*8]
	npad	6
$LC63@torus_arc_:

; 1796 :             gdata1[i].x[j] += per[m][j];

	mov	esi, DWORD PTR [ebx+edx]
	fld	QWORD PTR [esi+ecx*8]
	inc	ecx
	fadd	QWORD PTR [eax]
	add	eax, 8
	fstp	QWORD PTR [eax-8]
	cmp	ecx, edi
	jl	SHORT $LC63@torus_arc_
$LN65@torus_arc_:

; 1794 :           for ( i = 0 ; i < 3 ; i++ )

	mov	ecx, DWORD PTR tv6528[ebp]
	mov	eax, DWORD PTR tv6544[ebp]
	add	ecx, 18					; 00000012H
	add	eax, 144				; 00000090H
	mov	DWORD PTR tv6544[ebp], eax
	mov	DWORD PTR tv6528[ebp], ecx
	cmp	ecx, 54					; 00000036H
	jl	$LL66@torus_arc_

; 1797 :         }
; 1798 :         else

	jmp	$LN57@torus_arc_
$LN67@torus_arc_:

; 1799 :         {
; 1800 :           gdata2[0].x[0] = x2;
; 1801 :           gdata2[0].x[1] = y2;
; 1802 :           gdata2[1].x[0] = center[0] + radius*cos((angle2+theta2)/2);
; 1803 :           gdata2[1].x[1] = center[1] + radius*sin((angle2+theta2)/2);
; 1804 :           gdata2[2] = gdata[2];
; 1805 :           gdata2[0].flags |= EDGE_ARC;
; 1806 :   
; 1807 :           gdata1[0] = gdata[0];
; 1808 :           gdata1[1].x[0] = center[0] + radius*cos((angle1+theta1)/2);

	fld	QWORD PTR _theta1$[ebp]
	mov	esi, DWORD PTR _gdata$GSCopy$[ebp]
	fadd	QWORD PTR _angle1$[ebp]
	or	DWORD PTR _gdata2$[ebp+136], 32768	; 00008000H
	mov	ecx, 36					; 00000024H
	lea	edi, DWORD PTR _gdata1$[ebp]
	fmul	QWORD PTR __real@3fe0000000000000
	rep movsd
	fst	QWORD PTR tv4248[ebp]
	call	__CIcos
	fmul	QWORD PTR _radius$[ebp]
	fadd	QWORD PTR _center$[ebp]
	fstp	QWORD PTR _gdata1$[ebp+144]

; 1809 :           gdata1[1].x[1] = center[1] + radius*sin((angle1+theta1)/2);

	fld	QWORD PTR tv4248[ebp]
	call	__CIsin
	fmul	QWORD PTR _radius$[ebp]

; 1810 :           gdata1[2].x[0] = x1;
; 1811 :           gdata1[2].x[1] = y1;
; 1812 :   
; 1813 :           gdata[0].x[0] = x2;

	mov	esi, DWORD PTR _gdata$GSCopy$[ebp]
	fadd	QWORD PTR _center$[ebp+8]
	fstp	QWORD PTR _gdata1$[ebp+152]
	fld	QWORD PTR _x1$[ebp]
	fstp	QWORD PTR _gdata1$[ebp+288]
	fld	QWORD PTR _y1$[ebp]
	fstp	QWORD PTR _gdata1$[ebp+296]
	fld	QWORD PTR _x2$[ebp]
	fstp	QWORD PTR [esi]

; 1814 :           gdata[0].x[1] = y2;

	fld	QWORD PTR _y2$[ebp]
	fstp	QWORD PTR [esi+8]

; 1815 :           gdata[1].x[0] = center[0] + radius*cos((theta2+theta1)/2);

	fld	QWORD PTR _theta2$[ebp]
	fadd	QWORD PTR _theta1$[ebp]
	fmul	QWORD PTR __real@3fe0000000000000
	fst	QWORD PTR tv4321[ebp]
	call	__CIcos
	fmul	QWORD PTR _radius$[ebp]
	fadd	QWORD PTR _center$[ebp]
	fstp	QWORD PTR [esi+144]

; 1816 :           gdata[1].x[1] = center[1] + radius*sin((theta2+theta1)/2);

	fld	QWORD PTR tv4321[ebp]
	call	__CIsin
	fmul	QWORD PTR _radius$[ebp]
	mov	edx, DWORD PTR _per$[ebp]
	xor	ecx, ecx
	fadd	QWORD PTR _center$[ebp+8]
	fstp	QWORD PTR [esi+152]

; 1817 :           gdata[2].x[0] = x1;

	fld	QWORD PTR _x1$[ebp]
	fstp	QWORD PTR [esi+288]

; 1818 :           gdata[2].x[1] = y1;

	fld	QWORD PTR _y1$[ebp]
	fstp	QWORD PTR [esi+296]
	mov	edi, DWORD PTR _web+616
	npad	5
$LL59@torus_arc_:

; 1821 :            for ( j = 0 ; j < SDIM ; j++ )

	xor	eax, eax
	cmp	edi, 4
	jl	$LC189@torus_arc_
	npad	5
$LL190@torus_arc_:

; 1822 :            { gdata1[i].x[j] += per[m][j];

	mov	edi, DWORD PTR [ebx+edx]
	fld	QWORD PTR [edi+eax*8]

; 1823 :              gdata2[i].x[j] += per[m][j];

	lea	esi, DWORD PTR [ecx+eax*8]
	fadd	QWORD PTR _gdata1$[ebp+esi]
	lea	esi, DWORD PTR _gdata1$[ebp+esi]
	fstp	QWORD PTR [esi]
	mov	edi, DWORD PTR [ebx+edx]
	fld	QWORD PTR [edi+eax*8]
	lea	esi, DWORD PTR [ecx+eax*8]
	fadd	QWORD PTR _gdata2$[ebp+esi]
	lea	esi, DWORD PTR _gdata2$[ebp+esi]
	fstp	QWORD PTR [esi]
	mov	edi, DWORD PTR [ebx+edx]
	fld	QWORD PTR [edi+eax*8+8]
	lea	esi, DWORD PTR [ecx+eax*8]
	fadd	QWORD PTR _gdata1$[ebp+esi+8]
	lea	esi, DWORD PTR _gdata1$[ebp+esi+8]
	fstp	QWORD PTR [esi]
	mov	edi, DWORD PTR [ebx+edx]
	fld	QWORD PTR [edi+eax*8+8]
	lea	esi, DWORD PTR [ecx+eax*8]
	fadd	QWORD PTR _gdata2$[ebp+esi+8]
	lea	esi, DWORD PTR _gdata2$[ebp+esi+8]
	fstp	QWORD PTR [esi]
	mov	edi, DWORD PTR [ebx+edx]
	fld	QWORD PTR [edi+eax*8+16]
	lea	esi, DWORD PTR [ecx+eax*8]
	fadd	QWORD PTR _gdata1$[ebp+esi+16]
	lea	esi, DWORD PTR _gdata1$[ebp+esi+16]
	fstp	QWORD PTR [esi]
	mov	edi, DWORD PTR [ebx+edx]
	fld	QWORD PTR [edi+eax*8+16]
	lea	esi, DWORD PTR [ecx+eax*8]
	fadd	QWORD PTR _gdata2$[ebp+esi+16]
	lea	esi, DWORD PTR _gdata2$[ebp+esi+16]
	fstp	QWORD PTR [esi]
	mov	edi, DWORD PTR [ebx+edx]
	fld	QWORD PTR [edi+eax*8+24]
	lea	esi, DWORD PTR [ecx+eax*8]
	fadd	QWORD PTR _gdata1$[ebp+esi+24]
	lea	esi, DWORD PTR _gdata1$[ebp+esi+24]
	fstp	QWORD PTR [esi]
	mov	edi, DWORD PTR [ebx+edx]
	fld	QWORD PTR [edi+eax*8+24]
	mov	edi, DWORD PTR _web+616
	lea	esi, DWORD PTR [ecx+eax*8]
	fadd	QWORD PTR _gdata2$[ebp+esi+24]
	lea	esi, DWORD PTR _gdata2$[ebp+esi+24]
	add	eax, 4
	fstp	QWORD PTR [esi]
	lea	esi, DWORD PTR [edi-3]
	cmp	eax, esi
	jl	$LL190@torus_arc_
$LC189@torus_arc_:

; 1821 :            for ( j = 0 ; j < SDIM ; j++ )

	cmp	eax, edi
	jge	SHORT $LN58@torus_arc_
	npad	10
$LC56@torus_arc_:
	lea	esi, DWORD PTR [ecx+eax*8]
	lea	esi, DWORD PTR _gdata1$[ebp+esi]
	mov	DWORD PTR tv10021[ebp], esi

; 1822 :            { gdata1[i].x[j] += per[m][j];

	mov	esi, DWORD PTR [ebx+edx]
	fld	QWORD PTR [esi+eax*8]
	mov	esi, DWORD PTR tv10021[ebp]
	fadd	QWORD PTR [esi]
	fstp	QWORD PTR [esi]
	lea	esi, DWORD PTR [ecx+eax*8]
	lea	esi, DWORD PTR _gdata2$[ebp+esi]
	mov	DWORD PTR tv10031[ebp], esi

; 1823 :              gdata2[i].x[j] += per[m][j];

	mov	esi, DWORD PTR [ebx+edx]
	fld	QWORD PTR [esi+eax*8]
	mov	esi, DWORD PTR tv10031[ebp]
	fadd	QWORD PTR [esi]
	inc	eax
	fstp	QWORD PTR [esi]
	cmp	eax, edi
	jl	SHORT $LC56@torus_arc_
$LN58@torus_arc_:

; 1819 :   
; 1820 :           for ( i = 0 ; i < 3 ; i++ )

	add	ecx, 144				; 00000090H
	cmp	ecx, 432				; 000001b0H
	jl	$LL59@torus_arc_
$LN57@torus_arc_:

; 1824 :            }
; 1825 :         }
; 1826 :         /* send on for further check, or plot */
; 1827 :         if ( m == SDIM-1 ) 

	lea	ecx, DWORD PTR [edi-1]
	mov	edi, DWORD PTR _m$GSCopy$[ebp]
	cmp	edi, ecx
	jne	SHORT $LN53@torus_arc_

; 1828 :           (*graph_edge_transforms)(gdata2,gdata[0].id);

	mov	edx, DWORD PTR _gdata$GSCopy$[ebp]
	mov	eax, DWORD PTR [edx+128]
	push	eax
	lea	ecx, DWORD PTR _gdata2$[ebp]
	push	ecx
	call	_graph_edge_transforms

; 1829 :         else

	jmp	SHORT $LN300@torus_arc_
$LN53@torus_arc_:

; 1830 :           torus_edge_clip(gdata2,m+1);

	lea	edx, DWORD PTR [edi+1]
	push	edx
	lea	eax, DWORD PTR _gdata2$[ebp]
	push	eax
	call	_torus_edge_clip
$LN300@torus_arc_:
	mov	esi, DWORD PTR _web+616
	add	esp, 8
$LN52@torus_arc_:

; 1831 :       }
; 1832 :       /* send on for further check, or plot */
; 1833 :       if ( m == SDIM-1 ) 

	dec	esi
	cmp	edi, esi
	jne	SHORT $LN51@torus_arc_

; 1834 :         (*graph_edge_transforms)(gdata1,gdata[0].id);

	mov	ecx, DWORD PTR _gdata$GSCopy$[ebp]
	mov	edx, DWORD PTR [ecx+128]
	push	edx
	lea	eax, DWORD PTR _gdata1$[ebp]
	push	eax
	call	_graph_edge_transforms
	add	esp, 8
$LN207@torus_arc_:

; 1835 :       else

	fldz
	jmp	SHORT $LN203@torus_arc_
$LN51@torus_arc_:

; 1836 :         torus_edge_clip(gdata1,m+1);

	inc	edi
	lea	ecx, DWORD PTR _gdata1$[ebp]
	push	edi
	push	ecx
	call	_torus_edge_clip
	fldz
	add	esp, 8
	jmp	SHORT $LN203@torus_arc_
$LN226@torus_arc_:
	fstp	ST(2)
	fstp	ST(1)
$LN203@torus_arc_:

; 1837 :     }
; 1838 :   }
; 1839 : 
; 1840 :   /* intersect with line for high side */
; 1841 :   h = center[0]; k = center[1]; 
; 1842 :   u = per[1-m][0]; v = per[1-m][1];

	mov	edx, DWORD PTR tv4147[ebp]
	mov	eax, DWORD PTR [edx]
	fld	QWORD PTR [eax]
	fst	QWORD PTR _u$[ebp]
	fld	QWORD PTR [eax+8]

; 1843 :   x0 = per[m][0]; y0 = per[m][1];

	mov	eax, DWORD PTR _per$[ebp]
	mov	eax, DWORD PTR [ebx+eax]
	fst	QWORD PTR _v$[ebp]
	fld	QWORD PTR [eax]
	fst	QWORD PTR _x0$[ebp]
	fld	QWORD PTR [eax+8]
	fst	QWORD PTR _y0$[ebp]

; 1844 :   a = u*u + v*v;

	fld	ST(2)
	fmul	ST(0), ST(3)
	fld	ST(4)
	fmul	ST(0), ST(5)
	faddp	ST(1), ST(0)
	fst	QWORD PTR _a$[ebp]

; 1845 :   b = 2*(u*(x0-h) + v*(y0-k));

	fxch	ST(1)
	fsub	QWORD PTR _center$[ebp+8]
	fxch	ST(2)
	fsub	QWORD PTR _center$[ebp]
	fld	ST(2)
	fmulp	ST(4), ST(0)
	fld	ST(0)
	fmulp	ST(5), ST(0)
	fxch	ST(3)
	faddp	ST(4), ST(0)
	fxch	ST(3)
	fadd	ST(0), ST(0)
	fst	QWORD PTR _b$[ebp]

; 1846 :   c = (x0-h)*(x0-h) + (y0-k)*(y0-k) - radius*radius;

	fld	ST(2)
	fmulp	ST(3), ST(0)
	fld	ST(1)
	fmulp	ST(2), ST(0)
	fxch	ST(2)
	faddp	ST(1), ST(0)
	fsub	QWORD PTR tv4170[ebp]
	fst	QWORD PTR _c$[ebp]

; 1847 :   discr = b*b - 4*a*c;

	fld	ST(1)
	fmul	ST(0), ST(2)
	fxch	ST(3)
	fmul	QWORD PTR __real@4010000000000000
	fmulp	ST(1), ST(0)
	fsubp	ST(2), ST(0)

; 1848 :   if ( discr > 0.0 )

	fxch	ST(1)
	fcom	ST(2)
	fnstsw	ax
	test	ah, 65					; 00000041H
	jne	$LN262@torus_arc_

; 1849 :   { /* potential intersection */
; 1850 :     t1 = b > 0.0 ? -2*c/(b + sqrt(discr)) : (-b + sqrt(discr))/2/a;

	fxch	ST(1)
	fcomp	ST(2)
	fnstsw	ax
	fstp	ST(1)
	test	ah, 65					; 00000041H
	jne	SHORT $LN120@torus_arc_
	call	__CIsqrt
	fld	QWORD PTR _c$[ebp]
	fmul	QWORD PTR __real@c000000000000000
	fld	QWORD PTR _b$[ebp]
	fld	ST(0)
	fadd	ST(0), ST(3)
	fdivp	ST(2), ST(0)
	jmp	SHORT $LN121@torus_arc_
$LN120@torus_arc_:
	call	__CIsqrt
	fld	ST(0)
	fld	QWORD PTR _b$[ebp]
	fsub	ST(1), ST(0)
	fxch	ST(1)
	fmul	QWORD PTR __real@3fe0000000000000
	fdiv	QWORD PTR _a$[ebp]
	fxch	ST(1)
$LN121@torus_arc_:

; 1851 :     t2 = b > 0.0 ? (-b - sqrt(discr))/2/a : -2*c/(b - sqrt(discr));

	fldz
	fcomp	ST(1)
	fnstsw	ax
	test	ah, 5
	jp	SHORT $LN122@torus_arc_
	fchs
	fsubrp	ST(2), ST(0)
	fxch	ST(1)
	fmul	QWORD PTR __real@3fe0000000000000
	fdiv	QWORD PTR _a$[ebp]
	jmp	SHORT $LN123@torus_arc_
$LN122@torus_arc_:
	fld	QWORD PTR _c$[ebp]
	fmul	QWORD PTR __real@c000000000000000
	fxch	ST(1)
	fsubrp	ST(3), ST(0)
	fdivrp	ST(2), ST(0)
	fxch	ST(1)
$LN123@torus_arc_:

; 1852 :     x1 = x0 + t1*u; y1 = y0 + t1*v;

	fld	ST(1)
	fld	QWORD PTR _u$[ebp]
	fmul	ST(1), ST(0)
	fld	QWORD PTR _x0$[ebp]
	fadd	ST(2), ST(0)
	fxch	ST(2)
	fst	QWORD PTR _x1$[ebp]
	fld	QWORD PTR _v$[ebp]
	fmul	ST(5), ST(0)
	fld	QWORD PTR _y0$[ebp]
	fadd	ST(6), ST(0)
	fxch	ST(6)
	fst	QWORD PTR _y1$[ebp]

; 1853 :     x2 = x0 + t2*u; y2 = y0 + t2*v;

	fld	ST(5)
	fmulp	ST(4), ST(0)
	fxch	ST(3)
	faddp	ST(4), ST(0)
	fxch	ST(3)
	fstp	QWORD PTR _x2$[ebp]
	fxch	ST(3)
	fmulp	ST(2), ST(0)
	fxch	ST(1)
	faddp	ST(3), ST(0)
	fxch	ST(2)
	fstp	QWORD PTR _y2$[ebp]

; 1854 :     theta1 = atan2(y1-center[1],x1-center[0]) - 0.000000001;

	fxch	ST(1)
	fsub	QWORD PTR _center$[ebp+8]
	fxch	ST(1)
	fsub	QWORD PTR _center$[ebp]
	call	__CIatan2
	fsub	QWORD PTR __real@3e112e0be826d695
	fstp	QWORD PTR _theta1$[ebp]

; 1855 :     theta2 = atan2(y2-center[1],x2-center[0]);

	fld	QWORD PTR _y2$[ebp]
	fsub	QWORD PTR _center$[ebp+8]
	fld	QWORD PTR _x2$[ebp]
	fsub	QWORD PTR _center$[ebp]
	call	__CIatan2
	fst	QWORD PTR _theta2$[ebp]

; 1856 :     if ( theta1 < angle1 )  theta1 += 2*M_PI;

	fld	QWORD PTR _angle1$[ebp]
	fld	QWORD PTR _theta1$[ebp]
	fcom	ST(1)
	fnstsw	ax
	test	ah, 5
	jp	SHORT $LN208@torus_arc_
	fadd	QWORD PTR __real@401921fb54442d18
	fst	QWORD PTR _theta1$[ebp]
$LN208@torus_arc_:

; 1857 :     if ( theta2 < angle1 )  theta2 += 2*M_PI;

	fxch	ST(2)
	fcom	ST(1)
	fnstsw	ax
	test	ah, 5
	jp	SHORT $LN47@torus_arc_
	fadd	QWORD PTR __real@401921fb54442d18
	fst	QWORD PTR _theta2$[ebp]
$LN47@torus_arc_:

; 1858 :     if ( theta1 > theta2 )

	fcom	ST(2)
	fnstsw	ax
	test	ah, 5
	jp	SHORT $LN209@torus_arc_

; 1859 :     { REAL temp = theta1; theta1 = theta2; theta2 = temp;

	fst	QWORD PTR _theta1$[ebp]
	fxch	ST(2)
	fst	QWORD PTR _theta2$[ebp]

; 1860 :       temp = x1; x1 = x2; x2 = temp;

	fld	QWORD PTR _x1$[ebp]
	fld	QWORD PTR _x2$[ebp]
	fstp	QWORD PTR _x1$[ebp]
	fst	QWORD PTR _x2$[ebp]

; 1861 :       temp = y1; y1 = y2; y2 = temp;

	fld	QWORD PTR _y1$[ebp]
	fld	QWORD PTR _y2$[ebp]
	fstp	QWORD PTR _y1$[ebp]
	fst	QWORD PTR _y2$[ebp]
	jmp	SHORT $LN46@torus_arc_
$LN209@torus_arc_:
	fld	QWORD PTR _x2$[ebp]
	fld	QWORD PTR _y2$[ebp]
$LN46@torus_arc_:

; 1862 :     }
; 1863 :     if ( theta1 > angle2 )

	fld	QWORD PTR _angle2$[ebp]
	fcom	ST(5)
	fnstsw	ax
	test	ah, 5
	jp	SHORT $LN45@torus_arc_

; 1864 :     { /* no intersection, but may have to wrap */
; 1865 :       if ( wrap[0] > 0 )

	cmp	DWORD PTR _wrap$[ebp], 0
	fstp	ST(3)
	fstp	ST(2)
	fstp	ST(3)
	fstp	ST(2)
	fstp	ST(1)
	fstp	ST(0)
	jle	$LN3@torus_arc_

; 1866 :        for ( i = 0 ; i < 3 ; i++ )

	mov	esi, DWORD PTR _gdata$GSCopy$[ebp]
	mov	edi, 3
	npad	9
$LL43@torus_arc_:

; 1867 :         for ( j = 0 ; j < SDIM ; j++ )

	xor	edx, edx
	cmp	DWORD PTR _web+616, edx
	jle	SHORT $LN42@torus_arc_
	mov	ecx, DWORD PTR _per$[ebp]
	mov	ecx, DWORD PTR [ebx+ecx]
	mov	eax, esi
$LL212@torus_arc_:

; 1868 :          gdata[i].x[j] -= per[m][j];

	fld	QWORD PTR [eax]
	inc	edx
	fsub	QWORD PTR [ecx]
	add	ecx, 8
	add	eax, 8
	fstp	QWORD PTR [eax-8]
	cmp	edx, DWORD PTR _web+616
	jl	SHORT $LL212@torus_arc_
$LN42@torus_arc_:

; 1866 :        for ( i = 0 ; i < 3 ; i++ )

	add	esi, 144				; 00000090H
	dec	edi
	jne	SHORT $LL43@torus_arc_

; 1869 :     }
; 1870 :     else

	jmp	$LN3@torus_arc_
$LN45@torus_arc_:

; 1871 :     { /* split in at least two */
; 1872 :       if ( theta2 > angle2 )

	fcom	ST(3)
	fnstsw	ax
	test	ah, 5
	jp	$LN286@torus_arc_

; 1873 :       { /* split in half, bottom half in gdata */
; 1874 :         if ( wrap[0] <= 0 )

	cmp	DWORD PTR _wrap$[ebp], 0
	fstp	ST(3)
	fstp	ST(1)
	fstp	ST(0)
	jg	$LN289@torus_arc_

; 1875 :         { gdata1[0].x[0] = x1;
; 1876 :           gdata1[0].x[1] = y1;
; 1877 :           gdata1[0].flags |= EDGE_ARC;

	or	DWORD PTR _gdata1$[ebp+136], 32768	; 00008000H
	fstp	ST(1)
	fld	QWORD PTR _x1$[ebp]
	fstp	QWORD PTR _gdata1$[ebp]
	fld	QWORD PTR _y1$[ebp]
	fstp	QWORD PTR _gdata1$[ebp+8]

; 1878 :           gdata1[1].x[0] = center[0] + radius*cos((angle2+theta1)/2);

	faddp	ST(1), ST(0)
	fmul	QWORD PTR __real@3fe0000000000000
	fst	QWORD PTR tv4238[ebp]
	call	__CIcos
	fmul	QWORD PTR _radius$[ebp]
	fadd	QWORD PTR _center$[ebp]
	fstp	QWORD PTR _gdata1$[ebp+144]

; 1879 :           gdata1[1].x[1] = center[1] + radius*sin((angle2+theta1)/2);

	fld	QWORD PTR tv4238[ebp]
	call	__CIsin
	fmul	QWORD PTR _radius$[ebp]

; 1880 :           gdata1[2] = gdata[2];

	mov	esi, DWORD PTR _gdata$GSCopy$[ebp]
	mov	ecx, 36					; 00000024H
	fadd	QWORD PTR _center$[ebp+8]
	add	esi, 288				; 00000120H
	lea	edi, DWORD PTR _gdata1$[ebp+288]
	fstp	QWORD PTR _gdata1$[ebp+152]
	rep movsd

; 1881 :   
; 1882 :           gdata[1].x[0] = center[0] + radius*cos((angle1+theta1)/2);

	fld	QWORD PTR _theta1$[ebp]
	fadd	QWORD PTR _angle1$[ebp]
	fmul	QWORD PTR __real@3fe0000000000000
	fst	QWORD PTR tv4248[ebp]
	call	__CIcos
	mov	eax, DWORD PTR _gdata$GSCopy$[ebp]
	fmul	QWORD PTR _radius$[ebp]
	fadd	QWORD PTR _center$[ebp]
	fstp	QWORD PTR [eax+144]

; 1883 :           gdata[1].x[1] = center[1] + radius*sin((angle1+theta1)/2);

	fld	QWORD PTR tv4248[ebp]
	call	__CIsin
	fmul	QWORD PTR _radius$[ebp]
	mov	eax, DWORD PTR _gdata$GSCopy$[ebp]
	mov	edx, DWORD PTR _per$[ebp]
	fadd	QWORD PTR _center$[ebp+8]
	fstp	QWORD PTR [eax+152]

; 1884 :           gdata[2].x[0] = x1;

	fld	QWORD PTR _x1$[ebp]
	mov	DWORD PTR tv7900[ebp], 0
	fstp	QWORD PTR [eax+288]

; 1885 :           gdata[2].x[1] = y1;

	fld	QWORD PTR _y1$[ebp]
	fstp	QWORD PTR [eax+296]
	mov	esi, DWORD PTR _web+616
	lea	eax, DWORD PTR _gdata1$[ebp+8]
	mov	DWORD PTR tv7948[ebp], eax
$LL34@torus_arc_:

; 1887 :            for ( j = 0 ; j < SDIM ; j++ )

	xor	ecx, ecx
	cmp	esi, 4
	jl	SHORT $LC192@torus_arc_
	npad	2
$LL193@torus_arc_:

; 1888 :             gdata1[i].x[j] -= per[m][j];

	mov	edi, DWORD PTR [ebx+edx]
	fld	QWORD PTR [eax-8]
	fsub	QWORD PTR [edi+ecx*8]
	add	ecx, 4
	add	eax, 32					; 00000020H
	fstp	QWORD PTR [eax-40]
	mov	edi, DWORD PTR [ebx+edx]
	fld	QWORD PTR [eax-32]
	fsub	QWORD PTR [edi+ecx*8-24]
	fstp	QWORD PTR [eax-32]
	mov	edi, DWORD PTR [ebx+edx]
	fld	QWORD PTR [eax-24]
	fsub	QWORD PTR [edi+ecx*8-16]
	fstp	QWORD PTR [eax-24]
	mov	edi, DWORD PTR [ebx+edx]
	fld	QWORD PTR [eax-16]
	fsub	QWORD PTR [edi+ecx*8-8]
	lea	edi, DWORD PTR [esi-3]
	fstp	QWORD PTR [eax-16]
	cmp	ecx, edi
	jl	SHORT $LL193@torus_arc_
$LC192@torus_arc_:

; 1887 :            for ( j = 0 ; j < SDIM ; j++ )

	cmp	ecx, esi
	jge	SHORT $LN33@torus_arc_
	mov	eax, DWORD PTR tv7900[ebp]
	add	eax, ecx
	lea	eax, DWORD PTR _gdata1$[ebp+eax*8]
$LC31@torus_arc_:

; 1888 :             gdata1[i].x[j] -= per[m][j];

	fld	QWORD PTR [eax]
	mov	edi, DWORD PTR [ebx+edx]
	fsub	QWORD PTR [edi+ecx*8]
	inc	ecx
	add	eax, 8
	fstp	QWORD PTR [eax-8]
	cmp	ecx, esi
	jl	SHORT $LC31@torus_arc_
$LN33@torus_arc_:

; 1886 :           for ( i = 0 ; i < 3 ; i++ )

	mov	ecx, DWORD PTR tv7900[ebp]
	mov	eax, DWORD PTR tv7948[ebp]
	add	ecx, 18					; 00000012H
	add	eax, 144				; 00000090H
	mov	DWORD PTR tv7948[ebp], eax
	mov	DWORD PTR tv7900[ebp], ecx
	cmp	ecx, 54					; 00000036H
	jl	$LL34@torus_arc_

; 1889 :         }
; 1890 :         else

	mov	edi, DWORD PTR _m$GSCopy$[ebp]
	jmp	$LN5@torus_arc_
$LN289@torus_arc_:

; 1891 :         { gdata1[0] = gdata[0];

	mov	esi, DWORD PTR _gdata$GSCopy$[ebp]
	fstp	ST(0)

; 1892 :           gdata1[1].x[0] = center[0] + radius*cos((angle1+theta1)/2);

	faddp	ST(1), ST(0)
	mov	ecx, 36					; 00000024H
	lea	edi, DWORD PTR _gdata1$[ebp]
	rep movsd
	fmul	QWORD PTR __real@3fe0000000000000
	fst	QWORD PTR tv4248[ebp]
	call	__CIcos
	fmul	QWORD PTR _radius$[ebp]
	fadd	QWORD PTR _center$[ebp]
	fstp	QWORD PTR _gdata1$[ebp+144]

; 1893 :           gdata1[1].x[1] = center[1] + radius*sin((angle1+theta1)/2);

	fld	QWORD PTR tv4248[ebp]
	call	__CIsin
	fmul	QWORD PTR _radius$[ebp]

; 1894 :           gdata1[2].x[0] = x1;
; 1895 :           gdata1[2].x[1] = y1;
; 1896 :   
; 1897 :           gdata[0].x[0] = x1;

	mov	esi, DWORD PTR _gdata$GSCopy$[ebp]
	fadd	QWORD PTR _center$[ebp+8]
	fstp	QWORD PTR _gdata1$[ebp+152]
	fld	QWORD PTR _x1$[ebp]
	fst	QWORD PTR _gdata1$[ebp+288]
	fld	QWORD PTR _y1$[ebp]
	fst	QWORD PTR _gdata1$[ebp+296]
	fxch	ST(1)
	fstp	QWORD PTR [esi]

; 1898 :           gdata[0].x[1] = y1;

	fstp	QWORD PTR [esi+8]

; 1899 :           gdata[1].x[0] = center[0] + radius*cos((angle2+theta1)/2);

	fld	QWORD PTR _theta1$[ebp]
	fadd	QWORD PTR _angle2$[ebp]
	fmul	QWORD PTR __real@3fe0000000000000
	fst	QWORD PTR tv4238[ebp]
	call	__CIcos
	fmul	QWORD PTR _radius$[ebp]
	fadd	QWORD PTR _center$[ebp]
	fstp	QWORD PTR [esi+144]

; 1900 :           gdata[1].x[1] = center[1] + radius*sin((angle2+theta1)/2);

	fld	QWORD PTR tv4238[ebp]
	call	__CIsin
	fmul	QWORD PTR _radius$[ebp]
	mov	edx, DWORD PTR _per$[ebp]
	lea	eax, DWORD PTR _gdata1$[ebp+8]
	fadd	QWORD PTR _center$[ebp+8]
	mov	DWORD PTR tv8476[ebp], 0
	mov	DWORD PTR tv8524[ebp], eax
	fstp	QWORD PTR [esi+152]
	mov	esi, DWORD PTR _web+616
$LL27@torus_arc_:

; 1902 :            for ( j = 0 ; j < SDIM ; j++ )

	xor	ecx, ecx
	cmp	esi, 4
	jl	SHORT $LC195@torus_arc_
	npad	5
$LL196@torus_arc_:

; 1903 :             gdata1[i].x[j] -= per[m][j];

	mov	edi, DWORD PTR [ebx+edx]
	fld	QWORD PTR [eax-8]
	fsub	QWORD PTR [edi+ecx*8]
	add	ecx, 4
	add	eax, 32					; 00000020H
	fstp	QWORD PTR [eax-40]
	mov	edi, DWORD PTR [ebx+edx]
	fld	QWORD PTR [eax-32]
	fsub	QWORD PTR [edi+ecx*8-24]
	fstp	QWORD PTR [eax-32]
	mov	edi, DWORD PTR [ebx+edx]
	fld	QWORD PTR [eax-24]
	fsub	QWORD PTR [edi+ecx*8-16]
	fstp	QWORD PTR [eax-24]
	mov	edi, DWORD PTR [ebx+edx]
	fld	QWORD PTR [eax-16]
	fsub	QWORD PTR [edi+ecx*8-8]
	lea	edi, DWORD PTR [esi-3]
	fstp	QWORD PTR [eax-16]
	cmp	ecx, edi
	jl	SHORT $LL196@torus_arc_
$LC195@torus_arc_:

; 1902 :            for ( j = 0 ; j < SDIM ; j++ )

	cmp	ecx, esi
	jge	SHORT $LN26@torus_arc_
	mov	eax, DWORD PTR tv8476[ebp]
	add	eax, ecx
	lea	eax, DWORD PTR _gdata1$[ebp+eax*8]
$LC24@torus_arc_:

; 1903 :             gdata1[i].x[j] -= per[m][j];

	fld	QWORD PTR [eax]
	mov	edi, DWORD PTR [ebx+edx]
	fsub	QWORD PTR [edi+ecx*8]
	inc	ecx
	add	eax, 8
	fstp	QWORD PTR [eax-8]
	cmp	ecx, esi
	jl	SHORT $LC24@torus_arc_
$LN26@torus_arc_:

; 1901 :           for ( i = 0 ; i < 3 ; i++ )

	mov	ecx, DWORD PTR tv8476[ebp]
	mov	eax, DWORD PTR tv8524[ebp]
	add	ecx, 18					; 00000012H
	add	eax, 144				; 00000090H
	mov	DWORD PTR tv8524[ebp], eax
	mov	DWORD PTR tv8476[ebp], ecx
	cmp	ecx, 54					; 00000036H
	jl	$LL27@torus_arc_

; 1904 :         }
; 1905 :       }
; 1906 :       else /* split in three */

	mov	edi, DWORD PTR _m$GSCopy$[ebp]
	jmp	$LN5@torus_arc_
$LN286@torus_arc_:

; 1871 :     { /* split in at least two */
; 1872 :       if ( theta2 > angle2 )

	fstp	ST(5)
	fstp	ST(3)

; 1907 :       { if ( wrap[0] <= 0 )
; 1908 :         {
; 1909 :           gdata2[0].x[0] = x2;

	fstp	QWORD PTR _gdata2$[ebp]

; 1910 :           gdata2[0].x[1] = y2;

	fxch	ST(1)
	fstp	QWORD PTR _gdata2$[ebp+8]

; 1911 :           gdata2[1].x[0] = center[0] + radius*cos((angle2+theta2)/2);

	faddp	ST(1), ST(0)
	fmul	QWORD PTR __real@3fe0000000000000
	fst	QWORD PTR tv4311[ebp]
	call	__CIcos
	fmul	QWORD PTR _radius$[ebp]
	fadd	QWORD PTR _center$[ebp]
	fstp	QWORD PTR _gdata2$[ebp+144]

; 1912 :           gdata2[1].x[1] = center[1] + radius*sin((angle2+theta2)/2);

	fld	QWORD PTR tv4311[ebp]
	call	__CIsin
	fmul	QWORD PTR _radius$[ebp]

; 1913 :           gdata2[2] = gdata[2];

	mov	esi, DWORD PTR _gdata$GSCopy$[ebp]
	add	esi, 288				; 00000120H
	cmp	DWORD PTR _wrap$[ebp], 0
	fadd	QWORD PTR _center$[ebp+8]
	mov	ecx, 36					; 00000024H
	lea	edi, DWORD PTR _gdata2$[ebp+288]
	fstp	QWORD PTR _gdata2$[ebp+152]
	rep movsd
	jg	$LN20@torus_arc_

; 1914 :           gdata2[0].flags |= EDGE_ARC;
; 1915 :   
; 1916 :           gdata1[0].flags |= EDGE_ARC;
; 1917 :           gdata1[0].x[0] = x2;

	fld	QWORD PTR _x2$[ebp]
	mov	eax, 32768				; 00008000H
	or	DWORD PTR _gdata2$[ebp+136], eax
	fstp	QWORD PTR _gdata1$[ebp]

; 1918 :           gdata1[0].x[1] = y2;

	fld	QWORD PTR _y2$[ebp]
	or	DWORD PTR _gdata1$[ebp+136], eax
	fstp	QWORD PTR _gdata1$[ebp+8]

; 1919 :           gdata1[1].x[0] = center[0] + radius*cos((theta2+theta1)/2);

	fld	QWORD PTR _theta2$[ebp]
	fadd	QWORD PTR _theta1$[ebp]
	fmul	QWORD PTR __real@3fe0000000000000
	fst	QWORD PTR tv4321[ebp]
	call	__CIcos
	fmul	QWORD PTR _radius$[ebp]
	fadd	QWORD PTR _center$[ebp]
	fstp	QWORD PTR _gdata1$[ebp+144]

; 1920 :           gdata1[1].x[1] = center[1] + radius*sin((theta2+theta1)/2);

	fld	QWORD PTR tv4321[ebp]
	call	__CIsin
	fmul	QWORD PTR _radius$[ebp]
	fadd	QWORD PTR _center$[ebp+8]
	fstp	QWORD PTR _gdata1$[ebp+152]

; 1921 :           gdata1[2].x[0] = x1;

	fld	QWORD PTR _x1$[ebp]
	fstp	QWORD PTR _gdata1$[ebp+288]

; 1922 :           gdata1[2].x[1] = y1;

	fld	QWORD PTR _y1$[ebp]
	fstp	QWORD PTR _gdata1$[ebp+296]

; 1923 :   
; 1924 :           gdata[1].x[0] = center[0] + radius*cos((angle1+theta1)/2);

	fld	QWORD PTR _theta1$[ebp]
	fadd	QWORD PTR _angle1$[ebp]
	fmul	QWORD PTR __real@3fe0000000000000
	fst	QWORD PTR tv4248[ebp]
	call	__CIcos
	fmul	QWORD PTR _radius$[ebp]
	mov	eax, DWORD PTR _gdata$GSCopy$[ebp]
	fadd	QWORD PTR _center$[ebp]
	fstp	QWORD PTR [eax+144]

; 1925 :           gdata[1].x[1] = center[1] + radius*sin((angle1+theta1)/2);

	fld	QWORD PTR tv4248[ebp]
	call	__CIsin
	fmul	QWORD PTR _radius$[ebp]
	mov	eax, DWORD PTR _gdata$GSCopy$[ebp]
	mov	edx, DWORD PTR _per$[ebp]
	fadd	QWORD PTR _center$[ebp+8]
	fstp	QWORD PTR [eax+152]

; 1926 :           gdata[2].x[0] = x1;

	fld	QWORD PTR _x1$[ebp]
	mov	DWORD PTR tv9052[ebp], 0
	fstp	QWORD PTR [eax+288]

; 1927 :           gdata[2].x[1] = y1;

	fld	QWORD PTR _y1$[ebp]
	fstp	QWORD PTR [eax+296]
	mov	edi, DWORD PTR _web+616
	lea	eax, DWORD PTR _gdata1$[ebp+8]
	mov	DWORD PTR tv9068[ebp], eax
$LL19@torus_arc_:

; 1929 :            for ( j = 0 ; j < SDIM ; j++ )

	xor	ecx, ecx
	cmp	edi, 4
	jl	SHORT $LC198@torus_arc_
$LL199@torus_arc_:

; 1930 :             gdata1[i].x[j] -= per[m][j];

	mov	esi, DWORD PTR [ebx+edx]
	fld	QWORD PTR [eax-8]
	fsub	QWORD PTR [esi+ecx*8]
	add	ecx, 4
	add	eax, 32					; 00000020H
	fstp	QWORD PTR [eax-40]
	mov	esi, DWORD PTR [ebx+edx]
	fld	QWORD PTR [eax-32]
	fsub	QWORD PTR [esi+ecx*8-24]
	fstp	QWORD PTR [eax-32]
	mov	esi, DWORD PTR [ebx+edx]
	fld	QWORD PTR [eax-24]
	fsub	QWORD PTR [esi+ecx*8-16]
	fstp	QWORD PTR [eax-24]
	mov	esi, DWORD PTR [ebx+edx]
	fld	QWORD PTR [eax-16]
	fsub	QWORD PTR [esi+ecx*8-8]
	lea	esi, DWORD PTR [edi-3]
	fstp	QWORD PTR [eax-16]
	cmp	ecx, esi
	jl	SHORT $LL199@torus_arc_
$LC198@torus_arc_:

; 1929 :            for ( j = 0 ; j < SDIM ; j++ )

	cmp	ecx, edi
	jge	SHORT $LN18@torus_arc_
	mov	eax, DWORD PTR tv9052[ebp]
	add	eax, ecx
	lea	eax, DWORD PTR _gdata1$[ebp+eax*8]
	npad	6
$LC16@torus_arc_:

; 1930 :             gdata1[i].x[j] -= per[m][j];

	fld	QWORD PTR [eax]
	mov	esi, DWORD PTR [ebx+edx]
	fsub	QWORD PTR [esi+ecx*8]
	inc	ecx
	add	eax, 8
	fstp	QWORD PTR [eax-8]
	cmp	ecx, edi
	jl	SHORT $LC16@torus_arc_
$LN18@torus_arc_:

; 1928 :           for ( i = 0 ; i < 3 ; i++ )

	mov	ecx, DWORD PTR tv9052[ebp]
	mov	eax, DWORD PTR tv9068[ebp]
	add	ecx, 18					; 00000012H
	add	eax, 144				; 00000090H
	mov	DWORD PTR tv9068[ebp], eax
	mov	DWORD PTR tv9052[ebp], ecx
	cmp	ecx, 54					; 00000036H
	jl	$LL19@torus_arc_

; 1931 :         }
; 1932 :         else

	jmp	$LN10@torus_arc_
$LN20@torus_arc_:

; 1933 :         {
; 1934 :           gdata2[0].x[0] = x2;
; 1935 :           gdata2[0].x[1] = y2;
; 1936 :           gdata2[1].x[0] = center[0] + radius*cos((angle2+theta2)/2);
; 1937 :           gdata2[1].x[1] = center[1] + radius*sin((angle2+theta2)/2);
; 1938 :           gdata2[2] = gdata[2];
; 1939 :           gdata2[0].flags |= EDGE_ARC;
; 1940 :   
; 1941 :           gdata1[0] = gdata[0];
; 1942 :           gdata1[1].x[0] = center[0] + radius*cos((angle1+theta1)/2);

	fld	QWORD PTR _theta1$[ebp]
	mov	esi, DWORD PTR _gdata$GSCopy$[ebp]
	fadd	QWORD PTR _angle1$[ebp]
	or	DWORD PTR _gdata2$[ebp+136], 32768	; 00008000H
	mov	ecx, 36					; 00000024H
	lea	edi, DWORD PTR _gdata1$[ebp]
	fmul	QWORD PTR __real@3fe0000000000000
	rep movsd
	fst	QWORD PTR tv4248[ebp]
	call	__CIcos
	fmul	QWORD PTR _radius$[ebp]
	fadd	QWORD PTR _center$[ebp]
	fstp	QWORD PTR _gdata1$[ebp+144]

; 1943 :           gdata1[1].x[1] = center[1] + radius*sin((angle1+theta1)/2);

	fld	QWORD PTR tv4248[ebp]
	call	__CIsin
	fmul	QWORD PTR _radius$[ebp]

; 1944 :           gdata1[2].x[0] = x1;
; 1945 :           gdata1[2].x[1] = y1;
; 1946 :   
; 1947 :           gdata[0].x[0] = x2;

	mov	esi, DWORD PTR _gdata$GSCopy$[ebp]
	fadd	QWORD PTR _center$[ebp+8]
	fstp	QWORD PTR _gdata1$[ebp+152]
	fld	QWORD PTR _x1$[ebp]
	fstp	QWORD PTR _gdata1$[ebp+288]
	fld	QWORD PTR _y1$[ebp]
	fstp	QWORD PTR _gdata1$[ebp+296]
	fld	QWORD PTR _x2$[ebp]
	fstp	QWORD PTR [esi]

; 1948 :           gdata[0].x[1] = y2;

	fld	QWORD PTR _y2$[ebp]
	fstp	QWORD PTR [esi+8]

; 1949 :           gdata[1].x[0] = center[0] + radius*cos((theta2+theta1)/2);

	fld	QWORD PTR _theta2$[ebp]
	fadd	QWORD PTR _theta1$[ebp]
	fmul	QWORD PTR __real@3fe0000000000000
	fst	QWORD PTR tv4321[ebp]
	call	__CIcos
	fmul	QWORD PTR _radius$[ebp]
	fadd	QWORD PTR _center$[ebp]
	fstp	QWORD PTR [esi+144]

; 1950 :           gdata[1].x[1] = center[1] + radius*sin((theta2+theta1)/2);

	fld	QWORD PTR tv4321[ebp]
	call	__CIsin
	fmul	QWORD PTR _radius$[ebp]
	mov	edx, DWORD PTR _per$[ebp]
	xor	ecx, ecx
	fadd	QWORD PTR _center$[ebp+8]
	fstp	QWORD PTR [esi+152]

; 1951 :           gdata[2].x[0] = x1;

	fld	QWORD PTR _x1$[ebp]
	fstp	QWORD PTR [esi+288]

; 1952 :           gdata[2].x[1] = y1;

	fld	QWORD PTR _y1$[ebp]
	fstp	QWORD PTR [esi+296]
	mov	edi, DWORD PTR _web+616
	npad	5
$LL12@torus_arc_:

; 1955 :            for ( j = 0 ; j < SDIM ; j++ )

	xor	eax, eax
	cmp	edi, 4
	jl	$LC201@torus_arc_
	npad	5
$LL202@torus_arc_:

; 1956 :            { gdata1[i].x[j] -= per[m][j];

	mov	edi, DWORD PTR [ebx+edx]

; 1957 :              gdata2[i].x[j] -= per[m][j];

	lea	esi, DWORD PTR [ecx+eax*8]
	fld	QWORD PTR _gdata1$[ebp+esi]
	lea	esi, DWORD PTR _gdata1$[ebp+esi]
	fsub	QWORD PTR [edi+eax*8]
	fstp	QWORD PTR [esi]
	mov	edi, DWORD PTR [ebx+edx]
	lea	esi, DWORD PTR [ecx+eax*8]
	fld	QWORD PTR _gdata2$[ebp+esi]
	lea	esi, DWORD PTR _gdata2$[ebp+esi]
	fsub	QWORD PTR [edi+eax*8]
	fstp	QWORD PTR [esi]
	mov	edi, DWORD PTR [ebx+edx]
	lea	esi, DWORD PTR [ecx+eax*8]
	fld	QWORD PTR _gdata1$[ebp+esi+8]
	lea	esi, DWORD PTR _gdata1$[ebp+esi+8]
	fsub	QWORD PTR [edi+eax*8+8]
	fstp	QWORD PTR [esi]
	mov	edi, DWORD PTR [ebx+edx]
	lea	esi, DWORD PTR [ecx+eax*8]
	fld	QWORD PTR _gdata2$[ebp+esi+8]
	lea	esi, DWORD PTR _gdata2$[ebp+esi+8]
	fsub	QWORD PTR [edi+eax*8+8]
	fstp	QWORD PTR [esi]
	mov	edi, DWORD PTR [ebx+edx]
	lea	esi, DWORD PTR [ecx+eax*8]
	fld	QWORD PTR _gdata1$[ebp+esi+16]
	lea	esi, DWORD PTR _gdata1$[ebp+esi+16]
	fsub	QWORD PTR [edi+eax*8+16]
	fstp	QWORD PTR [esi]
	mov	edi, DWORD PTR [ebx+edx]
	lea	esi, DWORD PTR [ecx+eax*8]
	fld	QWORD PTR _gdata2$[ebp+esi+16]
	lea	esi, DWORD PTR _gdata2$[ebp+esi+16]
	fsub	QWORD PTR [edi+eax*8+16]
	fstp	QWORD PTR [esi]
	mov	edi, DWORD PTR [ebx+edx]
	lea	esi, DWORD PTR [ecx+eax*8]
	fld	QWORD PTR _gdata1$[ebp+esi+24]
	lea	esi, DWORD PTR _gdata1$[ebp+esi+24]
	fsub	QWORD PTR [edi+eax*8+24]
	fstp	QWORD PTR [esi]
	mov	edi, DWORD PTR [ebx+edx]
	lea	esi, DWORD PTR [ecx+eax*8]
	fld	QWORD PTR _gdata2$[ebp+esi+24]
	lea	esi, DWORD PTR _gdata2$[ebp+esi+24]
	fsub	QWORD PTR [edi+eax*8+24]
	mov	edi, DWORD PTR _web+616
	add	eax, 4
	fstp	QWORD PTR [esi]
	lea	esi, DWORD PTR [edi-3]
	cmp	eax, esi
	jl	$LL202@torus_arc_
$LC201@torus_arc_:

; 1955 :            for ( j = 0 ; j < SDIM ; j++ )

	cmp	eax, edi
	jge	SHORT $LN11@torus_arc_
	npad	10
$LC9@torus_arc_:

; 1956 :            { gdata1[i].x[j] -= per[m][j];

	mov	edi, DWORD PTR [ebx+edx]
	lea	esi, DWORD PTR [ecx+eax*8]
	fld	QWORD PTR _gdata1$[ebp+esi]
	lea	esi, DWORD PTR _gdata1$[ebp+esi]
	fsub	QWORD PTR [edi+eax*8]
	fstp	QWORD PTR [esi]

; 1957 :              gdata2[i].x[j] -= per[m][j];

	mov	edi, DWORD PTR [ebx+edx]
	lea	esi, DWORD PTR [ecx+eax*8]
	fld	QWORD PTR _gdata2$[ebp+esi]
	lea	esi, DWORD PTR _gdata2$[ebp+esi]
	fsub	QWORD PTR [edi+eax*8]
	mov	edi, DWORD PTR _web+616
	inc	eax
	fstp	QWORD PTR [esi]
	cmp	eax, edi
	jl	SHORT $LC9@torus_arc_
$LN11@torus_arc_:

; 1953 :   
; 1954 :           for ( i = 0 ; i < 3 ; i++ )

	add	ecx, 144				; 00000090H
	cmp	ecx, 432				; 000001b0H
	jl	$LL12@torus_arc_
$LN10@torus_arc_:

; 1958 :            }
; 1959 :         }
; 1960 :         /* send on for further check, or plot */
; 1961 :         if ( m == SDIM-1 ) 

	lea	ecx, DWORD PTR [edi-1]
	mov	edi, DWORD PTR _m$GSCopy$[ebp]
	cmp	edi, ecx
	jne	SHORT $LN6@torus_arc_

; 1962 :           (*graph_edge_transforms)(gdata2,gdata[0].id);

	mov	edx, DWORD PTR _gdata$GSCopy$[ebp]
	mov	eax, DWORD PTR [edx+128]
	push	eax
	lea	ecx, DWORD PTR _gdata2$[ebp]
	push	ecx
	call	_graph_edge_transforms

; 1963 :         else

	jmp	SHORT $LN301@torus_arc_
$LN6@torus_arc_:

; 1964 :           torus_edge_clip(gdata2,m+1);

	lea	edx, DWORD PTR [edi+1]
	push	edx
	lea	eax, DWORD PTR _gdata2$[ebp]
	push	eax
	call	_torus_edge_clip
$LN301@torus_arc_:
	mov	esi, DWORD PTR _web+616
	add	esp, 8
$LN5@torus_arc_:

; 1965 :       }
; 1966 :       /* send on for further check, or plot */
; 1967 :       if ( m == SDIM-1 ) 

	dec	esi
	cmp	edi, esi
	jne	SHORT $LN4@torus_arc_

; 1968 :         (*graph_edge_transforms)(gdata1,gdata[0].id);

	mov	ecx, DWORD PTR _gdata$GSCopy$[ebp]
	mov	edx, DWORD PTR [ecx+128]
	push	edx
	lea	eax, DWORD PTR _gdata1$[ebp]
	push	eax
	call	_graph_edge_transforms
	add	esp, 8

; 1969 :       else

	jmp	SHORT $LN3@torus_arc_
$LN4@torus_arc_:

; 1970 :         torus_edge_clip(gdata1,m+1);

	inc	edi
	lea	ecx, DWORD PTR _gdata1$[ebp]
	push	edi
	push	ecx
	call	_torus_edge_clip
	add	esp, 8
	jmp	SHORT $LN3@torus_arc_
$LN262@torus_arc_:
	fstp	ST(1)
	fstp	ST(0)
	fstp	ST(0)
$LN3@torus_arc_:

; 1971 :     }
; 1972 :   }
; 1973 : 
; 1974 :   /* send on original edge structure */
; 1975 :   if ( m == SDIM-1 ) 

	mov	edx, DWORD PTR _web+616
	mov	eax, DWORD PTR _m$GSCopy$[ebp]
	dec	edx
	cmp	eax, edx
	jne	SHORT $LN2@torus_arc_

; 1976 :     (*graph_edge_transforms)(gdata,gdata[0].id);

	mov	eax, DWORD PTR _gdata$GSCopy$[ebp]
	mov	ecx, DWORD PTR [eax+128]
	push	ecx
	push	eax
	call	_graph_edge_transforms

; 1977 :   else
; 1978 :     torus_edge_clip(gdata,m+1);

	add	esp, 8
	pop	edi
	pop	esi
	pop	ebx

; 1979 : 
; 1980 : } /* end torus_arc_clip() */

	mov	ecx, DWORD PTR __$ArrayPad$[ebp]
	xor	ecx, ebp
	call	@__security_check_cookie@4
	mov	esp, ebp
	pop	ebp
	ret	0
$LN2@torus_arc_:

; 1977 :   else
; 1978 :     torus_edge_clip(gdata,m+1);

	mov	edx, DWORD PTR _gdata$GSCopy$[ebp]
	inc	eax
	push	eax
	push	edx
$LN299@torus_arc_:
	call	_torus_edge_clip

; 1979 : 
; 1980 : } /* end torus_arc_clip() */

	mov	ecx, DWORD PTR __$ArrayPad$[ebp]
	add	esp, 8
	pop	edi
	pop	esi
	xor	ecx, ebp
	pop	ebx
	call	@__security_check_cookie@4
	mov	esp, ebp
	pop	ebp
	ret	0
_torus_arc_clip ENDP
_TEXT	ENDS
PUBLIC	_bfcomp
; Function compile flags: /Ogtp
;	COMDAT _bfcomp
_TEXT	SEGMENT
_a$ = 8							; size = 4
_b$ = 12						; size = 4
_bfcomp	PROC						; COMDAT

; 2217 : {

	push	ebp
	mov	ebp, esp

; 2218 :   if ( loc_ordinal(a->b_id) < loc_ordinal(b->b_id) ) return -1;

	mov	eax, DWORD PTR _a$[ebp]
	mov	ecx, DWORD PTR [eax+4]
	push	ebx
	mov	eax, ecx
	shr	eax, 28					; 0000001cH
	and	eax, 1
	push	esi
	push	edi
	je	SHORT $LN9@bfcomp
	mov	ebx, ecx
	and	ebx, 134217727				; 07ffffffH
	jmp	SHORT $LN10@bfcomp
$LN9@bfcomp:
	or	ebx, -1
$LN10@bfcomp:
	mov	edx, DWORD PTR _b$[ebp]
	mov	edx, DWORD PTR [edx+4]
	mov	edi, edx
	shr	edi, 28					; 0000001cH
	and	edi, 1
	je	SHORT $LN11@bfcomp
	mov	esi, edx
	and	esi, 134217727				; 07ffffffH
	jmp	SHORT $LN12@bfcomp
$LN11@bfcomp:
	or	esi, -1
$LN12@bfcomp:
	cmp	ebx, esi
	jge	SHORT $LN6@bfcomp
$LN25@bfcomp:
	pop	edi
	pop	esi
	or	eax, -1
	pop	ebx

; 2224 : 
; 2225 :   return 0;
; 2226 : } // end bfcomp()

	pop	ebp
	ret	0
$LN6@bfcomp:

; 2219 :   if ( loc_ordinal(a->b_id) > loc_ordinal(b->b_id) ) return 1;

	test	eax, eax
	je	SHORT $LN13@bfcomp
	and	ecx, 134217727				; 07ffffffH
	jmp	SHORT $LN14@bfcomp
$LN13@bfcomp:
	or	ecx, -1
$LN14@bfcomp:
	test	edi, edi
	je	SHORT $LN15@bfcomp
	and	edx, 134217727				; 07ffffffH
	jmp	SHORT $LN16@bfcomp
$LN15@bfcomp:
	or	edx, -1
$LN16@bfcomp:
	cmp	ecx, edx
	jle	SHORT $LN5@bfcomp
$LN26@bfcomp:
	pop	edi
	pop	esi
	mov	eax, 1
	pop	ebx

; 2224 : 
; 2225 :   return 0;
; 2226 : } // end bfcomp()

	pop	ebp
	ret	0
$LN5@bfcomp:

; 2220 :   if ( loc_ordinal(a->f_id) < loc_ordinal(b->f_id) ) return -1;

	mov	eax, DWORD PTR _a$[ebp]
	mov	ecx, DWORD PTR [eax]
	mov	edi, ecx
	shr	edi, 28					; 0000001cH
	and	edi, 1
	je	SHORT $LN17@bfcomp
	mov	ebx, ecx
	and	ebx, 134217727				; 07ffffffH
	jmp	SHORT $LN18@bfcomp
$LN17@bfcomp:
	or	ebx, -1
$LN18@bfcomp:
	mov	edx, DWORD PTR _b$[ebp]
	mov	eax, DWORD PTR [edx]
	mov	esi, eax
	shr	esi, 28					; 0000001cH
	and	esi, 1
	je	SHORT $LN19@bfcomp
	mov	edx, eax
	and	edx, 134217727				; 07ffffffH
	jmp	SHORT $LN20@bfcomp
$LN19@bfcomp:
	or	edx, -1
$LN20@bfcomp:
	cmp	ebx, edx
	jl	SHORT $LN25@bfcomp

; 2221 :   if ( loc_ordinal(a->f_id) > loc_ordinal(b->f_id) ) return 1;

	test	edi, edi
	je	SHORT $LN21@bfcomp
	mov	edi, ecx
	and	edi, 134217727				; 07ffffffH
	jmp	SHORT $LN22@bfcomp
$LN21@bfcomp:
	or	edi, -1
$LN22@bfcomp:
	test	esi, esi
	je	SHORT $LN23@bfcomp
	mov	edx, eax
	and	edx, 134217727				; 07ffffffH
	jmp	SHORT $LN24@bfcomp
$LN23@bfcomp:
	or	edx, -1
$LN24@bfcomp:
	cmp	edi, edx
	jg	SHORT $LN26@bfcomp

; 2222 :   if ( inverted(a->f_id) < inverted(b->f_id) ) return -1;

	shr	ecx, 27					; 0000001bH
	shr	eax, 27					; 0000001bH
	and	ecx, 1
	and	eax, 1
	cmp	ecx, eax
	jl	$LN25@bfcomp

; 2223 :   if ( inverted(a->f_id) > inverted(b->f_id) ) return 1;

	xor	edx, edx
	cmp	ecx, eax
	setg	dl
	pop	edi
	pop	esi
	pop	ebx
	mov	eax, edx

; 2224 : 
; 2225 :   return 0;
; 2226 : } // end bfcomp()

	pop	ebp
	ret	0
_bfcomp	ENDP
_TEXT	ENDS
PUBLIC	??_C@_0CD@HGPDJPNI@glist?5not?5in?5order?5at?5spots?5?$CFd?0?$CF@ ; `string'
PUBLIC	??_C@_0BN@EOMEBGAJ@Cannot?5find?5?$CFd?5in?5polylist?4?6?$AA@ ; `string'
PUBLIC	??_C@_0CC@ONOMPJPP@glist?5out?5of?5order?5at?5spot?5?$CFd?0?$CFd@ ; `string'
PUBLIC	??_C@_0BI@JIBGENOL@polycount?5?$CFd?5gcount?5?$CFd?6?$AA@ ; `string'
PUBLIC	_polylist_check
EXTRN	_printf:PROC
;	COMDAT ??_C@_0CD@HGPDJPNI@glist?5not?5in?5order?5at?5spots?5?$CFd?0?$CF@
CONST	SEGMENT
??_C@_0CD@HGPDJPNI@glist?5not?5in?5order?5at?5spots?5?$CFd?0?$CF@ DB 'gli'
	DB	'st not in order at spots %d,%d', 0aH, 00H	; `string'
CONST	ENDS
;	COMDAT ??_C@_0BN@EOMEBGAJ@Cannot?5find?5?$CFd?5in?5polylist?4?6?$AA@
CONST	SEGMENT
??_C@_0BN@EOMEBGAJ@Cannot?5find?5?$CFd?5in?5polylist?4?6?$AA@ DB 'Cannot '
	DB	'find %d in polylist.', 0aH, 00H		; `string'
CONST	ENDS
;	COMDAT ??_C@_0CC@ONOMPJPP@glist?5out?5of?5order?5at?5spot?5?$CFd?0?$CFd@
CONST	SEGMENT
??_C@_0CC@ONOMPJPP@glist?5out?5of?5order?5at?5spot?5?$CFd?0?$CFd@ DB 'gli'
	DB	'st out of order at spot %d,%d', 0aH, 00H	; `string'
CONST	ENDS
;	COMDAT ??_C@_0BI@JIBGENOL@polycount?5?$CFd?5gcount?5?$CFd?6?$AA@
CONST	SEGMENT
??_C@_0BI@JIBGENOL@polycount?5?$CFd?5gcount?5?$CFd?6?$AA@ DB 'polycount %'
	DB	'd gcount %d', 0aH, 00H			; `string'
; Function compile flags: /Ogtp
CONST	ENDS
;	COMDAT _polylist_check
_TEXT	SEGMENT
_glist$ = 8						; size = 4
_gcount$ = 12						; size = 4
_polylist$ = 16						; size = 4
_polycount$ = 20					; size = 4
_polylist_check PROC					; COMDAT

; 3152 : { int i,j;

	push	ebp
	mov	ebp, esp

; 3153 : 
; 3154 :   if ( polycount > gcount )

	mov	eax, DWORD PTR _gcount$[ebp]
	push	ebx
	push	esi
	push	edi
	mov	edi, DWORD PTR _polycount$[ebp]
	cmp	edi, eax
	jle	SHORT $LN17@polylist_c

; 3155 :     printf("polycount %d gcount %d\n",polycount,gcount);

	push	eax
	push	edi
	push	OFFSET ??_C@_0BI@JIBGENOL@polycount?5?$CFd?5gcount?5?$CFd?6?$AA@
	call	_printf
	add	esp, 12					; 0000000cH
$LN17@polylist_c:

; 3156 : 
; 3157 :   // Check cyclic order of glist wrt originals
; 3158 :   for ( i = 1 ; i < polycount ; i++ )

	mov	esi, 1
	cmp	edi, esi
	jle	SHORT $LN29@polylist_c
	mov	ebx, DWORD PTR _glist$[ebp]
	add	ebx, 264				; 00000108H
$LL16@polylist_c:

; 3159 :     if ( glist[i].ecolor <= glist[i-1].ecolor )

	mov	eax, DWORD PTR [ebx]
	cmp	eax, DWORD PTR [ebx-144]
	jg	SHORT $LN15@polylist_c

; 3160 :       printf("glist out of order at spot %d,%d\n",i-1,i);

	push	esi
	lea	ecx, DWORD PTR [esi-1]
	push	ecx
	push	OFFSET ??_C@_0CC@ONOMPJPP@glist?5out?5of?5order?5at?5spot?5?$CFd?0?$CFd@
	call	_printf
	add	esp, 12					; 0000000cH
$LN15@polylist_c:

; 3156 : 
; 3157 :   // Check cyclic order of glist wrt originals
; 3158 :   for ( i = 1 ; i < polycount ; i++ )

	inc	esi
	add	ebx, 144				; 00000090H
	cmp	esi, edi
	jl	SHORT $LL16@polylist_c
$LN29@polylist_c:

; 3161 :   // check polylist has one occurrence of each index
; 3162 :   for ( i = 0 ; i < polycount ; i++ )

	mov	ebx, DWORD PTR _polylist$[ebp]
	xor	esi, esi
	test	edi, edi
	jle	SHORT $LN10@polylist_c
$LL31@polylist_c:

; 3163 :   { for ( j = 0 ; j < polycount ; j++ )

	xor	eax, eax
$LL9@polylist_c:

; 3164 :       if ( polylist[j] == i )

	cmp	DWORD PTR [ebx+eax*4], esi
	je	SHORT $LN24@polylist_c

; 3163 :   { for ( j = 0 ; j < polycount ; j++ )

	inc	eax
	cmp	eax, edi
	jl	SHORT $LL9@polylist_c
$LN24@polylist_c:

; 3165 :         break;
; 3166 :     if ( j == polycount )

	cmp	eax, edi
	jne	SHORT $LN11@polylist_c

; 3167 :       printf("Cannot find %d in polylist.\n",i);

	push	esi
	push	OFFSET ??_C@_0BN@EOMEBGAJ@Cannot?5find?5?$CFd?5in?5polylist?4?6?$AA@
	call	_printf
	add	esp, 8
$LN11@polylist_c:

; 3161 :   // check polylist has one occurrence of each index
; 3162 :   for ( i = 0 ; i < polycount ; i++ )

	inc	esi
	cmp	esi, edi
	jl	SHORT $LL31@polylist_c
$LN10@polylist_c:

; 3168 :   }
; 3169 :   // Check x order of vertices
; 3170 :   for ( i = 1 ; i < polycount ; i++ )

	mov	esi, 1
	cmp	edi, esi
	jle	SHORT $LN2@polylist_c
	npad	3
$LL4@polylist_c:

; 3171 :     if ( glist[polylist[i]].X[0] < glist[polylist[i-1]].X[0] )

	mov	eax, DWORD PTR [ebx+esi*4]
	lea	edx, DWORD PTR [eax+eax*8]
	mov	eax, DWORD PTR [ebx+esi*4-4]
	lea	ecx, DWORD PTR [eax+eax*8]
	mov	eax, DWORD PTR _glist$[ebp]
	add	ecx, ecx
	fld	QWORD PTR [eax+ecx*8+56]
	add	edx, edx
	fcomp	QWORD PTR [eax+edx*8+56]
	fnstsw	ax
	test	ah, 65					; 00000041H
	jne	SHORT $LN3@polylist_c

; 3172 :       printf("glist not in order at spots %d,%d\n",i-1,i);

	push	esi
	lea	edx, DWORD PTR [esi-1]
	push	edx
	push	OFFSET ??_C@_0CD@HGPDJPNI@glist?5not?5in?5order?5at?5spots?5?$CFd?0?$CF@
	call	_printf
	add	esp, 12					; 0000000cH
$LN3@polylist_c:

; 3168 :   }
; 3169 :   // Check x order of vertices
; 3170 :   for ( i = 1 ; i < polycount ; i++ )

	inc	esi
	cmp	esi, edi
	jl	SHORT $LL4@polylist_c
$LN2@polylist_c:
	pop	edi
	pop	esi
	pop	ebx

; 3173 : 
; 3174 : }

	pop	ebp
	ret	0
_polylist_check ENDP
_TEXT	ENDS
PUBLIC	_gsfn_comp
; Function compile flags: /Ogtp
;	COMDAT _gsfn_comp
_TEXT	SEGMENT
_a$ = 8							; size = 4
_b$ = 12						; size = 4
_gsfn_comp PROC						; COMDAT

; 3276 : {

	push	ebp
	mov	ebp, esp

; 3277 :   struct graphdata *aa = *(struct graphdata **)a;
; 3278 :   struct graphdata *bb = *(struct graphdata **)b;

	mov	edx, DWORD PTR _b$[ebp]
	mov	eax, DWORD PTR _a$[ebp]
	mov	edx, DWORD PTR [edx]
	mov	ecx, DWORD PTR [eax]

; 3279 :   if ( aa->X[0] < bb->X[0] ) return -1;

	fld	QWORD PTR [edx+56]
	fcomp	QWORD PTR [ecx+56]
	fnstsw	ax
	test	ah, 65					; 00000041H
	jne	SHORT $LN2@gsfn_comp
	or	eax, -1

; 3282 : }

	pop	ebp
	ret	0
$LN2@gsfn_comp:

; 3280 :   if ( aa->X[0] > bb->X[0] ) return  1;

	fld	QWORD PTR [edx+56]
	fcomp	QWORD PTR [ecx+56]
	fnstsw	ax
	test	ah, 5
	jp	SHORT $LN1@gsfn_comp
	mov	eax, 1

; 3282 : }

	pop	ebp
	ret	0
$LN1@gsfn_comp:

; 3281 :   return 0;

	xor	eax, eax

; 3282 : }

	pop	ebp
	ret	0
_gsfn_comp ENDP
_TEXT	ENDS
PUBLIC	_slice_edge
; Function compile flags: /Ogtp
;	COMDAT _slice_edge
_TEXT	SEGMENT
_gdata$ = 8						; size = 4
_slice_edge PROC					; COMDAT

; 3714 : }

	ret	0
_slice_edge ENDP
_TEXT	ENDS
PUBLIC	__real@3ff0000000000000
PUBLIC	_gdata$GSCopy$
PUBLIC	__$ArrayPad$
PUBLIC	_slice_facet
EXTRN	_graph_facet:DWORD
EXTRN	_graph_edge:DWORD
EXTRN	_slice_coeff:BYTE
EXTRN	_memset:PROC
;	COMDAT __real@3ff0000000000000
CONST	SEGMENT
__real@3ff0000000000000 DQ 03ff0000000000000r	; 1
; Function compile flags: /Ogtp
CONST	ENDS
;	COMDAT _slice_facet
_TEXT	SEGMENT
_i$ = -608						; size = 4
_m$ = -604						; size = 4
tv3420 = -600						; size = 4
tv3457 = -596						; size = 4
tv3418 = -592						; size = 4
tv3455 = -588						; size = 4
_gdata$GSCopy$ = -584					; size = 4
_sliceg$ = -580						; size = 576
__$ArrayPad$ = -4					; size = 4
_gdata$ = 8						; size = 4
_slice_facet PROC					; COMDAT

; 3726 : { struct graphdata sliceg[FACET_VERTS+1];   // +1 for wraparound

	push	ebp
	mov	ebp, esp
	sub	esp, 608				; 00000260H
	mov	eax, DWORD PTR ___security_cookie
	xor	eax, ebp
	mov	DWORD PTR __$ArrayPad$[ebp], eax
	push	ebx
	push	esi
	push	edi
	mov	edi, DWORD PTR _gdata$[ebp]

; 3727 :   int i,j;
; 3728 :   int m = 0; /* how many plane crossings found */

	xor	ebx, ebx

; 3729 : 
; 3730 :   memset(sliceg,0,sizeof(sliceg));

	push	576					; 00000240H
	lea	eax, DWORD PTR _sliceg$[ebp]
	push	ebx
	push	eax
	mov	DWORD PTR _gdata$GSCopy$[ebp], edi
	mov	DWORD PTR _m$[ebp], ebx
	call	_memset

; 3731 :   sliceg[0].etype = REGULAR_EDGE;
; 3732 :   sliceg[0].ecolor = gdata[0].color;
; 3733 :   for ( i = 0 ; i < FACET_VERTS ; i++ )

	fldz
	mov	edx, DWORD PTR [edi+104]
	fld1
	mov	ecx, 1
	lea	eax, DWORD PTR _sliceg$[ebp+8]
	add	esp, 12					; 0000000cH
	mov	WORD PTR _sliceg$[ebp+124], cx
	mov	DWORD PTR _sliceg$[ebp+120], edx
	mov	DWORD PTR _i$[ebp], ebx

; 3734 :   { int ii = (i < FACET_VERTS-1) ? i+1 : 0 ;

	mov	DWORD PTR tv3418[ebp], ebx
	mov	DWORD PTR tv3420[ebp], ebx

; 3735 :     REAL denom=0;

	mov	DWORD PTR tv3455[ebp], edi
	mov	DWORD PTR tv3457[ebp], eax
$LN35@slice_face:

; 3734 :   { int ii = (i < FACET_VERTS-1) ? i+1 : 0 ;

	cmp	ebx, 2
	jge	SHORT $LN18@slice_face
	inc	ebx
	jmp	SHORT $LN19@slice_face
$LN18@slice_face:
	xor	ebx, ebx
$LN19@slice_face:

; 3736 :     REAL numer=slice_coeff[SDIM];

	mov	esi, DWORD PTR _web+616
	fld	ST(1)
	fld	QWORD PTR _slice_coeff[esi*8]

; 3737 :     REAL lambda;
; 3738 :     for ( j = 0 ; j < SDIM ; j++ )

	xor	ecx, ecx
	cmp	esi, 4
	jl	$LC27@slice_face

; 3735 :     REAL denom=0;

	mov	edx, DWORD PTR tv3455[ebp]
	lea	eax, DWORD PTR [ebx+ebx*8]
	shl	eax, 4
	add	eax, DWORD PTR _gdata$GSCopy$[ebp]
	lea	edi, DWORD PTR [esi-3]
$LN33@slice_face:

; 3739 :     { numer -= slice_coeff[j]*gdata[ii].x[j];

	fld	QWORD PTR [eax]

; 3740 :       denom += slice_coeff[j]*(gdata[i].x[j] - gdata[ii].x[j]);

	add	ecx, 4
	fmul	QWORD PTR _slice_coeff[ecx*8-32]
	add	edx, 32					; 00000020H
	add	eax, 32					; 00000020H
	fsubp	ST(1), ST(0)
	fld	QWORD PTR [eax-24]
	fmul	QWORD PTR _slice_coeff[ecx*8-24]
	fsubp	ST(1), ST(0)
	fld	QWORD PTR [eax-16]
	fmul	QWORD PTR _slice_coeff[ecx*8-16]
	fsubp	ST(1), ST(0)
	fld	QWORD PTR [eax-8]
	fmul	QWORD PTR _slice_coeff[ecx*8-8]
	fsubp	ST(1), ST(0)
	fld	QWORD PTR [edx-32]
	fsub	QWORD PTR [eax-32]
	fmul	QWORD PTR _slice_coeff[ecx*8-32]
	faddp	ST(2), ST(0)
	fld	QWORD PTR [edx-24]
	fsub	QWORD PTR [eax-24]
	fmul	QWORD PTR _slice_coeff[ecx*8-24]
	faddp	ST(2), ST(0)
	fld	QWORD PTR [edx-16]
	fsub	QWORD PTR [eax-16]
	fmul	QWORD PTR _slice_coeff[ecx*8-16]
	faddp	ST(2), ST(0)
	fld	QWORD PTR [edx-8]
	fsub	QWORD PTR [eax-8]
	fmul	QWORD PTR _slice_coeff[ecx*8-8]
	faddp	ST(2), ST(0)
	cmp	ecx, edi
	jl	SHORT $LN33@slice_face
	mov	edi, DWORD PTR _gdata$GSCopy$[ebp]
$LC27@slice_face:

; 3737 :     REAL lambda;
; 3738 :     for ( j = 0 ; j < SDIM ; j++ )

	cmp	ecx, esi
	jge	SHORT $LN26@slice_face
	lea	edx, DWORD PTR [ebx+ebx*8]
	lea	eax, DWORD PTR [ecx+edx*2]
	mov	edx, DWORD PTR tv3418[ebp]
	add	edx, ecx
	lea	eax, DWORD PTR [edi+eax*8]
	lea	edx, DWORD PTR [edi+edx*8]
$LC12@slice_face:

; 3739 :     { numer -= slice_coeff[j]*gdata[ii].x[j];

	fld	QWORD PTR _slice_coeff[ecx*8]
	inc	ecx
	fmul	QWORD PTR [eax]
	add	edx, 8
	add	eax, 8
	fsubp	ST(1), ST(0)

; 3740 :       denom += slice_coeff[j]*(gdata[i].x[j] - gdata[ii].x[j]);

	fld	QWORD PTR [edx-8]
	fsub	QWORD PTR [eax-8]
	fmul	QWORD PTR _slice_coeff[ecx*8-8]
	faddp	ST(2), ST(0)
	cmp	ecx, esi
	jl	SHORT $LC12@slice_face
$LN26@slice_face:

; 3741 :     }
; 3742 :     if ( denom == 0.0 )

	fld	ST(1)
	fld	ST(4)
	fucompp
	fnstsw	ax
	test	ah, 68					; 00000044H
	jnp	$LN52@slice_face

; 3743 :       continue;
; 3744 :     lambda = numer/denom;

	fdivrp	ST(1), ST(0)

; 3745 :     if ( (lambda < 0.0) || (lambda > 1.0) )

	fcom	ST(2)
	fnstsw	ax
	test	ah, 5
	jnp	$LN58@slice_face
	fcom	ST(1)
	fnstsw	ax
	test	ah, 65					; 00000041H
	je	$LN58@slice_face

; 3746 :       continue;
; 3747 :     for ( j = 0 ; j < SDIM ; j++ )

	xor	edi, edi
	cmp	esi, 4
	jl	SHORT $LC30@slice_face
	mov	edx, DWORD PTR tv3457[ebp]
	fld	ST(1)
	mov	ecx, DWORD PTR tv3455[ebp]
	fsub	ST(0), ST(1)
	lea	eax, DWORD PTR [ebx+ebx*8]
	add	esi, -4					; fffffffcH
	shl	eax, 4
	add	eax, DWORD PTR _gdata$GSCopy$[ebp]
	shr	esi, 2
	inc	esi
	lea	edi, DWORD PTR [esi*4]
$LN31@slice_face:

; 3748 :       sliceg[m].x[j] = lambda*gdata[i].x[j] + (1-lambda)*gdata[ii].x[j];

	fld	QWORD PTR [ecx]
	add	eax, 32					; 00000020H
	fmul	ST(0), ST(2)
	add	ecx, 32					; 00000020H
	fld	ST(1)
	add	edx, 32					; 00000020H
	dec	esi
	fmul	QWORD PTR [eax-32]
	faddp	ST(1), ST(0)
	fstp	QWORD PTR [edx-40]
	fld	QWORD PTR [eax-24]
	fmul	ST(0), ST(1)
	fld	QWORD PTR [ecx-24]
	fmul	ST(0), ST(3)
	faddp	ST(1), ST(0)
	fstp	QWORD PTR [edx-32]
	fld	QWORD PTR [eax-16]
	fmul	ST(0), ST(1)
	fld	QWORD PTR [ecx-16]
	fmul	ST(0), ST(3)
	faddp	ST(1), ST(0)
	fstp	QWORD PTR [edx-24]
	fld	QWORD PTR [eax-8]
	fmul	ST(0), ST(1)
	fld	QWORD PTR [ecx-8]
	fmul	ST(0), ST(3)
	faddp	ST(1), ST(0)
	fstp	QWORD PTR [edx-16]
	jne	SHORT $LN31@slice_face

; 3746 :       continue;
; 3747 :     for ( j = 0 ; j < SDIM ; j++ )

	mov	esi, DWORD PTR _web+616
	fstp	ST(0)
$LC30@slice_face:
	cmp	edi, esi
	jge	SHORT $LN67@slice_face
	mov	ecx, DWORD PTR tv3418[ebp]
	fld	ST(1)
	mov	edx, DWORD PTR tv3420[ebp]
	fsub	ST(0), ST(1)
	mov	eax, DWORD PTR _gdata$GSCopy$[ebp]
	add	ecx, edi
	lea	ebx, DWORD PTR [ebx+ebx*8]
	add	edx, edi
	lea	ebx, DWORD PTR [edi+ebx*2]
	lea	ecx, DWORD PTR [eax+ecx*8]
	lea	edx, DWORD PTR _sliceg$[ebp+edx*8]
	lea	eax, DWORD PTR [eax+ebx*8]
	sub	esi, edi
$LC6@slice_face:

; 3748 :       sliceg[m].x[j] = lambda*gdata[i].x[j] + (1-lambda)*gdata[ii].x[j];

	fld	ST(0)
	add	eax, 8
	fmul	QWORD PTR [eax-8]
	add	ecx, 8
	fld	QWORD PTR [ecx-8]
	add	edx, 8
	dec	esi
	fmul	ST(0), ST(3)
	faddp	ST(1), ST(0)
	fstp	QWORD PTR [edx-8]
	jne	SHORT $LC6@slice_face

; 3746 :       continue;
; 3747 :     for ( j = 0 ; j < SDIM ; j++ )

	fstp	ST(1)
$LN67@slice_face:

; 3749 :     m++;

	inc	DWORD PTR _m$[ebp]
	add	DWORD PTR tv3457[ebp], 144		; 00000090H
	add	DWORD PTR tv3420[ebp], 18		; 00000012H
	mov	edi, DWORD PTR _gdata$GSCopy$[ebp]
	jmp	SHORT $LN58@slice_face
$LN52@slice_face:
	fstp	ST(1)
$LN58@slice_face:

; 3731 :   sliceg[0].etype = REGULAR_EDGE;
; 3732 :   sliceg[0].ecolor = gdata[0].color;
; 3733 :   for ( i = 0 ; i < FACET_VERTS ; i++ )

	mov	eax, DWORD PTR tv3418[ebp]

; 3745 :     if ( (lambda < 0.0) || (lambda > 1.0) )

	fstp	ST(0)
	mov	ebx, DWORD PTR _i$[ebp]
	add	DWORD PTR tv3455[ebp], 144		; 00000090H
	add	eax, 18					; 00000012H
	inc	ebx
	mov	DWORD PTR _i$[ebp], ebx
	mov	DWORD PTR tv3418[ebp], eax
	cmp	eax, 54					; 00000036H
	jl	$LN35@slice_face

; 3750 :   }
; 3751 :   if ( m == 2 )

	mov	eax, DWORD PTR _m$[ebp]
	fstp	ST(1)
	pop	edi
	fstp	ST(0)
	pop	esi
	pop	ebx
	cmp	eax, 2
	jne	SHORT $LN3@slice_face

; 3752 :     (*graph_edge)(sliceg,NULLID);

	lea	edx, DWORD PTR _sliceg$[ebp]
	push	0
	push	edx
	call	DWORD PTR _graph_edge

; 3754 :     (*graph_facet)(sliceg,NULLID);

	add	esp, 8

; 3755 : 
; 3756 : } // end slice_facet()

	mov	ecx, DWORD PTR __$ArrayPad$[ebp]
	xor	ecx, ebp
	call	@__security_check_cookie@4
	mov	esp, ebp
	pop	ebp
	ret	0
$LN3@slice_face:

; 3753 :   else if ( m == 3 )

	cmp	eax, 3
	jne	SHORT $LN1@slice_face

; 3754 :     (*graph_facet)(sliceg,NULLID);

	lea	eax, DWORD PTR _sliceg$[ebp]
	push	0
	push	eax
	call	DWORD PTR _graph_facet
	add	esp, 8
$LN1@slice_face:

; 3755 : 
; 3756 : } // end slice_facet()

	mov	ecx, DWORD PTR __$ArrayPad$[ebp]
	xor	ecx, ebp
	call	@__security_check_cookie@4
	mov	esp, ebp
	pop	ebp
	ret	0
_slice_facet ENDP
_TEXT	ENDS
PUBLIC	_which$GSCopy$
PUBLIC	__$ArrayPad$
PUBLIC	_clip_edge
EXTRN	_clip_coeff:BYTE
; Function compile flags: /Ogtp
;	COMDAT _clip_edge
_TEXT	SEGMENT
_innies$ = -324						; size = 8
_i$ = -316						; size = 4
tv4005 = -312						; size = 4
tv3668 = -312						; size = 4
tv1616 = -308						; size = 4
_j$ = -308						; size = 4
_which$GSCopy$ = -304					; size = 4
tv3672 = -300						; size = 4
_in_count$ = -300					; size = 4
tv3676 = -296						; size = 4
tv1529 = -296						; size = 4
_clipg$ = -292						; size = 288
__$ArrayPad$ = -4					; size = 4
_gdata$ = 8						; size = 4
_id$ = 12						; size = 4
_which$ = 16						; size = 4
_clip_edge PROC						; COMDAT

; 3792 : { struct graphdata clipg[EDGE_VERTS];

	push	ebp
	mov	ebp, esp
	sub	esp, 324				; 00000144H
	mov	eax, DWORD PTR ___security_cookie
	xor	eax, ebp
	mov	DWORD PTR __$ArrayPad$[ebp], eax
	mov	ecx, DWORD PTR _which$[ebp]

; 3803 :       innies[in_count++] = i;

	fldz
	push	ebx
	mov	ebx, DWORD PTR _gdata$[ebp]
	push	esi
	push	edi
	mov	edi, DWORD PTR _web+616
	xor	eax, eax
	lea	edx, DWORD PTR [edi+ecx*8]
	mov	DWORD PTR _which$GSCopy$[ebp], ecx
	mov	DWORD PTR _in_count$[ebp], eax
	mov	DWORD PTR _i$[ebp], eax
	mov	DWORD PTR tv4005[ebp], edx
	mov	DWORD PTR tv1529[ebp], eax
	mov	DWORD PTR tv1616[ebp], ebx
$LN58@clip_edge:

; 3799 :   { REAL value = clip_coeff[which][SDIM];

	mov	eax, DWORD PTR tv4005[ebp]
	fld	QWORD PTR _clip_coeff[eax*8]

; 3800 :     for ( j = 0 ; j < SDIM ; j++ )

	xor	esi, esi
	cmp	edi, 4
	jl	SHORT $LN53@clip_edge

; 3799 :   { REAL value = clip_coeff[which][SDIM];

	mov	eax, ecx
	mov	ecx, DWORD PTR tv1616[ebp]
	shl	eax, 6
	lea	edx, DWORD PTR [edi-4]
	shr	edx, 2
	add	eax, OFFSET _clip_coeff+8
	inc	edx
	lea	esi, DWORD PTR [edx*4]

; 3800 :     for ( j = 0 ; j < SDIM ; j++ )

$LN43@clip_edge:

; 3801 :       value -= clip_coeff[which][j]*gdata[i].x[j];

	fld	QWORD PTR [eax-8]
	add	ecx, 32					; 00000020H
	fmul	QWORD PTR [ecx-32]
	add	eax, 32					; 00000020H
	dec	edx
	fsubp	ST(1), ST(0)
	fld	QWORD PTR [ecx-24]
	fmul	QWORD PTR [eax-32]
	fsubp	ST(1), ST(0)
	fld	QWORD PTR [ecx-16]
	fmul	QWORD PTR [eax-24]
	fsubp	ST(1), ST(0)
	fld	QWORD PTR [ecx-8]
	fmul	QWORD PTR [eax-16]
	fsubp	ST(1), ST(0)
	jne	SHORT $LN43@clip_edge

; 3799 :   { REAL value = clip_coeff[which][SDIM];

	mov	ecx, DWORD PTR _which$GSCopy$[ebp]
$LN53@clip_edge:

; 3800 :     for ( j = 0 ; j < SDIM ; j++ )

	cmp	esi, edi
	jge	SHORT $LN41@clip_edge
	lea	edx, DWORD PTR [esi+ecx*8]
	mov	ecx, DWORD PTR tv1529[ebp]
	add	ecx, esi
	mov	eax, edi
	lea	edx, DWORD PTR _clip_coeff[edx*8]
	lea	ecx, DWORD PTR [ebx+ecx*8]
	sub	eax, esi
$LC25@clip_edge:

; 3801 :       value -= clip_coeff[which][j]*gdata[i].x[j];

	fld	QWORD PTR [ecx]
	add	ecx, 8
	fmul	QWORD PTR [edx]
	add	edx, 8
	dec	eax
	fsubp	ST(1), ST(0)
	jne	SHORT $LC25@clip_edge

; 3800 :     for ( j = 0 ; j < SDIM ; j++ )

	mov	ecx, DWORD PTR _which$GSCopy$[ebp]
$LN41@clip_edge:

; 3802 :     if ( value >= 0.0 )

	fcomp	ST(1)
	fnstsw	ax
	test	ah, 1
	jne	SHORT $LN27@clip_edge

; 3803 :       innies[in_count++] = i;

	mov	eax, DWORD PTR _in_count$[ebp]
	mov	edx, DWORD PTR _i$[ebp]
	mov	DWORD PTR _innies$[ebp+eax*4], edx
	inc	eax
	mov	DWORD PTR _in_count$[ebp], eax
$LN27@clip_edge:

; 3793 :   int i,j;
; 3794 :   int innies[EDGE_VERTS];
; 3795 :   int in_count = 0;
; 3796 :   
; 3797 :   /* Find which vertices are on which side */
; 3798 :   for ( i = 0 ; i < EDGE_VERTS ; i++ )

	mov	eax, DWORD PTR tv1529[ebp]
	inc	DWORD PTR _i$[ebp]
	add	DWORD PTR tv1616[ebp], 144		; 00000090H
	add	eax, 18					; 00000012H
	mov	DWORD PTR tv1529[ebp], eax
	cmp	eax, 36					; 00000024H
	jl	$LN58@clip_edge

; 3804 :   }
; 3805 :   
; 3806 :   if ( in_count == 0 )

	mov	eax, DWORD PTR _in_count$[ebp]
	test	eax, eax
	je	$LN79@clip_edge

; 3807 :     return; /* nothing to show */
; 3808 : 
; 3809 :   if ( in_count == EDGE_VERTS ) /* don't have to clip */

	cmp	eax, 2
	jne	SHORT $LN20@clip_edge
	fstp	ST(0)

; 3810 :   { if ( which < MAXCLIPS-1 )

	cmp	ecx, 9
	jge	SHORT $LN19@clip_edge

; 3811 :       clip_edge(gdata,id,which+1);

	mov	eax, DWORD PTR _id$[ebp]
	inc	ecx
	push	ecx
	push	eax
	push	ebx
	call	_clip_edge
	add	esp, 12					; 0000000cH
	pop	edi
	pop	esi
	pop	ebx

; 3848 :    
; 3849 : } /* end clip_edge() */

	mov	ecx, DWORD PTR __$ArrayPad$[ebp]
	xor	ecx, ebp
	call	@__security_check_cookie@4
	mov	esp, ebp
	pop	ebp
	ret	0
$LN19@clip_edge:

; 3812 :     else
; 3813 :       (*graph_edge)(gdata,id);

	mov	ecx, DWORD PTR _id$[ebp]
	push	ecx
	push	ebx
	call	DWORD PTR _graph_edge
	add	esp, 8
	pop	edi
	pop	esi
	pop	ebx

; 3848 :    
; 3849 : } /* end clip_edge() */

	mov	ecx, DWORD PTR __$ArrayPad$[ebp]
	xor	ecx, ebp
	call	@__security_check_cookie@4
	mov	esp, ebp
	pop	ebp
	ret	0
$LN20@clip_edge:

; 3814 :     return;
; 3815 :   } 
; 3816 :     
; 3817 :   /* have to clip */
; 3818 :   
; 3819 :   clipg[0] = clipg[1] = gdata[0]; /* id, color, type, etc. */
; 3820 :   if ( innies[0] == 1 )

	cmp	DWORD PTR _innies$[ebp], 1

; 3821 :     for ( j = 0 ; j < SDIM ; j++ )

	mov	edx, DWORD PTR _web+616
	mov	ecx, 36					; 00000024H
	mov	esi, ebx
	lea	edi, DWORD PTR _clipg$[ebp+144]
	rep movsd
	mov	ecx, 36					; 00000024H
	mov	esi, ebx
	lea	edi, DWORD PTR _clipg$[ebp]
	rep movsd
	jne	SHORT $LC16@clip_edge
	xor	eax, eax
	cmp	edx, 4
	jl	SHORT $LC45@clip_edge
	lea	esi, DWORD PTR [edx-3]
	lea	ecx, DWORD PTR [ebx+152]
$LN46@clip_edge:

; 3822 :       clipg[0].x[j] = gdata[1].x[j];

	fld	QWORD PTR [ecx-8]
	add	eax, 4
	fstp	QWORD PTR _clipg$[ebp+eax*8-32]
	add	ecx, 32					; 00000020H
	fld	QWORD PTR [ecx-32]
	fstp	QWORD PTR _clipg$[ebp+eax*8-24]
	fld	QWORD PTR [ecx-24]
	fstp	QWORD PTR _clipg$[ebp+eax*8-16]
	fld	QWORD PTR [ecx-16]
	fstp	QWORD PTR _clipg$[ebp+eax*8-8]
	cmp	eax, esi
	jl	SHORT $LN46@clip_edge
$LC45@clip_edge:

; 3821 :     for ( j = 0 ; j < SDIM ; j++ )

	cmp	eax, edx
	jge	SHORT $LC16@clip_edge
	mov	ecx, edx
	sub	ecx, eax
	add	ecx, ecx
	lea	edi, DWORD PTR _clipg$[ebp+eax*8]
	lea	esi, DWORD PTR [ebx+eax*8+144]
	and	ecx, 1073741822				; 3ffffffeH
	rep movsd
$LC16@clip_edge:

; 3827 :     REAL numer=clip_coeff[which][SDIM];

	mov	eax, DWORD PTR tv4005[ebp]
	fld	ST(0)
	fld	QWORD PTR _clip_coeff[eax*8]

; 3828 :     for ( j = 0 ; j < SDIM ; j++ )

	xor	esi, esi
	cmp	edx, 4
	jl	SHORT $LN55@clip_edge

; 3823 :   
; 3824 :   /* find intersections of clip plane with edge */
; 3825 :   { REAL lambda;
; 3826 :     REAL denom=0;

	mov	ecx, DWORD PTR _which$GSCopy$[ebp]
	shl	ecx, 6
	lea	edi, DWORD PTR [edx-4]
	shr	edi, 2
	add	ecx, OFFSET _clip_coeff+8
	inc	edi
	lea	eax, DWORD PTR [ebx+8]
	lea	esi, DWORD PTR [edi*4]

; 3828 :     for ( j = 0 ; j < SDIM ; j++ )

$LN49@clip_edge:

; 3829 :     { numer -= clip_coeff[which][j]*gdata[0].x[j];

	fld	QWORD PTR [ecx-8]

; 3830 :       denom += clip_coeff[which][j]*(gdata[1].x[j] - gdata[0].x[j]);

	add	eax, 32					; 00000020H
	fmul	QWORD PTR [eax-40]
	add	ecx, 32					; 00000020H
	dec	edi
	fsubp	ST(1), ST(0)
	fld	QWORD PTR [eax-32]
	fmul	QWORD PTR [ecx-32]
	fsubp	ST(1), ST(0)
	fld	QWORD PTR [ecx-24]
	fmul	QWORD PTR [eax-24]
	fsubp	ST(1), ST(0)
	fld	QWORD PTR [ecx-16]
	fmul	QWORD PTR [eax-16]
	fsubp	ST(1), ST(0)
	fld	QWORD PTR [eax+104]
	fsub	QWORD PTR [eax-40]
	fmul	QWORD PTR [ecx-40]
	faddp	ST(2), ST(0)
	fld	QWORD PTR [eax+112]
	fsub	QWORD PTR [eax-32]
	fmul	QWORD PTR [ecx-32]
	faddp	ST(2), ST(0)
	fld	QWORD PTR [eax+120]
	fsub	QWORD PTR [eax-24]
	fmul	QWORD PTR [ecx-24]
	faddp	ST(2), ST(0)
	fld	QWORD PTR [eax+128]
	fsub	QWORD PTR [eax-16]
	fmul	QWORD PTR [ecx-16]
	faddp	ST(2), ST(0)
	jne	SHORT $LN49@clip_edge
$LN55@clip_edge:

; 3828 :     for ( j = 0 ; j < SDIM ; j++ )

	cmp	esi, edx
	jge	SHORT $LN56@clip_edge
	mov	ecx, DWORD PTR _which$GSCopy$[ebp]
	lea	eax, DWORD PTR [esi+ecx*8]
	lea	eax, DWORD PTR _clip_coeff[eax*8]
$LC13@clip_edge:

; 3829 :     { numer -= clip_coeff[which][j]*gdata[0].x[j];

	fld	QWORD PTR [ebx+esi*8]
	inc	esi
	fmul	QWORD PTR [eax]
	add	eax, 8
	fsubp	ST(1), ST(0)

; 3830 :       denom += clip_coeff[which][j]*(gdata[1].x[j] - gdata[0].x[j]);

	fld	QWORD PTR [ebx+esi*8+136]
	fsub	QWORD PTR [ebx+esi*8-8]
	fmul	QWORD PTR [eax-8]
	faddp	ST(2), ST(0)
	cmp	esi, edx
	jl	SHORT $LC13@clip_edge
$LN56@clip_edge:

; 3831 :     }
; 3832 :     if ( denom == 0.0 )

	fld	ST(1)
	fld	ST(3)
	fucompp
	fnstsw	ax
	fld1
	test	ah, 68					; 00000044H
	jp	SHORT $LN10@clip_edge
	fstp	ST(2)
	fstp	ST(0)

; 3833 :       lambda = 0;
; 3834 :     else 

	jmp	SHORT $LN6@clip_edge
$LN10@clip_edge:

; 3835 :       lambda = numer/denom;

	fxch	ST(1)
	fdivrp	ST(2), ST(0)

; 3836 :     if ( lambda < 0.0 ) lambda = 0.0;

	fxch	ST(1)
	fcom	ST(2)
	fnstsw	ax
	test	ah, 5
	jp	SHORT $LN118@clip_edge
	fstp	ST(0)
	jmp	SHORT $LN6@clip_edge
$LN118@clip_edge:
	fstp	ST(2)

; 3837 :     else if ( lambda > 1.0 ) lambda = 1.0;

	fcom	ST(1)
	fnstsw	ax
	test	ah, 5
	jp	SHORT $LN6@clip_edge
	fstp	ST(1)
	fld	ST(0)
	fxch	ST(1)
$LN6@clip_edge:

; 3838 : 
; 3839 :     for ( j = 0 ; j < SDIM ; j++ )

	xor	esi, esi
	cmp	edx, 4
	jl	$LN59@clip_edge

; 3840 :       clipg[1].x[j] = lambda*gdata[1].x[j] + (1-lambda)*gdata[0].x[j];

	lea	ecx, DWORD PTR _clipg$[ebp+144]
	fld	ST(0)
	sub	ecx, ebx
	fsub	ST(0), ST(2)
	mov	DWORD PTR tv3668[ebp], ecx
	lea	ecx, DWORD PTR _clipg$[ebp+152]
	sub	ecx, ebx
	mov	DWORD PTR tv3672[ebp], ecx
	lea	ecx, DWORD PTR _clipg$[ebp+160]
	sub	ecx, ebx
	mov	DWORD PTR tv3676[ebp], ecx
	lea	ecx, DWORD PTR [edx-4]
	lea	esi, DWORD PTR _clipg$[ebp+136]
	shr	ecx, 2
	sub	esi, ebx
	inc	ecx
	lea	edi, DWORD PTR [ecx*4]
	lea	eax, DWORD PTR [ebx+8]
	mov	DWORD PTR _j$[ebp], edi
$LN52@clip_edge:
	fld	QWORD PTR [eax+136]
	mov	edi, DWORD PTR tv3668[ebp]
	fmul	ST(0), ST(3)
	add	eax, 32					; 00000020H
	dec	ecx
	fld	QWORD PTR [eax-40]
	fmul	ST(0), ST(2)
	faddp	ST(1), ST(0)
	fstp	QWORD PTR [esi+eax-32]
	fld	QWORD PTR [eax+112]
	fmul	ST(0), ST(3)
	fld	ST(1)
	fmul	QWORD PTR [eax-32]
	faddp	ST(1), ST(0)
	fstp	QWORD PTR [edi+eax-32]
	mov	edi, DWORD PTR tv3672[ebp]
	fld	QWORD PTR [eax+120]
	fmul	ST(0), ST(3)
	fld	QWORD PTR [eax-24]
	fmul	ST(0), ST(2)
	faddp	ST(1), ST(0)
	fstp	QWORD PTR [edi+eax-32]
	mov	edi, DWORD PTR tv3676[ebp]
	fld	QWORD PTR [eax+128]
	fmul	ST(0), ST(3)
	fld	QWORD PTR [eax-16]
	fmul	ST(0), ST(2)
	faddp	ST(1), ST(0)
	fstp	QWORD PTR [edi+eax-32]
	jne	SHORT $LN52@clip_edge

; 3838 : 
; 3839 :     for ( j = 0 ; j < SDIM ; j++ )

	mov	esi, DWORD PTR _j$[ebp]
	fstp	ST(0)
$LN59@clip_edge:
	cmp	esi, edx
	jge	SHORT $LN116@clip_edge
	lea	ecx, DWORD PTR _clipg$[ebp+144]
	fsub	ST(0), ST(1)
	sub	ecx, ebx
	lea	eax, DWORD PTR [ebx+esi*8]
	sub	edx, esi
$LC5@clip_edge:

; 3840 :       clipg[1].x[j] = lambda*gdata[1].x[j] + (1-lambda)*gdata[0].x[j];

	fld	QWORD PTR [eax+144]
	add	eax, 8
	dec	edx
	fmul	ST(0), ST(2)
	fld	ST(1)
	fmul	QWORD PTR [eax-8]
	faddp	ST(1), ST(0)
	fstp	QWORD PTR [eax+ecx-8]
	jne	SHORT $LC5@clip_edge
$LN116@clip_edge:

; 3841 :   }
; 3842 : 
; 3843 :  
; 3844 :   if ( which < MAXCLIPS-1 )

	mov	eax, DWORD PTR _which$GSCopy$[ebp]
	fstp	ST(1)
	fstp	ST(0)
	cmp	eax, 9
	jge	SHORT $LN2@clip_edge

; 3845 :     clip_edge(clipg,id,which+1);

	mov	edx, DWORD PTR _id$[ebp]
	inc	eax
	push	eax
	push	edx
	lea	eax, DWORD PTR _clipg$[ebp]
	push	eax
	call	_clip_edge
	add	esp, 12					; 0000000cH
	pop	edi
	pop	esi
	pop	ebx

; 3848 :    
; 3849 : } /* end clip_edge() */

	mov	ecx, DWORD PTR __$ArrayPad$[ebp]
	xor	ecx, ebp
	call	@__security_check_cookie@4
	mov	esp, ebp
	pop	ebp
	ret	0
$LN2@clip_edge:

; 3846 :   else
; 3847 :     (*graph_edge)(clipg,id);

	mov	ecx, DWORD PTR _id$[ebp]
	push	ecx
	lea	edx, DWORD PTR _clipg$[ebp]
	push	edx
	call	DWORD PTR _graph_edge
	add	esp, 8
	pop	edi
	pop	esi
	pop	ebx

; 3848 :    
; 3849 : } /* end clip_edge() */

	mov	ecx, DWORD PTR __$ArrayPad$[ebp]
	xor	ecx, ebp
	call	@__security_check_cookie@4
	mov	esp, ebp
	pop	ebp
	ret	0
$LN79@clip_edge:
	mov	ecx, DWORD PTR __$ArrayPad$[ebp]
	fstp	ST(0)
	pop	edi
	pop	esi
	xor	ecx, ebp
	pop	ebx
	call	@__security_check_cookie@4
	mov	esp, ebp
	pop	ebp
	ret	0
_clip_edge ENDP
_TEXT	ENDS
PUBLIC	_which$GSCopy$
PUBLIC	__$ArrayPad$
PUBLIC	_clip_facet
; Function compile flags: /Ogtp
;	COMDAT _clip_facet
_TEXT	SEGMENT
_pair$ = -1220						; size = 8
tv5449 = -1212						; size = 4
_which$GSCopy$ = -1208					; size = 4
tv5145 = -1204						; size = 4
tv3588 = -1204						; size = 4
_in_count$ = -1200					; size = 4
tv5385 = -1196						; size = 4
tv1921 = -1196						; size = 4
tv5213 = -1192						; size = 4
tv1885 = -1192						; size = 4
tv1860 = -1188						; size = 4
_oddie$ = -1188						; size = 4
tv5383 = -1184						; size = 4
_i$ = -1184						; size = 4
_clipg$ = -1180						; size = 1152
_outies$ = -28						; size = 12
_innies$ = -16						; size = 12
__$ArrayPad$ = -4					; size = 4
_gdata$ = 8						; size = 4
_f_id$ = 12						; size = 4
_which$ = 16						; size = 4
_clip_facet PROC					; COMDAT

; 3866 : { struct graphdata clipg[2][FACET_VERTS+1];  // +1 for wraparound

	push	ebp
	mov	ebp, esp
	sub	esp, 1220				; 000004c4H
	mov	eax, DWORD PTR ___security_cookie
	xor	eax, ebp
	mov	DWORD PTR __$ArrayPad$[ebp], eax
	mov	edx, DWORD PTR _which$[ebp]

; 3880 :     if ( value >= 0.0 )
; 3881 :       innies[in_count++] = i;

	fldz
	push	ebx
	mov	ebx, DWORD PTR _gdata$[ebp]
	push	esi
	mov	esi, DWORD PTR _web+616
	xor	eax, eax
	lea	ecx, DWORD PTR [esi+edx*8]
	mov	DWORD PTR _in_count$[ebp], eax
	mov	DWORD PTR _i$[ebp], eax
	mov	DWORD PTR tv5449[ebp], ecx
	mov	DWORD PTR tv1860[ebp], eax
	lea	eax, DWORD PTR _outies$[ebp]
	mov	ecx, ebx
	push	edi
	mov	DWORD PTR _which$GSCopy$[ebp], edx
	mov	DWORD PTR tv1885[ebp], eax
	mov	DWORD PTR tv1921[ebp], ecx
$LN66@clip_facet:

; 3877 :   { REAL value = clip_coeff[which][SDIM];

	mov	eax, DWORD PTR tv5449[ebp]
	fld	QWORD PTR _clip_coeff[eax*8]

; 3878 :     for ( j = 0 ; j < SDIM ; j++ )

	xor	edi, edi
	cmp	esi, 4
	jl	SHORT $LN64@clip_facet

; 3877 :   { REAL value = clip_coeff[which][SDIM];

	mov	eax, edx
	add	esi, -4					; fffffffcH
	shl	eax, 6
	shr	esi, 2
	add	eax, OFFSET _clip_coeff+8
	inc	esi
	lea	edi, DWORD PTR [esi*4]

; 3878 :     for ( j = 0 ; j < SDIM ; j++ )

$LN57@clip_facet:

; 3879 :       value -= clip_coeff[which][j]*gdata[i].x[j];

	fld	QWORD PTR [eax-8]
	add	ecx, 32					; 00000020H
	fmul	QWORD PTR [ecx-32]
	add	eax, 32					; 00000020H
	dec	esi
	fsubp	ST(1), ST(0)
	fld	QWORD PTR [ecx-24]
	fmul	QWORD PTR [eax-32]
	fsubp	ST(1), ST(0)
	fld	QWORD PTR [ecx-16]
	fmul	QWORD PTR [eax-24]
	fsubp	ST(1), ST(0)
	fld	QWORD PTR [ecx-8]
	fmul	QWORD PTR [eax-16]
	fsubp	ST(1), ST(0)
	jne	SHORT $LN57@clip_facet

; 3877 :   { REAL value = clip_coeff[which][SDIM];

	mov	esi, DWORD PTR _web+616
$LN64@clip_facet:

; 3878 :     for ( j = 0 ; j < SDIM ; j++ )

	cmp	edi, esi
	jge	SHORT $LN55@clip_facet
	mov	ecx, DWORD PTR tv1860[ebp]
	mov	eax, DWORD PTR _web+616
	add	ecx, edi
	lea	esi, DWORD PTR [edi+edx*8]
	lea	esi, DWORD PTR _clip_coeff[esi*8]
	lea	ecx, DWORD PTR [ebx+ecx*8]
	sub	eax, edi
$LC39@clip_facet:

; 3879 :       value -= clip_coeff[which][j]*gdata[i].x[j];

	fld	QWORD PTR [esi]
	add	ecx, 8
	fmul	QWORD PTR [ecx-8]
	add	esi, 8
	dec	eax
	fsubp	ST(1), ST(0)
	jne	SHORT $LC39@clip_facet

; 3878 :     for ( j = 0 ; j < SDIM ; j++ )

	mov	esi, DWORD PTR _web+616
$LN55@clip_facet:

; 3880 :     if ( value >= 0.0 )
; 3881 :       innies[in_count++] = i;

	mov	ecx, DWORD PTR _i$[ebp]
	fcomp	ST(1)
	fnstsw	ax
	test	ah, 1
	jne	SHORT $LN36@clip_facet
	mov	eax, DWORD PTR _in_count$[ebp]
	mov	DWORD PTR _innies$[ebp+eax*4], ecx
	inc	eax
	mov	DWORD PTR _in_count$[ebp], eax

; 3882 :     else

	jmp	SHORT $LN41@clip_facet
$LN36@clip_facet:

; 3883 :       outies[out_count++] = i;

	mov	eax, DWORD PTR tv1885[ebp]
	mov	DWORD PTR [eax], ecx
	add	eax, 4
	mov	DWORD PTR tv1885[ebp], eax
$LN41@clip_facet:

; 3867 :   int i,j;
; 3868 :   int innies[FACET_VERTS]; /* which vertices in clip space */
; 3869 :   int in_count=0;
; 3870 :   int outies[FACET_VERTS];  /* which vertices out of clip space */
; 3871 :   int out_count=0;
; 3872 :   int oddie;  /* odd vertex, in or out */
; 3873 :   int pair[2]; /* the other pair */
; 3874 : 
; 3875 :   /* Find which vertices are on which side and */
; 3876 :   for ( i = 0 ; i < FACET_VERTS ; i++ )

	mov	eax, DWORD PTR tv1860[ebp]
	mov	ecx, DWORD PTR tv1921[ebp]
	inc	DWORD PTR _i$[ebp]
	add	eax, 18					; 00000012H
	add	ecx, 144				; 00000090H
	mov	DWORD PTR tv1921[ebp], ecx
	mov	DWORD PTR tv1860[ebp], eax
	cmp	eax, 54					; 00000036H
	jl	$LN66@clip_facet

; 3884 :   }
; 3885 :   
; 3886 :   if ( in_count == 0 )

	mov	eax, DWORD PTR _in_count$[ebp]
	test	eax, eax
	je	$LN87@clip_facet

; 3887 :     return; /* nothing to show */
; 3888 : 
; 3889 :   if ( in_count == 3 ) /* don't have to clip */

	cmp	eax, 3
	jne	SHORT $LN33@clip_facet
	fstp	ST(0)

; 3890 :   { if ( which < MAXCLIPS-1 )

	cmp	edx, 9
	jge	SHORT $LN32@clip_facet

; 3891 :       clip_facet(gdata,f_id,which+1);

	inc	edx
	push	edx
	mov	edx, DWORD PTR _f_id$[ebp]
	push	edx
	push	ebx
	call	_clip_facet
	add	esp, 12					; 0000000cH
	pop	edi
	pop	esi
	pop	ebx

; 4007 :   
; 4008 : } /* end clip_facet() */

	mov	ecx, DWORD PTR __$ArrayPad$[ebp]
	xor	ecx, ebp
	call	@__security_check_cookie@4
	mov	esp, ebp
	pop	ebp
	ret	0
$LN32@clip_facet:

; 3892 :     else
; 3893 :       (*graph_facet)(gdata,f_id);

	mov	eax, DWORD PTR _f_id$[ebp]
	push	eax
	push	ebx
	call	DWORD PTR _graph_facet
	add	esp, 8
	pop	edi
	pop	esi
	pop	ebx

; 4007 :   
; 4008 : } /* end clip_facet() */

	mov	ecx, DWORD PTR __$ArrayPad$[ebp]
	xor	ecx, ebp
	call	@__security_check_cookie@4
	mov	esp, ebp
	pop	ebp
	ret	0
$LN33@clip_facet:

; 3894 :     return;
; 3895 :   } 
; 3896 :     
; 3897 :   /* have to clip, maybe 2 facets result */
; 3898 :   
; 3899 :   clipg[0][0] = clipg[0][1] = gdata[0]; /* facet id, color, normsl, etc. */

	mov	ecx, 36					; 00000024H
	mov	esi, ebx
	lea	edi, DWORD PTR _clipg$[ebp+144]
	rep movsd

; 3900 :   clipg[0][0].etype = INVISIBLE_EDGE;
; 3901 :   clipg[0][1].etype = INVISIBLE_EDGE;

	xor	eax, eax
	mov	ecx, 36					; 00000024H
	mov	esi, ebx
	lea	edi, DWORD PTR _clipg$[ebp]
	rep movsd
	xor	ecx, ecx
	mov	WORD PTR _clipg$[ebp+268], ax

; 3902 :   clipg[0][0].ecolor = CLEAR;

	or	eax, -1

; 3903 :   clipg[0][1].ecolor = CLEAR;
; 3904 :   
; 3905 :   if ( in_count == 1 )

	cmp	DWORD PTR _in_count$[ebp], 1
	mov	WORD PTR _clipg$[ebp+124], cx
	mov	DWORD PTR _clipg$[ebp+120], eax
	mov	DWORD PTR _clipg$[ebp+264], eax
	jne	SHORT $LN30@clip_facet

; 3906 :   { oddie = innies[0];
; 3907 :     pair[0] = outies[0];

	mov	eax, DWORD PTR _outies$[ebp]
	mov	ecx, DWORD PTR _innies$[ebp]
	mov	DWORD PTR _pair$[ebp], eax

; 3908 :     pair[1] = outies[1];

	mov	eax, DWORD PTR _outies$[ebp+4]

; 3909 :   }
; 3910 :   else /* in_count == 2 */

	jmp	SHORT $LN130@clip_facet
$LN30@clip_facet:

; 3911 :   { oddie = outies[0];
; 3912 :     pair[0] = innies[0];

	mov	eax, DWORD PTR _innies$[ebp]
	mov	ecx, DWORD PTR _outies$[ebp]
	mov	DWORD PTR _pair$[ebp], eax

; 3913 :     pair[1] = innies[1];

	mov	eax, DWORD PTR _innies$[ebp+4]
$LN130@clip_facet:

; 3914 :   }
; 3915 : 
; 3916 :   /* find intersections of clip plane with facet edges */
; 3917 :   for ( i = 0 ; i < 2 ; i++ )

	fld1
	mov	DWORD PTR _pair$[ebp+4], eax
	lea	eax, DWORD PTR _pair$[ebp]
	mov	DWORD PTR tv5383[ebp], eax
	lea	eax, DWORD PTR _clipg$[ebp+8]
	mov	DWORD PTR _oddie$[ebp], ecx
	mov	DWORD PTR tv5213[ebp], 0
	mov	DWORD PTR tv5385[ebp], eax
	jmp	SHORT $LN28@clip_facet
$LN65@clip_facet:
	mov	edx, DWORD PTR _which$GSCopy$[ebp]
$LN28@clip_facet:

; 3920 :     REAL numer=clip_coeff[which][SDIM];

	mov	eax, DWORD PTR tv5449[ebp]
	fld	ST(1)
	fld	QWORD PTR _clip_coeff[eax*8]

; 3921 :     for ( j = 0 ; j < SDIM ; j++ )

	xor	edi, edi
	cmp	DWORD PTR _web+616, 4
	jl	$LC59@clip_facet

; 3918 :   { REAL lambda;
; 3919 :     REAL denom=0;

	mov	esi, DWORD PTR _web+616
	mov	eax, edx
	lea	edx, DWORD PTR [ecx+ecx*8]
	mov	ecx, DWORD PTR tv5383[ebp]
	mov	ecx, DWORD PTR [ecx]
	add	esi, -4					; fffffffcH
	shl	eax, 6
	shl	edx, 4
	lea	ecx, DWORD PTR [ecx+ecx*8]
	add	ecx, ecx
	shr	esi, 2
	add	eax, OFFSET _clip_coeff+8
	add	edx, ebx
	inc	esi
	lea	ecx, DWORD PTR [ebx+ecx*8+16]
	lea	edi, DWORD PTR [esi*4]

; 3921 :     for ( j = 0 ; j < SDIM ; j++ )

$LN60@clip_facet:

; 3922 :     { numer -= clip_coeff[which][j]*gdata[pair[i]].x[j];

	fld	QWORD PTR [ecx-16]

; 3923 :       denom += clip_coeff[which][j]*(gdata[oddie].x[j] - gdata[pair[i]].x[j]);

	add	edx, 32					; 00000020H
	fmul	QWORD PTR [eax-8]
	add	ecx, 32					; 00000020H
	add	eax, 32					; 00000020H
	dec	esi
	fsubp	ST(1), ST(0)
	fld	QWORD PTR [ecx-40]
	fmul	QWORD PTR [eax-32]
	fsubp	ST(1), ST(0)
	fld	QWORD PTR [eax-24]
	fmul	QWORD PTR [ecx-32]
	fsubp	ST(1), ST(0)
	fld	QWORD PTR [ecx-24]
	fmul	QWORD PTR [eax-16]
	fsubp	ST(1), ST(0)
	fld	QWORD PTR [edx-32]
	fsub	QWORD PTR [ecx-48]
	fmul	QWORD PTR [eax-40]
	faddp	ST(2), ST(0)
	fld	QWORD PTR [edx-24]
	fsub	QWORD PTR [ecx-40]
	fmul	QWORD PTR [eax-32]
	faddp	ST(2), ST(0)
	fld	QWORD PTR [edx-16]
	fsub	QWORD PTR [ecx-32]
	fmul	QWORD PTR [eax-24]
	faddp	ST(2), ST(0)
	fld	QWORD PTR [edx-8]
	fsub	QWORD PTR [ecx-24]
	fmul	QWORD PTR [eax-16]
	faddp	ST(2), ST(0)
	jne	SHORT $LN60@clip_facet

; 3918 :   { REAL lambda;
; 3919 :     REAL denom=0;

	mov	ecx, DWORD PTR _oddie$[ebp]
	mov	edx, DWORD PTR _which$GSCopy$[ebp]
$LC59@clip_facet:

; 3921 :     for ( j = 0 ; j < SDIM ; j++ )

	cmp	edi, DWORD PTR _web+616
	jge	SHORT $LN58@clip_facet
	lea	esi, DWORD PTR [edi+edx*8]
	mov	edx, DWORD PTR tv5383[ebp]
	mov	eax, DWORD PTR [edx]
	lea	eax, DWORD PTR [eax+eax*8]
	lea	edx, DWORD PTR [edi+eax*2]
	lea	eax, DWORD PTR [ebx+edx*8]
	lea	edx, DWORD PTR [ecx+ecx*8]
	lea	edx, DWORD PTR [edi+edx*2]
	lea	edx, DWORD PTR [ebx+edx*8]
	mov	DWORD PTR tv3588[ebp], edx
	mov	edx, DWORD PTR _web+616
	sub	edx, edi
	mov	edi, DWORD PTR tv3588[ebp]
	lea	esi, DWORD PTR _clip_coeff[esi*8]
$LC25@clip_facet:

; 3922 :     { numer -= clip_coeff[which][j]*gdata[pair[i]].x[j];

	fld	QWORD PTR [eax]
	add	edi, 8
	fmul	QWORD PTR [esi]
	add	eax, 8
	add	esi, 8
	dec	edx
	fsubp	ST(1), ST(0)

; 3923 :       denom += clip_coeff[which][j]*(gdata[oddie].x[j] - gdata[pair[i]].x[j]);

	fld	QWORD PTR [edi-8]
	fsub	QWORD PTR [eax-8]
	fmul	QWORD PTR [esi-8]
	faddp	ST(2), ST(0)
	jne	SHORT $LC25@clip_facet
$LN58@clip_facet:

; 3924 :     }
; 3925 :     if ( denom == 0.0 )

	fld	ST(1)
	fld	ST(4)
	fucompp
	fnstsw	ax
	test	ah, 68					; 00000044H
	jp	SHORT $LN22@clip_facet
	fstp	ST(1)
	fstp	ST(0)

; 3926 :       lambda = 0;

	fld	ST(1)

; 3927 :     else 

	jmp	SHORT $LN18@clip_facet
$LN22@clip_facet:

; 3928 :       lambda = numer/denom;

	fdivrp	ST(1), ST(0)

; 3929 :     if ( lambda < 0.0 ) lambda = 0.0;

	fcom	ST(2)
	fnstsw	ax
	test	ah, 5
	jp	SHORT $LN20@clip_facet
	fstp	ST(0)
	fld	ST(1)
	jmp	SHORT $LN18@clip_facet
$LN20@clip_facet:

; 3930 :     else if ( lambda > 1.0 ) lambda = 1.0;

	fcom	ST(1)
	fnstsw	ax
	test	ah, 65					; 00000041H
	jne	SHORT $LN18@clip_facet
	fstp	ST(0)
	fld	ST(0)
$LN18@clip_facet:

; 3931 : 
; 3932 :     for ( j = 0 ; j < SDIM ; j++ )

	mov	edi, DWORD PTR _web+616
	xor	edx, edx
	cmp	edi, 4
	jl	$LC62@clip_facet
	mov	esi, DWORD PTR tv5385[ebp]
	fld	ST(1)
	lea	eax, DWORD PTR [ecx+ecx*8]
	fsub	ST(0), ST(1)
	mov	ecx, DWORD PTR tv5383[ebp]
	mov	ecx, DWORD PTR [ecx]
	add	edi, -4					; fffffffcH
	shl	eax, 4
	lea	edx, DWORD PTR [ecx+ecx*8]
	add	edx, edx
	shr	edi, 2
	add	eax, ebx
	inc	edi
	lea	ecx, DWORD PTR [ebx+edx*8+16]
	lea	edx, DWORD PTR [edi*4]
$LN63@clip_facet:

; 3933 :       clipg[0][i].x[j] = lambda*gdata[oddie].x[j] + (1-lambda)*gdata[pair[i]].x[j];

	fld	QWORD PTR [ecx-16]
	add	eax, 32					; 00000020H
	fmul	ST(0), ST(1)
	add	ecx, 32					; 00000020H
	fld	QWORD PTR [eax-32]
	add	esi, 32					; 00000020H
	dec	edi
	fmul	ST(0), ST(3)
	faddp	ST(1), ST(0)
	fstp	QWORD PTR [esi-40]
	fld	QWORD PTR [ecx-40]
	fmul	ST(0), ST(1)
	fld	QWORD PTR [eax-24]
	fmul	ST(0), ST(3)
	faddp	ST(1), ST(0)
	fstp	QWORD PTR [esi-32]
	fld	QWORD PTR [eax-16]
	fmul	ST(0), ST(2)
	fld	ST(1)
	fmul	QWORD PTR [ecx-32]
	faddp	ST(1), ST(0)
	fstp	QWORD PTR [esi-24]
	fld	QWORD PTR [ecx-24]
	fmul	ST(0), ST(1)
	fld	QWORD PTR [eax-8]
	fmul	ST(0), ST(3)
	faddp	ST(1), ST(0)
	fstp	QWORD PTR [esi-16]
	jne	SHORT $LN63@clip_facet

; 3931 : 
; 3932 :     for ( j = 0 ; j < SDIM ; j++ )

	mov	ecx, DWORD PTR _oddie$[ebp]
	fstp	ST(0)
	mov	edi, DWORD PTR _web+616
$LC62@clip_facet:
	cmp	edx, edi
	jge	SHORT $LN118@clip_facet
	mov	eax, DWORD PTR tv5213[ebp]
	fld	ST(1)
	add	eax, edx
	fsub	ST(0), ST(1)
	lea	eax, DWORD PTR _clipg$[ebp+eax*8]
	mov	DWORD PTR tv5145[ebp], eax
	lea	eax, DWORD PTR [ecx+ecx*8]
	lea	eax, DWORD PTR [edx+eax*2]
	lea	edi, DWORD PTR [ebx+eax*8]
	mov	eax, DWORD PTR tv5383[ebp]
	mov	eax, DWORD PTR [eax]
	lea	eax, DWORD PTR [eax+eax*8]
	lea	eax, DWORD PTR [edx+eax*2]
	lea	esi, DWORD PTR [ebx+eax*8]
	mov	eax, DWORD PTR _web+616
	sub	eax, edx
$LC17@clip_facet:

; 3933 :       clipg[0][i].x[j] = lambda*gdata[oddie].x[j] + (1-lambda)*gdata[pair[i]].x[j];

	fld	QWORD PTR [edi]
	mov	edx, DWORD PTR tv5145[ebp]
	fmul	ST(0), ST(2)
	add	edx, 8
	fld	ST(1)
	add	esi, 8
	fmul	QWORD PTR [esi-8]
	add	edi, 8
	dec	eax
	mov	DWORD PTR tv5145[ebp], edx
	faddp	ST(1), ST(0)
	fstp	QWORD PTR [edx-8]
	jne	SHORT $LC17@clip_facet

; 3931 : 
; 3932 :     for ( j = 0 ; j < SDIM ; j++ )

	fstp	ST(1)
$LN118@clip_facet:

; 3914 :   }
; 3915 : 
; 3916 :   /* find intersections of clip plane with facet edges */
; 3917 :   for ( i = 0 ; i < 2 ; i++ )

	mov	eax, DWORD PTR tv5213[ebp]

; 3931 : 
; 3932 :     for ( j = 0 ; j < SDIM ; j++ )

	fstp	ST(0)
	add	DWORD PTR tv5385[ebp], 144		; 00000090H
	add	DWORD PTR tv5383[ebp], 4
	add	eax, 18					; 00000012H
	mov	DWORD PTR tv5213[ebp], eax
	cmp	eax, 36					; 00000024H
	jl	$LN65@clip_facet

; 3934 :   }
; 3935 : 
; 3936 :   if ( in_count == 1 )

	cmp	DWORD PTR _in_count$[ebp], 1
	fstp	ST(1)
	fstp	ST(0)

; 3939 :     { clipg[0][2] = clipg[0][1];

	mov	ecx, 36					; 00000024H
	lea	edi, DWORD PTR _clipg$[ebp+288]
	jne	$LN14@clip_facet

; 3937 :   { /* third vertex is innie */
; 3938 :     if ( innies[0] == 0 )

	mov	eax, DWORD PTR _innies$[ebp]
	test	eax, eax
	jne	SHORT $LN13@clip_facet

; 3940 :       clipg[0][1] = clipg[0][0];
; 3941 :       clipg[0][0] = gdata[0];
; 3942 :       clipg[0][2].ecolor = gdata[2].ecolor;
; 3943 :       clipg[0][2].etype = gdata[2].etype;

	mov	dx, WORD PTR [ebx+412]
	lea	esi, DWORD PTR _clipg$[ebp+144]
	rep movsd
	mov	ecx, 36					; 00000024H
	lea	esi, DWORD PTR _clipg$[ebp]
	lea	edi, DWORD PTR _clipg$[ebp+144]
	rep movsd
	mov	ecx, 36					; 00000024H
	mov	esi, ebx
	lea	edi, DWORD PTR _clipg$[ebp]
	rep movsd
	mov	ecx, DWORD PTR [ebx+408]
	mov	DWORD PTR _clipg$[ebp+408], ecx
	mov	WORD PTR _clipg$[ebp+412], dx
	jmp	$LN3@clip_facet
$LN13@clip_facet:

; 3944 :     }
; 3945 :     else if ( innies[0] == 1 )

	cmp	eax, 1
	jne	SHORT $LN11@clip_facet

; 3946 :     { clipg[0][2] = clipg[0][1];
; 3947 :       clipg[0][1] = gdata[1];
; 3948 :       clipg[0][0].etype = gdata[0].etype;

	mov	ax, WORD PTR [ebx+124]
	lea	esi, DWORD PTR _clipg$[ebp+144]
	rep movsd
	lea	esi, DWORD PTR [ebx+144]
	mov	ecx, 36					; 00000024H
	lea	edi, DWORD PTR _clipg$[ebp+144]
	rep movsd

; 3949 :       clipg[0][0].ecolor = gdata[0].ecolor;

	mov	ecx, DWORD PTR [ebx+120]
	mov	WORD PTR _clipg$[ebp+124], ax
	mov	DWORD PTR _clipg$[ebp+120], ecx

; 3950 :     }
; 3951 :     else

	jmp	$LN3@clip_facet
$LN11@clip_facet:

; 3952 :       clipg[0][2] = gdata[innies[0]];

	lea	esi, DWORD PTR [eax+eax*8]
	shl	esi, 4
	add	esi, ebx
	rep movsd

; 3953 : 
; 3954 :   }
; 3955 :   else /* two innies, so have to split */

	jmp	$LN3@clip_facet
$LN14@clip_facet:

; 3956 :   { clipg[1][0] = clipg[1][1] = gdata[0]; /* facet id, color, etc */
; 3957 :     clipg[1][0].etype = INVISIBLE_EDGE;
; 3958 :     clipg[1][1].etype = INVISIBLE_EDGE;
; 3959 :     clipg[1][0].ecolor = CLEAR;
; 3960 :     clipg[1][1].ecolor = CLEAR;
; 3961 :  
; 3962 :     if ( outies[0] == 0 )

	mov	eax, DWORD PTR _outies$[ebp]
	test	eax, eax
	jne	SHORT $LN8@clip_facet

; 3963 :     { clipg[0][2] = clipg[0][1];
; 3964 :       clipg[0][1] = gdata[1];
; 3965 :       clipg[0][0].etype = gdata[0].etype;

	mov	dx, WORD PTR [ebx+124]
	lea	esi, DWORD PTR _clipg$[ebp+144]
	rep movsd
	mov	ecx, 36					; 00000024H
	lea	esi, DWORD PTR [ebx+144]
	lea	edi, DWORD PTR _clipg$[ebp+144]
	rep movsd

; 3966 :       clipg[0][0].ecolor = gdata[0].ecolor;

	mov	ecx, DWORD PTR [ebx+120]
	mov	WORD PTR _clipg$[ebp+124], dx
	mov	DWORD PTR _clipg$[ebp+120], ecx

; 3967 :       clipg[0][1].etype = INVISIBLE_EDGE;   

	xor	edx, edx
	mov	WORD PTR _clipg$[ebp+268], dx

; 3968 :       clipg[0][1].ecolor = CLEAR;   

	mov	DWORD PTR _clipg$[ebp+264], -1

; 3969 :       clipg[1][0] = clipg[0][2];

	mov	ecx, 36					; 00000024H
	lea	esi, DWORD PTR _clipg$[ebp+288]
	lea	edi, DWORD PTR _clipg$[ebp+576]
	rep movsd

; 3970 :       clipg[1][1] = gdata[1];

	mov	ecx, 36					; 00000024H
	lea	esi, DWORD PTR [ebx+144]
	lea	edi, DWORD PTR _clipg$[ebp+720]
	rep movsd

; 3971 :       clipg[1][2] = gdata[2];

	jmp	SHORT $LN131@clip_facet
$LN8@clip_facet:

; 3972 :     }
; 3973 :     else if ( outies[0] == 1 )

	cmp	eax, 1
	jne	SHORT $LN6@clip_facet

; 3974 :     { clipg[0][2] = gdata[0];
; 3975 :       clipg[1][0] = gdata[0];
; 3976 :       clipg[1][0].etype = INVISIBLE_EDGE;
; 3977 :       clipg[1][0].ecolor = CLEAR;
; 3978 :       clipg[1][1] = clipg[0][1];
; 3979 :       clipg[1][1].etype = gdata[1].etype;
; 3980 :       clipg[1][1].ecolor = gdata[1].ecolor;

	mov	edx, DWORD PTR [ebx+264]
	mov	esi, ebx
	rep movsd
	mov	ecx, 36					; 00000024H
	mov	esi, ebx
	lea	edi, DWORD PTR _clipg$[ebp+576]
	rep movsd
	xor	eax, eax
	mov	ecx, 36					; 00000024H
	lea	esi, DWORD PTR _clipg$[ebp+144]
	lea	edi, DWORD PTR _clipg$[ebp+720]
	mov	WORD PTR _clipg$[ebp+700], ax
	mov	DWORD PTR _clipg$[ebp+696], -1
	rep movsd
	mov	cx, WORD PTR [ebx+268]
	mov	WORD PTR _clipg$[ebp+844], cx
	mov	DWORD PTR _clipg$[ebp+840], edx
$LN131@clip_facet:

; 3981 :       clipg[1][2] = gdata[2];

	lea	esi, DWORD PTR [ebx+288]
	mov	ecx, 36					; 00000024H
	lea	edi, DWORD PTR _clipg$[ebp+864]
	rep movsd

; 3982 :     }
; 3983 :     else

	jmp	SHORT $LN5@clip_facet
$LN6@clip_facet:

; 3984 :     { 
; 3985 :       clipg[0][2] = clipg[0][1];
; 3986 :       clipg[0][1] = gdata[1];
; 3987 :       clipg[1][0] = gdata[0];
; 3988 :       clipg[1][1] = gdata[1];
; 3989 :       clipg[1][1].etype = INVISIBLE_EDGE;
; 3990 :       clipg[1][1].ecolor = CLEAR;
; 3991 :       clipg[1][2] = clipg[0][0];
; 3992 :       clipg[1][2].etype = gdata[2].etype;
; 3993 :       clipg[1][2].ecolor = gdata[2].ecolor;

	mov	edx, DWORD PTR [ebx+408]
	lea	esi, DWORD PTR _clipg$[ebp+144]
	rep movsd
	mov	ecx, 36					; 00000024H
	lea	esi, DWORD PTR [ebx+144]
	lea	edi, DWORD PTR _clipg$[ebp+144]
	rep movsd
	mov	ecx, 36					; 00000024H
	mov	esi, ebx
	lea	edi, DWORD PTR _clipg$[ebp+576]
	rep movsd
	mov	ecx, 36					; 00000024H
	lea	esi, DWORD PTR [ebx+144]
	lea	edi, DWORD PTR _clipg$[ebp+720]
	rep movsd
	xor	eax, eax
	mov	ecx, 36					; 00000024H
	lea	esi, DWORD PTR _clipg$[ebp]
	lea	edi, DWORD PTR _clipg$[ebp+864]
	mov	WORD PTR _clipg$[ebp+844], ax
	mov	DWORD PTR _clipg$[ebp+840], -1
	rep movsd
	mov	cx, WORD PTR [ebx+412]
	mov	WORD PTR _clipg$[ebp+988], cx
	mov	DWORD PTR _clipg$[ebp+984], edx
$LN5@clip_facet:

; 3994 :     }  
; 3995 :   
; 3996 :     if ( which < MAXCLIPS-1 )

	mov	eax, DWORD PTR _which$GSCopy$[ebp]
	cmp	eax, 9
	jge	SHORT $LN4@clip_facet

; 3997 :       clip_facet(clipg[1],f_id,which+1);

	inc	eax
	push	eax
	mov	eax, DWORD PTR _f_id$[ebp]
	push	eax
	lea	ecx, DWORD PTR _clipg$[ebp+576]
	push	ecx
	call	_clip_facet
	add	esp, 12					; 0000000cH

; 3998 :     else

	jmp	SHORT $LN3@clip_facet
$LN4@clip_facet:

; 3999 :       (*graph_facet)(clipg[1],f_id);

	mov	edx, DWORD PTR _f_id$[ebp]
	push	edx
	lea	eax, DWORD PTR _clipg$[ebp+576]
	push	eax
	call	DWORD PTR _graph_facet
	add	esp, 8
$LN3@clip_facet:

; 4000 : 
; 4001 :   }
; 4002 :  
; 4003 :   if ( which < MAXCLIPS-1 )

	mov	eax, DWORD PTR _which$GSCopy$[ebp]
	cmp	eax, 9
	jge	SHORT $LN2@clip_facet

; 4004 :     clip_facet(clipg[0],f_id,which+1);

	mov	ecx, DWORD PTR _f_id$[ebp]
	inc	eax
	push	eax
	push	ecx
	lea	edx, DWORD PTR _clipg$[ebp]
	push	edx
	call	_clip_facet
	add	esp, 12					; 0000000cH
	pop	edi
	pop	esi
	pop	ebx

; 4007 :   
; 4008 : } /* end clip_facet() */

	mov	ecx, DWORD PTR __$ArrayPad$[ebp]
	xor	ecx, ebp
	call	@__security_check_cookie@4
	mov	esp, ebp
	pop	ebp
	ret	0
$LN2@clip_facet:

; 4005 :   else
; 4006 :     (*graph_facet)(clipg[0],f_id);

	mov	eax, DWORD PTR _f_id$[ebp]
	push	eax
	lea	ecx, DWORD PTR _clipg$[ebp]
	push	ecx
	call	DWORD PTR _graph_facet
	add	esp, 8
	pop	edi
	pop	esi
	pop	ebx

; 4007 :   
; 4008 : } /* end clip_facet() */

	mov	ecx, DWORD PTR __$ArrayPad$[ebp]
	xor	ecx, ebp
	call	@__security_check_cookie@4
	mov	esp, ebp
	pop	ebp
	ret	0
$LN87@clip_facet:
	mov	ecx, DWORD PTR __$ArrayPad$[ebp]
	fstp	ST(0)
	pop	edi
	pop	esi
	xor	ecx, ebp
	pop	ebx
	call	@__security_check_cookie@4
	mov	esp, ebp
	pop	ebp
	ret	0
_clip_facet ENDP
_TEXT	ENDS
PUBLIC	_graph_facet_transforms
PUBLIC	__real@4008000000000000
PUBLIC	??_C@_0DB@NNKLNLFD@Triangle?5spans?5too?5many?5periods?4@ ; `string'
PUBLIC	__real@3e45798ee2308c3a
PUBLIC	_gdata$GSCopy$
PUBLIC	_m$GSCopy$
PUBLIC	__$ArrayPad$
PUBLIC	_torus_clip
EXTRN	_torus_display_mode:DWORD
EXTRN	_erroutstring:PROC
EXTRN	_sprintf:PROC
EXTRN	_msg:DWORD
EXTRN	_clip_view_flag:DWORD
EXTRN	_slice_view_flag:DWORD
;	COMDAT __real@4008000000000000
CONST	SEGMENT
__real@4008000000000000 DQ 04008000000000000r	; 3
CONST	ENDS
;	COMDAT ??_C@_0DB@NNKLNLFD@Triangle?5spans?5too?5many?5periods?4@
CONST	SEGMENT
??_C@_0DB@NNKLNLFD@Triangle?5spans?5too?5many?5periods?4@ DB 'Triangle sp'
	DB	'ans too many periods. Wraps %d %d %d', 0aH, 00H ; `string'
CONST	ENDS
;	COMDAT __real@3e45798ee2308c3a
CONST	SEGMENT
__real@3e45798ee2308c3a DQ 03e45798ee2308c3ar	; 1e-008
; Function compile flags: /Ogtp
CONST	ENDS
;	COMDAT _torus_clip
_TEXT	SEGMENT
tv2888 = -1840						; size = 8
tv2378 = -1840						; size = 8
_pair1$90794 = -1836					; size = 4
_ww$90785 = -1836					; size = 4
tv2775 = -1832						; size = 8
tv2751 = -1832						; size = 8
tv2382 = -1832						; size = 8
tv2380 = -1832						; size = 8
_a$ = -1832						; size = 8
tv981 = -1828						; size = 4
tv1587 = -1824						; size = 4
tv1507 = -1824						; size = 4
tv1046 = -1824						; size = 4
_gdata$GSCopy$ = -1820					; size = 4
_oddman$ = -1820					; size = 4
_ww$90828 = -1816					; size = 4
_per$ = -1816						; size = 4
_invper$ = -1812					; size = 4
tv2524 = -1808						; size = 4
tv2394 = -1808						; size = 4
tv2011 = -1808						; size = 4
tv476 = -1808						; size = 4
_m$GSCopy$ = -1804					; size = 4
tv2529 = -1800						; size = 4
tv2361 = -1800						; size = 4
tv1816 = -1800						; size = 4
_pair2$90795 = -1800					; size = 4
_oddflag$ = -1800					; size = 4
_cut$ = -1796						; size = 4
_mm$ = -1796						; size = 4
_oddwrap$ = -1796					; size = 4
_gdata2$ = -1792					; size = 576
_gdata1$ = -1216					; size = 576
_gdata0$ = -640						; size = 576
_orig$ = -64						; size = 48
_wrap$ = -16						; size = 12
__$ArrayPad$ = -4					; size = 4
_gdata$ = 8						; size = 4
_m$ = 12						; size = 4
_f_id$ = 16						; size = 4
_torus_clip PROC					; COMDAT

; 1996 : {

	push	ebp
	mov	ebp, esp
	sub	esp, 1840				; 00000730H
	mov	eax, DWORD PTR ___security_cookie
	xor	eax, ebp
	mov	DWORD PTR __$ArrayPad$[ebp], eax
	mov	ecx, DWORD PTR _m$[ebp]
	mov	eax, DWORD PTR _gdata$[ebp]

; 1997 :   struct graphdata gdata0[FACET_VERTS+1],gdata1[FACET_VERTS+1],
; 1998 :       gdata2[FACET_VERTS+1];
; 1999 :   int i,k,mm;
; 2000 :   REAL t,d,a,b;
; 2001 :   int wrap[FACET_VERTS];
; 2002 :   int cut,oddman,oddflag;
; 2003 :   int oddwrap;
; 2004 :   REAL w;
; 2005 :   REAL **per=NULL;
; 2006 :   REAL **invper=NULL;
; 2007 :   REAL orig[MAXCOORD]; 
; 2008 : 
; 2009 :   if ( web.torus_display_period && web.torus_period )

	mov	edx, DWORD PTR _f_id$[ebp]
	push	ebx
	push	esi
	mov	DWORD PTR _m$GSCopy$[ebp], ecx
	mov	ecx, DWORD PTR _web+1620
	xor	esi, esi
	push	edi
	xor	edi, edi

; 2041 :   { 
; 2042 :     w = SDIM_dot(invper[m],gdata0[i].x) - orig[m];

	mov	DWORD PTR _gdata$GSCopy$[ebp], eax
	mov	DWORD PTR _per$[ebp], esi
	mov	DWORD PTR _invper$[ebp], edi
	cmp	ecx, esi
	je	SHORT $LN105@torus_clip

; 2012 :     invper = web.inverse_display_periods;

	mov	eax, DWORD PTR _web+1608
	mov	edi, DWORD PTR _web+1672
	mov	DWORD PTR _invper$[ebp], edi
	cmp	eax, esi
	je	SHORT $LN103@torus_clip

; 2010 :   { /* per = web.torus_display_period; */
; 2011 :     per = web.torus_period;

	mov	DWORD PTR _per$[ebp], eax

; 2012 :     invper = web.inverse_display_periods;

	jmp	SHORT $LN96@torus_clip
$LN105@torus_clip:

; 2013 :   }
; 2014 :   else if ( web.torus_period )

	mov	ecx, DWORD PTR _web+1608
	cmp	ecx, esi
	je	SHORT $LN101@torus_clip

; 2015 :   { per = web.torus_period;
; 2016 :     invper = web.inverse_periods;

	mov	edi, DWORD PTR _web+1612
	mov	DWORD PTR _per$[ebp], ecx
	mov	DWORD PTR _invper$[ebp], edi
	jmp	SHORT $LN96@torus_clip
$LN103@torus_clip:

; 2017 :   }
; 2018 :   else if ( web.torus_display_period )
; 2019 :   { per = web.torus_display_period; 

	mov	DWORD PTR _per$[ebp], ecx

; 2020 :     invper = web.inverse_display_periods;

	jmp	SHORT $LN96@torus_clip
$LN101@torus_clip:

; 2021 :   }
; 2022 :   else if ( slice_view_flag )

	cmp	DWORD PTR _slice_view_flag, esi
	je	SHORT $LN99@torus_clip

; 2023 :     slice_facet(gdata);

	push	eax
	call	_slice_facet
	add	esp, 4
	jmp	SHORT $LN96@torus_clip
$LN99@torus_clip:

; 2024 :   else if ( clip_view_flag )

	cmp	DWORD PTR _clip_view_flag, esi
	je	SHORT $LN97@torus_clip

; 2025 :     clip_facet(gdata,f_id,0);

	push	esi
	push	edx
	push	eax
	call	_clip_facet
	add	esp, 12					; 0000000cH

; 2026 :   else 

	jmp	SHORT $LN96@torus_clip
$LN97@torus_clip:

; 2027 :     (*graph_facet)(gdata,f_id);

	push	edx
	push	eax
	call	DWORD PTR _graph_facet
	add	esp, 8
$LN96@torus_clip:

; 2028 :    
; 2029 :   for ( i = 0 ; i < SDIM ; i++ )

	mov	ebx, DWORD PTR _web+616
	test	ebx, ebx
	jle	SHORT $LN93@torus_clip
$LL95@torus_clip:

; 2030 :     orig[i] = SDIM_dot(invper[i],web.display_origin);

	mov	edx, DWORD PTR [edi+esi*4]
	push	ebx
	push	OFFSET _web+1624
	push	edx
	call	_dot
	fstp	QWORD PTR _orig$[ebp+esi*8]
	mov	ebx, DWORD PTR _web+616
	inc	esi
	add	esp, 12					; 0000000cH
	cmp	esi, ebx
	jl	SHORT $LL95@torus_clip
$LN93@torus_clip:

; 2031 : 
; 2032 :   memset(gdata0,0,(FACET_VERTS+1)*sizeof(struct graphdata));

	push	576					; 00000240H
	lea	eax, DWORD PTR _gdata0$[ebp]
	push	0
	push	eax
	call	_memset

; 2033 :   memset(gdata1,0,(FACET_VERTS+1)*sizeof(struct graphdata));

	push	576					; 00000240H
	lea	ecx, DWORD PTR _gdata1$[ebp]
	push	0
	push	ecx
	call	_memset

; 2034 :   memset(gdata2,0,(FACET_VERTS+1)*sizeof(struct graphdata));

	push	576					; 00000240H
	lea	edx, DWORD PTR _gdata2$[ebp]
	push	0
	push	edx
	call	_memset

; 2035 : 
; 2036 :   for ( i = 0 ; i < FACET_VERTS ; i++ ) gdata0[i] = gdata[i]; /* local copy */

	mov	esi, DWORD PTR _gdata$GSCopy$[ebp]
	mov	eax, DWORD PTR _gdata$GSCopy$[ebp]
	mov	ecx, 36					; 00000024H
	lea	edi, DWORD PTR _gdata0$[ebp]
	rep movsd
	lea	esi, DWORD PTR [eax+144]
	mov	ecx, 36					; 00000024H
	lea	edi, DWORD PTR _gdata0$[ebp+144]
	rep movsd
	lea	esi, DWORD PTR [eax+288]
	mov	ecx, 36					; 00000024H
	lea	edi, DWORD PTR _gdata0$[ebp+288]
	rep movsd
	add	esp, 36					; 00000024H

; 2037 : 
; 2038 :   /* see if any vertices outside cell in this coordinate */
; 2039 : 
; 2040 :  for ( i = 0 ; i < FACET_VERTS ; i++ )

	xor	esi, esi
	lea	edi, DWORD PTR _gdata0$[ebp]
	jmp	SHORT $LN89@torus_clip
	npad	5
$LL155@torus_clip:

; 2031 : 
; 2032 :   memset(gdata0,0,(FACET_VERTS+1)*sizeof(struct graphdata));

	mov	ebx, DWORD PTR _web+616
$LN89@torus_clip:

; 2041 :   { 
; 2042 :     w = SDIM_dot(invper[m],gdata0[i].x) - orig[m];

	mov	eax, DWORD PTR _invper$[ebp]
	mov	ecx, DWORD PTR _m$GSCopy$[ebp]
	mov	edx, DWORD PTR [eax+ecx*4]
	push	ebx
	push	edi
	push	edx
	call	_dot
	mov	eax, DWORD PTR _m$GSCopy$[ebp]
	fsub	QWORD PTR _orig$[ebp+eax*8]
	add	esp, 12					; 0000000cH

; 2043 :     wrap[i] = (w < .5) ? ((int)floor(w+.00000001)):((int)floor(w-.00000001));

	fld	QWORD PTR __real@3fe0000000000000
	sub	esp, 8
	fcomp	ST(1)
	fnstsw	ax
	test	ah, 65					; 00000041H
	jne	SHORT $LN108@torus_clip
	fadd	QWORD PTR __real@3e45798ee2308c3a
	jmp	SHORT $LN210@torus_clip
$LN108@torus_clip:
	fsub	QWORD PTR __real@3e45798ee2308c3a
$LN210@torus_clip:
	fstp	QWORD PTR [esp]
	call	_floor
	add	esp, 8
	call	__ftol2_sse
	mov	DWORD PTR _wrap$[ebp+esi*4], eax
	inc	esi
	add	edi, 144				; 00000090H
	cmp	esi, 3
	jl	SHORT $LL155@torus_clip

; 2044 :     /* slight shift to prevent spurious wraps due to rounding */
; 2045 :   }
; 2046 : 
; 2047 :   /* find odd vertex */
; 2048 :   oddflag = 1;  
; 2049 :   if ( (wrap[0] == wrap[1]) && (wrap[1] == wrap[2]) )

	mov	ecx, DWORD PTR _wrap$[ebp]
	mov	eax, DWORD PTR _wrap$[ebp+4]
	mov	DWORD PTR _oddflag$[ebp], 1
	cmp	ecx, eax
	jne	SHORT $LN84@torus_clip
	cmp	eax, DWORD PTR _wrap$[ebp+8]
	jne	SHORT $LN86@torus_clip

; 2050 :      { oddflag = 0;  oddman = 0; }

	xor	eax, eax
	mov	DWORD PTR _oddflag$[ebp], eax
	jmp	SHORT $LN211@torus_clip
$LN86@torus_clip:

; 2051 :   else if ( wrap[0] == wrap[1] ) oddman = 2;

	mov	eax, 2
	jmp	SHORT $LN211@torus_clip
$LN84@torus_clip:

; 2052 :   else if ( wrap[1] == wrap[2] ) oddman = 0;

	mov	edx, DWORD PTR _wrap$[ebp+8]
	cmp	eax, edx
	je	SHORT $LN212@torus_clip

; 2053 :   else if ( wrap[2] == wrap[0] ) oddman = 1;

	cmp	edx, ecx
	jne	SHORT $LN80@torus_clip
	mov	eax, 1

; 2054 :   else

	jmp	SHORT $LN211@torus_clip
$LN80@torus_clip:

; 2055 :     { sprintf(msg,"Triangle spans too many periods. Wraps %d %d %d\n",
; 2056 :             wrap[0],wrap[1],wrap[2]);

	push	edx
	push	eax
	push	ecx
	mov	ecx, DWORD PTR _msg
	push	OFFSET ??_C@_0DB@NNKLNLFD@Triangle?5spans?5too?5many?5periods?4@
	push	ecx
	call	_sprintf

; 2057 :       erroutstring(msg);

	mov	edx, DWORD PTR _msg
	push	edx
	call	_erroutstring
	add	esp, 24					; 00000018H
$LN212@torus_clip:

; 2058 :       oddman = 0;

	xor	eax, eax
$LN211@torus_clip:

; 2059 :     }
; 2060 : 
; 2061 :   /* wrap new triangle vertices properly */
; 2062 :   oddwrap = wrap[oddman];

	mov	ebx, DWORD PTR _web+616
	mov	edi, DWORD PTR _per$[ebp]
	mov	DWORD PTR _oddman$[ebp], eax
	lea	eax, DWORD PTR _wrap$[ebp+eax*4]
	mov	DWORD PTR tv981[ebp], eax
	mov	eax, DWORD PTR [eax]
	lea	ecx, DWORD PTR _gdata0$[ebp]
	mov	DWORD PTR _oddwrap$[ebp], eax

; 2063 :   for ( i = 0 ; i < FACET_VERTS ; i++ )

	xor	edx, edx
	mov	DWORD PTR tv1507[ebp], ecx
	npad	3
$LL162@torus_clip:

; 2064 :   { 
; 2065 :     wrap[i] -= oddwrap;

	mov	eax, DWORD PTR _oddwrap$[ebp]
	sub	DWORD PTR _wrap$[ebp+edx*4], eax

; 2066 :     for ( k = 0 ; k < SDIM ; k++ )

	xor	eax, eax
	test	ebx, ebx
	jle	SHORT $LN77@torus_clip
	fild	DWORD PTR _oddwrap$[ebp]
$LN161@torus_clip:

; 2067 :     { d = oddwrap*per[m][k];

	mov	esi, DWORD PTR _m$GSCopy$[ebp]
	mov	esi, DWORD PTR [edi+esi*4]
	fld	QWORD PTR [esi+eax*8]
	inc	eax
	fmul	ST(0), ST(1)
	add	ecx, 8

; 2068 :       gdata0[i].x[k] -= d;

	fsubr	QWORD PTR [ecx-8]
	fstp	QWORD PTR [ecx-8]
	cmp	eax, ebx
	jl	SHORT $LN161@torus_clip

; 2066 :     for ( k = 0 ; k < SDIM ; k++ )

	fstp	ST(0)
$LN77@torus_clip:

; 2063 :   for ( i = 0 ; i < FACET_VERTS ; i++ )

	mov	ecx, DWORD PTR tv1507[ebp]
	inc	edx
	add	ecx, 144				; 00000090H
	mov	DWORD PTR tv1507[ebp], ecx
	cmp	edx, 3
	jl	SHORT $LL162@torus_clip

; 2069 :     }
; 2070 :   }
; 2071 : 
; 2072 :   /* kludge for display_periods to get back towards box */
; 2073 :   if ( web.torus_flag && web.torus_display_period )

	cmp	DWORD PTR _web+860, 0
	je	$LN69@torus_clip
	cmp	DWORD PTR _web+1620, 0
	je	$LN69@torus_clip

; 2074 :     for ( mm = 0 ; mm < SDIM ; mm++ )

	mov	DWORD PTR _mm$[ebp], 0
	test	ebx, ebx
	jle	$LN69@torus_clip
	mov	esi, DWORD PTR _invper$[ebp]
	sub	edi, esi
$LL71@torus_clip:

; 2075 :       if ( mm != m )

	mov	ecx, DWORD PTR _m$GSCopy$[ebp]
	cmp	DWORD PTR _mm$[ebp], ecx
	je	$LN70@torus_clip

; 2076 :       { int ww = (int)floor((SDIM_dot(invper[mm],gdata0[0].x) + 
; 2077 :                          SDIM_dot(invper[mm],gdata0[1].x) +
; 2078 :                          SDIM_dot(invper[mm],gdata0[2].x))/FACET_VERTS
; 2079 :                       - orig[mm]);

	mov	eax, DWORD PTR [esi]
	push	ebx
	lea	edx, DWORD PTR _gdata0$[ebp+144]
	push	edx
	push	eax
	call	_dot
	fstp	QWORD PTR tv2378[ebp]
	mov	ecx, DWORD PTR _web+616
	mov	eax, DWORD PTR [esi]
	push	ecx
	lea	edx, DWORD PTR _gdata0$[ebp]
	push	edx
	push	eax
	call	_dot
	fadd	QWORD PTR tv2378[ebp]
	mov	ecx, DWORD PTR _web+616
	mov	eax, DWORD PTR [esi]
	push	ecx
	fstp	QWORD PTR tv2888[ebp]
	lea	edx, DWORD PTR _gdata0$[ebp+288]
	push	edx
	push	eax
	call	_dot
	fadd	QWORD PTR tv2888[ebp]
	mov	ecx, DWORD PTR _mm$[ebp]
	add	esp, 28					; 0000001cH
	fdiv	QWORD PTR __real@4008000000000000
	fsub	QWORD PTR _orig$[ebp+ecx*8]
	fstp	QWORD PTR [esp]
	call	_floor
	add	esp, 8
	call	__ftol2_sse
	mov	ebx, DWORD PTR _web+616
	lea	ecx, DWORD PTR _gdata0$[ebp]
	mov	DWORD PTR _ww$90785[ebp], eax
	mov	DWORD PTR tv1587[ebp], ecx
	mov	DWORD PTR tv476[ebp], 3
	npad	5
$LL67@torus_clip:

; 2081 :          for ( k = 0 ; k < SDIM ; k++ )

	xor	eax, eax
	test	ebx, ebx
	jle	SHORT $LN66@torus_clip
	fild	DWORD PTR _ww$90785[ebp]
$LN64@torus_clip:

; 2082 :            gdata0[i].x[k] -= ww*per[mm][k];

	mov	edx, DWORD PTR [edi+esi]
	fld	QWORD PTR [edx+eax*8]
	inc	eax
	fmul	ST(0), ST(1)
	add	ecx, 8
	fsubr	QWORD PTR [ecx-8]
	fstp	QWORD PTR [ecx-8]
	cmp	eax, ebx
	jl	SHORT $LN64@torus_clip

; 2081 :          for ( k = 0 ; k < SDIM ; k++ )

	fstp	ST(0)
$LN66@torus_clip:

; 2080 :         for ( i = 0 ; i < FACET_VERTS ; i++ )

	mov	ecx, DWORD PTR tv1587[ebp]
	add	ecx, 144				; 00000090H
	dec	DWORD PTR tv476[ebp]
	mov	DWORD PTR tv1587[ebp], ecx
	jne	SHORT $LL67@torus_clip
$LN70@torus_clip:

; 2074 :     for ( mm = 0 ; mm < SDIM ; mm++ )

	mov	eax, DWORD PTR _mm$[ebp]
	inc	eax
	add	esi, 4
	mov	DWORD PTR _mm$[ebp], eax
	cmp	eax, ebx
	jl	$LL71@torus_clip
$LN69@torus_clip:

; 2083 :       }
; 2084 : 
; 2085 : 
; 2086 :   /* split, if necessary */
; 2087 :   if ( oddflag )

	cmp	DWORD PTR _oddflag$[ebp], 0
	je	$LN9@torus_clip

; 2088 :      {
; 2089 :         int pair1 = (oddman+1)%FACET_VERTS;

	mov	esi, DWORD PTR _oddman$[ebp]
	lea	eax, DWORD PTR [esi+1]
	cdq
	mov	ecx, 3
	idiv	ecx

; 2090 :         int pair2 = (oddman+2)%FACET_EDGES;

	lea	eax, DWORD PTR [esi+2]
	mov	esi, 3

; 2091 : 
; 2092 :         gdata0[0].flags = 0;  /* vertices the hard way */

	mov	DWORD PTR _gdata0$[ebp+136], 0
	mov	ecx, edx
	cdq
	idiv	esi

; 2093 :         /* find wrap multiple that cuts triangle */
; 2094 :         if ( wrap[oddman] < wrap[pair1] )

	mov	eax, DWORD PTR _wrap$[ebp+ecx*4]
	mov	DWORD PTR _pair1$90794[ebp], ecx
	mov	DWORD PTR tv1046[ebp], eax

; 2095 :            cut = wrap[pair1];

	mov	DWORD PTR _cut$[ebp], eax
	mov	DWORD PTR _pair2$90795[ebp], edx
	mov	edx, DWORD PTR tv981[ebp]
	mov	ecx, DWORD PTR [edx]
	cmp	ecx, eax
	jl	SHORT $LN59@torus_clip

; 2096 :         else
; 2097 :            cut = wrap[oddman];

	mov	DWORD PTR _cut$[ebp], ecx
$LN59@torus_clip:

; 2098 : 
; 2099 :         /* set up new triangles */
; 2100 :         for ( i = 0 ; i < FACET_VERTS ; i++ )
; 2101 :         { gdata2[i] = gdata0[i];
; 2102 :           gdata1[i] = gdata0[i];
; 2103 :         } 
; 2104 : 
; 2105 :         /* calculate new vertices */
; 2106 :         a = SDIM_dot(invper[m],gdata0[oddman].x)-orig[m];

	mov	eax, DWORD PTR _oddman$[ebp]
	mov	edx, DWORD PTR _m$GSCopy$[ebp]
	mov	ecx, 36					; 00000024H
	lea	esi, DWORD PTR _gdata0$[ebp]
	lea	edi, DWORD PTR _gdata2$[ebp]
	rep movsd
	mov	ecx, 36					; 00000024H
	lea	esi, DWORD PTR _gdata0$[ebp]
	lea	edi, DWORD PTR _gdata1$[ebp]
	rep movsd
	mov	ecx, 36					; 00000024H
	lea	esi, DWORD PTR _gdata0$[ebp+144]
	lea	edi, DWORD PTR _gdata2$[ebp+144]
	rep movsd
	mov	ecx, 36					; 00000024H
	lea	esi, DWORD PTR _gdata0$[ebp+144]
	lea	edi, DWORD PTR _gdata1$[ebp+144]
	rep movsd
	mov	ecx, 36					; 00000024H
	lea	esi, DWORD PTR _gdata0$[ebp+288]
	lea	edi, DWORD PTR _gdata2$[ebp+288]
	rep movsd
	mov	ecx, 36					; 00000024H
	lea	esi, DWORD PTR _gdata0$[ebp+288]
	lea	edi, DWORD PTR _gdata1$[ebp+288]
	rep movsd
	mov	ecx, DWORD PTR _invper$[ebp]
	lea	edi, DWORD PTR [eax+eax*8]
	shl	edi, 4
	push	ebx
	lea	eax, DWORD PTR _gdata0$[ebp+edi]
	push	eax
	mov	eax, DWORD PTR [ecx+edx*4]
	push	eax
	call	_dot

; 2107 :         b = SDIM_dot(invper[m],gdata1[pair1].x)-orig[m];

	mov	eax, DWORD PTR _pair1$90794[ebp]
	mov	ecx, DWORD PTR _web+616
	mov	ebx, DWORD PTR _m$GSCopy$[ebp]
	lea	esi, DWORD PTR [eax+eax*8]
	mov	eax, DWORD PTR _invper$[ebp]
	fsub	QWORD PTR _orig$[ebp+ebx*8]
	push	ecx
	mov	ecx, DWORD PTR [eax+ebx*4]
	shl	esi, 4
	fstp	QWORD PTR _a$[ebp]
	lea	edx, DWORD PTR _gdata1$[ebp+esi]
	push	edx
	push	ecx
	call	_dot
	fsub	QWORD PTR _orig$[ebp+ebx*8]
	add	esp, 24					; 00000018H

; 2108 :         if ( fabs(a-b) < 0.00000001 ) t = 0.5;

	fld	QWORD PTR _a$[ebp]
	fld	ST(0)
	fsub	ST(0), ST(2)
	fabs
	fcomp	QWORD PTR __real@3e45798ee2308c3a
	fnstsw	ax
	fld1
	fldz
	test	ah, 5
	jp	SHORT $LN55@torus_clip
	fstp	ST(2)
	fstp	ST(2)
	fstp	ST(0)
	fld	QWORD PTR __real@3fe0000000000000
	jmp	SHORT $LN51@torus_clip
$LN55@torus_clip:

; 2109 :         else t = (cut - a)/(b - a);

	fild	DWORD PTR _cut$[ebp]
	fsub	ST(0), ST(3)
	fxch	ST(4)
	fsubrp	ST(3), ST(0)
	fxch	ST(3)
	fdivrp	ST(2), ST(0)

; 2110 :         if ( t < 0.0 ) t = 0.0;   /* clamp; necessary due to wiggle room above */

	fxch	ST(1)
	fcom	ST(2)
	fnstsw	ax
	test	ah, 5
	jp	$LN182@torus_clip
	fstp	ST(0)
$LN186@torus_clip:

; 2111 :         else if ( t > 1.0 ) t = 1.0;

	fxch	ST(1)
$LN51@torus_clip:

; 2112 :         for ( k = 0 ; k < SDIM ; k++ )

	mov	edx, DWORD PTR _web+616
	test	edx, edx
	jle	SHORT $LN180@torus_clip
	fsub	ST(1), ST(0)
	mov	ecx, edi
	mov	eax, esi
	mov	ebx, edx
$LN50@torus_clip:

; 2113 :           gdata1[oddman].x[k] = gdata0[pair1].x[k] =
; 2114 :               (1 - t)*gdata0[oddman].x[k] + t*gdata1[pair1].x[k];

	fld	QWORD PTR _gdata0$[ebp+ecx]
	add	eax, 8
	fmul	ST(0), ST(2)
	add	ecx, 8
	dec	ebx
	fld	QWORD PTR _gdata1$[ebp+eax-8]
	fmul	ST(0), ST(2)
	faddp	ST(1), ST(0)
	fst	QWORD PTR _gdata0$[ebp+eax-8]
	fstp	QWORD PTR _gdata1$[ebp+ecx-8]
	jne	SHORT $LN50@torus_clip
$LN180@torus_clip:

; 2115 :         b = SDIM_dot(invper[m],gdata2[pair2].x)-orig[m];

	mov	ebx, DWORD PTR _pair2$90795[ebp]
	fstp	ST(0)
	mov	eax, DWORD PTR _m$GSCopy$[ebp]
	fstp	ST(0)
	mov	ecx, DWORD PTR _invper$[ebp]
	push	edx
	lea	ebx, DWORD PTR [ebx+ebx*8]
	shl	ebx, 4
	lea	edx, DWORD PTR _gdata2$[ebp+ebx]
	push	edx
	mov	edx, DWORD PTR [ecx+eax*4]
	push	edx
	call	_dot
	mov	eax, DWORD PTR _m$GSCopy$[ebp]
	fsub	QWORD PTR _orig$[ebp+eax*8]
	add	esp, 12					; 0000000cH

; 2116 :         if ( fabs(a-b) < 0.00000001 ) t = 0.5;

	fld	QWORD PTR _a$[ebp]
	fld	ST(0)
	fsub	ST(0), ST(2)
	fabs
	fcomp	QWORD PTR __real@3e45798ee2308c3a
	fnstsw	ax
	test	ah, 5
	jp	SHORT $LN47@torus_clip
	fstp	ST(0)
	fstp	ST(0)
	fld	QWORD PTR __real@3fe0000000000000
	jmp	SHORT $LN43@torus_clip
$LN182@torus_clip:

; 2110 :         if ( t < 0.0 ) t = 0.0;   /* clamp; necessary due to wiggle room above */

	fstp	ST(2)

; 2111 :         else if ( t > 1.0 ) t = 1.0;

	fcom	ST(1)
	fnstsw	ax
	test	ah, 5
	jp	$LN186@torus_clip
	fstp	ST(1)
	fld	ST(0)
	jmp	$LN51@torus_clip
$LN47@torus_clip:

; 2117 :         else t = (cut - a)/(b - a);

	fild	DWORD PTR _cut$[ebp]
	fsub	ST(0), ST(1)
	fxch	ST(2)
	fsubrp	ST(1), ST(0)
	fdivp	ST(1), ST(0)

; 2118 :         if ( t < 0.0 ) t = 0.0;   /* clamp; necessary due to wiggle room above */

	fldz
	fcom	ST(1)
	fnstsw	ax
	test	ah, 65					; 00000041H
	jne	SHORT $LN192@torus_clip
	fstp	ST(1)
	jmp	SHORT $LN43@torus_clip
$LN192@torus_clip:
	fstp	ST(0)

; 2119 :         else if ( t > 1.0 ) t = 1.0;

	fld1
	fcom	ST(1)
	fnstsw	ax
	test	ah, 5
	jp	SHORT $LN202@torus_clip
	fstp	ST(1)
	jmp	SHORT $LN43@torus_clip
$LN202@torus_clip:
	fstp	ST(0)
$LN43@torus_clip:

; 2120 :         for ( k = 0 ; k < SDIM ; k++ )

	mov	edx, DWORD PTR _web+616
	xor	eax, eax
	cmp	edx, eax
	jle	SHORT $LN196@torus_clip
	fld1
	mov	DWORD PTR tv1816[ebp], edi
	fsub	ST(0), ST(1)
	mov	eax, ebx
	mov	DWORD PTR tv2011[ebp], edx
$LN42@torus_clip:

; 2121 :           gdata2[oddman].x[k] = gdata0[pair2].x[k] = gdata1[pair2].x[k] =
; 2122 :               (1 - t)*gdata0[oddman].x[k] + t*gdata2[pair2].x[k];

	mov	ecx, DWORD PTR tv1816[ebp]
	fld	QWORD PTR _gdata0$[ebp+ecx]
	add	ecx, 8
	fmul	ST(0), ST(1)
	add	eax, 8
	dec	DWORD PTR tv2011[ebp]
	fld	QWORD PTR _gdata2$[ebp+eax-8]
	fmul	ST(0), ST(3)
	mov	DWORD PTR tv1816[ebp], ecx
	faddp	ST(1), ST(0)
	fst	QWORD PTR _gdata1$[ebp+eax-8]
	fst	QWORD PTR _gdata0$[ebp+eax-8]
	fstp	QWORD PTR _gdata2$[ebp+ecx-8]
	jne	SHORT $LN42@torus_clip

; 2120 :         for ( k = 0 ; k < SDIM ; k++ )

	fstp	ST(1)
	xor	eax, eax
$LN196@torus_clip:

; 2123 :         gdata0[pair1].v_id = NULLID;
; 2124 :         gdata0[pair2].v_id = NULLID;
; 2125 :         gdata1[oddman].v_id = NULLID;
; 2126 :         gdata1[pair2].v_id = NULLID;
; 2127 :         gdata2[oddman].v_id = NULLID;
; 2128 :         /* new edge colors are clear */
; 2129 :         gdata0[pair1].ecolor = CLEAR;

	or	ecx, -1
	fstp	ST(0)
	mov	DWORD PTR _gdata1$[ebp+edi+132], eax

; 2130 :         gdata1[pair1].ecolor = gdata1[pair2].ecolor = CLEAR;

	mov	DWORD PTR _gdata1$[ebp+ebx+120], ecx
	mov	DWORD PTR _gdata1$[ebp+ebx+132], eax
	mov	DWORD PTR _gdata0$[ebp+esi+132], eax
	mov	DWORD PTR _gdata0$[ebp+ebx+132], eax
	mov	DWORD PTR _gdata1$[ebp+esi+120], ecx

; 2131 :         gdata2[oddman].ecolor = CLEAR;

	mov	DWORD PTR _gdata2$[ebp+edi+120], ecx
	mov	DWORD PTR _gdata0$[ebp+esi+120], ecx

; 2132 :         gdata0[pair1].etype = INVISIBLE_EDGE;

	xor	ecx, ecx

; 2133 :         gdata1[pair1].etype = gdata1[pair2].etype = INVISIBLE_EDGE;

	mov	WORD PTR _gdata1$[ebp+ebx+124], cx
	mov	ebx, DWORD PTR _per$[ebp]
	mov	DWORD PTR _gdata2$[ebp+edi+132], eax

; 2134 :         gdata2[oddman].etype = INVISIBLE_EDGE;

	mov	WORD PTR _gdata2$[ebp+edi+124], cx
	mov	WORD PTR _gdata0$[ebp+esi+124], cx
	mov	WORD PTR _gdata1$[ebp+esi+124], cx
	xor	edi, edi
	npad	4
$LL39@torus_clip:

; 2138 :          for ( k = 0 ; k < SDIM ; k++ )

	xor	eax, eax
	test	edx, edx
	jle	SHORT $LN38@torus_clip
	fild	DWORD PTR tv1046[ebp]
	mov	esi, DWORD PTR _m$GSCopy$[ebp]
$LN36@torus_clip:

; 2139 :           { d = wrap[pair1]*per[m][k];

	mov	ecx, DWORD PTR [ebx+esi*4]
	fld	QWORD PTR [ecx+eax*8]
	lea	ecx, DWORD PTR [edi+eax*8]
	fmul	ST(0), ST(1)
	lea	ecx, DWORD PTR _gdata1$[ebp+ecx]

; 2140 :             gdata1[i].x[k] -= d;

	fld	QWORD PTR [ecx]
	fsub	ST(0), ST(1)
	fstp	QWORD PTR [ecx]
	lea	ecx, DWORD PTR [edi+eax*8]
	lea	ecx, DWORD PTR _gdata2$[ebp+ecx]

; 2141 :             gdata2[i].x[k] -= d;

	fsubr	QWORD PTR [ecx]
	inc	eax
	fstp	QWORD PTR [ecx]
	cmp	eax, edx
	jl	SHORT $LN36@torus_clip

; 2138 :          for ( k = 0 ; k < SDIM ; k++ )

	fstp	ST(0)
$LN38@torus_clip:

; 2135 : 
; 2136 :         /* wrap new triangle vertices properly */
; 2137 :         for ( i = 0 ; i < FACET_VERTS ; i++ )

	add	edi, 144				; 00000090H
	cmp	edi, 432				; 000001b0H
	jl	SHORT $LL39@torus_clip

; 2142 :           }
; 2143 : 
; 2144 :         /* kludge for display_periods to get back towards box */
; 2145 :         if ( web.torus_display_period )

	cmp	DWORD PTR _web+1620, 0
	je	$LN157@torus_clip

; 2146 :           for ( mm = 0 ; mm < SDIM ; mm++ )

	xor	eax, eax
	mov	DWORD PTR _mm$[ebp], eax
	test	edx, edx
	jle	$LN157@torus_clip
	mov	esi, DWORD PTR _invper$[ebp]
	mov	edi, ebx
	sub	edi, esi
$LL32@torus_clip:

; 2147 :             if ( mm != m )

	cmp	eax, DWORD PTR _m$GSCopy$[ebp]
	je	$LN31@torus_clip

; 2148 :             { int ww = (int)floor((SDIM_dot(invper[mm],gdata1[0].x) + 
; 2149 :                          SDIM_dot(invper[mm],gdata1[1].x) +
; 2150 :                          SDIM_dot(invper[mm],gdata1[2].x))/FACET_VERTS
; 2151 :                      - orig[mm]);

	mov	eax, DWORD PTR [esi]
	push	edx
	lea	edx, DWORD PTR _gdata1$[ebp+144]
	push	edx
	push	eax
	call	_dot
	fstp	QWORD PTR tv2380[ebp]
	mov	ecx, DWORD PTR _web+616
	mov	eax, DWORD PTR [esi]
	push	ecx
	lea	edx, DWORD PTR _gdata1$[ebp]
	push	edx
	push	eax
	call	_dot
	fadd	QWORD PTR tv2380[ebp]
	mov	ecx, DWORD PTR _web+616
	mov	eax, DWORD PTR [esi]
	push	ecx
	fstp	QWORD PTR tv2775[ebp]
	lea	edx, DWORD PTR _gdata1$[ebp+288]
	push	edx
	push	eax
	call	_dot
	fadd	QWORD PTR tv2775[ebp]
	mov	ecx, DWORD PTR _mm$[ebp]
	add	esp, 28					; 0000001cH
	fdiv	QWORD PTR __real@4008000000000000
	fsub	QWORD PTR _orig$[ebp+ecx*8]
	fstp	QWORD PTR [esp]
	call	_floor
	add	esp, 8
	call	__ftol2_sse
	mov	edx, DWORD PTR _web+616
	lea	ecx, DWORD PTR _gdata1$[ebp]
	mov	DWORD PTR _ww$90828[ebp], eax
	mov	DWORD PTR tv2361[ebp], ecx
	mov	DWORD PTR tv2394[ebp], 3
	npad	7
$LL28@torus_clip:

; 2153 :                for ( k = 0 ; k < SDIM ; k++ )

	xor	eax, eax
	test	edx, edx
	jle	SHORT $LN27@torus_clip
	fild	DWORD PTR _ww$90828[ebp]
$LN25@torus_clip:

; 2154 :                  gdata1[i].x[k] -= ww*per[mm][k];

	mov	ebx, DWORD PTR [edi+esi]
	fld	QWORD PTR [ebx+eax*8]
	inc	eax
	fmul	ST(0), ST(1)
	add	ecx, 8
	fsubr	QWORD PTR [ecx-8]
	fstp	QWORD PTR [ecx-8]
	cmp	eax, edx
	jl	SHORT $LN25@torus_clip

; 2153 :                for ( k = 0 ; k < SDIM ; k++ )

	fstp	ST(0)
$LN27@torus_clip:

; 2152 :               for ( i = 0 ; i < FACET_VERTS ; i++ )

	mov	ecx, DWORD PTR tv2361[ebp]
	add	ecx, 144				; 00000090H
	dec	DWORD PTR tv2394[ebp]
	mov	DWORD PTR tv2361[ebp], ecx
	jne	SHORT $LL28@torus_clip

; 2155 :               ww = (int)floor((SDIM_dot(invper[mm],gdata2[0].x) + 
; 2156 :                          SDIM_dot(invper[mm],gdata2[1].x) +
; 2157 :                          SDIM_dot(invper[mm],gdata2[2].x))/FACET_VERTS
; 2158 :                       - orig[mm]);

	mov	eax, DWORD PTR [esi]
	push	edx
	lea	edx, DWORD PTR _gdata2$[ebp+144]
	push	edx
	push	eax
	call	_dot
	fstp	QWORD PTR tv2382[ebp]
	mov	ecx, DWORD PTR _web+616
	mov	eax, DWORD PTR [esi]
	push	ecx
	lea	edx, DWORD PTR _gdata2$[ebp]
	push	edx
	push	eax
	call	_dot
	fadd	QWORD PTR tv2382[ebp]
	mov	ecx, DWORD PTR _web+616
	mov	eax, DWORD PTR [esi]
	push	ecx
	fstp	QWORD PTR tv2751[ebp]
	lea	edx, DWORD PTR _gdata2$[ebp+288]
	push	edx
	push	eax
	call	_dot
	fadd	QWORD PTR tv2751[ebp]
	mov	ecx, DWORD PTR _mm$[ebp]
	add	esp, 28					; 0000001cH
	fdiv	QWORD PTR __real@4008000000000000
	fsub	QWORD PTR _orig$[ebp+ecx*8]
	fstp	QWORD PTR [esp]
	call	_floor
	add	esp, 8
	call	__ftol2_sse
	mov	edx, DWORD PTR _web+616
	lea	ecx, DWORD PTR _gdata2$[ebp]
	mov	DWORD PTR _ww$90828[ebp], eax
	mov	DWORD PTR tv2529[ebp], ecx
	mov	DWORD PTR tv2524[ebp], 3
$LL22@torus_clip:

; 2160 :                for ( k = 0 ; k < SDIM ; k++ )

	xor	eax, eax
	test	edx, edx
	jle	SHORT $LN21@torus_clip
	fild	DWORD PTR _ww$90828[ebp]
$LN19@torus_clip:

; 2161 :                  gdata2[i].x[k] -= ww*per[mm][k];

	mov	ebx, DWORD PTR [edi+esi]
	fld	QWORD PTR [ebx+eax*8]
	inc	eax
	fmul	ST(0), ST(1)
	add	ecx, 8
	fsubr	QWORD PTR [ecx-8]
	fstp	QWORD PTR [ecx-8]
	cmp	eax, edx
	jl	SHORT $LN19@torus_clip

; 2160 :                for ( k = 0 ; k < SDIM ; k++ )

	fstp	ST(0)
$LN21@torus_clip:

; 2159 :               for ( i = 0 ; i < FACET_VERTS ; i++ )

	mov	ecx, DWORD PTR tv2529[ebp]
	add	ecx, 144				; 00000090H
	dec	DWORD PTR tv2524[ebp]
	mov	DWORD PTR tv2529[ebp], ecx
	jne	SHORT $LL22@torus_clip
	mov	eax, DWORD PTR _mm$[ebp]
$LN31@torus_clip:

; 2146 :           for ( mm = 0 ; mm < SDIM ; mm++ )

	inc	eax
	add	esi, 4
	mov	DWORD PTR _mm$[ebp], eax
	cmp	eax, edx
	jl	$LL32@torus_clip
$LN157@torus_clip:

; 2162 :             }
; 2163 : 
; 2164 :  
; 2165 :         /* send on for further check, or plot */
; 2166 :         if ( m == 0 ) 

	mov	eax, DWORD PTR _m$GSCopy$[ebp]
	test	eax, eax
	jne	$LN16@torus_clip

; 2167 :         { 
; 2168 :           if ( web.torus_flag && (torus_display_mode == TORUS_CLIPPED_MODE) )

	cmp	DWORD PTR _web+860, eax
	je	SHORT $LN15@torus_clip
	cmp	DWORD PTR _torus_display_mode, 3
	jne	SHORT $LN15@torus_clip

; 2169 :           { (*graph_facet_transforms)(gdata1,f_id);

	mov	esi, DWORD PTR _f_id$[ebp]
	lea	edx, DWORD PTR _gdata1$[ebp]
	push	esi
	push	edx
	call	_graph_facet_transforms

; 2170 :             (*graph_facet_transforms)(gdata2,f_id);

	lea	eax, DWORD PTR _gdata2$[ebp]
	push	esi
	push	eax
	call	_graph_facet_transforms
	add	esp, 16					; 00000010H
	jmp	$LN154@torus_clip
$LN15@torus_clip:

; 2171 :           }
; 2172 :           else if ( slice_view_flag )

	cmp	DWORD PTR _slice_view_flag, 0
	je	SHORT $LN13@torus_clip

; 2173 :           { slice_facet(gdata1);

	lea	ecx, DWORD PTR _gdata1$[ebp]
	push	ecx
	call	_slice_facet

; 2174 :             slice_facet(gdata2);

	lea	edx, DWORD PTR _gdata2$[ebp]
	push	edx
	call	_slice_facet
	add	esp, 8
	jmp	$LN154@torus_clip
$LN13@torus_clip:

; 2175 :           }
; 2176 :           else if ( clip_view_flag )

	cmp	DWORD PTR _clip_view_flag, 0

; 2177 :           { clip_facet(gdata1,f_id,0);

	mov	esi, DWORD PTR _f_id$[ebp]
	je	SHORT $LN11@torus_clip
	push	0
	lea	eax, DWORD PTR _gdata1$[ebp]
	push	esi
	push	eax
	call	_clip_facet

; 2178 :             clip_facet(gdata2,f_id,0);

	push	0
	lea	ecx, DWORD PTR _gdata2$[ebp]
	push	esi
	push	ecx
	call	_clip_facet
	add	esp, 24					; 00000018H

; 2179 :           }
; 2180 :           else

	jmp	SHORT $LN154@torus_clip
$LN11@torus_clip:

; 2181 :           { (*graph_facet)(gdata1,f_id);

	lea	edx, DWORD PTR _gdata1$[ebp]
	push	esi
	push	edx
	call	DWORD PTR _graph_facet

; 2182 :             (*graph_facet)(gdata2,f_id);

	lea	eax, DWORD PTR _gdata2$[ebp]
	push	esi
	push	eax
	call	DWORD PTR _graph_facet
	add	esp, 16					; 00000010H

; 2183 :           }
; 2184 :           
; 2185 :         }
; 2186 :         else

	jmp	SHORT $LN154@torus_clip
$LN16@torus_clip:

; 2187 :         { torus_clip(gdata1,m-1,f_id);

	mov	edi, DWORD PTR _f_id$[ebp]
	lea	esi, DWORD PTR [eax-1]
	push	edi
	lea	ecx, DWORD PTR _gdata1$[ebp]
	push	esi
	push	ecx
	call	_torus_clip

; 2188 :           torus_clip(gdata2,m-1,f_id);

	push	edi
	lea	edx, DWORD PTR _gdata2$[ebp]
	push	esi
	push	edx
	call	_torus_clip
	add	esp, 24					; 00000018H
$LN9@torus_clip:

; 2189 :         }
; 2190 :       }
; 2191 : 
; 2192 :     /* send on original triangle structure */
; 2193 :     if ( m == 0 ) 

	cmp	DWORD PTR _m$GSCopy$[ebp], 0
	jne	$LN8@torus_clip
$LN154@torus_clip:

; 2194 :     { if ( web.torus_flag && (torus_display_mode == TORUS_CLIPPED_MODE) )

	cmp	DWORD PTR _web+860, 0
	je	SHORT $LN7@torus_clip
	cmp	DWORD PTR _torus_display_mode, 3
	jne	SHORT $LN7@torus_clip

; 2195 :         (*graph_facet_transforms)(gdata0,f_id);

	mov	eax, DWORD PTR _f_id$[ebp]
	push	eax
	lea	ecx, DWORD PTR _gdata0$[ebp]
	push	ecx
	call	_graph_facet_transforms
	add	esp, 8
	pop	edi
	pop	esi
	pop	ebx

; 2205 : 
; 2206 : } /* end torus_clip */

	mov	ecx, DWORD PTR __$ArrayPad$[ebp]
	xor	ecx, ebp
	call	@__security_check_cookie@4
	mov	esp, ebp
	pop	ebp
	ret	0
$LN7@torus_clip:

; 2196 :       else if ( slice_view_flag )

	cmp	DWORD PTR _slice_view_flag, 0
	je	SHORT $LN5@torus_clip

; 2197 :         slice_facet(gdata0);

	lea	edx, DWORD PTR _gdata0$[ebp]
	push	edx
	call	_slice_facet
	add	esp, 4
	pop	edi
	pop	esi
	pop	ebx

; 2205 : 
; 2206 : } /* end torus_clip */

	mov	ecx, DWORD PTR __$ArrayPad$[ebp]
	xor	ecx, ebp
	call	@__security_check_cookie@4
	mov	esp, ebp
	pop	ebp
	ret	0
$LN5@torus_clip:

; 2198 :       else if ( clip_view_flag )

	cmp	DWORD PTR _clip_view_flag, 0
	je	SHORT $LN3@torus_clip

; 2199 :         clip_facet(gdata0,f_id,0);

	mov	eax, DWORD PTR _f_id$[ebp]
	push	0
	push	eax
	lea	ecx, DWORD PTR _gdata0$[ebp]
	push	ecx
	call	_clip_facet

; 2202 :     }
; 2203 :     else
; 2204 :       torus_clip(gdata0,m-1,f_id);

	add	esp, 12					; 0000000cH
	pop	edi
	pop	esi
	pop	ebx

; 2205 : 
; 2206 : } /* end torus_clip */

	mov	ecx, DWORD PTR __$ArrayPad$[ebp]
	xor	ecx, ebp
	call	@__security_check_cookie@4
	mov	esp, ebp
	pop	ebp
	ret	0
$LN3@torus_clip:

; 2200 :       else
; 2201 :         (*graph_facet)(gdata0,f_id);

	mov	edx, DWORD PTR _f_id$[ebp]
	push	edx
	lea	eax, DWORD PTR _gdata0$[ebp]
	push	eax
	call	DWORD PTR _graph_facet
	add	esp, 8
	pop	edi
	pop	esi
	pop	ebx

; 2205 : 
; 2206 : } /* end torus_clip */

	mov	ecx, DWORD PTR __$ArrayPad$[ebp]
	xor	ecx, ebp
	call	@__security_check_cookie@4
	mov	esp, ebp
	pop	ebp
	ret	0
$LN8@torus_clip:

; 2202 :     }
; 2203 :     else
; 2204 :       torus_clip(gdata0,m-1,f_id);

	mov	ecx, DWORD PTR _f_id$[ebp]
	mov	edx, DWORD PTR _m$GSCopy$[ebp]
	push	ecx
	dec	edx
	push	edx
	lea	eax, DWORD PTR _gdata0$[ebp]
	push	eax
	call	_torus_clip

; 2205 : 
; 2206 : } /* end torus_clip */

	mov	ecx, DWORD PTR __$ArrayPad$[ebp]
	add	esp, 12					; 0000000cH
	pop	edi
	pop	esi
	xor	ecx, ebp
	pop	ebx
	call	@__security_check_cookie@4
	mov	esp, ebp
	pop	ebp
	ret	0
_torus_clip ENDP
_TEXT	ENDS
PUBLIC	_graph_edge_clip
; Function compile flags: /Ogtp
;	COMDAT _graph_edge_clip
_TEXT	SEGMENT
_g$ = 8							; size = 4
_id$ = 12						; size = 4
_graph_edge_clip PROC					; COMDAT

; 3768 : {

	push	ebp
	mov	ebp, esp

; 3769 :   if ( slice_view_flag )

	cmp	DWORD PTR _slice_view_flag, 0

; 3770 :     slice_edge(g);

	jne	SHORT $LN1@graph_edge

; 3771 :   else if ( clip_view_flag )

	cmp	DWORD PTR _clip_view_flag, 0
	je	SHORT $LN2@graph_edge

; 3772 :     clip_edge(g,id,0);

	mov	eax, DWORD PTR _id$[ebp]
	mov	ecx, DWORD PTR _g$[ebp]
	push	0
	push	eax
	push	ecx
	call	_clip_edge
	add	esp, 12					; 0000000cH
$LN1@graph_edge:

; 3775 : 
; 3776 : } // end graph_edge_clip()

	pop	ebp
	ret	0
$LN2@graph_edge:
	pop	ebp

; 3773 :   else
; 3774 :     (*graph_edge)(g,id);

	jmp	DWORD PTR _graph_edge
_graph_edge_clip ENDP
_TEXT	ENDS
PUBLIC	_f_id$GSCopy$
PUBLIC	_gdata$GSCopy$
PUBLIC	__$ArrayPad$
EXTRN	_transform_colors:DWORD
EXTRN	_opacity_attr:DWORD
EXTRN	_matvec_mul:PROC
EXTRN	_view_transforms:DWORD
EXTRN	_transform_count:DWORD
EXTRN	_geomview_facet:PROC
EXTRN	_transform_colors_flag:DWORD
EXTRN	_view_transform_det:DWORD
EXTRN	_lazy_transforms_flag:DWORD
EXTRN	_transforms_flag:DWORD
EXTRN	_bounding_box:BYTE
EXTRN	_box_flag:DWORD
; Function compile flags: /Ogtp
;	COMDAT _graph_facet_transforms
_TEXT	SEGMENT
_gdata$GSCopy$ = -604					; size = 4
tv1390 = -600						; size = 4
tv1219 = -600						; size = 4
_f_id$GSCopy$ = -596					; size = 4
tv1221 = -592						; size = 4
tv1024 = -592						; size = 4
_i$ = -588						; size = 4
tv1139 = -584						; size = 4
tv1068 = -584						; size = 4
tv208 = -584						; size = 4
_gt$ = -580						; size = 576
__$ArrayPad$ = -4					; size = 4
_gdata$ = 8						; size = 4
_f_id$ = 12						; size = 4
_graph_facet_transforms PROC				; COMDAT

; 1019 : { struct graphdata gt[FACET_VERTS+1];

	push	ebp
	mov	ebp, esp
	sub	esp, 604				; 0000025cH
	mov	eax, DWORD PTR ___security_cookie
	xor	eax, ebp
	mov	DWORD PTR __$ArrayPad$[ebp], eax
	push	ebx
	push	esi
	mov	esi, DWORD PTR _gdata$[ebp]
	push	edi
	mov	edi, DWORD PTR _f_id$[ebp]

; 1020 :   int i,j,k;
; 1021 : 
; 1022 :   memset(gt,0,(FACET_VERTS+1)*sizeof(struct graphdata));

	push	576					; 00000240H
	xor	ebx, ebx
	lea	eax, DWORD PTR _gt$[ebp]
	push	ebx
	push	eax

; 1045 :           matvec_mul(view_transforms[i],gdata[j].norm,gt[j].norm,
; 1046 :              SDIM,SDIM); 

	mov	DWORD PTR _gdata$GSCopy$[ebp], esi
	mov	DWORD PTR _f_id$GSCopy$[ebp], edi
	call	_memset
	fld1
	mov	ecx, DWORD PTR _web+616
	fst	QWORD PTR [esi+ecx*8]
	mov	edx, DWORD PTR _web+616
	fst	QWORD PTR [esi+edx*8+144]
	mov	eax, DWORD PTR _web+616
	fstp	QWORD PTR [esi+eax*8+288]
	add	esp, 12					; 0000000cH
	cmp	DWORD PTR _box_flag, ebx
	je	SHORT $LN95@graph_face

; 1023 : 
; 1024 :   for ( i = 0 ; i < FACET_VERTS ; i++ ) 
; 1025 :      gdata[i].x[SDIM] = 1.0;  /* homogeneous coord */
; 1026 :   if ( box_flag )
; 1027 :     for ( j = 0 ; j < FACET_VERTS ; j++ )

	mov	ebx, esi
	mov	DWORD PTR tv208[ebp], 3
$LL57@graph_face:

; 1028 :       for ( k = 0 ; k < SDIM ; k++ )

	mov	eax, DWORD PTR _web+616
	test	eax, eax
	jle	SHORT $LN56@graph_face
	mov	edx, OFFSET _bounding_box+8
	mov	ecx, ebx
	mov	edi, eax
	npad	7
$LL54@graph_face:

; 1029 :       { if ( gdata[j].x[k] < bounding_box[k][0] )

	fld	QWORD PTR [edx-8]
	fcomp	QWORD PTR [ecx]
	fnstsw	ax
	test	ah, 65					; 00000041H
	jne	SHORT $LN51@graph_face

; 1030 :           bounding_box[k][0] = gdata[j].x[k];

	fld	QWORD PTR [ecx]
	fstp	QWORD PTR [edx-8]
$LN51@graph_face:

; 1031 :         if ( gdata[j].x[k] > bounding_box[k][1] )

	fld	QWORD PTR [edx]
	fcomp	QWORD PTR [ecx]
	fnstsw	ax
	test	ah, 5
	jp	SHORT $LN53@graph_face

; 1032 :           bounding_box[k][1] = gdata[j].x[k];

	fld	QWORD PTR [ecx]
	fstp	QWORD PTR [edx]
$LN53@graph_face:

; 1028 :       for ( k = 0 ; k < SDIM ; k++ )

	add	ecx, 8
	add	edx, 16					; 00000010H
	dec	edi
	jne	SHORT $LL54@graph_face
	mov	edi, DWORD PTR _f_id$GSCopy$[ebp]
$LN56@graph_face:

; 1023 : 
; 1024 :   for ( i = 0 ; i < FACET_VERTS ; i++ ) 
; 1025 :      gdata[i].x[SDIM] = 1.0;  /* homogeneous coord */
; 1026 :   if ( box_flag )
; 1027 :     for ( j = 0 ; j < FACET_VERTS ; j++ )

	add	ebx, 144				; 00000090H
	dec	DWORD PTR tv208[ebp]
	jne	SHORT $LL57@graph_face
	xor	ebx, ebx
$LN95@graph_face:

; 1033 :       }
; 1034 :   if ( transforms_flag && (!lazy_transforms_flag || box_flag) && view_transform_det &&
; 1035 :          !(valid_id(f_id) && (get_fattr(f_id) & NO_TRANSFORM)) &&
; 1036 :              (transform_colors_flag || (graph_facet != geomview_facet) )  )

	mov	edx, DWORD PTR _graph_facet
	cmp	DWORD PTR _transforms_flag, ebx
	je	$LN100@graph_face
	cmp	DWORD PTR _lazy_transforms_flag, ebx
	je	SHORT $LN48@graph_face
	cmp	DWORD PTR _box_flag, ebx
	je	$LN100@graph_face
$LN48@graph_face:
	cmp	DWORD PTR _view_transform_det, ebx
	je	$LN100@graph_face
	test	edi, 268435456				; 10000000H
	je	SHORT $LN47@graph_face
	mov	eax, DWORD PTR _web+236
	mov	ecx, edi
	and	ecx, 134217727				; 07ffffffH
	mov	eax, DWORD PTR [eax+ecx*4]
	mov	ecx, DWORD PTR [eax+12]
	and	ecx, 1
	xor	eax, eax
	or	eax, ecx
	jne	$LN100@graph_face
$LN47@graph_face:
	cmp	DWORD PTR _transform_colors_flag, ebx
	jne	SHORT $LN46@graph_face
	cmp	edx, OFFSET _geomview_facet
	je	$LN100@graph_face
$LN46@graph_face:

; 1037 :   {
; 1038 :     for ( i = 0 ;  i < transform_count ; i++ )

	mov	DWORD PTR _i$[ebp], ebx
	cmp	DWORD PTR _transform_count, ebx
	jle	$LN1@graph_face
	jmp	SHORT $LN45@graph_face
$LL92@graph_face:
	mov	esi, DWORD PTR _gdata$GSCopy$[ebp]
	xor	ebx, ebx
$LN45@graph_face:

; 1039 :     { if ( view_transform_det[i] > 0 )

	mov	ecx, DWORD PTR _view_transform_det
	mov	edx, DWORD PTR _i$[ebp]
	cmp	DWORD PTR [ecx+edx*4], ebx
	jle	$LN42@graph_face

; 1040 :       { for ( j = 0 ; j < FACET_VERTS ; j++ )

	mov	DWORD PTR tv1024[ebp], ebx
	lea	ebx, DWORD PTR _gt$[ebp]

; 1041 :         { gt[j] = gdata[j];

	mov	eax, esi
	mov	ecx, ebx
	sub	eax, ecx
	mov	DWORD PTR tv1068[ebp], eax
	jmp	SHORT $LN41@graph_face
	npad	8
$LL93@graph_face:
	mov	eax, DWORD PTR tv1068[ebp]
$LN41@graph_face:
	lea	edx, DWORD PTR [eax+ebx]

; 1042 :           matvec_mul(view_transforms[i],gdata[j].x,gt[j].x,SDIM+1,SDIM+1); 

	mov	eax, DWORD PTR _web+616
	inc	eax
	push	eax
	push	eax
	mov	eax, DWORD PTR _i$[ebp]
	push	ebx
	mov	esi, edx
	push	edx
	mov	edx, DWORD PTR _view_transforms
	mov	ecx, 36					; 00000024H
	mov	edi, ebx
	rep movsd
	mov	ecx, DWORD PTR [edx+eax*4]
	push	ecx
	call	_matvec_mul

; 1043 :           for ( k = 0 ; k <= SDIM ; k++ )

	mov	ecx, DWORD PTR _web+616
	add	esp, 20					; 00000014H
	test	ecx, ecx
	js	SHORT $LN96@graph_face
	mov	edx, DWORD PTR tv1024[ebp]
	lea	esi, DWORD PTR [ecx+edx]
	lea	esi, DWORD PTR _gt$[ebp+esi*8]
	mov	eax, ebx
	lea	edx, DWORD PTR [ecx+1]
$LL38@graph_face:

; 1044 :              gt[j].x[k] /= gt[j].x[SDIM]; /* normalize */

	fld	QWORD PTR [eax]
	add	eax, 8
	dec	edx
	fdiv	QWORD PTR [esi]
	fstp	QWORD PTR [eax-8]
	jne	SHORT $LL38@graph_face
$LN96@graph_face:

; 1045 :           matvec_mul(view_transforms[i],gdata[j].norm,gt[j].norm,
; 1046 :              SDIM,SDIM); 

	mov	edx, DWORD PTR _view_transforms
	push	ecx
	push	ecx
	mov	ecx, DWORD PTR tv1068[ebp]
	lea	eax, DWORD PTR [ebx+56]
	push	eax
	lea	eax, DWORD PTR [ecx+ebx+56]
	push	eax
	mov	eax, DWORD PTR _i$[ebp]
	mov	ecx, DWORD PTR [edx+eax*4]
	push	ecx
	call	_matvec_mul
	mov	eax, DWORD PTR tv1024[ebp]
	add	eax, 18					; 00000012H
	add	esp, 20					; 00000014H
	add	ebx, 144				; 00000090H
	mov	DWORD PTR tv1024[ebp], eax
	cmp	eax, 54					; 00000036H
	jl	$LL93@graph_face

; 1047 :         }
; 1048 :       }
; 1049 :       else

	mov	edx, DWORD PTR _opacity_attr
	mov	ecx, DWORD PTR _gdata$GSCopy$[ebp]
	mov	esi, DWORD PTR _f_id$GSCopy$[ebp]
	jmp	$LN35@graph_face
$LN42@graph_face:

; 1050 :       { /* reverse orientation */
; 1051 :         for ( j = 0 ; j < FACET_VERTS ; j++ )

	lea	edx, DWORD PTR [esi+344]
	mov	DWORD PTR tv1219[ebp], edx
	lea	edx, DWORD PTR [esi+288]
	mov	DWORD PTR tv1139[ebp], ebx
	lea	ebx, DWORD PTR _gt$[ebp]
	mov	DWORD PTR tv1221[ebp], edx
	jmp	SHORT $LN34@graph_face
	npad	10
$LL94@graph_face:
	mov	edx, DWORD PTR tv1221[ebp]
$LN34@graph_face:

; 1052 :         { gt[j] = gdata[2-j];
; 1053 :           matvec_mul(view_transforms[i],gdata[2-j].x,gt[j].x,SDIM+1,SDIM+1); 

	mov	eax, DWORD PTR _web+616
	inc	eax
	push	eax
	push	eax
	mov	eax, DWORD PTR _view_transforms
	mov	esi, edx
	mov	ecx, 36					; 00000024H
	mov	edi, ebx
	rep movsd
	mov	ecx, DWORD PTR _i$[ebp]
	push	ebx
	push	edx
	mov	edx, DWORD PTR [eax+ecx*4]
	push	edx
	call	_matvec_mul

; 1054 :           for ( k = 0 ; k <= SDIM ; k++ )

	mov	ecx, DWORD PTR _web+616
	add	esp, 20					; 00000014H
	test	ecx, ecx
	js	SHORT $LN99@graph_face
	mov	esi, DWORD PTR tv1139[ebp]
	add	esi, ecx
	lea	esi, DWORD PTR _gt$[ebp+esi*8]
	mov	eax, ebx
	lea	edx, DWORD PTR [ecx+1]
$LL31@graph_face:

; 1055 :             gt[j].x[k] /= gt[j].x[SDIM]; /* normalize */

	fld	QWORD PTR [eax]
	add	eax, 8
	dec	edx
	fdiv	QWORD PTR [esi]
	fstp	QWORD PTR [eax-8]
	jne	SHORT $LL31@graph_face
$LN99@graph_face:

; 1056 :           matvec_mul(view_transforms[i],gdata[2-j].norm,gt[j].norm,SDIM,SDIM); 

	mov	edx, DWORD PTR _view_transforms
	mov	eax, DWORD PTR _i$[ebp]
	mov	esi, DWORD PTR tv1219[ebp]
	push	ecx
	push	ecx
	lea	ecx, DWORD PTR [ebx+56]
	push	ecx
	mov	ecx, DWORD PTR [edx+eax*4]
	push	esi
	push	ecx
	call	_matvec_mul
	mov	eax, DWORD PTR tv1139[ebp]
	sub	DWORD PTR tv1221[ebp], 144		; 00000090H
	add	eax, 18					; 00000012H
	sub	esi, 144				; 00000090H
	add	esp, 20					; 00000014H
	add	ebx, 144				; 00000090H
	mov	DWORD PTR tv1139[ebp], eax
	mov	DWORD PTR tv1219[ebp], esi
	cmp	eax, 54					; 00000036H
	jl	$LL94@graph_face

; 1057 :         }
; 1058 :         gt[0].color = gdata[0].color;        

	mov	ecx, DWORD PTR _gdata$GSCopy$[ebp]
	mov	edx, DWORD PTR [ecx+104]

; 1059 :         gt[0].backcolor = gdata[0].backcolor;

	mov	eax, DWORD PTR [ecx+108]

; 1060 :         if ( opacity_attr )
; 1061 :            gdata[0].opacity = *(REAL*)(get_extra(f_id,opacity_attr));

	mov	esi, DWORD PTR _f_id$GSCopy$[ebp]
	mov	DWORD PTR _gt$[ebp+104], edx
	mov	edx, DWORD PTR _opacity_attr
	mov	DWORD PTR _gt$[ebp+108], eax
	test	edx, edx
	je	SHORT $LN28@graph_face
	mov	ebx, DWORD PTR _dymem
	imul	edx, 240				; 000000f0H
	mov	eax, esi
	shr	eax, 29					; 0000001dH
	imul	eax, 112				; 00000070H
	mov	edi, DWORD PTR _web[eax+104]
	mov	eax, DWORD PTR _web[eax+12]
	add	edi, edx
	mov	edi, DWORD PTR [edi+ebx+64]
	mov	edx, esi
	and	edx, 134217727				; 07ffffffH
	mov	edx, DWORD PTR [eax+edx*4]
	fld	QWORD PTR [edi+edx]
	fstp	QWORD PTR [ecx+112]
	mov	edx, DWORD PTR _opacity_attr
$LN28@graph_face:

; 1062 :         // fix up edge data, since different correspondence
; 1063 :         gt[0].ecolor = gdata[1].ecolor; gt[1].ecolor = gdata[0].ecolor;

	mov	eax, DWORD PTR [ecx+264]
	mov	DWORD PTR _gt$[ebp+120], eax
	mov	eax, DWORD PTR [ecx+120]
	mov	DWORD PTR _gt$[ebp+264], eax

; 1064 :         gt[2].ecolor = gdata[2].ecolor;

	mov	eax, DWORD PTR [ecx+408]
	mov	DWORD PTR _gt$[ebp+408], eax

; 1065 :         gt[0].etype = gdata[1].etype; gt[1].etype = gdata[0].etype;

	movzx	eax, WORD PTR [ecx+268]
	mov	WORD PTR _gt$[ebp+124], ax
	movzx	eax, WORD PTR [ecx+124]
	mov	WORD PTR _gt$[ebp+268], ax

; 1066 :         gt[2].etype = gdata[2].etype;

	movzx	eax, WORD PTR [ecx+412]
	mov	WORD PTR _gt$[ebp+412], ax

; 1067 :         gt[0].id = gdata[1].id;

	mov	eax, DWORD PTR [ecx+272]
	mov	DWORD PTR _gt$[ebp+128], eax

; 1068 :         gt[1].id = gdata[0].id;

	mov	eax, DWORD PTR [ecx+128]
	mov	DWORD PTR _gt$[ebp+272], eax

; 1069 :         gt[2].id = gdata[2].id;

	mov	eax, DWORD PTR [ecx+416]
	mov	DWORD PTR _gt$[ebp+416], eax

; 1070 :         gt[0].flags = gdata[0].flags;

	mov	eax, DWORD PTR [ecx+136]
	mov	DWORD PTR _gt$[ebp+136], eax
$LN35@graph_face:

; 1071 :       }
; 1072 : 
; 1073 :       if ( transform_colors[i] == SWAP_COLORS )

	mov	eax, DWORD PTR _transform_colors
	mov	edi, DWORD PTR _i$[ebp]
	mov	eax, DWORD PTR [eax+edi*4]
	cmp	eax, 1
	jne	SHORT $LN27@graph_face

; 1074 :       { int temp = gt[0].color;
; 1075 :         gt[0].color = gt[0].backcolor;

	mov	edi, DWORD PTR _gt$[ebp+108]
	mov	eax, DWORD PTR _gt$[ebp+104]

; 1076 :         gt[0].backcolor = temp;
; 1077 :         gt[0].flags |= COLORS_SWAPPED;

	or	DWORD PTR _gt$[ebp+136], 32768		; 00008000H
	mov	DWORD PTR _gt$[ebp+104], edi
	jmp	SHORT $LN102@graph_face
$LN27@graph_face:

; 1078 :       }
; 1079 :       else if ( transform_colors_flag && (transform_colors[i] != SAME_COLOR) ) 

	cmp	DWORD PTR _transform_colors_flag, 0
	je	SHORT $LN25@graph_face
	test	eax, eax
	je	SHORT $LN25@graph_face

; 1080 :         gt[0].color = gt[0].backcolor = transform_colors[i];

	mov	DWORD PTR _gt$[ebp+104], eax
$LN102@graph_face:
	mov	DWORD PTR _gt$[ebp+108], eax
$LN25@graph_face:

; 1081 :       if ( opacity_attr )

	test	edx, edx
	je	SHORT $LN24@graph_face

; 1082 :          gdata[0].opacity = *(REAL*)(get_extra(f_id,opacity_attr));

	mov	ebx, DWORD PTR _dymem
	imul	edx, 240				; 000000f0H
	mov	eax, esi
	shr	eax, 29					; 0000001dH
	imul	eax, 112				; 00000070H
	mov	edi, DWORD PTR _web[eax+104]
	mov	eax, DWORD PTR _web[eax+12]
	add	edi, edx
	mov	edi, DWORD PTR [edi+ebx+64]
	mov	edx, esi
	and	edx, 134217727				; 07ffffffH
	mov	edx, DWORD PTR [eax+edx*4]
	fld	QWORD PTR [edi+edx]
	fstp	QWORD PTR [ecx+112]
$LN24@graph_face:

; 1083 :       if ( box_flag )

	cmp	DWORD PTR _box_flag, 0
	je	SHORT $LN98@graph_face

; 1084 :       for ( j = 0 ; j < FACET_VERTS ; j++ )

	lea	edi, DWORD PTR _gt$[ebp]
	mov	DWORD PTR tv1390[ebp], 3
$LL22@graph_face:

; 1085 :         for ( k = 0 ; k < SDIM ; k++ )

	mov	ebx, DWORD PTR _web+616
	test	ebx, ebx
	jle	SHORT $LN21@graph_face
	mov	esi, OFFSET _bounding_box+8
	mov	ecx, edi
	mov	edx, ebx
$LL19@graph_face:

; 1086 :         { if ( gt[j].x[k] < bounding_box[k][0] )

	fld	QWORD PTR [esi-8]
	fcomp	QWORD PTR [ecx]
	fnstsw	ax
	test	ah, 65					; 00000041H
	jne	SHORT $LN16@graph_face

; 1087 :             bounding_box[k][0] = gt[j].x[k];

	fld	QWORD PTR [ecx]
	fstp	QWORD PTR [esi-8]
$LN16@graph_face:

; 1088 :           if ( gt[j].x[k] > bounding_box[k][1] )

	fld	QWORD PTR [esi]
	fcomp	QWORD PTR [ecx]
	fnstsw	ax
	test	ah, 5
	jp	SHORT $LN18@graph_face

; 1089 :             bounding_box[k][1] = gt[j].x[k];

	fld	QWORD PTR [ecx]
	fstp	QWORD PTR [esi]
$LN18@graph_face:

; 1085 :         for ( k = 0 ; k < SDIM ; k++ )

	add	ecx, 8
	add	esi, 16					; 00000010H
	dec	edx
	jne	SHORT $LL19@graph_face
	mov	esi, DWORD PTR _f_id$GSCopy$[ebp]
$LN21@graph_face:

; 1084 :       for ( j = 0 ; j < FACET_VERTS ; j++ )

	add	edi, 144				; 00000090H
	dec	DWORD PTR tv1390[ebp]
	jne	SHORT $LL22@graph_face
	jmp	SHORT $LN20@graph_face
$LN98@graph_face:
	mov	ebx, DWORD PTR _web+616
$LN20@graph_face:

; 1090 :         }
; 1091 :       if ( lazy_transforms_flag && (i > 0) )

	cmp	DWORD PTR _lazy_transforms_flag, 0
	je	SHORT $LN101@graph_face
	cmp	DWORD PTR _i$[ebp], 0
	jg	SHORT $LN44@graph_face
$LN101@graph_face:

; 1092 :          continue;  // just needed bounding box
; 1093 :       if ( (torus_display_mode == TORUS_CLIPPED_MODE) &&
; 1094 :             web.torus_display_period && !web.torus_flag )

	cmp	DWORD PTR _torus_display_mode, 3
	jne	SHORT $LN13@graph_face
	cmp	DWORD PTR _web+1620, 0
	je	SHORT $LN13@graph_face
	cmp	DWORD PTR _web+860, 0
	jne	SHORT $LN13@graph_face

; 1095 :         torus_clip(gt,SDIM-1,f_id);

	push	esi
	dec	ebx
	lea	eax, DWORD PTR _gt$[ebp]
	push	ebx
	push	eax
	call	_torus_clip
	add	esp, 12					; 0000000cH
	jmp	SHORT $LN44@graph_face
$LN13@graph_face:

; 1096 :       else if ( slice_view_flag )

	cmp	DWORD PTR _slice_view_flag, 0
	je	SHORT $LN11@graph_face

; 1097 :         slice_facet(gt);

	lea	ecx, DWORD PTR _gt$[ebp]
	push	ecx
	call	_slice_facet
	add	esp, 4
	jmp	SHORT $LN44@graph_face
$LN11@graph_face:

; 1098 :       else if ( clip_view_flag )

	cmp	DWORD PTR _clip_view_flag, 0
	je	SHORT $LN9@graph_face

; 1099 :         clip_facet(gt,f_id,0);

	push	0
	lea	edx, DWORD PTR _gt$[ebp]
	push	esi
	push	edx
	call	_clip_facet
	add	esp, 12					; 0000000cH

; 1100 :       else

	jmp	SHORT $LN44@graph_face
$LN9@graph_face:

; 1101 :         (*graph_facet)(gt,f_id);

	lea	eax, DWORD PTR _gt$[ebp]
	push	esi
	push	eax
	call	DWORD PTR _graph_facet
	add	esp, 8
$LN44@graph_face:

; 1037 :   {
; 1038 :     for ( i = 0 ;  i < transform_count ; i++ )

	mov	eax, DWORD PTR _i$[ebp]
	inc	eax
	mov	DWORD PTR _i$[ebp], eax
	cmp	eax, DWORD PTR _transform_count
	jl	$LL92@graph_face
	pop	edi
	pop	esi
	pop	ebx

; 1114 :   }
; 1115 : } // end  graph_facet_transforms()

	mov	ecx, DWORD PTR __$ArrayPad$[ebp]
	xor	ecx, ebp
	call	@__security_check_cookie@4
	mov	esp, ebp
	pop	ebp
	ret	0
$LN100@graph_face:

; 1102 :     }
; 1103 :   }
; 1104 :   else 
; 1105 :   { if ( (torus_display_mode == TORUS_CLIPPED_MODE) &&
; 1106 :             web.torus_display_period && !web.torus_flag )

	cmp	DWORD PTR _torus_display_mode, 3
	jne	SHORT $LN6@graph_face
	cmp	DWORD PTR _web+1620, ebx
	je	SHORT $LN6@graph_face
	cmp	DWORD PTR _web+860, ebx
	jne	SHORT $LN6@graph_face

; 1107 :       torus_clip(gdata,SDIM-1,f_id);

	mov	ecx, DWORD PTR _web+616
	push	edi
	dec	ecx
	push	ecx
	push	esi
	call	_torus_clip
	add	esp, 12					; 0000000cH
	pop	edi
	pop	esi
	pop	ebx

; 1114 :   }
; 1115 : } // end  graph_facet_transforms()

	mov	ecx, DWORD PTR __$ArrayPad$[ebp]
	xor	ecx, ebp
	call	@__security_check_cookie@4
	mov	esp, ebp
	pop	ebp
	ret	0
$LN6@graph_face:

; 1108 :     else if ( slice_view_flag )

	cmp	DWORD PTR _slice_view_flag, ebx
	je	SHORT $LN4@graph_face

; 1109 :         slice_facet(gdata);

	push	esi
	call	_slice_facet
	add	esp, 4
	pop	edi
	pop	esi
	pop	ebx

; 1114 :   }
; 1115 : } // end  graph_facet_transforms()

	mov	ecx, DWORD PTR __$ArrayPad$[ebp]
	xor	ecx, ebp
	call	@__security_check_cookie@4
	mov	esp, ebp
	pop	ebp
	ret	0
$LN4@graph_face:

; 1110 :     else if ( clip_view_flag )

	cmp	DWORD PTR _clip_view_flag, ebx
	je	SHORT $LN2@graph_face

; 1111 :         clip_facet(gdata,f_id,0);

	push	ebx
	push	edi
	push	esi
	call	_clip_facet
	add	esp, 12					; 0000000cH
	pop	edi
	pop	esi
	pop	ebx

; 1114 :   }
; 1115 : } // end  graph_facet_transforms()

	mov	ecx, DWORD PTR __$ArrayPad$[ebp]
	xor	ecx, ebp
	call	@__security_check_cookie@4
	mov	esp, ebp
	pop	ebp
	ret	0
$LN2@graph_face:

; 1112 :     else
; 1113 :       (*graph_facet)(gdata,f_id);

	push	edi
	push	esi
	call	edx
	add	esp, 8
$LN1@graph_face:

; 1114 :   }
; 1115 : } // end  graph_facet_transforms()

	mov	ecx, DWORD PTR __$ArrayPad$[ebp]
	pop	edi
	pop	esi
	xor	ecx, ebp
	pop	ebx
	call	@__security_check_cookie@4
	mov	esp, ebp
	pop	ebp
	ret	0
_graph_facet_transforms ENDP
_TEXT	ENDS
PUBLIC	_m$GSCopy$
PUBLIC	_gdata$GSCopy$
PUBLIC	__$ArrayPad$
; Function compile flags: /Ogtp
;	COMDAT _torus_edge_clip
_TEXT	SEGMENT
_wrap$ = -372						; size = 8
_a$ = -364						; size = 8
_m$GSCopy$ = -360					; size = 4
tv779 = -356						; size = 8
tv833 = -352						; size = 4
tv330 = -352						; size = 4
_cut$90528 = -352					; size = 4
_per$ = -348						; size = 4
_gdata$GSCopy$ = -344					; size = 4
_gdata1$ = -340						; size = 288
_orig$ = -52						; size = 48
__$ArrayPad$ = -4					; size = 4
_gdata$ = 8						; size = 4
_m$ = 12						; size = 4
_torus_edge_clip PROC					; COMDAT

; 1511 : {

	push	ebp
	mov	ebp, esp
	sub	esp, 372				; 00000174H
	mov	eax, DWORD PTR ___security_cookie
	xor	eax, ebp
	mov	DWORD PTR __$ArrayPad$[ebp], eax
	mov	eax, DWORD PTR _m$[ebp]
	push	ebx
	push	esi
	push	edi
	mov	edi, DWORD PTR _gdata$[ebp]

; 1512 :   struct graphdata gdata1[2];  /* for possible subdivided edge */
; 1513 :   int i,k;
; 1514 :   REAL t,a,b;
; 1515 :   int wrap[2];
; 1516 :   REAL **per=NULL;

	xor	esi, esi

; 1517 :   REAL **invper=NULL;

	xor	ebx, ebx

; 1518 :   REAL orig[MAXCOORD];  /* cell coords of display origin */
; 1519 : 
; 1520 :   if ( gdata[0].flags & EDGE_ARC ) 

	test	DWORD PTR [edi+136], 32768		; 00008000H
	mov	DWORD PTR _gdata$GSCopy$[ebp], edi
	mov	DWORD PTR _m$GSCopy$[ebp], eax
	mov	DWORD PTR _per$[ebp], esi
	je	SHORT $LN40@torus_edge

; 1521 :   { torus_arc_clip(gdata,m);

	push	eax
	push	edi
	call	_torus_arc_clip

; 1623 :   }
; 1624 :   else
; 1625 :     torus_edge_clip(gdata,m+1);

	add	esp, 8
	pop	edi
	pop	esi
	pop	ebx

; 1626 : 
; 1627 : } /* end torus_edge_clip() */

	mov	ecx, DWORD PTR __$ArrayPad$[ebp]
	xor	ecx, ebp
	call	@__security_check_cookie@4
	mov	esp, ebp
	pop	ebp
	ret	0
$LN40@torus_edge:

; 1522 :     return;
; 1523 :   }
; 1524 : 
; 1525 :   memset(gdata1,0,2*sizeof(struct graphdata));

	push	288					; 00000120H
	lea	eax, DWORD PTR _gdata1$[ebp]
	push	esi
	push	eax
	call	_memset

; 1526 : 
; 1527 :   if ( web.torus_display_period && web.torus_period )

	mov	ecx, DWORD PTR _web+1620
	mov	eax, DWORD PTR _web+1608
	add	esp, 12					; 0000000cH
	cmp	ecx, esi
	je	SHORT $LN39@torus_edge

; 1530 :     invper = web.inverse_display_periods;

	mov	ebx, DWORD PTR _web+1672
	cmp	eax, esi
	je	SHORT $LN37@torus_edge

; 1528 :   { /* per = web.torus_display_period; */
; 1529 :     per = web.torus_period;

	mov	DWORD PTR _per$[ebp], eax

; 1530 :     invper = web.inverse_display_periods;

	jmp	SHORT $LN34@torus_edge
$LN39@torus_edge:

; 1531 :   }
; 1532 :   else if ( web.torus_period )

	cmp	eax, esi
	je	SHORT $LN35@torus_edge

; 1533 :   { per = web.torus_period;
; 1534 :     invper = web.inverse_periods;

	mov	ebx, DWORD PTR _web+1612
	mov	DWORD PTR _per$[ebp], eax
	jmp	SHORT $LN34@torus_edge
$LN37@torus_edge:

; 1535 :   }
; 1536 :   else if ( web.torus_display_period )
; 1537 :   { per = web.torus_display_period; 

	mov	DWORD PTR _per$[ebp], ecx

; 1538 :     invper = web.inverse_display_periods;
; 1539 :   }
; 1540 :   else 

	jmp	SHORT $LN34@torus_edge
$LN35@torus_edge:

; 1541 :     graph_edge_clip(gdata,gdata->id);

	mov	ecx, DWORD PTR [edi+128]
	push	ecx
	push	edi
	call	_graph_edge_clip
	add	esp, 8
$LN34@torus_edge:

; 1542 : 
; 1543 :   for ( i = 0 ; i < SDIM ; i++ )

	mov	eax, DWORD PTR _web+616
	test	eax, eax
	jle	SHORT $LN31@torus_edge
$LL33@torus_edge:

; 1544 :     orig[i] = SDIM_dot(invper[i],web.display_origin);

	mov	edx, DWORD PTR [ebx+esi*4]
	push	eax
	push	OFFSET _web+1624
	push	edx
	call	_dot
	fstp	QWORD PTR _orig$[ebp+esi*8]
	mov	eax, DWORD PTR _web+616
	inc	esi
	add	esp, 12					; 0000000cH
	cmp	esi, eax
	jl	SHORT $LL33@torus_edge
$LN31@torus_edge:

; 1545 :    
; 1546 :   /* see if any vertices outside cell in this coordinate */
; 1547 :   for ( i = 0 ; i < 2 ; i++ )

	xor	esi, esi
	jmp	SHORT $LN30@torus_edge
	npad	10
$LL59@torus_edge:
	mov	eax, DWORD PTR _web+616
$LN30@torus_edge:

; 1548 :      wrap[i] = (int)floor(SDIM_dot(invper[m],gdata[i].x)-orig[m]);

	push	eax
	mov	eax, DWORD PTR _m$GSCopy$[ebp]
	mov	ecx, DWORD PTR [ebx+eax*4]
	push	edi
	push	ecx
	call	_dot
	mov	edx, DWORD PTR _m$GSCopy$[ebp]
	fsub	QWORD PTR _orig$[ebp+edx*8]
	add	esp, 4
	fstp	QWORD PTR [esp]
	call	_floor
	add	esp, 8
	call	__ftol2_sse
	mov	DWORD PTR _wrap$[ebp+esi*4], eax
	inc	esi
	add	edi, 144				; 00000090H
	cmp	esi, 2
	jl	SHORT $LL59@torus_edge

; 1549 : 
; 1550 :   /* split, if necessary */
; 1551 :   if ( wrap[0] != wrap[1] )

	mov	eax, DWORD PTR _wrap$[ebp]
	mov	ecx, DWORD PTR _wrap$[ebp+4]
	cmp	eax, ecx
	je	$LN62@torus_edge

; 1552 :   { int cut = (wrap[0] > wrap[1]) ? wrap[0] : wrap[1];

	mov	DWORD PTR _cut$90528[ebp], eax
	jg	SHORT $LN44@torus_edge
	mov	DWORD PTR _cut$90528[ebp], ecx
$LN44@torus_edge:

; 1553 : 
; 1554 :     /* set up head of new edge */
; 1555 :     gdata1[1] = gdata[1];

	mov	eax, DWORD PTR _gdata$GSCopy$[ebp]

; 1556 :     gdata1[0].id = gdata[0].id;
; 1557 :     gdata1[0].etype = gdata[0].etype;

	mov	dx, WORD PTR [eax+124]
	lea	esi, DWORD PTR [eax+144]
	mov	ecx, 36					; 00000024H
	lea	edi, DWORD PTR _gdata1$[ebp+144]
	rep movsd
	mov	ecx, DWORD PTR [eax+128]

; 1558 :     gdata1[0].flags = gdata[0].flags & ~LABEL_TAIL;
; 1559 :     gdata[0].flags &= ~LABEL_HEAD;
; 1560 :     gdata[1].v_id = NULLID;
; 1561 :     gdata1[0].v_id = NULLID;
; 1562 : 
; 1563 :     /* calculate new vertex */
; 1564 :     a = SDIM_dot(invper[m],gdata[0].x)-orig[m];

	mov	edi, DWORD PTR _m$GSCopy$[ebp]
	mov	DWORD PTR _gdata1$[ebp+128], ecx
	mov	ecx, DWORD PTR [eax+136]
	mov	WORD PTR _gdata1$[ebp+124], dx
	mov	edx, ecx
	and	ecx, -2049				; fffff7ffH
	xor	esi, esi
	mov	DWORD PTR [eax+136], ecx
	mov	DWORD PTR [eax+276], esi
	mov	ecx, DWORD PTR _web+616
	and	edx, -4097				; ffffefffH
	push	ecx
	mov	DWORD PTR _gdata1$[ebp+136], edx
	mov	DWORD PTR _gdata1$[ebp+132], esi
	mov	edx, DWORD PTR [ebx+edi*4]
	push	eax
	push	edx
	call	_dot

; 1565 :     b = SDIM_dot(invper[m],gdata1[1].x)-orig[m];

	mov	eax, DWORD PTR _web+616
	fsub	QWORD PTR _orig$[ebp+edi*8]
	mov	edx, DWORD PTR [ebx+edi*4]
	push	eax
	lea	ecx, DWORD PTR _gdata1$[ebp+144]
	fst	QWORD PTR _a$[ebp]
	push	ecx

; 1566 :     t = (cut - a)/(b - a);

	fisubr	DWORD PTR _cut$90528[ebp]
	push	edx
	fstp	QWORD PTR tv779[ebp]
	call	_dot
	fsub	QWORD PTR _orig$[ebp+edi*8]
	add	esp, 24					; 00000018H
	fsub	QWORD PTR _a$[ebp]
	fdivr	QWORD PTR tv779[ebp]

; 1567 :     if ( t < 0.0 ) t = 0.0;   /* clamp */

	fldz
	fcom	ST(1)
	fnstsw	ax
	fld1
	test	ah, 65					; 00000041H
	jne	SHORT $LN64@torus_edge
	fstp	ST(2)
	jmp	SHORT $LN24@torus_edge
$LN64@torus_edge:
	fstp	ST(1)

; 1568 :     else if ( t > 1.0 ) t = 1.0;

	fcom	ST(1)
	fnstsw	ax
	test	ah, 5
	jp	SHORT $LN73@torus_edge
	fstp	ST(1)
	fld	ST(0)
	jmp	SHORT $LN24@torus_edge
$LN73@torus_edge:
	fxch	ST(1)
$LN24@torus_edge:

; 1569 :     for ( k = 0 ; k < SDIM ; k++ )

	mov	edx, DWORD PTR _web+616
	xor	ecx, ecx
	cmp	edx, esi
	jle	SHORT $LN71@torus_edge
	mov	eax, DWORD PTR _gdata$GSCopy$[ebp]
	fsub	ST(1), ST(0)
	lea	esi, DWORD PTR _gdata1$[ebp+144]
	lea	ebx, DWORD PTR _gdata1$[ebp]
	sub	esi, eax
	sub	ebx, eax
$LN23@torus_edge:

; 1570 :       gdata1[0].x[k] = gdata[1].x[k] =
; 1571 :           (1 - t)*gdata[0].x[k] + t*gdata1[1].x[k];

	fld	QWORD PTR [esi+eax]
	inc	ecx
	fmul	ST(0), ST(1)
	add	eax, 8
	fld	ST(2)
	fmul	QWORD PTR [eax-8]
	faddp	ST(1), ST(0)
	fst	QWORD PTR [eax+136]
	mov	edx, DWORD PTR _web+616
	fstp	QWORD PTR [ebx+eax-8]
	cmp	ecx, edx
	jl	SHORT $LN23@torus_edge
$LN71@torus_edge:

; 1569 :     for ( k = 0 ; k < SDIM ; k++ )

	fstp	ST(0)

; 1572 : 
; 1573 :     /* wrap new edge vertices properly */
; 1574 :     for ( i = 0 ; i < 2 ; i++ )

	lea	esi, DWORD PTR _gdata1$[ebp]
	fstp	ST(0)
	mov	DWORD PTR tv330[ebp], 2
	npad	4
$LL20@torus_edge:

; 1575 :      for ( k = 0 ; k < SDIM ; k++ )

	xor	eax, eax
	test	edx, edx
	jle	SHORT $LN19@torus_edge
	fild	DWORD PTR _wrap$[ebp+4]
	mov	ecx, esi
$LN17@torus_edge:

; 1576 :          gdata1[i].x[k] -= wrap[1]*per[m][k];

	mov	ebx, DWORD PTR _per$[ebp]
	mov	ebx, DWORD PTR [ebx+edi*4]
	fld	QWORD PTR [ebx+eax*8]
	inc	eax
	fmul	ST(0), ST(1)
	add	ecx, 8
	fsubr	QWORD PTR [ecx-8]
	fstp	QWORD PTR [ecx-8]
	cmp	eax, edx
	jl	SHORT $LN17@torus_edge

; 1575 :      for ( k = 0 ; k < SDIM ; k++ )

	fstp	ST(0)
$LN19@torus_edge:

; 1572 : 
; 1573 :     /* wrap new edge vertices properly */
; 1574 :     for ( i = 0 ; i < 2 ; i++ )

	add	esi, 144				; 00000090H
	dec	DWORD PTR tv330[ebp]
	jne	SHORT $LL20@torus_edge

; 1577 : 
; 1578 :     /* kludge for display_periods to get back towards box */
; 1579 :     /*
; 1580 :     if ( web.torus_display_period )
; 1581 :     { int ww = (int)floor((SDIM_dot(invper[1-m],gdata1[0].x) + 
; 1582 :                          SDIM_dot(invper[1-m],gdata1[1].x))/2 - orig[1-m]);
; 1583 :       for ( i = 0 ; i < 2 ; i++ )
; 1584 :        for ( k = 0 ; k < SDIM ; k++ )
; 1585 :          gdata1[i].x[k] -= ww*per[1-m][k];
; 1586 :     }
; 1587 :     */
; 1588 : 
; 1589 :     /* send on for further check, or plot */
; 1590 :     gdata1[0].color = gdata1[0].ecolor = gdata[0].color;

	mov	ebx, DWORD PTR _gdata$GSCopy$[ebp]
	mov	eax, DWORD PTR [ebx+104]

; 1591 :     if ( m == SDIM-1 ) 

	dec	edx
	mov	DWORD PTR _gdata1$[ebp+120], eax
	mov	DWORD PTR _gdata1$[ebp+104], eax
	cmp	edi, edx
	jne	SHORT $LN14@torus_edge

; 1592 :     { if ( web.torus_flag && (torus_display_mode == TORUS_CLIPPED_MODE) )

	cmp	DWORD PTR _web+860, 0
	je	SHORT $LN61@torus_edge
	cmp	DWORD PTR _torus_display_mode, 3
	jne	SHORT $LN61@torus_edge

; 1593 :         (*graph_edge_transforms)(gdata1,gdata[0].id);

	mov	eax, DWORD PTR [ebx+128]
	push	eax
	lea	ecx, DWORD PTR _gdata1$[ebp]
	push	ecx
	call	_graph_edge_transforms
	add	esp, 8

; 1594 :       else

	jmp	SHORT $LN11@torus_edge
$LN61@torus_edge:

; 1595 :         graph_edge_clip(gdata1,gdata[0].id);

	mov	edx, DWORD PTR [ebx+128]
	push	edx
	lea	eax, DWORD PTR _gdata1$[ebp]
	push	eax
	call	_graph_edge_clip
	add	esp, 8

; 1596 :     }
; 1597 :     else

	jmp	SHORT $LN11@torus_edge
$LN14@torus_edge:

; 1598 :       torus_edge_clip(gdata1,m+1);

	lea	ecx, DWORD PTR [edi+1]
	push	ecx
	lea	edx, DWORD PTR _gdata1$[ebp]
	push	edx
	call	_torus_edge_clip
	add	esp, 8
	jmp	SHORT $LN11@torus_edge
$LN62@torus_edge:
	mov	edi, DWORD PTR _m$GSCopy$[ebp]
	mov	ebx, DWORD PTR _gdata$GSCopy$[ebp]
$LN11@torus_edge:

; 1599 :   }
; 1600 : 
; 1601 :   /* wrap vertices properly */
; 1602 :   for ( i = 0 ; i < 2 ; i++ )

	mov	esi, DWORD PTR _web+616
	mov	DWORD PTR tv833[ebp], 2
$LL10@torus_edge:

; 1603 :     for ( k = 0 ; k < SDIM ; k++ )

	xor	edx, edx
	test	esi, esi
	jle	SHORT $LN9@torus_edge
	mov	eax, DWORD PTR _per$[ebp]
	fild	DWORD PTR _wrap$[ebp]
	mov	ecx, DWORD PTR [eax+edi*4]
	mov	eax, ebx
$LN7@torus_edge:

; 1604 :        gdata[i].x[k] -=  wrap[0]*per[m][k];

	fld	QWORD PTR [ecx]
	inc	edx
	fmul	ST(0), ST(1)
	add	ecx, 8
	add	eax, 8
	fsubr	QWORD PTR [eax-8]
	fstp	QWORD PTR [eax-8]
	mov	esi, DWORD PTR _web+616
	cmp	edx, esi
	jl	SHORT $LN7@torus_edge

; 1603 :     for ( k = 0 ; k < SDIM ; k++ )

	fstp	ST(0)
$LN9@torus_edge:

; 1599 :   }
; 1600 : 
; 1601 :   /* wrap vertices properly */
; 1602 :   for ( i = 0 ; i < 2 ; i++ )

	add	ebx, 144				; 00000090H
	dec	DWORD PTR tv833[ebp]
	jne	SHORT $LL10@torus_edge

; 1605 : 
; 1606 :   /* kludge for display_periods to get back towards box */
; 1607 :   /*
; 1608 :     if ( web.torus_display_period )
; 1609 :     { int ww = (int)floor((SDIM_dot(invper[1-m],gdata[0].x) +
; 1610 :                  SDIM_dot(invper[1-m],gdata[1].x))/2-orig[1-m]);
; 1611 :       for ( i = 0 ; i < 2 ; i++ )
; 1612 :        for ( k = 0 ; k < SDIM ; k++ )
; 1613 :          gdata[i].x[k] -= ww*per[1-m][k];
; 1614 :     }
; 1615 :     */
; 1616 : 
; 1617 :   /* send on original edge structure */
; 1618 :   if ( m == SDIM-1 ) 

	dec	esi
	cmp	edi, esi
	jne	SHORT $LN4@torus_edge

; 1619 :   { if ( web.torus_flag && (torus_display_mode == TORUS_CLIPPED_MODE) )

	cmp	DWORD PTR _web+860, 0
	je	SHORT $LN3@torus_edge
	cmp	DWORD PTR _torus_display_mode, 3
	jne	SHORT $LN3@torus_edge

; 1620 :       (*graph_edge_transforms)(gdata,gdata[0].id);

	mov	eax, DWORD PTR _gdata$GSCopy$[ebp]
	mov	ecx, DWORD PTR [eax+128]
	push	ecx
	push	eax
	call	_graph_edge_transforms

; 1623 :   }
; 1624 :   else
; 1625 :     torus_edge_clip(gdata,m+1);

	add	esp, 8
	pop	edi
	pop	esi
	pop	ebx

; 1626 : 
; 1627 : } /* end torus_edge_clip() */

	mov	ecx, DWORD PTR __$ArrayPad$[ebp]
	xor	ecx, ebp
	call	@__security_check_cookie@4
	mov	esp, ebp
	pop	ebp
	ret	0
$LN3@torus_edge:

; 1621 :     else
; 1622 :       graph_edge_clip(gdata,gdata->id);

	mov	eax, DWORD PTR _gdata$GSCopy$[ebp]
	mov	edx, DWORD PTR [eax+128]
	push	edx
	push	eax
	call	_graph_edge_clip

; 1623 :   }
; 1624 :   else
; 1625 :     torus_edge_clip(gdata,m+1);

	add	esp, 8
	pop	edi
	pop	esi
	pop	ebx

; 1626 : 
; 1627 : } /* end torus_edge_clip() */

	mov	ecx, DWORD PTR __$ArrayPad$[ebp]
	xor	ecx, ebp
	call	@__security_check_cookie@4
	mov	esp, ebp
	pop	ebp
	ret	0
$LN4@torus_edge:

; 1623 :   }
; 1624 :   else
; 1625 :     torus_edge_clip(gdata,m+1);

	mov	eax, DWORD PTR _gdata$GSCopy$[ebp]
	inc	edi
	push	edi
	push	eax
	call	_torus_edge_clip

; 1626 : 
; 1627 : } /* end torus_edge_clip() */

	mov	ecx, DWORD PTR __$ArrayPad$[ebp]
	add	esp, 8
	pop	edi
	pop	esi
	xor	ecx, ebp
	pop	ebx
	call	@__security_check_cookie@4
	mov	esp, ebp
	pop	ebp
	ret	0
_torus_edge_clip ENDP
_TEXT	ENDS
PUBLIC	_option_facet
; Function compile flags: /Ogtp
;	COMDAT _option_facet
_TEXT	SEGMENT
_gdata$ = 8						; size = 4
_f_id$ = 12						; size = 4
_option_facet PROC					; COMDAT

; 928  : {

	push	ebp
	mov	ebp, esp

; 929  :   if ( web.torus_flag )

	cmp	DWORD PTR _web+860, 0
	mov	eax, DWORD PTR _gdata$[ebp]
	je	SHORT $LN3@option_fac

; 930  :   { gdata[0].flags &= ~(LIST_FACET | SIMPLE_FACET);

	and	DWORD PTR [eax+136], -4			; fffffffcH

; 931  :   }
; 932  :   if ( web.torus_flag && (torus_display_mode == TORUS_CLIPPED_MODE) )

	cmp	DWORD PTR _web+860, 0
	je	SHORT $LN3@option_fac
	cmp	DWORD PTR _torus_display_mode, 3
	jne	SHORT $LN3@option_fac

; 933  :   {  torus_clip(gdata,SDIM-1,f_id); }

	mov	ecx, DWORD PTR _f_id$[ebp]
	mov	edx, DWORD PTR _web+616
	push	ecx
	dec	edx
	push	edx
	push	eax
	call	_torus_clip
	add	esp, 12					; 0000000cH

; 938  :   }
; 939  : } // end option_facet()

	pop	ebp
	ret	0
$LN3@option_fac:

; 934  :   else
; 935  :   { if ( !web.symmetry_flag && (web.representation != STRING) ) 

	cmp	DWORD PTR _web+856, 0
	jne	SHORT $LN1@option_fac
	mov	ecx, 1
	cmp	DWORD PTR _web+624, ecx
	je	SHORT $LN1@option_fac

; 936  :       gdata[0].flags |= SIMPLE_FACET;

	or	DWORD PTR [eax+136], ecx
$LN1@option_fac:

; 937  :     graph_facet_transforms(gdata,f_id);

	mov	ecx, DWORD PTR _f_id$[ebp]
	push	ecx
	push	eax
	call	_graph_facet_transforms
	add	esp, 8

; 938  :   }
; 939  : } // end option_facet()

	pop	ebp
	ret	0
_option_facet ENDP
_TEXT	ENDS
PUBLIC	_gdata$GSCopy$
PUBLIC	__$ArrayPad$
; Function compile flags: /Ogtp
;	COMDAT _graph_edge_transforms
_TEXT	SEGMENT
tv2879 = -468						; size = 4
tv2881 = -464						; size = 4
tv2689 = -460						; size = 4
_ctrl_pts$ = -456					; size = 4
tv2846 = -452						; size = 4
tv361 = -452						; size = 4
_gdata$GSCopy$ = -448					; size = 4
tv2818 = -444						; size = 4
tv2203 = -444						; size = 4
tv2219 = -440						; size = 4
_i$ = -440						; size = 4
_gt$ = -436						; size = 432
__$ArrayPad$ = -4					; size = 4
_gdata$ = 8						; size = 4
_e_id$ = 12						; size = 4
_graph_edge_transforms PROC				; COMDAT

; 953  : { int i,j,k;

	push	ebp
	mov	ebp, esp
	sub	esp, 468				; 000001d4H
	mov	eax, DWORD PTR ___security_cookie
	xor	eax, ebp
	mov	DWORD PTR __$ArrayPad$[ebp], eax
	push	ebx
	push	esi
	push	edi
	mov	edi, DWORD PTR _gdata$[ebp]

; 954  :   struct graphdata gt[3];
; 955  :   int ctrl_pts = gdata[0].flags & EDGE_ARC ? 3 : 2;

	mov	esi, DWORD PTR [edi+136]
	and	esi, 32768				; 00008000H

; 956  : 
; 957  :   memset(gt,0,3*sizeof(struct graphdata));

	push	432					; 000001b0H
	or	esi, 65536				; 00010000H
	lea	eax, DWORD PTR _gt$[ebp]
	push	0
	shr	esi, 15					; 0000000fH
	push	eax
	mov	DWORD PTR _gdata$GSCopy$[ebp], edi
	mov	DWORD PTR _ctrl_pts$[ebp], esi
	call	_memset
	add	esp, 12					; 0000000cH

; 958  :   for ( i = 0 ; i < ctrl_pts ; i++ ) 

	test	esi, esi
	jle	SHORT $LN33@graph_edge@2
	fld1

; 959  :      gdata[i].x[SDIM] = 1.0;  /* homogeneous coord */

	xor	eax, eax
	mov	ecx, esi
$LN35@graph_edge@2:
	mov	edx, DWORD PTR _web+616
	add	edx, eax
	add	eax, 18					; 00000012H
	fst	QWORD PTR [edi+edx*8]
	dec	ecx
	jne	SHORT $LN35@graph_edge@2

; 958  :   for ( i = 0 ; i < ctrl_pts ; i++ ) 

	fstp	ST(0)
$LN33@graph_edge@2:

; 960  :   if ( box_flag )

	cmp	DWORD PTR _box_flag, 0
	mov	ebx, DWORD PTR _web+616
	je	$LN29@graph_edge@2

; 961  :      for ( j = 0 ; j < ctrl_pts ; j++ )

	test	esi, esi
	jle	$LN29@graph_edge@2
	mov	eax, edi
	mov	ecx, esi
	mov	DWORD PTR tv2203[ebp], 0
	mov	DWORD PTR tv2219[ebp], eax
	mov	DWORD PTR tv361[ebp], ecx
$LL31@graph_edge@2:

; 962  :        for  ( k = 0 ; k < SDIM ; k++ )

	xor	edi, edi
	cmp	ebx, 4
	jl	$LC51@graph_edge@2
	mov	ecx, DWORD PTR tv2219[ebp]
	lea	esi, DWORD PTR [ebx-4]
	shr	esi, 2
	inc	esi
	mov	edx, OFFSET _bounding_box+8
	lea	edi, DWORD PTR [esi*4]
$LL60@graph_edge@2:

; 963  :        { if ( gdata[j].x[k] < bounding_box[k][0] )

	fld	QWORD PTR [edx-8]
	fcomp	QWORD PTR [ecx]
	fnstsw	ax
	test	ah, 65					; 00000041H
	jne	SHORT $LN52@graph_edge@2

; 964  :            bounding_box[k][0] = gdata[j].x[k];

	fld	QWORD PTR [ecx]
	fstp	QWORD PTR [edx-8]
$LN52@graph_edge@2:

; 965  :          if ( gdata[j].x[k] > bounding_box[k][1] )

	fld	QWORD PTR [edx]
	fcomp	QWORD PTR [ecx]
	fnstsw	ax
	test	ah, 5
	jp	SHORT $LN53@graph_edge@2

; 966  :            bounding_box[k][1] = gdata[j].x[k];

	fld	QWORD PTR [ecx]
	fstp	QWORD PTR [edx]
$LN53@graph_edge@2:

; 963  :        { if ( gdata[j].x[k] < bounding_box[k][0] )

	fld	QWORD PTR [edx+8]
	fcomp	QWORD PTR [ecx+8]
	fnstsw	ax
	test	ah, 65					; 00000041H
	jne	SHORT $LN54@graph_edge@2

; 964  :            bounding_box[k][0] = gdata[j].x[k];

	fld	QWORD PTR [ecx+8]
	fstp	QWORD PTR [edx+8]
$LN54@graph_edge@2:

; 965  :          if ( gdata[j].x[k] > bounding_box[k][1] )

	fld	QWORD PTR [edx+16]
	fcomp	QWORD PTR [ecx+8]
	fnstsw	ax
	test	ah, 5
	jp	SHORT $LN55@graph_edge@2

; 966  :            bounding_box[k][1] = gdata[j].x[k];

	fld	QWORD PTR [ecx+8]
	fstp	QWORD PTR [edx+16]
$LN55@graph_edge@2:

; 963  :        { if ( gdata[j].x[k] < bounding_box[k][0] )

	fld	QWORD PTR [edx+24]
	fcomp	QWORD PTR [ecx+16]
	fnstsw	ax
	test	ah, 65					; 00000041H
	jne	SHORT $LN56@graph_edge@2

; 964  :            bounding_box[k][0] = gdata[j].x[k];

	fld	QWORD PTR [ecx+16]
	fstp	QWORD PTR [edx+24]
$LN56@graph_edge@2:

; 965  :          if ( gdata[j].x[k] > bounding_box[k][1] )

	fld	QWORD PTR [edx+32]
	fcomp	QWORD PTR [ecx+16]
	fnstsw	ax
	test	ah, 5
	jp	SHORT $LN57@graph_edge@2

; 966  :            bounding_box[k][1] = gdata[j].x[k];

	fld	QWORD PTR [ecx+16]
	fstp	QWORD PTR [edx+32]
$LN57@graph_edge@2:

; 963  :        { if ( gdata[j].x[k] < bounding_box[k][0] )

	fld	QWORD PTR [edx+40]
	fcomp	QWORD PTR [ecx+24]
	fnstsw	ax
	test	ah, 65					; 00000041H
	jne	SHORT $LN58@graph_edge@2

; 964  :            bounding_box[k][0] = gdata[j].x[k];

	fld	QWORD PTR [ecx+24]
	fstp	QWORD PTR [edx+40]
$LN58@graph_edge@2:

; 965  :          if ( gdata[j].x[k] > bounding_box[k][1] )

	fld	QWORD PTR [edx+48]
	fcomp	QWORD PTR [ecx+24]
	fnstsw	ax
	test	ah, 5
	jp	SHORT $LN59@graph_edge@2

; 966  :            bounding_box[k][1] = gdata[j].x[k];

	fld	QWORD PTR [ecx+24]
	fstp	QWORD PTR [edx+48]
$LN59@graph_edge@2:

; 962  :        for  ( k = 0 ; k < SDIM ; k++ )

	add	ecx, 32					; 00000020H
	add	edx, 64					; 00000040H
	dec	esi
	jne	$LL60@graph_edge@2
$LC51@graph_edge@2:
	cmp	edi, ebx
	jge	SHORT $LN30@graph_edge@2
	mov	edx, DWORD PTR tv2203[ebp]
	mov	eax, DWORD PTR _gdata$GSCopy$[ebp]
	mov	ecx, edi
	shl	ecx, 4
	add	edx, edi
	mov	esi, ebx
	add	ecx, OFFSET _bounding_box+8
	lea	edx, DWORD PTR [eax+edx*8]
	sub	esi, edi
	npad	7
$LC28@graph_edge@2:

; 963  :        { if ( gdata[j].x[k] < bounding_box[k][0] )

	fld	QWORD PTR [ecx-8]
	fcomp	QWORD PTR [edx]
	fnstsw	ax
	test	ah, 65					; 00000041H
	jne	SHORT $LN25@graph_edge@2

; 964  :            bounding_box[k][0] = gdata[j].x[k];

	fld	QWORD PTR [edx]
	fstp	QWORD PTR [ecx-8]
$LN25@graph_edge@2:

; 965  :          if ( gdata[j].x[k] > bounding_box[k][1] )

	fld	QWORD PTR [ecx]
	fcomp	QWORD PTR [edx]
	fnstsw	ax
	test	ah, 5
	jp	SHORT $LN27@graph_edge@2

; 966  :            bounding_box[k][1] = gdata[j].x[k];

	fld	QWORD PTR [edx]
	fstp	QWORD PTR [ecx]
$LN27@graph_edge@2:

; 962  :        for  ( k = 0 ; k < SDIM ; k++ )

	add	edx, 8
	add	ecx, 16					; 00000010H
	dec	esi
	jne	SHORT $LC28@graph_edge@2
$LN30@graph_edge@2:

; 961  :      for ( j = 0 ; j < ctrl_pts ; j++ )

	add	DWORD PTR tv2219[ebp], 144		; 00000090H
	add	DWORD PTR tv2203[ebp], 18		; 00000012H
	dec	DWORD PTR tv361[ebp]
	jne	$LL31@graph_edge@2
$LN29@graph_edge@2:

; 967  :        }
; 968  : 
; 969  :   if ( transforms_flag && (!lazy_transforms_flag || box_flag) && view_transforms &&
; 970  :          !(valid_id(e_id) && (get_eattr(e_id) & NO_TRANSFORM)) &&
; 971  :              (transform_colors_flag || (graph_facet != geomview_facet) )  )

	cmp	DWORD PTR _transforms_flag, 0
	mov	edx, DWORD PTR _e_id$[ebp]
	je	$LN23@graph_edge@2
	cmp	DWORD PTR _lazy_transforms_flag, 0
	je	SHORT $LN22@graph_edge@2
	cmp	DWORD PTR _box_flag, 0
	je	$LN23@graph_edge@2
$LN22@graph_edge@2:
	cmp	DWORD PTR _view_transforms, 0
	je	$LN23@graph_edge@2
	test	edx, 268435456				; 10000000H
	je	SHORT $LN21@graph_edge@2
	mov	eax, DWORD PTR _web+124
	mov	ecx, edx
	and	ecx, 134217727				; 07ffffffH
	mov	eax, DWORD PTR [eax+ecx*4]
	mov	ecx, DWORD PTR [eax+12]
	and	ecx, 1
	xor	eax, eax
	or	eax, ecx
	jne	$LN23@graph_edge@2
$LN21@graph_edge@2:
	cmp	DWORD PTR _transform_colors_flag, 0
	jne	SHORT $LN20@graph_edge@2
	cmp	DWORD PTR _graph_facet, OFFSET _geomview_facet
	je	$LN23@graph_edge@2
$LN20@graph_edge@2:

; 972  :     for ( i = 0 ;  i < transform_count ; i++ )

	cmp	DWORD PTR _transform_count, 0
	mov	DWORD PTR _i$[ebp], 0
	jle	$LN1@graph_edge@2
$LL73@graph_edge@2:

; 973  :     { gt[0] = gdata[0];
; 974  :       gt[1].v_id = gdata[1].v_id;
; 975  :       for ( j = 0 ; j < ctrl_pts ; j++ )

	cmp	DWORD PTR _ctrl_pts$[ebp], 0
	mov	eax, DWORD PTR _gdata$GSCopy$[ebp]
	mov	ecx, 36					; 00000024H
	mov	esi, eax
	lea	edi, DWORD PTR _gt$[ebp]
	rep movsd
	mov	ecx, DWORD PTR [eax+276]
	mov	DWORD PTR _gt$[ebp+276], ecx
	jle	$LN14@graph_edge@2
	mov	edx, DWORD PTR _ctrl_pts$[ebp]
	lea	ecx, DWORD PTR _gt$[ebp]
	sub	ecx, eax
	mov	DWORD PTR tv2879[ebp], ecx
	lea	ecx, DWORD PTR _gt$[ebp+8]
	sub	ecx, eax
	mov	DWORD PTR tv2818[ebp], 0
	mov	DWORD PTR tv2846[ebp], eax
	mov	DWORD PTR tv2881[ebp], ecx
	mov	DWORD PTR tv2689[ebp], edx
	npad	9
$LL72@graph_edge@2:

; 976  :         { matvec_mul(view_transforms[i],gdata[j].x,gt[j].x,
; 977  :                   SDIM+1,SDIM+1); 

	mov	eax, DWORD PTR _web+616
	mov	ecx, DWORD PTR tv2879[ebp]
	mov	edx, DWORD PTR _i$[ebp]
	inc	eax
	push	eax
	push	eax
	mov	eax, DWORD PTR tv2846[ebp]
	add	ecx, eax
	push	ecx
	push	eax
	mov	eax, DWORD PTR _view_transforms
	mov	ecx, DWORD PTR [eax+edx*4]
	push	ecx
	call	_matvec_mul

; 978  :           for ( k = 0 ; k <= SDIM ; k++ )

	xor	ebx, ebx
	add	esp, 20					; 00000014H
	cmp	DWORD PTR _web+616, ebx
	jl	$LN15@graph_edge@2
	mov	edx, DWORD PTR _web+616
	inc	edx
	cmp	edx, 4
	jl	$LC62@graph_edge@2
	mov	esi, DWORD PTR _web+616
	mov	edi, DWORD PTR tv2818[ebp]

; 979  :           { gt[j].x[k] /= gt[j].x[SDIM]; /* normalize */

	mov	ecx, DWORD PTR tv2881[ebp]
	add	ecx, DWORD PTR tv2846[ebp]
	add	edi, esi
	inc	esi
	shr	esi, 2
	lea	edi, DWORD PTR _gt$[ebp+edi*8]
	mov	edx, OFFSET _bounding_box+8
	lea	ebx, DWORD PTR [esi*4]
	npad	2
$LL71@graph_edge@2:

; 980  :             if ( box_flag )

	cmp	DWORD PTR _box_flag, 0
	fld	QWORD PTR [ecx-8]
	fdiv	QWORD PTR [edi]
	fld	ST(0)
	fxch	ST(1)
	fstp	QWORD PTR [ecx-8]
	je	SHORT $LN89@graph_edge@2

; 981  :             { if ( gt[j].x[k] < bounding_box[k][0] )

	fcom	QWORD PTR [edx-8]
	fnstsw	ax
	test	ah, 5
	jp	SHORT $LN63@graph_edge@2

; 982  :                  bounding_box[k][0] = gt[j].x[k];

	fst	QWORD PTR [edx-8]
$LN63@graph_edge@2:

; 983  :               if ( gt[j].x[k] > bounding_box[k][1] )

	fcom	QWORD PTR [edx]
	fnstsw	ax
	test	ah, 65					; 00000041H
	jne	SHORT $LN89@graph_edge@2

; 984  :                  bounding_box[k][1] = gt[j].x[k];

	fstp	QWORD PTR [edx]
	jmp	SHORT $LN74@graph_edge@2
$LN89@graph_edge@2:

; 983  :               if ( gt[j].x[k] > bounding_box[k][1] )

	fstp	ST(0)
$LN74@graph_edge@2:

; 980  :             if ( box_flag )

	cmp	DWORD PTR _box_flag, 0
	fld	QWORD PTR [ecx]
	fdiv	QWORD PTR [edi]
	fld	ST(0)
	fxch	ST(1)
	fstp	QWORD PTR [ecx]
	je	SHORT $LN98@graph_edge@2

; 981  :             { if ( gt[j].x[k] < bounding_box[k][0] )

	fcom	QWORD PTR [edx+8]
	fnstsw	ax
	test	ah, 5
	jp	SHORT $LN65@graph_edge@2

; 982  :                  bounding_box[k][0] = gt[j].x[k];

	fst	QWORD PTR [edx+8]
$LN65@graph_edge@2:

; 983  :               if ( gt[j].x[k] > bounding_box[k][1] )

	fcom	QWORD PTR [edx+16]
	fnstsw	ax
	test	ah, 65					; 00000041H
	jne	SHORT $LN98@graph_edge@2

; 984  :                  bounding_box[k][1] = gt[j].x[k];

	fstp	QWORD PTR [edx+16]
	jmp	SHORT $LN75@graph_edge@2
$LN98@graph_edge@2:

; 983  :               if ( gt[j].x[k] > bounding_box[k][1] )

	fstp	ST(0)
$LN75@graph_edge@2:

; 980  :             if ( box_flag )

	cmp	DWORD PTR _box_flag, 0
	fld	QWORD PTR [ecx+8]
	fdiv	QWORD PTR [edi]
	fld	ST(0)
	fxch	ST(1)
	fstp	QWORD PTR [ecx+8]
	je	SHORT $LN107@graph_edge@2

; 981  :             { if ( gt[j].x[k] < bounding_box[k][0] )

	fcom	QWORD PTR [edx+24]
	fnstsw	ax
	test	ah, 5
	jp	SHORT $LN67@graph_edge@2

; 982  :                  bounding_box[k][0] = gt[j].x[k];

	fst	QWORD PTR [edx+24]
$LN67@graph_edge@2:

; 983  :               if ( gt[j].x[k] > bounding_box[k][1] )

	fcom	QWORD PTR [edx+32]
	fnstsw	ax
	test	ah, 65					; 00000041H
	jne	SHORT $LN107@graph_edge@2

; 984  :                  bounding_box[k][1] = gt[j].x[k];

	fstp	QWORD PTR [edx+32]
	jmp	SHORT $LN76@graph_edge@2
$LN107@graph_edge@2:

; 983  :               if ( gt[j].x[k] > bounding_box[k][1] )

	fstp	ST(0)
$LN76@graph_edge@2:

; 980  :             if ( box_flag )

	cmp	DWORD PTR _box_flag, 0
	fld	QWORD PTR [ecx+16]
	fdiv	QWORD PTR [edi]
	fld	ST(0)
	fxch	ST(1)
	fstp	QWORD PTR [ecx+16]
	je	SHORT $LN116@graph_edge@2

; 981  :             { if ( gt[j].x[k] < bounding_box[k][0] )

	fcom	QWORD PTR [edx+40]
	fnstsw	ax
	test	ah, 5
	jp	SHORT $LN69@graph_edge@2

; 982  :                  bounding_box[k][0] = gt[j].x[k];

	fst	QWORD PTR [edx+40]
$LN69@graph_edge@2:

; 983  :               if ( gt[j].x[k] > bounding_box[k][1] )

	fcom	QWORD PTR [edx+48]
	fnstsw	ax
	test	ah, 65					; 00000041H
	jne	SHORT $LN116@graph_edge@2

; 984  :                  bounding_box[k][1] = gt[j].x[k];

	fstp	QWORD PTR [edx+48]
	jmp	SHORT $LN77@graph_edge@2
$LN116@graph_edge@2:

; 983  :               if ( gt[j].x[k] > bounding_box[k][1] )

	fstp	ST(0)
$LN77@graph_edge@2:

; 979  :           { gt[j].x[k] /= gt[j].x[SDIM]; /* normalize */

	add	ecx, 32					; 00000020H
	add	edx, 64					; 00000040H
	dec	esi
	jne	$LL71@graph_edge@2
$LC62@graph_edge@2:

; 978  :           for ( k = 0 ; k <= SDIM ; k++ )

	cmp	ebx, DWORD PTR _web+616
	jg	SHORT $LN15@graph_edge@2
	mov	eax, DWORD PTR tv2818[ebp]
	mov	edx, DWORD PTR _web+616
	lea	edi, DWORD PTR [eax+edx]
	mov	ecx, ebx
	shl	ecx, 4
	lea	esi, DWORD PTR [eax+ebx]
	sub	edx, ebx
	add	ecx, OFFSET _bounding_box+8
	lea	edi, DWORD PTR _gt$[ebp+edi*8]
	lea	esi, DWORD PTR _gt$[ebp+esi*8]
	inc	edx
	npad	5
$LC13@graph_edge@2:

; 980  :             if ( box_flag )

	cmp	DWORD PTR _box_flag, 0
	fld	QWORD PTR [esi]
	fdiv	QWORD PTR [edi]
	fld	ST(0)
	fxch	ST(1)
	fstp	QWORD PTR [esi]
	je	SHORT $LN125@graph_edge@2

; 981  :             { if ( gt[j].x[k] < bounding_box[k][0] )

	fcom	QWORD PTR [ecx-8]
	fnstsw	ax
	test	ah, 5
	jp	SHORT $LN9@graph_edge@2

; 982  :                  bounding_box[k][0] = gt[j].x[k];

	fst	QWORD PTR [ecx-8]
$LN9@graph_edge@2:

; 983  :               if ( gt[j].x[k] > bounding_box[k][1] )

	fcom	QWORD PTR [ecx]
	fnstsw	ax
	test	ah, 65					; 00000041H
	jne	SHORT $LN125@graph_edge@2

; 984  :                  bounding_box[k][1] = gt[j].x[k];

	fstp	QWORD PTR [ecx]
	jmp	SHORT $LN12@graph_edge@2
$LN125@graph_edge@2:

; 983  :               if ( gt[j].x[k] > bounding_box[k][1] )

	fstp	ST(0)
$LN12@graph_edge@2:

; 978  :           for ( k = 0 ; k <= SDIM ; k++ )

	add	esi, 8
	add	ecx, 16					; 00000010H
	dec	edx
	jne	SHORT $LC13@graph_edge@2
$LN15@graph_edge@2:

; 973  :     { gt[0] = gdata[0];
; 974  :       gt[1].v_id = gdata[1].v_id;
; 975  :       for ( j = 0 ; j < ctrl_pts ; j++ )

	add	DWORD PTR tv2846[ebp], 144		; 00000090H
	add	DWORD PTR tv2818[ebp], 18		; 00000012H
	dec	DWORD PTR tv2689[ebp]
	jne	$LL72@graph_edge@2
$LN14@graph_edge@2:

; 985  :             }
; 986  :           }
; 987  :         }
; 988  :         if ( lazy_transforms_flag && (i > 0) )

	cmp	DWORD PTR _lazy_transforms_flag, 0
	mov	esi, DWORD PTR _i$[ebp]
	je	SHORT $LN7@graph_edge@2
	test	esi, esi
	jg	SHORT $LN18@graph_edge@2
$LN7@graph_edge@2:

; 989  :           continue;  // just needed to do box
; 990  :         if ( (web.representation == STRING) && transform_colors_flag )

	cmp	DWORD PTR _web+624, 1
	jne	SHORT $LN6@graph_edge@2
	cmp	DWORD PTR _transform_colors_flag, 0
	je	SHORT $LN6@graph_edge@2

; 991  :           gt[0].ecolor = transform_colors[i];

	mov	ecx, DWORD PTR _transform_colors
	mov	edx, DWORD PTR [ecx+esi*4]
	mov	DWORD PTR _gt$[ebp+120], edx
$LN6@graph_edge@2:

; 992  :         if ( (torus_display_mode == TORUS_CLIPPED_MODE) &&
; 993  :             web.torus_display_period && !web.torus_flag )

	cmp	DWORD PTR _torus_display_mode, 3
	jne	SHORT $LN5@graph_edge@2
	cmp	DWORD PTR _web+1620, 0
	je	SHORT $LN5@graph_edge@2
	cmp	DWORD PTR _web+860, 0
	jne	SHORT $LN5@graph_edge@2

; 994  :           torus_edge_clip(gt,0);

	lea	eax, DWORD PTR _gt$[ebp]
	push	0
	push	eax
	call	_torus_edge_clip

; 995  :         else 

	jmp	SHORT $LN127@graph_edge@2
$LN5@graph_edge@2:

; 996  :         graph_edge_clip(gt,e_id);

	mov	ecx, DWORD PTR _e_id$[ebp]
	push	ecx
	lea	edx, DWORD PTR _gt$[ebp]
	push	edx
	call	_graph_edge_clip
$LN127@graph_edge@2:
	add	esp, 8
$LN18@graph_edge@2:

; 972  :     for ( i = 0 ;  i < transform_count ; i++ )

	inc	esi
	mov	DWORD PTR _i$[ebp], esi
	cmp	esi, DWORD PTR _transform_count
	jl	$LL73@graph_edge@2
	pop	edi
	pop	esi
	pop	ebx

; 1004 :   }
; 1005 : } /* graph_edge_transforms */

	mov	ecx, DWORD PTR __$ArrayPad$[ebp]
	xor	ecx, ebp
	call	@__security_check_cookie@4
	mov	esp, ebp
	pop	ebp
	ret	0
$LN23@graph_edge@2:

; 997  :      }
; 998  :   else
; 999  :   { if ( (torus_display_mode == TORUS_CLIPPED_MODE) &&
; 1000 :        web.torus_display_period && !web.torus_flag )

	cmp	DWORD PTR _torus_display_mode, 3
	jne	SHORT $LN2@graph_edge@2
	cmp	DWORD PTR _web+1620, 0
	je	SHORT $LN2@graph_edge@2
	cmp	DWORD PTR _web+860, 0
	jne	SHORT $LN2@graph_edge@2

; 1001 :       torus_edge_clip(gdata,0);

	mov	eax, DWORD PTR _gdata$GSCopy$[ebp]
	push	0
	push	eax
	call	_torus_edge_clip

; 1002 :     else 
; 1003 :      graph_edge_clip(gdata,e_id);

	add	esp, 8
	pop	edi
	pop	esi
	pop	ebx

; 1004 :   }
; 1005 : } /* graph_edge_transforms */

	mov	ecx, DWORD PTR __$ArrayPad$[ebp]
	xor	ecx, ebp
	call	@__security_check_cookie@4
	mov	esp, ebp
	pop	ebp
	ret	0
$LN2@graph_edge@2:

; 1002 :     else 
; 1003 :      graph_edge_clip(gdata,e_id);

	mov	ecx, DWORD PTR _gdata$GSCopy$[ebp]
	push	edx
	push	ecx
	call	_graph_edge_clip
	add	esp, 8
$LN1@graph_edge@2:

; 1004 :   }
; 1005 : } /* graph_edge_transforms */

	mov	ecx, DWORD PTR __$ArrayPad$[ebp]
	pop	edi
	pop	esi
	xor	ecx, ebp
	pop	ebx
	call	@__security_check_cookie@4
	mov	esp, ebp
	pop	ebp
	ret	0
_graph_edge_transforms ENDP
_TEXT	ENDS
PUBLIC	??_C@_0EG@NJKMPKCL@Edge?5?$CFs?5endpoints?5are?5antipodal?$DL@ ; `string'
PUBLIC	??_C@_00CNPNBAHC@?$AA@				; `string'
PUBLIC	??_C@_02DPKJAMEF@?$CFd?$AA@			; `string'
PUBLIC	__real@3f91df46a2529d39
PUBLIC	__real@3fb41b2f769cf0e0
PUBLIC	??_C@_0L@CNMDHOFJ@GRAPHGEN?4C?$AA@		; `string'
PUBLIC	__$ArrayPad$
PUBLIC	_plain_edges
EXTRN	_kb_error:PROC
EXTRN	_errmsg:BYTE
EXTRN	_elnames:BYTE
EXTRN	_lagrange_eval_1d:PROC
EXTRN	_bezier_eval_1d:PROC
EXTRN	_bezier_flag:DWORD
EXTRN	_labelflag:DWORD
EXTRN	_string_curve_tolerance:QWORD
EXTRN	_circular_arc_flag:DWORD
EXTRN	_ceil:PROC
EXTRN	_graph_capabilities:DWORD
EXTRN	_spherical_arc_flag:DWORD
EXTRN	_get_edge_verts:PROC
EXTRN	_eval:PROC
EXTRN	_show_expr:BYTE
EXTRN	_breakflag:DWORD
EXTRN	_myfree:PROC
EXTRN	_free_temp_matrix:PROC
EXTRN	_kb_temp_dmatrix:PROC
EXTRN	_kb_calloc:PROC
EXTRN	_smooth_graph_flag:DWORD
EXTRN	__CIacos:PROC
;	COMDAT ??_C@_0EG@NJKMPKCL@Edge?5?$CFs?5endpoints?5are?5antipodal?$DL@
CONST	SEGMENT
??_C@_0EG@NJKMPKCL@Edge?5?$CFs?5endpoints?5are?5antipodal?$DL@ DB 'Edge %'
	DB	's endpoints are antipodal; cannot be graphed as spherical arc'
	DB	'.', 0aH, 00H				; `string'
CONST	ENDS
;	COMDAT ??_C@_00CNPNBAHC@?$AA@
CONST	SEGMENT
??_C@_00CNPNBAHC@?$AA@ DB 00H				; `string'
CONST	ENDS
;	COMDAT ??_C@_02DPKJAMEF@?$CFd?$AA@
CONST	SEGMENT
??_C@_02DPKJAMEF@?$CFd?$AA@ DB '%d', 00H		; `string'
CONST	ENDS
;	COMDAT __real@3f91df46a2529d39
CONST	SEGMENT
__real@3f91df46a2529d39 DQ 03f91df46a2529d39r	; 0.0174533
CONST	ENDS
;	COMDAT __real@3fb41b2f769cf0e0
CONST	SEGMENT
__real@3fb41b2f769cf0e0 DQ 03fb41b2f769cf0e0r	; 0.0785398
CONST	ENDS
;	COMDAT ??_C@_0L@CNMDHOFJ@GRAPHGEN?4C?$AA@
CONST	SEGMENT
??_C@_0L@CNMDHOFJ@GRAPHGEN?4C?$AA@ DB 'GRAPHGEN.C', 00H	; `string'
; Function compile flags: /Ogtp
CONST	ENDS
;	COMDAT _plain_edges
_TEXT	SEGMENT
_gdata$ = -400						; size = 4
tv1898 = -396						; size = 4
tv2089 = -392						; size = 8
_mag2$90339 = -392					; size = 8
_mag2$90283 = -392					; size = 8
_dangle$90252 = -392					; size = 8
_angle$90251 = -392					; size = 8
_rr$90247 = -392					; size = 8
_ctrlpts$ = -384					; size = 4
tv5306 = -380						; size = 8
tv5304 = -380						; size = 8
tv2099 = -380						; size = 8
tv5494 = -376						; size = 4
tv5490 = -376						; size = 4
tv5477 = -376						; size = 4
tv3185 = -376						; size = 4
tv2375 = -376						; size = 4
tv2205 = -372						; size = 8
tv3154 = -368						; size = 4
_k$ = -368						; size = 4
_verts$ = -364						; size = 4
_segs$ = -360						; size = 4
tv2350 = -356						; size = 4
_headv$90371 = -356					; size = 4
_segments$90294 = -356					; size = 4
_v$90231 = -356						; size = 4
_e_id$ = -352						; size = 4
tv2098 = -348						; size = 8
_mag1$90338 = -348					; size = 8
_mag1$90281 = -348					; size = 8
_ab$90250 = -348					; size = 8
tv5561 = -344						; size = 4
tv3143 = -344						; size = 4
tv2317 = -344						; size = 4
tv2185 = -344						; size = 4
tv1936 = -344						; size = 4
tv1473 = -344						; size = 4
_i$ = -344						; size = 4
_headx$90277 = -340					; size = 48
_midx$90279 = -292					; size = 48
_headx$90333 = -244					; size = 48
_xx$90286 = -244					; size = 48
_base$90248 = -244					; size = 48
_midx$90335 = -196					; size = 48
_tailx$90278 = -196					; size = 48
_perp$90249 = -196					; size = 48
_w2$90337 = -148					; size = 48
_w$90284 = -148						; size = 48
_w1$90336 = -100					; size = 48
_w1$90280 = -100					; size = 48
_tailx$90334 = -52					; size = 48
_w2$90282 = -52						; size = 48
__$ArrayPad$ = -4					; size = 4
_plain_edges PROC					; COMDAT

; 1126 : { 

	push	ebp
	mov	ebp, esp
	sub	esp, 400				; 00000190H
	mov	eax, DWORD PTR ___security_cookie
	xor	eax, ebp
	mov	DWORD PTR __$ArrayPad$[ebp], eax

; 1127 :   int i,k;
; 1128 :   edge_id e_id;
; 1129 :   REAL **verts; /* for adjusted triangle vertices */
; 1130 :   struct graphdata *gdata;
; 1131 :   int ctrlpts = web.skel[EDGE].ctrlpts;
; 1132 :   int segs = smooth_graph_flag ? 8 : ctrlpts-1;  /* for smooth plotting */

	cmp	DWORD PTR _smooth_graph_flag, 0
	mov	eax, DWORD PTR _web+120
	mov	DWORD PTR _ctrlpts$[ebp], eax
	mov	ecx, 8
	jne	SHORT $LN256@plain_edge
	lea	ecx, DWORD PTR [eax-1]
$LN256@plain_edge:
	push	ebx
	push	esi

; 1133 :   int to_alloc =  ctrlpts > (segs+1) ? ctrlpts : (segs+1);

	lea	esi, DWORD PTR [ecx+1]
	mov	DWORD PTR _segs$[ebp], ecx
	push	edi
	cmp	eax, esi
	jle	SHORT $LN130@plain_edge
	mov	esi, eax
$LN130@plain_edge:

; 1134 :   gdata = (struct graphdata *)mycalloc(to_alloc,sizeof(struct graphdata));

	push	1134					; 0000046eH
	push	OFFSET ??_C@_0L@CNMDHOFJ@GRAPHGEN?4C?$AA@
	push	144					; 00000090H
	push	esi
	call	_kb_calloc

; 1135 : 
; 1136 :   verts = temp_dmatrix(0,to_alloc,0,SDIM);

	push	1136					; 00000470H
	mov	edi, eax
	mov	eax, DWORD PTR _web+616
	push	OFFSET ??_C@_0L@CNMDHOFJ@GRAPHGEN?4C?$AA@
	push	eax
	push	0
	push	esi
	push	0
	mov	DWORD PTR _gdata$[ebp], edi
	call	_kb_temp_dmatrix

; 1137 :   gdata[0].etype = REGULAR_EDGE;

	mov	ecx, 1
	mov	DWORD PTR _verts$[ebp], eax
	mov	WORD PTR [edi+124], cx

; 1138 :   MFOR_ALL_EDGES(e_id)

	mov	eax, DWORD PTR _web+160
	add	esp, 40					; 00000028H
	mov	DWORD PTR _e_id$[ebp], eax
	test	eax, 268435456				; 10000000H
	jne	SHORT $LN125@plain_edge
$LN200@plain_edge:

; 1373 :          }
; 1374 :        }
; 1375 :      }
; 1376 :    }
; 1377 :   free_temp_matrix(verts);

	mov	ecx, DWORD PTR _verts$[ebp]
	push	ecx
	call	_free_temp_matrix

; 1378 :   myfree((char*)gdata);

	push	edi
	call	_myfree
	add	esp, 8
	pop	edi
	pop	esi
	pop	ebx

; 1379 : 
; 1380 : }  /* end plain_edges() */

	mov	ecx, DWORD PTR __$ArrayPad$[ebp]
	xor	ecx, ebp
	call	@__security_check_cookie@4
	mov	esp, ebp
	pop	ebp
	ret	0
$LL202@plain_edge:

; 1138 :   MFOR_ALL_EDGES(e_id)

	mov	eax, DWORD PTR _e_id$[ebp]
$LN125@plain_edge:
	mov	edx, DWORD PTR _web+124
	and	eax, 134217727				; 07ffffffH
	add	eax, eax
	add	eax, eax
	mov	DWORD PTR tv1898[ebp], eax
	mov	eax, DWORD PTR [eax+edx]
	mov	eax, DWORD PTR [eax+8]
	and	eax, 1
	xor	ecx, ecx
	or	eax, ecx
	je	$LN124@plain_edge

; 1139 :   { if ( breakflag ) break;

	cmp	DWORD PTR _breakflag, ecx
	jne	SHORT $LN200@plain_edge

; 1140 : 
; 1141 :     #ifdef MPI_EVOLVER
; 1142 :     if ( !mpi_show_corona_flag && (id_task(e_id) != this_task) )
; 1143 :        continue;
; 1144 :     #endif
; 1145 : 
; 1146 :     if ( show_expr[EDGE] && show_expr[EDGE]->start )

	mov	eax, DWORD PTR _show_expr+4
	test	eax, eax
	je	SHORT $LN118@plain_edge
	cmp	DWORD PTR [eax], ecx
	je	SHORT $LN118@plain_edge

; 1147 :       if ( !eval(show_expr[EDGE],NULL,e_id,NULL) )

	push	ecx
	mov	ecx, DWORD PTR _e_id$[ebp]
	push	ecx
	push	0
	push	eax
	call	_eval
	fldz
	fucompp
	add	esp, 16					; 00000010H
	fnstsw	ax
	test	ah, 68					; 00000044H
	jnp	$LN124@plain_edge
$LN118@plain_edge:

; 1148 :         continue;
; 1149 : 
; 1150 :     gdata[0].flags = 0;
; 1151 : 
; 1152 :     /* get vertices */
; 1153 :     get_edge_verts(e_id,verts,NULL);

	mov	edx, DWORD PTR _verts$[ebp]
	mov	ebx, DWORD PTR _e_id$[ebp]
	xor	esi, esi
	push	esi
	push	edx
	push	ebx
	mov	DWORD PTR [edi+136], esi
	call	_get_edge_verts
	add	esp, 12					; 0000000cH

; 1154 :     for ( i = 0 ; i < SDIM ; i++ )

	cmp	DWORD PTR _web+616, esi
	jle	$LN198@plain_edge
$LL117@plain_edge:

; 1155 :     { gdata[1].x[i] = verts[1][i];

	mov	eax, DWORD PTR _verts$[ebp]
	mov	ecx, DWORD PTR [eax+4]
	fld	QWORD PTR [ecx+esi*8]
	lea	ebx, DWORD PTR [edi+esi*8+288]
	fstp	QWORD PTR [ebx-144]

; 1156 :       gdata[0].x[i] = verts[0][i];

	mov	edx, DWORD PTR [eax]

; 1157 :       gdata[0].v_id = get_edge_tailv(e_id);

	mov	eax, DWORD PTR _e_id$[ebp]
	fld	QWORD PTR [edx+esi*8]
	push	eax
	fstp	QWORD PTR [ebx-288]
	call	_get_edge_tailv

; 1158 :       gdata[1].v_id = get_edge_headv(e_id);

	mov	ecx, DWORD PTR _e_id$[ebp]
	push	ecx
	mov	DWORD PTR [edi+132], eax
	call	_get_edge_headv
	lea	ecx, DWORD PTR [edi+276]
	mov	DWORD PTR [ecx], eax

; 1159 :       if ( web.modeltype == QUADRATIC )

	mov	eax, DWORD PTR _web+628
	add	esp, 8
	mov	DWORD PTR tv1936[ebp], ecx
	cmp	eax, 2
	jne	SHORT $LN114@plain_edge

; 1160 :       { gdata[2].x[i] = verts[2][i];

	mov	edx, DWORD PTR _verts$[ebp]
	mov	eax, DWORD PTR [edx+8]
	fld	QWORD PTR [eax+esi*8]

; 1161 :         gdata[2].v_id = get_edge_midv(e_id);

	mov	edx, DWORD PTR tv1898[ebp]
	fstp	QWORD PTR [ebx]
	mov	ecx, DWORD PTR _web+124
	mov	eax, DWORD PTR [edx+ecx]
	mov	edx, DWORD PTR _dymem
	mov	ecx, DWORD PTR _web+216
	mov	ecx, DWORD PTR [ecx+edx+304]
	mov	edx, DWORD PTR [eax+ecx+8]
	mov	DWORD PTR [edi+420], edx
	jmp	$LN116@plain_edge
$LN114@plain_edge:

; 1162 :       }
; 1163 :       else if ( web.modeltype == LAGRANGE )

	cmp	eax, 3
	jne	$LN116@plain_edge

; 1164 :       { vertex_id *v = get_edge_vertices(e_id);

	mov	ecx, DWORD PTR tv1898[ebp]
	mov	eax, DWORD PTR _web+124
	mov	eax, DWORD PTR [ecx+eax]
	mov	ecx, DWORD PTR _dymem
	mov	edx, DWORD PTR _web+216
	add	eax, DWORD PTR [edx+ecx+304]

; 1165 :         for ( k = 0 ; k < ctrlpts ; k++ )

	xor	ecx, ecx
	cmp	DWORD PTR _ctrlpts$[ebp], 4
	mov	DWORD PTR _v$90231[ebp], eax
	jl	$LN196@plain_edge

; 1164 :       { vertex_id *v = get_edge_vertices(e_id);

	mov	edx, DWORD PTR tv1936[ebp]
	mov	edi, DWORD PTR _verts$[ebp]
	mov	ecx, ebx

; 1167 :           gdata[k].v_id = v[k];

	mov	ebx, DWORD PTR _verts$[ebp]
	sub	ebx, DWORD PTR _v$90231[ebp]
	add	edi, 12					; 0000000cH
	mov	DWORD PTR tv3185[ebp], ebx
	mov	ebx, DWORD PTR _ctrlpts$[ebp]
	add	ebx, -4					; fffffffcH
	shr	ebx, 2
	inc	ebx
	mov	DWORD PTR tv1473[ebp], ebx
	add	ebx, ebx
	add	eax, 4
	add	ebx, ebx
	mov	DWORD PTR _k$[ebp], ebx
$LL180@plain_edge:

; 1166 :         { gdata[k].x[i] = verts[k][i];

	mov	ebx, DWORD PTR [edi-12]
	fld	QWORD PTR [ebx+esi*8]

; 1167 :           gdata[k].v_id = v[k];

	add	ecx, 576				; 00000240H
	fstp	QWORD PTR [ecx-864]
	mov	ebx, DWORD PTR [eax-4]
	mov	DWORD PTR [edx-144], ebx
	mov	ebx, DWORD PTR tv3185[ebp]
	mov	ebx, DWORD PTR [eax+ebx]
	fld	QWORD PTR [ebx+esi*8]
	add	eax, 16					; 00000010H
	fstp	QWORD PTR [ecx-720]
	mov	ebx, DWORD PTR [eax-16]
	mov	DWORD PTR [edx], ebx
	mov	ebx, DWORD PTR [edi-4]
	fld	QWORD PTR [ebx+esi*8]
	add	edi, 16					; 00000010H
	fstp	QWORD PTR [ecx-576]
	mov	ebx, DWORD PTR [eax-12]
	mov	DWORD PTR [edx+144], ebx
	mov	ebx, DWORD PTR [edi-16]
	fld	QWORD PTR [ebx+esi*8]
	add	edx, 576				; 00000240H
	dec	DWORD PTR tv1473[ebp]
	fstp	QWORD PTR [ecx-432]
	mov	ebx, DWORD PTR [eax-8]
	mov	DWORD PTR [edx-288], ebx
	jne	SHORT $LL180@plain_edge

; 1164 :       { vertex_id *v = get_edge_vertices(e_id);

	mov	eax, DWORD PTR _v$90231[ebp]
	mov	ecx, DWORD PTR _k$[ebp]
	mov	edi, DWORD PTR _gdata$[ebp]
$LN196@plain_edge:

; 1165 :         for ( k = 0 ; k < ctrlpts ; k++ )

	cmp	ecx, DWORD PTR _ctrlpts$[ebp]
	jge	SHORT $LN116@plain_edge
	mov	ebx, DWORD PTR _verts$[ebp]
	sub	ebx, DWORD PTR _v$90231[ebp]
	lea	edx, DWORD PTR [eax+ecx*4]
	lea	eax, DWORD PTR [ecx+ecx*8]
	add	eax, eax
	lea	eax, DWORD PTR [edi+eax*8+132]
	mov	DWORD PTR tv3143[ebp], eax
	lea	eax, DWORD PTR [ecx+ecx*8]
	lea	eax, DWORD PTR [esi+eax*2]
	lea	eax, DWORD PTR [edi+eax*8]
	mov	DWORD PTR tv3154[ebp], eax
	mov	eax, DWORD PTR _ctrlpts$[ebp]
	sub	eax, ecx
	mov	ecx, DWORD PTR tv3143[ebp]
	mov	DWORD PTR tv3185[ebp], ebx
	jmp	SHORT $LC111@plain_edge
$LL195@plain_edge:
	mov	ebx, DWORD PTR tv3185[ebp]
$LC111@plain_edge:

; 1166 :         { gdata[k].x[i] = verts[k][i];

	mov	ebx, DWORD PTR [ebx+edx]
	fld	QWORD PTR [ebx+esi*8]
	mov	ebx, DWORD PTR tv3154[ebp]
	add	DWORD PTR tv3154[ebp], 144		; 00000090H
	fstp	QWORD PTR [ebx]

; 1167 :           gdata[k].v_id = v[k];

	mov	ebx, DWORD PTR [edx]
	mov	DWORD PTR [ecx], ebx
	add	edx, 4
	add	ecx, 144				; 00000090H
	dec	eax
	jne	SHORT $LL195@plain_edge
$LN116@plain_edge:

; 1154 :     for ( i = 0 ; i < SDIM ; i++ )

	inc	esi
	cmp	esi, DWORD PTR _web+616
	jl	$LL117@plain_edge
	mov	ebx, DWORD PTR _e_id$[ebp]
$LN198@plain_edge:

; 1168 :         }
; 1169 :       }
; 1170 :     }
; 1171 :     gdata[0].color = gdata[0].ecolor = get_edge_color_2(e_id);

	push	ebx
	call	_get_edge_color_2
	add	esp, 4
	mov	DWORD PTR [edi+120], eax
	mov	DWORD PTR [edi+104], eax

; 1172 :     gdata[0].id = e_id;

	mov	DWORD PTR [edi+128], ebx

; 1173 :     if ( inverted(e_id) ) gdata[i].etype |= LABEL_REVERSED;

	test	ebx, 134217728				; 08000000H
	je	SHORT $LN108@plain_edge
	lea	ecx, DWORD PTR [esi+esi*8]
	add	ecx, ecx
	lea	eax, DWORD PTR [edi+ecx*8+124]
	mov	edx, 16384				; 00004000H
	or	WORD PTR [eax], dx
$LN108@plain_edge:

; 1174 : 
; 1175 :     /* call device-specific routine */
; 1176 :     if ( web.modeltype == LINEAR )

	mov	eax, DWORD PTR _web+628
	cmp	eax, 1
	jne	$LN107@plain_edge

; 1177 :     { gdata[0].flags |= LABEL_EDGE|LABEL_HEAD|LABEL_TAIL;

	or	DWORD PTR [edi+136], 7168		; 00001c00H

; 1178 :       if ( web.torus_flag && (torus_display_mode == TORUS_CLIPPED_MODE) ) 

	cmp	DWORD PTR _web+860, 0
	mov	eax, DWORD PTR [edi+136]
	je	SHORT $LN106@plain_edge
	cmp	DWORD PTR _torus_display_mode, 3
	jne	SHORT $LN106@plain_edge

; 1179 :         torus_edge_clip(gdata,0);

	push	0
	push	edi
	call	_torus_edge_clip
	add	esp, 8
	jmp	$LN124@plain_edge
$LN106@plain_edge:

; 1180 :       else if ( spherical_arc_flag )

	cmp	DWORD PTR _spherical_arc_flag, 0
	je	SHORT $LN104@plain_edge

; 1181 :       { if ( graph_capabilities & GS_ARCS )

	test	BYTE PTR _graph_capabilities, 2
	je	SHORT $LN103@plain_edge

; 1182 :         { gdata[0].flags |= SPHERE_ARC;

	or	eax, 65536				; 00010000H
	mov	DWORD PTR [edi+136], eax
$LN104@plain_edge:

; 1183 :           (*graph_edge_transforms)(gdata,e_id);

	push	ebx
	push	edi
	call	_graph_edge_transforms
	add	esp, 8

; 1184 :         }
; 1185 :         else  /* do by hand */

	jmp	$LN124@plain_edge
$LN103@plain_edge:

; 1186 :         { REAL rr = SDIM_dot(gdata[0].x,gdata[0].x);

	mov	eax, DWORD PTR _web+616
	push	eax
	push	edi
	push	edi
	call	_dot
	fstp	QWORD PTR _rr$90247[ebp]

; 1187 :           REAL base[MAXCOORD];
; 1188 :           REAL perp[MAXCOORD];
; 1189 :           REAL ab = SDIM_dot(gdata[0].x,gdata[1].x);

	mov	ecx, DWORD PTR _web+616
	push	ecx
	lea	eax, DWORD PTR [edi+144]
	push	eax
	push	edi
	call	_dot
	fst	QWORD PTR _ab$90250[ebp]

; 1190 :           REAL angle,dangle;
; 1191 :           int n;
; 1192 :           if ( ab >= rr )

	fld	QWORD PTR _rr$90247[ebp]
	add	esp, 24					; 00000018H
	fcom	ST(1)
	fnstsw	ax
	test	ah, 65					; 00000041H
	jnp	$LN209@plain_edge

; 1196 :             return;
; 1197 :           }
; 1198 :           for ( i = 0 ; i < SDIM ; i++ ) 

	mov	esi, DWORD PTR _web+616
	test	esi, esi
	jle	SHORT $LN98@plain_edge
	fld	ST(1)
	fmulp	ST(2), ST(0)
	fdiv	ST(1), ST(0)
	fdivp	ST(1), ST(0)
	fld1
	fsubrp	ST(1), ST(0)
	call	__CIsqrt

; 1200 :             perp[i] = 1/sqrt(1-ab*ab/rr/rr)*(gdata[1].x[i] - ab/rr*gdata[0].x[i]);

	fld1
	fdivrp	ST(1), ST(0)
	lea	ecx, DWORD PTR _base$90248[ebp]
	lea	edx, DWORD PTR _perp$90249[ebp]
	sub	ecx, edi
	mov	eax, edi
	sub	edx, edi
	fld	QWORD PTR _ab$90250[ebp]
	fld	ST(0)
	fld	QWORD PTR _rr$90247[ebp]
	fdiv	ST(1), ST(0)
$LN100@plain_edge:

; 1196 :             return;
; 1197 :           }
; 1198 :           for ( i = 0 ; i < SDIM ; i++ ) 

	fld	QWORD PTR [eax]
	add	eax, 8
	dec	esi

; 1199 :           { base[i] = gdata[0].x[i];

	fstp	QWORD PTR [ecx+eax-8]

; 1200 :             perp[i] = 1/sqrt(1-ab*ab/rr/rr)*(gdata[1].x[i] - ab/rr*gdata[0].x[i]);

	fld	QWORD PTR [eax-8]
	fmul	ST(0), ST(2)
	fsubr	QWORD PTR [eax+136]
	fmul	ST(0), ST(4)
	fstp	QWORD PTR [edx+eax-8]
	jne	SHORT $LN100@plain_edge

; 1196 :             return;
; 1197 :           }
; 1198 :           for ( i = 0 ; i < SDIM ; i++ ) 

	fstp	ST(3)
	fstp	ST(0)
	fxch	ST(1)
$LN98@plain_edge:

; 1201 :           }
; 1202 :           angle = acos(ab/rr);

	fdivp	ST(1), ST(0)
	call	__CIacos
	fst	QWORD PTR _angle$90251[ebp]

; 1203 :           dangle = M_PI/40;
; 1204 :           segs = (int)ceil(angle/dangle);

	fdiv	QWORD PTR __real@3fb41b2f769cf0e0
	sub	esp, 8
	fstp	QWORD PTR [esp]
	call	_ceil
	add	esp, 8
	call	__ftol2_sse
	mov	DWORD PTR _segs$[ebp], eax

; 1205 :           dangle = angle/segs;

	fild	DWORD PTR _segs$[ebp]

; 1206 :           for ( n = 0 ; n < segs ; n++ )

	xor	ebx, ebx
	fdivr	QWORD PTR _angle$90251[ebp]
	fstp	QWORD PTR _dangle$90252[ebp]
	test	eax, eax
	jle	$LN124@plain_edge
	npad	6
$LL190@plain_edge:

; 1207 :           { if ( n > 0 ) 

	test	ebx, ebx
	jle	SHORT $LN188@plain_edge

; 1208 :               for ( i = 0 ; i < SDIM ; i++ )

	xor	eax, eax
	cmp	DWORD PTR _web+616, eax
	jle	SHORT $LN188@plain_edge
	npad	2
$LL93@plain_edge:

; 1209 :                 gdata[0].x[i] = gdata[1].x[i];

	fld	QWORD PTR [edi+eax*8+144]
	inc	eax
	fstp	QWORD PTR [edi+eax*8-8]
	cmp	eax, DWORD PTR _web+616
	jl	SHORT $LL93@plain_edge
$LN188@plain_edge:

; 1210 :             for ( i = 0 ; i < SDIM ; i++ )

	xor	esi, esi
	cmp	DWORD PTR _web+616, esi
	jle	SHORT $LN88@plain_edge
	lea	edx, DWORD PTR [ebx+1]
	mov	DWORD PTR tv5561[ebp], edx
	fild	DWORD PTR tv5561[ebp]
	fmul	QWORD PTR _dangle$90252[ebp]
	fst	QWORD PTR tv2098[ebp]
	call	__CIsin

; 1211 :                 gdata[1].x[i] = cos((n+1)*dangle)*base[i] + sin((n+1)*dangle)*perp[i];

	fstp	QWORD PTR tv2099[ebp]
	fld	QWORD PTR tv2098[ebp]
	call	__CIcos
	fld	QWORD PTR tv2099[ebp]
	lea	eax, DWORD PTR [edi+144]
$LN90@plain_edge:
	fld	QWORD PTR _base$90248[ebp+esi*8]
	inc	esi
	fmul	ST(0), ST(2)
	add	eax, 8
	fld	QWORD PTR _perp$90249[ebp+esi*8-8]
	fmul	ST(0), ST(2)
	faddp	ST(1), ST(0)
	fstp	QWORD PTR [eax-8]
	cmp	esi, DWORD PTR _web+616
	jl	SHORT $LN90@plain_edge

; 1210 :             for ( i = 0 ; i < SDIM ; i++ )

	fstp	ST(1)
	fstp	ST(0)
$LN88@plain_edge:

; 1212 :             (*graph_edge_transforms)(gdata,e_id);

	mov	eax, DWORD PTR _e_id$[ebp]
	push	eax
	push	edi
	call	_graph_edge_transforms
	inc	ebx
	add	esp, 8
	cmp	ebx, DWORD PTR _segs$[ebp]
	jl	$LL190@plain_edge

; 1215 :       }
; 1216 :       else

	jmp	$LN124@plain_edge
$LN107@plain_edge:

; 1217 :         (*graph_edge_transforms)(gdata,e_id);
; 1218 :     }
; 1219 :     else if ( (web.modeltype == QUADRATIC) && circular_arc_flag ) 

	cmp	eax, 2
	jne	$LN47@plain_edge

; 1220 :     { /* arc, so plot in segments, unless have circular arc mode */
; 1221 :       REAL headx[MAXCOORD];
; 1222 :       REAL tailx[MAXCOORD];
; 1223 :       REAL midx[MAXCOORD];
; 1224 :       REAL w1[MAXCOORD],mag1;
; 1225 :       REAL w2[MAXCOORD],mag2;
; 1226 :       REAL w[MAXCOORD],mag;
; 1227 :       REAL xx[MAXCOORD];
; 1228 :       for (i = 0 ; i < SDIM ; i++ ) 

	mov	edx, DWORD PTR _web+616
	xor	eax, eax
	cmp	DWORD PTR _circular_arc_flag, eax
	je	$LN187@plain_edge
	test	edx, edx
	jle	SHORT $LN205@plain_edge

; 1213 :           }
; 1214 :         }  

	lea	ecx, DWORD PTR [edi+144]
	npad	5
$LL84@plain_edge:

; 1229 :       { headx[i] = gdata[2].x[i]; 

	fld	QWORD PTR [ecx+144]
	inc	eax
	fst	QWORD PTR _headx$90277[ebp+eax*8-8]
	add	ecx, 8

; 1230 :         tailx[i] = gdata[0].x[i];

	fld	QWORD PTR [ecx-152]
	fst	QWORD PTR _tailx$90278[ebp+eax*8-8]

; 1231 :         midx[i] = gdata[1].x[i];

	fld	QWORD PTR [ecx-8]
	fst	QWORD PTR _midx$90279[ebp+eax*8-8]

; 1232 :         w1[i] = midx[i] - tailx[i];

	fsub	ST(0), ST(1)
	fstp	QWORD PTR _w1$90280[ebp+eax*8-8]

; 1233 :         w2[i] = headx[i] - tailx[i];

	fsubp	ST(1), ST(0)
	fstp	QWORD PTR _w2$90282[ebp+eax*8-8]
	cmp	eax, edx
	jl	SHORT $LL84@plain_edge
$LN205@plain_edge:

; 1234 :       }
; 1235 :       mag1 = SDIM_dot(w1,w1); mag2 = SDIM_dot(w2,w2);

	push	edx
	lea	ecx, DWORD PTR _w1$90280[ebp]
	push	ecx
	mov	edx, ecx
	push	edx
	call	_dot
	fstp	QWORD PTR _mag1$90281[ebp]
	mov	eax, DWORD PTR _web+616
	push	eax
	lea	ecx, DWORD PTR _w2$90282[ebp]
	push	ecx
	mov	edx, ecx
	push	edx
	call	_dot
	fst	QWORD PTR _mag2$90283[ebp]
	add	esp, 24					; 00000018H

; 1236 :       if ( graph_capabilities & GC_ARCS )

	test	BYTE PTR _graph_capabilities, 1
	je	SHORT $LN81@plain_edge

; 1237 :       { gdata[0].flags |= EDGE_ARC;

	or	DWORD PTR [edi+136], 32768		; 00008000H
	fstp	ST(0)

; 1238 :         if ( web.torus_flag && (torus_display_mode == TORUS_CLIPPED_MODE)) 

	cmp	DWORD PTR _web+860, 0
	je	$LN104@plain_edge
	cmp	DWORD PTR _torus_display_mode, 3
	jne	$LN104@plain_edge

; 1239 :            torus_edge_clip(gdata,0);

	push	0
	push	edi
	call	_torus_edge_clip
	add	esp, 8
	jmp	$LN124@plain_edge
$LN81@plain_edge:

; 1240 :         else (*graph_edge_transforms)(gdata,e_id);
; 1241 :       }
; 1242 :       else
; 1243 :       { int segments;
; 1244 :         REAL ang;
; 1245 :         
; 1246 :         for ( i = 0 ; i < SDIM  ; i++ )

	mov	edx, DWORD PTR _web+616
	fld	QWORD PTR _mag1$90281[ebp]
	xor	eax, eax
	cmp	edx, 4
	jl	SHORT $LC182@plain_edge
	lea	ecx, DWORD PTR [edx-3]
$LN183@plain_edge:

; 1247 :         { w1[i] /= mag1; w2[i] /= mag2; }

	fld	QWORD PTR _w1$90280[ebp+eax*8]
	add	eax, 4
	fdiv	ST(0), ST(1)
	fstp	QWORD PTR _w1$90280[ebp+eax*8-32]
	fld	QWORD PTR _w2$90282[ebp+eax*8-32]
	fdiv	ST(0), ST(2)
	fstp	QWORD PTR _w2$90282[ebp+eax*8-32]
	fld	QWORD PTR _w1$90280[ebp+eax*8-24]
	fdiv	ST(0), ST(1)
	fstp	QWORD PTR _w1$90280[ebp+eax*8-24]
	fld	QWORD PTR _w2$90282[ebp+eax*8-24]
	fdiv	ST(0), ST(2)
	fstp	QWORD PTR _w2$90282[ebp+eax*8-24]
	fld	QWORD PTR _w1$90280[ebp+eax*8-16]
	fdiv	ST(0), ST(1)
	fstp	QWORD PTR _w1$90280[ebp+eax*8-16]
	fld	QWORD PTR _w2$90282[ebp+eax*8-16]
	fdiv	ST(0), ST(2)
	fstp	QWORD PTR _w2$90282[ebp+eax*8-16]
	fld	QWORD PTR _w1$90280[ebp+eax*8-8]
	fdiv	ST(0), ST(1)
	fstp	QWORD PTR _w1$90280[ebp+eax*8-8]
	fld	QWORD PTR _w2$90282[ebp+eax*8-8]
	fdiv	ST(0), ST(2)
	fstp	QWORD PTR _w2$90282[ebp+eax*8-8]
	cmp	eax, ecx
	jl	SHORT $LN183@plain_edge
$LC182@plain_edge:

; 1240 :         else (*graph_edge_transforms)(gdata,e_id);
; 1241 :       }
; 1242 :       else
; 1243 :       { int segments;
; 1244 :         REAL ang;
; 1245 :         
; 1246 :         for ( i = 0 ; i < SDIM  ; i++ )

	cmp	eax, edx
	jge	SHORT $LN230@plain_edge
$LC77@plain_edge:

; 1247 :         { w1[i] /= mag1; w2[i] /= mag2; }

	fld	QWORD PTR _w1$90280[ebp+eax*8]
	inc	eax
	fdiv	ST(0), ST(1)
	fstp	QWORD PTR _w1$90280[ebp+eax*8-8]
	fld	QWORD PTR _w2$90282[ebp+eax*8-8]
	fdiv	ST(0), ST(2)
	fstp	QWORD PTR _w2$90282[ebp+eax*8-8]
	cmp	eax, edx
	jl	SHORT $LC77@plain_edge
$LN230@plain_edge:

; 1240 :         else (*graph_edge_transforms)(gdata,e_id);
; 1241 :       }
; 1242 :       else
; 1243 :       { int segments;
; 1244 :         REAL ang;
; 1245 :         
; 1246 :         for ( i = 0 ; i < SDIM  ; i++ )

	fstp	ST(1)

; 1248 :         for ( i = 0 ; i < SDIM ; i++ ) gdata[0].x[i] = tailx[i];

	xor	ecx, ecx
	fstp	ST(0)
	test	edx, edx
	jle	SHORT $LN72@plain_edge
	lea	esi, DWORD PTR _tailx$90278[ebp]
	mov	eax, edi
	sub	esi, edi
$LL74@plain_edge:
	fld	QWORD PTR [esi+eax]
	inc	ecx
	fstp	QWORD PTR [eax]
	mov	edx, DWORD PTR _web+616
	add	eax, 8
	cmp	ecx, edx
	jl	SHORT $LL74@plain_edge
$LN72@plain_edge:

; 1249 : 
; 1250 :         /* figure out how many segments to do */
; 1251 :         ang = 4*acos(SDIM_dot(w1,w2)*sqrt(mag1*mag2));

	push	edx
	lea	eax, DWORD PTR _w2$90282[ebp]
	push	eax
	lea	ecx, DWORD PTR _w1$90280[ebp]
	push	ecx
	call	_dot
	fstp	QWORD PTR tv5304[ebp]
	fld	QWORD PTR _mag2$90283[ebp]
	add	esp, 12					; 0000000cH
	fmul	QWORD PTR _mag1$90281[ebp]
	call	__CIsqrt
	fmul	QWORD PTR tv5304[ebp]
	call	__CIacos
	fmul	QWORD PTR __real@4010000000000000

; 1252 :         segments = (int)(ang/(M_PI/180*string_curve_tolerance));

	fld	QWORD PTR _string_curve_tolerance
	fmul	QWORD PTR __real@3f91df46a2529d39
	fdivp	ST(1), ST(0)
	call	__ftol2_sse
	mov	DWORD PTR _segments$90294[ebp], eax

; 1253 :         if ( segments < 2 ) 

	cmp	eax, 2
	jge	SHORT $LN71@plain_edge

; 1254 :             segments = 2;

	mov	DWORD PTR _segments$90294[ebp], 2
$LN71@plain_edge:

; 1255 : 
; 1256 :         gdata[1].v_id = NULLID;
; 1257 :         for ( k = 1 ; k <= segments ; k++ )

	mov	ebx, 1
	mov	DWORD PTR [edi+276], 0
	mov	DWORD PTR _k$[ebp], ebx
	cmp	DWORD PTR _segments$90294[ebp], ebx
	jl	$LN124@plain_edge
	mov	eax, DWORD PTR _segments$90294[ebp]
	cdq
	sub	eax, edx
	mov	edx, DWORD PTR _web+616
	sar	eax, 1
	mov	DWORD PTR tv2185[ebp], eax
$LL70@plain_edge:

; 1258 :         { if ( k == segments/2 )

	cmp	ebx, DWORD PTR tv2185[ebp]
	jne	SHORT $LN67@plain_edge

; 1259 :             gdata[0].v_id = get_edge_midv(e_id);

	mov	edx, DWORD PTR _web+124
	mov	eax, DWORD PTR tv1898[ebp]
	mov	ecx, DWORD PTR [eax+edx]
	mov	eax, DWORD PTR _dymem
	mov	edx, DWORD PTR _web+216
	mov	edx, DWORD PTR [edx+eax+304]
	mov	eax, DWORD PTR [ecx+edx+8]
	mov	DWORD PTR [edi+132], eax
	jmp	SHORT $LN257@plain_edge
$LN67@plain_edge:

; 1260 :           else if ( k > 1 )

	cmp	ebx, 1
	jle	SHORT $LN203@plain_edge

; 1261 :             gdata[0].v_id = NULLID;

	mov	DWORD PTR [edi+132], 0
$LN257@plain_edge:
	mov	edx, DWORD PTR _web+616
$LN203@plain_edge:

; 1262 :           if ( k == segments )

	mov	esi, DWORD PTR _segments$90294[ebp]
	cmp	ebx, esi
	jne	SHORT $LN204@plain_edge

; 1263 :             gdata[1].v_id = get_edge_headv(e_id);

	mov	ecx, DWORD PTR _e_id$[ebp]
	push	ecx
	call	_get_edge_headv
	mov	DWORD PTR [edi+276], eax
	mov	edx, DWORD PTR _web+616
	add	esp, 4
$LN204@plain_edge:

; 1264 : 
; 1265 :           for ( i = 0 ; i < SDIM ; i++ )

	xor	eax, eax
	cmp	edx, 4
	jl	$LC185@plain_edge
	mov	ecx, esi
	sub	ecx, ebx

; 1266 :              w[i] = w2[i] + (segments-k)/(REAL)k*(w1[i]-w2[i]);

	mov	DWORD PTR tv5490[ebp], ecx
	fild	DWORD PTR tv5490[ebp]
	lea	ecx, DWORD PTR [edx-3]
	fidiv	DWORD PTR _k$[ebp]
$LN186@plain_edge:
	fld	QWORD PTR _w1$90280[ebp+eax*8]
	add	eax, 4
	fsub	QWORD PTR _w2$90282[ebp+eax*8-32]
	fmul	ST(0), ST(1)
	fadd	QWORD PTR _w2$90282[ebp+eax*8-32]
	fstp	QWORD PTR _w$90284[ebp+eax*8-32]
	fld	QWORD PTR _w1$90280[ebp+eax*8-24]
	fsub	QWORD PTR _w2$90282[ebp+eax*8-24]
	fmul	ST(0), ST(1)
	fadd	QWORD PTR _w2$90282[ebp+eax*8-24]
	fstp	QWORD PTR _w$90284[ebp+eax*8-24]
	fld	QWORD PTR _w1$90280[ebp+eax*8-16]
	fsub	QWORD PTR _w2$90282[ebp+eax*8-16]
	fmul	ST(0), ST(1)
	fadd	QWORD PTR _w2$90282[ebp+eax*8-16]
	fstp	QWORD PTR _w$90284[ebp+eax*8-16]
	fld	QWORD PTR _w1$90280[ebp+eax*8-8]
	fsub	QWORD PTR _w2$90282[ebp+eax*8-8]
	fmul	ST(0), ST(1)
	fadd	QWORD PTR _w2$90282[ebp+eax*8-8]
	fstp	QWORD PTR _w$90284[ebp+eax*8-8]
	cmp	eax, ecx
	jl	SHORT $LN186@plain_edge
	fstp	ST(0)
$LC185@plain_edge:

; 1264 : 
; 1265 :           for ( i = 0 ; i < SDIM ; i++ )

	cmp	eax, edx
	jge	SHORT $LN184@plain_edge
	mov	ecx, esi
	sub	ecx, ebx
	mov	DWORD PTR tv5477[ebp], ecx
	fild	DWORD PTR tv5477[ebp]
	fidiv	DWORD PTR _k$[ebp]
$LC63@plain_edge:

; 1266 :              w[i] = w2[i] + (segments-k)/(REAL)k*(w1[i]-w2[i]);

	fld	QWORD PTR _w1$90280[ebp+eax*8]
	inc	eax
	fsub	QWORD PTR _w2$90282[ebp+eax*8-8]
	fmul	ST(0), ST(1)
	fadd	QWORD PTR _w2$90282[ebp+eax*8-8]
	fstp	QWORD PTR _w$90284[ebp+eax*8-8]
	cmp	eax, edx
	jl	SHORT $LC63@plain_edge

; 1264 : 
; 1265 :           for ( i = 0 ; i < SDIM ; i++ )

	fstp	ST(0)
$LN184@plain_edge:

; 1267 :           mag = SDIM_dot(w,w);

	push	edx
	lea	edx, DWORD PTR _w$90284[ebp]
	push	edx
	mov	eax, edx
	push	eax
	call	_dot

; 1268 :           for ( i = 0 ; i < SDIM ; i++ )

	xor	eax, eax
	add	esp, 12					; 0000000cH
	cmp	DWORD PTR _web+616, eax
	jle	SHORT $LN239@plain_edge

; 1267 :           mag = SDIM_dot(w,w);

	lea	ecx, DWORD PTR [edi+144]
$LN60@plain_edge:

; 1269 :             gdata[1].x[i] = xx[i] = tailx[i] + w[i]/mag;

	fld	QWORD PTR _w$90284[ebp+eax*8]
	inc	eax
	fdiv	ST(0), ST(1)
	add	ecx, 8
	fadd	QWORD PTR _tailx$90278[ebp+eax*8-8]
	fst	QWORD PTR _xx$90286[ebp+eax*8-8]
	fstp	QWORD PTR [ecx-8]
	cmp	eax, DWORD PTR _web+616
	jl	SHORT $LN60@plain_edge
$LN239@plain_edge:

; 1270 :           
; 1271 :           if ( labelflag )

	cmp	DWORD PTR _labelflag, 0
	fstp	ST(0)
	je	SHORT $LN54@plain_edge

; 1272 :           { gdata[0].flags &= ~(LABEL_EDGE|LABEL_HEAD|LABEL_TAIL);

	and	DWORD PTR [edi+136], -7169		; ffffe3ffH
	mov	eax, DWORD PTR [edi+136]

; 1273 :             if ( k == 1 ) gdata[0].flags |= LABEL_TAIL;

	cmp	ebx, 1
	jne	SHORT $LN56@plain_edge
	or	eax, 4096				; 00001000H
	mov	DWORD PTR [edi+136], eax
$LN56@plain_edge:

; 1274 :             if ( k == segments/2 ) gdata[0].flags |= LABEL_EDGE;

	cmp	ebx, DWORD PTR tv2185[ebp]
	jne	SHORT $LN55@plain_edge
	or	DWORD PTR [edi+136], 1024		; 00000400H
$LN55@plain_edge:

; 1275 :             if ( k == segments ) gdata[0].flags |= LABEL_HEAD;

	cmp	ebx, esi
	jne	SHORT $LN54@plain_edge
	or	DWORD PTR [edi+136], 2048		; 00000800H
$LN54@plain_edge:

; 1276 :           }
; 1277 :           if ( web.torus_flag && (torus_display_mode == TORUS_CLIPPED_MODE)) 

	cmp	DWORD PTR _web+860, 0
	je	SHORT $LN53@plain_edge
	cmp	DWORD PTR _torus_display_mode, 3
	jne	SHORT $LN53@plain_edge

; 1278 :              torus_edge_clip(gdata,0);

	push	0
	push	edi
	call	_torus_edge_clip
	jmp	SHORT $LN258@plain_edge
$LN53@plain_edge:

; 1279 :           else (*graph_edge_transforms)(gdata,e_id);

	mov	ecx, DWORD PTR _e_id$[ebp]
	push	ecx
	push	edi
	call	_graph_edge_transforms
$LN258@plain_edge:

; 1280 :           for ( i = 0 ; i < SDIM ; i++ )  /* gdata[1].x was messed up by clip */

	mov	edx, DWORD PTR _web+616
	add	esp, 8
	xor	ecx, ecx
	test	edx, edx
	jle	SHORT $LN69@plain_edge
	lea	esi, DWORD PTR _xx$90286[ebp]
	mov	eax, edi
	sub	esi, edi
	npad	2
$LL51@plain_edge:

; 1281 :              gdata[0].x[i] = xx[i];

	fld	QWORD PTR [esi+eax]
	inc	ecx
	fstp	QWORD PTR [eax]
	mov	edx, DWORD PTR _web+616
	add	eax, 8
	cmp	ecx, edx
	jl	SHORT $LL51@plain_edge
$LN69@plain_edge:

; 1255 : 
; 1256 :         gdata[1].v_id = NULLID;
; 1257 :         for ( k = 1 ; k <= segments ; k++ )

	inc	ebx
	mov	DWORD PTR _k$[ebp], ebx
	cmp	ebx, DWORD PTR _segments$90294[ebp]
	jle	$LL70@plain_edge

; 1282 :         }
; 1283 :       }

	jmp	$LN124@plain_edge
$LN187@plain_edge:

; 1285 :     else if ( web.modeltype == QUADRATIC ) /* quadratic, so plot in segments */
; 1286 :       { REAL headx[MAXCOORD];
; 1287 :         REAL tailx[MAXCOORD];
; 1288 :         REAL midx[MAXCOORD];
; 1289 :         REAL w1[MAXCOORD],w2[MAXCOORD],mag1,mag2,ang;
; 1290 :         
; 1291 :         for ( i = 0 ; i < SDIM ; i++ ) 

	test	edx, edx
	jle	SHORT $LN206@plain_edge

; 1284 :     }

	lea	ecx, DWORD PTR [edi+144]
	npad	11
$LL46@plain_edge:

; 1292 :         { headx[i] = gdata[2].x[i]; tailx[i] = gdata[0].x[i];

	fld	QWORD PTR [ecx+144]
	inc	eax
	fst	QWORD PTR _headx$90333[ebp+eax*8-8]
	add	ecx, 8
	fld	QWORD PTR [ecx-152]
	fst	QWORD PTR _tailx$90334[ebp+eax*8-8]

; 1293 :           midx[i] = gdata[1].x[i];

	fld	QWORD PTR [ecx-8]
	fst	QWORD PTR _midx$90335[ebp+eax*8-8]

; 1294 :           w1[i] = midx[i] - tailx[i];

	fsub	ST(0), ST(1)
	fstp	QWORD PTR _w1$90336[ebp+eax*8-8]

; 1295 :           w2[i] = headx[i] - tailx[i];

	fsubp	ST(1), ST(0)
	fstp	QWORD PTR _w2$90337[ebp+eax*8-8]
	cmp	eax, edx
	jl	SHORT $LL46@plain_edge
$LN206@plain_edge:

; 1296 :         }
; 1297 :         /* figure out how many segments to do */
; 1298 :         mag1 = SDIM_dot(w1,w1); mag2 = SDIM_dot(w2,w2);

	push	edx
	lea	edx, DWORD PTR _w1$90336[ebp]
	push	edx
	mov	eax, edx
	push	eax
	call	_dot
	fstp	QWORD PTR _mag1$90338[ebp]
	mov	ecx, DWORD PTR _web+616
	push	ecx
	lea	edx, DWORD PTR _w2$90337[ebp]
	push	edx
	mov	eax, edx
	push	eax
	call	_dot
	fstp	QWORD PTR _mag2$90339[ebp]

; 1299 :         ang = 4*acos(SDIM_dot(w1,w2)/sqrt(mag1*mag2));

	mov	ecx, DWORD PTR _web+616
	push	ecx
	lea	edx, DWORD PTR _w2$90337[ebp]
	push	edx
	lea	eax, DWORD PTR _w1$90336[ebp]
	push	eax
	call	_dot
	fstp	QWORD PTR tv5306[ebp]
	fld	QWORD PTR _mag2$90339[ebp]
	add	esp, 36					; 00000024H
	fmul	QWORD PTR _mag1$90338[ebp]
	call	__CIsqrt
	fdivr	QWORD PTR tv5306[ebp]
	call	__CIacos
	fmul	QWORD PTR __real@4010000000000000

; 1300 :         segs = (int)(ang/(M_PI/180*string_curve_tolerance));

	fld	QWORD PTR _string_curve_tolerance
	fmul	QWORD PTR __real@3f91df46a2529d39
	fdivp	ST(1), ST(0)
	call	__ftol2_sse
	mov	DWORD PTR _segs$[ebp], eax

; 1301 :         if ( segs < 2 ) 

	cmp	eax, 2
	jge	SHORT $LN43@plain_edge

; 1302 :             segs = 2;

	mov	eax, 2
	mov	DWORD PTR _segs$[ebp], eax
$LN43@plain_edge:

; 1303 :         for ( k = 1 ; k <= segs ; k++ )

	mov	esi, 1
	mov	DWORD PTR _k$[ebp], esi
	cmp	eax, esi
	jl	$LN124@plain_edge
	mov	ecx, DWORD PTR _web+616
	fld1
	mov	ebx, DWORD PTR _segs$[ebp]
$LN194@plain_edge:

; 1304 :         { for ( i = 0 ; i < SDIM ; i++ )

	xor	eax, eax
	test	ecx, ecx
	jle	SHORT $LN242@plain_edge
	fild	DWORD PTR _k$[ebp]
	lea	ecx, DWORD PTR [edi+144]
	fild	DWORD PTR _segs$[ebp]
	fld	ST(1)
	fadd	ST(0), ST(0)
	fdiv	ST(0), ST(1)
	fsubr	ST(0), ST(3)
	fld	ST(2)
	fdiv	ST(0), ST(2)
	fsub	ST(4), ST(0)
	fld	ST(4)
	fmul	ST(0), ST(2)
	fxch	ST(4)
	fmul	QWORD PTR __real@4010000000000000
	fdivrp	ST(3), ST(0)
	fxch	ST(2)
	fmulp	ST(4), ST(0)
	fmulp	ST(1), ST(0)
$LN39@plain_edge:

; 1305 :             gdata[1].x[i] = (1-k/(REAL)segs)*(1-k*2./segs)*tailx[i]
