; Listing generated by Microsoft (R) Optimizing Compiler Version 16.00.40219.01 

	TITLE	C:\levolver\yonkang-sefit\levolver\ev_ogl\LEXINIT2.C
	.686P
	.XMM
	include listing.inc
	.model	flat

INCLUDELIB LIBCMT
INCLUDELIB OLDNAMES

PUBLIC	_get_fe_edge
EXTRN	_web:BYTE
; Function compile flags: /Ogtp
; File c:\levolver\yonkang-sefit\levolver\ev_ogl\inline.h
;	COMDAT _get_fe_edge
_TEXT	SEGMENT
_fe_id$ = 8						; size = 4
_get_fe_edge PROC					; COMDAT

; 43   : {

	push	ebp
	mov	ebp, esp

; 44   :   edge_id e_id;
; 45   :     
; 46   :   e_id = feptr(fe_id)->fe_edge_id;

	mov	eax, DWORD PTR _fe_id$[ebp]

; 47   : 
; 48   :   /*
; 49   :   if ( inverted(fe_id) ) invert(e_id);
; 50   :   return e_id;
; 51   :   */
; 52   :   
; 53   :   return same_sign(e_id,fe_id);

	mov	edx, DWORD PTR _web+460
	mov	ecx, eax
	and	ecx, 134217727				; 07ffffffH
	mov	ecx, DWORD PTR [edx+ecx*4]
	and	eax, 134217728				; 08000000H
	xor	eax, DWORD PTR [ecx+20]

; 54   : }

	pop	ebp
	ret	0
_get_fe_edge ENDP
_TEXT	ENDS
PUBLIC	_get_fe_facet
EXTRN	_NULLFACET:DWORD
; Function compile flags: /Ogtp
;	COMDAT _get_fe_facet
_TEXT	SEGMENT
_fe_id$ = 8						; size = 4
_get_fe_facet PROC					; COMDAT

; 58   : {

	push	ebp
	mov	ebp, esp

; 59   :   facet_id f_id;
; 60   :   
; 61   :   if ( !valid_id(fe_id) ) return NULLFACET;

	mov	ecx, DWORD PTR _fe_id$[ebp]
	test	ecx, 268435456				; 10000000H
	jne	SHORT $LN2@get_fe_fac
	mov	eax, DWORD PTR _NULLFACET

; 64   :   return f_id;
; 65   : }

	pop	ebp
	ret	0
$LN2@get_fe_fac:

; 62   :   f_id = feptr(fe_id)->fe_facet_id;

	mov	edx, DWORD PTR _web+460
	mov	eax, ecx
	and	eax, 134217727				; 07ffffffH
	mov	eax, DWORD PTR [edx+eax*4]
	mov	eax, DWORD PTR [eax+24]

; 63   :   if ( inverted(fe_id) ) invert(f_id);

	test	ecx, 134217728				; 08000000H
	je	SHORT $LN3@get_fe_fac
	xor	eax, 134217728				; 08000000H
$LN3@get_fe_fac:

; 64   :   return f_id;
; 65   : }

	pop	ebp
	ret	0
_get_fe_facet ENDP
_TEXT	ENDS
PUBLIC	_get_next_edge
; Function compile flags: /Ogtp
;	COMDAT _get_next_edge
_TEXT	SEGMENT
_fe_id$ = 8						; size = 4
_get_next_edge PROC					; COMDAT

; 76   : {

	push	ebp
	mov	ebp, esp

; 77   :   if ( inverted(fe_id) ) return inverse_id(feptr(fe_id)->nextedge[0]);

	mov	eax, DWORD PTR _fe_id$[ebp]
	mov	ecx, DWORD PTR _web+460
	test	eax, 134217728				; 08000000H
	je	SHORT $LN2@get_next_e
	and	eax, 134217727				; 07ffffffH
	mov	edx, DWORD PTR [ecx+eax*4]
	mov	eax, DWORD PTR [edx+28]
	xor	eax, 134217728				; 08000000H

; 79   : }

	pop	ebp
	ret	0
$LN2@get_next_e:

; 78   :   else return feptr(fe_id)->nextedge[1];

	and	eax, 134217727				; 07ffffffH
	mov	edx, DWORD PTR [ecx+eax*4]
	mov	eax, DWORD PTR [edx+32]

; 79   : }

	pop	ebp
	ret	0
_get_next_edge ENDP
_TEXT	ENDS
PUBLIC	_get_prev_facet
; Function compile flags: /Ogtp
;	COMDAT _get_prev_facet
_TEXT	SEGMENT
_fe_id$ = 8						; size = 4
_get_prev_facet PROC					; COMDAT

; 83   : {

	push	ebp
	mov	ebp, esp

; 84   :   if ( inverted(fe_id) ) 

	mov	eax, DWORD PTR _fe_id$[ebp]

; 85   :     return inverse_id(feptr(fe_id)->nextfacet[1]);

	mov	ecx, DWORD PTR _web+460
	test	eax, 134217728				; 08000000H
	je	SHORT $LN2@get_prev_f
	and	eax, 134217727				; 07ffffffH
	mov	edx, DWORD PTR [ecx+eax*4]
	mov	eax, DWORD PTR [edx+40]
	xor	eax, 134217728				; 08000000H

; 88   : }

	pop	ebp
	ret	0
$LN2@get_prev_f:

; 86   :   else 
; 87   :     return feptr(fe_id)->nextfacet[0];

	and	eax, 134217727				; 07ffffffH
	mov	edx, DWORD PTR [ecx+eax*4]
	mov	eax, DWORD PTR [edx+36]

; 88   : }

	pop	ebp
	ret	0
_get_prev_facet ENDP
_TEXT	ENDS
PUBLIC	_get_next_facet
; Function compile flags: /Ogtp
;	COMDAT _get_next_facet
_TEXT	SEGMENT
_fe_id$ = 8						; size = 4
_get_next_facet PROC					; COMDAT

; 92   : {

	push	ebp
	mov	ebp, esp

; 93   :   if ( inverted(fe_id) ) 

	mov	eax, DWORD PTR _fe_id$[ebp]

; 94   :     return inverse_id(feptr(fe_id)->nextfacet[0]);

	mov	ecx, DWORD PTR _web+460
	test	eax, 134217728				; 08000000H
	je	SHORT $LN2@get_next_f
	and	eax, 134217727				; 07ffffffH
	mov	edx, DWORD PTR [ecx+eax*4]
	mov	eax, DWORD PTR [edx+36]
	xor	eax, 134217728				; 08000000H

; 97   : }

	pop	ebp
	ret	0
$LN2@get_next_f:

; 95   :   else 
; 96   :     return feptr(fe_id)->nextfacet[1];

	and	eax, 134217727				; 07ffffffH
	mov	edx, DWORD PTR [ecx+eax*4]
	mov	eax, DWORD PTR [edx+40]

; 97   : }

	pop	ebp
	ret	0
_get_next_facet ENDP
_TEXT	ENDS
PUBLIC	_set_prev_edge
EXTRN	_top_timestamp:DWORD
EXTRN	_global_timestamp:DWORD
; Function compile flags: /Ogtp
;	COMDAT _set_prev_edge
_TEXT	SEGMENT
_fe_id$ = 8						; size = 4
_fe$ = 12						; size = 4
_set_prev_edge PROC					; COMDAT

; 102  : {

	push	ebp
	mov	ebp, esp

; 103  :   if ( !valid_id(fe_id) ) return;

	mov	eax, DWORD PTR _fe_id$[ebp]
	test	eax, 268435456				; 10000000H
	je	SHORT $LN4@set_prev_e

; 104  :   if ( inverted(fe_id) )

	test	eax, 134217728				; 08000000H
	je	SHORT $LN2@set_prev_e

; 105  :     { invert(fe);
; 106  :       feptr(fe_id)->nextedge[1] = fe;

	mov	edx, DWORD PTR _web+460
	mov	ecx, DWORD PTR _fe$[ebp]
	and	eax, 134217727				; 07ffffffH
	mov	eax, DWORD PTR [edx+eax*4]
	xor	ecx, 134217728				; 08000000H
	mov	DWORD PTR [eax+32], ecx

; 110  :   top_timestamp = ++global_timestamp;

	mov	eax, DWORD PTR _global_timestamp
	inc	eax
	mov	DWORD PTR _global_timestamp, eax
	mov	DWORD PTR _top_timestamp, eax

; 111  : }

	pop	ebp
	ret	0
$LN2@set_prev_e:

; 107  :     }
; 108  :   else
; 109  :       feptr(fe_id)->nextedge[0] = fe;

	mov	ecx, DWORD PTR _web+460
	and	eax, 134217727				; 07ffffffH
	mov	edx, DWORD PTR [ecx+eax*4]
	mov	eax, DWORD PTR _fe$[ebp]
	mov	DWORD PTR [edx+28], eax

; 110  :   top_timestamp = ++global_timestamp;

	mov	eax, DWORD PTR _global_timestamp
	inc	eax
	mov	DWORD PTR _global_timestamp, eax
	mov	DWORD PTR _top_timestamp, eax
$LN4@set_prev_e:

; 111  : }

	pop	ebp
	ret	0
_set_prev_edge ENDP
_TEXT	ENDS
PUBLIC	_set_next_edge
; Function compile flags: /Ogtp
;	COMDAT _set_next_edge
_TEXT	SEGMENT
_fe_id$ = 8						; size = 4
_fe$ = 12						; size = 4
_set_next_edge PROC					; COMDAT

; 116  : {

	push	ebp
	mov	ebp, esp

; 117  :   if ( !valid_id(fe_id) ) return;

	mov	eax, DWORD PTR _fe_id$[ebp]
	test	eax, 268435456				; 10000000H
	je	SHORT $LN1@set_next_e

; 118  :   if ( inverted(fe_id) )

	test	eax, 134217728				; 08000000H
	je	SHORT $LN2@set_next_e

; 119  :     { invert(fe);

	mov	ecx, DWORD PTR _fe$[ebp]

; 120  :       feptr(fe_id)->nextedge[0] = fe;

	mov	edx, DWORD PTR _web+460
	xor	ecx, 134217728				; 08000000H
	and	eax, 134217727				; 07ffffffH
	mov	eax, DWORD PTR [edx+eax*4]
	mov	DWORD PTR [eax+28], ecx

; 124  : }

	pop	ebp
	ret	0
$LN2@set_next_e:

; 121  :     }
; 122  :   else
; 123  :       feptr(fe_id)->nextedge[1] = fe;

	mov	ecx, DWORD PTR _web+460
	and	eax, 134217727				; 07ffffffH
	mov	edx, DWORD PTR [ecx+eax*4]
	mov	eax, DWORD PTR _fe$[ebp]
	mov	DWORD PTR [edx+32], eax
$LN1@set_next_e:

; 124  : }

	pop	ebp
	ret	0
_set_next_edge ENDP
_TEXT	ENDS
PUBLIC	_set_prev_facet
; Function compile flags: /Ogtp
;	COMDAT _set_prev_facet
_TEXT	SEGMENT
_fe_id$ = 8						; size = 4
_fe$ = 12						; size = 4
_set_prev_facet PROC					; COMDAT

; 129  : {

	push	ebp
	mov	ebp, esp

; 130  :   if ( !valid_id(fe_id) ) return;

	mov	eax, DWORD PTR _fe_id$[ebp]
	test	eax, 268435456				; 10000000H
	je	SHORT $LN4@set_prev_f

; 131  :   if ( inverted(fe_id) )

	test	eax, 134217728				; 08000000H
	je	SHORT $LN2@set_prev_f

; 132  :   { invert(fe);
; 133  :     feptr(fe_id)->nextfacet[1] = fe;

	mov	edx, DWORD PTR _web+460
	mov	ecx, DWORD PTR _fe$[ebp]
	and	eax, 134217727				; 07ffffffH
	mov	eax, DWORD PTR [edx+eax*4]
	xor	ecx, 134217728				; 08000000H
	mov	DWORD PTR [eax+40], ecx

; 137  :   top_timestamp = ++global_timestamp;

	mov	eax, DWORD PTR _global_timestamp
	inc	eax
	mov	DWORD PTR _global_timestamp, eax
	mov	DWORD PTR _top_timestamp, eax

; 138  : }

	pop	ebp
	ret	0
$LN2@set_prev_f:

; 134  :   }
; 135  :   else
; 136  :     feptr(fe_id)->nextfacet[0] = fe;

	mov	ecx, DWORD PTR _web+460
	and	eax, 134217727				; 07ffffffH
	mov	edx, DWORD PTR [ecx+eax*4]
	mov	eax, DWORD PTR _fe$[ebp]
	mov	DWORD PTR [edx+36], eax

; 137  :   top_timestamp = ++global_timestamp;

	mov	eax, DWORD PTR _global_timestamp
	inc	eax
	mov	DWORD PTR _global_timestamp, eax
	mov	DWORD PTR _top_timestamp, eax
$LN4@set_prev_f:

; 138  : }

	pop	ebp
	ret	0
_set_prev_facet ENDP
_TEXT	ENDS
PUBLIC	_set_next_facet
; Function compile flags: /Ogtp
;	COMDAT _set_next_facet
_TEXT	SEGMENT
_fe_id$ = 8						; size = 4
_fe$ = 12						; size = 4
_set_next_facet PROC					; COMDAT

; 143  : {

	push	ebp
	mov	ebp, esp

; 144  :   if ( !valid_id(fe_id) ) return;

	mov	eax, DWORD PTR _fe_id$[ebp]
	test	eax, 268435456				; 10000000H
	je	SHORT $LN1@set_next_f

; 145  :   if ( inverted(fe_id) )

	test	eax, 134217728				; 08000000H
	je	SHORT $LN2@set_next_f

; 146  :   { invert(fe);

	mov	ecx, DWORD PTR _fe$[ebp]

; 147  :     feptr(fe_id)->nextfacet[0] = fe;

	mov	edx, DWORD PTR _web+460
	xor	ecx, 134217728				; 08000000H
	and	eax, 134217727				; 07ffffffH
	mov	eax, DWORD PTR [edx+eax*4]
	mov	DWORD PTR [eax+36], ecx

; 151  : }

	pop	ebp
	ret	0
$LN2@set_next_f:

; 148  :   }
; 149  :   else
; 150  :     feptr(fe_id)->nextfacet[1] = fe;

	mov	ecx, DWORD PTR _web+460
	and	eax, 134217727				; 07ffffffH
	mov	edx, DWORD PTR [ecx+eax*4]
	mov	eax, DWORD PTR _fe$[ebp]
	mov	DWORD PTR [edx+40], eax
$LN1@set_next_f:

; 151  : }

	pop	ebp
	ret	0
_set_next_facet ENDP
_TEXT	ENDS
PUBLIC	_set_edge_fe
; Function compile flags: /Ogtp
;	COMDAT _set_edge_fe
_TEXT	SEGMENT
_e_id$ = 8						; size = 4
_fe$ = 12						; size = 4
_set_edge_fe PROC					; COMDAT

; 171  : {

	push	ebp
	mov	ebp, esp

; 172  :   if ( inverted(e_id) ) invert(fe);

	mov	eax, DWORD PTR _e_id$[ebp]
	test	eax, 134217728				; 08000000H
	je	SHORT $LN1@set_edge_f
	xor	DWORD PTR _fe$[ebp], 134217728		; 08000000H
$LN1@set_edge_f:

; 173  :   eptr(e_id)->fe_id = fe;

	mov	ecx, DWORD PTR _web+124
	and	eax, 134217727				; 07ffffffH
	mov	edx, DWORD PTR [ecx+eax*4]
	mov	eax, DWORD PTR _fe$[ebp]
	mov	DWORD PTR [edx+28], eax

; 174  :   top_timestamp = ++global_timestamp;

	mov	eax, DWORD PTR _global_timestamp
	inc	eax
	mov	DWORD PTR _global_timestamp, eax
	mov	DWORD PTR _top_timestamp, eax

; 175  : }

	pop	ebp
	ret	0
_set_edge_fe ENDP
_TEXT	ENDS
PUBLIC	_get_edge_fe
; Function compile flags: /Ogtp
;	COMDAT _get_edge_fe
_TEXT	SEGMENT
_e_id$ = 8						; size = 4
_get_edge_fe PROC					; COMDAT

; 179  : {   struct edge *ep;

	push	ebp
	mov	ebp, esp

; 180  :     facetedge_id fe;
; 181  : 
; 182  :  	ep = eptr(e_id);

	mov	ecx, DWORD PTR _e_id$[ebp]
	mov	edx, DWORD PTR _web+124
	mov	eax, ecx
	and	eax, 134217727				; 07ffffffH
	mov	eax, DWORD PTR [edx+eax*4]

; 183  :     if ( !ep ) return NULLID;

	test	eax, eax
	jne	SHORT $LN2@get_edge_f

; 186  :     return fe;
; 187  : }

	pop	ebp
	ret	0
$LN2@get_edge_f:

; 184  :     fe = ep->fe_id; 

	mov	eax, DWORD PTR [eax+28]

; 185  :     if ( inverted(e_id) ) invert(fe);

	test	ecx, 134217728				; 08000000H
	je	SHORT $LN3@get_edge_f
	xor	eax, 134217728				; 08000000H
$LN3@get_edge_f:

; 186  :     return fe;
; 187  : }

	pop	ebp
	ret	0
_get_edge_fe ENDP
_TEXT	ENDS
PUBLIC	_get_facet_body
EXTRN	_dymem:DWORD
; Function compile flags: /Ogtp
;	COMDAT _get_facet_body
_TEXT	SEGMENT
_f_id$ = 8						; size = 4
_get_facet_body PROC					; COMDAT

; 250  : {

	push	ebp
	mov	ebp, esp

; 251  :   if ( web.skel[BODY].count == 0 ) return NULLID;

	cmp	DWORD PTR _web+400, 0
	jne	SHORT $LN4@get_facet_
$LN7@get_facet_:
	xor	eax, eax

; 255  : }

	pop	ebp
	ret	0
$LN4@get_facet_:

; 252  :   if ( !valid_id(f_id) ) return NULLID;

	mov	eax, DWORD PTR _f_id$[ebp]
	test	eax, 268435456				; 10000000H
	je	SHORT $LN7@get_facet_

; 253  :   if ( inverted(f_id) ) return F_ELID(f_id,F_BODY_LIST_ATTR)[1];

	mov	ecx, DWORD PTR _web+236
	test	eax, 134217728				; 08000000H
	je	SHORT $LN2@get_facet_
	and	eax, 134217727				; 07ffffffH
	mov	edx, DWORD PTR [ecx+eax*4]
	mov	eax, DWORD PTR _web+328
	mov	ecx, DWORD PTR _dymem
	mov	eax, DWORD PTR [eax+ecx+784]
	mov	eax, DWORD PTR [edx+eax+4]

; 255  : }

	pop	ebp
	ret	0
$LN2@get_facet_:

; 254  :   else  return F_ELID(f_id,F_BODY_LIST_ATTR)[0];

	and	eax, 134217727				; 07ffffffH
	mov	edx, DWORD PTR [ecx+eax*4]
	mov	eax, DWORD PTR _web+328
	mov	ecx, DWORD PTR _dymem
	mov	eax, DWORD PTR [eax+ecx+784]
	mov	eax, DWORD PTR [edx+eax]

; 255  : }

	pop	ebp
	ret	0
_get_facet_body ENDP
_TEXT	ENDS
PUBLIC	_get_next_tail_edge
; Function compile flags: /Ogtp
;	COMDAT _get_next_tail_edge
_TEXT	SEGMENT
_e_id$ = 8						; size = 4
_get_next_tail_edge PROC				; COMDAT

; 270  : { return eptr(e_id)->next_vedge[inverted(e_id) ?1: 0] ; }

	push	ebp
	mov	ebp, esp
	mov	eax, DWORD PTR _e_id$[ebp]
	mov	edx, DWORD PTR _web+124
	mov	ecx, eax
	shr	ecx, 27					; 0000001bH
	and	ecx, 1
	and	eax, 134217727				; 07ffffffH
	mov	eax, DWORD PTR [edx+eax*4]
	mov	eax, DWORD PTR [eax+ecx*4+32]
	pop	ebp
	ret	0
_get_next_tail_edge ENDP
_TEXT	ENDS
PUBLIC	__real@0000000000000000
PUBLIC	_get_body_volume
EXTRN	__fltused:DWORD
;	COMDAT __real@0000000000000000
CONST	SEGMENT
__real@0000000000000000 DQ 00000000000000000r	; 0
; Function compile flags: /Ogtp
CONST	ENDS
;	COMDAT _get_body_volume
_TEXT	SEGMENT
_b_id$ = 8						; size = 4
_get_body_volume PROC					; COMDAT

; 308  :     { return    ( valid_id(b_id) ?  bptr(b_id)->volume : 0.0 ) ; }

	push	ebp
	mov	ebp, esp
	mov	eax, DWORD PTR _b_id$[ebp]
	test	eax, 268435456				; 10000000H
	je	SHORT $LN3@get_body_v
	mov	ecx, DWORD PTR _web+348
	and	eax, 134217727				; 07ffffffH
	mov	edx, DWORD PTR [ecx+eax*4]
	fld	QWORD PTR [edx+40]
	pop	ebp
	ret	0
$LN3@get_body_v:
	fldz
	pop	ebp
	ret	0
_get_body_volume ENDP
_TEXT	ENDS
PUBLIC	_get_body_fixvol
; Function compile flags: /Ogtp
;	COMDAT _get_body_fixvol
_TEXT	SEGMENT
_b_id$ = 8						; size = 4
_get_body_fixvol PROC					; COMDAT

; 311  :      { return ( valid_id(b_id) ?  bptr(b_id)->fixvol : 0.0 ) ; }

	push	ebp
	mov	ebp, esp
	mov	eax, DWORD PTR _b_id$[ebp]
	test	eax, 268435456				; 10000000H
	je	SHORT $LN3@get_body_f
	mov	ecx, DWORD PTR _web+348
	and	eax, 134217727				; 07ffffffH
	mov	edx, DWORD PTR [ecx+eax*4]
	fld	QWORD PTR [edx+32]
	pop	ebp
	ret	0
$LN3@get_body_f:
	fldz
	pop	ebp
	ret	0
_get_body_fixvol ENDP
_TEXT	ENDS
PUBLIC	_get_body_pressure
; Function compile flags: /Ogtp
;	COMDAT _get_body_pressure
_TEXT	SEGMENT
_b_id$ = 8						; size = 4
_get_body_pressure PROC					; COMDAT

; 317  :     { return  ( valid_id(b_id) ?    bptr(b_id)->pressure : 0.0 ) ; }

	push	ebp
	mov	ebp, esp
	mov	eax, DWORD PTR _b_id$[ebp]
	test	eax, 268435456				; 10000000H
	je	SHORT $LN3@get_body_p
	mov	ecx, DWORD PTR _web+348
	and	eax, 134217727				; 07ffffffH
	mov	edx, DWORD PTR [ecx+eax*4]
	fld	QWORD PTR [edx+312]
	pop	ebp
	ret	0
$LN3@get_body_p:
	fldz
	pop	ebp
	ret	0
_get_body_pressure ENDP
_TEXT	ENDS
PUBLIC	_get_body_volconst
; Function compile flags: /Ogtp
;	COMDAT _get_body_volconst
_TEXT	SEGMENT
_b_id$ = 8						; size = 4
_get_body_volconst PROC					; COMDAT

; 320  :   { return    ( valid_id(b_id) ?  bptr(b_id)->volconst : 0.0 ) ; }

	push	ebp
	mov	ebp, esp
	mov	eax, DWORD PTR _b_id$[ebp]
	test	eax, 268435456				; 10000000H
	je	SHORT $LN3@get_body_v@2
	mov	ecx, DWORD PTR _web+348
	and	eax, 134217727				; 07ffffffH
	mov	edx, DWORD PTR [ecx+eax*4]
	fld	QWORD PTR [edx+328]
	pop	ebp
	ret	0
$LN3@get_body_v@2:
	fldz
	pop	ebp
	ret	0
_get_body_volconst ENDP
_TEXT	ENDS
PUBLIC	_set_body_volconst
EXTRN	_gen_quant_list:DWORD
EXTRN	_everything_quantities_flag:DWORD
; Function compile flags: /Ogtp
;	COMDAT _set_body_volconst
_TEXT	SEGMENT
_b_id$ = 8						; size = 4
_v$ = 12						; size = 8
_set_body_volconst PROC					; COMDAT

; 329  : { if ( !valid_id(b_id) ) return;

	push	ebp
	mov	ebp, esp
	mov	eax, DWORD PTR _b_id$[ebp]
	test	eax, 268435456				; 10000000H
	je	SHORT $LN1@set_body_v

; 330  :   bptr(b_id)->volconst = v;

	mov	ecx, DWORD PTR _web+348
	fld	QWORD PTR _v$[ebp]
	and	eax, 134217727				; 07ffffffH
	add	eax, eax
	add	eax, eax
	mov	edx, DWORD PTR [eax+ecx]
	fst	QWORD PTR [edx+328]

; 331  :   if ( everything_quantities_flag )

	cmp	DWORD PTR _everything_quantities_flag, 0
	je	SHORT $LN6@set_body_v

; 332  :   { struct gen_quant *q = GEN_QUANT(get_body_volquant(b_id));

	mov	ecx, DWORD PTR _web+348
	mov	edx, DWORD PTR [eax+ecx]
	mov	eax, DWORD PTR [edx+404]

; 333  :     q->volconst = v;

	mov	ecx, DWORD PTR _gen_quant_list
	imul	eax, 368				; 00000170H
	fstp	QWORD PTR [eax+ecx+208]

; 334  :   }
; 335  : }

	pop	ebp
	ret	0
$LN6@set_body_v:

; 333  :     q->volconst = v;

	fstp	ST(0)
$LN1@set_body_v:

; 334  :   }
; 335  : }

	pop	ebp
	ret	0
_set_body_volconst ENDP
_TEXT	ENDS
PUBLIC	__real@3ff0000000000000
PUBLIC	??_C@_0L@INLEEIPK@LEXINIT2?4C?$AA@		; `string'
PUBLIC	_torus_period_init
EXTRN	_set_inverse_periods_global:PROC
EXTRN	_set_torus_periods_global:PROC
EXTRN	_kb_dmatrix:PROC
;	COMDAT __real@3ff0000000000000
; File c:\levolver\yonkang-sefit\levolver\ev_ogl\lexinit2.c
CONST	SEGMENT
__real@3ff0000000000000 DQ 03ff0000000000000r	; 1
CONST	ENDS
;	COMDAT ??_C@_0L@INLEEIPK@LEXINIT2?4C?$AA@
CONST	SEGMENT
??_C@_0L@INLEEIPK@LEXINIT2?4C?$AA@ DB 'LEXINIT2.C', 00H	; `string'
; Function compile flags: /Ogtp
CONST	ENDS
;	COMDAT _torus_period_init
_TEXT	SEGMENT
_torus_period_init PROC					; COMDAT

; 29   : 
; 30   :   if ( web.torus_period ) return;

	cmp	DWORD PTR _web+1608, 0
	jne	$LN5@torus_peri

; 31   : 
; 32   :   web.torus_period = dmatrix(0,SDIM-1,0,SDIM-1);

	mov	eax, DWORD PTR _web+616
	push	32					; 00000020H
	push	OFFSET ??_C@_0L@INLEEIPK@LEXINIT2?4C?$AA@
	dec	eax
	push	eax
	push	0
	push	eax
	push	0
	call	_kb_dmatrix

; 33   :   web.inverse_periods = dmatrix(0,SDIM-1,0,SDIM-1);

	push	33					; 00000021H
	mov	DWORD PTR _web+1608, eax
	mov	eax, DWORD PTR _web+616
	push	OFFSET ??_C@_0L@INLEEIPK@LEXINIT2?4C?$AA@
	dec	eax
	push	eax
	push	0
	push	eax
	push	0
	call	_kb_dmatrix

; 34   :   web.inverse_periods_tr = dmatrix(0,SDIM-1,0,SDIM-1);

	push	34					; 00000022H
	mov	DWORD PTR _web+1612, eax
	mov	eax, DWORD PTR _web+616
	push	OFFSET ??_C@_0L@INLEEIPK@LEXINIT2?4C?$AA@
	dec	eax
	push	eax
	push	0
	push	eax
	push	0
	call	_kb_dmatrix
	add	esp, 72					; 00000048H
	mov	DWORD PTR _web+1616, eax

; 35   :   set_torus_periods_global();

	call	_set_torus_periods_global

; 36   :   set_inverse_periods_global();

	call	_set_inverse_periods_global

; 37   :   for ( i = 0 ; i < SDIM ; i++ )

	fld1
	xor	eax, eax
	cmp	DWORD PTR _web+616, eax
	jle	SHORT $LN1@torus_peri
$LN3@torus_peri:

; 38   :     web.torus_period[i][i] = web.inverse_periods[i][i] = 1.0;

	mov	ecx, DWORD PTR _web+1612
	mov	edx, DWORD PTR [ecx+eax*4]
	fst	QWORD PTR [edx+eax*8]
	mov	ecx, DWORD PTR _web+1608
	mov	edx, DWORD PTR [ecx+eax*4]
	fst	QWORD PTR [edx+eax*8]
	inc	eax
	cmp	eax, DWORD PTR _web+616
	jl	SHORT $LN3@torus_peri
$LN1@torus_peri:

; 39   :   web.torusv = 1.0;

	fstp	QWORD PTR _web+1600
$LN5@torus_peri:

; 40   : } // end torus_period_init()

	ret	0
_torus_period_init ENDP
_TEXT	ENDS
PUBLIC	_torus_display_period_init
; Function compile flags: /Ogtp
;	COMDAT _torus_display_period_init
_TEXT	SEGMENT
_torus_display_period_init PROC				; COMDAT

; 51   : 
; 52   :   if ( web.torus_display_period ) return;

	cmp	DWORD PTR _web+1620, 0
	jne	SHORT $LN1@torus_disp

; 53   : 
; 54   :   web.torus_display_period = dmatrix(0,SDIM-1,0,SDIM-1);

	mov	eax, DWORD PTR _web+616
	push	54					; 00000036H
	push	OFFSET ??_C@_0L@INLEEIPK@LEXINIT2?4C?$AA@
	dec	eax
	push	eax
	push	0
	push	eax
	push	0
	call	_kb_dmatrix

; 55   :   web.inverse_display_periods = dmatrix(0,SDIM-1,0,SDIM-1);

	push	55					; 00000037H
	mov	DWORD PTR _web+1620, eax
	mov	eax, DWORD PTR _web+616
	push	OFFSET ??_C@_0L@INLEEIPK@LEXINIT2?4C?$AA@
	dec	eax
	push	eax
	push	0
	push	eax
	push	0
	call	_kb_dmatrix
	mov	DWORD PTR _web+1672, eax

; 56   :   for ( i = 0 ; i < SDIM ; i++ )

	xor	eax, eax
	add	esp, 48					; 00000030H
	cmp	DWORD PTR _web+616, eax
	jle	SHORT $LN1@torus_disp
	fld1
$LN3@torus_disp:

; 57   :     web.torus_display_period[i][i] = web.inverse_display_periods[i][i] = 1.0;

	mov	ecx, DWORD PTR _web+1672
	mov	edx, DWORD PTR [ecx+eax*4]
	fst	QWORD PTR [edx+eax*8]
	mov	ecx, DWORD PTR _web+1620
	mov	edx, DWORD PTR [ecx+eax*4]
	fst	QWORD PTR [edx+eax*8]
	inc	eax
	cmp	eax, DWORD PTR _web+616
	jl	SHORT $LN3@torus_disp

; 56   :   for ( i = 0 ; i < SDIM ; i++ )

	fstp	ST(0)
$LN1@torus_disp:

; 58   : } // end torus_display_period_init()

	ret	0
_torus_display_period_init ENDP
_TEXT	ENDS
PUBLIC	??_C@_0DN@MOBBDHGA@Bad?5torus_period?$FL?$CFd?$FN?$FL?$CFd?$FN?5definit@ ; `string'
PUBLIC	??_C@_0BG@EONKGAPM@torus?5period?5?$FL?$CFd?$FN?$FL?$CFd?$FN?$AA@ ; `string'
PUBLIC	_read_periods
EXTRN	_kb_error:PROC
EXTRN	_errmsg:BYTE
EXTRN	_calc_periods:PROC
EXTRN	_sprintf:PROC
EXTRN	_exparse:PROC
EXTRN	_torus_period_expr:BYTE
;	COMDAT ??_C@_0DN@MOBBDHGA@Bad?5torus_period?$FL?$CFd?$FN?$FL?$CFd?$FN?5definit@
CONST	SEGMENT
??_C@_0DN@MOBBDHGA@Bad?5torus_period?$FL?$CFd?$FN?$FL?$CFd?$FN?5definit@ DB 'B'
	DB	'ad torus_period[%d][%d] definition.  Check space dimension', 0aH
	DB	00H						; `string'
CONST	ENDS
;	COMDAT ??_C@_0BG@EONKGAPM@torus?5period?5?$FL?$CFd?$FN?$FL?$CFd?$FN?$AA@
CONST	SEGMENT
??_C@_0BG@EONKGAPM@torus?5period?5?$FL?$CFd?$FN?$FL?$CFd?$FN?$AA@ DB 'tor'
	DB	'us period [%d][%d]', 00H			; `string'
; Function compile flags: /Ogtp
CONST	ENDS
;	COMDAT _read_periods
_TEXT	SEGMENT
tv216 = -4						; size = 4
_read_periods PROC					; COMDAT

; 68   : {

	push	ebp
	mov	ebp, esp
	push	ecx
	push	ebx
	push	esi
	push	edi

; 69   :   int i,j;
; 70   : 
; 71   :   torus_period_init();

	call	_torus_period_init

; 72   : 
; 73   :   /* read in torus periods */
; 74   :   for ( i = 0 ; i < SDIM ; i++ )

	mov	eax, DWORD PTR _web+616
	xor	ebx, ebx
	test	eax, eax
	jle	SHORT $LN5@read_perio

; 69   :   int i,j;
; 70   : 
; 71   :   torus_period_init();

	mov	edi, OFFSET _torus_period_expr+20
	mov	DWORD PTR tv216[ebp], edi
	npad	1
$LL16@read_perio:

; 75   :     for ( j = 0 ; j < SDIM ; j++ )

	xor	esi, esi
	test	eax, eax
	jle	SHORT $LN6@read_perio
$LL15@read_perio:

; 76   :     { int esize;
; 77   :       esize = exparse(0,&torus_period_expr[i][j],USERCOPY);

	push	1
	lea	eax, DWORD PTR [edi-20]
	push	eax
	push	0
	call	_exparse
	add	esp, 12					; 0000000cH

; 78   :       if ( esize <= 0 )

	test	eax, eax
	jle	SHORT $LN12@read_perio

; 83   :         return;
; 84   :       }
; 85   :       sprintf(torus_period_expr[i][j].name,"torus period [%d][%d]",i,j);

	push	esi
	push	ebx
	push	OFFSET ??_C@_0BG@EONKGAPM@torus?5period?5?$FL?$CFd?$FN?$FL?$CFd?$FN?$AA@
	push	edi
	call	_sprintf
	mov	eax, DWORD PTR _web+616
	inc	esi
	add	esp, 16					; 00000010H
	add	edi, 104				; 00000068H
	cmp	esi, eax
	jl	SHORT $LL15@read_perio
$LN6@read_perio:

; 72   : 
; 73   :   /* read in torus periods */
; 74   :   for ( i = 0 ; i < SDIM ; i++ )

	mov	edi, DWORD PTR tv216[ebp]
	inc	ebx
	add	edi, 624				; 00000270H
	mov	DWORD PTR tv216[ebp], edi
	cmp	ebx, eax
	jl	SHORT $LL16@read_perio
$LN5@read_perio:

; 86   :     }
; 87   :   calc_periods(ADJUST_VOLUMES);

	push	1
	call	_calc_periods
	add	esp, 4
	pop	edi
	pop	esi
	pop	ebx

; 88   : 
; 89   : } // end read_periods()

	mov	esp, ebp
	pop	ebp
	ret	0
$LN12@read_perio:

; 79   :       { sprintf(errmsg,
; 80   :             "Bad torus_period[%d][%d] definition.  Check space dimension\n",
; 81   :                    i+1,j+1);

	inc	esi
	push	esi
	inc	ebx
	push	ebx
	push	OFFSET ??_C@_0DN@MOBBDHGA@Bad?5torus_period?$FL?$CFd?$FN?$FL?$CFd?$FN?5definit@
	push	OFFSET _errmsg
	call	_sprintf

; 82   :         kb_error(3903,errmsg,DATAFILE_ERROR);

	push	6
	push	OFFSET _errmsg
	push	3903					; 00000f3fH
	call	_kb_error
	add	esp, 28					; 0000001cH
	pop	edi
	pop	esi
	pop	ebx

; 88   : 
; 89   : } // end read_periods()

	mov	esp, ebp
	pop	ebp
	ret	0
_read_periods ENDP
_TEXT	ENDS
PUBLIC	??_C@_0DP@EKANIKFM@Bad?5display_period?$FL?$CFd?$FN?$FL?$CFd?$FN?5defin@ ; `string'
PUBLIC	??_C@_0BI@BLGCINFB@display?5period?5?$FL?$CFd?$FN?$FL?$CFd?$FN?$AA@ ; `string'
PUBLIC	_read_display_periods
EXTRN	_torus_display_period_expr:BYTE
;	COMDAT ??_C@_0DP@EKANIKFM@Bad?5display_period?$FL?$CFd?$FN?$FL?$CFd?$FN?5defin@
CONST	SEGMENT
??_C@_0DP@EKANIKFM@Bad?5display_period?$FL?$CFd?$FN?$FL?$CFd?$FN?5defin@ DB 'B'
	DB	'ad display_period[%d][%d] definition.  Check space dimension', 0aH
	DB	00H						; `string'
CONST	ENDS
;	COMDAT ??_C@_0BI@BLGCINFB@display?5period?5?$FL?$CFd?$FN?$FL?$CFd?$FN?$AA@
CONST	SEGMENT
??_C@_0BI@BLGCINFB@display?5period?5?$FL?$CFd?$FN?$FL?$CFd?$FN?$AA@ DB 'd'
	DB	'isplay period [%d][%d]', 00H		; `string'
; Function compile flags: /Ogtp
CONST	ENDS
;	COMDAT _read_display_periods
_TEXT	SEGMENT
tv216 = -4						; size = 4
_read_display_periods PROC				; COMDAT

; 99   : {

	push	ebp
	mov	ebp, esp
	push	ecx
	push	ebx
	push	esi
	push	edi

; 100  :   int i,j;
; 101  : 
; 102  :   torus_display_period_init();

	call	_torus_display_period_init

; 103  : 
; 104  :   /* read in display periods */
; 105  :   for ( i = 0 ; i < SDIM ; i++ )

	mov	eax, DWORD PTR _web+616
	xor	ebx, ebx
	test	eax, eax
	jle	SHORT $LN5@read_displ

; 100  :   int i,j;
; 101  : 
; 102  :   torus_display_period_init();

	mov	edi, OFFSET _torus_display_period_expr+20
	mov	DWORD PTR tv216[ebp], edi
	npad	1
$LL16@read_displ:

; 106  :     for ( j = 0 ; j < SDIM ; j++ )

	xor	esi, esi
	test	eax, eax
	jle	SHORT $LN6@read_displ
$LL15@read_displ:

; 107  :     { int esize;
; 108  :       esize = exparse(0,&torus_display_period_expr[i][j],USERCOPY);

	push	1
	lea	eax, DWORD PTR [edi-20]
	push	eax
	push	0
	call	_exparse
	add	esp, 12					; 0000000cH

; 109  :       if ( esize <= 0 )

	test	eax, eax
	jle	SHORT $LN12@read_displ

; 114  :         return;
; 115  :       }
; 116  :       sprintf(torus_display_period_expr[i][j].name,"display period [%d][%d]",i,j);

	push	esi
	push	ebx
	push	OFFSET ??_C@_0BI@BLGCINFB@display?5period?5?$FL?$CFd?$FN?$FL?$CFd?$FN?$AA@
	push	edi
	call	_sprintf
	mov	eax, DWORD PTR _web+616
	inc	esi
	add	esp, 16					; 00000010H
	add	edi, 104				; 00000068H
	cmp	esi, eax
	jl	SHORT $LL15@read_displ
$LN6@read_displ:

; 103  : 
; 104  :   /* read in display periods */
; 105  :   for ( i = 0 ; i < SDIM ; i++ )

	mov	edi, DWORD PTR tv216[ebp]
	inc	ebx
	add	edi, 624				; 00000270H
	mov	DWORD PTR tv216[ebp], edi
	cmp	ebx, eax
	jl	SHORT $LL16@read_displ
$LN5@read_displ:

; 117  :     }
; 118  :   calc_periods(ADJUST_VOLUMES);

	push	1
	call	_calc_periods
	add	esp, 4
	pop	edi
	pop	esi
	pop	ebx

; 119  : } // end read_display_periods()

	mov	esp, ebp
	pop	ebp
	ret	0
$LN12@read_displ:

; 110  :       { sprintf(errmsg,
; 111  :             "Bad display_period[%d][%d] definition.  Check space dimension\n",
; 112  :                    i+1,j+1);

	inc	esi
	push	esi
	inc	ebx
	push	ebx
	push	OFFSET ??_C@_0DP@EKANIKFM@Bad?5display_period?$FL?$CFd?$FN?$FL?$CFd?$FN?5defin@
	push	OFFSET _errmsg
	call	_sprintf

; 113  :         kb_error(1670,errmsg,DATAFILE_ERROR);

	push	6
	push	OFFSET _errmsg
	push	1670					; 00000686H
	call	_kb_error
	add	esp, 28					; 0000001cH
	pop	edi
	pop	esi
	pop	ebx

; 119  : } // end read_display_periods()

	mov	esp, ebp
	pop	ebp
	ret	0
_read_display_periods ENDP
_TEXT	ENDS
PUBLIC	??_C@_0EE@JFBLPNJP@Numbered?5surface?5energies?5are?5ob@ ; `string'
PUBLIC	_read_surface_energy
EXTRN	_tok:DWORD
EXTRN	_kb_yylex:PROC
;	COMDAT ??_C@_0EE@JFBLPNJP@Numbered?5surface?5energies?5are?5ob@
CONST	SEGMENT
??_C@_0EE@JFBLPNJP@Numbered?5surface?5energies?5are?5ob@ DB 'Numbered sur'
	DB	'face energies are obsolete. Please use named quantity.', 0aH, 00H ; `string'
; Function compile flags: /Ogtp
CONST	ENDS
;	COMDAT _read_surface_energy
_TEXT	SEGMENT
_read_surface_energy PROC				; COMDAT

; 889  :   kb_error(1702,
; 890  :    "Numbered surface energies are obsolete. Please use named quantity.\n",
; 891  :       DATAFILE_ERROR);

	push	6
	push	OFFSET ??_C@_0EE@JFBLPNJP@Numbered?5surface?5energies?5are?5ob@
	push	1702					; 000006a6H
	call	_kb_error

; 892  :   tok = yylex();

	push	0
	call	_kb_yylex
	add	esp, 16					; 00000010H
	mov	DWORD PTR _tok, eax

; 893  : } // end read_surface_energy()

	ret	0
_read_surface_energy ENDP
_TEXT	ENDS
PUBLIC	_add_outside
; Function compile flags: /Ogtp
;	COMDAT _add_outside
_TEXT	SEGMENT
_add_outside PROC					; COMDAT

; 1384 : 
; 1385 : return; /* temporary turn off */
; 1386 : #ifdef OUTSIDEBODY     
; 1387 :     body_id b_id;    /* both models */
; 1388 : 
; 1389 : 
; 1390 :         b_id = new_body();
; 1391 :         web.outside_body = b_id;
; 1392 :         set_attr(b_id,PRESSURE); /* since has ambient pressure */
; 1393 : 
; 1394 :         if ( web.representation == STRING )
; 1395 :          { edge_id e_id;
; 1396 :             facet_id f_id;
; 1397 : 
; 1398 :             f_id = new_facet();    /* outside facet */
; 1399 :             set_facet_body(f_id,b_id);
; 1400 : 
; 1401 :             /* add to outside of every edge bordering just ONE cell */
; 1402 :             FOR_ALL_EDGES(e_id)
; 1403 :               {
; 1404 :                  facetedge_id new_fe;
; 1405 :                  facetedge_id fe_id;
; 1406 :                  
; 1407 :                  fe_id = get_edge_fe(e_id);
; 1408 :                  if ( !valid_id(fe_id) ) continue;
; 1409 :                  if ( !equal_id(fe_id,get_next_facet(fe_id)) ) continue;
; 1410 :                  new_fe = new_facetedge(inverse_id(f_id),e_id);
; 1411 :                  set_next_facet(fe_id,new_fe);
; 1412 :                  set_prev_facet(fe_id,new_fe);
; 1413 :                  set_next_facet(new_fe,fe_id);
; 1414 :                  set_prev_facet(new_fe,fe_id);
; 1415 :                  set_facet_fe(f_id,new_fe);
; 1416 : 
; 1417 :               }
; 1418 :          }
; 1419 :       else /* SOAPFILM */
; 1420 :          {
; 1421 :             facet_id f_id;
; 1422 : 
; 1423 :             /* add to outside of every facet bordering just ONE cell */
; 1424 :             FOR_ALL_FACETS(f_id)
; 1425 :               {
; 1426 :                  body_id b1_id,b2_id;
; 1427 : 
; 1428 :                  b1_id = get_facet_body(f_id);
; 1429 :                  b2_id = get_facet_body(inverse_id(f_id));
; 1430 :                  if ( valid_id(b1_id) == valid_id(b2_id) ) continue;
; 1431 : 
; 1432 :                  if ( valid_id(b1_id) )
; 1433 :                     set_facet_body(inverse_id(f_id),b_id);
; 1434 :                  if ( valid_id(b2_id) )
; 1435 :                     set_facet_body(f_id,b_id);
; 1436 :               }
; 1437 :         }
; 1438 : #endif
; 1439 : } // end  add_outside()

	ret	0
_add_outside ENDP
_TEXT	ENDS
PUBLIC	__real@3fe0000000000000
PUBLIC	_fix_volconst
EXTRN	_set_body_volume:PROC
EXTRN	_floor:PROC
;	COMDAT __real@3fe0000000000000
; File c:\levolver\yonkang-sefit\levolver\ev_ogl\inline.h
CONST	SEGMENT
__real@3fe0000000000000 DQ 03fe0000000000000r	; 0.5
; Function compile flags: /Ogtp
; File c:\levolver\yonkang-sefit\levolver\ev_ogl\lexinit2.c
CONST	ENDS
;	COMDAT _fix_volconst
_TEXT	SEGMENT
tv268 = -24						; size = 8
_calcvol$90117 = -24					; size = 8
_adjust$ = -16						; size = 8
_newvc$90118 = -8					; size = 8
tv259 = -4						; size = 4
_fix_volconst PROC					; COMDAT

; 1451 : {

	push	ebp
	mov	ebp, esp
	sub	esp, 24					; 00000018H

; 1452 :   REAL adjust;
; 1453 :   body_id b_id;
; 1454 : 
; 1455 :   if ( web.pressure_flag ) return;

	cmp	DWORD PTR _web+868, 0
	jne	$LN4@fix_volcon

; 1456 : 
; 1457 :   /* get volume of piece of unit cell */
; 1458 :   if ( SDIM == 2 )

	fld	QWORD PTR _web+1600
	push	edi

; 1459 :   {
; 1460 :      adjust = web.torusv  /* /2 */;
; 1461 :   }
; 1462 :   else /* web.representation == SOAPFILM */
; 1463 :   {
; 1464 :      adjust = web.torusv  /* /6 */;
; 1465 :   }
; 1466 : 
; 1467 :   /* adjust volconsts */
; 1468 :   FOR_ALL_BODIES(b_id)

	mov	edi, DWORD PTR _web+384
	fstp	QWORD PTR _adjust$[ebp]
	mov	eax, edi
	shr	eax, 28					; 0000001cH
	and	eax, 1
	mov	DWORD PTR tv259[ebp], eax
	je	$LN28@fix_volcon
	fldz
	push	ebx
	push	esi
$LN26@fix_volcon:
	mov	eax, DWORD PTR _web+348
	mov	esi, edi
	and	esi, 134217727				; 07ffffffH
	add	esi, esi
	add	esi, esi
	mov	edx, DWORD PTR [esi+eax]
	mov	eax, DWORD PTR [edx+12]
	mov	ecx, DWORD PTR [edx+8]
	mov	DWORD PTR tv268[ebp+4], eax
	mov	eax, ecx
	and	eax, 1
	xor	ebx, ebx
	or	eax, ebx
	je	SHORT $LN5@fix_volcon

; 1469 :     if ( get_battr(b_id) & FIXEDVOL )

	and	ecx, 32					; 00000020H
	xor	eax, eax
	or	ecx, eax
	je	SHORT $LN5@fix_volcon

; 1470 :     { REAL vol = get_body_volume(b_id);

	cmp	DWORD PTR tv259[ebp], eax
	je	$LN14@fix_volcon
	fstp	ST(0)
	fld	QWORD PTR [edx+40]

; 1471 :       REAL fix = get_body_fixvol(b_id);

	fld	QWORD PTR [edx+32]

; 1472 :       REAL vc = get_body_volconst(b_id);

	fld	QWORD PTR [edx+328]
	fxch	ST(2)
	fxch	ST(1)
$LN23@fix_volcon:

; 1473 :       REAL calcvol = vol-vc;

	fxch	ST(1)

; 1474 :       REAL newvc = fix - calcvol;
; 1475 :       newvc = adjust*floor(0.5+newvc/adjust);

	sub	esp, 8
	fsubrp	ST(2), ST(0)
	fxch	ST(1)
	fst	QWORD PTR _calcvol$90117[ebp]
	fsubp	ST(1), ST(0)
	fdiv	QWORD PTR _adjust$[ebp]
	fadd	QWORD PTR __real@3fe0000000000000
	fstp	QWORD PTR [esp]
	call	_floor
	fmul	QWORD PTR _adjust$[ebp]
	fst	QWORD PTR _newvc$90118[ebp]

; 1476 :       set_body_volconst(b_id,newvc);

	fstp	QWORD PTR [esp]
	push	edi
	call	_set_body_volconst

; 1477 :       set_body_volume(b_id,calcvol+newvc,SETSTAMP);

	fld	QWORD PTR _newvc$90118[ebp]
	fadd	QWORD PTR _calcvol$90117[ebp]
	add	esp, 12					; 0000000cH
	push	1
	sub	esp, 8
	fstp	QWORD PTR [esp]
	push	edi
	call	_set_body_volume
	fldz
	add	esp, 16					; 00000010H
$LN5@fix_volcon:

; 1459 :   {
; 1460 :      adjust = web.torusv  /* /2 */;
; 1461 :   }
; 1462 :   else /* web.representation == SOAPFILM */
; 1463 :   {
; 1464 :      adjust = web.torusv  /* /6 */;
; 1465 :   }
; 1466 : 
; 1467 :   /* adjust volconsts */
; 1468 :   FOR_ALL_BODIES(b_id)

	mov	ecx, DWORD PTR _web+348
	mov	edx, DWORD PTR [esi+ecx]
	mov	edi, DWORD PTR [edx]
	mov	eax, edi
	shr	eax, 28					; 0000001cH
	and	eax, 1
	mov	DWORD PTR tv259[ebp], eax
	jne	$LN26@fix_volcon
	pop	esi
	fstp	ST(0)
	pop	ebx
$LN28@fix_volcon:
	pop	edi
$LN4@fix_volcon:

; 1478 :    }
; 1479 : } // end fix_volconst()

	mov	esp, ebp
	pop	ebp
	ret	0

; 1470 :     { REAL vol = get_body_volume(b_id);

$LN14@fix_volcon:
	fld	ST(0)

; 1471 :       REAL fix = get_body_fixvol(b_id);

	fld	ST(1)

; 1472 :       REAL vc = get_body_volconst(b_id);

	jmp	SHORT $LN23@fix_volcon
_fix_volconst ENDP
_TEXT	ENDS
PUBLIC	__real@401921fb54442d18
PUBLIC	__real@400921fb54442d18
PUBLIC	__real@46293e5939a08cea
PUBLIC	??_C@_0DL@PDBOKNGE@Edge?5?$CFs?5facets?5body?5order?5disagr@ ; `string'
PUBLIC	??_C@_00CNPNBAHC@?$AA@				; `string'
PUBLIC	??_C@_02DPKJAMEF@?$CFd?$AA@			; `string'
PUBLIC	??_C@_0CO@JCMFDCON@More?5than?5100?5facets?5on?5an?5edge?$DL@ ; `string'
PUBLIC	__$ArrayPad$
PUBLIC	_fe_reorder
EXTRN	_elnames:BYTE
EXTRN	_dot:PROC
EXTRN	_cross_prod:PROC
EXTRN	_get_edge_side:PROC
EXTRN	___security_cookie:DWORD
EXTRN	@__security_check_cookie@4:PROC
EXTRN	__CIatan2:PROC
EXTRN	__CIsqrt:PROC
;	COMDAT __real@401921fb54442d18
; File c:\levolver\yonkang-sefit\levolver\ev_ogl\inline.h
CONST	SEGMENT
__real@401921fb54442d18 DQ 0401921fb54442d18r	; 6.28319
CONST	ENDS
;	COMDAT __real@400921fb54442d18
CONST	SEGMENT
__real@400921fb54442d18 DQ 0400921fb54442d18r	; 3.14159
CONST	ENDS
;	COMDAT __real@46293e5939a08cea
CONST	SEGMENT
__real@46293e5939a08cea DQ 046293e5939a08cear	; 1e+030
CONST	ENDS
;	COMDAT ??_C@_0DL@PDBOKNGE@Edge?5?$CFs?5facets?5body?5order?5disagr@
CONST	SEGMENT
??_C@_0DL@PDBOKNGE@Edge?5?$CFs?5facets?5body?5order?5disagr@ DB 'Edge %s '
	DB	'facets body order disagrees with geometric order.', 0aH, 00H ; `string'
CONST	ENDS
;	COMDAT ??_C@_00CNPNBAHC@?$AA@
CONST	SEGMENT
??_C@_00CNPNBAHC@?$AA@ DB 00H				; `string'
CONST	ENDS
;	COMDAT ??_C@_02DPKJAMEF@?$CFd?$AA@
CONST	SEGMENT
??_C@_02DPKJAMEF@?$CFd?$AA@ DB '%d', 00H		; `string'
CONST	ENDS
;	COMDAT ??_C@_0CO@JCMFDCON@More?5than?5100?5facets?5on?5an?5edge?$DL@
CONST	SEGMENT
??_C@_0CO@JCMFDCON@More?5than?5100?5facets?5on?5an?5edge?$DL@ DB 'More th'
	DB	'an 100 facets on an edge; not sorted.', 0aH, 00H ; `string'
; Function compile flags: /Ogtp
; File c:\levolver\yonkang-sefit\levolver\ev_ogl\lexinit2.c
CONST	ENDS
;	COMDAT _fe_reorder
_TEXT	SEGMENT
_ftemp$90238 = -1936					; size = 16
_tempfe$90215 = -1936					; size = 16
_ftemp$90226 = -1920					; size = 16
_a_norm$ = -1912					; size = 8
tv1553 = -1908						; size = 4
_bestk$90222 = -1904					; size = 4
tv201 = -1904						; size = 4
_ftemp$90194 = -1900					; size = 16
_aa_norm$ = -1892					; size = 8
tv2632 = -1888						; size = 4
tv1639 = -1888						; size = 4
$T92129 = -1888						; size = 4
_s$ = -1884						; size = 8
tv655 = -1880						; size = 4
_bodies_ok$ = -1880					; size = 4
_k$ = -1880						; size = 4
_i$ = -1880						; size = 4
_kk$90206 = -1876					; size = 4
_eb$90165 = -1876					; size = 4
tv2432 = -1872						; size = 4
_ef$90164 = -1872					; size = 4
_kkk$90210 = -1868					; size = 4
_af$90166 = -1868					; size = 4
tv2480 = -1864						; size = 4
tv1312 = -1864						; size = 4
tv1002 = -1864						; size = 4
tv2469 = -1860						; size = 4
tv1201 = -1860						; size = 4
tv628 = -1860						; size = 4
$T92176 = -1860						; size = 4
_bf$90168 = -1860					; size = 4
tv2440 = -1856						; size = 4
tv2292 = -1856						; size = 4
_k$90220 = -1856					; size = 4
_ab$90167 = -1856					; size = 4
_fcount$ = -1852					; size = 4
tv2515 = -1848						; size = 4
tv2465 = -1848						; size = 4
tv2422 = -1848						; size = 4
tv2361 = -1848						; size = 4
_body_order$ = -1848					; size = 4
_fe_list$ = -1844					; size = 1600
_side_a$ = -244						; size = 48
_side$ = -196						; size = 48
_side_b$ = -148						; size = 48
_norm_aa$ = -100					; size = 48
_norm_a$ = -52						; size = 48
__$ArrayPad$ = -4					; size = 4
_e_id$ = 8						; size = 4
_fe_reorder PROC					; COMDAT

; 1503 : { int fcount = 0;

	push	ebp
	mov	ebp, esp
	sub	esp, 1936				; 00000790H
	mov	eax, DWORD PTR ___security_cookie
	xor	eax, ebp
	mov	DWORD PTR __$ArrayPad$[ebp], eax

; 1504 :   facetedge_id fe;
; 1505 : #define FSORTMAX 100
; 1506 :   struct fsort fe_list[FSORTMAX];
; 1507 :   REAL side[MAXCOORD],norm_a[MAXCOORD],side_a[MAXCOORD];
; 1508 :   REAL side_b[MAXCOORD],norm_aa[MAXCOORD],a_norm,aa_norm;
; 1509 :   REAL c,s,angle;
; 1510 :   int i,j,k;
; 1511 :   facetedge_id first_fe;
; 1512 :   int bodies_ok;
; 1513 :   int body_order = 0; /* set if order triple line by bodies */
; 1514 : 
; 1515 :   /* see if we have 3 or more facets */
; 1516 :   fe = first_fe = get_edge_fe(e_id);

	mov	ecx, DWORD PTR _e_id$[ebp]
	mov	eax, ecx
	and	eax, 134217727				; 07ffffffH
	push	esi
	mov	esi, DWORD PTR _web+124
	xor	edx, edx
	mov	DWORD PTR tv1312[ebp], eax
	mov	eax, DWORD PTR [esi+eax*4]
	mov	DWORD PTR _body_order$[ebp], edx
	cmp	eax, edx
	jne	SHORT $LN75@fe_reorder
	xor	eax, eax
	jmp	SHORT $LN74@fe_reorder
$LN75@fe_reorder:
	mov	eax, DWORD PTR [eax+28]
	test	ecx, 134217728				; 08000000H
	je	SHORT $LN74@fe_reorder
	xor	eax, 134217728				; 08000000H
$LN74@fe_reorder:
	mov	esi, eax

; 1517 :   if ( valid_id(fe) ) 

	test	eax, 268435456				; 10000000H
	je	$LN1@fe_reorder
	mov	ecx, DWORD PTR _web+460
$LL54@fe_reorder:

; 1518 :   do { fcount++; 

	inc	edx

; 1519 :        fe = get_next_facet(fe);

	test	esi, 134217728				; 08000000H
	je	SHORT $LN79@fe_reorder
	and	esi, 134217727				; 07ffffffH
	mov	esi, DWORD PTR [ecx+esi*4]
	mov	esi, DWORD PTR [esi+36]
	xor	esi, 134217728				; 08000000H
	jmp	SHORT $LN53@fe_reorder
$LN79@fe_reorder:
	and	esi, 134217727				; 07ffffffH
	mov	esi, DWORD PTR [ecx+esi*4]
	mov	esi, DWORD PTR [esi+40]
$LN53@fe_reorder:

; 1520 :      } while ( valid_id(fe) && !equal_id(fe,first_fe) );

	test	esi, 268435456				; 10000000H
	je	SHORT $LN217@fe_reorder
	cmp	esi, eax
	jne	SHORT $LL54@fe_reorder
$LN217@fe_reorder:

; 1518 :   do { fcount++; 

	mov	DWORD PTR _fcount$[ebp], edx

; 1521 :   if ( fcount <= 2 ) return;

	cmp	edx, 2
	jle	$LN1@fe_reorder

; 1522 : 
; 1523 :   if ( fcount > FSORTMAX )

	cmp	edx, 100				; 00000064H
	jle	SHORT $LN49@fe_reorder

; 1524 :   { kb_error(1742,"More than 100 facets on an edge; not sorted.\n",WARNING); 

	push	2
	push	OFFSET ??_C@_0CO@JCMFDCON@More?5than?5100?5facets?5on?5an?5edge?$DL@
	push	1742					; 000006ceH
	call	_kb_error
	add	esp, 12					; 0000000cH
	pop	esi

; 1697 :   }
; 1698 : } // end fe_reorder()

	mov	ecx, DWORD PTR __$ArrayPad$[ebp]
	xor	ecx, ebp
	call	@__security_check_cookie@4
	mov	esp, ebp
	pop	ebp
	ret	0
$LN49@fe_reorder:
	push	ebx
	push	edi

; 1525 :     return;
; 1526 :   }
; 1527 : 
; 1528 :   /* common case of three facets, check for body determination */
; 1529 :   if ( fcount == 3 )

	cmp	edx, 3
	jne	$LN45@fe_reorder

; 1530 :   { /* see if there is a unique order of facets */
; 1531 :     facetedge_id fa = get_next_facet(fe);

	push	esi
	call	_get_next_facet

; 1532 :     facetedge_id fb = get_prev_facet(fe);

	push	esi
	mov	edi, eax
	call	_get_prev_facet

; 1533 :     body_id ef = get_facet_body(get_fe_facet(fe));

	push	esi
	mov	ebx, eax
	call	_get_fe_facet
	push	eax
	call	_get_facet_body

; 1534 :     body_id eb = get_facet_body(inverse_id(get_fe_facet(fe)));

	push	esi
	mov	DWORD PTR _ef$90164[ebp], eax
	call	_get_fe_facet
	xor	eax, 134217728				; 08000000H
	push	eax
	call	_get_facet_body

; 1535 :     body_id af = get_facet_body(get_fe_facet(fa));

	push	edi
	mov	DWORD PTR _eb$90165[ebp], eax
	call	_get_fe_facet
	push	eax
	call	_get_facet_body

; 1536 :     body_id ab = get_facet_body(inverse_id(get_fe_facet(fa)));

	push	edi
	mov	DWORD PTR _af$90166[ebp], eax
	call	_get_fe_facet
	xor	eax, 134217728				; 08000000H
	push	eax
	call	_get_facet_body

; 1537 :     body_id bf = get_facet_body(get_fe_facet(fb));

	push	ebx
	mov	DWORD PTR _ab$90167[ebp], eax
	call	_get_fe_facet
	push	eax
	call	_get_facet_body

; 1538 :     body_id bb = get_facet_body(inverse_id(get_fe_facet(fb)));

	push	ebx
	mov	DWORD PTR _bf$90168[ebp], eax
	call	_get_fe_facet
	xor	eax, 134217728				; 08000000H
	push	eax
	call	_get_facet_body

; 1539 :     int asis  = (eb==af) && (ab==bf) && (bb==ef);

	mov	ecx, DWORD PTR _af$90166[ebp]
	add	esp, 56					; 00000038H
	cmp	DWORD PTR _eb$90165[ebp], ecx
	jne	SHORT $LN210@fe_reorder
	mov	edx, DWORD PTR _ab$90167[ebp]
	cmp	edx, DWORD PTR _bf$90168[ebp]
	jne	SHORT $LN210@fe_reorder
	cmp	eax, DWORD PTR _ef$90164[ebp]
	jne	SHORT $LN210@fe_reorder
	mov	ecx, 1
	jmp	SHORT $LN59@fe_reorder
$LN210@fe_reorder:
	xor	ecx, ecx
$LN59@fe_reorder:

; 1540 :     int other = (eb==bf) && (bb==af) && (ab==ef);

	mov	edx, DWORD PTR _bf$90168[ebp]
	cmp	DWORD PTR _eb$90165[ebp], edx
	jne	SHORT $LN60@fe_reorder
	cmp	eax, DWORD PTR _af$90166[ebp]
	jne	SHORT $LN60@fe_reorder
	mov	eax, DWORD PTR _ef$90164[ebp]
	cmp	DWORD PTR _ab$90167[ebp], eax
	jne	SHORT $LN60@fe_reorder
	mov	eax, 1
	jmp	SHORT $LN61@fe_reorder
$LN60@fe_reorder:
	xor	eax, eax
$LN61@fe_reorder:

; 1541 :     if ( asis && !other ) body_order = 1;

	test	ecx, ecx
	je	SHORT $LN47@fe_reorder
	test	eax, eax
	jne	SHORT $LN45@fe_reorder
	jmp	SHORT $LN287@fe_reorder
$LN47@fe_reorder:

; 1542 :     else if ( other && !asis )

	test	eax, eax
	je	SHORT $LN45@fe_reorder

; 1543 :     { /* swap */
; 1544 :       set_next_facet(fe,fb);

	push	ebx
	push	esi
	call	_set_next_facet

; 1545 :       set_next_facet(fb,fa);

	push	edi
	push	ebx
	call	_set_next_facet

; 1546 :       set_next_facet(fa,fe);

	push	esi
	push	edi
	call	_set_next_facet

; 1547 :       set_prev_facet(fe,fa);

	push	edi
	push	esi
	call	_set_prev_facet

; 1548 :       set_prev_facet(fa,fb);

	push	ebx
	push	edi
	call	_set_prev_facet

; 1549 :       set_prev_facet(fb,fe);

	push	esi
	push	ebx
	call	_set_prev_facet
	add	esp, 48					; 00000030H
$LN287@fe_reorder:

; 1550 :       body_order = 1;

	mov	DWORD PTR _body_order$[ebp], 1
$LN45@fe_reorder:

; 1551 :     }
; 1552 :     /* else fall through to geometric test */
; 1553 :   }
; 1554 : 
; 1555 :   /* use first facet as reference facet */
; 1556 :   /* to get basis for calculating angles */
; 1557 :   get_edge_side(e_id,side);     

	mov	esi, DWORD PTR _e_id$[ebp]
	lea	ecx, DWORD PTR _side$[ebp]
	push	ecx
	push	esi
	call	_get_edge_side

; 1558 :   fe = get_edge_fe(e_id);

	mov	edx, DWORD PTR _web+124
	mov	eax, DWORD PTR tv1312[ebp]
	mov	eax, DWORD PTR [edx+eax*4]
	add	esp, 8
	test	eax, eax
	jne	SHORT $LN83@fe_reorder
	xor	esi, esi
	jmp	SHORT $LN84@fe_reorder
$LN83@fe_reorder:
	mov	eax, DWORD PTR [eax+28]
	test	esi, 134217728				; 08000000H
	je	SHORT $LN82@fe_reorder
	xor	eax, 134217728				; 08000000H
$LN82@fe_reorder:
	mov	esi, eax
$LN84@fe_reorder:

; 1559 :   fe_list[0].fe = fe;
; 1560 :   get_fe_side(get_next_edge(fe),side_a);

	mov	ecx, DWORD PTR _web+460
	mov	ebx, esi
	mov	DWORD PTR _fe_list$[ebp], esi
	and	esi, 134217727				; 07ffffffH
	add	esi, esi
	shr	ebx, 27					; 0000001bH
	add	esi, esi
	and	ebx, 1
	je	SHORT $LN87@fe_reorder
	mov	edx, DWORD PTR [esi+ecx]
	mov	eax, DWORD PTR [edx+28]
	xor	eax, 134217728				; 08000000H
	jmp	SHORT $LN86@fe_reorder
$LN87@fe_reorder:
	mov	eax, DWORD PTR [esi+ecx]
	mov	eax, DWORD PTR [eax+32]
$LN86@fe_reorder:
	lea	edx, DWORD PTR _side_a$[ebp]
	push	edx
	mov	edx, eax
	and	edx, 134217727				; 07ffffffH
	mov	ecx, DWORD PTR [ecx+edx*4]
	and	eax, 134217728				; 08000000H
	xor	eax, DWORD PTR [ecx+20]
	push	eax
	call	_get_edge_side

; 1561 :   cross_prod(side,side_a,norm_a);

	lea	edx, DWORD PTR _norm_a$[ebp]
	push	edx
	lea	eax, DWORD PTR _side_a$[ebp]
	push	eax
	lea	ecx, DWORD PTR _side$[ebp]
	push	ecx
	call	_cross_prod

; 1562 :   cross_prod(norm_a,side,norm_aa);

	lea	edx, DWORD PTR _norm_aa$[ebp]
	push	edx
	lea	eax, DWORD PTR _side$[ebp]
	push	eax
	lea	ecx, DWORD PTR _norm_a$[ebp]
	push	ecx
	call	_cross_prod

; 1563 :   a_norm = sqrt(SDIM_dot(norm_a,norm_a));

	mov	edx, DWORD PTR _web+616
	push	edx
	lea	eax, DWORD PTR _norm_a$[ebp]
	push	eax
	mov	ecx, eax
	push	ecx
	call	_dot
	add	esp, 44					; 0000002cH
	call	__CIsqrt
	fstp	QWORD PTR _a_norm$[ebp]

; 1564 :   aa_norm = sqrt(SDIM_dot(norm_aa,norm_aa));

	mov	edx, DWORD PTR _web+616
	push	edx
	lea	eax, DWORD PTR _norm_aa$[ebp]
	push	eax
	mov	ecx, eax
	push	ecx
	call	_dot
	add	esp, 12					; 0000000cH
	call	__CIsqrt
	fstp	QWORD PTR _aa_norm$[ebp]

; 1565 : 
; 1566 :   /* now get angles to rest of facets */
; 1567 :   fe_list[0].angle = 0.0;
; 1568 :   for ( i = 1 ; i < fcount ; i++ )

	cmp	DWORD PTR _fcount$[ebp], 1
	fldz
	fld	ST(0)
	fst	QWORD PTR _fe_list$[ebp+8]
	jle	$LN42@fe_reorder
	mov	edx, DWORD PTR _fcount$[ebp]
	fstp	ST(1)
	dec	edx
	fstp	ST(0)
	lea	edi, DWORD PTR _fe_list$[ebp+24]
	mov	DWORD PTR tv1201[ebp], edx
	npad	8
$LL44@fe_reorder:

; 1569 :   { fe = get_next_facet(fe);

	mov	ecx, DWORD PTR _web+460
	test	ebx, ebx
	je	SHORT $LN93@fe_reorder
	mov	eax, DWORD PTR [esi+ecx]
	mov	eax, DWORD PTR [eax+36]
	xor	eax, 134217728				; 08000000H
	jmp	SHORT $LN92@fe_reorder
$LN93@fe_reorder:
	mov	edx, DWORD PTR [esi+ecx]
	mov	eax, DWORD PTR [edx+40]
$LN92@fe_reorder:

; 1570 :     fe_list[i].fe = fe;
; 1571 :     get_fe_side(get_next_edge(fe),side_b);

	mov	ebx, eax
	mov	DWORD PTR [edi-8], eax
	and	eax, 134217727				; 07ffffffH
	shr	ebx, 27					; 0000001bH
	add	eax, eax
	and	ebx, 1
	lea	esi, DWORD PTR [eax+eax]
	je	SHORT $LN97@fe_reorder
	mov	eax, DWORD PTR [esi+ecx]
	mov	eax, DWORD PTR [eax+28]
	xor	eax, 134217728				; 08000000H
	jmp	SHORT $LN96@fe_reorder
$LN97@fe_reorder:
	mov	edx, DWORD PTR [esi+ecx]
	mov	eax, DWORD PTR [edx+32]
$LN96@fe_reorder:
	lea	edx, DWORD PTR _side_b$[ebp]
	push	edx
	mov	edx, eax
	and	edx, 134217727				; 07ffffffH
	mov	ecx, DWORD PTR [ecx+edx*4]
	and	eax, 134217728				; 08000000H
	xor	eax, DWORD PTR [ecx+20]
	push	eax
	call	_get_edge_side

; 1572 :     s = SDIM_dot(side_b,norm_a)*aa_norm;

	mov	edx, DWORD PTR _web+616
	push	edx
	lea	eax, DWORD PTR _norm_a$[ebp]
	push	eax
	lea	ecx, DWORD PTR _side_b$[ebp]
	push	ecx
	call	_dot
	fmul	QWORD PTR _aa_norm$[ebp]

; 1573 :     c = SDIM_dot(side_b,norm_aa)*a_norm;

	mov	edx, DWORD PTR _web+616
	push	edx
	lea	eax, DWORD PTR _norm_aa$[ebp]
	fstp	QWORD PTR _s$[ebp]
	push	eax
	lea	ecx, DWORD PTR _side_b$[ebp]
	push	ecx
	call	_dot
	fmul	QWORD PTR _a_norm$[ebp]

; 1574 :     angle = atan2(s,c);

	fld	QWORD PTR _s$[ebp]
	add	esp, 32					; 00000020H
	fxch	ST(1)
	call	__CIatan2

; 1575 :     fe_list[i].angle = angle;

	fstp	QWORD PTR [edi]
	add	edi, 16					; 00000010H
	dec	DWORD PTR tv1201[ebp]
	jne	$LL44@fe_reorder

; 1565 : 
; 1566 :   /* now get angles to rest of facets */
; 1567 :   fe_list[0].angle = 0.0;
; 1568 :   for ( i = 1 ; i < fcount ; i++ )

	fldz
	fld	QWORD PTR _fe_list$[ebp+8]
$LN42@fe_reorder:

; 1576 :   }
; 1577 :   if ( body_order )

	cmp	DWORD PTR _body_order$[ebp], 0
	je	$LN224@fe_reorder

; 1578 :   { /* warn if not agreeing with geometric order */
; 1579 :     if ( ((fe_list[1].angle > 0) && (fe_list[2].angle > fe_list[0].angle) && 
; 1580 :            (fe_list[2].angle < fe_list[1].angle))  ||
; 1581 :       (( (fe_list[1].angle < 0) && ((fe_list[2].angle > fe_list[0].angle) || 
; 1582 :            (fe_list[2].angle < fe_list[1].angle)))   )
; 1583 :       )

	fld	QWORD PTR _fe_list$[ebp+24]
	fcom	ST(2)
	fnstsw	ax
	fld	QWORD PTR _fe_list$[ebp+40]
	test	ah, 65					; 00000041H
	jne	SHORT $LN38@fe_reorder
	fcom	ST(2)
	fnstsw	ax
	test	ah, 65					; 00000041H
	jne	SHORT $LN38@fe_reorder
	fcom	ST(1)
	fnstsw	ax
	test	ah, 5
	jnp	SHORT $LN231@fe_reorder
$LN38@fe_reorder:
	fxch	ST(3)
	fcomp	ST(1)
	fnstsw	ax
	test	ah, 65					; 00000041H
	jne	$LN233@fe_reorder
	fxch	ST(1)
	fcomp	ST(2)
	fnstsw	ax
	test	ah, 5
	jnp	SHORT $LN236@fe_reorder
	fcompp
	fnstsw	ax
	test	ah, 65					; 00000041H
	jne	$LN218@fe_reorder
	jmp	SHORT $LN37@fe_reorder
$LN231@fe_reorder:
	fstp	ST(1)
	fstp	ST(0)
	fstp	ST(1)
	jmp	SHORT $LN288@fe_reorder
$LN236@fe_reorder:
	fstp	ST(0)
$LN288@fe_reorder:
	fstp	ST(0)
$LN37@fe_reorder:

; 1584 :     { sprintf(errmsg,
; 1585 :          "Edge %s facets body order disagrees with geometric order.\n",
; 1586 :             ELNAME(e_id));

	test	DWORD PTR _e_id$[ebp], 268435456	; 10000000H
	je	SHORT $LN62@fe_reorder
	mov	edx, DWORD PTR tv1312[ebp]
	inc	edx
	push	edx
	push	OFFSET ??_C@_02DPKJAMEF@?$CFd?$AA@
	push	OFFSET _elnames
	call	_sprintf
	add	esp, 12					; 0000000cH
	mov	eax, OFFSET _elnames
	jmp	SHORT $LN63@fe_reorder
$LN62@fe_reorder:
	mov	eax, OFFSET ??_C@_00CNPNBAHC@?$AA@
$LN63@fe_reorder:
	push	eax
	push	OFFSET ??_C@_0DL@PDBOKNGE@Edge?5?$CFs?5facets?5body?5order?5disagr@
	push	OFFSET _errmsg
	call	_sprintf

; 1587 :       kb_error(3857,errmsg,WARNING);

	push	2
	push	OFFSET _errmsg
	push	3857					; 00000f11H
	call	_kb_error
	add	esp, 24					; 00000018H
	pop	edi
	pop	ebx
	pop	esi

; 1697 :   }
; 1698 : } // end fe_reorder()

	mov	ecx, DWORD PTR __$ArrayPad$[ebp]
	xor	ecx, ebp
	call	@__security_check_cookie@4
	mov	esp, ebp
	pop	ebp
	ret	0
$LN224@fe_reorder:

; 1588 :     } 
; 1589 :     return;
; 1590 :   }
; 1591 : 
; 1592 :   /* sort by angle */
; 1593 : /* Bombed in IRIX 6 long double mode
; 1594 :   qsort((char *)&fe_list[1],fcount-1,sizeof(struct fsort),FCAST fcompare);
; 1595 : */
; 1596 :   for ( j = 0 ; j < fcount-1 ; j++ )

	mov	ebx, DWORD PTR _fcount$[ebp]
	fstp	ST(1)
	lea	eax, DWORD PTR [ebx-1]
	fstp	ST(0)
	test	eax, eax
	jle	$LN34@fe_reorder
	mov	edi, 1
	mov	DWORD PTR tv2292[ebp], edi
	lea	ecx, DWORD PTR _fe_list$[ebp]
	mov	DWORD PTR tv2361[ebp], eax
	mov	DWORD PTR tv628[ebp], eax
	npad	1
$LL36@fe_reorder:

; 1597 :     for ( k = j+1 ; k < fcount ; k++ )

	mov	eax, edi
	cmp	edi, ebx
	jge	$LN35@fe_reorder
	cmp	DWORD PTR tv2361[ebp], 4
	jl	$LC195@fe_reorder

; 1598 :        if ( fe_list[k].angle < fe_list[j].angle )

	mov	esi, ebx
	sub	esi, edi
	sub	esi, 4
	shr	esi, 2
	inc	esi
	lea	eax, DWORD PTR [edi+esi*4]
	lea	edx, DWORD PTR [ecx+16]
	mov	DWORD PTR _k$[ebp], eax
	npad	2
$LL200@fe_reorder:
	fld	QWORD PTR [ecx+8]
	fcomp	QWORD PTR [edx+8]
	fnstsw	ax
	test	ah, 65					; 00000041H
	jne	SHORT $LN196@fe_reorder

; 1599 :        { struct fsort ftemp;
; 1600 :          ftemp = fe_list[k];

	mov	ebx, DWORD PTR [edx+8]
	mov	eax, DWORD PTR [edx]
	mov	edi, DWORD PTR [edx+4]
	mov	DWORD PTR _ftemp$90194[ebp+8], ebx
	mov	ebx, DWORD PTR [edx+12]
	mov	DWORD PTR _ftemp$90194[ebp+12], ebx

; 1601 :          fe_list[k] = fe_list[j];

	mov	ebx, DWORD PTR [ecx]
	mov	DWORD PTR [edx], ebx
	mov	ebx, DWORD PTR [ecx+4]
	mov	DWORD PTR [edx+4], ebx
	mov	ebx, DWORD PTR [ecx+8]
	mov	DWORD PTR [edx+8], ebx
	mov	ebx, DWORD PTR [ecx+12]
	mov	DWORD PTR [edx+12], ebx

; 1602 :          fe_list[j] = ftemp;

	mov	DWORD PTR [ecx], eax
	mov	eax, DWORD PTR _ftemp$90194[ebp+8]
	mov	DWORD PTR [ecx+4], edi
	mov	DWORD PTR [ecx+8], eax
	mov	eax, DWORD PTR _ftemp$90194[ebp+12]
	mov	DWORD PTR [ecx+12], eax
$LN196@fe_reorder:

; 1598 :        if ( fe_list[k].angle < fe_list[j].angle )

	fld	QWORD PTR [ecx+8]
	fcomp	QWORD PTR [edx+24]
	fnstsw	ax
	test	ah, 65					; 00000041H
	jne	SHORT $LN197@fe_reorder

; 1599 :        { struct fsort ftemp;
; 1600 :          ftemp = fe_list[k];

	mov	ebx, DWORD PTR [edx+24]
	mov	eax, DWORD PTR [edx+16]
	mov	edi, DWORD PTR [edx+20]
	mov	DWORD PTR _ftemp$90194[ebp+8], ebx
	mov	ebx, DWORD PTR [edx+28]
	mov	DWORD PTR _ftemp$90194[ebp+12], ebx

; 1601 :          fe_list[k] = fe_list[j];

	mov	ebx, DWORD PTR [ecx]
	mov	DWORD PTR [edx+16], ebx
	mov	ebx, DWORD PTR [ecx+4]
	mov	DWORD PTR [edx+20], ebx
	mov	ebx, DWORD PTR [ecx+8]
	mov	DWORD PTR [edx+24], ebx
	mov	ebx, DWORD PTR [ecx+12]
	mov	DWORD PTR [edx+28], ebx

; 1602 :          fe_list[j] = ftemp;

	mov	DWORD PTR [ecx], eax
	mov	eax, DWORD PTR _ftemp$90194[ebp+8]
	mov	DWORD PTR [ecx+4], edi
	mov	DWORD PTR [ecx+8], eax
	mov	eax, DWORD PTR _ftemp$90194[ebp+12]
	mov	DWORD PTR [ecx+12], eax
$LN197@fe_reorder:

; 1598 :        if ( fe_list[k].angle < fe_list[j].angle )

	fld	QWORD PTR [ecx+8]
	fcomp	QWORD PTR [edx+40]
	fnstsw	ax
	test	ah, 65					; 00000041H
	jne	SHORT $LN198@fe_reorder

; 1599 :        { struct fsort ftemp;
; 1600 :          ftemp = fe_list[k];

	mov	ebx, DWORD PTR [edx+40]
	mov	eax, DWORD PTR [edx+32]
	mov	edi, DWORD PTR [edx+36]
	mov	DWORD PTR _ftemp$90194[ebp+8], ebx
	mov	ebx, DWORD PTR [edx+44]
	mov	DWORD PTR _ftemp$90194[ebp+12], ebx

; 1601 :          fe_list[k] = fe_list[j];

	mov	ebx, DWORD PTR [ecx]
	mov	DWORD PTR [edx+32], ebx
	mov	ebx, DWORD PTR [ecx+4]
	mov	DWORD PTR [edx+36], ebx
	mov	ebx, DWORD PTR [ecx+8]
	mov	DWORD PTR [edx+40], ebx
	mov	ebx, DWORD PTR [ecx+12]
	mov	DWORD PTR [edx+44], ebx

; 1602 :          fe_list[j] = ftemp;

	mov	DWORD PTR [ecx], eax
	mov	eax, DWORD PTR _ftemp$90194[ebp+8]
	mov	DWORD PTR [ecx+4], edi
	mov	DWORD PTR [ecx+8], eax
	mov	eax, DWORD PTR _ftemp$90194[ebp+12]
	mov	DWORD PTR [ecx+12], eax
$LN198@fe_reorder:

; 1598 :        if ( fe_list[k].angle < fe_list[j].angle )

	fld	QWORD PTR [ecx+8]
	fcomp	QWORD PTR [edx+56]
	fnstsw	ax
	test	ah, 65					; 00000041H
	jne	SHORT $LN199@fe_reorder

; 1599 :        { struct fsort ftemp;
; 1600 :          ftemp = fe_list[k];

	mov	ebx, DWORD PTR [edx+56]
	mov	eax, DWORD PTR [edx+48]
	mov	edi, DWORD PTR [edx+52]
	mov	DWORD PTR _ftemp$90194[ebp+8], ebx
	mov	ebx, DWORD PTR [edx+60]
	mov	DWORD PTR _ftemp$90194[ebp+12], ebx

; 1601 :          fe_list[k] = fe_list[j];

	mov	ebx, DWORD PTR [ecx]
	mov	DWORD PTR [edx+48], ebx
	mov	ebx, DWORD PTR [ecx+4]
	mov	DWORD PTR [edx+52], ebx
	mov	ebx, DWORD PTR [ecx+8]
	mov	DWORD PTR [edx+56], ebx
	mov	ebx, DWORD PTR [ecx+12]
	mov	DWORD PTR [edx+60], ebx

; 1602 :          fe_list[j] = ftemp;

	mov	DWORD PTR [ecx], eax
	mov	eax, DWORD PTR _ftemp$90194[ebp+8]
	mov	DWORD PTR [ecx+4], edi
	mov	DWORD PTR [ecx+8], eax
	mov	eax, DWORD PTR _ftemp$90194[ebp+12]
	mov	DWORD PTR [ecx+12], eax
$LN199@fe_reorder:

; 1598 :        if ( fe_list[k].angle < fe_list[j].angle )

	add	edx, 64					; 00000040H
	dec	esi
	jne	$LL200@fe_reorder
	mov	eax, DWORD PTR _k$[ebp]
	mov	edi, DWORD PTR tv2292[ebp]
	mov	ebx, DWORD PTR _fcount$[ebp]
$LC195@fe_reorder:

; 1597 :     for ( k = j+1 ; k < fcount ; k++ )

	cmp	eax, ebx
	jge	SHORT $LN35@fe_reorder
	mov	edx, eax
	add	edx, edx
	sub	ebx, eax
	lea	edx, DWORD PTR _fe_list$[ebp+edx*8]
	mov	DWORD PTR tv1002[ebp], ebx
	npad	3
$LC33@fe_reorder:

; 1598 :        if ( fe_list[k].angle < fe_list[j].angle )

	fld	QWORD PTR [ecx+8]
	fcomp	QWORD PTR [edx+8]
	fnstsw	ax
	test	ah, 65					; 00000041H
	jne	SHORT $LN32@fe_reorder

; 1599 :        { struct fsort ftemp;
; 1600 :          ftemp = fe_list[k];

	mov	ebx, DWORD PTR [edx+12]
	mov	eax, DWORD PTR [edx]
	mov	esi, DWORD PTR [edx+4]
	mov	edi, DWORD PTR [edx+8]
	mov	DWORD PTR _ftemp$90194[ebp+12], ebx

; 1601 :          fe_list[k] = fe_list[j];

	mov	ebx, DWORD PTR [ecx]
	mov	DWORD PTR [edx], ebx
	mov	ebx, DWORD PTR [ecx+4]
	mov	DWORD PTR [edx+4], ebx
	mov	ebx, DWORD PTR [ecx+8]
	mov	DWORD PTR [edx+8], ebx
	mov	ebx, DWORD PTR [ecx+12]
	mov	DWORD PTR [edx+12], ebx

; 1602 :          fe_list[j] = ftemp;

	mov	DWORD PTR [ecx], eax
	mov	eax, DWORD PTR _ftemp$90194[ebp+12]
	mov	DWORD PTR [ecx+4], esi
	mov	DWORD PTR [ecx+8], edi
	mov	DWORD PTR [ecx+12], eax
$LN32@fe_reorder:

; 1597 :     for ( k = j+1 ; k < fcount ; k++ )

	add	edx, 16					; 00000010H
	dec	DWORD PTR tv1002[ebp]
	jne	SHORT $LC33@fe_reorder
	mov	edi, DWORD PTR tv2292[ebp]
	mov	ebx, DWORD PTR _fcount$[ebp]
$LN35@fe_reorder:

; 1588 :     } 
; 1589 :     return;
; 1590 :   }
; 1591 : 
; 1592 :   /* sort by angle */
; 1593 : /* Bombed in IRIX 6 long double mode
; 1594 :   qsort((char *)&fe_list[1],fcount-1,sizeof(struct fsort),FCAST fcompare);
; 1595 : */
; 1596 :   for ( j = 0 ; j < fcount-1 ; j++ )

	mov	eax, 1
	sub	DWORD PTR tv2361[ebp], eax
	add	edi, eax
	add	ecx, 16					; 00000010H
	sub	DWORD PTR tv628[ebp], eax
	mov	DWORD PTR tv2292[ebp], edi
	jne	$LL36@fe_reorder
$LN34@fe_reorder:

; 1603 :        } 
; 1604 : 
; 1605 :   /* check consistency for facets on bodies */
; 1606 :   bodies_ok = 1;
; 1607 :   for ( i = 0 ; i < fcount ; i++ )

	xor	esi, esi
	test	ebx, ebx
	jle	$LN4@fe_reorder
	mov	edi, DWORD PTR _web+328
	mov	ebx, DWORD PTR _web+236
	lea	ecx, DWORD PTR _fe_list$[ebp]
	mov	DWORD PTR tv2422[ebp], ecx
$LL214@fe_reorder:

; 1608 :   { facet_id f1,f2;
; 1609 :     int ii = (i == fcount-1) ? 0 : i+1;

	mov	eax, DWORD PTR _fcount$[ebp]
	dec	eax
	cmp	esi, eax
	jne	SHORT $LN64@fe_reorder
	xor	edx, edx
	jmp	SHORT $LN65@fe_reorder
$LN64@fe_reorder:
	lea	edx, DWORD PTR [esi+1]
$LN65@fe_reorder:

; 1610 :     f1 = facet_inverse(get_fe_facet(fe_list[i].fe));

	mov	eax, DWORD PTR tv2422[ebp]
	mov	ecx, DWORD PTR [eax]
	test	ecx, 268435456				; 10000000H
	jne	SHORT $LN103@fe_reorder
	mov	eax, DWORD PTR _NULLFACET
	jmp	SHORT $LN104@fe_reorder
$LN103@fe_reorder:
	mov	ebx, DWORD PTR _web+460
	mov	eax, ecx
	and	eax, 134217727				; 07ffffffH
	mov	eax, DWORD PTR [ebx+eax*4]
	mov	eax, DWORD PTR [eax+24]
	test	ecx, 134217728				; 08000000H
	je	SHORT $LN102@fe_reorder
	xor	eax, 134217728				; 08000000H
$LN102@fe_reorder:
	mov	ebx, DWORD PTR _web+236
$LN104@fe_reorder:

; 1611 :     f2 = get_fe_facet(fe_list[ii].fe);

	add	edx, edx
	mov	edx, DWORD PTR _fe_list$[ebp+edx*8]
	xor	eax, 134217728				; 08000000H
	test	edx, 268435456				; 10000000H
	jne	SHORT $LN107@fe_reorder
	mov	ecx, DWORD PTR _NULLFACET
	jmp	SHORT $LN108@fe_reorder
$LN107@fe_reorder:
	mov	ebx, DWORD PTR _web+460
	mov	ecx, edx
	and	ecx, 134217727				; 07ffffffH
	mov	ecx, DWORD PTR [ebx+ecx*4]
	mov	ecx, DWORD PTR [ecx+24]
	test	edx, 134217728				; 08000000H
	je	SHORT $LN106@fe_reorder
	xor	ecx, 134217728				; 08000000H
$LN106@fe_reorder:
	mov	ebx, DWORD PTR _web+236
$LN108@fe_reorder:

; 1612 :     if ( !equal_id(get_facet_body(f1),get_facet_body(f2)) )

	cmp	DWORD PTR _web+400, 0
	je	$LN204@fe_reorder
	test	eax, 268435456				; 10000000H
	jne	SHORT $LN112@fe_reorder
	xor	edx, edx
	jmp	SHORT $LN119@fe_reorder
$LN112@fe_reorder:
	test	eax, 134217728				; 08000000H
	je	SHORT $LN111@fe_reorder
	and	eax, 134217727				; 07ffffffH
	mov	edx, DWORD PTR [ebx+eax*4]
	mov	eax, DWORD PTR _dymem
	mov	eax, DWORD PTR [edi+eax+784]
	mov	edx, DWORD PTR [edx+eax+4]
	jmp	SHORT $LN119@fe_reorder
$LN111@fe_reorder:
	and	eax, 134217727				; 07ffffffH
	mov	edx, DWORD PTR [ebx+eax*4]
	mov	eax, DWORD PTR _dymem
	mov	eax, DWORD PTR [edi+eax+784]
	mov	edx, DWORD PTR [edx+eax]
$LN119@fe_reorder:
	test	ecx, 268435456				; 10000000H
	jne	SHORT $LN118@fe_reorder
	xor	eax, eax
	jmp	SHORT $LN116@fe_reorder
$LN118@fe_reorder:
	mov	eax, DWORD PTR _dymem
	mov	eax, DWORD PTR [edi+eax+784]
	test	ecx, 134217728				; 08000000H
	je	SHORT $LN117@fe_reorder
	and	ecx, 134217727				; 07ffffffH
	mov	ecx, DWORD PTR [ebx+ecx*4]
	mov	eax, DWORD PTR [ecx+eax+4]
	jmp	SHORT $LN116@fe_reorder
$LN117@fe_reorder:
	and	ecx, 134217727				; 07ffffffH
	mov	ecx, DWORD PTR [ebx+ecx*4]
	mov	eax, DWORD PTR [ecx+eax]
$LN116@fe_reorder:
	cmp	edx, eax
	jne	SHORT $LN182@fe_reorder
$LN204@fe_reorder:

; 1603 :        } 
; 1604 : 
; 1605 :   /* check consistency for facets on bodies */
; 1606 :   bodies_ok = 1;
; 1607 :   for ( i = 0 ; i < fcount ; i++ )

	add	DWORD PTR tv2422[ebp], 16		; 00000010H
	inc	esi
	cmp	esi, DWORD PTR _fcount$[ebp]
	jl	$LL214@fe_reorder

; 1666 :         if ( !equal_id(get_facet_body(f1),get_facet_body(f2)) )

	jmp	$LN4@fe_reorder
$LN182@fe_reorder:

; 1613 :     { bodies_ok = 0;
; 1614 :       break;
; 1615 :     }
; 1616 :   }
; 1617 : 
; 1618 :   if ( !bodies_ok )
; 1619 :   { // see if body matching forces order
; 1620 :     bodies_ok = 1;

	mov	eax, DWORD PTR _fcount$[ebp]
	mov	edx, 1
	mov	ecx, edx
	sub	ecx, eax
	mov	DWORD PTR tv2465[ebp], ecx
	lea	ecx, DWORD PTR _fe_list$[ebp]
	mov	DWORD PTR _bodies_ok$[ebp], edx
	mov	DWORD PTR tv2440[ebp], edx
	mov	DWORD PTR tv2469[ebp], ecx
	mov	DWORD PTR tv201[ebp], eax
	mov	esi, edx
	jmp	SHORT $LN24@fe_reorder
$LL215@fe_reorder:
	mov	eax, DWORD PTR _fcount$[ebp]
$LN24@fe_reorder:

; 1622 :     { int kk;
; 1623 :       for ( kk = k+1 ; kk < fcount+k ; kk++ )

	dec	eax
	add	eax, esi
	mov	DWORD PTR _kk$90206[ebp], esi
	mov	DWORD PTR tv2480[ebp], eax
	cmp	esi, eax
	jge	$LN19@fe_reorder

; 1625 :         body_id kbod,kkbod;
; 1626 :         kbod = get_facet_body(inverse_id(get_fe_facet(fe_list[k].fe)));

	mov	eax, DWORD PTR tv2469[ebp]
	mov	eax, DWORD PTR [eax]
	mov	ecx, DWORD PTR tv2465[ebp]
	mov	DWORD PTR $T92129[ebp], eax
	shr	eax, 28					; 0000001cH
	and	eax, edx
	mov	DWORD PTR tv1553[ebp], eax
	mov	DWORD PTR tv2432[ebp], ecx
$LL21@fe_reorder:

; 1624 :       { int kkk = (kk >= fcount) ? kk-fcount : kk;

	cmp	esi, DWORD PTR _fcount$[ebp]
	jl	SHORT $LN66@fe_reorder
	mov	edx, DWORD PTR tv2432[ebp]
	mov	DWORD PTR _kkk$90210[ebp], edx
	jmp	SHORT $LN67@fe_reorder
$LN66@fe_reorder:
	mov	DWORD PTR _kkk$90210[ebp], esi
$LN67@fe_reorder:

; 1625 :         body_id kbod,kkbod;
; 1626 :         kbod = get_facet_body(inverse_id(get_fe_facet(fe_list[k].fe)));

	cmp	DWORD PTR tv1553[ebp], 0
	jne	SHORT $LN123@fe_reorder
	mov	eax, DWORD PTR _NULLFACET
	jmp	SHORT $LN122@fe_reorder
$LN123@fe_reorder:
	mov	ecx, DWORD PTR $T92129[ebp]
	mov	edx, DWORD PTR _web+460
	mov	eax, ecx
	and	eax, 134217727				; 07ffffffH
	mov	eax, DWORD PTR [edx+eax*4]
	mov	eax, DWORD PTR [eax+24]
	test	ecx, 134217728				; 08000000H
	je	SHORT $LN122@fe_reorder
	xor	eax, 134217728				; 08000000H
$LN122@fe_reorder:
	xor	eax, 134217728				; 08000000H
	test	eax, 268435456				; 10000000H
	jne	SHORT $LN128@fe_reorder
	xor	edx, edx
	jmp	SHORT $LN126@fe_reorder
$LN128@fe_reorder:
	mov	edx, DWORD PTR _dymem
	test	eax, 134217728				; 08000000H
	je	SHORT $LN127@fe_reorder
	and	eax, 134217727				; 07ffffffH
	mov	ecx, DWORD PTR [ebx+eax*4]
	mov	eax, DWORD PTR [edi+edx+784]
	mov	edx, DWORD PTR [ecx+eax+4]
	jmp	SHORT $LN126@fe_reorder
$LN127@fe_reorder:
	and	eax, 134217727				; 07ffffffH
	mov	ecx, DWORD PTR [ebx+eax*4]
	mov	eax, DWORD PTR [edi+edx+784]
	mov	edx, DWORD PTR [ecx+eax]
$LN126@fe_reorder:

; 1627 :         kkbod = get_facet_body(get_fe_facet(fe_list[kkk].fe));

	mov	ecx, DWORD PTR _kkk$90210[ebp]
	add	ecx, ecx
	mov	ecx, DWORD PTR _fe_list$[ebp+ecx*8]
	test	ecx, 268435456				; 10000000H
	jne	SHORT $LN133@fe_reorder
	mov	eax, DWORD PTR _NULLFACET
	jmp	SHORT $LN134@fe_reorder
$LN133@fe_reorder:
	mov	esi, DWORD PTR _web+460
	mov	eax, ecx
	and	eax, 134217727				; 07ffffffH
	mov	eax, DWORD PTR [esi+eax*4]
	mov	eax, DWORD PTR [eax+24]
	test	ecx, 134217728				; 08000000H
	je	SHORT $LN132@fe_reorder
	xor	eax, 134217728				; 08000000H
$LN132@fe_reorder:
	mov	esi, DWORD PTR _kk$90206[ebp]
$LN134@fe_reorder:
	test	eax, 268435456				; 10000000H
	jne	SHORT $LN138@fe_reorder
	xor	eax, eax
	jmp	SHORT $LN136@fe_reorder
$LN138@fe_reorder:
	test	eax, 134217728				; 08000000H
	je	SHORT $LN137@fe_reorder
	and	eax, 134217727				; 07ffffffH
	mov	ecx, DWORD PTR [ebx+eax*4]
	mov	eax, DWORD PTR _dymem
	mov	eax, DWORD PTR [edi+eax+784]
	mov	eax, DWORD PTR [ecx+eax+4]
	jmp	SHORT $LN136@fe_reorder
$LN137@fe_reorder:
	and	eax, 134217727				; 07ffffffH
	mov	ecx, DWORD PTR [ebx+eax*4]
	mov	eax, DWORD PTR _dymem
	mov	eax, DWORD PTR [edi+eax+784]
	mov	eax, DWORD PTR [ecx+eax]
$LN136@fe_reorder:

; 1628 :         if ( kbod == kkbod )

	cmp	edx, eax
	je	SHORT $LN183@fe_reorder

; 1622 :     { int kk;
; 1623 :       for ( kk = k+1 ; kk < fcount+k ; kk++ )

	inc	DWORD PTR tv2432[ebp]
	inc	esi
	mov	DWORD PTR _kk$90206[ebp], esi
	cmp	esi, DWORD PTR tv2480[ebp]
	jl	$LL21@fe_reorder

; 1666 :         if ( !equal_id(get_facet_body(f1),get_facet_body(f2)) )

	jmp	$LN19@fe_reorder
$LN183@fe_reorder:

; 1629 :         { int kkkk;
; 1630 :           struct fsort tempfe;
; 1631 :           if ( kk == k+1 )

	cmp	esi, DWORD PTR tv2440[ebp]
	je	$LN19@fe_reorder

; 1632 :             break;
; 1633 :           // swap 
; 1634 :           kkkk = (k+1 >= fcount) ? k+1-fcount : k+1;

	mov	eax, DWORD PTR tv2440[ebp]
	cmp	eax, DWORD PTR _fcount$[ebp]
	jl	SHORT $LN68@fe_reorder
	mov	eax, DWORD PTR tv2465[ebp]
$LN68@fe_reorder:

; 1635 :           tempfe = fe_list[kkkk];

	add	eax, eax
	mov	ecx, DWORD PTR _fe_list$[ebp+eax*8+12]
	mov	edx, DWORD PTR _fe_list$[ebp+eax*8]
	mov	esi, DWORD PTR _fe_list$[ebp+eax*8+4]
	mov	edi, DWORD PTR _fe_list$[ebp+eax*8+8]
	lea	eax, DWORD PTR _fe_list$[ebp+eax*8]
	mov	DWORD PTR _tempfe$90215[ebp+12], ecx

; 1636 :           fe_list[kkkk] = fe_list[kkk];

	mov	ecx, DWORD PTR _kkk$90210[ebp]
	add	ecx, ecx
	mov	ebx, DWORD PTR _fe_list$[ebp+ecx*8]
	lea	ecx, DWORD PTR _fe_list$[ebp+ecx*8]
	mov	DWORD PTR [eax], ebx
	mov	ebx, DWORD PTR [ecx+4]
	mov	DWORD PTR [eax+4], ebx
	mov	ebx, DWORD PTR [ecx+8]
	mov	DWORD PTR [eax+8], ebx
	mov	ebx, DWORD PTR [ecx+12]
	mov	DWORD PTR [eax+12], ebx

; 1637 :           fe_list[kkk] = tempfe;

	mov	ebx, DWORD PTR _web+236
	mov	DWORD PTR [ecx], edx
	mov	edx, DWORD PTR _tempfe$90215[ebp+12]
	mov	DWORD PTR [ecx+4], esi
	mov	esi, DWORD PTR _kk$90206[ebp]
	mov	DWORD PTR [ecx+8], edi
	mov	edi, DWORD PTR _web+328
	mov	DWORD PTR [ecx+12], edx
$LN19@fe_reorder:

; 1638 :           break;
; 1639 :         }
; 1640 :       }
; 1641 :       if ( kk == fcount+k )

	cmp	esi, DWORD PTR tv2480[ebp]
	jne	SHORT $LN23@fe_reorder

; 1642 :         bodies_ok = 0;

	mov	DWORD PTR _bodies_ok$[ebp], 0
$LN23@fe_reorder:

; 1621 :     for ( k = 0 ; k < fcount ; k++ )

	mov	esi, DWORD PTR tv2440[ebp]
	add	DWORD PTR tv2469[ebp], 16		; 00000010H
	mov	edx, 1
	add	DWORD PTR tv2465[ebp], edx
	add	esi, edx
	sub	DWORD PTR tv201[ebp], edx
	mov	DWORD PTR tv2440[ebp], esi
	jne	$LL215@fe_reorder

; 1643 :     }
; 1644 :   }
; 1645 : 
; 1646 :   if ( !bodies_ok )

	cmp	DWORD PTR _bodies_ok$[ebp], 0
	jne	$LN4@fe_reorder

; 1647 :   { REAL best_violation;
; 1648 :     int k,kk,bestk;
; 1649 :     /* try swaps of adjacent facets, and pick workable one with
; 1650 :        least violation of angle ordering */
; 1651 :     best_violation = 1e30;

	fld	QWORD PTR __real@46293e5939a08cea

; 1652 :     bestk = -1;

	mov	DWORD PTR _bestk$90222[ebp], -1
	fld	QWORD PTR __real@400921fb54442d18

; 1653 :     for ( k = 0 ; k < fcount ; k++ )

	mov	DWORD PTR _k$90220[ebp], 0
	fld	QWORD PTR __real@401921fb54442d18
	lea	ecx, DWORD PTR _fe_list$[ebp]
$LN14@fe_reorder:

; 1654 :     { struct fsort ftemp;
; 1655 :       kk = (k==fcount-1) ? 0 : k+1;

	mov	edx, DWORD PTR _fcount$[ebp]
	mov	eax, DWORD PTR _k$90220[ebp]
	dec	edx
	cmp	eax, edx
	jne	SHORT $LN70@fe_reorder
	xor	eax, eax
	jmp	SHORT $LN71@fe_reorder
$LN70@fe_reorder:
	inc	eax
$LN71@fe_reorder:

; 1656 :       ftemp = fe_list[k];

	mov	edx, DWORD PTR [ecx+12]
	mov	esi, DWORD PTR [ecx]
	mov	edi, DWORD PTR [ecx+4]
	mov	ebx, DWORD PTR [ecx+8]

; 1657 :       fe_list[k] = fe_list[kk];

	shl	eax, 4
	mov	DWORD PTR tv1639[ebp], eax
	mov	DWORD PTR _ftemp$90226[ebp+12], edx
	lea	edx, DWORD PTR _fe_list$[ebp+eax]
	mov	eax, DWORD PTR [edx]
	mov	DWORD PTR [ecx], eax
	mov	eax, DWORD PTR [edx+4]
	mov	DWORD PTR [ecx+4], eax
	mov	eax, DWORD PTR [edx+8]
	mov	DWORD PTR [ecx+8], eax
	mov	eax, DWORD PTR [edx+12]
	mov	DWORD PTR [ecx+12], eax

; 1658 :       fe_list[kk] = ftemp;

	mov	eax, DWORD PTR _ftemp$90226[ebp+12]
	mov	DWORD PTR [edx], esi
	mov	DWORD PTR [edx+4], edi
	mov	DWORD PTR [edx+8], ebx
	mov	DWORD PTR [edx+12], eax

; 1659 :  
; 1660 :       bodies_ok = 1;
; 1661 :       for ( i = 0 ; i < fcount-1 ; i++ )

	mov	eax, DWORD PTR _fcount$[ebp]
	dec	eax
	mov	DWORD PTR _i$[ebp], 0
	test	eax, eax
	jle	$LN207@fe_reorder

; 1656 :       ftemp = fe_list[k];

	mov	ebx, DWORD PTR _web+328
	lea	eax, DWORD PTR _fe_list$[ebp+16]
	mov	DWORD PTR tv2515[ebp], eax
$LN208@fe_reorder:

; 1662 :       { facet_id f1,f2;
; 1663 : 
; 1664 :         f1 = facet_inverse(get_fe_facet(fe_list[i].fe));

	mov	eax, DWORD PTR tv2515[ebp]
	mov	esi, DWORD PTR [eax-16]
	test	esi, 268435456				; 10000000H
	jne	SHORT $LN143@fe_reorder
	mov	eax, DWORD PTR _NULLFACET
	jmp	SHORT $LN142@fe_reorder
$LN143@fe_reorder:
	mov	edi, DWORD PTR _web+460
	mov	eax, esi
	and	eax, 134217727				; 07ffffffH
	mov	eax, DWORD PTR [edi+eax*4]
	mov	eax, DWORD PTR [eax+24]
	test	esi, 134217728				; 08000000H
	je	SHORT $LN142@fe_reorder
	xor	eax, 134217728				; 08000000H
$LN142@fe_reorder:

; 1665 :         f2 = get_fe_facet(fe_list[i+1].fe);

	mov	esi, DWORD PTR tv2515[ebp]
	mov	edi, DWORD PTR [esi]
	xor	eax, 134217728				; 08000000H
	test	edi, 268435456				; 10000000H
	jne	SHORT $LN147@fe_reorder
	mov	esi, DWORD PTR _NULLFACET
	jmp	SHORT $LN148@fe_reorder
$LN147@fe_reorder:
	mov	ebx, DWORD PTR _web+460
	mov	esi, edi
	and	esi, 134217727				; 07ffffffH
	mov	esi, DWORD PTR [ebx+esi*4]
	mov	esi, DWORD PTR [esi+24]
	test	edi, 134217728				; 08000000H
	je	SHORT $LN146@fe_reorder
	xor	esi, 134217728				; 08000000H
$LN146@fe_reorder:
	mov	ebx, DWORD PTR _web+328
$LN148@fe_reorder:

; 1666 :         if ( !equal_id(get_facet_body(f1),get_facet_body(f2)) )

	test	eax, 268435456				; 10000000H
	jne	SHORT $LN152@fe_reorder
	mov	eax, DWORD PTR _dymem
	mov	DWORD PTR $T92176[ebp], 0
	jmp	SHORT $LN150@fe_reorder
$LN152@fe_reorder:
	mov	edi, DWORD PTR _web+236
	test	eax, 134217728				; 08000000H
	je	SHORT $LN151@fe_reorder
	and	eax, 134217727				; 07ffffffH
	mov	edi, DWORD PTR [edi+eax*4]
	mov	eax, DWORD PTR _dymem
	mov	ebx, DWORD PTR [ebx+eax+784]
	mov	edi, DWORD PTR [edi+ebx+4]
	jmp	SHORT $LN289@fe_reorder
$LN151@fe_reorder:
	and	eax, 134217727				; 07ffffffH
	mov	edi, DWORD PTR [edi+eax*4]
	mov	eax, DWORD PTR _dymem
	mov	ebx, DWORD PTR [ebx+eax+784]
	mov	edi, DWORD PTR [edi+ebx]
$LN289@fe_reorder:
	mov	ebx, DWORD PTR _web+328
	mov	DWORD PTR $T92176[ebp], edi
$LN150@fe_reorder:
	test	esi, 268435456				; 10000000H
	jne	SHORT $LN158@fe_reorder
	xor	eax, eax
	jmp	SHORT $LN156@fe_reorder
$LN158@fe_reorder:
	mov	edi, DWORD PTR _web+236
	mov	eax, DWORD PTR [ebx+eax+784]
	test	esi, 134217728				; 08000000H
	je	SHORT $LN157@fe_reorder
	and	esi, 134217727				; 07ffffffH
	mov	esi, DWORD PTR [edi+esi*4]
	mov	eax, DWORD PTR [esi+eax+4]
	jmp	SHORT $LN156@fe_reorder
$LN157@fe_reorder:
	and	esi, 134217727				; 07ffffffH
	mov	esi, DWORD PTR [edi+esi*4]
	mov	eax, DWORD PTR [esi+eax]
$LN156@fe_reorder:
	cmp	DWORD PTR $T92176[ebp], eax
	jne	SHORT $LN5@fe_reorder

; 1659 :  
; 1660 :       bodies_ok = 1;
; 1661 :       for ( i = 0 ; i < fcount-1 ; i++ )

	mov	esi, DWORD PTR _i$[ebp]
	mov	eax, DWORD PTR _fcount$[ebp]
	add	DWORD PTR tv2515[ebp], 16		; 00000010H
	inc	esi
	dec	eax
	mov	DWORD PTR _i$[ebp], esi
	cmp	esi, eax
	jl	$LN208@fe_reorder
$LN207@fe_reorder:

; 1667 :         { bodies_ok = 0;
; 1668 :           break;
; 1669 :         }
; 1670 :       }
; 1671 :       if ( bodies_ok )
; 1672 :       { REAL violation = fabs(fe_list[k].angle-fe_list[kk].angle);

	mov	eax, DWORD PTR tv1639[ebp]
	fld	QWORD PTR [ecx+8]
	fsub	QWORD PTR _fe_list$[ebp+eax+8]
	fabs

; 1673 :         if ( violation > M_PI ) 

	fcom	ST(2)
	fnstsw	ax
	test	ah, 65					; 00000041H
	jne	SHORT $LN6@fe_reorder

; 1674 :            violation = 2*M_PI - violation;  /* shortest way */

	fsubr	ST(0), ST(1)
$LN6@fe_reorder:

; 1675 :         if ( violation < best_violation )

	fcom	ST(3)
	fnstsw	ax
	test	ah, 5
	jp	SHORT $LN285@fe_reorder

; 1676 :         { bestk = k;

	mov	eax, DWORD PTR _k$90220[ebp]
	fstp	ST(3)
	mov	DWORD PTR _bestk$90222[ebp], eax

; 1677 :           best_violation = violation;

	jmp	SHORT $LN5@fe_reorder
$LN285@fe_reorder:

; 1675 :         if ( violation < best_violation )

	fstp	ST(0)
$LN5@fe_reorder:

; 1678 :         }
; 1679 :       }
; 1680 :       ftemp = fe_list[kk];

	mov	ebx, DWORD PTR [edx+12]
	mov	eax, DWORD PTR [edx]
	mov	esi, DWORD PTR [edx+4]
	mov	edi, DWORD PTR [edx+8]
	mov	DWORD PTR _ftemp$90226[ebp+12], ebx

; 1681 :       fe_list[kk] = fe_list[k];

	mov	ebx, DWORD PTR [ecx]
	mov	DWORD PTR [edx], ebx
	mov	ebx, DWORD PTR [ecx+4]
	mov	DWORD PTR [edx+4], ebx
	mov	ebx, DWORD PTR [ecx+8]
	mov	DWORD PTR [edx+8], ebx
	mov	ebx, DWORD PTR [ecx+12]
	mov	DWORD PTR [edx+12], ebx

; 1682 :       fe_list[k] = ftemp;

	mov	edx, DWORD PTR _ftemp$90226[ebp+12]
	mov	DWORD PTR [ecx], eax
	mov	eax, DWORD PTR _k$90220[ebp]
	mov	DWORD PTR [ecx+4], esi
	mov	DWORD PTR [ecx+8], edi
	inc	eax
	mov	DWORD PTR [ecx+12], edx
	add	ecx, 16					; 00000010H
	mov	DWORD PTR _k$90220[ebp], eax
	cmp	eax, DWORD PTR _fcount$[ebp]
	jl	$LN14@fe_reorder

; 1683 :     }
; 1684 :     if ( bestk >= 0 )

	mov	eax, DWORD PTR _bestk$90222[ebp]
	fstp	ST(2)
	fstp	ST(0)
	fstp	ST(0)
	test	eax, eax
	js	$LN4@fe_reorder

; 1685 :     { struct fsort ftemp;
; 1686 :       kk = (bestk==fcount-1) ? 0 : bestk+1;

	mov	ecx, DWORD PTR _fcount$[ebp]
	dec	ecx
	cmp	eax, ecx
	jne	SHORT $LN72@fe_reorder
	xor	ecx, ecx
	jmp	SHORT $LN73@fe_reorder
$LN72@fe_reorder:
	lea	ecx, DWORD PTR [eax+1]
$LN73@fe_reorder:

; 1687 :       ftemp = fe_list[bestk];

	add	eax, eax
	mov	ebx, DWORD PTR _fe_list$[ebp+eax*8+12]
	mov	edx, DWORD PTR _fe_list$[ebp+eax*8]
	mov	esi, DWORD PTR _fe_list$[ebp+eax*8+4]
	mov	edi, DWORD PTR _fe_list$[ebp+eax*8+8]
	lea	eax, DWORD PTR _fe_list$[ebp+eax*8]
	mov	DWORD PTR _ftemp$90238[ebp+12], ebx

; 1688 :       fe_list[bestk] = fe_list[kk];

	add	ecx, ecx
	mov	ebx, DWORD PTR _fe_list$[ebp+ecx*8]
	lea	ecx, DWORD PTR _fe_list$[ebp+ecx*8]
	mov	DWORD PTR [eax], ebx
	mov	ebx, DWORD PTR [ecx+4]
	mov	DWORD PTR [eax+4], ebx
	mov	ebx, DWORD PTR [ecx+8]
	mov	DWORD PTR [eax+8], ebx
	mov	ebx, DWORD PTR [ecx+12]
	mov	DWORD PTR [eax+12], ebx

; 1689 :       fe_list[kk] = ftemp;

	mov	eax, DWORD PTR _ftemp$90238[ebp+12]
	mov	DWORD PTR [ecx], edx
	mov	DWORD PTR [ecx+4], esi
	mov	DWORD PTR [ecx+8], edi
	mov	DWORD PTR [ecx+12], eax
$LN4@fe_reorder:

; 1690 :     }
; 1691 :   }
; 1692 : 
; 1693 :   /* relink in proper order */
; 1694 :   for ( i = 0 ; i < fcount ; i++ )

	mov	ecx, DWORD PTR _fcount$[ebp]
	test	ecx, ecx
	jle	$LN218@fe_reorder
	mov	edi, DWORD PTR _web+460
	mov	eax, 2
	sub	eax, ecx
	lea	esi, DWORD PTR [ecx-1]
	lea	ebx, DWORD PTR _fe_list$[ebp]
	mov	DWORD PTR tv2632[ebp], eax
	mov	DWORD PTR tv655[ebp], ecx
	jmp	SHORT $LN3@fe_reorder
	npad	9
$LL212@fe_reorder:
	mov	ecx, DWORD PTR _fcount$[ebp]
$LN3@fe_reorder:

; 1695 :   { set_next_facet(fe_list[i].fe,fe_list[(i+1)%fcount].fe);

	mov	eax, DWORD PTR tv2632[ebp]
	lea	eax, DWORD PTR [eax+esi]
	cdq
	idiv	ecx
	mov	ecx, DWORD PTR [ebx]
	add	edx, edx
	mov	eax, DWORD PTR _fe_list$[ebp+edx*8]
	test	ecx, 268435456				; 10000000H
	je	SHORT $LN162@fe_reorder
	mov	edx, ecx
	test	ecx, 134217728				; 08000000H
	je	SHORT $LN163@fe_reorder
	xor	eax, 134217728				; 08000000H
	and	edx, 134217727				; 07ffffffH
	mov	edx, DWORD PTR [edi+edx*4]
	mov	DWORD PTR [edx+36], eax
	jmp	SHORT $LN290@fe_reorder
$LN163@fe_reorder:
	and	edx, 134217727				; 07ffffffH
	mov	edx, DWORD PTR [edi+edx*4]
	mov	DWORD PTR [edx+40], eax
$LN290@fe_reorder:
	mov	edi, DWORD PTR _web+460
$LN162@fe_reorder:

; 1696 :     set_prev_facet(fe_list[i].fe,fe_list[(i+fcount-1)%fcount].fe);

	mov	eax, esi
	cdq
	idiv	DWORD PTR _fcount$[ebp]
	add	edx, edx
	mov	eax, DWORD PTR _fe_list$[ebp+edx*8]
	test	ecx, 268435456				; 10000000H
	je	SHORT $LN2@fe_reorder
	test	ecx, 134217728				; 08000000H
	je	SHORT $LN168@fe_reorder
	xor	eax, 134217728				; 08000000H
	and	ecx, 134217727				; 07ffffffH
	mov	ecx, DWORD PTR [edi+ecx*4]
	mov	DWORD PTR [ecx+40], eax
	jmp	SHORT $LN167@fe_reorder
$LN168@fe_reorder:
	and	ecx, 134217727				; 07ffffffH
	mov	edx, DWORD PTR [edi+ecx*4]
	mov	DWORD PTR [edx+36], eax
$LN167@fe_reorder:
	mov	eax, DWORD PTR _global_timestamp
	mov	edi, DWORD PTR _web+460
	inc	eax
	mov	DWORD PTR _global_timestamp, eax
	mov	DWORD PTR _top_timestamp, eax
$LN2@fe_reorder:

; 1690 :     }
; 1691 :   }
; 1692 : 
; 1693 :   /* relink in proper order */
; 1694 :   for ( i = 0 ; i < fcount ; i++ )

	inc	esi
	add	ebx, 16					; 00000010H
	dec	DWORD PTR tv655[ebp]
	jne	$LL212@fe_reorder
	pop	edi
	pop	ebx
	pop	esi

; 1697 :   }
; 1698 : } // end fe_reorder()

	mov	ecx, DWORD PTR __$ArrayPad$[ebp]
	xor	ecx, ebp
	call	@__security_check_cookie@4
	mov	esp, ebp
	pop	ebp
	ret	0
$LN233@fe_reorder:

; 1578 :   { /* warn if not agreeing with geometric order */
; 1579 :     if ( ((fe_list[1].angle > 0) && (fe_list[2].angle > fe_list[0].angle) && 
; 1580 :            (fe_list[2].angle < fe_list[1].angle))  ||
; 1581 :       (( (fe_list[1].angle < 0) && ((fe_list[2].angle > fe_list[0].angle) || 
; 1582 :            (fe_list[2].angle < fe_list[1].angle)))   )
; 1583 :       )

	fstp	ST(0)
	fstp	ST(1)
	fstp	ST(0)
$LN218@fe_reorder:
	pop	edi
	pop	ebx
$LN1@fe_reorder:

; 1697 :   }
; 1698 : } // end fe_reorder()

	mov	ecx, DWORD PTR __$ArrayPad$[ebp]
	xor	ecx, ebp
	pop	esi
	call	@__security_check_cookie@4
	mov	esp, ebp
	pop	ebp
	ret	0
_fe_reorder ENDP
_TEXT	ENDS
PUBLIC	__$ArrayPad$
PUBLIC	_raw_fe_reorder
EXTRN	_memset:PROC
; Function compile flags: /Ogtp
;	COMDAT _raw_fe_reorder
_TEXT	SEGMENT
_s$ = -1892						; size = 8
tv1278 = -1888						; size = 4
_aa_norm$ = -1884					; size = 8
tv1425 = -1880						; size = 4
tv1186 = -1880						; size = 4
_a_norm$ = -1876					; size = 8
tv1402 = -1872						; size = 4
tv219 = -1872						; size = 4
_k$ = -1872						; size = 4
_ftemp$90281 = -1868					; size = 16
_fcount$ = -1852					; size = 4
tv1394 = -1848						; size = 4
tv1177 = -1848						; size = 4
tv212 = -1848						; size = 4
_fe_list$ = -1844					; size = 1600
_side_a$ = -244						; size = 48
_side_b$ = -196						; size = 48
_side$ = -148						; size = 48
_norm_aa$ = -100					; size = 48
_norm_a$ = -52						; size = 48
__$ArrayPad$ = -4					; size = 4
_e_id$ = 8						; size = 4
_raw_fe_reorder PROC					; COMDAT

; 1710 : { int fcount = 0;

	push	ebp
	mov	ebp, esp
	sub	esp, 1892				; 00000764H
	mov	eax, DWORD PTR ___security_cookie
	xor	eax, ebp
	mov	DWORD PTR __$ArrayPad$[ebp], eax
	push	ebx
	push	esi
	push	edi

; 1711 :   facetedge_id fe;
; 1712 :   struct fsort fe_list[FSORTMAX];
; 1713 :   REAL side[MAXCOORD],norm_a[MAXCOORD],side_a[MAXCOORD];
; 1714 :   REAL side_b[MAXCOORD],norm_aa[MAXCOORD],a_norm,aa_norm;
; 1715 :   REAL c,s,angle;
; 1716 :   int i,j,k;
; 1717 :   facetedge_id first_fe;
; 1718 : 
; 1719 :   memset(norm_a,0,sizeof(norm_a));

	push	48					; 00000030H
	xor	edi, edi
	lea	eax, DWORD PTR _norm_a$[ebp]
	push	edi
	push	eax
	call	_memset

; 1720 :   memset(norm_aa,0,sizeof(norm_aa));

	push	48					; 00000030H
	lea	ecx, DWORD PTR _norm_aa$[ebp]
	push	edi
	push	ecx
	call	_memset

; 1721 : 
; 1722 :   /* see if we have 3 or more facets */
; 1723 :   fe = first_fe = get_edge_fe(e_id);

	mov	ebx, DWORD PTR _e_id$[ebp]
	mov	edx, DWORD PTR _web+124
	mov	esi, ebx
	and	esi, 134217727				; 07ffffffH
	add	esi, esi
	add	esi, esi
	mov	eax, DWORD PTR [esi+edx]
	add	esp, 24					; 00000018H
	test	eax, eax
	jne	SHORT $LN24@raw_fe_reo
	xor	edx, edx
	jmp	SHORT $LN25@raw_fe_reo
$LN24@raw_fe_reo:
	mov	eax, DWORD PTR [eax+28]
	test	ebx, 134217728				; 08000000H
	je	SHORT $LN23@raw_fe_reo
	xor	eax, 134217728				; 08000000H
$LN23@raw_fe_reo:
	mov	edx, eax
$LN25@raw_fe_reo:
	mov	eax, edx

; 1724 :   if ( valid_id(fe) ) 

	test	edx, 268435456				; 10000000H
	je	$LN1@raw_fe_reo
	mov	ecx, DWORD PTR _web+460
	npad	7
$LL19@raw_fe_reo:

; 1725 :   do { fcount++; 

	inc	edi

; 1726 :        fe = get_next_facet(fe);

	test	eax, 134217728				; 08000000H
	je	SHORT $LN28@raw_fe_reo
	and	eax, 134217727				; 07ffffffH
	mov	eax, DWORD PTR [ecx+eax*4]
	mov	eax, DWORD PTR [eax+36]
	xor	eax, 134217728				; 08000000H
	jmp	SHORT $LN18@raw_fe_reo
$LN28@raw_fe_reo:
	and	eax, 134217727				; 07ffffffH
	mov	eax, DWORD PTR [ecx+eax*4]
	mov	eax, DWORD PTR [eax+40]
$LN18@raw_fe_reo:

; 1727 :      } while ( valid_id(fe) && !equal_id(fe,first_fe) );

	test	eax, 268435456				; 10000000H
	je	SHORT $LN79@raw_fe_reo
	cmp	eax, edx
	jne	SHORT $LL19@raw_fe_reo
$LN79@raw_fe_reo:

; 1725 :   do { fcount++; 

	mov	DWORD PTR _fcount$[ebp], edi

; 1728 :   if ( fcount <= 2 ) return;

	cmp	edi, 2
	jle	$LN1@raw_fe_reo

; 1729 : 
; 1730 :   if ( fcount > FSORTMAX )

	cmp	edi, 100				; 00000064H
	jle	SHORT $LN14@raw_fe_reo

; 1731 :   { kb_error(5742,"More than 100 facets on an edge; not sorted.\n",WARNING); 

	push	2
	push	OFFSET ??_C@_0CO@JCMFDCON@More?5than?5100?5facets?5on?5an?5edge?$DL@
	push	5742					; 0000166eH
	call	_kb_error
	add	esp, 12					; 0000000cH
	pop	edi
	pop	esi
	pop	ebx

; 1772 :   }
; 1773 : } // end raw_fe_reorder()

	mov	ecx, DWORD PTR __$ArrayPad$[ebp]
	xor	ecx, ebp
	call	@__security_check_cookie@4
	mov	esp, ebp
	pop	ebp
	ret	0
$LN14@raw_fe_reo:

; 1732 :     return;
; 1733 :   }
; 1734 : 
; 1735 :   /* use first facet as reference facet */
; 1736 :   /* to get basis for calculating angles */
; 1737 :   get_edge_side(e_id,side);     

	lea	ecx, DWORD PTR _side$[ebp]
	push	ecx
	push	ebx
	call	_get_edge_side

; 1738 :   fe = get_edge_fe(e_id);

	mov	edx, DWORD PTR _web+124
	mov	esi, DWORD PTR [esi+edx]
	add	esp, 8
	test	esi, esi
	je	SHORT $LN31@raw_fe_reo
$LN32@raw_fe_reo:
	mov	esi, DWORD PTR [esi+28]
	test	ebx, 134217728				; 08000000H
	je	SHORT $LN31@raw_fe_reo
	xor	esi, 134217728				; 08000000H
$LN31@raw_fe_reo:

; 1739 :   fe_list[0].fe = fe;
; 1740 :   get_fe_side(get_next_edge(fe),side_a);

	mov	ecx, DWORD PTR _web+460
	mov	ebx, esi
	mov	DWORD PTR _fe_list$[ebp], esi
	and	esi, 134217727				; 07ffffffH
	add	esi, esi
	shr	ebx, 27					; 0000001bH
	add	esi, esi
	and	ebx, 1
	je	SHORT $LN36@raw_fe_reo
	mov	eax, DWORD PTR [esi+ecx]
	mov	eax, DWORD PTR [eax+28]
	xor	eax, 134217728				; 08000000H
	jmp	SHORT $LN35@raw_fe_reo
$LN36@raw_fe_reo:
	mov	edx, DWORD PTR [esi+ecx]
	mov	eax, DWORD PTR [edx+32]
$LN35@raw_fe_reo:
	lea	edx, DWORD PTR _side_a$[ebp]
	push	edx
	mov	edx, eax
	and	edx, 134217727				; 07ffffffH
	mov	ecx, DWORD PTR [ecx+edx*4]
	and	eax, 134217728				; 08000000H
	xor	eax, DWORD PTR [ecx+20]
	push	eax
	call	_get_edge_side

; 1741 :   cross_prod(side,side_a,norm_a);

	lea	edx, DWORD PTR _norm_a$[ebp]
	push	edx
	lea	eax, DWORD PTR _side_a$[ebp]
	push	eax
	lea	ecx, DWORD PTR _side$[ebp]
	push	ecx
	call	_cross_prod

; 1742 :   cross_prod(norm_a,side,norm_aa);

	lea	edx, DWORD PTR _norm_aa$[ebp]
	push	edx
	lea	eax, DWORD PTR _side$[ebp]
	push	eax
	lea	ecx, DWORD PTR _norm_a$[ebp]
	push	ecx
	call	_cross_prod

; 1743 :   a_norm = sqrt(SDIM_dot(norm_a,norm_a));

	mov	edx, DWORD PTR _web+616
	push	edx
	lea	eax, DWORD PTR _norm_a$[ebp]
	push	eax
	mov	ecx, eax
	push	ecx
	call	_dot
	add	esp, 44					; 0000002cH
	call	__CIsqrt
	fstp	QWORD PTR _a_norm$[ebp]

; 1744 :   aa_norm = sqrt(SDIM_dot(norm_aa,norm_aa));

	mov	edx, DWORD PTR _web+616
	push	edx
	lea	eax, DWORD PTR _norm_aa$[ebp]
	push	eax
	mov	ecx, eax
	push	ecx
	call	_dot
	add	esp, 12					; 0000000cH
	call	__CIsqrt
	fstp	QWORD PTR _aa_norm$[ebp]

; 1745 : 
; 1746 :   /* now get angles to rest of facets */
; 1747 :   fe_list[0].angle = 0.0;

	fldz
	fstp	QWORD PTR _fe_list$[ebp+8]

; 1748 :   for ( i = 1 ; i < fcount ; i++ )

	cmp	edi, 1
	jle	$LN11@raw_fe_reo

; 1739 :   fe_list[0].fe = fe;
; 1740 :   get_fe_side(get_next_edge(fe),side_a);

	mov	edx, DWORD PTR _fcount$[ebp]
	dec	edx
	lea	edi, DWORD PTR _fe_list$[ebp+24]
	mov	DWORD PTR tv212[ebp], edx
	npad	5
$LL13@raw_fe_reo:

; 1749 :   { fe = get_next_facet(fe);

	mov	ecx, DWORD PTR _web+460
	test	ebx, ebx
	je	SHORT $LN42@raw_fe_reo
	mov	eax, DWORD PTR [esi+ecx]
	mov	eax, DWORD PTR [eax+36]
	xor	eax, 134217728				; 08000000H
	jmp	SHORT $LN41@raw_fe_reo
$LN42@raw_fe_reo:
	mov	edx, DWORD PTR [esi+ecx]
	mov	eax, DWORD PTR [edx+40]
$LN41@raw_fe_reo:

; 1750 :     fe_list[i].fe = fe;
; 1751 :     get_fe_side(get_next_edge(fe),side_b);

	mov	ebx, eax
	mov	DWORD PTR [edi-8], eax
	and	eax, 134217727				; 07ffffffH
	shr	ebx, 27					; 0000001bH
	add	eax, eax
	and	ebx, 1
	lea	esi, DWORD PTR [eax+eax]
	je	SHORT $LN46@raw_fe_reo
	mov	eax, DWORD PTR [esi+ecx]
	mov	eax, DWORD PTR [eax+28]
	xor	eax, 134217728				; 08000000H
	jmp	SHORT $LN45@raw_fe_reo
$LN46@raw_fe_reo:
	mov	edx, DWORD PTR [esi+ecx]
	mov	eax, DWORD PTR [edx+32]
$LN45@raw_fe_reo:
	lea	edx, DWORD PTR _side_b$[ebp]
	push	edx
	mov	edx, eax
	and	edx, 134217727				; 07ffffffH
	mov	ecx, DWORD PTR [ecx+edx*4]
	and	eax, 134217728				; 08000000H
	xor	eax, DWORD PTR [ecx+20]
	push	eax
	call	_get_edge_side

; 1752 :     s = SDIM_dot(side_b,norm_a)*aa_norm;

	mov	edx, DWORD PTR _web+616
	push	edx
	lea	eax, DWORD PTR _norm_a$[ebp]
	push	eax
	lea	ecx, DWORD PTR _side_b$[ebp]
	push	ecx
	call	_dot
	fmul	QWORD PTR _aa_norm$[ebp]

; 1753 :     c = SDIM_dot(side_b,norm_aa)*a_norm;

	mov	edx, DWORD PTR _web+616
	push	edx
	lea	eax, DWORD PTR _norm_aa$[ebp]
	fstp	QWORD PTR _s$[ebp]
	push	eax
	lea	ecx, DWORD PTR _side_b$[ebp]
	push	ecx
	call	_dot
	fmul	QWORD PTR _a_norm$[ebp]

; 1754 :     angle = atan2(s,c);

	fld	QWORD PTR _s$[ebp]
	add	esp, 32					; 00000020H
	fxch	ST(1)
	call	__CIatan2

; 1755 :     fe_list[i].angle = angle;

	fstp	QWORD PTR [edi]
	add	edi, 16					; 00000010H
	dec	DWORD PTR tv212[ebp]
	jne	$LL13@raw_fe_reo

; 1748 :   for ( i = 1 ; i < fcount ; i++ )

	mov	edi, DWORD PTR _fcount$[ebp]
$LN11@raw_fe_reo:

; 1756 :   }
; 1757 : 
; 1758 :   /* sort by angle */
; 1759 :   for ( j = 0 ; j < fcount-1 ; j++ )

	lea	eax, DWORD PTR [edi-1]
	test	eax, eax
	jle	$LN8@raw_fe_reo
	mov	ebx, 1
	mov	DWORD PTR tv1177[ebp], ebx
	lea	ecx, DWORD PTR _fe_list$[ebp]
	mov	DWORD PTR tv1278[ebp], eax
	mov	DWORD PTR tv1186[ebp], eax
$LL10@raw_fe_reo:

; 1760 :     for ( k = j+1 ; k < fcount ; k++ )

	mov	esi, ebx
	cmp	ebx, edi
	jge	$LN9@raw_fe_reo
	cmp	DWORD PTR tv1278[ebp], 4
	jl	$LC71@raw_fe_reo

; 1761 :        if ( fe_list[k].angle < fe_list[j].angle )

	mov	esi, edi
	sub	esi, ebx
	sub	esi, 4
	shr	esi, 2
	inc	esi
	lea	eax, DWORD PTR [ebx+esi*4]
	lea	edx, DWORD PTR [ecx+16]
	mov	DWORD PTR _k$[ebp], eax
$LL76@raw_fe_reo:
	fld	QWORD PTR [ecx+8]
	fcomp	QWORD PTR [edx+8]
	fnstsw	ax
	test	ah, 65					; 00000041H
	jne	SHORT $LN72@raw_fe_reo

; 1762 :        { struct fsort ftemp;
; 1763 :          ftemp = fe_list[k];

	mov	ebx, DWORD PTR [edx+8]
	mov	eax, DWORD PTR [edx]
	mov	edi, DWORD PTR [edx+4]
	mov	DWORD PTR _ftemp$90281[ebp+8], ebx
	mov	ebx, DWORD PTR [edx+12]
	mov	DWORD PTR _ftemp$90281[ebp+12], ebx

; 1764 :          fe_list[k] = fe_list[j];

	mov	ebx, DWORD PTR [ecx]
	mov	DWORD PTR [edx], ebx
	mov	ebx, DWORD PTR [ecx+4]
	mov	DWORD PTR [edx+4], ebx
	mov	ebx, DWORD PTR [ecx+8]
	mov	DWORD PTR [edx+8], ebx
	mov	ebx, DWORD PTR [ecx+12]
	mov	DWORD PTR [edx+12], ebx

; 1765 :          fe_list[j] = ftemp;

	mov	DWORD PTR [ecx], eax
	mov	eax, DWORD PTR _ftemp$90281[ebp+8]
	mov	DWORD PTR [ecx+4], edi
	mov	edi, DWORD PTR _fcount$[ebp]
	mov	DWORD PTR [ecx+8], eax
	mov	eax, DWORD PTR _ftemp$90281[ebp+12]
	mov	DWORD PTR [ecx+12], eax
$LN72@raw_fe_reo:

; 1761 :        if ( fe_list[k].angle < fe_list[j].angle )

	fld	QWORD PTR [ecx+8]
	fcomp	QWORD PTR [edx+24]
	fnstsw	ax
	test	ah, 65					; 00000041H
	jne	SHORT $LN73@raw_fe_reo

; 1762 :        { struct fsort ftemp;
; 1763 :          ftemp = fe_list[k];

	mov	ebx, DWORD PTR [edx+24]
	mov	eax, DWORD PTR [edx+16]
	mov	edi, DWORD PTR [edx+20]
	mov	DWORD PTR _ftemp$90281[ebp+8], ebx
	mov	ebx, DWORD PTR [edx+28]
	mov	DWORD PTR _ftemp$90281[ebp+12], ebx

; 1764 :          fe_list[k] = fe_list[j];

	mov	ebx, DWORD PTR [ecx]
	mov	DWORD PTR [edx+16], ebx
	mov	ebx, DWORD PTR [ecx+4]
	mov	DWORD PTR [edx+20], ebx
	mov	ebx, DWORD PTR [ecx+8]
	mov	DWORD PTR [edx+24], ebx
	mov	ebx, DWORD PTR [ecx+12]
	mov	DWORD PTR [edx+28], ebx

; 1765 :          fe_list[j] = ftemp;

	mov	DWORD PTR [ecx], eax
	mov	eax, DWORD PTR _ftemp$90281[ebp+8]
	mov	DWORD PTR [ecx+4], edi
	mov	edi, DWORD PTR _fcount$[ebp]
	mov	DWORD PTR [ecx+8], eax
	mov	eax, DWORD PTR _ftemp$90281[ebp+12]
	mov	DWORD PTR [ecx+12], eax
$LN73@raw_fe_reo:

; 1761 :        if ( fe_list[k].angle < fe_list[j].angle )

	fld	QWORD PTR [ecx+8]
	fcomp	QWORD PTR [edx+40]
	fnstsw	ax
	test	ah, 65					; 00000041H
	jne	SHORT $LN74@raw_fe_reo

; 1762 :        { struct fsort ftemp;
; 1763 :          ftemp = fe_list[k];

	mov	ebx, DWORD PTR [edx+40]
	mov	eax, DWORD PTR [edx+32]
	mov	edi, DWORD PTR [edx+36]
	mov	DWORD PTR _ftemp$90281[ebp+8], ebx
	mov	ebx, DWORD PTR [edx+44]
	mov	DWORD PTR _ftemp$90281[ebp+12], ebx

; 1764 :          fe_list[k] = fe_list[j];

	mov	ebx, DWORD PTR [ecx]
	mov	DWORD PTR [edx+32], ebx
	mov	ebx, DWORD PTR [ecx+4]
	mov	DWORD PTR [edx+36], ebx
	mov	ebx, DWORD PTR [ecx+8]
	mov	DWORD PTR [edx+40], ebx
	mov	ebx, DWORD PTR [ecx+12]
	mov	DWORD PTR [edx+44], ebx

; 1765 :          fe_list[j] = ftemp;

	mov	DWORD PTR [ecx], eax
	mov	eax, DWORD PTR _ftemp$90281[ebp+8]
	mov	DWORD PTR [ecx+4], edi
	mov	edi, DWORD PTR _fcount$[ebp]
	mov	DWORD PTR [ecx+8], eax
	mov	eax, DWORD PTR _ftemp$90281[ebp+12]
	mov	DWORD PTR [ecx+12], eax
$LN74@raw_fe_reo:

; 1761 :        if ( fe_list[k].angle < fe_list[j].angle )

	fld	QWORD PTR [ecx+8]
	fcomp	QWORD PTR [edx+56]
	fnstsw	ax
	test	ah, 65					; 00000041H
	jne	SHORT $LN75@raw_fe_reo

; 1762 :        { struct fsort ftemp;
; 1763 :          ftemp = fe_list[k];

	mov	ebx, DWORD PTR [edx+56]
	mov	eax, DWORD PTR [edx+48]
	mov	edi, DWORD PTR [edx+52]
	mov	DWORD PTR _ftemp$90281[ebp+8], ebx
	mov	ebx, DWORD PTR [edx+60]
	mov	DWORD PTR _ftemp$90281[ebp+12], ebx

; 1764 :          fe_list[k] = fe_list[j];

	mov	ebx, DWORD PTR [ecx]
	mov	DWORD PTR [edx+48], ebx
	mov	ebx, DWORD PTR [ecx+4]
	mov	DWORD PTR [edx+52], ebx
	mov	ebx, DWORD PTR [ecx+8]
	mov	DWORD PTR [edx+56], ebx
	mov	ebx, DWORD PTR [ecx+12]
	mov	DWORD PTR [edx+60], ebx

; 1765 :          fe_list[j] = ftemp;

	mov	DWORD PTR [ecx], eax
	mov	eax, DWORD PTR _ftemp$90281[ebp+8]
	mov	DWORD PTR [ecx+4], edi
	mov	edi, DWORD PTR _fcount$[ebp]
	mov	DWORD PTR [ecx+8], eax
	mov	eax, DWORD PTR _ftemp$90281[ebp+12]
	mov	DWORD PTR [ecx+12], eax
$LN75@raw_fe_reo:

; 1761 :        if ( fe_list[k].angle < fe_list[j].angle )

	add	edx, 64					; 00000040H
	dec	esi
	jne	$LL76@raw_fe_reo
	mov	ebx, DWORD PTR tv1177[ebp]
	mov	esi, DWORD PTR _k$[ebp]
$LC71@raw_fe_reo:

; 1760 :     for ( k = j+1 ; k < fcount ; k++ )

	cmp	esi, edi
	jge	SHORT $LN9@raw_fe_reo
	mov	edx, esi
	add	edx, edx
	mov	eax, edi
	sub	eax, esi
	lea	edx, DWORD PTR _fe_list$[ebp+edx*8]
	mov	DWORD PTR tv219[ebp], eax
$LC7@raw_fe_reo:

; 1761 :        if ( fe_list[k].angle < fe_list[j].angle )

	fld	QWORD PTR [ecx+8]
	fcomp	QWORD PTR [edx+8]
	fnstsw	ax
	test	ah, 65					; 00000041H
	jne	SHORT $LN6@raw_fe_reo

; 1762 :        { struct fsort ftemp;
; 1763 :          ftemp = fe_list[k];

	mov	ebx, DWORD PTR [edx+12]
	mov	eax, DWORD PTR [edx]
	mov	edi, DWORD PTR [edx+8]
	mov	esi, DWORD PTR [edx+4]
	mov	DWORD PTR _ftemp$90281[ebp+12], ebx

; 1764 :          fe_list[k] = fe_list[j];

	mov	ebx, DWORD PTR [ecx]
	mov	DWORD PTR [edx], ebx
	mov	ebx, DWORD PTR [ecx+4]
	mov	DWORD PTR [edx+4], ebx
	mov	ebx, DWORD PTR [ecx+8]
	mov	DWORD PTR [edx+8], ebx
	mov	ebx, DWORD PTR [ecx+12]
	mov	DWORD PTR [edx+12], ebx

; 1765 :          fe_list[j] = ftemp;

	mov	DWORD PTR [ecx], eax
	mov	eax, DWORD PTR _ftemp$90281[ebp+12]
	mov	DWORD PTR [ecx+4], esi
	mov	DWORD PTR [ecx+8], edi
	mov	edi, DWORD PTR _fcount$[ebp]
	mov	DWORD PTR [ecx+12], eax
$LN6@raw_fe_reo:

; 1760 :     for ( k = j+1 ; k < fcount ; k++ )

	add	edx, 16					; 00000010H
	dec	DWORD PTR tv219[ebp]
	jne	SHORT $LC7@raw_fe_reo
	mov	ebx, DWORD PTR tv1177[ebp]
$LN9@raw_fe_reo:

; 1756 :   }
; 1757 : 
; 1758 :   /* sort by angle */
; 1759 :   for ( j = 0 ; j < fcount-1 ; j++ )

	mov	eax, 1
	sub	DWORD PTR tv1278[ebp], eax
	add	ebx, eax
	add	ecx, 16					; 00000010H
	sub	DWORD PTR tv1186[ebp], eax
	mov	DWORD PTR tv1177[ebp], ebx
	jne	$LL10@raw_fe_reo
$LN8@raw_fe_reo:

; 1766 :        } 
; 1767 : 
; 1768 :   /* relink in proper order */
; 1769 :   for ( i = 0 ; i < fcount ; i++ )

	test	edi, edi
	jle	$LN1@raw_fe_reo
	mov	eax, 2
	lea	ecx, DWORD PTR _fe_list$[ebp]
	sub	eax, edi
	lea	esi, DWORD PTR [edi-1]
	mov	DWORD PTR tv1394[ebp], ecx
	mov	DWORD PTR tv1402[ebp], eax
	mov	DWORD PTR tv1425[ebp], edi
	jmp	SHORT $LN3@raw_fe_reo
	npad	1
$LL78@raw_fe_reo:
	mov	eax, DWORD PTR tv1402[ebp]
$LN3@raw_fe_reo:

; 1770 :   { set_next_facet(fe_list[i].fe,fe_list[(i+1)%fcount].fe);

	add	eax, esi
	cdq
	idiv	edi
	add	edx, edx
	mov	eax, DWORD PTR _fe_list$[ebp+edx*8]
	mov	edx, DWORD PTR tv1394[ebp]
	mov	ecx, DWORD PTR [edx]
	test	ecx, 268435456				; 10000000H
	je	SHORT $LN51@raw_fe_reo
	mov	ebx, DWORD PTR _web+460
	mov	edx, ecx
	test	ecx, 134217728				; 08000000H
	je	SHORT $LN52@raw_fe_reo
	xor	eax, 134217728				; 08000000H
	and	edx, 134217727				; 07ffffffH
	mov	edx, DWORD PTR [ebx+edx*4]
	mov	DWORD PTR [edx+36], eax
	jmp	SHORT $LN51@raw_fe_reo
$LN52@raw_fe_reo:
	and	edx, 134217727				; 07ffffffH
	mov	edx, DWORD PTR [ebx+edx*4]
	mov	DWORD PTR [edx+40], eax
$LN51@raw_fe_reo:

; 1771 :     set_prev_facet(fe_list[i].fe,fe_list[(i+fcount-1)%fcount].fe);

	mov	eax, esi
	cdq
	idiv	edi
	add	edx, edx
	mov	eax, DWORD PTR _fe_list$[ebp+edx*8]
	test	ecx, 268435456				; 10000000H
	je	SHORT $LN2@raw_fe_reo
	mov	edx, DWORD PTR _web+460
	test	ecx, 134217728				; 08000000H
	je	SHORT $LN57@raw_fe_reo
	xor	eax, 134217728				; 08000000H
	and	ecx, 134217727				; 07ffffffH
	mov	ecx, DWORD PTR [edx+ecx*4]
	mov	DWORD PTR [ecx+40], eax
	jmp	SHORT $LN56@raw_fe_reo
$LN57@raw_fe_reo:
	and	ecx, 134217727				; 07ffffffH
	mov	ecx, DWORD PTR [edx+ecx*4]
	mov	DWORD PTR [ecx+36], eax
$LN56@raw_fe_reo:
	mov	eax, DWORD PTR _global_timestamp
	inc	eax
	mov	DWORD PTR _global_timestamp, eax
	mov	DWORD PTR _top_timestamp, eax
$LN2@raw_fe_reo:

; 1766 :        } 
; 1767 : 
; 1768 :   /* relink in proper order */
; 1769 :   for ( i = 0 ; i < fcount ; i++ )

	add	DWORD PTR tv1394[ebp], 16		; 00000010H
	inc	esi
	dec	DWORD PTR tv1425[ebp]
	jne	$LL78@raw_fe_reo
$LN1@raw_fe_reo:

; 1772 :   }
; 1773 : } // end raw_fe_reorder()

	mov	ecx, DWORD PTR __$ArrayPad$[ebp]
	pop	edi
	pop	esi
	xor	ecx, ebp
	pop	ebx
	call	@__security_check_cookie@4
	mov	esp, ebp
	pop	ebp
	ret	0
_raw_fe_reorder ENDP
_TEXT	ENDS
PUBLIC	??_C@_0BI@NBIIFMGB@Unexpected?5minus?5sign?4?6?$AA@ ; `string'
PUBLIC	_gettok
EXTRN	_yylval:BYTE
;	COMDAT ??_C@_0BI@NBIIFMGB@Unexpected?5minus?5sign?4?6?$AA@
CONST	SEGMENT
??_C@_0BI@NBIIFMGB@Unexpected?5minus?5sign?4?6?$AA@ DB 'Unexpected minus '
	DB	'sign.', 0aH, 00H				; `string'
; Function compile flags: /Ogtp
CONST	ENDS
;	COMDAT _gettok
_TEXT	SEGMENT
_sign$ = -4						; size = 4
_kind$ = 8						; size = 4
_gettok	PROC						; COMDAT

; 1785 : {

	push	ebp
	mov	ebp, esp
	push	ecx
	push	esi

; 1786 :   int sign = 1; 

	mov	esi, 1

; 1787 : 
; 1788 :   tok = yylex();

	push	0
	mov	DWORD PTR _sign$[ebp], esi
	call	_kb_yylex
	add	esp, 4
	mov	DWORD PTR _tok, eax

; 1789 :   if ( tok == ',' ) tok = yylex(); /* skip separating comma */

	cmp	eax, 44					; 0000002cH
	jne	SHORT $LN8@gettok
	push	0
	call	_kb_yylex
	add	esp, 4
	mov	DWORD PTR _tok, eax
$LN8@gettok:

; 1790 :   if ( tok == '-' ) { sign = -1; tok = yylex(); }

	cmp	eax, 45					; 0000002dH
	jne	SHORT $LN7@gettok
	or	esi, -1
	push	0
	mov	DWORD PTR _sign$[ebp], esi
	call	_kb_yylex
	add	esp, 4
	mov	DWORD PTR _tok, eax
$LN7@gettok:

; 1791 :   if ( tok == UMINUS_TOK ) { sign = -1; tok = yylex(); }

	cmp	eax, 287				; 0000011fH
	jne	SHORT $LN6@gettok
	or	esi, -1
	push	0
	mov	DWORD PTR _sign$[ebp], esi
	call	_kb_yylex
	add	esp, 4
	mov	DWORD PTR _tok, eax
$LN6@gettok:

; 1792 :   if ( tok != kind )

	mov	ecx, DWORD PTR _kind$[ebp]
	cmp	eax, ecx
	je	SHORT $LN4@gettok

; 1793 :   { if ( !((tok == INTEGER_TOK) && (kind == REAL_TOK) ) &&
; 1794 :          !((tok == INTEGER_AT_TOK) && (kind == INTEGER_TOK)) )

	cmp	eax, 265				; 00000109H
	jne	SHORT $LN3@gettok
	cmp	ecx, 266				; 0000010aH
	jmp	SHORT $LN11@gettok
$LN3@gettok:
	cmp	eax, 550				; 00000226H
	jne	SHORT $LN2@gettok
	cmp	ecx, 265				; 00000109H
$LN11@gettok:
	je	SHORT $LN4@gettok
$LN2@gettok:

; 1795 :     { if ( sign == -1 ) 

	cmp	esi, -1
	jne	SHORT $LN9@gettok

; 1796 :           kb_error(2129,"Unexpected minus sign.\n",DATAFILE_ERROR);

	push	6
	push	OFFSET ??_C@_0BI@NBIIFMGB@Unexpected?5minus?5sign?4?6?$AA@
	push	2129					; 00000851H
	call	_kb_error
	mov	eax, DWORD PTR _tok
	add	esp, 12					; 0000000cH
	pop	esi

; 1806 : } // end gettok()

	mov	esp, ebp
	pop	ebp
	ret	0
$LN4@gettok:

; 1797 :       return tok;
; 1798 :     }
; 1799 :     /* caller should check for error, and if error leave tok as lookahead */
; 1800 :   }
; 1801 : 
; 1802 :   yylval.i *= sign;

	mov	eax, DWORD PTR _yylval

; 1803 :   yylval.r *= sign;

	fild	DWORD PTR _sign$[ebp]
	imul	eax, esi
	fmul	QWORD PTR _yylval+16
	fstp	QWORD PTR _yylval+16
	mov	DWORD PTR _yylval, eax

; 1804 :   tok = kind;

	mov	DWORD PTR _tok, ecx

; 1805 :   return tok;

	mov	eax, ecx
$LN9@gettok:
	pop	esi

; 1806 : } // end gettok()

	mov	esp, ebp
	pop	ebp
	ret	0
_gettok	ENDP
_TEXT	ENDS
PUBLIC	__$ArrayPad$
PUBLIC	_read_const
EXTRN	_myfree:PROC
EXTRN	_eval:PROC
EXTRN	_const_expr_flag:DWORD
; Function compile flags: /Ogtp
;	COMDAT _read_const
_TEXT	SEGMENT
_node$ = -108						; size = 104
__$ArrayPad$ = -4					; size = 4
_value$ = 8						; size = 4
_read_const PROC					; COMDAT

; 1824 : {

	push	ebp
	mov	ebp, esp
	sub	esp, 108				; 0000006cH
	mov	eax, DWORD PTR ___security_cookie
	xor	eax, ebp
	mov	DWORD PTR __$ArrayPad$[ebp], eax
	push	esi
	mov	esi, DWORD PTR _value$[ebp]

; 1825 :   int retval;
; 1826 :   struct expnode node;  /* for getting constant expression */
; 1827 : 
; 1828 :   memset(&node,0,sizeof(struct expnode));

	push	104					; 00000068H
	lea	eax, DWORD PTR _node$[ebp]
	push	0
	push	eax
	call	_memset

; 1829 :   const_expr_flag = 1;
; 1830 :   if ( (retval = exparse(0,&node,NOUSERCOPY)) <= 0 )

	push	0
	lea	ecx, DWORD PTR _node$[ebp]
	push	ecx
	push	0
	mov	DWORD PTR _const_expr_flag, 1
	call	_exparse
	add	esp, 24					; 00000018H
	test	eax, eax

; 1831 :   { const_expr_flag = 0;
; 1832 :     return retval;

	jle	SHORT $LN6@read_const

; 1833 :   }
; 1834 :   /* sprintf(node.name,"constant expression at line %d",line_no); */
; 1835 :   *value = eval(&node,NULL,NULLID,NULL);

	push	0
	push	0
	lea	edx, DWORD PTR _node$[ebp]
	push	0
	push	edx
	call	_eval
	fstp	QWORD PTR [esi]

; 1836 :   if ( node.locals ) 

	mov	ecx, DWORD PTR _node$[ebp+8]
	add	esp, 16					; 00000010H
	test	ecx, ecx
	je	SHORT $LN2@read_const

; 1837 :   { if ( node.locals->list ) myfree((char*)node.locals->list );

	mov	eax, DWORD PTR [ecx]
	test	eax, eax
	je	SHORT $LN1@read_const
	push	eax
	call	_myfree
	mov	ecx, DWORD PTR _node$[ebp+8]
	add	esp, 4
$LN1@read_const:

; 1838 :     myfree((char*)(node.locals));

	push	ecx
	call	_myfree
	add	esp, 4
$LN2@read_const:

; 1839 :   }
; 1840 :   const_expr_flag = 0;
; 1841 :   return 1;

	mov	eax, 1
$LN6@read_const:

; 1842 : } // end read_const()

	mov	ecx, DWORD PTR __$ArrayPad$[ebp]
	xor	ecx, ebp
	mov	DWORD PTR _const_expr_flag, 0
	pop	esi
	call	@__security_check_cookie@4
	mov	esp, ebp
	pop	ebp
	ret	0
_read_const ENDP
_TEXT	ENDS
PUBLIC	_const_expr
EXTRN	_yylex_init:PROC
EXTRN	_cmdptr:DWORD
; Function compile flags: /Ogtp
;	COMDAT _const_expr
_TEXT	SEGMENT
_str$ = 8						; size = 4
_value$ = 12						; size = 4
_const_expr PROC					; COMDAT

; 1862 : { char *old_cmdptr;  /* in case in middle of another parse */

	push	ebp
	mov	ebp, esp

; 1863 :   int ret;    /* return value */
; 1864 : 
; 1865 :   if ( str == NULL ) return 0;

	mov	eax, DWORD PTR _str$[ebp]
	test	eax, eax
	jne	SHORT $LN1@const_expr

; 1871 :   return ret;
; 1872 : } // end const_expr()

	pop	ebp
	ret	0
$LN1@const_expr:
	push	esi

; 1866 :   old_cmdptr = cmdptr;

	mov	esi, DWORD PTR _cmdptr

; 1867 :   cmdptr = str;

	mov	DWORD PTR _cmdptr, eax

; 1868 :   yylex_init();

	call	_yylex_init

; 1869 :   ret = read_const(value);

	mov	eax, DWORD PTR _value$[ebp]
	push	eax
	call	_read_const
	add	esp, 4

; 1870 :   cmdptr = old_cmdptr;

	mov	DWORD PTR _cmdptr, esi
	pop	esi

; 1871 :   return ret;
; 1872 : } // end const_expr()

	pop	ebp
	ret	0
_const_expr ENDP
_TEXT	ENDS
PUBLIC	_string_fixup
EXTRN	_new_facetedge:PROC
; Function compile flags: /Ogtp
;	COMDAT _string_fixup
_TEXT	SEGMENT
tv310 = -8						; size = 4
_e_id$ = -4						; size = 4
_string_fixup PROC					; COMDAT

; 1885 : {

	push	ebp
	mov	ebp, esp
	sub	esp, 8
	push	esi

; 1886 :   edge_id e_id;
; 1887 :   facetedge_id fe;
; 1888 : 
; 1889 :   /* do all bare edges */
; 1890 :   FOR_ALL_EDGES(e_id)

	mov	esi, DWORD PTR _web+160
	mov	DWORD PTR _e_id$[ebp], esi
	test	esi, 268435456				; 10000000H
	je	$LN4@string_fix
	push	ebx
	mov	ebx, DWORD PTR _web+124
	push	edi
	jmp	SHORT $LN6@string_fix
	npad	10
$LL28@string_fix:
	mov	esi, DWORD PTR _e_id$[ebp]
$LN6@string_fix:
	mov	edi, esi
	and	edi, 134217727				; 07ffffffH
	add	edi, edi
	add	edi, edi
	mov	ecx, DWORD PTR [edi+ebx]
	mov	eax, DWORD PTR [ecx+8]
	and	eax, 1
	xor	edx, edx
	or	eax, edx
	je	$LN5@string_fix

; 1891 :     {
; 1892 :       fe = get_edge_fe(e_id);

	test	ecx, ecx
	je	SHORT $LN9@string_fix
$LN10@string_fix:
	mov	ecx, DWORD PTR [ecx+28]
	test	esi, 134217728				; 08000000H
	je	SHORT $LN9@string_fix
	xor	ecx, 134217728				; 08000000H
$LN9@string_fix:

; 1893 :       if ( valid_id(fe) ) continue;

	test	ecx, 268435456				; 10000000H
	jne	$LN5@string_fix

; 1894 : 
; 1895 :       fe = new_facetedge(NULLFACET,e_id);

	mov	eax, DWORD PTR _NULLFACET
	push	esi
	push	eax
	call	_new_facetedge
	mov	esi, eax

; 1896 :       set_next_facet(fe,fe);

	shr	eax, 28					; 0000001cH
	add	esp, 8
	and	eax, 1
	mov	DWORD PTR tv310[ebp], eax
	je	SHORT $LN13@string_fix
	test	esi, 134217728				; 08000000H
	je	SHORT $LN14@string_fix
	mov	edx, DWORD PTR _web+460
	mov	eax, esi
	xor	eax, 134217728				; 08000000H
	mov	ecx, esi
	and	ecx, 134217727				; 07ffffffH
	mov	ecx, DWORD PTR [edx+ecx*4]
	mov	DWORD PTR [ecx+36], eax
	jmp	SHORT $LN13@string_fix
$LN14@string_fix:
	mov	eax, DWORD PTR _web+460
	mov	edx, esi
	and	edx, 134217727				; 07ffffffH
	mov	ecx, DWORD PTR [eax+edx*4]
	mov	DWORD PTR [ecx+40], esi
$LN13@string_fix:

; 1897 :       set_prev_facet(fe,fe);

	push	esi
	push	esi
	call	_set_prev_facet

; 1898 :       set_next_edge(fe,inverse_id(fe));

	mov	ebx, esi
	add	esp, 8
	xor	ebx, 134217728				; 08000000H
	cmp	DWORD PTR tv310[ebp], 0
	je	SHORT $LN18@string_fix
	test	esi, 134217728				; 08000000H
	je	SHORT $LN19@string_fix
	mov	ecx, DWORD PTR _web+460
	mov	edx, ebx
	xor	edx, 134217728				; 08000000H
	mov	eax, esi
	and	eax, 134217727				; 07ffffffH
	mov	eax, DWORD PTR [ecx+eax*4]
	mov	DWORD PTR [eax+28], edx
	jmp	SHORT $LN18@string_fix
$LN19@string_fix:
	mov	edx, DWORD PTR _web+460
	mov	ecx, esi
	and	ecx, 134217727				; 07ffffffH
	mov	eax, DWORD PTR [edx+ecx*4]
	mov	DWORD PTR [eax+32], ebx
$LN18@string_fix:

; 1899 :       set_prev_edge(fe,inverse_id(fe));

	push	ebx
	push	esi
	call	_set_prev_edge
	add	esp, 8

; 1900 :       set_edge_fe(e_id,fe);

	test	DWORD PTR _e_id$[ebp], 134217728	; 08000000H
	je	SHORT $LN23@string_fix
	mov	esi, ebx
$LN23@string_fix:
	mov	ecx, DWORD PTR _web+124
	mov	edx, DWORD PTR [edi+ecx]
	mov	DWORD PTR [edx+28], esi
	mov	eax, DWORD PTR _global_timestamp
	mov	ebx, DWORD PTR _web+124
	inc	eax
	mov	DWORD PTR _global_timestamp, eax
	mov	DWORD PTR _top_timestamp, eax
$LN5@string_fix:

; 1886 :   edge_id e_id;
; 1887 :   facetedge_id fe;
; 1888 : 
; 1889 :   /* do all bare edges */
; 1890 :   FOR_ALL_EDGES(e_id)

	mov	eax, DWORD PTR [edi+ebx]
	mov	eax, DWORD PTR [eax]
	mov	DWORD PTR _e_id$[ebp], eax
	test	eax, 268435456				; 10000000H
	jne	$LL28@string_fix
	pop	edi
	pop	ebx
$LN4@string_fix:
	pop	esi

; 1901 : 
; 1902 :     }
; 1903 : } // end string_fixup()

	mov	esp, ebp
	pop	ebp
	ret	0
_string_fixup ENDP
_TEXT	ENDS
PUBLIC	??_C@_0BK@FALCJKPP@Bad?5phase?5numbers?3?5?$CFd?5?$CFd?6?$AA@ ; `string'
PUBLIC	??_C@_09GHFPDIPJ@?$CFd?5?$CFd?5?$CFlf?$AA@	; `string'
PUBLIC	??_C@_0CM@EGFEIDCM@Cannot?5open?5phase?5boundary?5energ@ ; `string'
PUBLIC	??_C@_05CBPKLGJM@phase?$AA@			; `string'
PUBLIC	__$ArrayPad$
PUBLIC	_phase_initialize
EXTRN	_fclose:PROC
EXTRN	_sscanf:PROC
EXTRN	_fgets:PROC
EXTRN	_phase_data:DWORD
EXTRN	_fscanf:PROC
EXTRN	_phasemax:DWORD
EXTRN	_path_open:PROC
EXTRN	_strncpy:PROC
EXTRN	_phase_file_name:BYTE
EXTRN	_B_PHASE_ATTR:DWORD
EXTRN	_F_PHASE_ATTR:DWORD
EXTRN	_add_attribute:PROC
EXTRN	_phase_flag:DWORD
;	COMDAT ??_C@_0BK@FALCJKPP@Bad?5phase?5numbers?3?5?$CFd?5?$CFd?6?$AA@
CONST	SEGMENT
??_C@_0BK@FALCJKPP@Bad?5phase?5numbers?3?5?$CFd?5?$CFd?6?$AA@ DB 'Bad pha'
	DB	'se numbers: %d %d', 0aH, 00H		; `string'
CONST	ENDS
;	COMDAT ??_C@_09GHFPDIPJ@?$CFd?5?$CFd?5?$CFlf?$AA@
CONST	SEGMENT
??_C@_09GHFPDIPJ@?$CFd?5?$CFd?5?$CFlf?$AA@ DB '%d %d %lf', 00H ; `string'
CONST	ENDS
;	COMDAT ??_C@_0CM@EGFEIDCM@Cannot?5open?5phase?5boundary?5energ@
CONST	SEGMENT
??_C@_0CM@EGFEIDCM@Cannot?5open?5phase?5boundary?5energ@ DB 'Cannot open '
	DB	'phase boundary energy file %s.', 0aH, 00H	; `string'
CONST	ENDS
;	COMDAT ??_C@_05CBPKLGJM@phase?$AA@
CONST	SEGMENT
??_C@_05CBPKLGJM@phase?$AA@ DB 'phase', 00H		; `string'
; Function compile flags: /Ogtp
CONST	ENDS
;	COMDAT _phase_initialize
_TEXT	SEGMENT
_value$ = -224						; size = 8
_one$ = -216						; size = 4
_j$ = -212						; size = 4
_i$ = -208						; size = 4
_line$ = -204						; size = 200
__$ArrayPad$ = -4					; size = 4
_phasename$ = 8						; size = 4
_phase_initialize PROC					; COMDAT

; 1920 : {

	push	ebp
	mov	ebp, esp
	sub	esp, 224				; 000000e0H
	mov	eax, DWORD PTR ___security_cookie
	xor	eax, ebp
	mov	DWORD PTR __$ArrayPad$[ebp], eax

; 1921 :   FILE *pfd;
; 1922 :   int i,j;         /* which phases */
; 1923 :   REAL value;
; 1924 :   char line[200];
; 1925 :   int one = 1;
; 1926 : 
; 1927 :   phase_flag = 1;
; 1928 : 
; 1929 :   if ( web.representation == STRING )

	cmp	DWORD PTR _web+624, 1
	push	ebx
	push	esi
	mov	esi, DWORD PTR _phasename$[ebp]

; 1930 :     F_PHASE_ATTR = add_attribute(FACET,"phase",INTEGER_TYPE,0,&one,0,NULL,MPI_NO_PROPAGATE);

	push	0
	push	0
	mov	DWORD PTR _one$[ebp], 1
	mov	DWORD PTR _phase_flag, 1
	push	0
	jne	SHORT $LN14@phase_init
	lea	eax, DWORD PTR _one$[ebp]
	push	eax
	push	0
	push	2
	push	OFFSET ??_C@_05CBPKLGJM@phase?$AA@
	push	2
	call	_add_attribute
	mov	DWORD PTR _F_PHASE_ATTR, eax

; 1931 :   else

	jmp	SHORT $LN27@phase_init
$LN14@phase_init:

; 1932 :     B_PHASE_ATTR = add_attribute(BODY,"phase",INTEGER_TYPE,0,&one,0,NULL,MPI_NO_PROPAGATE);

	lea	ecx, DWORD PTR _one$[ebp]
	push	ecx
	push	0
	push	2
	push	OFFSET ??_C@_05CBPKLGJM@phase?$AA@
	push	3
	call	_add_attribute
	mov	DWORD PTR _B_PHASE_ATTR, eax
$LN27@phase_init:
	add	esp, 32					; 00000020H

; 1933 : 
; 1934 :   /* save  name */
; 1935 :   strncpy(phase_file_name,phasename,sizeof(phase_file_name));

	push	1000					; 000003e8H
	push	esi
	push	OFFSET _phase_file_name
	call	_strncpy

; 1936 : 
; 1937 :   pfd = path_open(phasename,NOTDATAFILENAME);

	push	0
	push	esi
	call	_path_open
	mov	ebx, eax
	add	esp, 20					; 00000014H

; 1938 :   if ( pfd == NULL )

	test	ebx, ebx
	jne	SHORT $LN12@phase_init

; 1939 :   { sprintf(errmsg, "Cannot open phase boundary energy file %s.\n",phasename);

	push	esi
	push	OFFSET ??_C@_0CM@EGFEIDCM@Cannot?5open?5phase?5boundary?5energ@
	push	OFFSET _errmsg
	call	_sprintf

; 1940 :     kb_error(1746,errmsg, DATAFILE_ERROR);

	push	6
	push	OFFSET _errmsg
	push	1746					; 000006d2H
	call	_kb_error
	add	esp, 24					; 00000018H
	pop	esi
	pop	ebx

; 1975 : } // end phase_initialize()

	mov	ecx, DWORD PTR __$ArrayPad$[ebp]
	xor	ecx, ebp
	call	@__security_check_cookie@4
	mov	esp, ebp
	pop	ebp
	ret	0
$LN12@phase_init:

; 1941 :     return;
; 1942 :   }
; 1943 : 
; 1944 :   fscanf(pfd,"%d",&phasemax);

	push	OFFSET _phasemax
	push	OFFSET ??_C@_02DPKJAMEF@?$CFd?$AA@
	push	ebx
	call	_fscanf

; 1945 :   phase_data = dmatrix(0,phasemax,0,phasemax);

	mov	eax, DWORD PTR _phasemax
	push	1945					; 00000799H
	push	OFFSET ??_C@_0L@INLEEIPK@LEXINIT2?4C?$AA@
	push	eax
	push	0
	push	eax
	push	0
	call	_kb_dmatrix

; 1946 :   for ( i = 0 ; i <= phasemax ; i++ )

	mov	ecx, DWORD PTR _phasemax
	add	esp, 36					; 00000024H
	mov	DWORD PTR _phase_data, eax
	mov	DWORD PTR _i$[ebp], 0
	test	ecx, ecx
	js	SHORT $LN19@phase_init
	fld1
$LN11@phase_init:

; 1947 :      for ( j = 0 ; j <= phasemax ; j++ ) 

	xor	eax, eax
	mov	DWORD PTR _j$[ebp], eax
	test	ecx, ecx
	js	SHORT $LN10@phase_init
$LN22@phase_init:

; 1948 :         phase_data[i][j] = 1.0;

	mov	ecx, DWORD PTR _i$[ebp]
	mov	edx, DWORD PTR _phase_data
	mov	edx, DWORD PTR [edx+ecx*4]
	fst	QWORD PTR [edx+eax*8]
	mov	eax, DWORD PTR _j$[ebp]
	mov	ecx, DWORD PTR _phasemax
	inc	eax
	mov	DWORD PTR _j$[ebp], eax
	cmp	eax, ecx
	jle	SHORT $LN22@phase_init
$LN10@phase_init:

; 1946 :   for ( i = 0 ; i <= phasemax ; i++ )

	mov	eax, DWORD PTR _i$[ebp]
	inc	eax
	mov	DWORD PTR _i$[ebp], eax
	cmp	eax, ecx
	jle	SHORT $LN11@phase_init
	fstp	ST(0)
$LN19@phase_init:

; 1949 :   while ( fgets(line,sizeof(line),pfd) )

	push	ebx
	lea	eax, DWORD PTR _line$[ebp]
	push	200					; 000000c8H
	push	eax
	call	_fgets
	add	esp, 12					; 0000000cH
	test	eax, eax
	je	$LN4@phase_init
	npad	6
$LL5@phase_init:

; 1950 :   { 
; 1951 : #ifdef FLOAT128
; 1952 :     char *c;
; 1953 :     c = strtok(line," \t");
; 1954 :     if ( !c ) continue;
; 1955 :     i = atoi(c);
; 1956 :     c = strtok(NULL," \t");
; 1957 :     if ( !c ) continue;
; 1958 :     j = atoi(c);
; 1959 :     c = strtok(NULL," \t");
; 1960 :     if ( !c ) continue;
; 1961 :     value = atof(c);
; 1962 : #elif defined(LONGDOUBLE)
; 1963 :     if ( sscanf(line,"%d %d %Lf",&i,&j,&value) == 3 ) 
; 1964 : #else
; 1965 :     if ( sscanf(line,"%d %d %lf",&i,&j,&value) == 3 ) 

	lea	ecx, DWORD PTR _value$[ebp]
	push	ecx
	lea	edx, DWORD PTR _j$[ebp]
	push	edx
	lea	eax, DWORD PTR _i$[ebp]
	push	eax
	lea	ecx, DWORD PTR _line$[ebp]
	push	OFFSET ??_C@_09GHFPDIPJ@?$CFd?5?$CFd?5?$CFlf?$AA@
	push	ecx
	call	_sscanf
	add	esp, 20					; 00000014H
	cmp	eax, 3
	jne	$LN3@phase_init

; 1966 : #endif
; 1967 :     { if ( (i < 0) || (i > phasemax) || (j < 0) || (j > phasemax) )

	mov	eax, DWORD PTR _i$[ebp]
	mov	ecx, DWORD PTR _j$[ebp]
	test	eax, eax
	js	SHORT $LN1@phase_init
	mov	edx, DWORD PTR _phasemax
	cmp	eax, edx
	jg	SHORT $LN1@phase_init
	test	ecx, ecx
	js	SHORT $LN1@phase_init
	cmp	ecx, edx
	jle	SHORT $LN2@phase_init
$LN1@phase_init:

; 1968 :       { sprintf(errmsg,"Bad phase numbers: %d %d\n",i,j);

	push	ecx
	push	eax
	push	OFFSET ??_C@_0BK@FALCJKPP@Bad?5phase?5numbers?3?5?$CFd?5?$CFd?6?$AA@
	push	OFFSET _errmsg
	call	_sprintf

; 1969 :         kb_error(1747,errmsg,DATAFILE_ERROR);

	push	6
	push	OFFSET _errmsg
	push	1747					; 000006d3H
	call	_kb_error
	mov	eax, DWORD PTR _i$[ebp]
	mov	ecx, DWORD PTR _j$[ebp]
	add	esp, 28					; 0000001cH
$LN2@phase_init:

; 1970 :       }
; 1971 :       phase_data[i][j] = phase_data[j][i] = value;

	mov	edx, DWORD PTR _phase_data
	fld	QWORD PTR _value$[ebp]
	mov	ecx, DWORD PTR [edx+ecx*4]
	fstp	QWORD PTR [ecx+eax*8]
	mov	edx, DWORD PTR _i$[ebp]
	mov	eax, DWORD PTR _phase_data
	fld	QWORD PTR _value$[ebp]
	mov	ecx, DWORD PTR [eax+edx*4]
	mov	edx, DWORD PTR _j$[ebp]
	fstp	QWORD PTR [ecx+edx*8]
$LN3@phase_init:

; 1949 :   while ( fgets(line,sizeof(line),pfd) )

	push	ebx
	lea	eax, DWORD PTR _line$[ebp]
	push	200					; 000000c8H
	push	eax
	call	_fgets
	add	esp, 12					; 0000000cH
	test	eax, eax
	jne	$LL5@phase_init
$LN4@phase_init:

; 1972 :     }
; 1973 :   }
; 1974 :   fclose(pfd);

	push	ebx
	call	_fclose

; 1975 : } // end phase_initialize()

	mov	ecx, DWORD PTR __$ArrayPad$[ebp]
	add	esp, 4
	pop	esi
	xor	ecx, ebp
	pop	ebx
	call	@__security_check_cookie@4
	mov	esp, ebp
	pop	ebp
	ret	0
_phase_initialize ENDP
_TEXT	ENDS
PUBLIC	??_C@_0CJ@BCMJEMJG@Not?5enough?5values?5for?5transform?5@ ; `string'
PUBLIC	??_C@_0BK@NDCFKHJC@Missing?5transform?5color?4?6?$AA@ ; `string'
PUBLIC	??_C@_0BP@FOHODPDF@Missing?5number?5of?5transforms?4?6?$AA@ ; `string'
PUBLIC	__$ArrayPad$
PUBLIC	_read_transforms
EXTRN	_transforms_flag:DWORD
EXTRN	_determinant:PROC
EXTRN	_unput_tok:PROC
EXTRN	_transform_colors_flag:DWORD
EXTRN	_transform_colors:DWORD
EXTRN	_matcopy:PROC
EXTRN	_view_transform_det:DWORD
EXTRN	_identmat:DWORD
EXTRN	_kb_calloc:PROC
EXTRN	_allocate_transform_colors:PROC
EXTRN	_set_view_transforms_global:PROC
EXTRN	_kb_dmatrix3:PROC
EXTRN	_free_matrix3:PROC
EXTRN	_transform_count:DWORD
EXTRN	_view_transforms:DWORD
EXTRN	_lists_flag:DWORD
EXTRN	_mat2d_setup:PROC
;	COMDAT ??_C@_0CJ@BCMJEMJG@Not?5enough?5values?5for?5transform?5@
CONST	SEGMENT
??_C@_0CJ@BCMJEMJG@Not?5enough?5values?5for?5transform?5@ DB 'Not enough '
	DB	'values for transform matrix.', 0aH, 00H	; `string'
CONST	ENDS
;	COMDAT ??_C@_0BK@NDCFKHJC@Missing?5transform?5color?4?6?$AA@
CONST	SEGMENT
??_C@_0BK@NDCFKHJC@Missing?5transform?5color?4?6?$AA@ DB 'Missing transfo'
	DB	'rm color.', 0aH, 00H			; `string'
CONST	ENDS
;	COMDAT ??_C@_0BP@FOHODPDF@Missing?5number?5of?5transforms?4?6?$AA@
CONST	SEGMENT
??_C@_0BP@FOHODPDF@Missing?5number?5of?5transforms?4?6?$AA@ DB 'Missing n'
	DB	'umber of transforms.', 0aH, 00H		; `string'
; Function compile flags: /Ogtp
CONST	ENDS
;	COMDAT _read_transforms
_TEXT	SEGMENT
_temp_matqXvS$ = -436					; size = 28
_value$ = -408						; size = 8
_temp_mat$ = -400					; size = 4
_temp_matxJ$ = -396					; size = 392
__$ArrayPad$ = -4					; size = 4
_count$ = 8						; size = 4
_read_transforms PROC					; COMDAT

; 1986 : {

	push	ebp
	mov	ebp, esp
	sub	esp, 436				; 000001b4H
	mov	eax, DWORD PTR ___security_cookie
	xor	eax, ebp
	mov	DWORD PTR __$ArrayPad$[ebp], eax
	push	esi

; 1987 :   int i,j,n;
; 1988 :   REAL value;
; 1989 :   MAT2D(temp_mat,MAXCOORD+1,MAXCOORD+1);

	push	7
	push	7
	lea	eax, DWORD PTR _temp_matxJ$[ebp]
	push	eax
	lea	ecx, DWORD PTR _temp_matqXvS$[ebp]
	push	ecx
	call	_mat2d_setup
	mov	DWORD PTR _temp_mat$[ebp], eax

; 1990 : 
; 1991 :   lists_flag = 1;
; 1992 :   if ( count > 0 ) transform_count = count+1;

	mov	eax, DWORD PTR _count$[ebp]
	add	esp, 16					; 00000010H
	mov	esi, 1
	mov	DWORD PTR _lists_flag, esi
	test	eax, eax
	jle	SHORT $LN24@read_trans
	lea	ecx, DWORD PTR [eax+1]

; 1993 :   else

	jmp	SHORT $LN38@read_trans
$LN24@read_trans:

; 1994 :   {
; 1995 :     /* find how many transforms */
; 1996 :     if ( (tok = gettok(INTEGER_TOK)) != INTEGER_TOK )

	push	265					; 00000109H
	call	_gettok
	add	esp, 4
	mov	DWORD PTR _tok, eax
	cmp	eax, 265				; 00000109H
	je	SHORT $LN22@read_trans

; 1997 :     { kb_error(1748,"Missing number of transforms.\n",DATAFILE_ERROR);

	push	6
	push	OFFSET ??_C@_0BP@FOHODPDF@Missing?5number?5of?5transforms?4?6?$AA@
	push	1748					; 000006d4H
	call	_kb_error
	add	esp, 12					; 0000000cH

; 1998 :       transform_count = 1;

	mov	ecx, esi
	jmp	SHORT $LN38@read_trans
$LN22@read_trans:

; 1999 :     }
; 2000 :     else transform_count = yylval.i+1;     /* including identity */

	mov	ecx, DWORD PTR _yylval
	inc	ecx
$LN38@read_trans:

; 2001 :   }
; 2002 : 
; 2003 :   if ( view_transforms )   

	mov	eax, DWORD PTR _view_transforms
	mov	DWORD PTR _transform_count, ecx
	test	eax, eax
	je	SHORT $LN20@read_trans

; 2004 :   { free_matrix3(view_transforms); view_transforms = NULL;}

	push	eax
	call	_free_matrix3
	mov	ecx, DWORD PTR _transform_count
	add	esp, 4
	mov	DWORD PTR _view_transforms, 0
$LN20@read_trans:

; 2005 : 
; 2006 :   if ( transform_count <= 0 ) return;

	test	ecx, ecx
	jle	$LN1@read_trans

; 2007 :   view_transforms = dmatrix3(transform_count,SDIM+1,SDIM+1);

	mov	eax, DWORD PTR _web+616
	push	ebx
	push	edi
	push	2007					; 000007d7H
	inc	eax
	push	OFFSET ??_C@_0L@INLEEIPK@LEXINIT2?4C?$AA@
	push	eax
	push	eax
	push	ecx
	call	_kb_dmatrix3
	mov	DWORD PTR _view_transforms, eax

; 2008 :   set_view_transforms_global();

	call	_set_view_transforms_global

; 2009 :   allocate_transform_colors(transform_count);

	mov	edx, DWORD PTR _transform_count
	push	edx
	call	_allocate_transform_colors

; 2010 :   view_transform_det = (int*)mycalloc(transform_count,sizeof(int));

	mov	eax, DWORD PTR _transform_count
	push	2010					; 000007daH
	push	OFFSET ??_C@_0L@INLEEIPK@LEXINIT2?4C?$AA@
	push	4
	push	eax
	call	_kb_calloc

; 2011 :   matcopy(view_transforms[0],identmat,SDIM+1,SDIM+1);

	mov	ecx, DWORD PTR _identmat
	mov	edx, DWORD PTR _view_transforms
	mov	DWORD PTR _view_transform_det, eax
	mov	eax, DWORD PTR _web+616
	inc	eax
	push	eax
	push	eax
	mov	eax, DWORD PTR [edx]
	push	ecx
	push	eax
	call	_matcopy

; 2012 :   transform_colors[0] = SAME_COLOR;

	mov	ecx, DWORD PTR _transform_colors
	mov	DWORD PTR [ecx], 0

; 2013 :   view_transform_det[0] = 1;

	mov	edx, DWORD PTR _view_transform_det
	mov	DWORD PTR [edx], esi

; 2014 : 
; 2015 :   /* read in transform matrices, in homogeneous coords */
; 2016 :   for ( n = 1 ; n < transform_count ; n++ )

	mov	eax, DWORD PTR _transform_count
	add	esp, 56					; 00000038H
	mov	ebx, esi
	cmp	eax, esi
	jle	$LN16@read_trans
$LL35@read_trans:

; 2017 :   { tok = yylex();

	push	0
	call	_kb_yylex
	add	esp, 4
	mov	DWORD PTR _tok, eax

; 2018 :     if ( tok == COLOR_TOK )

	cmp	eax, 289				; 00000121H
	jne	SHORT $LN15@read_trans

; 2019 :     { if ( (tok = gettok(INTEGER_TOK)) != INTEGER_TOK )

	push	265					; 00000109H
	call	_gettok
	add	esp, 4
	mov	DWORD PTR _tok, eax
	cmp	eax, 265				; 00000109H
	je	SHORT $LN14@read_trans

; 2020 :          kb_error(1749,"Missing transform color.\n",DATAFILE_ERROR);

	push	6
	push	OFFSET ??_C@_0BK@NDCFKHJC@Missing?5transform?5color?4?6?$AA@
	push	1749					; 000006d5H
	call	_kb_error
	add	esp, 12					; 0000000cH
$LN14@read_trans:

; 2021 :       transform_colors[n] = yylval.i;

	mov	eax, DWORD PTR _yylval
	mov	ecx, DWORD PTR _transform_colors
	mov	DWORD PTR [ecx+ebx*4], eax

; 2022 :       transform_colors_flag = 1;

	mov	DWORD PTR _transform_colors_flag, esi
	jmp	SHORT $LN11@read_trans
$LN15@read_trans:

; 2023 :     }
; 2024 :     else if ( tok == SWAP_COLORS_TOK )

	cmp	eax, 35010				; 000088c2H
	jne	SHORT $LN12@read_trans

; 2025 :     { transform_colors[n] = SWAP_COLORS;

	mov	edx, DWORD PTR _transform_colors
	mov	DWORD PTR [edx+ebx*4], esi

; 2026 :       transform_colors_flag = 1;

	mov	DWORD PTR _transform_colors_flag, esi

; 2027 :     }
; 2028 :     else

	jmp	SHORT $LN11@read_trans
$LN12@read_trans:

; 2029 :     { transform_colors[n] = SAME_COLOR;

	mov	eax, DWORD PTR _transform_colors
	mov	DWORD PTR [eax+ebx*4], 0

; 2030 :       unput_tok();

	call	_unput_tok
$LN11@read_trans:

; 2031 :     }
; 2032 :     for ( i = 0 ; i <= SDIM ; i++ )

	mov	eax, DWORD PTR _web+616
	xor	edi, edi
	test	eax, eax
	js	$LN17@read_trans
$LL34@read_trans:

; 2033 :     { for ( j = 0 ; j <= SDIM ; j++ ) 

	xor	esi, esi
	test	eax, eax
	js	SHORT $LN5@read_trans
	npad	7
$LL7@read_trans:

; 2034 :       { if ( read_const(&value) <= 0 )

	lea	ecx, DWORD PTR _value$[ebp]
	push	ecx
	call	_read_const
	add	esp, 4
	test	eax, eax
	jle	$LN30@read_trans

; 2037 :           return;
; 2038 :         }
; 2039 :         view_transforms[n][i][j] = value;

	mov	edx, DWORD PTR _view_transforms
	fld	QWORD PTR _value$[ebp]
	mov	eax, DWORD PTR [edx+ebx*4]
	mov	ecx, DWORD PTR [eax+edi*4]
	fstp	QWORD PTR [ecx+esi*8]
	mov	eax, DWORD PTR _web+616
	inc	esi
	cmp	esi, eax
	jle	SHORT $LL7@read_trans
$LN5@read_trans:

; 2040 :       }     
; 2041 :       matcopy(temp_mat,view_transforms[n],SDIM+1,SDIM+1);

	mov	edx, DWORD PTR _view_transforms
	mov	esi, DWORD PTR _temp_mat$[ebp]
	inc	eax
	push	eax
	push	eax
	mov	eax, DWORD PTR [edx+ebx*4]
	push	eax
	push	esi
	call	_matcopy

; 2042 :       if ( determinant(temp_mat,SDIM+1) > 0.0 )

	mov	ecx, DWORD PTR _web+616
	inc	ecx
	push	ecx
	push	esi
	call	_determinant
	fcomp	QWORD PTR __real@0000000000000000
	add	esp, 24					; 00000018H
	fnstsw	ax
	test	ah, 65					; 00000041H
	jne	SHORT $LN3@read_trans

; 2043 :          view_transform_det[n] = 1;

	mov	edx, DWORD PTR _view_transform_det
	mov	DWORD PTR [edx+ebx*4], 1
	jmp	SHORT $LN9@read_trans
$LN3@read_trans:

; 2044 :       else  view_transform_det[n] = -1;

	mov	eax, DWORD PTR _view_transform_det
	mov	DWORD PTR [eax+ebx*4], -1
$LN9@read_trans:

; 2031 :     }
; 2032 :     for ( i = 0 ; i <= SDIM ; i++ )

	mov	eax, DWORD PTR _web+616
	inc	edi
	cmp	edi, eax
	jle	$LL34@read_trans
	mov	esi, 1
$LN17@read_trans:

; 2014 : 
; 2015 :   /* read in transform matrices, in homogeneous coords */
; 2016 :   for ( n = 1 ; n < transform_count ; n++ )

	mov	eax, DWORD PTR _transform_count
	add	ebx, esi
	cmp	ebx, eax
	jl	$LL35@read_trans
$LN16@read_trans:

; 2045 :     }
; 2046 :   }
; 2047 :   transforms_flag = 1; /* default is to show */

	mov	DWORD PTR _transforms_flag, esi

; 2048 :   lists_flag = 0;

	mov	DWORD PTR _lists_flag, 0

; 2049 :   if ( n == transform_count ) tok = yylex(); /* lookahead */

	cmp	ebx, eax
	jne	SHORT $LN36@read_trans
	push	0
	call	_kb_yylex
	add	esp, 4
	mov	DWORD PTR _tok, eax
$LN36@read_trans:
	pop	edi
	pop	ebx
$LN1@read_trans:
	pop	esi

; 2050 : } // end read_transforms()

	mov	ecx, DWORD PTR __$ArrayPad$[ebp]
	xor	ecx, ebp
	call	@__security_check_cookie@4
	mov	esp, ebp
	pop	ebp
	ret	0
$LN30@read_trans:

; 2035 :         { kb_error(1750,"Not enough values for transform matrix.\n",
; 2036 :              DATAFILE_ERROR);

	push	6
	push	OFFSET ??_C@_0CJ@BCMJEMJG@Not?5enough?5values?5for?5transform?5@
	push	1750					; 000006d6H
	call	_kb_error

; 2050 : } // end read_transforms()

	mov	ecx, DWORD PTR __$ArrayPad$[ebp]
	add	esp, 12					; 0000000cH
	pop	edi
	pop	ebx
	xor	ecx, ebp
	pop	esi
	call	@__security_check_cookie@4
	mov	esp, ebp
	pop	ebp
	ret	0
_read_transforms ENDP
_TEXT	ENDS
PUBLIC	??_C@_0BF@EDOAEIAK@edge_vector_integral?$AA@	; `string'
PUBLIC	??_C@_0BH@EHAKMPOM@vertex_scalar_integral?$AA@	; `string'
PUBLIC	??_C@_0BK@LGGCNLLE@constraint_?$CFd_energy_inst?$AA@ ; `string'
PUBLIC	??_C@_0BF@GLGPDKCP@constraint_?$CFd_energy?$AA@	; `string'
PUBLIC	??_C@_0BK@LFBNENBI@constraint_?$CFs_energy_inst?$AA@ ; `string'
PUBLIC	??_C@_0BF@KDMOBFJH@constraint_?$CFs_energy?$AA@	; `string'
PUBLIC	_i$GSCopy$
PUBLIC	__$ArrayPad$
PUBLIC	_convert_constraint_to_quantities
EXTRN	_e_on_constraint:PROC
EXTRN	_apply_quantity:PROC
EXTRN	_v_on_constraint:PROC
EXTRN	_apply_method_num:PROC
EXTRN	_attach_method_num:PROC
EXTRN	_meth_inst_list:DWORD
EXTRN	_new_method_instance:PROC
EXTRN	_new_quantity:PROC
;	COMDAT ??_C@_0BF@EDOAEIAK@edge_vector_integral?$AA@
CONST	SEGMENT
??_C@_0BF@EDOAEIAK@edge_vector_integral?$AA@ DB 'edge_vector_integral', 00H ; `string'
CONST	ENDS
;	COMDAT ??_C@_0BH@EHAKMPOM@vertex_scalar_integral?$AA@
CONST	SEGMENT
??_C@_0BH@EHAKMPOM@vertex_scalar_integral?$AA@ DB 'vertex_scalar_integral'
	DB	00H						; `string'
CONST	ENDS
;	COMDAT ??_C@_0BK@LGGCNLLE@constraint_?$CFd_energy_inst?$AA@
CONST	SEGMENT
??_C@_0BK@LGGCNLLE@constraint_?$CFd_energy_inst?$AA@ DB 'constraint_%d_en'
	DB	'ergy_inst', 00H				; `string'
CONST	ENDS
;	COMDAT ??_C@_0BF@GLGPDKCP@constraint_?$CFd_energy?$AA@
CONST	SEGMENT
??_C@_0BF@GLGPDKCP@constraint_?$CFd_energy?$AA@ DB 'constraint_%d_energy', 00H ; `string'
CONST	ENDS
;	COMDAT ??_C@_0BK@LFBNENBI@constraint_?$CFs_energy_inst?$AA@
CONST	SEGMENT
??_C@_0BK@LFBNENBI@constraint_?$CFs_energy_inst?$AA@ DB 'constraint_%s_en'
	DB	'ergy_inst', 00H				; `string'
CONST	ENDS
;	COMDAT ??_C@_0BF@KDMOBFJH@constraint_?$CFs_energy?$AA@
CONST	SEGMENT
??_C@_0BF@KDMOBFJH@constraint_?$CFs_energy?$AA@ DB 'constraint_%s_energy', 00H ; `string'
; Function compile flags: /Ogtp
CONST	ENDS
;	COMDAT _convert_constraint_to_quantities
_TEXT	SEGMENT
tv293 = -224						; size = 8
_gq$ = -220						; size = 4
_con$ = -216						; size = 4
_i$GSCopy$ = -212					; size = 4
_meth$ = -208						; size = 4
_qname$ = -204						; size = 100
_inst_name$ = -104					; size = 100
__$ArrayPad$ = -4					; size = 4
_i$ = 8							; size = 4
_convert_constraint_to_quantities PROC			; COMDAT

; 2059 : {   int j;

	push	ebp
	mov	ebp, esp
	sub	esp, 224				; 000000e0H
	mov	eax, DWORD PTR ___security_cookie
	xor	eax, ebp
	mov	DWORD PTR __$ArrayPad$[ebp], eax
	push	ebx
	mov	ebx, DWORD PTR _i$[ebp]
	push	esi

; 2060 :     char qname[100];
; 2061 :     char inst_name[100];
; 2062 :     int gq;
; 2063 :     int meth;
; 2064 :     edge_id e_id;
; 2065 :     struct constraint *con = get_constraint(i);

	mov	esi, ebx
	and	esi, 1073741823				; 3fffffffH
	imul	esi, 176				; 000000b0H
	add	esi, DWORD PTR _web+652

; 2066 :     if ( !(con->attr & CON_ENERGY) ) return;

	xor	edx, edx
	mov	eax, DWORD PTR [esi+36]
	mov	ecx, DWORD PTR [esi+32]
	mov	DWORD PTR tv293[ebp+4], eax
	mov	eax, ecx
	and	eax, 64					; 00000040H
	or	eax, edx
	mov	DWORD PTR _i$GSCopy$[ebp], ebx
	mov	DWORD PTR _con$[ebp], esi
	je	$LN25@convert_co

; 2067 :     if ( con->attr & NAMED_THING )

	and	ecx, 512				; 00000200H
	xor	eax, eax
	or	ecx, eax
	je	SHORT $LN23@convert_co

; 2068 :     { sprintf(qname,"constraint_%s_energy",con->name);

	push	esi
	lea	ecx, DWORD PTR _qname$[ebp]
	push	OFFSET ??_C@_0BF@KDMOBFJH@constraint_?$CFs_energy?$AA@
	push	ecx
	call	_sprintf

; 2069 :       sprintf(inst_name,"constraint_%s_energy_inst",con->name);

	push	esi
	push	OFFSET ??_C@_0BK@LFBNENBI@constraint_?$CFs_energy_inst?$AA@
	lea	edx, DWORD PTR _inst_name$[ebp]
	push	edx

; 2070 :     }
; 2071 :     else

	jmp	SHORT $LN37@convert_co
$LN23@convert_co:

; 2072 :     { sprintf(qname,"constraint_%d_energy",i);

	push	ebx
	lea	eax, DWORD PTR _qname$[ebp]
	push	OFFSET ??_C@_0BF@GLGPDKCP@constraint_?$CFd_energy?$AA@
	push	eax
	call	_sprintf

; 2073 :       sprintf(inst_name,"constraint_%d_energy_inst",i);

	push	ebx
	push	OFFSET ??_C@_0BK@LGGCNLLE@constraint_?$CFd_energy_inst?$AA@
	lea	ecx, DWORD PTR _inst_name$[ebp]
	push	ecx
$LN37@convert_co:
	call	_sprintf
	add	esp, 24					; 00000018H

; 2074 :     }
; 2075 :     gq = new_quantity(qname,Q_ENERGY);

	lea	edx, DWORD PTR _qname$[ebp]
	push	1
	push	edx
	call	_new_quantity

; 2076 :     GEN_QUANT(gq)->flags |= DEFAULT_QUANTITY;

	mov	ecx, DWORD PTR _gen_quant_list
	mov	DWORD PTR _gq$[ebp], eax
	imul	eax, 368				; 00000170H
	or	DWORD PTR [eax+ecx+136], 8192		; 00002000H
	lea	eax, DWORD PTR [eax+ecx+136]
	add	esp, 8

; 2077 :     if ( web.representation ==  STRING )

	cmp	DWORD PTR _web+624, 1
	jne	SHORT $LN21@convert_co

; 2078 :        meth = new_method_instance("vertex_scalar_integral",inst_name);

	lea	edx, DWORD PTR _inst_name$[ebp]
	push	edx
	push	OFFSET ??_C@_0BH@EHAKMPOM@vertex_scalar_integral?$AA@
	call	_new_method_instance
	mov	ecx, eax
	mov	DWORD PTR _meth$[ebp], ecx

; 2079 :     else

	jmp	SHORT $LN38@convert_co
$LN21@convert_co:

; 2080 :        meth = new_method_instance("edge_vector_integral",inst_name);

	lea	eax, DWORD PTR _inst_name$[ebp]
	push	eax
	push	OFFSET ??_C@_0BF@EDOAEIAK@edge_vector_integral?$AA@
	call	_new_method_instance
	mov	DWORD PTR _meth$[ebp], eax
	mov	ecx, eax
$LN38@convert_co:

; 2081 :     METH_INSTANCE(meth)->connum = i;

	mov	eax, ecx
	cdq
	add	esp, 8
	push	edi
	mov	edi, eax
	xor	edi, edx
	sub	edi, edx
	mov	edx, DWORD PTR _meth_inst_list
	imul	edi, 2928				; 00000b70H
	mov	DWORD PTR [edi+edx+216], ebx

; 2082 :     METH_INSTANCE(meth)->flags |= IMPLICIT_INSTANCE|DEFAULT_INSTANCE;

	mov	eax, DWORD PTR _meth_inst_list
	or	DWORD PTR [edi+eax+140], 6291456	; 00600000H

; 2083 :     attach_method_num(gq,meth);

	mov	eax, DWORD PTR _gq$[ebp]
	push	ecx
	push	eax
	call	_attach_method_num

; 2084 :     if ( con->attr & GLOBAL ) 

	mov	eax, DWORD PTR [esi+32]
	and	eax, 4
	xor	ecx, ecx
	add	esp, 8
	or	eax, ecx
	je	SHORT $LN19@convert_co

; 2085 :        apply_method_num(NULLID,meth);

	mov	ecx, DWORD PTR _meth$[ebp]
	push	ecx
	push	0
	call	_apply_method_num
	add	esp, 8

; 2086 :     else

	jmp	$LN35@convert_co
$LN19@convert_co:

; 2087 :     { vertex_id v_id;
; 2088 :       if ( web.representation == STRING )

	cmp	DWORD PTR _web+624, 1
	jne	SHORT $LN17@convert_co

; 2089 :       { FOR_ALL_VERTICES(v_id)

	mov	ebx, DWORD PTR _web+48
	test	ebx, 268435456				; 10000000H
	je	$LN35@convert_co
	npad	6
$LL16@convert_co:
	mov	edx, DWORD PTR _web+12
	mov	esi, ebx
	and	esi, 134217727				; 07ffffffH
	add	esi, esi
	add	esi, esi
	mov	eax, DWORD PTR [esi+edx]
	mov	eax, DWORD PTR [eax+8]
	and	eax, 1
	xor	ecx, ecx
	or	eax, ecx
	je	SHORT $LN15@convert_co

; 2090 :           if ( v_on_constraint(v_id,i) ) 

	mov	eax, DWORD PTR _i$GSCopy$[ebp]
	push	eax
	push	ebx
	call	_v_on_constraint
	add	esp, 8
	test	eax, eax
	je	SHORT $LN15@convert_co

; 2091 :             apply_quantity(v_id,gq);

	mov	ecx, DWORD PTR _gq$[ebp]
	push	ecx
	push	ebx
	call	_apply_quantity
	add	esp, 8
$LN15@convert_co:

; 2089 :       { FOR_ALL_VERTICES(v_id)

	mov	edx, DWORD PTR _web+12
	mov	eax, DWORD PTR [esi+edx]
	mov	ebx, DWORD PTR [eax]
	test	ebx, 268435456				; 10000000H
	jne	SHORT $LL16@convert_co

; 2092 :       }
; 2093 :       else 

	jmp	SHORT $LN39@convert_co
$LN17@convert_co:

; 2094 :       { FOR_ALL_EDGES(e_id)

	mov	ebx, DWORD PTR _web+160
	test	ebx, 268435456				; 10000000H
	je	SHORT $LN35@convert_co
	npad	8
$LL9@convert_co:
	mov	ecx, DWORD PTR _web+124
	mov	esi, ebx
	and	esi, 134217727				; 07ffffffH
	add	esi, esi
	add	esi, esi
	mov	eax, DWORD PTR [esi+ecx]
	mov	eax, DWORD PTR [eax+8]
	and	eax, 1
	xor	ecx, ecx
	or	eax, ecx
	je	SHORT $LN8@convert_co

; 2095 :           if ( e_on_constraint(e_id,i) ) 

	mov	edx, DWORD PTR _i$GSCopy$[ebp]
	push	edx
	push	ebx
	call	_e_on_constraint
	add	esp, 8
	test	eax, eax
	je	SHORT $LN8@convert_co

; 2096 :              apply_quantity(e_id,gq);

	mov	eax, DWORD PTR _gq$[ebp]
	push	eax
	push	ebx
	call	_apply_quantity
	add	esp, 8
$LN8@convert_co:

; 2094 :       { FOR_ALL_EDGES(e_id)

	mov	ecx, DWORD PTR _web+124
	mov	edx, DWORD PTR [esi+ecx]
	mov	ebx, DWORD PTR [edx]
	test	ebx, 268435456				; 10000000H
	jne	SHORT $LL9@convert_co
$LN39@convert_co:
	mov	esi, DWORD PTR _con$[ebp]
$LN35@convert_co:

; 2097 :       }
; 2098 :     }
; 2099 :     for ( j = 0 ; j < SDIM ; j++ ) 

	xor	ecx, ecx
	cmp	DWORD PTR _web+616, ecx
	jle	SHORT $LN1@convert_co
	add	edi, 232				; 000000e8H
	lea	eax, DWORD PTR [esi+48]
$LL3@convert_co:

; 2100 :        METH_INSTANCE(meth)->expr[j] = con->envect[j];

	mov	edx, DWORD PTR [eax]
	mov	ebx, DWORD PTR _meth_inst_list
	mov	DWORD PTR [edi+ebx], edx
	inc	ecx
	add	eax, 4
	add	edi, 4
	cmp	ecx, DWORD PTR _web+616
	jl	SHORT $LL3@convert_co
$LN1@convert_co:

; 2101 :     con->attr |= USURPED_BY_QUANTITY;  /* prevent dual expr deallocation */

	mov	eax, DWORD PTR [esi+36]

; 2102 :     con->energy_method = meth;

	mov	ecx, DWORD PTR _meth$[ebp]
	or	DWORD PTR [esi+32], 256			; 00000100H
	mov	DWORD PTR [esi+36], eax
	mov	DWORD PTR [esi+168], ecx
	pop	edi
$LN25@convert_co:

; 2103 : 
; 2104 : } // end convert_constraint_to_quantities()

	mov	ecx, DWORD PTR __$ArrayPad$[ebp]
	pop	esi
	xor	ecx, ebp
	pop	ebx
	call	@__security_check_cookie@4
	mov	esp, ebp
	pop	ebp
	ret	0
_convert_constraint_to_quantities ENDP
_TEXT	ENDS
PUBLIC	??_C@_0DE@EMKIJNG@Not?5enough?5entries?5for?5transform@ ; `string'
PUBLIC	??_C@_0CO@HHLBHCBD@Missing?5number?5of?5view_transform@ ; `string'
PUBLIC	_read_transform_generators
EXTRN	_calc_view_transform_gens:PROC
EXTRN	_transform_gen_swap:DWORD
EXTRN	_view_transform_gens:DWORD
EXTRN	_free_expr:PROC
EXTRN	_transform_gen_count:DWORD
EXTRN	_view_transform_gens_expr:DWORD
;	COMDAT ??_C@_0DE@EMKIJNG@Not?5enough?5entries?5for?5transform@
CONST	SEGMENT
??_C@_0DE@EMKIJNG@Not?5enough?5entries?5for?5transform@ DB 'Not enough en'
	DB	'tries for transform generator matrix.', 0aH, 00H ; `string'
CONST	ENDS
;	COMDAT ??_C@_0CO@HHLBHCBD@Missing?5number?5of?5view_transform@
CONST	SEGMENT
??_C@_0CO@HHLBHCBD@Missing?5number?5of?5view_transform@ DB 'Missing numbe'
	DB	'r of view_transform_generators.', 0aH, 00H	; `string'
; Function compile flags: /Ogtp
CONST	ENDS
;	COMDAT _read_transform_generators
_TEXT	SEGMENT
_n$ = -8						; size = 4
_i$ = -8						; size = 4
tv329 = -4						; size = 4
tv392 = 8						; size = 4
_count$ = 8						; size = 4
_read_transform_generators PROC				; COMDAT

; 2115 : {

	push	ebp
	mov	ebp, esp
	sub	esp, 8
	push	ebx
	push	esi

; 2116 :   int i,j,n;
; 2117 : 
; 2118 :   // take care of addload memory leak
; 2119 :   if (  view_transform_gens_expr )

	xor	esi, esi
	push	edi
	cmp	DWORD PTR _view_transform_gens_expr, esi
	je	$LN50@read_trans@2

; 2120 :   { for ( i = 0; i < transform_gen_count ; i++ )

	mov	DWORD PTR _i$[ebp], esi
	cmp	DWORD PTR _transform_gen_count, esi
	jle	SHORT $LN28@read_trans@2
	mov	eax, DWORD PTR _web+616
	mov	DWORD PTR tv329[ebp], esi
	npad	6
$LL55@read_trans@2:

; 2121 :       for ( j = 0 ; j <= SDIM ; j++ )

	xor	ebx, ebx
	test	eax, eax
	js	SHORT $LN29@read_trans@2
$LL53@read_trans@2:

; 2122 :         for ( n = 0 ; n <= SDIM ; n++ )

	xor	edi, edi
	test	eax, eax
	js	SHORT $LN26@read_trans@2
	mov	esi, DWORD PTR tv329[ebp]
	add	esi, ebx
	imul	esi, 624				; 00000270H
	npad	9
$LL49@read_trans@2:

; 2123 :           free_expr(&view_transform_gens_expr[i][j][n]);

	mov	ecx, DWORD PTR _view_transform_gens_expr
	lea	edx, DWORD PTR [esi+ecx]
	push	edx
	call	_free_expr
	mov	eax, DWORD PTR _web+616
	inc	edi
	add	esp, 4
	add	esi, 104				; 00000068H
	cmp	edi, eax
	jle	SHORT $LL49@read_trans@2
$LN26@read_trans@2:

; 2121 :       for ( j = 0 ; j <= SDIM ; j++ )

	inc	ebx
	cmp	ebx, eax
	jle	SHORT $LL53@read_trans@2
$LN29@read_trans@2:

; 2120 :   { for ( i = 0; i < transform_gen_count ; i++ )

	mov	ecx, DWORD PTR _i$[ebp]
	add	DWORD PTR tv329[ebp], 6
	inc	ecx
	mov	DWORD PTR _i$[ebp], ecx
	cmp	ecx, DWORD PTR _transform_gen_count
	jl	SHORT $LL55@read_trans@2
$LN28@read_trans@2:

; 2124 :     myfree((char*)view_transform_gens_expr);

	mov	eax, DWORD PTR _view_transform_gens_expr
	push	eax
	call	_myfree
	add	esp, 4

; 2125 :     view_transform_gens_expr = NULL;

	xor	esi, esi
	mov	DWORD PTR _view_transform_gens_expr, esi

; 2126 :     transform_gen_count = 0;

	mov	DWORD PTR _transform_gen_count, esi
$LN50@read_trans@2:

; 2127 :   }
; 2128 :   if ( view_transform_gens )

	mov	eax, DWORD PTR _view_transform_gens
	cmp	eax, esi
	je	SHORT $LN21@read_trans@2

; 2129 :     free_matrix3(view_transform_gens);

	push	eax
	call	_free_matrix3
	add	esp, 4
$LN21@read_trans@2:

; 2130 : 
; 2131 :   lists_flag = 1;
; 2132 :   if ( count > 0 ) transform_count = count;

	mov	eax, DWORD PTR _count$[ebp]
	mov	DWORD PTR _lists_flag, 1
	cmp	eax, esi
	jle	SHORT $LN20@read_trans@2
	mov	DWORD PTR _transform_count, eax

; 2133 :   else

	jmp	SHORT $LN17@read_trans@2
$LN20@read_trans@2:

; 2134 :   { /* find how many transforms */
; 2135 :     if ( (tok = gettok(INTEGER_TOK)) != INTEGER_TOK )

	push	265					; 00000109H
	call	_gettok
	add	esp, 4
	mov	DWORD PTR _tok, eax
	cmp	eax, 265				; 00000109H
	je	SHORT $LN18@read_trans@2

; 2136 :     { kb_error(1751,"Missing number of view_transform_generators.\n",DATAFILE_ERROR);

	push	6
	push	OFFSET ??_C@_0CO@HHLBHCBD@Missing?5number?5of?5view_transform@
	push	1751					; 000006d7H
	call	_kb_error

; 2137 :       transform_gen_count = 1;

	mov	DWORD PTR _transform_gen_count, 1
	jmp	SHORT $LN58@read_trans@2
$LN18@read_trans@2:

; 2138 :     }
; 2139 :     else transform_gen_count = yylval.i;

	mov	ecx, DWORD PTR _yylval
	mov	DWORD PTR _transform_gen_count, ecx
$LN17@read_trans@2:

; 2140 :   }
; 2141 :   if ( transform_gen_count < 0 )

	cmp	DWORD PTR _transform_gen_count, esi
	jge	SHORT $LN52@read_trans@2

; 2142 :   { kb_error(3900,"Missing number of view_transform_generators.\n",DATAFILE_ERROR);

	push	6
	push	OFFSET ??_C@_0CO@HHLBHCBD@Missing?5number?5of?5view_transform@
	push	3900					; 00000f3cH
	call	_kb_error

; 2143 :     transform_gen_count = 0;

	mov	DWORD PTR _transform_gen_count, esi
$LN58@read_trans@2:

; 2142 :   { kb_error(3900,"Missing number of view_transform_generators.\n",DATAFILE_ERROR);

	add	esp, 12					; 0000000cH
$LN52@read_trans@2:

; 2144 :   }
; 2145 :  
; 2146 : 
; 2147 :   if ( transform_gen_swap ) myfree((char*)transform_gen_swap);

	mov	eax, DWORD PTR _transform_gen_swap
	cmp	eax, esi
	je	SHORT $LN15@read_trans@2
	push	eax
	call	_myfree
	add	esp, 4
$LN15@read_trans@2:

; 2148 :   transform_gen_swap = (int*)mycalloc(transform_gen_count+SDIM,sizeof(int));

	mov	edx, DWORD PTR _web+616
	add	edx, DWORD PTR _transform_gen_count
	push	2148					; 00000864H
	push	OFFSET ??_C@_0L@INLEEIPK@LEXINIT2?4C?$AA@
	push	4
	push	edx
	call	_kb_calloc

; 2149 :   view_transform_gens = dmatrix3(web.torus_flag?(transform_gen_count+SDIM):
; 2150 :             transform_gen_count,SDIM+1,SDIM+1);

	mov	ecx, DWORD PTR _transform_gen_count
	add	esp, 16					; 00000010H
	mov	DWORD PTR _transform_gen_swap, eax
	mov	eax, DWORD PTR _web+616
	cmp	DWORD PTR _web+860, esi
	je	SHORT $LN35@read_trans@2
	add	ecx, eax
$LN35@read_trans@2:
	push	2150					; 00000866H
	inc	eax
	push	OFFSET ??_C@_0L@INLEEIPK@LEXINIT2?4C?$AA@
	push	eax
	push	eax
	push	ecx
	call	_kb_dmatrix3
	mov	DWORD PTR _view_transform_gens, eax

; 2151 :   view_transform_gens_expr = 
; 2152 :         (expnodearray *)mycalloc((MAXCOORD+1)*(MAXCOORD+1)*(transform_gen_count+SDIM),
; 2153 :                                     sizeof(struct expnode));

	mov	eax, DWORD PTR _web+616
	add	eax, DWORD PTR _transform_gen_count
	push	2153					; 00000869H
	imul	eax, 49					; 00000031H
	push	OFFSET ??_C@_0L@INLEEIPK@LEXINIT2?4C?$AA@
	push	104					; 00000068H
	push	eax
	call	_kb_calloc

; 2154 : 
; 2155 :   /* read in transform matrices, in homogeneous coords */
; 2156 :   for ( n = 0 ; n < transform_gen_count ; n++ )

	mov	ecx, DWORD PTR _transform_gen_count
	add	esp, 36					; 00000024H
	mov	DWORD PTR _view_transform_gens_expr, eax
	mov	DWORD PTR _n$[ebp], esi
	cmp	ecx, esi
	jle	$LN51@read_trans@2

; 2149 :   view_transform_gens = dmatrix3(web.torus_flag?(transform_gen_count+SDIM):
; 2150 :             transform_gen_count,SDIM+1,SDIM+1);

	mov	DWORD PTR tv392[ebp], esi
$LL56@read_trans@2:

; 2157 :   { tok = yylex();

	push	0
	call	_kb_yylex
	add	esp, 4
	mov	DWORD PTR _tok, eax

; 2158 :     if ( tok == SWAP_COLORS_TOK )

	cmp	eax, 35010				; 000088c2H
	jne	SHORT $LN11@read_trans@2

; 2159 :     { transform_gen_swap[n] = 1;

	mov	ecx, DWORD PTR _transform_gen_swap
	mov	DWORD PTR [ecx+esi*4], 1
	jmp	SHORT $LN10@read_trans@2
$LN11@read_trans@2:

; 2160 :     }
; 2161 :     else unput_tok();

	call	_unput_tok
$LN10@read_trans@2:

; 2162 :     for ( i = 0 ; i <= SDIM ; i++ )

	mov	eax, DWORD PTR _web+616
	xor	ebx, ebx
	test	eax, eax
	js	SHORT $LN13@read_trans@2
$LL54@read_trans@2:

; 2163 :     { for ( j = 0 ; j <= SDIM ; j++ ) 

	xor	edi, edi
	test	eax, eax
	js	SHORT $LN8@read_trans@2
	mov	esi, DWORD PTR tv392[ebp]
	add	esi, ebx
	imul	esi, 624				; 00000270H
	npad	8
$LL6@read_trans@2:

; 2164 :       { int esize = exparse(0,&view_transform_gens_expr[n][i][j],USERCOPY);

	mov	eax, DWORD PTR _view_transform_gens_expr
	push	1
	lea	ecx, DWORD PTR [esi+eax]
	push	ecx
	push	0
	call	_exparse
	add	esp, 12					; 0000000cH

; 2165 :         if ( esize < 0 )

	test	eax, eax
	js	SHORT $LN42@read_trans@2

; 2163 :     { for ( j = 0 ; j <= SDIM ; j++ ) 

	mov	eax, DWORD PTR _web+616
	inc	edi
	add	esi, 104				; 00000068H
	cmp	edi, eax
	jle	SHORT $LL6@read_trans@2
	mov	esi, DWORD PTR _n$[ebp]
$LN8@read_trans@2:

; 2162 :     for ( i = 0 ; i <= SDIM ; i++ )

	inc	ebx
	cmp	ebx, eax
	jle	SHORT $LL54@read_trans@2
$LN13@read_trans@2:

; 2154 : 
; 2155 :   /* read in transform matrices, in homogeneous coords */
; 2156 :   for ( n = 0 ; n < transform_gen_count ; n++ )

	mov	ecx, DWORD PTR _transform_gen_count
	add	DWORD PTR tv392[ebp], 6
	inc	esi
	mov	DWORD PTR _n$[ebp], esi
	cmp	esi, ecx
	jl	$LL56@read_trans@2

; 2165 :         if ( esize < 0 )

	jmp	SHORT $LN12@read_trans@2
$LN42@read_trans@2:

; 2166 :         { kb_error(1752,"Not enough entries for transform generator matrix.\n",
; 2167 :               DATAFILE_ERROR);

	push	6
	push	OFFSET ??_C@_0DE@EMKIJNG@Not?5enough?5entries?5for?5transform@
	push	1752					; 000006d8H
	call	_kb_error
	add	esp, 12					; 0000000cH
	pop	edi
	pop	esi
	pop	ebx

; 2179 : } // end read_transform_generators()

	mov	esp, ebp
	pop	ebp
	ret	0
$LN51@read_trans@2:

; 2168 :           return;

	mov	eax, DWORD PTR _web+616
$LN12@read_trans@2:

; 2169 :         }
; 2170 :       }     
; 2171 :     }
; 2172 :   }
; 2173 :   if ( n == transform_gen_count ) tok = yylex(); /* lookahead */

	cmp	esi, ecx
	jne	SHORT $LN57@read_trans@2
	push	0
	call	_kb_yylex
	mov	DWORD PTR _tok, eax
	mov	eax, DWORD PTR _web+616
	add	esp, 4
$LN57@read_trans@2:

; 2174 :   if ( web.torus_flag ) transform_gen_count += SDIM;

	cmp	DWORD PTR _web+860, 0
	je	SHORT $LN1@read_trans@2
	add	DWORD PTR _transform_gen_count, eax
$LN1@read_trans@2:

; 2175 : 
; 2176 :   transforms_flag = 1; /* default is to show */

	mov	DWORD PTR _transforms_flag, 1

; 2177 :   lists_flag = 0;

	mov	DWORD PTR _lists_flag, 0

; 2178 :   calc_view_transform_gens();

	call	_calc_view_transform_gens
	pop	edi
	pop	esi
	pop	ebx

; 2179 : } // end read_transform_generators()

	mov	esp, ebp
	pop	ebp
	ret	0
_read_transform_generators ENDP
_TEXT	ENDS
PUBLIC	??_C@_0BE@MMPMDLLO@body_?$CFd_con_?$CFd_meth?$AA@ ; `string'
PUBLIC	??_C@_0BA@NNIIKJGD@body_?$CFd_?$CFs_meth?$AA@	; `string'
PUBLIC	__$ArrayPad$
PUBLIC	_create_body_constraint_content_method
EXTRN	_find_method_instance:PROC
;	COMDAT ??_C@_0BE@MMPMDLLO@body_?$CFd_con_?$CFd_meth?$AA@
CONST	SEGMENT
??_C@_0BE@MMPMDLLO@body_?$CFd_con_?$CFd_meth?$AA@ DB 'body_%d_con_%d_meth'
	DB	00H						; `string'
CONST	ENDS
;	COMDAT ??_C@_0BA@NNIIKJGD@body_?$CFd_?$CFs_meth?$AA@
CONST	SEGMENT
??_C@_0BA@NNIIKJGD@body_?$CFd_?$CFs_meth?$AA@ DB 'body_%d_%s_meth', 00H ; `string'
; Function compile flags: /Ogtp
CONST	ENDS
;	COMDAT _create_body_constraint_content_method
_TEXT	SEGMENT
_meth1$ = -108						; size = 4
_inst_name1$ = -104					; size = 100
__$ArrayPad$ = -4					; size = 4
_b_id$ = 8						; size = 4
_connum$ = 12						; size = 4
_create_body_constraint_content_method PROC		; COMDAT

; 2974 : { struct constraint *con = get_constraint(connum);

	push	ebp
	mov	ebp, esp
	sub	esp, 108				; 0000006cH
	mov	eax, DWORD PTR ___security_cookie
	xor	eax, ebp
	mov	DWORD PTR __$ArrayPad$[ebp], eax
	mov	eax, DWORD PTR _web+652
	push	ebx
	mov	ebx, DWORD PTR _b_id$[ebp]
	push	esi
	push	edi
	mov	edi, DWORD PTR _connum$[ebp]
	mov	esi, edi
	and	esi, 1073741823				; 3fffffffH
	imul	esi, 176				; 000000b0H
	lea	edx, DWORD PTR [esi+eax]

; 2975 :   int k;
; 2976 :   int meth1;
; 2977 :   char inst_name1[100];
; 2978 :     
; 2979 :   if ( con->attr & NAMED_THING )

	mov	eax, DWORD PTR [edx+32]
	and	eax, 512				; 00000200H
	xor	ecx, ecx
	or	eax, ecx
	je	SHORT $LN10@create_bod

; 2980 :     sprintf(inst_name1,"body_%d_%s_meth",ordinal(b_id)+1,con->name);

	test	ebx, 268435456				; 10000000H
	je	SHORT $LN13@create_bod
	mov	eax, ebx
	and	eax, 134217727				; 07ffffffH
	push	edx
	inc	eax
	push	eax
	push	OFFSET ??_C@_0BA@NNIIKJGD@body_?$CFd_?$CFs_meth?$AA@
	lea	ecx, DWORD PTR _inst_name1$[ebp]
	push	ecx

; 2981 :   else

	jmp	SHORT $LN20@create_bod
$LN13@create_bod:

; 2980 :     sprintf(inst_name1,"body_%d_%s_meth",ordinal(b_id)+1,con->name);

	or	eax, -1
	push	edx
	inc	eax
	push	eax
	push	OFFSET ??_C@_0BA@NNIIKJGD@body_?$CFd_?$CFs_meth?$AA@
	lea	ecx, DWORD PTR _inst_name1$[ebp]
	push	ecx

; 2981 :   else

	jmp	SHORT $LN20@create_bod
$LN10@create_bod:

; 2982 :     sprintf(inst_name1,"body_%d_con_%d_meth",ordinal(b_id)+1,connum);

	test	ebx, 268435456				; 10000000H
	je	SHORT $LN15@create_bod
	mov	eax, ebx
	and	eax, 134217727				; 07ffffffH
	jmp	SHORT $LN16@create_bod
$LN15@create_bod:
	or	eax, -1
$LN16@create_bod:
	push	edi
	inc	eax
	push	eax
	push	OFFSET ??_C@_0BE@MMPMDLLO@body_?$CFd_con_?$CFd_meth?$AA@
	lea	edx, DWORD PTR _inst_name1$[ebp]
	push	edx
$LN20@create_bod:
	call	_sprintf

; 2983 :   meth1 = find_method_instance(inst_name1);

	lea	eax, DWORD PTR _inst_name1$[ebp]
	add	esp, 16					; 00000010H
	push	eax
	call	_find_method_instance
	add	esp, 4

; 2984 :   if ( meth1 < 0 )

	test	eax, eax
	jns	$LN8@create_bod

; 2985 :   { /* have to create */
; 2986 :     if ( web.representation ==  STRING )

	cmp	DWORD PTR _web+624, 1
	jne	SHORT $LN7@create_bod

; 2987 :     { meth1 = new_method_instance("vertex_scalar_integral",inst_name1);

	lea	ecx, DWORD PTR _inst_name1$[ebp]
	push	ecx
	push	OFFSET ??_C@_0BH@EHAKMPOM@vertex_scalar_integral?$AA@

; 2988 :     }
; 2989 :     else

	jmp	SHORT $LN21@create_bod
$LN7@create_bod:

; 2990 :     { meth1 = new_method_instance("edge_vector_integral",inst_name1);

	lea	edx, DWORD PTR _inst_name1$[ebp]
	push	edx
	push	OFFSET ??_C@_0BF@EDOAEIAK@edge_vector_integral?$AA@
$LN21@create_bod:
	call	_new_method_instance

; 2991 :     }
; 2992 :     METH_INSTANCE(meth1)->flags |= DEFAULT_INSTANCE | BODY_INSTANCE;

	mov	ecx, DWORD PTR _meth_inst_list
	mov	DWORD PTR _meth1$[ebp], eax
	cdq
	xor	eax, edx
	sub	eax, edx
	imul	eax, 2928				; 00000b70H
	or	DWORD PTR [eax+ecx+140], 20971520	; 01400000H

; 2993 :     METH_INSTANCE(meth1)->connum = connum;

	mov	ecx, DWORD PTR _meth_inst_list
	mov	DWORD PTR [eax+ecx+216], edi

; 2994 :     con = get_constraint(connum); /* may have moved */

	mov	edi, DWORD PTR _web+652
	add	esp, 8

; 2995 :     if ( web.representation == STRING )

	cmp	DWORD PTR _web+624, 1
	jne	SHORT $LN5@create_bod

; 2996 :        METH_INSTANCE(meth1)->expr[0]  = con->convect[0];

	mov	edx, DWORD PTR [esi+edi+108]
	mov	ecx, DWORD PTR _meth_inst_list
	mov	DWORD PTR [eax+ecx+232], edx

; 2997 :     else

	jmp	SHORT $LN1@create_bod
$LN5@create_bod:

; 2998 :        for ( k = 0 ; k < SDIM ; k++ ) 

	xor	edx, edx
	cmp	DWORD PTR _web+616, edx
	jle	SHORT $LN1@create_bod
	lea	ecx, DWORD PTR [eax+232]
	lea	eax, DWORD PTR [esi+edi+108]
	npad	2
$LL3@create_bod:

; 2999 :            METH_INSTANCE(meth1)->expr[k] = con->convect[k];

	mov	esi, DWORD PTR [eax]
	mov	edi, DWORD PTR _meth_inst_list
	mov	DWORD PTR [ecx+edi], esi
	inc	edx
	add	eax, 4
	add	ecx, 4
	cmp	edx, DWORD PTR _web+616
	jl	SHORT $LL3@create_bod
$LN1@create_bod:

; 3000 :     attach_method_num(get_body_volquant(b_id),meth1);

	mov	edx, DWORD PTR _web+348
	mov	esi, DWORD PTR _meth1$[ebp]
	and	ebx, 134217727				; 07ffffffH
	mov	eax, DWORD PTR [edx+ebx*4]
	mov	ecx, DWORD PTR [eax+404]
	push	esi
	push	ecx
	call	_attach_method_num
	add	esp, 8

; 3001 :   }
; 3002 :   return meth1;

	mov	eax, esi
$LN8@create_bod:

; 3003 : } // end create_body_constraint_content_method()

	mov	ecx, DWORD PTR __$ArrayPad$[ebp]
	pop	edi
	pop	esi
	xor	ecx, ebp
	pop	ebx
	call	@__security_check_cookie@4
	mov	esp, ebp
	pop	ebp
	ret	0
_create_body_constraint_content_method ENDP
_TEXT	ENDS
PUBLIC	??_C@_0BF@MHGGIEFG@body_?$CFd_bdry_?$CFs_meth?$AA@ ; `string'
PUBLIC	__$ArrayPad$
PUBLIC	_create_body_boundary_content_method
;	COMDAT ??_C@_0BF@MHGGIEFG@body_?$CFd_bdry_?$CFs_meth?$AA@
CONST	SEGMENT
??_C@_0BF@MHGGIEFG@body_?$CFd_bdry_?$CFs_meth?$AA@ DB 'body_%d_bdry_%s_me'
	DB	'th', 00H					; `string'
; Function compile flags: /Ogtp
CONST	ENDS
;	COMDAT _create_body_boundary_content_method
_TEXT	SEGMENT
_meth1$ = -108						; size = 4
_inst_name1$ = -104					; size = 100
__$ArrayPad$ = -4					; size = 4
_b_id$ = 8						; size = 4
_bdrynum$ = 12						; size = 4
_create_body_boundary_content_method PROC		; COMDAT

; 3016 : { struct boundary *bdry = web.boundaries + bdrynum;

	push	ebp
	mov	ebp, esp
	sub	esp, 108				; 0000006cH
	mov	eax, DWORD PTR ___security_cookie
	xor	eax, ebp
	mov	DWORD PTR __$ArrayPad$[ebp], eax
	push	esi
	mov	esi, DWORD PTR _bdrynum$[ebp]
	imul	esi, 136				; 00000088H
	add	esi, DWORD PTR _web+776
	push	edi
	mov	edi, DWORD PTR _b_id$[ebp]

; 3017 :   int k;
; 3018 :   int meth1;
; 3019 :   char inst_name1[100];
; 3020 :  
; 3021 :       sprintf(inst_name1,"body_%d_bdry_%s_meth",ordinal(b_id)+1,bdry->name);

	test	edi, 268435456				; 10000000H
	je	SHORT $LN11@create_bod@2
	mov	eax, edi
	and	eax, 134217727				; 07ffffffH
	jmp	SHORT $LN12@create_bod@2
$LN11@create_bod@2:
	or	eax, -1
$LN12@create_bod@2:
	push	esi
	inc	eax
	push	eax
	lea	eax, DWORD PTR _inst_name1$[ebp]
	push	OFFSET ??_C@_0BF@MHGGIEFG@body_?$CFd_bdry_?$CFs_meth?$AA@
	push	eax
	call	_sprintf

; 3022 :       meth1 = find_method_instance(inst_name1);

	lea	ecx, DWORD PTR _inst_name1$[ebp]
	push	ecx
	call	_find_method_instance
	add	esp, 20					; 00000014H

; 3023 :       if ( meth1 < 0 )

	test	eax, eax
	jns	$LN8@create_bod@2

; 3024 :       { /* have to create */
; 3025 :         if ( web.representation ==  STRING )

	cmp	DWORD PTR _web+624, 1
	push	ebx
	jne	SHORT $LN7@create_bod@2

; 3026 :         { meth1 = new_method_instance("vertex_scalar_integral",inst_name1);

	lea	edx, DWORD PTR _inst_name1$[ebp]
	push	edx
	push	OFFSET ??_C@_0BH@EHAKMPOM@vertex_scalar_integral?$AA@
	call	_new_method_instance
	mov	ebx, eax
	mov	DWORD PTR _meth1$[ebp], ebx

; 3027 :         }
; 3028 :         else

	jmp	SHORT $LN16@create_bod@2
$LN7@create_bod@2:

; 3029 :         { meth1 = new_method_instance("edge_vector_integral",inst_name1);

	lea	eax, DWORD PTR _inst_name1$[ebp]
	push	eax
	push	OFFSET ??_C@_0BF@EDOAEIAK@edge_vector_integral?$AA@
	call	_new_method_instance
	mov	ebx, eax
	mov	DWORD PTR _meth1$[ebp], eax
$LN16@create_bod@2:

; 3030 :         }
; 3031 :         METH_INSTANCE(meth1)->flags |= DEFAULT_INSTANCE | BODY_INSTANCE;

	mov	ecx, DWORD PTR _meth_inst_list
	mov	eax, ebx
	cdq
	xor	eax, edx
	sub	eax, edx
	imul	eax, 2928				; 00000b70H
	or	DWORD PTR [eax+ecx+140], 20971520	; 01400000H
	add	esp, 8

; 3032 :         if ( web.representation == STRING )

	cmp	DWORD PTR _web+624, 1
	jne	SHORT $LN5@create_bod@2

; 3033 :            METH_INSTANCE(meth1)->expr[0] = bdry->convect[0];

	mov	ecx, DWORD PTR [esi+96]
	mov	edx, DWORD PTR _meth_inst_list
	mov	DWORD PTR [eax+edx+232], ecx

; 3034 :         else

	jmp	SHORT $LN1@create_bod@2
$LN5@create_bod@2:

; 3035 :           for ( k = 0 ; k < SDIM ; k++ ) 

	xor	edx, edx
	cmp	DWORD PTR _web+616, edx
	jle	SHORT $LN1@create_bod@2
	lea	ecx, DWORD PTR [eax+232]
	lea	eax, DWORD PTR [esi+96]
	npad	2
$LL3@create_bod@2:

; 3036 :            METH_INSTANCE(meth1)->expr[k] = bdry->convect[k];

	mov	esi, DWORD PTR [eax]
	mov	ebx, DWORD PTR _meth_inst_list
	mov	DWORD PTR [ecx+ebx], esi
	inc	edx
	add	eax, 4
	add	ecx, 4
	cmp	edx, DWORD PTR _web+616
	jl	SHORT $LL3@create_bod@2

; 3035 :           for ( k = 0 ; k < SDIM ; k++ ) 

	mov	ebx, DWORD PTR _meth1$[ebp]
$LN1@create_bod@2:

; 3037 :         attach_method_num(get_body_volquant(b_id),meth1);

	mov	eax, DWORD PTR _web+348
	and	edi, 134217727				; 07ffffffH
	mov	ecx, DWORD PTR [eax+edi*4]
	mov	edx, DWORD PTR [ecx+404]
	push	ebx
	push	edx
	call	_attach_method_num
	add	esp, 8

; 3038 :       }
; 3039 :     return meth1;

	mov	eax, ebx
	pop	ebx
$LN8@create_bod@2:

; 3040 : } // end create_body_boundary_content_method()

	mov	ecx, DWORD PTR __$ArrayPad$[ebp]
	pop	edi
	xor	ecx, ebp
	pop	esi
	call	@__security_check_cookie@4
	mov	esp, ebp
	pop	ebp
	ret	0
_create_body_boundary_content_method ENDP
_TEXT	ENDS
PUBLIC	__$ArrayPad$
PUBLIC	_convert_bodies_to_quantities
EXTRN	_E_BOUNDARY_ATTR:DWORD
EXTRN	_V_BOUNDARY_ATTR:DWORD
EXTRN	_apply_method:PROC
EXTRN	_attach_method:PROC
EXTRN	_nullcon:QWORD
EXTRN	_check_edge_vol_methods:PROC
; Function compile flags: /Ogtp
;	COMDAT _convert_bodies_to_quantities
_TEXT	SEGMENT
_max_rank$91206 = -256					; size = 4
_min_rank$91207 = -252					; size = 4
_min_rank$91303 = -248					; size = 4
_connum$91232 = -248					; size = 4
tv2397 = -244						; size = 8
tv2379 = -244						; size = 8
_first_fe$91445 = -240					; size = 4
_first_fe$91413 = -240					; size = 4
_bdry$91364 = -240					; size = 4
_connum$91325 = -240					; size = 4
_first_e$91205 = -240					; size = 4
tv2659 = -236						; size = 4
_first_e$91404 = -236					; size = 4
_first_fe$91246 = -236					; size = 4
_i$ = -232						; size = 4
_concount$91298 = -228					; size = 4
_v_id$91187 = -228					; size = 4
tv2764 = -224						; size = 4
tv2490 = -224						; size = 4
tv2419 = -224						; size = 4
_max_rank$91304 = -224					; size = 4
_e_id$ = -220						; size = 4
tv3483 = -216						; size = 4
tv2471 = -216						; size = 4
_v_id$91388 = -216					; size = 4
_first_fe$91300 = -216					; size = 4
tv2373 = -212						; size = 4
_j$ = -212						; size = 4
_fe$ = -208						; size = 4
_name$91335 = -204					; size = 100
_name$91245 = -204					; size = 100
_inst_name1$ = -104					; size = 100
__$ArrayPad$ = -4					; size = 4
_convert_bodies_to_quantities PROC			; COMDAT

; 3050 : {

	push	ebp
	mov	ebp, esp
	sub	esp, 256				; 00000100H
	mov	eax, DWORD PTR ___security_cookie
	xor	eax, ebp
	mov	DWORD PTR __$ArrayPad$[ebp], eax

; 3051 :   body_id b_id;
; 3052 :   int meth1;
; 3053 :   char inst_name1[100];
; 3054 :   int i,j,k;
; 3055 :   edge_id e_id;
; 3056 :   facet_id f_id;
; 3057 :   facetedge_id fe;
; 3058 : 
; 3059 :   /* The main surface integral */
; 3060 :   if ( web.representation == STRING )

	cmp	DWORD PTR _web+624, 1
	push	ebx
	push	esi
	push	edi
	jne	SHORT $LN148@convert_bo

; 3061 :   {
; 3062 :     FOR_ALL_EDGES(e_id)

	mov	edx, DWORD PTR _web+160
	test	edx, 268435456				; 10000000H
	je	$LN331@convert_bo
	mov	ebx, DWORD PTR _web+124
	npad	9
$LL147@convert_bo:
	mov	esi, edx
	and	esi, 134217727				; 07ffffffH
	add	esi, esi
	add	esi, esi
	mov	eax, DWORD PTR [esi+ebx]
	mov	ecx, DWORD PTR [eax+8]
	mov	eax, DWORD PTR [eax+12]
	mov	DWORD PTR tv2379[ebp+4], eax
	mov	eax, ecx
	and	eax, 1
	xor	edi, edi
	or	eax, edi
	je	SHORT $LN146@convert_bo

; 3063 :     { if ( get_eattr(e_id) & NONCONTENT ) 

	and	ecx, 536870912				; 20000000H
	xor	eax, eax
	or	ecx, eax
	jne	SHORT $LN146@convert_bo

; 3064 :         continue;
; 3065 :       check_edge_vol_methods(e_id);

	push	edx
	call	_check_edge_vol_methods
	mov	ebx, DWORD PTR _web+124
	add	esp, 4
$LN146@convert_bo:

; 3061 :   {
; 3062 :     FOR_ALL_EDGES(e_id)

	mov	ecx, DWORD PTR [esi+ebx]
	mov	edx, DWORD PTR [ecx]
	test	edx, 268435456				; 10000000H
	jne	SHORT $LL147@convert_bo

; 3066 : #ifdef ZZZZ
; 3067 :       fe = get_edge_fe(e_id); 
; 3068 :       if ( !valid_id(fe)  ) continue;
; 3069 :       f_id = get_fe_facet(fe);
; 3070 :       for ( i = 0 ; i < 2 ; i++ ) /* at most two facets per edge */
; 3071 :       { if ( valid_id(f_id)) 
; 3072 :         { b_id = get_facet_body(f_id);
; 3073 :           if ( valid_id(b_id) )
; 3074 :              apply_method_num(e_id,get_body_volmeth(b_id));
; 3075 :           b_id = get_facet_body(inverse_id(f_id));
; 3076 :           if ( valid_id(b_id) )
; 3077 :              apply_method_num(inverse_id(e_id),get_body_volmeth(b_id));
; 3078 :         }
; 3079 :         fe = get_next_facet(fe);
; 3080 :         f_id = get_fe_facet(fe);
; 3081 :       }
; 3082 : #endif
; 3083 :     }
; 3084 :   }
; 3085 :   else  /* SOAPFILM */

	jmp	$LN331@convert_bo
$LN148@convert_bo:

; 3086 :   {
; 3087 :      FOR_ALL_FACETS(f_id)

	mov	edi, DWORD PTR _web+272
	test	edi, 268435456				; 10000000H
	je	$LN331@convert_bo
	npad	11
$LL140@convert_bo:
	mov	edx, DWORD PTR _web+236
	mov	esi, edi
	and	esi, 134217727				; 07ffffffH
	add	esi, esi
	add	esi, esi
	mov	eax, DWORD PTR [esi+edx]
	mov	ecx, DWORD PTR [eax+8]
	mov	eax, DWORD PTR [eax+12]
	mov	DWORD PTR tv2397[ebp+4], eax
	mov	eax, ecx
	and	eax, 1
	xor	edx, edx
	or	eax, edx
	je	SHORT $LN139@convert_bo

; 3088 :      { /* check both in case of torus wrapping */
; 3089 :        if ( get_fattr(f_id) & NONCONTENT ) continue;

	and	ecx, 536870912				; 20000000H
	xor	eax, eax
	or	ecx, eax
	jne	SHORT $LN139@convert_bo

; 3090 :        b_id = get_facet_body(f_id);

	push	edi
	call	_get_facet_body
	add	esp, 4

; 3091 :        if ( valid_id(b_id) )

	test	eax, 268435456				; 10000000H
	je	SHORT $LN134@convert_bo

; 3092 :             apply_method_num(f_id,get_body_volmeth(b_id));

	mov	ecx, DWORD PTR _web+348
	and	eax, 134217727				; 07ffffffH
	mov	edx, DWORD PTR [ecx+eax*4]
	mov	eax, DWORD PTR [edx+412]
	push	eax
	push	edi
	call	_apply_method_num
	add	esp, 8
$LN134@convert_bo:

; 3093 :        b_id = get_facet_body(inverse_id(f_id));

	xor	edi, 134217728				; 08000000H
	push	edi
	call	_get_facet_body
	add	esp, 4

; 3094 :        if ( valid_id(b_id) )

	test	eax, 268435456				; 10000000H
	je	SHORT $LN139@convert_bo

; 3095 :             apply_method_num(inverse_id(f_id),get_body_volmeth(b_id));

	mov	ecx, DWORD PTR _web+348
	and	eax, 134217727				; 07ffffffH
	mov	edx, DWORD PTR [ecx+eax*4]
	mov	eax, DWORD PTR [edx+412]
	push	eax
	push	edi
	call	_apply_method_num
	add	esp, 8
$LN139@convert_bo:

; 3086 :   {
; 3087 :      FOR_ALL_FACETS(f_id)

	mov	ecx, DWORD PTR _web+236
	mov	edx, DWORD PTR [esi+ecx]
	mov	edi, DWORD PTR [edx]
	test	edi, 268435456				; 10000000H
	jne	$LL140@convert_bo
$LN331@convert_bo:

; 3096 :      }
; 3097 :   }
; 3098 : 
; 3099 :   /* constraint content integrals */
; 3100 : 
; 3101 :   /* create instance for each possible body/constraint content pair */
; 3102 :   for ( j = 0 ; j < web.maxcon ; j++ )

	cmp	DWORD PTR _web+644, 0
	mov	DWORD PTR _j$[ebp], 0
	jle	$LN334@convert_bo
	npad	8
$LL132@convert_bo:

; 3103 :   { struct constraint *con = get_constraint(j);

	mov	ebx, DWORD PTR _j$[ebp]
	mov	eax, DWORD PTR _web+652
	and	ebx, 1073741823				; 3fffffffH
	imul	ebx, 176				; 000000b0H
	lea	esi, DWORD PTR [ebx+eax]

; 3104 : 
; 3105 :     if ( !(con->attr & CON_CONTENT) ) continue;

	mov	eax, DWORD PTR [esi+32]
	and	eax, 128				; 00000080H
	xor	ecx, ecx
	or	eax, ecx
	mov	DWORD PTR tv2419[ebp], ebx
	je	$LN131@convert_bo

; 3106 :     FOR_ALL_BODIES(b_id)

	mov	eax, DWORD PTR _web+384
	mov	ecx, eax
	shr	ecx, 28					; 0000001cH
	and	ecx, 1
	je	$LN131@convert_bo
	npad	11
$LL128@convert_bo:
	mov	edx, DWORD PTR _web+348
	mov	edi, eax
	and	edi, 134217727				; 07ffffffH
	mov	eax, DWORD PTR [edx+edi*4]
	mov	eax, DWORD PTR [eax+8]
	and	eax, 1
	xor	edx, edx
	or	eax, edx
	je	$LN127@convert_bo

; 3107 :     { struct method_instance *mi;
; 3108 :       if ( con->attr & NAMED_THING )

	mov	eax, DWORD PTR [esi+32]
	and	eax, 512				; 00000200H
	or	eax, edx
	je	SHORT $LN123@convert_bo

; 3109 :         sprintf(inst_name1,"body_%d_%s_meth",ordinal(b_id)+1,con->name);

	test	ecx, ecx
	je	SHORT $LN151@convert_bo
	mov	eax, edi
	push	esi
	inc	eax
	push	eax
	push	OFFSET ??_C@_0BA@NNIIKJGD@body_?$CFd_?$CFs_meth?$AA@
	lea	eax, DWORD PTR _inst_name1$[ebp]
	push	eax

; 3110 :       else

	jmp	SHORT $LN352@convert_bo
$LN151@convert_bo:

; 3109 :         sprintf(inst_name1,"body_%d_%s_meth",ordinal(b_id)+1,con->name);

	or	eax, -1
	push	esi
	inc	eax
	push	eax
	push	OFFSET ??_C@_0BA@NNIIKJGD@body_?$CFd_?$CFs_meth?$AA@
	lea	eax, DWORD PTR _inst_name1$[ebp]
	push	eax

; 3110 :       else

	jmp	SHORT $LN352@convert_bo
$LN123@convert_bo:

; 3111 :         sprintf(inst_name1,"body_%d_con_%d_meth",ordinal(b_id)+1,j);

	test	ecx, ecx
	je	SHORT $LN153@convert_bo
	mov	eax, edi
	jmp	SHORT $LN154@convert_bo
$LN153@convert_bo:
	or	eax, -1
$LN154@convert_bo:
	mov	ecx, DWORD PTR _j$[ebp]
	push	ecx
	inc	eax
	push	eax
	push	OFFSET ??_C@_0BE@MMPMDLLO@body_?$CFd_con_?$CFd_meth?$AA@
	lea	edx, DWORD PTR _inst_name1$[ebp]
	push	edx
$LN352@convert_bo:
	call	_sprintf

; 3112 :       meth1 = find_method_instance(inst_name1);

	lea	eax, DWORD PTR _inst_name1$[ebp]
	add	esp, 16					; 00000010H
	push	eax
	call	_find_method_instance
	add	esp, 4

; 3113 :       if ( meth1 < 0 )

	test	eax, eax
	jns	SHORT $LN119@convert_bo

; 3114 :       { /* have to create */     
; 3115 :         if ( web.representation ==  STRING )

	cmp	DWORD PTR _web+624, 1
	jne	SHORT $LN120@convert_bo

; 3116 :         { meth1 = new_method_instance("vertex_scalar_integral",inst_name1);

	lea	ecx, DWORD PTR _inst_name1$[ebp]
	push	ecx
	push	OFFSET ??_C@_0BH@EHAKMPOM@vertex_scalar_integral?$AA@

; 3117 :         }
; 3118 :         else

	jmp	SHORT $LN353@convert_bo
$LN120@convert_bo:

; 3119 :         { meth1 = new_method_instance("edge_vector_integral",inst_name1);

	lea	edx, DWORD PTR _inst_name1$[ebp]
	push	edx
	push	OFFSET ??_C@_0BF@EDOAEIAK@edge_vector_integral?$AA@
$LN353@convert_bo:
	call	_new_method_instance
	add	esp, 8
$LN119@convert_bo:

; 3120 :         }
; 3121 :       }
; 3122 :       mi = METH_INSTANCE(meth1);

	mov	ecx, DWORD PTR _meth_inst_list

; 3123 :       mi->flags |= DEFAULT_INSTANCE | BODY_INSTANCE;
; 3124 :       METH_INSTANCE(meth1)->connum = j;

	mov	esi, DWORD PTR _j$[ebp]
	cdq
	xor	eax, edx
	sub	eax, edx
	imul	eax, 2928				; 00000b70H
	or	DWORD PTR [ecx+eax+140], 20971520	; 01400000H
	mov	edx, DWORD PTR _meth_inst_list
	add	ecx, eax
	mov	DWORD PTR [eax+edx+216], esi

; 3125 :       con = get_constraint(j); /* may have moved */
; 3126 :       if ( web.representation == STRING )

	cmp	DWORD PTR _web+624, 1
	mov	eax, DWORD PTR _web+652
	lea	esi, DWORD PTR [ebx+eax]
	jne	SHORT $LN118@convert_bo

; 3127 :          mi->expr[0]  = con->convect[0];

	mov	edx, DWORD PTR [esi+108]
	mov	DWORD PTR [ecx+232], edx

; 3128 :       else

	jmp	SHORT $LN127@convert_bo
$LN118@convert_bo:

; 3129 :          for ( k = 0 ; k < SDIM ; k++ ) 

	xor	edx, edx
	cmp	DWORD PTR _web+616, edx
	jle	SHORT $LN127@convert_bo
	add	ecx, 232				; 000000e8H
	lea	eax, DWORD PTR [esi+108]
	npad	4
$LL116@convert_bo:

; 3130 :             mi->expr[k] = con->convect[k];

	mov	ebx, DWORD PTR [eax]
	mov	DWORD PTR [ecx], ebx
	inc	edx
	add	eax, 4
	add	ecx, 4
	cmp	edx, DWORD PTR _web+616
	jl	SHORT $LL116@convert_bo

; 3129 :          for ( k = 0 ; k < SDIM ; k++ ) 

	mov	ebx, DWORD PTR tv2419[ebp]
$LN127@convert_bo:

; 3106 :     FOR_ALL_BODIES(b_id)

	mov	eax, DWORD PTR _web+348
	mov	ecx, DWORD PTR [eax+edi*4]
	mov	eax, DWORD PTR [ecx]
	mov	ecx, eax
	shr	ecx, 28					; 0000001cH
	and	ecx, 1
	jne	$LL128@convert_bo
$LN131@convert_bo:

; 3096 :      }
; 3097 :   }
; 3098 : 
; 3099 :   /* constraint content integrals */
; 3100 : 
; 3101 :   /* create instance for each possible body/constraint content pair */
; 3102 :   for ( j = 0 ; j < web.maxcon ; j++ )

	mov	eax, DWORD PTR _j$[ebp]
	inc	eax
	mov	DWORD PTR _j$[ebp], eax
	cmp	eax, DWORD PTR _web+644
	jl	$LL132@convert_bo
$LN334@convert_bo:

; 3131 :       
; 3132 :     }
; 3133 :   }
; 3134 :   if ( web.representation == STRING )

	cmp	DWORD PTR _web+624, 1
	mov	esi, DWORD PTR _web+652
	jne	$LN113@convert_bo

; 3135 :   { vertex_id v_id;
; 3136 :     FOR_ALL_VERTICES(v_id)

	mov	eax, DWORD PTR _web+48
	mov	edi, DWORD PTR _web+12
	mov	DWORD PTR _v_id$91187[ebp], eax
	test	eax, 268435456				; 10000000H
	je	$LN75@convert_bo
	npad	7
$LL112@convert_bo:
	mov	eax, DWORD PTR _v_id$91187[ebp]
	and	eax, 134217727				; 07ffffffH
	add	eax, eax
	add	eax, eax
	mov	ecx, DWORD PTR [eax+edi]
	mov	DWORD PTR tv2471[ebp], eax
	mov	eax, DWORD PTR [ecx+8]
	and	eax, 1
	xor	edx, edx
	or	eax, edx
	je	$LN111@convert_bo

; 3137 :     { conmap_t *con = get_v_constraint_map(v_id);

	mov	edx, DWORD PTR _web+104
	mov	eax, DWORD PTR _dymem
	cmp	DWORD PTR [edx+eax+1288], 0
	je	SHORT $LN155@convert_bo
	mov	edx, DWORD PTR [edx+eax+1264]
	add	edx, ecx
	jmp	SHORT $LN156@convert_bo
$LN155@convert_bo:
	mov	edx, OFFSET _nullcon
$LN156@convert_bo:

; 3138 :       int concount = (int)con[0];

	mov	eax, DWORD PTR [edx]

; 3139 :       edge_id first_e;
; 3140 :       int max_rank,min_rank;
; 3141 :         
; 3142 :       min_rank = MAXINT; max_rank = 0;
; 3143 :       for ( j = 1 ; j <= (int)con[0] ; j++ )

	mov	ecx, 1
	mov	DWORD PTR tv2490[ebp], eax
	mov	DWORD PTR _min_rank$91207[ebp], 2147483647 ; 7fffffffH
	mov	DWORD PTR _max_rank$91206[ebp], 0
	cmp	eax, ecx
	jl	SHORT $LN105@convert_bo
$LL349@convert_bo:

; 3144 :       { struct constraint *c;
; 3145 :         if ( !(con[j] & CON_HIT_BIT) ) continue;

	mov	eax, DWORD PTR [edx+ecx*4]
	test	eax, eax
	jns	SHORT $LN106@convert_bo

; 3146 :         c = get_constraint(con[j]);

	and	eax, 1073741823				; 3fffffffH
	imul	eax, 176				; 000000b0H

; 3147 :         if ( c->content_rank < min_rank ) min_rank = c->content_rank;

	mov	eax, DWORD PTR [eax+esi+172]
	cmp	eax, DWORD PTR _min_rank$91207[ebp]
	jge	SHORT $LN103@convert_bo
	mov	DWORD PTR _min_rank$91207[ebp], eax
$LN103@convert_bo:

; 3148 :         if ( c->content_rank > max_rank ) max_rank = c->content_rank;

	cmp	eax, DWORD PTR _max_rank$91206[ebp]
	jle	SHORT $LN106@convert_bo
	mov	DWORD PTR _max_rank$91206[ebp], eax
$LN106@convert_bo:

; 3139 :       edge_id first_e;
; 3140 :       int max_rank,min_rank;
; 3141 :         
; 3142 :       min_rank = MAXINT; max_rank = 0;
; 3143 :       for ( j = 1 ; j <= (int)con[0] ; j++ )

	mov	eax, DWORD PTR tv2490[ebp]
	inc	ecx
	cmp	ecx, eax
	jle	SHORT $LL349@convert_bo
$LN105@convert_bo:

; 3149 :       }
; 3150 : 
; 3151 :       for ( i = 1 ; i <= concount ; i++ )

	mov	DWORD PTR _i$[ebp], 1
	cmp	eax, 1
	jl	$LN111@convert_bo
	mov	edx, DWORD PTR _web+104
	npad	5
$LL101@convert_bo:

; 3152 :       { conmap_t *con = get_v_constraint_map(v_id); /* might have moved */

	mov	ecx, DWORD PTR _dymem
	cmp	DWORD PTR [edx+ecx+1288], 0
	je	SHORT $LN157@convert_bo
	mov	eax, DWORD PTR tv2471[ebp]
	mov	eax, DWORD PTR [eax+edi]
	add	eax, DWORD PTR [edx+ecx+1264]
	jmp	SHORT $LN158@convert_bo
$LN157@convert_bo:
	mov	eax, OFFSET _nullcon
$LN158@convert_bo:

; 3153 :         int connum = con[i] & CONMASK;

	mov	ecx, DWORD PTR _i$[ebp]
	mov	eax, DWORD PTR [eax+ecx*4]
	and	eax, 1073741823				; 3fffffffH

; 3154 :         struct constraint *c = get_constraint(connum);

	mov	ebx, eax
	and	ebx, 1073741823				; 3fffffffH
	imul	ebx, 176				; 000000b0H
	mov	DWORD PTR _connum$91232[ebp], eax

; 3155 :         if ( !(c->attr & CON_CONTENT)) continue;

	mov	eax, DWORD PTR [ebx+esi+32]
	add	ebx, esi
	and	eax, 128				; 00000080H
	xor	ecx, ecx
	or	eax, ecx
	je	$LN100@convert_bo

; 3156 :         first_e = e_id = get_vertex_edge(v_id);

	mov	eax, DWORD PTR tv2471[ebp]
	mov	ecx, DWORD PTR [eax+edi]
	mov	eax, DWORD PTR [ecx+28]
	mov	DWORD PTR _e_id$[ebp], eax
	mov	DWORD PTR _first_e$91205[ebp], eax

; 3157 :         if ( valid_id(e_id) )

	test	eax, 268435456				; 10000000H
	je	$LN94@convert_bo
$LL96@convert_bo:

; 3158 :         do
; 3159 :         { char name[100];
; 3160 :           facetedge_id first_fe = fe = get_edge_fe(e_id);

	mov	edx, DWORD PTR _e_id$[ebp]
	mov	ecx, DWORD PTR _web+124
	mov	eax, edx
	and	eax, 134217727				; 07ffffffH
	add	eax, eax
	add	eax, eax
	mov	DWORD PTR tv2373[ebp], eax
	mov	eax, DWORD PTR [eax+ecx]
	test	eax, eax
	jne	SHORT $LN194@convert_bo
	xor	ecx, ecx
	jmp	SHORT $LN193@convert_bo
$LN194@convert_bo:
	mov	ecx, DWORD PTR [eax+28]
	test	edx, 134217728				; 08000000H
	je	SHORT $LN193@convert_bo
	xor	ecx, 134217728				; 08000000H
$LN193@convert_bo:
	mov	DWORD PTR _fe$[ebp], ecx
	mov	DWORD PTR _first_fe$91246[ebp], ecx

; 3161 :           if ( valid_id(fe) && !(get_eattr(e_id) & NONCONTENT) )  

	test	ecx, 268435456				; 10000000H
	je	$LN90@convert_bo
	mov	eax, DWORD PTR [eax+8]
	and	eax, 536870912				; 20000000H
	xor	ecx, ecx
	or	eax, ecx
	jne	$LN90@convert_bo
$LL92@convert_bo:

; 3162 :           do
; 3163 :           { f_id = get_fe_facet(fe);

	mov	ecx, DWORD PTR _fe$[ebp]
	mov	edx, DWORD PTR _web+460
	test	ecx, 268435456				; 10000000H
	jne	SHORT $LN198@convert_bo
	mov	edi, DWORD PTR _NULLFACET
	jmp	SHORT $LN199@convert_bo
$LN198@convert_bo:
	mov	eax, ecx
	and	eax, 134217727				; 07ffffffH
	mov	eax, DWORD PTR [edx+eax*4]
	mov	eax, DWORD PTR [eax+24]
	test	ecx, 134217728				; 08000000H
	je	SHORT $LN197@convert_bo
	xor	eax, 134217728				; 08000000H
$LN197@convert_bo:
	mov	edi, eax
$LN199@convert_bo:

; 3164 :             fe = get_next_facet(fe);

	test	ecx, 134217728				; 08000000H
	je	SHORT $LN202@convert_bo
	and	ecx, 134217727				; 07ffffffH
	mov	ecx, DWORD PTR [edx+ecx*4]
	mov	edx, DWORD PTR [ecx+36]
	xor	edx, 134217728				; 08000000H
	mov	DWORD PTR _fe$[ebp], edx
	jmp	SHORT $LN201@convert_bo
$LN202@convert_bo:
	and	ecx, 134217727				; 07ffffffH
	mov	eax, DWORD PTR [edx+ecx*4]
	mov	ecx, DWORD PTR [eax+40]
	mov	DWORD PTR _fe$[ebp], ecx
$LN201@convert_bo:

; 3165 :             if ( !valid_id(f_id) ) continue;

	test	edi, 268435456				; 10000000H
	je	$LN91@convert_bo

; 3166 :             b_id = get_facet_body(f_id);

	cmp	DWORD PTR _web+400, 0
	jne	SHORT $LN208@convert_bo
	xor	esi, esi
	jmp	SHORT $LN205@convert_bo
$LN208@convert_bo:
	test	edi, 134217728				; 08000000H
	je	SHORT $LN206@convert_bo
	mov	eax, DWORD PTR _web+236
	mov	edx, edi
	and	edx, 134217727				; 07ffffffH
	mov	ecx, DWORD PTR [eax+edx*4]
	mov	edx, DWORD PTR _web+328
	mov	eax, DWORD PTR _dymem
	mov	edx, DWORD PTR [edx+eax+784]
	mov	esi, DWORD PTR [ecx+edx+4]
	jmp	SHORT $LN205@convert_bo
$LN206@convert_bo:
	mov	ecx, DWORD PTR _web+236
	mov	eax, edi
	and	eax, 134217727				; 07ffffffH
	mov	edx, DWORD PTR [ecx+eax*4]
	mov	eax, DWORD PTR _web+328
	mov	ecx, DWORD PTR _dymem
	mov	eax, DWORD PTR [eax+ecx+784]
	mov	esi, DWORD PTR [edx+eax]
$LN205@convert_bo:

; 3167 :             if ( valid_id(b_id)   && 
; 3168 :            ( (!inverted(f_id) && c->content_rank >= max_rank) 
; 3169 :                || (inverted(f_id) && c->content_rank <= min_rank)))

	test	esi, 268435456				; 10000000H
	je	$LN341@convert_bo
	mov	eax, edi
	shr	eax, 27					; 0000001bH
	and	eax, 1
	jne	SHORT $LN346@convert_bo
	mov	ecx, DWORD PTR [ebx+172]
	cmp	ecx, DWORD PTR _max_rank$91206[ebp]
	jge	SHORT $LN351@convert_bo
$LN346@convert_bo:
	test	eax, eax
	je	$LN341@convert_bo
	mov	edx, DWORD PTR [ebx+172]
	cmp	edx, DWORD PTR _min_rank$91207[ebp]
	jg	SHORT $LN341@convert_bo
$LN351@convert_bo:

; 3170 :             { if ( c->attr & NAMED_THING )

	mov	eax, DWORD PTR [ebx+32]
	and	eax, 512				; 00000200H
	xor	ecx, ecx

; 3171 :                 sprintf(name,"body_%d_%s_meth",ordinal(b_id)+1,c->name);

	and	esi, 134217727				; 07ffffffH
	or	eax, ecx
	lea	ecx, DWORD PTR _name$91245[ebp]
	lea	eax, DWORD PTR [esi+1]
	je	SHORT $LN85@convert_bo
	push	ebx
	push	eax
	push	OFFSET ??_C@_0BA@NNIIKJGD@body_?$CFd_?$CFs_meth?$AA@

; 3172 :               else

	jmp	SHORT $LN354@convert_bo
$LN85@convert_bo:

; 3173 :                 sprintf(name,"body_%d_con_%d_meth",ordinal(b_id)+1,connum);

	mov	edx, DWORD PTR _connum$91232[ebp]
	push	edx
	push	eax
	push	OFFSET ??_C@_0BE@MMPMDLLO@body_?$CFd_con_?$CFd_meth?$AA@
$LN354@convert_bo:
	push	ecx
	call	_sprintf

; 3174 :               attach_method(get_body_volquant(b_id),name);

	mov	eax, DWORD PTR _web+348
	mov	ecx, DWORD PTR [eax+esi*4]
	add	esp, 16					; 00000010H
	lea	edx, DWORD PTR _name$91245[ebp]
	push	edx
	mov	edx, DWORD PTR [ecx+404]
	push	edx
	call	_attach_method

; 3175 :               apply_method(inverse_id(v_id),name);

	mov	ecx, DWORD PTR _v_id$91187[ebp]
	lea	eax, DWORD PTR _name$91245[ebp]
	push	eax
	xor	ecx, 134217728				; 08000000H
	push	ecx
	call	_apply_method
	add	esp, 16					; 00000010H
$LN341@convert_bo:

; 3176 :             }
; 3177 :             b_id = get_facet_body(inverse_id(f_id));

	mov	eax, edi
	xor	eax, 134217728				; 08000000H
	cmp	DWORD PTR _web+400, 0
	jne	SHORT $LN214@convert_bo
	xor	esi, esi
	jmp	SHORT $LN211@convert_bo
$LN214@convert_bo:
	test	eax, 268435456				; 10000000H
	jne	SHORT $LN213@convert_bo
	xor	esi, esi
	jmp	SHORT $LN211@convert_bo
$LN213@convert_bo:
	mov	edx, DWORD PTR _web+236
	mov	ecx, DWORD PTR _web+328
	test	eax, 134217728				; 08000000H
	je	SHORT $LN212@convert_bo
	and	eax, 134217727				; 07ffffffH
	mov	eax, DWORD PTR [edx+eax*4]
	mov	edx, DWORD PTR _dymem
	mov	ecx, DWORD PTR [ecx+edx+784]
	mov	esi, DWORD PTR [eax+ecx+4]
	jmp	SHORT $LN211@convert_bo
$LN212@convert_bo:
	and	eax, 134217727				; 07ffffffH
	mov	eax, DWORD PTR [edx+eax*4]
	mov	edx, DWORD PTR _dymem
	mov	ecx, DWORD PTR [ecx+edx+784]
	mov	esi, DWORD PTR [eax+ecx]
$LN211@convert_bo:

; 3178 :             if ( valid_id(b_id) && 
; 3179 :               ( (!inverted(f_id) && c->content_rank >= max_rank) 
; 3180 :                || (inverted(f_id) && c->content_rank <= min_rank)))

	test	esi, 268435456				; 10000000H
	je	$LN91@convert_bo
	shr	edi, 27					; 0000001bH
	mov	eax, edi
	and	eax, 1
	jne	SHORT $LN81@convert_bo
	mov	edx, DWORD PTR _max_rank$91206[ebp]
	cmp	DWORD PTR [ebx+172], edx
	jge	SHORT $LN82@convert_bo
$LN81@convert_bo:
	test	eax, eax
	je	SHORT $LN91@convert_bo
	mov	eax, DWORD PTR _min_rank$91207[ebp]
	cmp	DWORD PTR [ebx+172], eax
	jg	SHORT $LN91@convert_bo
$LN82@convert_bo:

; 3181 :             { if ( c->attr & NAMED_THING )

	mov	eax, DWORD PTR [ebx+32]
	xor	ecx, ecx
	and	eax, 512				; 00000200H

; 3182 :                 sprintf(name,"body_%d_%s_meth",ordinal(b_id)+1,c->name);

	and	esi, 134217727				; 07ffffffH
	or	eax, ecx
	lea	edx, DWORD PTR _name$91245[ebp]
	lea	ecx, DWORD PTR [esi+1]
	je	SHORT $LN80@convert_bo
	push	ebx
	push	ecx
	push	OFFSET ??_C@_0BA@NNIIKJGD@body_?$CFd_?$CFs_meth?$AA@

; 3183 :               else

	jmp	SHORT $LN355@convert_bo
$LN80@convert_bo:

; 3184 :                 sprintf(name,"body_%d_con_%d_meth",ordinal(b_id)+1,connum);

	mov	eax, DWORD PTR _connum$91232[ebp]
	push	eax
	push	ecx
	push	OFFSET ??_C@_0BE@MMPMDLLO@body_?$CFd_con_?$CFd_meth?$AA@
$LN355@convert_bo:
	push	edx
	call	_sprintf

; 3185 :               attach_method(get_body_volquant(b_id),name);

	mov	ecx, DWORD PTR _web+348
	mov	edx, DWORD PTR [ecx+esi*4]
	add	esp, 16					; 00000010H
	lea	eax, DWORD PTR _name$91245[ebp]
	push	eax
	mov	eax, DWORD PTR [edx+404]
	push	eax
	call	_attach_method

; 3186 :               apply_method(v_id,name);

	mov	edx, DWORD PTR _v_id$91187[ebp]
	lea	ecx, DWORD PTR _name$91245[ebp]
	push	ecx
	push	edx
	call	_apply_method
	add	esp, 16					; 00000010H
$LN91@convert_bo:

; 3187 :             }
; 3188 :           } while ( !equal_id(fe,first_fe) );

	mov	eax, DWORD PTR _first_fe$91246[ebp]
	cmp	DWORD PTR _fe$[ebp], eax
	jne	$LL92@convert_bo
$LN90@convert_bo:

; 3189 :           e_id = get_next_tail_edge(e_id);

	mov	ecx, DWORD PTR _e_id$[ebp]
	mov	eax, DWORD PTR tv2373[ebp]
	mov	edx, DWORD PTR _web+124
	mov	edx, DWORD PTR [eax+edx]
	shr	ecx, 27					; 0000001bH
	and	ecx, 1
	mov	eax, DWORD PTR [edx+ecx*4+32]
	mov	DWORD PTR _e_id$[ebp], eax

; 3190 :         } while ( !equal_id(first_e,e_id));

	cmp	DWORD PTR _first_e$91205[ebp], eax
	jne	$LL96@convert_bo
	mov	edx, DWORD PTR _web+104
	mov	edi, DWORD PTR _web+12
$LN94@convert_bo:
	mov	esi, DWORD PTR _web+652
$LN100@convert_bo:

; 3149 :       }
; 3150 : 
; 3151 :       for ( i = 1 ; i <= concount ; i++ )

	mov	eax, DWORD PTR _i$[ebp]
	inc	eax
	mov	DWORD PTR _i$[ebp], eax
	cmp	eax, DWORD PTR tv2490[ebp]
	jle	$LL101@convert_bo
$LN111@convert_bo:

; 3135 :   { vertex_id v_id;
; 3136 :     FOR_ALL_VERTICES(v_id)

	mov	eax, DWORD PTR tv2471[ebp]
	mov	ecx, DWORD PTR [eax+edi]
	mov	eax, DWORD PTR [ecx]
	mov	DWORD PTR _v_id$91187[ebp], eax
	test	eax, 268435456				; 10000000H
	jne	$LL112@convert_bo

; 3191 :       }
; 3192 :     }
; 3193 :   }
; 3194 :   else  /* SOAPFILM */

	jmp	$LN75@convert_bo
$LN113@convert_bo:

; 3195 :   { FOR_ALL_EDGES(e_id)

	mov	eax, DWORD PTR _web+160
	mov	DWORD PTR _e_id$[ebp], eax
	test	eax, 268435456				; 10000000H
	je	$LN335@convert_bo
	npad	7
$LL77@convert_bo:
	mov	eax, DWORD PTR _e_id$[ebp]
	mov	edx, DWORD PTR _web+124
	and	eax, 134217727				; 07ffffffH
	add	eax, eax
	add	eax, eax
	mov	ecx, DWORD PTR [eax+edx]
	mov	DWORD PTR tv2373[ebp], eax
	mov	eax, DWORD PTR [ecx+8]
	and	eax, 1
	xor	edx, edx
	or	eax, edx
	je	$LN76@convert_bo

; 3196 :     { conmap_t *con = get_e_constraint_map(e_id);

	mov	eax, DWORD PTR _dymem
	mov	edx, DWORD PTR _web+216
	cmp	DWORD PTR [edx+eax+1048], 0
	je	SHORT $LN167@convert_bo
	mov	edx, DWORD PTR [edx+eax+1024]
	add	edx, ecx
	jmp	SHORT $LN168@convert_bo
$LN167@convert_bo:
	mov	edx, OFFSET _nullcon
$LN168@convert_bo:

; 3197 :       int concount = (int)con[0];

	mov	eax, DWORD PTR [edx]
	mov	DWORD PTR _concount$91298[ebp], eax

; 3198 :       facetedge_id first_fe = fe = get_edge_fe(e_id);

	test	ecx, ecx
	jne	SHORT $LN220@convert_bo
	xor	eax, eax
	jmp	SHORT $LN221@convert_bo
$LN220@convert_bo:
	test	DWORD PTR _e_id$[ebp], 134217728	; 08000000H
	mov	ecx, DWORD PTR [ecx+28]
	je	SHORT $LN219@convert_bo
	xor	ecx, 134217728				; 08000000H
$LN219@convert_bo:
	mov	eax, ecx
$LN221@convert_bo:
	mov	DWORD PTR _first_fe$91300[ebp], eax

; 3199 :       if ( valid_id ( fe ) )

	test	eax, 268435456				; 10000000H
	je	$LN76@convert_bo

; 3200 :       { int min_rank, max_rank;
; 3201 : 
; 3202 :          min_rank = MAXINT; max_rank = 0;
; 3203 :          for ( j = 1 ; j <= concount ; j++ )

	mov	ebx, DWORD PTR _concount$91298[ebp]
	xor	edi, edi
	lea	ecx, DWORD PTR [edi+1]
	mov	esi, 2147483647				; 7fffffffH
	mov	DWORD PTR _min_rank$91303[ebp], esi
	mov	DWORD PTR _max_rank$91304[ebp], edi
	cmp	ebx, ecx
	jl	SHORT $LN69@convert_bo
	npad	5
$LL71@convert_bo:

; 3204 :          { 
; 3205 :            struct constraint *c = get_constraint(con[j]);

	mov	eax, DWORD PTR [edx+ecx*4]
	and	eax, 1073741823				; 3fffffffH
	imul	eax, 176				; 000000b0H
	add	eax, DWORD PTR _web+652

; 3206 :            if ( c->content_rank < min_rank ) min_rank = c->content_rank;

	mov	eax, DWORD PTR [eax+172]
	cmp	eax, esi
	jge	SHORT $LN68@convert_bo
	mov	esi, eax
$LN68@convert_bo:

; 3207 :            if ( c->content_rank > max_rank ) max_rank = c->content_rank;

	cmp	eax, edi
	jle	SHORT $LN70@convert_bo
	mov	edi, eax
$LN70@convert_bo:

; 3200 :       { int min_rank, max_rank;
; 3201 : 
; 3202 :          min_rank = MAXINT; max_rank = 0;
; 3203 :          for ( j = 1 ; j <= concount ; j++ )

	inc	ecx
	cmp	ecx, ebx
	jle	SHORT $LL71@convert_bo

; 3207 :            if ( c->content_rank > max_rank ) max_rank = c->content_rank;

	mov	DWORD PTR _max_rank$91304[ebp], edi
	mov	DWORD PTR _min_rank$91303[ebp], esi
$LN69@convert_bo:

; 3208 :          }
; 3209 :       for ( i = 1 ; i <= concount ; i++ )

	mov	DWORD PTR _i$[ebp], 1
	cmp	ebx, 1
	jl	$LN76@convert_bo
	npad	6
$LL66@convert_bo:

; 3210 :       { conmap_t *con = get_e_constraint_map(e_id);  /* might have moved */

	mov	ecx, DWORD PTR _dymem
	mov	edx, DWORD PTR _web+216
	cmp	DWORD PTR [edx+ecx+1048], 0
	je	SHORT $LN169@convert_bo
	mov	edx, DWORD PTR _web+124
	mov	eax, DWORD PTR tv2373[ebp]
	mov	eax, DWORD PTR [eax+edx]
	mov	edx, DWORD PTR _web+216
	add	eax, DWORD PTR [edx+ecx+1024]
	jmp	SHORT $LN170@convert_bo
$LN169@convert_bo:
	mov	eax, OFFSET _nullcon
$LN170@convert_bo:

; 3211 :         int connum = con[i]&CONMASK;

	mov	ecx, DWORD PTR _i$[ebp]
	mov	eax, DWORD PTR [eax+ecx*4]
	and	eax, 1073741823				; 3fffffffH
	mov	DWORD PTR _connum$91325[ebp], eax

; 3212 :         struct constraint *c = get_constraint(connum);

	and	eax, 1073741823				; 3fffffffH
	mov	edi, eax
	imul	edi, 176				; 000000b0H
	add	edi, DWORD PTR _web+652
	mov	DWORD PTR tv2659[ebp], eax

; 3213 :         if ( !(c->attr & CON_CONTENT) ) continue;

	mov	eax, DWORD PTR [edi+32]
	and	eax, 128				; 00000080H
	xor	ecx, ecx
	or	eax, ecx
	je	$LN65@convert_bo

; 3214 :         fe = first_fe;

	mov	edx, DWORD PTR _first_fe$91300[ebp]
	mov	DWORD PTR _fe$[ebp], edx
	npad	12
$LL62@convert_bo:

; 3215 :         do
; 3216 :         { char name[100];
; 3217 :           f_id = get_fe_facet(fe);

	mov	ecx, DWORD PTR _fe$[ebp]
	test	ecx, 268435456				; 10000000H
	jne	SHORT $LN224@convert_bo
	mov	ebx, DWORD PTR _NULLFACET
	jmp	SHORT $LN225@convert_bo
$LN224@convert_bo:
	mov	edx, DWORD PTR _web+460
	mov	eax, ecx
	and	eax, 134217727				; 07ffffffH
	mov	eax, DWORD PTR [edx+eax*4]
	mov	eax, DWORD PTR [eax+24]
	test	ecx, 134217728				; 08000000H
	je	SHORT $LN223@convert_bo
	xor	eax, 134217728				; 08000000H
$LN223@convert_bo:
	mov	ebx, eax
$LN225@convert_bo:

; 3218 :           fe = get_next_facet(fe);

	mov	eax, DWORD PTR _fe$[ebp]
	mov	ecx, DWORD PTR _web+460
	test	eax, 134217728				; 08000000H
	je	SHORT $LN228@convert_bo
	and	eax, 134217727				; 07ffffffH
	mov	edx, DWORD PTR [ecx+eax*4]
	mov	eax, DWORD PTR [edx+36]
	xor	eax, 134217728				; 08000000H
	jmp	SHORT $LN356@convert_bo
$LN228@convert_bo:
	and	eax, 134217727				; 07ffffffH
	mov	edx, DWORD PTR [ecx+eax*4]
	mov	eax, DWORD PTR [edx+40]
$LN356@convert_bo:
	mov	DWORD PTR _fe$[ebp], eax

; 3219 :           if ( !valid_id(f_id) ) continue;

	test	ebx, 268435456				; 10000000H
	je	$LN61@convert_bo

; 3220 :           if ( get_fattr(f_id) & NONCONTENT ) continue;

	mov	edx, DWORD PTR _web+236
	mov	ecx, ebx
	and	ecx, 134217727				; 07ffffffH
	mov	ecx, DWORD PTR [edx+ecx*4]
	mov	eax, DWORD PTR [ecx+8]
	and	eax, 536870912				; 20000000H
	xor	edx, edx
	or	eax, edx
	jne	$LN61@convert_bo

; 3221 :           b_id = get_facet_body(f_id);

	cmp	DWORD PTR _web+400, edx
	jne	SHORT $LN234@convert_bo
	xor	ecx, ecx
	jmp	SHORT $LN231@convert_bo
$LN234@convert_bo:
	test	ebx, 134217728				; 08000000H
	je	SHORT $LN232@convert_bo
	mov	eax, DWORD PTR _web+328
	mov	edx, DWORD PTR _dymem
	mov	eax, DWORD PTR [eax+edx+784]
	mov	ecx, DWORD PTR [eax+ecx+4]
	jmp	SHORT $LN231@convert_bo
$LN232@convert_bo:
	mov	edx, DWORD PTR _web+328
	mov	eax, DWORD PTR _dymem
	mov	edx, DWORD PTR [edx+eax+784]
	mov	ecx, DWORD PTR [ecx+edx]
$LN231@convert_bo:

; 3222 :           if ( valid_id(b_id) && (c->content_rank >= max_rank))

	test	ecx, 268435456				; 10000000H
	je	SHORT $LN57@convert_bo
	mov	eax, DWORD PTR _max_rank$91304[ebp]
	cmp	DWORD PTR [edi+172], eax
	jl	SHORT $LN57@convert_bo

; 3223 :           { if ( c->attr & NAMED_THING )

	mov	eax, DWORD PTR [edi+32]

; 3224 :               sprintf(name,"body_%d_%s_meth",ordinal(b_id)+1,c->name);

	mov	esi, ecx
	xor	edx, edx
	and	eax, 512				; 00000200H
	and	esi, 134217727				; 07ffffffH
	or	eax, edx
	lea	ecx, DWORD PTR [esi+1]
	lea	edx, DWORD PTR _name$91335[ebp]
	je	SHORT $LN56@convert_bo
	push	edi
	push	ecx
	push	OFFSET ??_C@_0BA@NNIIKJGD@body_?$CFd_?$CFs_meth?$AA@

; 3225 :             else

	jmp	SHORT $LN357@convert_bo
$LN56@convert_bo:

; 3226 :               sprintf(name,"body_%d_con_%d_meth",ordinal(b_id)+1,connum);

	mov	eax, DWORD PTR _connum$91325[ebp]
	push	eax
	push	ecx
	push	OFFSET ??_C@_0BE@MMPMDLLO@body_?$CFd_con_?$CFd_meth?$AA@
$LN357@convert_bo:
	push	edx
	call	_sprintf

; 3227 :             attach_method(get_body_volquant(b_id),name);

	mov	ecx, DWORD PTR _web+348
	mov	edx, DWORD PTR [ecx+esi*4]
	add	esp, 16					; 00000010H
	lea	eax, DWORD PTR _name$91335[ebp]
	push	eax
	mov	eax, DWORD PTR [edx+404]
	push	eax
	call	_attach_method

; 3228 :             apply_method(e_id,name);

	mov	edx, DWORD PTR _e_id$[ebp]
	lea	ecx, DWORD PTR _name$91335[ebp]
	push	ecx
	push	edx
	call	_apply_method
	add	esp, 16					; 00000010H
$LN57@convert_bo:

; 3229 :           }
; 3230 :           b_id = get_facet_body(inverse_id(f_id));

	mov	eax, ebx
	xor	eax, 134217728				; 08000000H
	cmp	DWORD PTR _web+400, 0
	jne	SHORT $LN240@convert_bo
	xor	esi, esi
	jmp	SHORT $LN237@convert_bo
$LN240@convert_bo:
	test	eax, 268435456				; 10000000H
	jne	SHORT $LN239@convert_bo
	xor	esi, esi
	jmp	SHORT $LN237@convert_bo
$LN239@convert_bo:
	mov	ecx, DWORD PTR _web+236
	test	eax, 134217728				; 08000000H
	je	SHORT $LN238@convert_bo
	and	eax, 134217727				; 07ffffffH
	mov	edx, DWORD PTR [ecx+eax*4]
	mov	eax, DWORD PTR _web+328
	mov	ecx, DWORD PTR _dymem
	mov	eax, DWORD PTR [eax+ecx+784]
	mov	esi, DWORD PTR [edx+eax+4]
	jmp	SHORT $LN237@convert_bo
$LN238@convert_bo:
	and	eax, 134217727				; 07ffffffH
	mov	edx, DWORD PTR [ecx+eax*4]
	mov	eax, DWORD PTR _web+328
	mov	ecx, DWORD PTR _dymem
	mov	eax, DWORD PTR [eax+ecx+784]
	mov	esi, DWORD PTR [edx+eax]
$LN237@convert_bo:

; 3231 :           if ( valid_id(b_id) && (c->content_rank <= min_rank) )

	test	esi, 268435456				; 10000000H
	je	$LN61@convert_bo
	mov	ecx, DWORD PTR _min_rank$91303[ebp]
	cmp	DWORD PTR [edi+172], ecx
	jg	SHORT $LN61@convert_bo

; 3232 :           { if ( c->attr & NAMED_THING )

	mov	eax, DWORD PTR [edi+32]
	and	eax, 512				; 00000200H
	xor	ecx, ecx

; 3233 :               sprintf(name,"body_%d_%s_meth",ordinal(b_id)+1,c->name);

	and	esi, 134217727				; 07ffffffH
	or	eax, ecx
	lea	edx, DWORD PTR [esi+1]
	lea	eax, DWORD PTR _name$91335[ebp]
	je	SHORT $LN53@convert_bo
	push	edi
	push	edx
	push	OFFSET ??_C@_0BA@NNIIKJGD@body_?$CFd_?$CFs_meth?$AA@

; 3234 :             else

	jmp	SHORT $LN358@convert_bo
$LN53@convert_bo:

; 3235 :               sprintf(name,"body_%d_con_%d_meth",ordinal(b_id)+1,connum&CONMASK);

	mov	ecx, DWORD PTR tv2659[ebp]
	push	ecx
	push	edx
	push	OFFSET ??_C@_0BE@MMPMDLLO@body_?$CFd_con_?$CFd_meth?$AA@
$LN358@convert_bo:
	push	eax
	call	_sprintf

; 3236 :             attach_method(get_body_volquant(b_id),name);

	mov	edx, DWORD PTR _web+348
	mov	eax, DWORD PTR [edx+esi*4]
	add	esp, 16					; 00000010H
	lea	ecx, DWORD PTR _name$91335[ebp]
	push	ecx
	mov	ecx, DWORD PTR [eax+404]
	push	ecx
	call	_attach_method

; 3237 :             apply_method(inverse_id(e_id),name);

	mov	eax, DWORD PTR _e_id$[ebp]
	lea	edx, DWORD PTR _name$91335[ebp]
	push	edx
	xor	eax, 134217728				; 08000000H
	push	eax
	call	_apply_method
	add	esp, 16					; 00000010H
$LN61@convert_bo:

; 3238 :           }
; 3239 :         } while ( !equal_id(fe,first_fe) );

	mov	ecx, DWORD PTR _first_fe$91300[ebp]
	cmp	DWORD PTR _fe$[ebp], ecx
	jne	$LL62@convert_bo
$LN65@convert_bo:

; 3208 :          }
; 3209 :       for ( i = 1 ; i <= concount ; i++ )

	mov	eax, DWORD PTR _i$[ebp]
	inc	eax
	mov	DWORD PTR _i$[ebp], eax
	cmp	eax, DWORD PTR _concount$91298[ebp]
	jle	$LL66@convert_bo
$LN76@convert_bo:

; 3195 :   { FOR_ALL_EDGES(e_id)

	mov	eax, DWORD PTR _web+124
	mov	edx, DWORD PTR tv2373[ebp]
	mov	ecx, DWORD PTR [edx+eax]
	mov	eax, DWORD PTR [ecx]
	mov	DWORD PTR _e_id$[ebp], eax
	test	eax, 268435456				; 10000000H
	jne	$LL77@convert_bo
$LN335@convert_bo:
	mov	edi, DWORD PTR _web+12
$LN75@convert_bo:

; 3240 :       }
; 3241 :       }
; 3242 :     }
; 3243 :   }
; 3244 : 
; 3245 :   /* boundary content integrals */
; 3246 :   for ( j = 0 ; j < web.bdrymax ; j++ )

	xor	eax, eax
	mov	DWORD PTR _j$[ebp], eax
	cmp	DWORD PTR _web+768, eax
	jle	$LN337@convert_bo
	mov	edi, DWORD PTR _web+348
	mov	DWORD PTR tv3483[ebp], eax
	npad	4
$LL51@convert_bo:

; 3247 :   { struct boundary *bdry = web.boundaries + j;

	mov	ebx, DWORD PTR tv3483[ebp]
	add	ebx, DWORD PTR _web+776

; 3248 : 
; 3249 :     if ( !(bdry->attr & CON_CONTENT) ) continue;

	xor	ecx, ecx
	mov	eax, DWORD PTR [ebx+32]
	and	eax, 128				; 00000080H
	or	eax, ecx
	mov	DWORD PTR _bdry$91364[ebp], ebx
	je	$LN50@convert_bo

; 3250 :     FOR_ALL_BODIES(b_id)

	mov	eax, DWORD PTR _web+384
	mov	ecx, eax
	shr	ecx, 28					; 0000001cH
	and	ecx, 1
	je	$LN50@convert_bo
	npad	9
$LL47@convert_bo:
	mov	esi, eax
	and	esi, 134217727				; 07ffffffH
	mov	eax, DWORD PTR [edi+esi*4]
	mov	eax, DWORD PTR [eax+8]
	and	eax, 1
	xor	edx, edx
	or	eax, edx
	je	$LN46@convert_bo

; 3251 :     { struct method_instance *mi;
; 3252 :       sprintf(inst_name1,"body_%d_bdry_%s_meth",ordinal(b_id)+1,bdry->name);

	test	ecx, ecx
	je	SHORT $LN179@convert_bo
	mov	eax, esi
	jmp	SHORT $LN180@convert_bo
$LN179@convert_bo:
	or	eax, -1
$LN180@convert_bo:
	push	ebx
	inc	eax
	push	eax
	lea	ecx, DWORD PTR _inst_name1$[ebp]
	push	OFFSET ??_C@_0BF@MHGGIEFG@body_?$CFd_bdry_?$CFs_meth?$AA@
	push	ecx
	call	_sprintf

; 3253 :       meth1 = find_method_instance(inst_name1);

	lea	edx, DWORD PTR _inst_name1$[ebp]
	push	edx
	call	_find_method_instance
	mov	edi, eax
	add	esp, 20					; 00000014H

; 3254 :       if ( meth1 < 0 )

	test	edi, edi
	jns	SHORT $LN40@convert_bo

; 3255 :       { /* have to create */
; 3256 :         if ( web.representation ==  STRING )

	cmp	DWORD PTR _web+624, 1
	jne	SHORT $LN41@convert_bo

; 3257 :         { meth1 = new_method_instance("vertex_scalar_integral",inst_name1);

	lea	eax, DWORD PTR _inst_name1$[ebp]
	push	eax
	push	OFFSET ??_C@_0BH@EHAKMPOM@vertex_scalar_integral?$AA@

; 3258 :         }
; 3259 :         else

	jmp	SHORT $LN359@convert_bo
$LN41@convert_bo:

; 3260 :         { meth1 = new_method_instance("edge_vector_integral",inst_name1);

	lea	ecx, DWORD PTR _inst_name1$[ebp]
	push	ecx
	push	OFFSET ??_C@_0BF@EDOAEIAK@edge_vector_integral?$AA@
$LN359@convert_bo:
	call	_new_method_instance
	mov	edi, eax
	add	esp, 8
$LN40@convert_bo:

; 3261 :         }
; 3262 :       }
; 3263 :       mi = METH_INSTANCE(meth1);

	mov	eax, edi
	cdq
	xor	eax, edx
	sub	eax, edx
	imul	eax, 2928				; 00000b70H
	add	eax, DWORD PTR _meth_inst_list

; 3264 :       mi->flags |= DEFAULT_INSTANCE | BODY_INSTANCE;

	or	DWORD PTR [eax+140], 20971520		; 01400000H

; 3265 :       if ( web.representation == STRING )

	cmp	DWORD PTR _web+624, 1
	jne	SHORT $LN39@convert_bo

; 3266 :          mi->expr[0] = bdry->convect[0];

	mov	edx, DWORD PTR [ebx+96]
	mov	DWORD PTR [eax+232], edx

; 3267 :       else

	jmp	SHORT $LN35@convert_bo
$LN39@convert_bo:

; 3268 :         for ( k = 0 ; k < SDIM ; k++ ) 

	xor	edx, edx
	cmp	DWORD PTR _web+616, edx
	jle	SHORT $LN35@convert_bo
	lea	ecx, DWORD PTR [eax+232]
	lea	eax, DWORD PTR [ebx+96]
$LL37@convert_bo:

; 3269 :            mi->expr[k] = bdry->convect[k];

	mov	ebx, DWORD PTR [eax]
	mov	DWORD PTR [ecx], ebx
	inc	edx
	add	eax, 4
	add	ecx, 4
	cmp	edx, DWORD PTR _web+616
	jl	SHORT $LL37@convert_bo

; 3268 :         for ( k = 0 ; k < SDIM ; k++ ) 

	mov	ebx, DWORD PTR _bdry$91364[ebp]
$LN35@convert_bo:

; 3270 :       attach_method_num(get_body_volquant(b_id),meth1);

	mov	eax, DWORD PTR _web+348
	mov	ecx, DWORD PTR [eax+esi*4]
	mov	edx, DWORD PTR [ecx+404]
	push	edi
	push	edx
	call	_attach_method_num
	mov	edi, DWORD PTR _web+348
	add	esp, 8
$LN46@convert_bo:

; 3250 :     FOR_ALL_BODIES(b_id)

	mov	eax, DWORD PTR [edi+esi*4]
	mov	eax, DWORD PTR [eax]
	mov	ecx, eax
	shr	ecx, 28					; 0000001cH
	and	ecx, 1
	jne	$LL47@convert_bo
$LN50@convert_bo:

; 3240 :       }
; 3241 :       }
; 3242 :     }
; 3243 :   }
; 3244 : 
; 3245 :   /* boundary content integrals */
; 3246 :   for ( j = 0 ; j < web.bdrymax ; j++ )

	mov	eax, DWORD PTR _j$[ebp]
	add	DWORD PTR tv3483[ebp], 136		; 00000088H
	inc	eax
	mov	DWORD PTR _j$[ebp], eax
	cmp	eax, DWORD PTR _web+768
	jl	$LL51@convert_bo
	mov	edi, DWORD PTR _web+12
$LN337@convert_bo:

; 3271 :     }
; 3272 :   }
; 3273 :   if ( web.representation == STRING )

	cmp	DWORD PTR _web+624, 1
	jne	$LN34@convert_bo

; 3274 :   { vertex_id v_id;
; 3275 :     FOR_ALL_VERTICES(v_id)

	mov	ebx, DWORD PTR _web+48
	mov	DWORD PTR _v_id$91388[ebp], ebx
	test	ebx, 268435456				; 10000000H
	je	$LN13@convert_bo
	mov	esi, DWORD PTR _V_BOUNDARY_ATTR
$LL33@convert_bo:
	and	ebx, 134217727				; 07ffffffH
	add	ebx, ebx
	add	ebx, ebx
	mov	ecx, DWORD PTR [ebx+edi]
	mov	eax, DWORD PTR [ecx+8]
	and	eax, 1
	xor	edx, edx
	or	eax, edx
	mov	DWORD PTR tv2764[ebp], ebx
	je	$LN32@convert_bo

; 3276 :     { struct boundary *bdry = get_boundary(v_id);  

	test	esi, esi
	je	$LN32@convert_bo
	mov	eax, DWORD PTR _dymem
	mov	edx, esi
	imul	edx, 240				; 000000f0H
	add	edx, DWORD PTR _web+104
	mov	edx, DWORD PTR [edx+eax+64]
	mov	ebx, DWORD PTR [edx+ecx]
	imul	ebx, 136				; 00000088H
	add	ebx, DWORD PTR _web+776

; 3277 :       edge_id first_e;
; 3278 :       if ( !bdry || !(bdry->attr & CON_CONTENT) ) continue;

	je	$LN344@convert_bo
	mov	eax, DWORD PTR [ebx+32]
	and	eax, 128				; 00000080H
	xor	edx, edx
	or	eax, edx
	je	$LN344@convert_bo

; 3279 :       first_e = e_id = get_vertex_edge(v_id);

	mov	ecx, DWORD PTR [ecx+28]
	mov	DWORD PTR _e_id$[ebp], ecx
	mov	DWORD PTR _first_e$91404[ebp], ecx

; 3280 :       if ( valid_id(e_id) )

	test	ecx, 268435456				; 10000000H
	je	$LN344@convert_bo
	mov	edx, DWORD PTR _web+328
	mov	edi, DWORD PTR _web+236
$LL25@convert_bo:

; 3281 :       do
; 3282 :       { facetedge_id first_fe = fe = get_edge_fe(e_id);

	mov	eax, DWORD PTR _e_id$[ebp]
	mov	ecx, DWORD PTR _web+124
	and	eax, 134217727				; 07ffffffH
	add	eax, eax
	add	eax, eax
	mov	DWORD PTR tv2373[ebp], eax
	mov	eax, DWORD PTR [eax+ecx]
	test	eax, eax
	jne	SHORT $LN244@convert_bo
	xor	ecx, ecx
	jmp	SHORT $LN243@convert_bo
$LN244@convert_bo:
	test	DWORD PTR _e_id$[ebp], 134217728	; 08000000H
	mov	ecx, DWORD PTR [eax+28]
	je	SHORT $LN243@convert_bo
	xor	ecx, 134217728				; 08000000H
$LN243@convert_bo:
	mov	DWORD PTR _fe$[ebp], ecx
	mov	DWORD PTR _first_fe$91413[ebp], ecx

; 3283 :         if ( valid_id(fe) && !(get_eattr(e_id) & NONCONTENT) ) 

	test	ecx, 268435456				; 10000000H
	je	$LN19@convert_bo
	mov	eax, DWORD PTR [eax+8]
	and	eax, 536870912				; 20000000H
	xor	ecx, ecx
	or	eax, ecx
	jne	$LN19@convert_bo
	npad	9
$LL21@convert_bo:

; 3284 :         do
; 3285 :         { f_id = get_fe_facet(fe);

	test	DWORD PTR _fe$[ebp], 268435456		; 10000000H
	jne	SHORT $LN248@convert_bo
	mov	esi, DWORD PTR _NULLFACET
	jmp	SHORT $LN247@convert_bo
$LN248@convert_bo:
	mov	eax, DWORD PTR _fe$[ebp]
	mov	esi, DWORD PTR _web+460
	mov	ecx, eax
	and	ecx, 134217727				; 07ffffffH
	mov	ecx, DWORD PTR [esi+ecx*4]
	mov	esi, DWORD PTR [ecx+24]
	test	eax, 134217728				; 08000000H
	je	SHORT $LN247@convert_bo
	xor	esi, 134217728				; 08000000H
$LN247@convert_bo:

; 3286 :           b_id = get_facet_body(f_id);

	cmp	DWORD PTR _web+400, 0
	jne	SHORT $LN254@convert_bo
	xor	eax, eax
	jmp	SHORT $LN251@convert_bo
$LN254@convert_bo:
	test	esi, 268435456				; 10000000H
	jne	SHORT $LN253@convert_bo
	xor	eax, eax
	jmp	SHORT $LN251@convert_bo
$LN253@convert_bo:
	test	esi, 134217728				; 08000000H
	je	SHORT $LN252@convert_bo
	mov	eax, esi
	and	eax, 134217727				; 07ffffffH
	mov	ecx, DWORD PTR [edi+eax*4]
	mov	eax, DWORD PTR _dymem
	mov	eax, DWORD PTR [edx+eax+784]
	mov	eax, DWORD PTR [ecx+eax+4]
	jmp	SHORT $LN251@convert_bo
$LN252@convert_bo:
	mov	ecx, esi
	and	ecx, 134217727				; 07ffffffH
	mov	eax, DWORD PTR [edi+ecx*4]
	mov	ecx, DWORD PTR _dymem
	mov	ecx, DWORD PTR [edx+ecx+784]
	mov	eax, DWORD PTR [eax+ecx]
$LN251@convert_bo:

; 3287 :           if ( valid_id(b_id) )

	test	eax, 268435456				; 10000000H
	je	SHORT $LN18@convert_bo

; 3288 :           {
; 3289 :             sprintf(inst_name1,"body_%d_bdry_%s_meth",ordinal(b_id)+1,bdry->name);

	and	eax, 134217727				; 07ffffffH
	push	ebx
	inc	eax
	push	eax
	lea	edx, DWORD PTR _inst_name1$[ebp]
	push	OFFSET ??_C@_0BF@MHGGIEFG@body_?$CFd_bdry_?$CFs_meth?$AA@
	push	edx
	call	_sprintf

; 3290 :             meth1 = find_method_instance(inst_name1);

	lea	eax, DWORD PTR _inst_name1$[ebp]
	push	eax
	call	_find_method_instance

; 3291 :             apply_method_num(v_id,meth1);

	mov	ecx, DWORD PTR _v_id$91388[ebp]
	push	eax
	push	ecx
	call	_apply_method_num
	mov	edx, DWORD PTR _web+328
	mov	edi, DWORD PTR _web+236
	add	esp, 28					; 0000001cH
$LN18@convert_bo:

; 3292 :           }
; 3293 :           b_id = get_facet_body(inverse_id(f_id));

	mov	eax, esi
	xor	eax, 134217728				; 08000000H
	cmp	DWORD PTR _web+400, 0
	jne	SHORT $LN260@convert_bo
	xor	eax, eax
	jmp	SHORT $LN257@convert_bo
$LN260@convert_bo:
	test	eax, 268435456				; 10000000H
	jne	SHORT $LN259@convert_bo
	xor	eax, eax
	jmp	SHORT $LN257@convert_bo
$LN259@convert_bo:
	mov	ecx, DWORD PTR _dymem
	mov	ecx, DWORD PTR [edx+ecx+784]
	test	eax, 134217728				; 08000000H
	je	SHORT $LN258@convert_bo
	and	eax, 134217727				; 07ffffffH
	mov	eax, DWORD PTR [edi+eax*4]
	mov	eax, DWORD PTR [eax+ecx+4]
	jmp	SHORT $LN257@convert_bo
$LN258@convert_bo:
	and	eax, 134217727				; 07ffffffH
	mov	eax, DWORD PTR [edi+eax*4]
	mov	eax, DWORD PTR [eax+ecx]
$LN257@convert_bo:

; 3294 :           if ( valid_id(b_id) )

	test	eax, 268435456				; 10000000H
	je	SHORT $LN17@convert_bo

; 3295 :           {
; 3296 :             sprintf(inst_name1,"body_%d_bdry_%s_meth",ordinal(b_id)+1,bdry->name);

	and	eax, 134217727				; 07ffffffH
	push	ebx
	inc	eax
	push	eax
	lea	edx, DWORD PTR _inst_name1$[ebp]
	push	OFFSET ??_C@_0BF@MHGGIEFG@body_?$CFd_bdry_?$CFs_meth?$AA@
	push	edx
	call	_sprintf

; 3297 :             meth1 = find_method_instance(inst_name1);

	lea	eax, DWORD PTR _inst_name1$[ebp]
	push	eax
	call	_find_method_instance

; 3298 :             apply_method_num(inverse_id(v_id),meth1);

	mov	ecx, DWORD PTR _v_id$91388[ebp]
	push	eax
	xor	ecx, 134217728				; 08000000H
	push	ecx
	call	_apply_method_num
	mov	edx, DWORD PTR _web+328
	mov	edi, DWORD PTR _web+236
	add	esp, 28					; 0000001cH
$LN17@convert_bo:

; 3299 :           }
; 3300 :           fe = get_next_facet(fe);

	mov	eax, DWORD PTR _fe$[ebp]
	mov	ecx, DWORD PTR _web+460
	test	eax, 134217728				; 08000000H
	je	SHORT $LN264@convert_bo
	and	eax, 134217727				; 07ffffffH
	mov	eax, DWORD PTR [ecx+eax*4]
	mov	eax, DWORD PTR [eax+36]
	xor	eax, 134217728				; 08000000H
	jmp	SHORT $LN360@convert_bo
$LN264@convert_bo:
	and	eax, 134217727				; 07ffffffH
	mov	eax, DWORD PTR [ecx+eax*4]
	mov	eax, DWORD PTR [eax+40]
$LN360@convert_bo:
	mov	DWORD PTR _fe$[ebp], eax

; 3301 :         } while ( !equal_id(fe,first_fe) );

	cmp	eax, DWORD PTR _first_fe$91413[ebp]
	jne	$LL21@convert_bo
$LN19@convert_bo:

; 3302 :         e_id = get_next_tail_edge(e_id);

	mov	ecx, DWORD PTR _e_id$[ebp]
	mov	eax, DWORD PTR _web+124
	mov	esi, DWORD PTR tv2373[ebp]
	mov	eax, DWORD PTR [esi+eax]
	shr	ecx, 27					; 0000001bH
	and	ecx, 1
	mov	eax, DWORD PTR [eax+ecx*4+32]
	mov	DWORD PTR _e_id$[ebp], eax

; 3303 :       } while ( !equal_id(first_e,e_id));

	cmp	DWORD PTR _first_e$91404[ebp], eax
	jne	$LL25@convert_bo
	mov	edi, DWORD PTR _web+12
	mov	esi, DWORD PTR _V_BOUNDARY_ATTR
$LN344@convert_bo:
	mov	ebx, DWORD PTR tv2764[ebp]
$LN32@convert_bo:

; 3274 :   { vertex_id v_id;
; 3275 :     FOR_ALL_VERTICES(v_id)

	mov	ecx, DWORD PTR [ebx+edi]
	mov	ebx, DWORD PTR [ecx]
	mov	DWORD PTR _v_id$91388[ebp], ebx
	test	ebx, 268435456				; 10000000H
	jne	$LL33@convert_bo
	pop	edi
	pop	esi
	pop	ebx

; 3332 :     }
; 3333 :   }
; 3334 : 
; 3335 :   /* done in convert_new_body...
; 3336 :   if ( web.pressure_flag )
; 3337 :     FOR_ALL_BODIES(b_id)
; 3338 :       create_pressure_quant(b_id);
; 3339 :    */
; 3340 : } // end convert_bodies_to_quantities()

	mov	ecx, DWORD PTR __$ArrayPad$[ebp]
	xor	ecx, ebp
	call	@__security_check_cookie@4
	mov	esp, ebp
	pop	ebp
	ret	0
$LN34@convert_bo:

; 3304 :     }
; 3305 :   }
; 3306 :   else  /* SOAPFILM */
; 3307 :   { FOR_ALL_EDGES(e_id)

	mov	ebx, DWORD PTR _web+160
	test	ebx, 268435456				; 10000000H
	je	$LN13@convert_bo
	mov	edi, DWORD PTR _E_BOUNDARY_ATTR
	npad	3
$LL15@convert_bo:
	mov	edx, DWORD PTR _web+124
	mov	esi, ebx
	and	esi, 134217727				; 07ffffffH
	add	esi, esi
	add	esi, esi
	mov	ecx, DWORD PTR [esi+edx]
	mov	eax, DWORD PTR [ecx+8]
	and	eax, 1
	xor	edx, edx
	or	eax, edx
	mov	DWORD PTR tv2373[ebp], esi
	je	$LN14@convert_bo

; 3308 :     { struct boundary *bdry = get_edge_boundary(e_id);  

	test	edi, edi
	je	$LN14@convert_bo
	mov	edx, DWORD PTR _dymem
	mov	eax, edi
	imul	eax, 240				; 000000f0H
	add	eax, DWORD PTR _web+216
	mov	eax, DWORD PTR [eax+edx+64]
	mov	esi, DWORD PTR [eax+ecx]
	imul	esi, 136				; 00000088H
	add	esi, DWORD PTR _web+776

; 3309 :       facetedge_id first_fe;
; 3310 :       if ( !bdry || !(bdry->attr & CON_CONTENT) ) continue;

	je	$LN340@convert_bo
	mov	eax, DWORD PTR [esi+32]
	and	eax, 128				; 00000080H
	xor	edx, edx
	or	eax, edx
	je	$LN340@convert_bo

; 3311 :       first_fe = fe = get_edge_fe(e_id);

	test	ecx, ecx
	je	SHORT $LN269@convert_bo
$LN270@convert_bo:
	mov	ecx, DWORD PTR [ecx+28]
	test	ebx, 134217728				; 08000000H
	je	SHORT $LN269@convert_bo
	xor	ecx, 134217728				; 08000000H
$LN269@convert_bo:
	mov	DWORD PTR _fe$[ebp], ecx
	mov	DWORD PTR _first_fe$91445[ebp], ecx

; 3312 :       if ( valid_id(fe) )

	test	ecx, 268435456				; 10000000H
	je	$LN340@convert_bo
	npad	1
$LL7@convert_bo:

; 3313 :       do
; 3314 :       { f_id = get_fe_facet(fe);

	mov	ecx, DWORD PTR _fe$[ebp]
	mov	edx, DWORD PTR _web+460
	test	ecx, 268435456				; 10000000H
	jne	SHORT $LN274@convert_bo
	mov	edi, DWORD PTR _NULLFACET
	jmp	SHORT $LN275@convert_bo
$LN274@convert_bo:
	mov	eax, ecx
	and	eax, 134217727				; 07ffffffH
	mov	eax, DWORD PTR [edx+eax*4]
	mov	eax, DWORD PTR [eax+24]
	test	ecx, 134217728				; 08000000H
	je	SHORT $LN273@convert_bo
	xor	eax, 134217728				; 08000000H
$LN273@convert_bo:
	mov	edi, eax
$LN275@convert_bo:

; 3315 :         fe = get_next_facet(fe);

	test	ecx, 134217728				; 08000000H
	je	SHORT $LN278@convert_bo
	and	ecx, 134217727				; 07ffffffH
	mov	ecx, DWORD PTR [edx+ecx*4]
	mov	edx, DWORD PTR [ecx+36]
	xor	edx, 134217728				; 08000000H
	mov	DWORD PTR _fe$[ebp], edx
	jmp	SHORT $LN277@convert_bo
$LN278@convert_bo:
	and	ecx, 134217727				; 07ffffffH
	mov	eax, DWORD PTR [edx+ecx*4]
	mov	ecx, DWORD PTR [eax+40]
	mov	DWORD PTR _fe$[ebp], ecx
$LN277@convert_bo:

; 3316 :         if ( !valid_id(f_id) ) continue;

	test	edi, 268435456				; 10000000H
	je	$LN6@convert_bo

; 3317 :         if ( get_fattr(f_id) & NONCONTENT ) continue;

	mov	eax, DWORD PTR _web+236
	mov	edx, edi
	and	edx, 134217727				; 07ffffffH
	mov	ecx, DWORD PTR [eax+edx*4]
	mov	eax, DWORD PTR [ecx+8]
	and	eax, 536870912				; 20000000H
	xor	edx, edx
	or	eax, edx
	jne	$LN6@convert_bo

; 3318 :         b_id = get_facet_body(f_id);

	cmp	DWORD PTR _web+400, edx
	je	SHORT $LN281@convert_bo
$LN284@convert_bo:
	test	edi, 134217728				; 08000000H
	je	SHORT $LN282@convert_bo
	mov	eax, DWORD PTR _dymem
	mov	edx, DWORD PTR _web+328
	mov	edx, DWORD PTR [edx+eax+784]
	mov	eax, DWORD PTR [edx+ecx+4]
	jmp	SHORT $LN281@convert_bo
$LN282@convert_bo:
	mov	eax, DWORD PTR _web+328
	mov	edx, DWORD PTR _dymem
	mov	eax, DWORD PTR [eax+edx+784]
	mov	eax, DWORD PTR [ecx+eax]
$LN281@convert_bo:

; 3319 :         
; 3320 :         if ( valid_id(b_id) )

	test	eax, 268435456				; 10000000H
	je	SHORT $LN2@convert_bo

; 3321 :         { sprintf(inst_name1,"body_%d_bdry_%s_meth",ordinal(b_id)+1,bdry->name);

	and	eax, 134217727				; 07ffffffH
	push	esi
	inc	eax
	push	eax
	lea	ecx, DWORD PTR _inst_name1$[ebp]
	push	OFFSET ??_C@_0BF@MHGGIEFG@body_?$CFd_bdry_?$CFs_meth?$AA@
	push	ecx
	call	_sprintf

; 3322 :           meth1 = find_method_instance(inst_name1);

	lea	edx, DWORD PTR _inst_name1$[ebp]
	push	edx
	call	_find_method_instance

; 3323 :           apply_method_num(inverse_id(e_id),meth1);

	push	eax
	mov	eax, ebx
	xor	eax, 134217728				; 08000000H
	push	eax
	call	_apply_method_num
	add	esp, 28					; 0000001cH
$LN2@convert_bo:

; 3324 :         }
; 3325 :         b_id = get_facet_body(inverse_id(f_id));

	mov	eax, edi
	xor	eax, 134217728				; 08000000H
	cmp	DWORD PTR _web+400, 0
	jne	SHORT $LN290@convert_bo
	xor	eax, eax
	jmp	SHORT $LN287@convert_bo
$LN290@convert_bo:
	test	eax, 268435456				; 10000000H
	jne	SHORT $LN289@convert_bo
	xor	eax, eax
	jmp	SHORT $LN287@convert_bo
$LN289@convert_bo:
	mov	ecx, DWORD PTR _web+236
	test	eax, 134217728				; 08000000H
	je	SHORT $LN288@convert_bo
	and	eax, 134217727				; 07ffffffH
	mov	edx, DWORD PTR [ecx+eax*4]
	mov	eax, DWORD PTR _web+328
	mov	ecx, DWORD PTR _dymem
	mov	eax, DWORD PTR [eax+ecx+784]
	mov	eax, DWORD PTR [edx+eax+4]
	jmp	SHORT $LN287@convert_bo
$LN288@convert_bo:
	and	eax, 134217727				; 07ffffffH
	mov	edx, DWORD PTR [ecx+eax*4]
	mov	eax, DWORD PTR _web+328
	mov	ecx, DWORD PTR _dymem
	mov	eax, DWORD PTR [eax+ecx+784]
	mov	eax, DWORD PTR [edx+eax]
$LN287@convert_bo:

; 3326 :         if ( valid_id(b_id) )

	test	eax, 268435456				; 10000000H
	je	SHORT $LN6@convert_bo

; 3327 :         { sprintf(inst_name1,"body_%d_bdry_%s_meth",ordinal(b_id)+1,bdry->name);

	and	eax, 134217727				; 07ffffffH
	push	esi
	inc	eax
	push	eax
	lea	ecx, DWORD PTR _inst_name1$[ebp]
	push	OFFSET ??_C@_0BF@MHGGIEFG@body_?$CFd_bdry_?$CFs_meth?$AA@
	push	ecx
	call	_sprintf

; 3328 :           meth1 = find_method_instance(inst_name1);

	lea	edx, DWORD PTR _inst_name1$[ebp]
	push	edx
	call	_find_method_instance

; 3329 :           apply_method_num(e_id,meth1);

	push	eax
	push	ebx
	call	_apply_method_num
	add	esp, 28					; 0000001cH
$LN6@convert_bo:

; 3330 :         }
; 3331 :       } while ( !equal_id(fe,first_fe) );

	mov	eax, DWORD PTR _first_fe$91445[ebp]
	cmp	DWORD PTR _fe$[ebp], eax
	jne	$LL7@convert_bo
	mov	edi, DWORD PTR _E_BOUNDARY_ATTR
$LN340@convert_bo:
	mov	esi, DWORD PTR tv2373[ebp]
$LN14@convert_bo:

; 3304 :     }
; 3305 :   }
; 3306 :   else  /* SOAPFILM */
; 3307 :   { FOR_ALL_EDGES(e_id)

	mov	ecx, DWORD PTR _web+124
	mov	edx, DWORD PTR [esi+ecx]
	mov	ebx, DWORD PTR [edx]
	test	ebx, 268435456				; 10000000H
	jne	$LL15@convert_bo
$LN13@convert_bo:

; 3332 :     }
; 3333 :   }
; 3334 : 
; 3335 :   /* done in convert_new_body...
; 3336 :   if ( web.pressure_flag )
; 3337 :     FOR_ALL_BODIES(b_id)
; 3338 :       create_pressure_quant(b_id);
; 3339 :    */
; 3340 : } // end convert_bodies_to_quantities()

	mov	ecx, DWORD PTR __$ArrayPad$[ebp]
	pop	edi
	pop	esi
	xor	ecx, ebp
	pop	ebx
	call	@__security_check_cookie@4
	mov	esp, ebp
	pop	ebp
	ret	0
_convert_bodies_to_quantities ENDP
_TEXT	ENDS
PUBLIC	??_C@_0L@NBMEGDLE@?$CFs?5formula?$AA@		; `string'
PUBLIC	??_C@_0FO@OHFMEMCN@?9ambient_pressure_value?$CK?$CIbody?$FL?$CFd@ ; `string'
PUBLIC	??_C@_06LPHIKPID@?4value?$AA@			; `string'
PUBLIC	??_C@_01MIFGBAGJ@?$CL?$AA@			; `string'
PUBLIC	??_C@_0BC@MIDBFOKC@body?$FL?$CFd?$FN?4volconst?$AA@ ; `string'
PUBLIC	??_C@_0BH@EBJHIOOD@body_?$CFd_ambient_energy?$AA@ ; `string'
PUBLIC	__$ArrayPad$
PUBLIC	_create_pressure_quant
EXTRN	_temp_free:PROC
EXTRN	_compound_quant_list_head:DWORD
EXTRN	_line_no:DWORD
EXTRN	_msg:DWORD
EXTRN	_find_quantity:PROC
EXTRN	_kb_temp_calloc:PROC
;	COMDAT ??_C@_0L@NBMEGDLE@?$CFs?5formula?$AA@
CONST	SEGMENT
??_C@_0L@NBMEGDLE@?$CFs?5formula?$AA@ DB '%s formula', 00H ; `string'
CONST	ENDS
;	COMDAT ??_C@_0FO@OHFMEMCN@?9ambient_pressure_value?$CK?$CIbody?$FL?$CFd@
CONST	SEGMENT
??_C@_0FO@OHFMEMCN@?9ambient_pressure_value?$CK?$CIbody?$FL?$CFd@ DB '-am'
	DB	'bient_pressure_value*(body[%d].target*(log(%s)-log(body[%d].t'
	DB	'arget))-(%s-body[%d].target))', 00H		; `string'
CONST	ENDS
;	COMDAT ??_C@_06LPHIKPID@?4value?$AA@
CONST	SEGMENT
??_C@_06LPHIKPID@?4value?$AA@ DB '.value', 00H		; `string'
CONST	ENDS
;	COMDAT ??_C@_01MIFGBAGJ@?$CL?$AA@
CONST	SEGMENT
??_C@_01MIFGBAGJ@?$CL?$AA@ DB '+', 00H			; `string'
CONST	ENDS
;	COMDAT ??_C@_0BC@MIDBFOKC@body?$FL?$CFd?$FN?4volconst?$AA@
CONST	SEGMENT
??_C@_0BC@MIDBFOKC@body?$FL?$CFd?$FN?4volconst?$AA@ DB 'body[%d].volconst'
	DB	00H						; `string'
CONST	ENDS
;	COMDAT ??_C@_0BH@EBJHIOOD@body_?$CFd_ambient_energy?$AA@
CONST	SEGMENT
??_C@_0BH@EBJHIOOD@body_?$CFd_ambient_energy?$AA@ DB 'body_%d_ambient_ene'
	DB	'rgy', 00H					; `string'
; Function compile flags: /Ogtp
CONST	ENDS
;	COMDAT _create_pressure_quant
_TEXT	SEGMENT
tv353 = -1036						; size = 4
tv369 = -1032						; size = 4
tv361 = -1028						; size = 4
_q$91476 = -1024					; size = 4
_mc$91472 = -1020					; size = 4
_j$91478 = -1016					; size = 4
_formula$91474 = -1012					; size = 4
_volsum$91473 = -1008					; size = 4
_qname$91475 = -1004					; size = 1000
__$ArrayPad$ = -4					; size = 4
_b_id$ = 8						; size = 4
_create_pressure_quant PROC				; COMDAT

; 3349 : {

	push	ebp
	mov	ebp, esp
	sub	esp, 1036				; 0000040cH
	mov	eax, DWORD PTR ___security_cookie
	xor	eax, ebp
	mov	DWORD PTR __$ArrayPad$[ebp], eax

; 3350 :   if ( web.pressure_flag )

	cmp	DWORD PTR _web+868, 0
	push	ebx
	mov	ebx, DWORD PTR _b_id$[ebp]
	je	$LN7@create_pre

; 3351 :   { /* create formula and do compound quantity */
; 3352 :     int gq = get_body_volquant(b_id);

	mov	eax, DWORD PTR _web+348

; 3353 :     int mc = GEN_QUANT(gq)->method_count;

	mov	edx, DWORD PTR _gen_quant_list
	push	esi
	push	edi
	mov	edi, ebx
	and	edi, 134217727				; 07ffffffH
	mov	ecx, DWORD PTR [eax+edi*4]
	mov	esi, DWORD PTR [ecx+404]
	imul	esi, 368				; 00000170H
	mov	eax, DWORD PTR [esi+edx+240]

; 3354 :     char *volsum = temp_calloc(40,mc);

	push	3354					; 00000d1aH
	push	OFFSET ??_C@_0L@INLEEIPK@LEXINIT2?4C?$AA@
	push	eax
	push	40					; 00000028H
	mov	DWORD PTR tv353[ebp], edi
	mov	DWORD PTR tv361[ebp], esi
	mov	DWORD PTR _mc$91472[ebp], eax
	call	_kb_temp_calloc
	mov	DWORD PTR _volsum$91473[ebp], eax

; 3355 :     char *formula = temp_calloc(2,40*mc + 100);

	mov	eax, DWORD PTR _mc$91472[ebp]
	push	3355					; 00000d1bH
	lea	eax, DWORD PTR [eax+eax*4]
	push	OFFSET ??_C@_0L@INLEEIPK@LEXINIT2?4C?$AA@
	lea	ecx, DWORD PTR [eax*8+100]
	push	ecx
	push	2
	call	_kb_temp_calloc

; 3356 :     char qname[1000];
; 3357 :     int q,i,j;
; 3358 : 
; 3359 :     sprintf(qname,"body_%d_ambient_energy",ordinal(b_id)+1);

	shr	ebx, 28					; 0000001cH
	add	esp, 32					; 00000020H
	and	ebx, 1
	mov	DWORD PTR _formula$91474[ebp], eax
	mov	DWORD PTR tv369[ebp], ebx
	je	SHORT $LN10@create_pre
	mov	eax, edi
	jmp	SHORT $LN11@create_pre
$LN10@create_pre:
	or	eax, -1
$LN11@create_pre:
	inc	eax
	push	eax
	lea	edx, DWORD PTR _qname$91475[ebp]
	push	OFFSET ??_C@_0BH@EBJHIOOD@body_?$CFd_ambient_energy?$AA@
	push	edx
	call	_sprintf

; 3360 :     q = find_quantity(qname);

	lea	eax, DWORD PTR _qname$91475[ebp]
	push	eax
	call	_find_quantity
	add	esp, 16					; 00000010H
	mov	DWORD PTR _q$91476[ebp], eax

; 3361 :     if ( q < 0 ) q = new_quantity(qname,Q_INFO);

	test	eax, eax
	jns	SHORT $LN24@create_pre
	lea	ecx, DWORD PTR _qname$91475[ebp]
	push	4
	push	ecx
	call	_new_quantity
	add	esp, 8
	mov	DWORD PTR _q$91476[ebp], eax
$LN24@create_pre:

; 3362 :     set_body_ambquant(b_id,q);

	mov	edx, DWORD PTR _web+348
	mov	ecx, DWORD PTR [edx+edi*4]

; 3363 :     GEN_QUANT(q)->flags |= DEFAULT_QUANTITY;

	mov	ebx, eax
	imul	ebx, 368				; 00000170H
	mov	DWORD PTR [ecx+408], eax
	mov	eax, DWORD PTR _gen_quant_list
	or	DWORD PTR [ebx+eax+136], 8192		; 00002000H

; 3364 :     sprintf(volsum,"body[%d].volconst",ordinal(b_id)+1);

	cmp	DWORD PTR tv369[ebp], 0
	je	SHORT $LN12@create_pre
	mov	eax, edi
	jmp	SHORT $LN13@create_pre
$LN12@create_pre:
	or	eax, -1
$LN13@create_pre:
	mov	edx, DWORD PTR _volsum$91473[ebp]
	inc	eax
	push	eax
	push	OFFSET ??_C@_0BC@MIDBFOKC@body?$FL?$CFd?$FN?4volconst?$AA@
	push	edx
	call	_sprintf
	add	esp, 12					; 0000000cH

; 3365 :     for ( j = 0 ; j < mc ; j++ )

	cmp	DWORD PTR _mc$91472[ebp], 0
	mov	DWORD PTR _j$91478[ebp], 0
	jle	$LN3@create_pre
$LL5@create_pre:

; 3366 :     { int m = GEN_QUANT(gq)->meth_inst[j];
; 3367 :       struct method_instance *mi = METH_INSTANCE(m);

	mov	eax, DWORD PTR _gen_quant_list
	mov	ecx, DWORD PTR [esi+eax+244]
	mov	edx, DWORD PTR _j$91478[ebp]
	mov	eax, DWORD PTR [ecx+edx*4]

; 3368 :       strcat(volsum,((mi->modulus > 0.0) ? "+" : "+"));

	mov	edi, DWORD PTR _volsum$91473[ebp]
	cdq
	xor	eax, edx
	sub	eax, edx
	imul	eax, 2928				; 00000b70H
	add	eax, DWORD PTR _meth_inst_list
	dec	edi
	npad	3
$LL20@create_pre:
	mov	cl, BYTE PTR [edi+1]
	inc	edi
	test	cl, cl
	jne	SHORT $LL20@create_pre
	mov	cx, WORD PTR ??_C@_01MIFGBAGJ@?$CL?$AA@
	mov	WORD PTR [edi], cx

; 3369 :       strcat(volsum,mi->name);

	mov	ecx, eax
	mov	esi, eax
$LL21@create_pre:
	mov	dl, BYTE PTR [ecx]
	inc	ecx
	test	dl, dl
	jne	SHORT $LL21@create_pre
	mov	edi, DWORD PTR _volsum$91473[ebp]
	sub	ecx, esi
	mov	edx, ecx
	dec	edi
$LL22@create_pre:
	mov	cl, BYTE PTR [edi+1]
	inc	edi
	test	cl, cl
	jne	SHORT $LL22@create_pre
	mov	ecx, edx
	shr	ecx, 2
	rep movsd
	mov	ecx, edx
	and	ecx, 3
	rep movsb

; 3370 :       strcat(volsum,".value");

	mov	ecx, DWORD PTR _volsum$91473[ebp]
	dec	ecx
$LL23@create_pre:
	mov	dl, BYTE PTR [ecx+1]
	inc	ecx
	test	dl, dl
	jne	SHORT $LL23@create_pre
	mov	edx, DWORD PTR ??_C@_06LPHIKPID@?4value?$AA@
	mov	esi, DWORD PTR tv361[ebp]
	mov	DWORD PTR [ecx], edx
	mov	dx, WORD PTR ??_C@_06LPHIKPID@?4value?$AA@+4
	mov	WORD PTR [ecx+4], dx
	mov	dl, BYTE PTR ??_C@_06LPHIKPID@?4value?$AA@+6
	mov	BYTE PTR [ecx+6], dl

; 3371 :       mi->flags |= Q_COMPOUND;

	or	DWORD PTR [eax+140], 256		; 00000100H
	mov	eax, DWORD PTR _j$91478[ebp]
	inc	eax
	mov	DWORD PTR _j$91478[ebp], eax
	cmp	eax, DWORD PTR _mc$91472[ebp]
	jl	$LL5@create_pre

; 3365 :     for ( j = 0 ; j < mc ; j++ )

	mov	edi, DWORD PTR tv353[ebp]
$LN3@create_pre:

; 3372 :     }
; 3373 :     GEN_QUANT(q)->method_count = 0;
; 3374 :     i = ordinal(b_id)+1;

	cmp	DWORD PTR tv369[ebp], 0
	mov	eax, DWORD PTR _gen_quant_list
	mov	DWORD PTR [ebx+eax+240], 0
	je	SHORT $LN16@create_pre
	mov	eax, edi
	jmp	SHORT $LN17@create_pre
$LN16@create_pre:
	or	eax, -1
$LN17@create_pre:

; 3375 :     sprintf(formula,"-ambient_pressure_value*(body[%d].target*(log(%s)-log(body[%d].target))-(%s-body[%d].target))",
; 3376 :        i,volsum,i,volsum,i);

	mov	ecx, DWORD PTR _volsum$91473[ebp]
	inc	eax
	push	eax
	push	ecx
	push	eax
	push	ecx
	mov	ecx, DWORD PTR _formula$91474[ebp]
	push	eax
	push	OFFSET ??_C@_0FO@OHFMEMCN@?9ambient_pressure_value?$CK?$CIbody?$FL?$CFd@
	push	ecx
	call	_sprintf

; 3377 :     cmdptr = formula;
; 3378 :     exparse(0,&(GEN_QUANT(q)->expr),USERCOPY); line_no--;

	mov	eax, DWORD PTR _gen_quant_list
	mov	edx, DWORD PTR _formula$91474[ebp]
	push	1
	lea	ecx, DWORD PTR [ebx+eax+256]
	push	ecx
	push	0
	mov	DWORD PTR _cmdptr, edx
	call	_exparse

; 3379 :     sprintf(msg,"%s formula",qname);

	mov	eax, DWORD PTR _msg
	dec	DWORD PTR _line_no
	lea	edx, DWORD PTR _qname$91475[ebp]
	push	edx
	push	OFFSET ??_C@_0L@NBMEGDLE@?$CFs?5formula?$AA@
	push	eax
	call	_sprintf

; 3380 :     strncpy(GEN_QUANT(q)->expr.name,msg,EXPNAMESIZE-1);

	mov	ecx, DWORD PTR _msg
	mov	edx, DWORD PTR _gen_quant_list
	push	63					; 0000003fH
	push	ecx
	lea	eax, DWORD PTR [ebx+edx+276]
	push	eax
	call	_strncpy

; 3381 :     cmdptr = NULL;
; 3382 :     GEN_QUANT(q)->flags |= Q_COMPOUND;

	mov	eax, DWORD PTR _gen_quant_list
	xor	ecx, ecx
	mov	DWORD PTR _cmdptr, ecx
	or	DWORD PTR [ebx+eax+136], 256		; 00000100H

; 3383 :     GEN_QUANT(q)->next_compound = compound_quant_list_head;

	mov	edx, DWORD PTR _compound_quant_list_head
	mov	eax, DWORD PTR _gen_quant_list
	mov	DWORD PTR [ebx+eax+360], edx

; 3384 :     compound_quant_list_head = q;

	mov	edx, DWORD PTR _q$91476[ebp]

; 3385 :     if ( get_battr(b_id) & FIXEDVOL ) 

	mov	eax, DWORD PTR _web+348
	mov	DWORD PTR _compound_quant_list_head, edx
	mov	edi, DWORD PTR [eax+edi*4]
	mov	eax, DWORD PTR [edi+8]
	and	eax, 32					; 00000020H
	add	esp, 64					; 00000040H
	or	eax, ecx

; 3386 :        GEN_QUANT(q)->flags |= Q_ENERGY;

	mov	eax, DWORD PTR _gen_quant_list
	je	SHORT $LN2@create_pre
	or	DWORD PTR [ebx+eax+136], 1
	jmp	SHORT $LN1@create_pre
$LN2@create_pre:

; 3387 :     else   GEN_QUANT(q)->flags |= Q_INFO;

	or	DWORD PTR [ebx+eax+136], 4
$LN1@create_pre:

; 3388 :     GEN_QUANT(gq)->flags &= ~Q_FIXED;

	mov	eax, DWORD PTR _gen_quant_list
	and	DWORD PTR [esi+eax+136], -3		; fffffffdH

; 3389 :     GEN_QUANT(gq)->flags |= Q_INFO;
; 3390 :     temp_free(volsum);

	mov	ecx, DWORD PTR _volsum$91473[ebp]
	mov	eax, DWORD PTR _gen_quant_list
	or	DWORD PTR [esi+eax+136], 4
	push	ecx
	call	_temp_free

; 3391 :     temp_free(formula);

	mov	edx, DWORD PTR _formula$91474[ebp]
	push	edx
	call	_temp_free
	add	esp, 8
	pop	edi
	pop	esi
$LN7@create_pre:

; 3392 :   }  
; 3393 : } // end create_pressure_quant()

	mov	ecx, DWORD PTR __$ArrayPad$[ebp]
	xor	ecx, ebp
	pop	ebx
	call	@__security_check_cookie@4
	mov	esp, ebp
	pop	ebp
	ret	0
_create_pressure_quant ENDP
_TEXT	ENDS
PUBLIC	??_C@_0CM@GBDLOEDI@Array?5initializer?5has?5too?5many?5d@ ; `string'
PUBLIC	??_C@_0CN@JOEKDCPM@Illegal?5token?5?$CC?$CFs?$CC?5in?5array?5init@ ; `string'
PUBLIC	??_C@_0BI@ECCJKJJA@Too?5many?5initializers?4?6?$AA@ ; `string'
PUBLIC	??_C@_0CK@BCOGNCDN@Missing?5?8?$HL?8?$DL?5expected?5array?5init@ ; `string'
PUBLIC	__$ArrayPad$
PUBLIC	_read_array_initializer
EXTRN	_yytext:DWORD
EXTRN	_read_single_value:PROC
;	COMDAT ??_C@_0CM@GBDLOEDI@Array?5initializer?5has?5too?5many?5d@
CONST	SEGMENT
??_C@_0CM@GBDLOEDI@Array?5initializer?5has?5too?5many?5d@ DB 'Array initi'
	DB	'alizer has too many dimensions.', 0aH, 00H	; `string'
CONST	ENDS
;	COMDAT ??_C@_0CN@JOEKDCPM@Illegal?5token?5?$CC?$CFs?$CC?5in?5array?5init@
CONST	SEGMENT
??_C@_0CN@JOEKDCPM@Illegal?5token?5?$CC?$CFs?$CC?5in?5array?5init@ DB 'Il'
	DB	'legal token "%s" in array initialization.', 0aH, 00H ; `string'
CONST	ENDS
;	COMDAT ??_C@_0BI@ECCJKJJA@Too?5many?5initializers?4?6?$AA@
CONST	SEGMENT
??_C@_0BI@ECCJKJJA@Too?5many?5initializers?4?6?$AA@ DB 'Too many initiali'
	DB	'zers.', 0aH, 00H				; `string'
CONST	ENDS
;	COMDAT ??_C@_0CK@BCOGNCDN@Missing?5?8?$HL?8?$DL?5expected?5array?5init@
CONST	SEGMENT
??_C@_0CK@BCOGNCDN@Missing?5?8?$HL?8?$DL?5expected?5array?5init@ DB 'Miss'
	DB	'ing ''{''; expected array initializer.', 0aH, 00H ; `string'
; Function compile flags: /Ogtp
CONST	ENDS
;	COMDAT _read_array_initializer
_TEXT	SEGMENT
_spots$ = -84						; size = 32
_blocksize$ = -52					; size = 4
tv439 = -48						; size = 4
tv437 = -44						; size = 4
_k$91517 = -40						; size = 4
_spot$ = -40						; size = 4
_items$ = -36						; size = 32
__$ArrayPad$ = -4					; size = 4
_a$ = 8							; size = 4
_read_array_initializer PROC				; COMDAT

; 3403 : { char *spot;

	push	ebp
	mov	ebp, esp
	sub	esp, 84					; 00000054H
	mov	eax, DWORD PTR ___security_cookie
	xor	eax, ebp
	mov	DWORD PTR __$ArrayPad$[ebp], eax
	push	ebx
	push	esi
	push	edi
	mov	edi, DWORD PTR _a$[ebp]

; 3404 :     char *spots[MAXARRAYDIMS];
; 3405 :     int depth;
; 3406 :     int blocksize;
; 3407 :     int items[MAXARRAYDIMS];
; 3408 : 
; 3409 :     tok = yylex(); /* should be '{' */

	push	0
	call	_kb_yylex
	mov	ecx, eax
	add	esp, 4
	mov	DWORD PTR _tok, ecx

; 3410 :     if ( tok != '{' )

	cmp	ecx, 123				; 0000007bH
	je	SHORT $LN22@read_array

; 3411 :       kb_error(3041,"Missing '{'; expected array initializer.\n",RECOVERABLE);       

	push	1
	push	OFFSET ??_C@_0CK@BCOGNCDN@Missing?5?8?$HL?8?$DL?5expected?5array?5init@
	push	3041					; 00000be1H
	call	_kb_error
	mov	ecx, DWORD PTR _tok
	add	esp, 12					; 0000000cH
$LN22@read_array:

; 3415 :     spots[depth] = spot;
; 3416 :     blocksize = a->datacount; 

	mov	edx, DWORD PTR [edi+16]
	mov	ebx, DWORD PTR [edi+20]
	lea	eax, DWORD PTR [edi+20]
	xor	esi, esi
	mov	DWORD PTR _blocksize$[ebp], edx
	add	ebx, edi
	lea	edx, DWORD PTR [edi+24]
	mov	DWORD PTR _spots$[ebp], ebx
	mov	DWORD PTR tv437[ebp], edx
	mov	DWORD PTR tv439[ebp], eax
$LN33@read_array:

; 3412 :  
; 3413 :     depth = 0;
; 3414 :     spot = (char *)a + a->datastart;

	mov	DWORD PTR _spot$[ebp], ebx
$LL21@read_array:

; 3417 :     for (;;)
; 3418 :     { 
; 3419 :       if ( depth == a->dim )

	cmp	esi, DWORD PTR [edi+4]
	jne	SHORT $LN28@read_array

; 3420 :       { int k;
; 3421 :         for ( k = 0 ; ;  )

	mov	DWORD PTR _k$91517[ebp], 0
$LL18@read_array:

; 3422 :         { if ( read_single_value(a->datatype,spot) )

	mov	eax, DWORD PTR [edi+8]
	push	ebx
	push	eax
	call	_read_single_value
	add	esp, 8
	test	eax, eax
	je	SHORT $LN16@read_array

; 3423 :           { if ( k < a->sizes[depth-1] )

	mov	ecx, DWORD PTR tv439[ebp]
	mov	edx, DWORD PTR _k$91517[ebp]
	cmp	edx, DWORD PTR [ecx]
	jge	SHORT $LN15@read_array

; 3424 :             { spot += a->itemsize;

	add	ebx, DWORD PTR [edi+12]

; 3425 :               k++;

	inc	DWORD PTR _k$91517[ebp]
	jmp	SHORT $LL18@read_array
$LN15@read_array:

; 3426 :             }
; 3427 :             else kb_error(2132,"Too many initializers.\n",DATAFILE_ERROR);

	push	6
	push	OFFSET ??_C@_0BI@ECCJKJJA@Too?5many?5initializers?4?6?$AA@
	push	2132					; 00000854H
	call	_kb_error
	add	esp, 12					; 0000000cH

; 3428 :           }          
; 3429 :           else

	jmp	SHORT $LL18@read_array
$LN16@read_array:

; 3430 :           { tok = yylex();  /* get back token exparse pushed back */

	push	0
	call	_kb_yylex
	mov	ecx, eax
	add	esp, 4
	mov	DWORD PTR _tok, ecx

; 3431 :             if ( tok != ',' ) 

	cmp	ecx, 44					; 0000002cH

; 3432 :               break;
; 3433 :           }
; 3434 :         }

	je	SHORT $LL18@read_array

; 3424 :             { spot += a->itemsize;

	mov	DWORD PTR _spot$[ebp], ebx
$LN28@read_array:

; 3435 :       }
; 3436 :       if ( tok == '{' )  

	cmp	ecx, 123				; 0000007bH
	jne	SHORT $LN11@read_array

; 3437 :       { 
; 3438 :         if ( blocksize ) blocksize /= a->sizes[depth]; 

	mov	eax, DWORD PTR _blocksize$[ebp]
	test	eax, eax
	je	SHORT $LN10@read_array
	mov	ebx, DWORD PTR tv437[ebp]
	cdq
	idiv	DWORD PTR [ebx]
	mov	ebx, DWORD PTR _spot$[ebp]
	mov	DWORD PTR _blocksize$[ebp], eax
$LN10@read_array:

; 3439 :         spots[depth] = spot;
; 3440 :         items[depth]++;

	inc	DWORD PTR _items$[ebp+esi*4]
	mov	eax, DWORD PTR _items$[ebp+esi*4]
	mov	DWORD PTR _spots$[ebp+esi*4], ebx

; 3441 :         if ( depth > 0 && items[depth] > a->sizes[depth-1] )

	test	esi, esi
	jle	SHORT $LN32@read_array
	mov	edx, DWORD PTR tv439[ebp]
	cmp	eax, DWORD PTR [edx]
	jg	$LN29@read_array
$LN32@read_array:

; 3444 :         }
; 3445 :         depth++; 

	mov	eax, 4
	add	DWORD PTR tv439[ebp], eax
	add	DWORD PTR tv437[ebp], eax

; 3446 :         if ( depth > a->dim )

	mov	eax, DWORD PTR [edi+4]
	inc	esi
	cmp	esi, eax
	jg	$LN30@read_array

; 3448 :           return;
; 3449 :         }
; 3450 :         items[depth] = 0;

	mov	DWORD PTR _items$[ebp+esi*4], 0

; 3451 :         if ( depth != a->dim ) tok = yylex();

	je	$LL21@read_array
	push	0
	call	_kb_yylex
	mov	ecx, eax
	add	esp, 4
	mov	DWORD PTR _tok, ecx

; 3452 :       }
; 3453 :       else if ( tok == '}' )

	jmp	$LL21@read_array
$LN11@read_array:
	cmp	ecx, 125				; 0000007dH
	jne	SHORT $LN5@read_array

; 3454 :       { tok = yylex();

	push	0
	call	_kb_yylex
	mov	ecx, eax

; 3455 :         depth--;

	mov	eax, 4
	sub	DWORD PTR tv439[ebp], eax
	sub	DWORD PTR tv437[ebp], eax
	add	esp, 4
	dec	esi
	mov	DWORD PTR _tok, ecx

; 3456 :         if ( depth == 0 ) return;

	je	$LN31@read_array

; 3457 : 
; 3458 :         blocksize *= a->sizes[depth];

	mov	eax, DWORD PTR tv437[ebp]
	mov	eax, DWORD PTR [eax]
	imul	eax, DWORD PTR _blocksize$[ebp]

; 3459 :         spots[depth] += blocksize*a->itemsize;

	mov	edx, DWORD PTR [edi+12]
	imul	edx, eax
	add	DWORD PTR _spots$[ebp+esi*4], edx
	mov	ebx, DWORD PTR _spots$[ebp+esi*4]
	mov	DWORD PTR _blocksize$[ebp], eax

; 3460 :         spot = spots[depth];

	jmp	$LN33@read_array
$LN5@read_array:

; 3461 :       }
; 3462 :       else if ( tok == ',' )

	cmp	ecx, 44					; 0000002cH
	jne	SHORT $LN2@read_array

; 3463 :       { tok = yylex();

	push	0
	call	_kb_yylex
	mov	ecx, eax
	mov	DWORD PTR _tok, ecx

; 3464 :         spots[depth] += blocksize*a->itemsize;

	mov	eax, DWORD PTR [edi+12]
	imul	eax, DWORD PTR _blocksize$[ebp]
	add	esp, 4
	add	DWORD PTR _spots$[ebp+esi*4], eax

; 3465 :       }
; 3466 :       else 

	jmp	$LL21@read_array
$LN2@read_array:

; 3467 :       { sprintf(errmsg,"Illegal token \"%s\" in array initialization.\n",yytext);

	mov	ecx, DWORD PTR _yytext
	push	ecx
	push	OFFSET ??_C@_0CN@JOEKDCPM@Illegal?5token?5?$CC?$CFs?$CC?5in?5array?5init@
	push	OFFSET _errmsg
	call	_sprintf

; 3468 :         kb_error(2540,errmsg,DATAFILE_ERROR);

	push	6
	push	OFFSET _errmsg
	push	2540					; 000009ecH
	call	_kb_error

; 3469 :       }
; 3470 :     }

	mov	ecx, DWORD PTR _tok
	add	esp, 24					; 00000018H
	jmp	$LL21@read_array
$LN29@read_array:

; 3442 :         { kb_error(2539,"Too many initializers.\n",DATAFILE_ERROR);

	push	6
	push	OFFSET ??_C@_0BI@ECCJKJJA@Too?5many?5initializers?4?6?$AA@
	push	2539					; 000009ebH

; 3443 :           return;

	jmp	SHORT $LN34@read_array
$LN30@read_array:

; 3447 :         { kb_error(7398,"Array initializer has too many dimensions.\n",DATAFILE_ERROR);

	push	6
	push	OFFSET ??_C@_0CM@GBDLOEDI@Array?5initializer?5has?5too?5many?5d@
	push	7398					; 00001ce6H
$LN34@read_array:
	call	_kb_error
	add	esp, 12					; 0000000cH
$LN31@read_array:

; 3471 : } /* end read_array_initializer() */

	mov	ecx, DWORD PTR __$ArrayPad$[ebp]
	pop	edi
	pop	esi
	xor	ecx, ebp
	pop	ebx
	call	@__security_check_cookie@4
	mov	esp, ebp
	pop	ebp
	ret	0
_read_array_initializer ENDP
_TEXT	ENDS
PUBLIC	??_C@_0O@KILJOOLI@Expecting?5?$FN?4?6?$AA@	; `string'
PUBLIC	??_C@_0CF@CMPKEAMH@Array?5dimension?5cannot?5be?5negati@ ; `string'
PUBLIC	??_C@_0BI@HJEBGFAN@Need?5dimension?5number?4?6?$AA@ ; `string'
PUBLIC	??_C@_0CK@GHBCOGJI@Need?5an?5array?5data?5type?4?5?5Assumi@ ; `string'
PUBLIC	??_C@_0BL@POJMBMDB@Duplicate?5parameter?5name?4?6?$AA@ ; `string'
PUBLIC	??_C@_0CP@GENOAPJF@Array?5name?5already?5in?5use?5for?5so@ ; `string'
PUBLIC	??_C@_0DD@EFGMNCGE@Identifiers?5must?5be?5at?5least?5two@ ; `string'
PUBLIC	__$ArrayPad$
PUBLIC	_define_array
EXTRN	_KB_realloc:PROC
EXTRN	_datatype_size:BYTE
EXTRN	_add_global:PROC
EXTRN	_localbase:DWORD
EXTRN	_lookup_global:PROC
EXTRN	__ftol2_sse:PROC
;	COMDAT ??_C@_0O@KILJOOLI@Expecting?5?$FN?4?6?$AA@
CONST	SEGMENT
??_C@_0O@KILJOOLI@Expecting?5?$FN?4?6?$AA@ DB 'Expecting ].', 0aH, 00H ; `string'
CONST	ENDS
;	COMDAT ??_C@_0CF@CMPKEAMH@Array?5dimension?5cannot?5be?5negati@
CONST	SEGMENT
??_C@_0CF@CMPKEAMH@Array?5dimension?5cannot?5be?5negati@ DB 'Array dimens'
	DB	'ion cannot be negative.', 0aH, 00H		; `string'
CONST	ENDS
;	COMDAT ??_C@_0BI@HJEBGFAN@Need?5dimension?5number?4?6?$AA@
CONST	SEGMENT
??_C@_0BI@HJEBGFAN@Need?5dimension?5number?4?6?$AA@ DB 'Need dimension nu'
	DB	'mber.', 0aH, 00H				; `string'
CONST	ENDS
;	COMDAT ??_C@_0CK@GHBCOGJI@Need?5an?5array?5data?5type?4?5?5Assumi@
CONST	SEGMENT
??_C@_0CK@GHBCOGJI@Need?5an?5array?5data?5type?4?5?5Assumi@ DB 'Need an a'
	DB	'rray data type.  Assuming REAL.', 0aH, 00H	; `string'
CONST	ENDS
;	COMDAT ??_C@_0BL@POJMBMDB@Duplicate?5parameter?5name?4?6?$AA@
CONST	SEGMENT
??_C@_0BL@POJMBMDB@Duplicate?5parameter?5name?4?6?$AA@ DB 'Duplicate para'
	DB	'meter name.', 0aH, 00H			; `string'
CONST	ENDS
;	COMDAT ??_C@_0CP@GENOAPJF@Array?5name?5already?5in?5use?5for?5so@
CONST	SEGMENT
??_C@_0CP@GENOAPJF@Array?5name?5already?5in?5use?5for?5so@ DB 'Array name'
	DB	' already in use for something else.', 0aH, 00H ; `string'
CONST	ENDS
;	COMDAT ??_C@_0DD@EFGMNCGE@Identifiers?5must?5be?5at?5least?5two@
CONST	SEGMENT
??_C@_0DD@EFGMNCGE@Identifiers?5must?5be?5at?5least?5two@ DB 'Identifiers'
	DB	' must be at least two characters long.', 0aH, 00H ; `string'
; Function compile flags: /Ogtp
CONST	ENDS
;	COMDAT _define_array
_TEXT	SEGMENT
_val$91577 = -52					; size = 8
_datatype$ = -44					; size = 4
_itemsize$ = -40					; size = 4
_sizes$ = -36						; size = 32
__$ArrayPad$ = -4					; size = 4
_define_array PROC					; COMDAT

; 3484 : { int n;

	push	ebp
	mov	ebp, esp
	sub	esp, 52					; 00000034H
	mov	eax, DWORD PTR ___security_cookie
	xor	eax, ebp
	mov	DWORD PTR __$ArrayPad$[ebp], eax

; 3485 :   struct global *g;
; 3486 :   struct array *a;
; 3487 :   int dim;
; 3488 :   int size;
; 3489 :   int sizes[MAXARRAYDIMS];
; 3490 :   int itemsize=0;
; 3491 :   int datatype=0;
; 3492 :   size_t rem;
; 3493 : 
; 3494 :   if ( strlen(yytext) < 2 )

	mov	eax, DWORD PTR _yytext
	lea	edx, DWORD PTR [eax+1]
$LL45@define_arr:
	mov	cl, BYTE PTR [eax]
	inc	eax
	test	cl, cl
	jne	SHORT $LL45@define_arr
	sub	eax, edx
	cmp	eax, 2
	jae	SHORT $LN46@define_arr

; 3495 :     kb_error(1867,"Identifiers must be at least two characters long.\n",
; 3496 :             DATAFILE_ERROR);

	push	6
	push	OFFSET ??_C@_0DD@EFGMNCGE@Identifiers?5must?5be?5at?5least?5two@
	push	1867					; 0000074bH
	call	_kb_error
	add	esp, 12					; 0000000cH
$LN46@define_arr:

; 3497 :   n = lookup_global(yytext);

	mov	eax, DWORD PTR _yytext
	push	esi
	push	edi
	push	eax
	call	_lookup_global
	add	esp, 4

; 3498 :   if ( n >= 0 )

	test	eax, eax
	js	$LN23@define_arr

; 3499 :   { 
; 3500 :     g = globals(n);

	mov	ecx, eax
	and	ecx, -16777216				; ff000000H
	cmp	ecx, 268435456				; 10000000H
	je	SHORT $LN27@define_arr
	cmp	ecx, 805306368				; 30000000H
	jne	SHORT $LN29@define_arr
	mov	ecx, DWORD PTR _localbase
	and	eax, 16777215				; 00ffffffH
	imul	eax, 224				; 000000e0H
	add	eax, DWORD PTR [ecx]
	mov	esi, eax
	jmp	SHORT $LN28@define_arr
$LN29@define_arr:
	cmp	ecx, 536870912				; 20000000H
	jne	SHORT $LN27@define_arr
	mov	edx, DWORD PTR _web+5656
	and	eax, 16777215				; 00ffffffH
	mov	esi, DWORD PTR [edx+eax*4]
	jmp	SHORT $LN28@define_arr
$LN27@define_arr:
	mov	ecx, DWORD PTR _web+5652
	and	eax, 16777215				; 00ffffffH
	lea	edx, DWORD PTR [ecx+eax*4]
	mov	eax, DWORD PTR _dymem
	mov	esi, DWORD PTR [edx+eax]
$LN28@define_arr:

; 3501 :     if ( !(g->flags & ARRAY_PARAM) )

	test	DWORD PTR [esi+192], 2048		; 00000800H
	jne	$LN21@define_arr

; 3502 :       kb_error(3213,"Array name already in use for something else.\n",
; 3503 :         DATAFILE_ERROR);

	push	6
	push	OFFSET ??_C@_0CP@GENOAPJF@Array?5name?5already?5in?5use?5for?5so@
	push	3213					; 00000c8dH
	call	_kb_error
	add	esp, 12					; 0000000cH

; 3504 :   }
; 3505 :   else

	jmp	$LN21@define_arr
$LN23@define_arr:

; 3506 :   { n = add_global(yytext);

	mov	ecx, DWORD PTR _yytext
	push	ecx
	call	_add_global
	mov	esi, eax
	add	esp, 4

; 3507 :     if ( n < 0 )

	test	esi, esi
	jns	SHORT $LN20@define_arr

; 3508 :       kb_error(1673,"Duplicate parameter name.\n",DATAFILE_ERROR);

	push	6
	push	OFFSET ??_C@_0BL@POJMBMDB@Duplicate?5parameter?5name?4?6?$AA@
	push	1673					; 00000689H
	call	_kb_error
	add	esp, 12					; 0000000cH
$LN20@define_arr:

; 3509 :     g = globals(n);

	mov	eax, esi
	and	eax, -16777216				; ff000000H
	and	esi, 16777215				; 00ffffffH
	cmp	eax, 268435456				; 10000000H
	jne	SHORT $LN37@define_arr
	mov	edx, DWORD PTR _web+5652
	mov	ecx, DWORD PTR _dymem
	lea	eax, DWORD PTR [edx+esi*4]
	mov	esi, DWORD PTR [eax+ecx]
	jmp	SHORT $LN34@define_arr
$LN37@define_arr:
	cmp	eax, 805306368				; 30000000H
	jne	SHORT $LN35@define_arr
	mov	edx, DWORD PTR _localbase
	imul	esi, 224				; 000000e0H
	add	esi, DWORD PTR [edx]
	jmp	SHORT $LN34@define_arr
$LN35@define_arr:
	cmp	eax, 536870912				; 20000000H
	jne	SHORT $LN33@define_arr
	mov	eax, DWORD PTR _web+5656
	mov	esi, DWORD PTR [eax+esi*4]
	jmp	SHORT $LN34@define_arr
$LN33@define_arr:
	mov	ecx, DWORD PTR _web+5652
	mov	eax, DWORD PTR _dymem
	lea	edx, DWORD PTR [ecx+esi*4]
	mov	esi, DWORD PTR [edx+eax]
$LN34@define_arr:

; 3510 :     g->flags |= ARRAY_PARAM;

	or	DWORD PTR [esi+192], 2048		; 00000800H
$LN21@define_arr:
	push	ebx

; 3511 :   }
; 3512 : 
; 3513 :   tok = yylex(); /* dispose of IDENT_ */

	push	0
	call	_kb_yylex
	add	esp, 4
	mov	DWORD PTR _tok, eax

; 3514 :   if ( tok == DATATYPE_TOK )

	mov	edi, 1
	cmp	eax, 358				; 00000166H
	jne	SHORT $LN19@define_arr

; 3515 :   { datatype = yylval.datatype;

	mov	ebx, DWORD PTR _yylval+28

; 3516 :     itemsize = datatype_size[datatype];

	mov	ecx, DWORD PTR _datatype_size[ebx*4]
	mov	DWORD PTR _datatype$[ebp], ebx
	mov	DWORD PTR _itemsize$[ebp], ecx
	jmp	SHORT $LN16@define_arr
$LN19@define_arr:

; 3517 :   }
; 3518 :   else if ( tok == STRING_TOK ) // since "string" also used for model type

	cmp	eax, 457				; 000001c9H
	jne	SHORT $LN17@define_arr

; 3519 :   { datatype = STRING_TYPE;
; 3520 :     itemsize = datatype_size[datatype];

	mov	edx, DWORD PTR _datatype_size+44
	mov	ebx, 11					; 0000000bH
	mov	DWORD PTR _datatype$[ebp], ebx
	mov	DWORD PTR _itemsize$[ebp], edx

; 3521 :   }
; 3522 :   else

	jmp	SHORT $LN16@define_arr
$LN17@define_arr:

; 3523 :   { kb_error(2130,"Need an array data type.  Assuming REAL.\n",WARNING);

	push	2
	push	OFFSET ??_C@_0CK@GHBCOGJI@Need?5an?5array?5data?5type?4?5?5Assumi@
	push	2130					; 00000852H
	call	_kb_error

; 3524 :     datatype = REAL_TYPE;
; 3525 :     itemsize = datatype_size[datatype];

	mov	eax, DWORD PTR _datatype_size+4
	add	esp, 12					; 0000000cH
	mov	ebx, edi
	mov	DWORD PTR _datatype$[ebp], edi
	mov	DWORD PTR _itemsize$[ebp], eax
$LN16@define_arr:

; 3526 :   }
; 3527 :   g->type = datatype;
; 3528 : 
; 3529 :   tok = yylex(); /* dispose of type */

	push	0
	mov	DWORD PTR [esi+200], ebx
	call	_kb_yylex

; 3530 : 
; 3531 :   g->attr.arrayptr = (struct array*)mycalloc(1,sizeof(struct array));

	push	3531					; 00000dcbH
	push	OFFSET ??_C@_0L@INLEEIPK@LEXINIT2?4C?$AA@
	push	56					; 00000038H
	push	edi
	mov	DWORD PTR _tok, eax
	call	_kb_calloc
	mov	DWORD PTR [esi+168], eax
	add	esp, 20					; 00000014H

; 3532 :   g->attr.arrayptr->dim = 0;

	mov	DWORD PTR [eax+4], 0

; 3533 :   while ( tok == '[' )

	cmp	DWORD PTR _tok, 91			; 0000005bH
	jne	$LN14@define_arr
	npad	7
$LL15@define_arr:

; 3534 :   {  REAL val;
; 3535 :      if ( read_const(&val) < 0 )

	lea	ecx, DWORD PTR _val$91577[ebp]
	push	ecx
	call	_read_const
	add	esp, 4
	test	eax, eax
	jns	SHORT $LN13@define_arr

; 3536 :        kb_error(1057,"Need dimension number.\n",DATAFILE_ERROR);

	push	6
	push	OFFSET ??_C@_0BI@HJEBGFAN@Need?5dimension?5number?4?6?$AA@
	push	1057					; 00000421H
	call	_kb_error
	add	esp, 12					; 0000000cH
$LN13@define_arr:

; 3537 :      sizes[g->attr.arrayptr->dim] = (int)val;

	fld	QWORD PTR _val$91577[ebp]
	call	__ftol2_sse
	mov	edx, DWORD PTR [esi+168]
	mov	ecx, DWORD PTR [edx+4]
	mov	DWORD PTR _sizes$[ebp+ecx*4], eax

; 3538 :      if ( sizes[g->attr.arrayptr->dim] < 0 )

	test	eax, eax
	jns	SHORT $LN12@define_arr

; 3539 :        kb_error(1059,"Array dimension cannot be negative.\n",DATAFILE_ERROR);

	push	6
	push	OFFSET ??_C@_0CF@CMPKEAMH@Array?5dimension?5cannot?5be?5negati@
	push	1059					; 00000423H
	call	_kb_error
	add	esp, 12					; 0000000cH
$LN12@define_arr:

; 3540 :      tok = yylex(); /* get ] */

	push	0
	call	_kb_yylex
	add	esp, 4
	mov	DWORD PTR _tok, eax

; 3541 :      if ( tok != ']' ) 

	cmp	eax, 93					; 0000005dH
	je	SHORT $LN11@define_arr

; 3542 :         kb_error(2131,"Expecting ].\n",DATAFILE_ERROR);

	push	6
	push	OFFSET ??_C@_0O@KILJOOLI@Expecting?5?$FN?4?6?$AA@
	push	2131					; 00000853H
	call	_kb_error
	add	esp, 12					; 0000000cH
$LN11@define_arr:

; 3543 :      tok = yylex(); /* eat ] */

	push	0
	call	_kb_yylex
	mov	DWORD PTR _tok, eax

; 3544 :      g->attr.arrayptr->dim++;

	mov	eax, DWORD PTR [esi+168]
	add	DWORD PTR [eax+4], edi
	add	esp, 4
	cmp	DWORD PTR _tok, 91			; 0000005bH
	je	$LL15@define_arr
$LN14@define_arr:

; 3545 :   }
; 3546 :   if ( g->attr.arrayptr->dim == 0 ) sizes[g->attr.arrayptr->dim++] = 1;

	mov	eax, DWORD PTR [esi+168]
	cmp	DWORD PTR [eax+4], 0
	jne	SHORT $LN10@define_arr
	mov	ecx, DWORD PTR [eax+4]
	mov	DWORD PTR _sizes$[ebp+ecx*4], edi
	inc	ecx
	mov	DWORD PTR [eax+4], ecx
$LN10@define_arr:

; 3547 : 
; 3548 :   for ( size = 1, dim=0 ; dim < g->attr.arrayptr->dim ; dim++ )

	mov	ecx, DWORD PTR [esi+168]
	xor	eax, eax
	cmp	DWORD PTR [ecx+4], eax
	jle	SHORT $LN7@define_arr
	mov	edx, DWORD PTR [ecx+4]
$LL9@define_arr:

; 3549 :   { size *= sizes[dim];  }

	imul	edi, DWORD PTR _sizes$[ebp+eax*4]
	inc	eax
	cmp	eax, edx
	jl	SHORT $LL9@define_arr

; 3547 : 
; 3548 :   for ( size = 1, dim=0 ; dim < g->attr.arrayptr->dim ; dim++ )

	mov	ebx, DWORD PTR _datatype$[ebp]
$LN7@define_arr:

; 3550 :   a = g->attr.arrayptr = (struct array*)kb_realloc((char*)(g->attr.arrayptr),
; 3551 :        sizeof(struct array)+dim*sizeof(int)
; 3552 :                   + (size+1)*itemsize);  /* extra for alignment */

	lea	edx, DWORD PTR [edi+1]
	imul	edx, DWORD PTR _itemsize$[ebp]
	push	3552					; 00000de0H
	push	OFFSET ??_C@_0L@INLEEIPK@LEXINIT2?4C?$AA@
	lea	eax, DWORD PTR [edx+eax*4+56]
	push	eax
	push	ecx
	call	_KB_realloc
	mov	ecx, eax

; 3553 :   a->dim = g->attr.arrayptr->dim;
; 3554 :   a->itemsize = itemsize;

	mov	eax, DWORD PTR _itemsize$[ebp]
	mov	DWORD PTR [esi+168], ecx
	mov	edx, DWORD PTR [ecx+4]
	mov	DWORD PTR [ecx+12], eax

; 3555 :   a->datatype = datatype;

	mov	DWORD PTR [ecx+8], ebx
	mov	DWORD PTR [ecx+4], edx

; 3556 :   a->datacount = size;

	mov	DWORD PTR [ecx+16], edi

; 3557 :   for ( dim=0 ; dim < g->attr.arrayptr->dim ; dim++ )

	mov	edx, DWORD PTR [esi+168]
	add	esp, 16					; 00000010H
	xor	eax, eax
	pop	ebx
	cmp	DWORD PTR [edx+4], eax
	jle	SHORT $LN4@define_arr

; 3550 :   a = g->attr.arrayptr = (struct array*)kb_realloc((char*)(g->attr.arrayptr),
; 3551 :        sizeof(struct array)+dim*sizeof(int)
; 3552 :                   + (size+1)*itemsize);  /* extra for alignment */

	lea	edx, DWORD PTR [ecx+24]
	npad	4
$LL6@define_arr:

; 3558 :      a->sizes[dim] = sizes[dim];

	mov	edi, DWORD PTR _sizes$[ebp+eax*4]
	mov	DWORD PTR [edx], edi
	mov	edi, DWORD PTR [esi+168]
	inc	eax
	add	edx, 4
	cmp	eax, DWORD PTR [edi+4]
	jl	SHORT $LL6@define_arr
$LN4@define_arr:

; 3559 :   a->datastart = sizeof(struct array) + a->dim*sizeof(int);

	mov	edi, DWORD PTR [ecx+4]

; 3560 : 
; 3561 :   /* align datastart to size of item */
; 3562 :   rem = a->datastart % a->itemsize;

	mov	esi, DWORD PTR [ecx+12]
	lea	edi, DWORD PTR [edi*4+56]
	xor	edx, edx
	mov	eax, edi
	div	esi
	mov	DWORD PTR [ecx+20], edi

; 3563 :   if ( rem )

	test	edx, edx
	je	SHORT $LN3@define_arr

; 3564 :      a->datastart += a->itemsize - rem;

	sub	esi, edx
	add	esi, edi
	mov	DWORD PTR [ecx+20], esi
$LN3@define_arr:

; 3565 : 
; 3566 :   /* Initialization */
; 3567 :   if ( (tok == '=') || (tok == ASSIGN_TOK) ) /* have initial values */

	mov	eax, DWORD PTR _tok
	pop	edi
	pop	esi
	cmp	eax, 61					; 0000003dH
	je	SHORT $LN1@define_arr
	cmp	eax, 441				; 000001b9H
	jne	SHORT $LN2@define_arr
$LN1@define_arr:

; 3568 :     read_array_initializer(a);

	push	ecx
	call	_read_array_initializer
	add	esp, 4
$LN2@define_arr:

; 3569 : 
; 3570 : } // end define_array()

	mov	ecx, DWORD PTR __$ArrayPad$[ebp]
	xor	ecx, ebp
	call	@__security_check_cookie@4
	mov	esp, ebp
	pop	ebp
	ret	0
_define_array ENDP
_TEXT	ENDS
PUBLIC	??_C@_0DH@OEOOCKHD@Forward?5declared?5method_instance@ ; `string'
PUBLIC	??_C@_0DA@FOADLABG@Forward?5declared?5quantity?5?$CFs?5not@ ; `string'
PUBLIC	??_C@_0DA@CCCOOFPN@Forward?5declared?5boundary?5?$CFs?5not@ ; `string'
PUBLIC	??_C@_0DC@FMEDFLBG@Forward?5declared?5constraint?5?$CFs?5n@ ; `string'
PUBLIC	_check_forwards
;	COMDAT ??_C@_0DH@OEOOCKHD@Forward?5declared?5method_instance@
CONST	SEGMENT
??_C@_0DH@OEOOCKHD@Forward?5declared?5method_instance@ DB 'Forward declar'
	DB	'ed method_instance %s not instantiated.', 0aH, 00H ; `string'
CONST	ENDS
;	COMDAT ??_C@_0DA@FOADLABG@Forward?5declared?5quantity?5?$CFs?5not@
CONST	SEGMENT
??_C@_0DA@FOADLABG@Forward?5declared?5quantity?5?$CFs?5not@ DB 'Forward d'
	DB	'eclared quantity %s not instantiated.', 0aH, 00H ; `string'
CONST	ENDS
;	COMDAT ??_C@_0DA@CCCOOFPN@Forward?5declared?5boundary?5?$CFs?5not@
CONST	SEGMENT
??_C@_0DA@CCCOOFPN@Forward?5declared?5boundary?5?$CFs?5not@ DB 'Forward d'
	DB	'eclared boundary %s not instantiated.', 0aH, 00H ; `string'
CONST	ENDS
;	COMDAT ??_C@_0DC@FMEDFLBG@Forward?5declared?5constraint?5?$CFs?5n@
CONST	SEGMENT
??_C@_0DC@FMEDFLBG@Forward?5declared?5constraint?5?$CFs?5n@ DB 'Forward d'
	DB	'eclared constraint %s not instantiated.', 0aH, 00H ; `string'
; Function compile flags: /Ogtp
CONST	ENDS
;	COMDAT _check_forwards
_TEXT	SEGMENT
_check_forwards PROC					; COMDAT

; 3581 : { int i;

	push	ebx
	push	esi

; 3582 : 
; 3583 :   /* constraints */
; 3584 :   for ( i = 0 ; i < web.maxcon ; i++ )

	xor	esi, esi
	push	edi
	cmp	DWORD PTR _web+644, esi
	jle	SHORT $LN14@check_forw
	npad	3
$LL16@check_forw:

; 3585 :   { struct constraint *con = get_constraint(i);

	mov	eax, esi
	and	eax, 1073741823				; 3fffffffH
	imul	eax, 176				; 000000b0H
	add	eax, DWORD PTR _web+652

; 3586 :     if ( con->attr & CON_FORWARD_DEF )

	xor	edx, edx
	mov	ecx, DWORD PTR [eax+32]
	and	ecx, 4096				; 00001000H
	or	ecx, edx
	je	SHORT $LN15@check_forw

; 3587 :     { sprintf(errmsg,"Forward declared constraint %s not instantiated.\n",
; 3588 :              con->name);

	push	eax
	push	OFFSET ??_C@_0DC@FMEDFLBG@Forward?5declared?5constraint?5?$CFs?5n@
	push	OFFSET _errmsg
	call	_sprintf

; 3589 :       kb_error(5911,errmsg,RECOVERABLE);

	push	1
	push	OFFSET _errmsg
	push	5911					; 00001717H
	call	_kb_error
	add	esp, 24					; 00000018H
$LN15@check_forw:

; 3582 : 
; 3583 :   /* constraints */
; 3584 :   for ( i = 0 ; i < web.maxcon ; i++ )

	inc	esi
	cmp	esi, DWORD PTR _web+644
	jl	SHORT $LL16@check_forw
$LN14@check_forw:

; 3590 :     }
; 3591 :   }
; 3592 : 
; 3593 :   /* boundaries */
; 3594 :   for ( i = 0 ; i < web.bdrymax ; i++ )

	xor	edi, edi
	cmp	DWORD PTR _web+768, edi
	jle	SHORT $LN10@check_forw
	xor	esi, esi
	npad	5
$LL12@check_forw:

; 3595 :   { struct boundary *bdry = web.boundaries + i;

	mov	eax, DWORD PTR _web+776
	lea	ecx, DWORD PTR [esi+eax]

; 3596 :     if ( bdry->attr & BDRY_FORWARD_DEF )

	mov	eax, DWORD PTR [ecx+32]
	and	eax, 4096				; 00001000H
	xor	edx, edx
	or	eax, edx
	je	SHORT $LN11@check_forw

; 3597 :     { sprintf(errmsg,"Forward declared boundary %s not instantiated.\n",
; 3598 :              bdry->name);

	push	ecx
	push	OFFSET ??_C@_0DA@CCCOOFPN@Forward?5declared?5boundary?5?$CFs?5not@
	push	OFFSET _errmsg
	call	_sprintf

; 3599 :       kb_error(3227,errmsg,RECOVERABLE);

	push	1
	push	OFFSET _errmsg
	push	3227					; 00000c9bH
	call	_kb_error
	add	esp, 24					; 00000018H
$LN11@check_forw:

; 3590 :     }
; 3591 :   }
; 3592 : 
; 3593 :   /* boundaries */
; 3594 :   for ( i = 0 ; i < web.bdrymax ; i++ )

	inc	edi
	add	esi, 136				; 00000088H
	cmp	edi, DWORD PTR _web+768
	jl	SHORT $LL12@check_forw
$LN10@check_forw:

; 3600 :     }
; 3601 :   }
; 3602 : 
; 3603 :   /* quantities */
; 3604 :   for ( i = 0 ; i < gen_quant_count ; i++ )

	xor	edi, edi
	mov	ebx, 1048576				; 00100000H
	cmp	DWORD PTR _web+5528, edi
	jle	SHORT $LN6@check_forw
	xor	esi, esi
	npad	6
$LL8@check_forw:

; 3605 :   { if ( GEN_QUANT(i)->flags & Q_FORWARD_DEF )

	mov	ecx, DWORD PTR _gen_quant_list
	test	DWORD PTR [esi+ecx+136], ebx
	lea	eax, DWORD PTR [esi+ecx]
	je	SHORT $LN7@check_forw

; 3606 :     { sprintf(errmsg,"Forward declared quantity %s not instantiated.\n",
; 3607 :              GEN_QUANT(i)->name);

	push	eax
	push	OFFSET ??_C@_0DA@FOADLABG@Forward?5declared?5quantity?5?$CFs?5not@
	push	OFFSET _errmsg
	call	_sprintf

; 3608 :       kb_error(3225,errmsg,RECOVERABLE);

	push	1
	push	OFFSET _errmsg
	push	3225					; 00000c99H
	call	_kb_error
	add	esp, 24					; 00000018H
$LN7@check_forw:

; 3600 :     }
; 3601 :   }
; 3602 : 
; 3603 :   /* quantities */
; 3604 :   for ( i = 0 ; i < gen_quant_count ; i++ )

	inc	edi
	add	esi, 368				; 00000170H
	cmp	edi, DWORD PTR _web+5528
	jl	SHORT $LL8@check_forw
$LN6@check_forw:

; 3609 :     }
; 3610 :   }
; 3611 : 
; 3612 :   /* method instances */
; 3613 :   for ( i = 1 ; i < meth_inst_count ; i++ )

	mov	esi, 1
	cmp	DWORD PTR _web+5560, esi
	jle	SHORT $LN2@check_forw
$LL4@check_forw:

; 3614 :   { if ( METH_INSTANCE(i)->flags & Q_FORWARD_DEF )

	mov	eax, esi
	cdq
	xor	eax, edx
	sub	eax, edx
	imul	eax, 2928				; 00000b70H
	add	eax, DWORD PTR _meth_inst_list
	test	DWORD PTR [eax+140], ebx
	je	SHORT $LN3@check_forw

; 3615 :     { sprintf(errmsg,"Forward declared method_instance %s not instantiated.\n",
; 3616 :              METH_INSTANCE(i)->name);

	push	eax
	push	OFFSET ??_C@_0DH@OEOOCKHD@Forward?5declared?5method_instance@
	push	OFFSET _errmsg
	call	_sprintf

; 3617 :       kb_error(3226,errmsg,RECOVERABLE);

	push	1
	push	OFFSET _errmsg
	push	3226					; 00000c9aH
	call	_kb_error
	add	esp, 24					; 00000018H
$LN3@check_forw:

; 3609 :     }
; 3610 :   }
; 3611 : 
; 3612 :   /* method instances */
; 3613 :   for ( i = 1 ; i < meth_inst_count ; i++ )

	inc	esi
	cmp	esi, DWORD PTR _web+5560
	jl	SHORT $LL4@check_forw
$LN2@check_forw:
	pop	edi
	pop	esi
	pop	ebx

; 3618 :     }
; 3619 :   }
; 3620 : 
; 3621 : } // end check_forwards()

	ret	0
_check_forwards ENDP
_TEXT	ENDS
PUBLIC	??_C@_0CG@JGGPBFBL@Need?5constant?5expression?5for?5pde@ ; `string'
PUBLIC	??_C@_0CF@DEFKBMIO@Need?5constant?5expression?5for?5sca@ ; `string'
PUBLIC	??_C@_0DC@KABODIMK@on_assign_call?5must?5be?5followed?5@ ; `string'
PUBLIC	??_C@_0DB@LABGMEKM@on_assign_call?5procedure?5cannot?5@ ; `string'
PUBLIC	??_C@_0CN@PPDAGEAP@Need?5constant?5expression?5for?5ini@ ; `string'
PUBLIC	??_C@_05NCGEDJPM@delta?$AA@			; `string'
PUBLIC	??_C@_0CO@HCJKBOJB@Missing?5?8?$DN?8?5after?5parameter?5name@ ; `string'
PUBLIC	??_C@_0BO@BJMAIJJB@Parameter?5file?5name?5missing?4?6?$AA@ ; `string'
PUBLIC	??_C@_0CM@OGGEJBHM@Too?5high?5element?5number?5in?5param@ ; `string'
PUBLIC	??_C@_06EIDEPFJL@?$CFd?5?$CFlf?$AA@		; `string'
PUBLIC	??_C@_0CA@NCLIFCDD@Cannot?5open?5parameter?5file?5?$CFs?4?6?$AA@ ; `string'
PUBLIC	??_C@_0FJ@OPIDFOC@Too?5many?5optimizing?5parameters?4?5@ ; `string'
PUBLIC	__real@3f1a36e2eb1c432d
PUBLIC	??_C@_0BM@ECCMBLAI@Need?5PARAMETER?5identifier?4?6?$AA@ ; `string'
PUBLIC	??_C@_0CC@DOBFLHCD@Redefinition?5of?5identifier?5?8?$CFs?8?4@ ; `string'
PUBLIC	_read_parameter
EXTRN	_recovery_flag:DWORD
EXTRN	_kb_stricmp:PROC
EXTRN	_verb_flag:DWORD
EXTRN	_msgmax:DWORD
EXTRN	_optparam:BYTE
EXTRN	_optparamcount:DWORD
EXTRN	_addload_flag:DWORD
;	COMDAT ??_C@_0CG@JGGPBFBL@Need?5constant?5expression?5for?5pde@
CONST	SEGMENT
??_C@_0CG@JGGPBFBL@Need?5constant?5expression?5for?5pde@ DB 'Need constan'
	DB	't expression for pdelta.', 0aH, 00H		; `string'
CONST	ENDS
;	COMDAT ??_C@_0CF@DEFKBMIO@Need?5constant?5expression?5for?5sca@
CONST	SEGMENT
??_C@_0CF@DEFKBMIO@Need?5constant?5expression?5for?5sca@ DB 'Need constan'
	DB	't expression for scale.', 0aH, 00H		; `string'
CONST	ENDS
;	COMDAT ??_C@_0DC@KABODIMK@on_assign_call?5must?5be?5followed?5@
CONST	SEGMENT
??_C@_0DC@KABODIMK@on_assign_call?5must?5be?5followed?5@ DB 'on_assign_ca'
	DB	'll must be followed by command name.', 0aH, 00H ; `string'
CONST	ENDS
;	COMDAT ??_C@_0DB@LABGMEKM@on_assign_call?5procedure?5cannot?5@
CONST	SEGMENT
??_C@_0DB@LABGMEKM@on_assign_call?5procedure?5cannot?5@ DB 'on_assign_cal'
	DB	'l procedure cannot have arguments.', 0aH, 00H ; `string'
CONST	ENDS
;	COMDAT ??_C@_0CN@PPDAGEAP@Need?5constant?5expression?5for?5ini@
CONST	SEGMENT
??_C@_0CN@PPDAGEAP@Need?5constant?5expression?5for?5ini@ DB 'Need constan'
	DB	't expression for initial value.', 0aH, 00H	; `string'
CONST	ENDS
;	COMDAT ??_C@_05NCGEDJPM@delta?$AA@
CONST	SEGMENT
??_C@_05NCGEDJPM@delta?$AA@ DB 'delta', 00H		; `string'
CONST	ENDS
;	COMDAT ??_C@_0CO@HCJKBOJB@Missing?5?8?$DN?8?5after?5parameter?5name@
CONST	SEGMENT
??_C@_0CO@HCJKBOJB@Missing?5?8?$DN?8?5after?5parameter?5name@ DB 'Missing'
	DB	' ''='' after parameter name on line %d.', 0aH, 00H ; `string'
CONST	ENDS
;	COMDAT ??_C@_0BO@BJMAIJJB@Parameter?5file?5name?5missing?4?6?$AA@
CONST	SEGMENT
??_C@_0BO@BJMAIJJB@Parameter?5file?5name?5missing?4?6?$AA@ DB 'Parameter '
	DB	'file name missing.', 0aH, 00H		; `string'
CONST	ENDS
;	COMDAT ??_C@_0CM@OGGEJBHM@Too?5high?5element?5number?5in?5param@
CONST	SEGMENT
??_C@_0CM@OGGEJBHM@Too?5high?5element?5number?5in?5param@ DB 'Too high el'
	DB	'ement number in parameter file.', 0aH, 00H	; `string'
CONST	ENDS
;	COMDAT ??_C@_06EIDEPFJL@?$CFd?5?$CFlf?$AA@
CONST	SEGMENT
??_C@_06EIDEPFJL@?$CFd?5?$CFlf?$AA@ DB '%d %lf', 00H	; `string'
CONST	ENDS
;	COMDAT ??_C@_0CA@NCLIFCDD@Cannot?5open?5parameter?5file?5?$CFs?4?6?$AA@
CONST	SEGMENT
??_C@_0CA@NCLIFCDD@Cannot?5open?5parameter?5file?5?$CFs?4?6?$AA@ DB 'Cann'
	DB	'ot open parameter file %s.', 0aH, 00H	; `string'
CONST	ENDS
;	COMDAT ??_C@_0FJ@OPIDFOC@Too?5many?5optimizing?5parameters?4?5@
CONST	SEGMENT
??_C@_0FJ@OPIDFOC@Too?5many?5optimizing?5parameters?4?5@ DB 'Too many opt'
	DB	'imizing parameters. Change MAXOPTPARAM in extern.h if you rea'
	DB	'lly need more.', 0aH, 00H			; `string'
CONST	ENDS
;	COMDAT __real@3f1a36e2eb1c432d
CONST	SEGMENT
__real@3f1a36e2eb1c432d DQ 03f1a36e2eb1c432dr	; 0.0001
CONST	ENDS
;	COMDAT ??_C@_0BM@ECCMBLAI@Need?5PARAMETER?5identifier?4?6?$AA@
CONST	SEGMENT
??_C@_0BM@ECCMBLAI@Need?5PARAMETER?5identifier?4?6?$AA@ DB 'Need PARAMETE'
	DB	'R identifier.', 0aH, 00H			; `string'
CONST	ENDS
;	COMDAT ??_C@_0CC@DOBFLHCD@Redefinition?5of?5identifier?5?8?$CFs?8?4@
CONST	SEGMENT
??_C@_0CC@DOBFLHCD@Redefinition?5of?5identifier?5?8?$CFs?8?4@ DB 'Redefin'
	DB	'ition of identifier ''%s''.', 0aH, 00H	; `string'
; Function compile flags: /Ogtp
CONST	ENDS
;	COMDAT _read_parameter
_TEXT	SEGMENT
_val$89446 = -12					; size = 8
_k$89445 = -4						; size = 4
_oldtok$ = -4						; size = 4
_read_parameter PROC					; COMDAT

; 129  : {

	push	ebp
	mov	ebp, esp
	sub	esp, 12					; 0000000cH

; 130  :   int n=0;
; 131  :   struct global *p;
; 132  :   int oldtok = tok; /* whether optimizing */

	mov	eax, DWORD PTR _tok
	push	esi
	push	edi
	xor	esi, esi

; 133  : 
; 134  :   tok = yylex(); /* dispose of PARAMETER */

	push	esi
	mov	DWORD PTR _oldtok$[ebp], eax
	call	_kb_yylex
	add	esp, 4
	mov	DWORD PTR _tok, eax

; 135  :   if ( tok == IDENT_TOK )

	cmp	eax, 286				; 0000011eH
	jne	$LN48@read_param

; 136  :   { p = globals(yylval.i);

	mov	eax, DWORD PTR _yylval
	mov	ecx, eax
	and	ecx, -16777216				; ff000000H
	cmp	ecx, 268435456				; 10000000H
	je	SHORT $LN51@read_param
	cmp	ecx, 805306368				; 30000000H
	jne	SHORT $LN53@read_param
	mov	ecx, DWORD PTR _localbase
	and	eax, 16777215				; 00ffffffH
	imul	eax, 224				; 000000e0H
	add	eax, DWORD PTR [ecx]
	mov	edi, eax
	jmp	SHORT $LN52@read_param
$LN53@read_param:
	cmp	ecx, 536870912				; 20000000H
	jne	SHORT $LN51@read_param
	mov	edx, DWORD PTR _web+5656
	and	eax, 16777215				; 00ffffffH
	mov	edi, DWORD PTR [edx+eax*4]
	jmp	SHORT $LN52@read_param
$LN51@read_param:
	mov	ecx, DWORD PTR _web+5652
	and	eax, 16777215				; 00ffffffH
	lea	edx, DWORD PTR [ecx+eax*4]
	mov	eax, DWORD PTR _dymem
	mov	edi, DWORD PTR [edx+eax]
$LN52@read_param:

; 137  :     if ( !(p->flags & LEFTOVER) && !addload_flag ) 

	test	DWORD PTR [edi+192], 16384		; 00004000H
	jne	SHORT $LN47@read_param
	cmp	DWORD PTR _addload_flag, esi
	jne	SHORT $LN47@read_param

; 138  :     { sprintf(errmsg,"Redefinition of identifier '%s'.\n",yytext);

	mov	ecx, DWORD PTR _yytext
	push	ecx
	push	OFFSET ??_C@_0CC@DOBFLHCD@Redefinition?5of?5identifier?5?8?$CFs?8?4@
	push	OFFSET _errmsg
	call	_sprintf

; 139  :       kb_error(1671,errmsg,DATAFILE_ERROR);

	push	6
	push	OFFSET _errmsg
	push	1671					; 00000687H
	call	_kb_error
	add	esp, 24					; 00000018H
$LN47@read_param:

; 140  :     }
; 141  :     p->flags &= ~LEFTOVER;

	and	DWORD PTR [edi+192], -16385		; ffffbfffH

; 142  :   }
; 143  :   else 

	jmp	$LN58@read_param
$LN48@read_param:

; 144  :   { if ( tok != NEWIDENT_TOK )

	cmp	eax, 268				; 0000010cH
	je	SHORT $LN45@read_param

; 145  :      { kb_error(1672,"Need PARAMETER identifier.\n",WARNING);

	push	2
	push	OFFSET ??_C@_0BM@ECCMBLAI@Need?5PARAMETER?5identifier?4?6?$AA@
	push	1672					; 00000688H
	call	_kb_error
	add	esp, 12					; 0000000cH
	pop	edi
	pop	esi

; 276  : } // end read_parameter()

	mov	esp, ebp
	pop	ebp
	ret	0
$LN45@read_param:

; 146  :         return;
; 147  :      }
; 148  :      if ( strlen(yytext) < 2 )

	mov	eax, DWORD PTR _yytext
	lea	edx, DWORD PTR [eax+1]
$LL79@read_param:
	mov	cl, BYTE PTR [eax]
	inc	eax
	test	cl, cl
	jne	SHORT $LL79@read_param
	sub	eax, edx
	cmp	eax, 2
	jae	SHORT $LN44@read_param

