; Listing generated by Microsoft (R) Optimizing Compiler Version 16.00.40219.01 

	TITLE	C:\levolver\yonkang-sefit\levolver\ev_ogl\LEXINIT.C
	.686P
	.XMM
	include listing.inc
	.model	flat

INCLUDELIB LIBCMT
INCLUDELIB OLDNAMES

PUBLIC	_vlist
PUBLIC	_elist
PUBLIC	_flist
PUBLIC	_blist
_DATA	SEGMENT
COMM	_facecount:DWORD
COMM	_vmaxlist:DWORD
COMM	_emaxlist:DWORD
COMM	_fmaxlist:DWORD
COMM	_bmaxlist:DWORD
_DATA	ENDS
_BSS	SEGMENT
_vlist	DD	01H DUP (?)
_elist	DD	01H DUP (?)
_flist	DD	01H DUP (?)
_blist	DD	01H DUP (?)
_BSS	ENDS
PUBLIC	_set_attr
EXTRN	_web:BYTE
; Function compile flags: /Ogtp
; File c:\levolver\yonkang-sefit\levolver\ev_ogl\inline.h
;	COMDAT _set_attr
_TEXT	SEGMENT
_id$ = 8						; size = 4
_attrib$ = 12						; size = 8
_set_attr PROC						; COMDAT

; 21   : {

	push	ebp
	mov	ebp, esp

; 22   :   elptr(id)->attr |= attrib;

	mov	eax, DWORD PTR _id$[ebp]
	mov	ecx, eax
	shr	ecx, 29					; 0000001dH
	imul	ecx, 112				; 00000070H
	mov	edx, DWORD PTR _web[ecx+12]
	mov	ecx, DWORD PTR _attrib$[ebp]
	and	eax, 134217727				; 07ffffffH
	mov	eax, DWORD PTR [edx+eax*4]
	mov	edx, DWORD PTR _attrib$[ebp+4]
	or	DWORD PTR [eax+8], ecx
	or	DWORD PTR [eax+12], edx

; 23   : }

	pop	ebp
	ret	0
_set_attr ENDP
_TEXT	ENDS
PUBLIC	_unset_attr
; Function compile flags: /Ogtp
;	COMDAT _unset_attr
_TEXT	SEGMENT
_id$ = 8						; size = 4
_attrib$ = 12						; size = 8
_unset_attr PROC					; COMDAT

; 28   : {

	push	ebp
	mov	ebp, esp

; 29   :   elptr(id)->attr &= ~attrib;

	mov	eax, DWORD PTR _id$[ebp]
	mov	ecx, eax
	shr	ecx, 29					; 0000001dH
	imul	ecx, 112				; 00000070H
	mov	edx, DWORD PTR _web[ecx+12]
	mov	ecx, DWORD PTR _attrib$[ebp]
	and	eax, 134217727				; 07ffffffH
	mov	eax, DWORD PTR [edx+eax*4]
	mov	edx, DWORD PTR _attrib$[ebp+4]
	not	ecx
	and	DWORD PTR [eax+8], ecx
	not	edx
	and	DWORD PTR [eax+12], edx

; 30   : }

	pop	ebp
	ret	0
_unset_attr ENDP
_TEXT	ENDS
PUBLIC	_get_fe_edge
; Function compile flags: /Ogtp
;	COMDAT _get_fe_edge
_TEXT	SEGMENT
_fe_id$ = 8						; size = 4
_get_fe_edge PROC					; COMDAT

; 43   : {

	push	ebp
	mov	ebp, esp

; 44   :   edge_id e_id;
; 45   :     
; 46   :   e_id = feptr(fe_id)->fe_edge_id;

	mov	eax, DWORD PTR _fe_id$[ebp]

; 47   : 
; 48   :   /*
; 49   :   if ( inverted(fe_id) ) invert(e_id);
; 50   :   return e_id;
; 51   :   */
; 52   :   
; 53   :   return same_sign(e_id,fe_id);

	mov	edx, DWORD PTR _web+460
	mov	ecx, eax
	and	ecx, 134217727				; 07ffffffH
	mov	ecx, DWORD PTR [edx+ecx*4]
	and	eax, 134217728				; 08000000H
	xor	eax, DWORD PTR [ecx+20]

; 54   : }

	pop	ebp
	ret	0
_get_fe_edge ENDP
_TEXT	ENDS
PUBLIC	_get_next_edge
; Function compile flags: /Ogtp
;	COMDAT _get_next_edge
_TEXT	SEGMENT
_fe_id$ = 8						; size = 4
_get_next_edge PROC					; COMDAT

; 76   : {

	push	ebp
	mov	ebp, esp

; 77   :   if ( inverted(fe_id) ) return inverse_id(feptr(fe_id)->nextedge[0]);

	mov	eax, DWORD PTR _fe_id$[ebp]
	mov	ecx, DWORD PTR _web+460
	test	eax, 134217728				; 08000000H
	je	SHORT $LN2@get_next_e
	and	eax, 134217727				; 07ffffffH
	mov	edx, DWORD PTR [ecx+eax*4]
	mov	eax, DWORD PTR [edx+28]
	xor	eax, 134217728				; 08000000H

; 79   : }

	pop	ebp
	ret	0
$LN2@get_next_e:

; 78   :   else return feptr(fe_id)->nextedge[1];

	and	eax, 134217727				; 07ffffffH
	mov	edx, DWORD PTR [ecx+eax*4]
	mov	eax, DWORD PTR [edx+32]

; 79   : }

	pop	ebp
	ret	0
_get_next_edge ENDP
_TEXT	ENDS
PUBLIC	_get_next_facet
; Function compile flags: /Ogtp
;	COMDAT _get_next_facet
_TEXT	SEGMENT
_fe_id$ = 8						; size = 4
_get_next_facet PROC					; COMDAT

; 92   : {

	push	ebp
	mov	ebp, esp

; 93   :   if ( inverted(fe_id) ) 

	mov	eax, DWORD PTR _fe_id$[ebp]

; 94   :     return inverse_id(feptr(fe_id)->nextfacet[0]);

	mov	ecx, DWORD PTR _web+460
	test	eax, 134217728				; 08000000H
	je	SHORT $LN2@get_next_f
	and	eax, 134217727				; 07ffffffH
	mov	edx, DWORD PTR [ecx+eax*4]
	mov	eax, DWORD PTR [edx+36]
	xor	eax, 134217728				; 08000000H

; 97   : }

	pop	ebp
	ret	0
$LN2@get_next_f:

; 95   :   else 
; 96   :     return feptr(fe_id)->nextfacet[1];

	and	eax, 134217727				; 07ffffffH
	mov	edx, DWORD PTR [ecx+eax*4]
	mov	eax, DWORD PTR [edx+40]

; 97   : }

	pop	ebp
	ret	0
_get_next_facet ENDP
_TEXT	ENDS
PUBLIC	_set_prev_edge
EXTRN	_top_timestamp:DWORD
EXTRN	_global_timestamp:DWORD
; Function compile flags: /Ogtp
;	COMDAT _set_prev_edge
_TEXT	SEGMENT
_fe_id$ = 8						; size = 4
_fe$ = 12						; size = 4
_set_prev_edge PROC					; COMDAT

; 102  : {

	push	ebp
	mov	ebp, esp

; 103  :   if ( !valid_id(fe_id) ) return;

	mov	eax, DWORD PTR _fe_id$[ebp]
	test	eax, 268435456				; 10000000H
	je	SHORT $LN4@set_prev_e

; 104  :   if ( inverted(fe_id) )

	test	eax, 134217728				; 08000000H
	je	SHORT $LN2@set_prev_e

; 105  :     { invert(fe);
; 106  :       feptr(fe_id)->nextedge[1] = fe;

	mov	edx, DWORD PTR _web+460
	mov	ecx, DWORD PTR _fe$[ebp]
	and	eax, 134217727				; 07ffffffH
	mov	eax, DWORD PTR [edx+eax*4]
	xor	ecx, 134217728				; 08000000H
	mov	DWORD PTR [eax+32], ecx

; 110  :   top_timestamp = ++global_timestamp;

	mov	eax, DWORD PTR _global_timestamp
	inc	eax
	mov	DWORD PTR _global_timestamp, eax
	mov	DWORD PTR _top_timestamp, eax

; 111  : }

	pop	ebp
	ret	0
$LN2@set_prev_e:

; 107  :     }
; 108  :   else
; 109  :       feptr(fe_id)->nextedge[0] = fe;

	mov	ecx, DWORD PTR _web+460
	and	eax, 134217727				; 07ffffffH
	mov	edx, DWORD PTR [ecx+eax*4]
	mov	eax, DWORD PTR _fe$[ebp]
	mov	DWORD PTR [edx+28], eax

; 110  :   top_timestamp = ++global_timestamp;

	mov	eax, DWORD PTR _global_timestamp
	inc	eax
	mov	DWORD PTR _global_timestamp, eax
	mov	DWORD PTR _top_timestamp, eax
$LN4@set_prev_e:

; 111  : }

	pop	ebp
	ret	0
_set_prev_edge ENDP
_TEXT	ENDS
PUBLIC	_set_next_edge
; Function compile flags: /Ogtp
;	COMDAT _set_next_edge
_TEXT	SEGMENT
_fe_id$ = 8						; size = 4
_fe$ = 12						; size = 4
_set_next_edge PROC					; COMDAT

; 116  : {

	push	ebp
	mov	ebp, esp

; 117  :   if ( !valid_id(fe_id) ) return;

	mov	eax, DWORD PTR _fe_id$[ebp]
	test	eax, 268435456				; 10000000H
	je	SHORT $LN1@set_next_e

; 118  :   if ( inverted(fe_id) )

	test	eax, 134217728				; 08000000H
	je	SHORT $LN2@set_next_e

; 119  :     { invert(fe);

	mov	ecx, DWORD PTR _fe$[ebp]

; 120  :       feptr(fe_id)->nextedge[0] = fe;

	mov	edx, DWORD PTR _web+460
	xor	ecx, 134217728				; 08000000H
	and	eax, 134217727				; 07ffffffH
	mov	eax, DWORD PTR [edx+eax*4]
	mov	DWORD PTR [eax+28], ecx

; 124  : }

	pop	ebp
	ret	0
$LN2@set_next_e:

; 121  :     }
; 122  :   else
; 123  :       feptr(fe_id)->nextedge[1] = fe;

	mov	ecx, DWORD PTR _web+460
	and	eax, 134217727				; 07ffffffH
	mov	edx, DWORD PTR [ecx+eax*4]
	mov	eax, DWORD PTR _fe$[ebp]
	mov	DWORD PTR [edx+32], eax
$LN1@set_next_e:

; 124  : }

	pop	ebp
	ret	0
_set_next_edge ENDP
_TEXT	ENDS
PUBLIC	_set_prev_facet
; Function compile flags: /Ogtp
;	COMDAT _set_prev_facet
_TEXT	SEGMENT
_fe_id$ = 8						; size = 4
_fe$ = 12						; size = 4
_set_prev_facet PROC					; COMDAT

; 129  : {

	push	ebp
	mov	ebp, esp

; 130  :   if ( !valid_id(fe_id) ) return;

	mov	eax, DWORD PTR _fe_id$[ebp]
	test	eax, 268435456				; 10000000H
	je	SHORT $LN4@set_prev_f

; 131  :   if ( inverted(fe_id) )

	test	eax, 134217728				; 08000000H
	je	SHORT $LN2@set_prev_f

; 132  :   { invert(fe);
; 133  :     feptr(fe_id)->nextfacet[1] = fe;

	mov	edx, DWORD PTR _web+460
	mov	ecx, DWORD PTR _fe$[ebp]
	and	eax, 134217727				; 07ffffffH
	mov	eax, DWORD PTR [edx+eax*4]
	xor	ecx, 134217728				; 08000000H
	mov	DWORD PTR [eax+40], ecx

; 137  :   top_timestamp = ++global_timestamp;

	mov	eax, DWORD PTR _global_timestamp
	inc	eax
	mov	DWORD PTR _global_timestamp, eax
	mov	DWORD PTR _top_timestamp, eax

; 138  : }

	pop	ebp
	ret	0
$LN2@set_prev_f:

; 134  :   }
; 135  :   else
; 136  :     feptr(fe_id)->nextfacet[0] = fe;

	mov	ecx, DWORD PTR _web+460
	and	eax, 134217727				; 07ffffffH
	mov	edx, DWORD PTR [ecx+eax*4]
	mov	eax, DWORD PTR _fe$[ebp]
	mov	DWORD PTR [edx+36], eax

; 137  :   top_timestamp = ++global_timestamp;

	mov	eax, DWORD PTR _global_timestamp
	inc	eax
	mov	DWORD PTR _global_timestamp, eax
	mov	DWORD PTR _top_timestamp, eax
$LN4@set_prev_f:

; 138  : }

	pop	ebp
	ret	0
_set_prev_facet ENDP
_TEXT	ENDS
PUBLIC	_set_next_facet
; Function compile flags: /Ogtp
;	COMDAT _set_next_facet
_TEXT	SEGMENT
_fe_id$ = 8						; size = 4
_fe$ = 12						; size = 4
_set_next_facet PROC					; COMDAT

; 143  : {

	push	ebp
	mov	ebp, esp

; 144  :   if ( !valid_id(fe_id) ) return;

	mov	eax, DWORD PTR _fe_id$[ebp]
	test	eax, 268435456				; 10000000H
	je	SHORT $LN1@set_next_f

; 145  :   if ( inverted(fe_id) )

	test	eax, 134217728				; 08000000H
	je	SHORT $LN2@set_next_f

; 146  :   { invert(fe);

	mov	ecx, DWORD PTR _fe$[ebp]

; 147  :     feptr(fe_id)->nextfacet[0] = fe;

	mov	edx, DWORD PTR _web+460
	xor	ecx, 134217728				; 08000000H
	and	eax, 134217727				; 07ffffffH
	mov	eax, DWORD PTR [edx+eax*4]
	mov	DWORD PTR [eax+36], ecx

; 151  : }

	pop	ebp
	ret	0
$LN2@set_next_f:

; 148  :   }
; 149  :   else
; 150  :     feptr(fe_id)->nextfacet[1] = fe;

	mov	ecx, DWORD PTR _web+460
	and	eax, 134217727				; 07ffffffH
	mov	edx, DWORD PTR [ecx+eax*4]
	mov	eax, DWORD PTR _fe$[ebp]
	mov	DWORD PTR [edx+40], eax
$LN1@set_next_f:

; 151  : }

	pop	ebp
	ret	0
_set_next_facet ENDP
_TEXT	ENDS
PUBLIC	_set_edge_wrap
EXTRN	_dymem:DWORD
EXTRN	_sym_inverse:DWORD
; Function compile flags: /Ogtp
;	COMDAT _set_edge_wrap
_TEXT	SEGMENT
_e_id$ = 8						; size = 4
_wrap$ = 12						; size = 4
_set_edge_wrap PROC					; COMDAT

; 157  : {

	push	ebp
	mov	ebp, esp

; 158  :  *EINT(e_id,E_WRAP_ATTR) =  inverted(e_id)  ? (*sym_inverse)(wrap) : wrap ;

	mov	eax, DWORD PTR _wrap$[ebp]
	push	esi
	mov	esi, DWORD PTR _e_id$[ebp]
	test	esi, 134217728				; 08000000H
	je	SHORT $LN4@set_edge_w
	push	eax
	call	DWORD PTR _sym_inverse
	add	esp, 4
$LN4@set_edge_w:
	mov	ecx, DWORD PTR _web+124
	and	esi, 134217727				; 07ffffffH
	mov	edx, DWORD PTR [ecx+esi*4]
	mov	esi, DWORD PTR _dymem
	mov	ecx, DWORD PTR _web+216
	mov	ecx, DWORD PTR [ecx+esi+784]
	mov	DWORD PTR [edx+ecx], eax
	pop	esi

; 159  : }

	pop	ebp
	ret	0
_set_edge_wrap ENDP
_TEXT	ENDS
PUBLIC	_set_edge_fe
; Function compile flags: /Ogtp
;	COMDAT _set_edge_fe
_TEXT	SEGMENT
_e_id$ = 8						; size = 4
_fe$ = 12						; size = 4
_set_edge_fe PROC					; COMDAT

; 171  : {

	push	ebp
	mov	ebp, esp

; 172  :   if ( inverted(e_id) ) invert(fe);

	mov	eax, DWORD PTR _e_id$[ebp]
	test	eax, 134217728				; 08000000H
	je	SHORT $LN1@set_edge_f
	xor	DWORD PTR _fe$[ebp], 134217728		; 08000000H
$LN1@set_edge_f:

; 173  :   eptr(e_id)->fe_id = fe;

	mov	ecx, DWORD PTR _web+124
	and	eax, 134217727				; 07ffffffH
	mov	edx, DWORD PTR [ecx+eax*4]
	mov	eax, DWORD PTR _fe$[ebp]
	mov	DWORD PTR [edx+28], eax

; 174  :   top_timestamp = ++global_timestamp;

	mov	eax, DWORD PTR _global_timestamp
	inc	eax
	mov	DWORD PTR _global_timestamp, eax
	mov	DWORD PTR _top_timestamp, eax

; 175  : }

	pop	ebp
	ret	0
_set_edge_fe ENDP
_TEXT	ENDS
PUBLIC	_get_edge_fe
; Function compile flags: /Ogtp
;	COMDAT _get_edge_fe
_TEXT	SEGMENT
_e_id$ = 8						; size = 4
_get_edge_fe PROC					; COMDAT

; 179  : {   struct edge *ep;

	push	ebp
	mov	ebp, esp

; 180  :     facetedge_id fe;
; 181  : 
; 182  :  	ep = eptr(e_id);

	mov	ecx, DWORD PTR _e_id$[ebp]
	mov	edx, DWORD PTR _web+124
	mov	eax, ecx
	and	eax, 134217727				; 07ffffffH
	mov	eax, DWORD PTR [edx+eax*4]

; 183  :     if ( !ep ) return NULLID;

	test	eax, eax
	jne	SHORT $LN2@get_edge_f

; 186  :     return fe;
; 187  : }

	pop	ebp
	ret	0
$LN2@get_edge_f:

; 184  :     fe = ep->fe_id; 

	mov	eax, DWORD PTR [eax+28]

; 185  :     if ( inverted(e_id) ) invert(fe);

	test	ecx, 134217728				; 08000000H
	je	SHORT $LN3@get_edge_f
	xor	eax, 134217728				; 08000000H
$LN3@get_edge_f:

; 186  :     return fe;
; 187  : }

	pop	ebp
	ret	0
_get_edge_fe ENDP
_TEXT	ENDS
PUBLIC	_get_edge_tailv
; Function compile flags: /Ogtp
;	COMDAT _get_edge_tailv
_TEXT	SEGMENT
_e_id$ = 8						; size = 4
_get_edge_tailv PROC					; COMDAT

; 191  : {

	push	ebp
	mov	ebp, esp

; 192  :   if ( inverted(e_id) )

	mov	eax, DWORD PTR _e_id$[ebp]

; 193  :      return get_edge_vertices(e_id)[web.headvnum];

	mov	ecx, DWORD PTR _web+124
	test	eax, 134217728				; 08000000H
	je	SHORT $LN2@get_edge_t
	and	eax, 134217727				; 07ffffffH
	mov	edx, DWORD PTR [ecx+eax*4]
	mov	eax, DWORD PTR _web+216
	mov	ecx, DWORD PTR _dymem
	add	edx, DWORD PTR [eax+ecx+304]
	mov	eax, DWORD PTR _web+636
	mov	eax, DWORD PTR [edx+eax*4]

; 196  : }

	pop	ebp
	ret	0
$LN2@get_edge_t:

; 194  :   else
; 195  :      return get_edge_vertices(e_id)[0];

	and	eax, 134217727				; 07ffffffH
	mov	edx, DWORD PTR [ecx+eax*4]
	mov	eax, DWORD PTR _web+216
	mov	ecx, DWORD PTR _dymem
	mov	eax, DWORD PTR [eax+ecx+304]
	mov	eax, DWORD PTR [edx+eax]

; 196  : }

	pop	ebp
	ret	0
_get_edge_tailv ENDP
_TEXT	ENDS
PUBLIC	_get_edge_headv
; Function compile flags: /Ogtp
;	COMDAT _get_edge_headv
_TEXT	SEGMENT
_e_id$ = 8						; size = 4
_get_edge_headv PROC					; COMDAT

; 200  : {

	push	ebp
	mov	ebp, esp

; 201  :   if ( inverted(e_id) )

	mov	eax, DWORD PTR _e_id$[ebp]

; 202  :      return get_edge_vertices(e_id)[0];

	mov	ecx, DWORD PTR _web+124
	test	eax, 134217728				; 08000000H
	je	SHORT $LN2@get_edge_h
	and	eax, 134217727				; 07ffffffH
	mov	edx, DWORD PTR [ecx+eax*4]
	mov	eax, DWORD PTR _web+216
	mov	ecx, DWORD PTR _dymem
	mov	eax, DWORD PTR [eax+ecx+304]
	mov	eax, DWORD PTR [edx+eax]

; 205  : }

	pop	ebp
	ret	0
$LN2@get_edge_h:

; 203  :   else
; 204  :      return get_edge_vertices(e_id)[web.headvnum];

	and	eax, 134217727				; 07ffffffH
	mov	edx, DWORD PTR [ecx+eax*4]
	mov	eax, DWORD PTR _web+216
	mov	ecx, DWORD PTR _dymem
	add	edx, DWORD PTR [eax+ecx+304]
	mov	eax, DWORD PTR _web+636
	mov	eax, DWORD PTR [edx+eax*4]

; 205  : }

	pop	ebp
	ret	0
_get_edge_headv ENDP
_TEXT	ENDS
PUBLIC	_set_edge_tailv
EXTRN	_insert_vertex_edge:PROC
EXTRN	_remove_vertex_edge:PROC
; Function compile flags: /Ogtp
;	COMDAT _set_edge_tailv
_TEXT	SEGMENT
tv225 = -4						; size = 4
_e_id$ = 8						; size = 4
_v_id$ = 12						; size = 4
_set_edge_tailv PROC					; COMDAT

; 210  : { vertex_id oldv;

	push	ebp
	mov	ebp, esp
	push	ecx

; 211  : 
; 212  :   /* make sure edge not in loop of old vertex */
; 213  :   oldv = get_edge_tailv(e_id);

	mov	edx, DWORD PTR _web+124
	mov	ecx, DWORD PTR _web+216
	push	ebx
	push	esi
	mov	esi, DWORD PTR _e_id$[ebp]
	mov	eax, esi
	shr	eax, 27					; 0000001bH
	and	eax, 1
	push	edi
	mov	edi, DWORD PTR _dymem
	mov	DWORD PTR tv225[ebp], eax
	je	SHORT $LN7@set_edge_t
	mov	ebx, DWORD PTR _web+636
	and	esi, 134217727				; 07ffffffH
	add	esi, esi
	add	esi, esi
	mov	eax, DWORD PTR [esi+edx]
	add	eax, DWORD PTR [ecx+edi+304]
	mov	eax, DWORD PTR [eax+ebx*4]
	jmp	SHORT $LN6@set_edge_t
$LN7@set_edge_t:
	mov	ebx, DWORD PTR [ecx+edi+304]
	and	esi, 134217727				; 07ffffffH
	add	esi, esi
	add	esi, esi
	mov	eax, DWORD PTR [esi+edx]
	mov	eax, DWORD PTR [eax+ebx]
$LN6@set_edge_t:

; 214  :   if ( valid_id(oldv) && !equal_id(oldv,v_id) )

	mov	ebx, DWORD PTR _v_id$[ebp]
	test	eax, 268435456				; 10000000H
	je	SHORT $LN10@set_edge_t
	cmp	eax, ebx
	je	SHORT $LN10@set_edge_t

; 215  :     remove_vertex_edge(oldv,e_id);

	mov	ecx, DWORD PTR _e_id$[ebp]
	push	ecx
	push	eax
	call	_remove_vertex_edge
	mov	ecx, DWORD PTR _web+216
	mov	edx, DWORD PTR _web+124
	mov	edi, DWORD PTR _dymem
	add	esp, 8
$LN10@set_edge_t:

; 216  : 
; 217  :   if ( inverted(e_id) )

	cmp	DWORD PTR tv225[ebp], 0

; 218  :      get_edge_vertices(e_id)[web.headvnum] = v_id;

	mov	edx, DWORD PTR [esi+edx]
	je	SHORT $LN2@set_edge_t
	add	edx, DWORD PTR [ecx+edi+304]
	mov	eax, DWORD PTR _web+636
	mov	DWORD PTR [edx+eax*4], ebx

; 219  :   else

	jmp	SHORT $LN1@set_edge_t
$LN2@set_edge_t:

; 220  :      get_edge_vertices(e_id)[0] = v_id;

	mov	eax, DWORD PTR [ecx+edi+304]
	mov	DWORD PTR [edx+eax], ebx
$LN1@set_edge_t:

; 221  :   insert_vertex_edge(v_id,e_id);

	mov	ecx, DWORD PTR _e_id$[ebp]
	push	ecx
	push	ebx
	call	_insert_vertex_edge

; 222  :   top_timestamp = ++global_timestamp;

	mov	eax, DWORD PTR _global_timestamp
	add	esp, 8
	pop	edi
	inc	eax
	pop	esi
	mov	DWORD PTR _global_timestamp, eax
	mov	DWORD PTR _top_timestamp, eax
	pop	ebx

; 223  : }

	mov	esp, ebp
	pop	ebp
	ret	0
_set_edge_tailv ENDP
_TEXT	ENDS
PUBLIC	_set_edge_headv
; Function compile flags: /Ogtp
;	COMDAT _set_edge_headv
_TEXT	SEGMENT
_e_id$ = 8						; size = 4
_v_id$ = 12						; size = 4
_set_edge_headv PROC					; COMDAT

; 229  : {

	push	ebp
	mov	ebp, esp

; 230  :   if ( inverted(e_id) )

	mov	eax, DWORD PTR _e_id$[ebp]
	push	esi

; 231  :      get_edge_vertices(e_id)[0] = v_id;

	mov	esi, DWORD PTR _dymem
	test	eax, 134217728				; 08000000H
	je	SHORT $LN2@set_edge_h
	mov	edx, DWORD PTR _web+124
	mov	ecx, eax
	and	ecx, 134217727				; 07ffffffH
	mov	edx, DWORD PTR [edx+ecx*4]
	mov	ecx, DWORD PTR _web+216
	mov	esi, DWORD PTR [ecx+esi+304]
	mov	ecx, DWORD PTR _v_id$[ebp]
	mov	DWORD PTR [edx+esi], ecx

; 232  :   else

	jmp	SHORT $LN1@set_edge_h
$LN2@set_edge_h:

; 233  :      get_edge_vertices(e_id)[web.headvnum] = v_id;

	mov	ecx, DWORD PTR _web+124
	mov	edx, eax
	and	edx, 134217727				; 07ffffffH
	mov	edx, DWORD PTR [ecx+edx*4]
	mov	ecx, DWORD PTR _web+216
	add	edx, DWORD PTR [ecx+esi+304]
	mov	ecx, DWORD PTR _v_id$[ebp]
	mov	esi, DWORD PTR _web+636
	mov	DWORD PTR [edx+esi*4], ecx
$LN1@set_edge_h:

; 234  :   insert_vertex_edge(v_id,inverse_id(e_id));

	xor	eax, 134217728				; 08000000H
	push	eax
	push	ecx
	call	_insert_vertex_edge

; 235  :   top_timestamp = ++global_timestamp;

	mov	eax, DWORD PTR _global_timestamp
	add	esp, 8
	inc	eax
	mov	DWORD PTR _global_timestamp, eax
	mov	DWORD PTR _top_timestamp, eax
	pop	esi

; 236  : }

	pop	ebp
	ret	0
_set_edge_headv ENDP
_TEXT	ENDS
PUBLIC	_set_edge_midv
; Function compile flags: /Ogtp
;	COMDAT _set_edge_midv
_TEXT	SEGMENT
_e_id$ = 8						; size = 4
_v_id$ = 12						; size = 4
_set_edge_midv PROC					; COMDAT

; 241  : { get_edge_vertices(e_id)[2] = v_id;

	push	ebp
	mov	ebp, esp
	mov	edx, DWORD PTR _e_id$[ebp]
	mov	ecx, DWORD PTR _web+124
	mov	eax, edx
	and	eax, 134217727				; 07ffffffH
	mov	ecx, DWORD PTR [ecx+eax*4]
	mov	eax, DWORD PTR _web+216
	push	esi
	mov	esi, DWORD PTR _dymem
	mov	esi, DWORD PTR [eax+esi+304]
	mov	eax, DWORD PTR _v_id$[ebp]
	mov	DWORD PTR [ecx+esi+8], eax

; 242  :   set_vertex_edge(v_id,e_id);

	mov	esi, DWORD PTR _web+12
	mov	ecx, eax

; 243  :   set_attr(v_id,Q_MIDPOINT);

	shr	eax, 29					; 0000001dH
	imul	eax, 112				; 00000070H
	and	ecx, 134217727				; 07ffffffH
	add	ecx, ecx
	add	ecx, ecx
	mov	esi, DWORD PTR [ecx+esi]
	mov	DWORD PTR [esi+28], edx
	mov	edx, DWORD PTR _web[eax+12]
	mov	ecx, DWORD PTR [edx+ecx]
	mov	eax, DWORD PTR [ecx+12]
	or	DWORD PTR [ecx+8], 131072		; 00020000H
	mov	DWORD PTR [ecx+12], eax

; 244  :   top_timestamp = ++global_timestamp;

	mov	eax, DWORD PTR _global_timestamp
	inc	eax
	mov	DWORD PTR _global_timestamp, eax
	mov	DWORD PTR _top_timestamp, eax
	pop	esi

; 245  : }

	pop	ebp
	ret	0
_set_edge_midv ENDP
_TEXT	ENDS
PUBLIC	_get_facet_fe
; Function compile flags: /Ogtp
;	COMDAT _get_facet_fe
_TEXT	SEGMENT
_f_id$ = 8						; size = 4
_get_facet_fe PROC					; COMDAT

; 260  : {

	push	ebp
	mov	ebp, esp

; 261  :   facetedge_id fe;
; 262  :   
; 263  :   if ( !valid_id(f_id) ) return NULLID;

	mov	ecx, DWORD PTR _f_id$[ebp]
	test	ecx, 268435456				; 10000000H
	jne	SHORT $LN2@get_facet_
	xor	eax, eax

; 266  :   return fe;
; 267  : }

	pop	ebp
	ret	0
$LN2@get_facet_:

; 264  :   fe = fptr(f_id)->fe_id;

	mov	edx, DWORD PTR _web+236
	mov	eax, ecx
	and	eax, 134217727				; 07ffffffH
	mov	eax, DWORD PTR [edx+eax*4]
	mov	eax, DWORD PTR [eax+28]

; 265  :   if ( inverted(f_id) ) invert(fe);

	test	ecx, 134217728				; 08000000H
	je	SHORT $LN3@get_facet_
	xor	eax, 134217728				; 08000000H
$LN3@get_facet_:

; 266  :   return fe;
; 267  : }

	pop	ebp
	ret	0
_get_facet_fe ENDP
_TEXT	ENDS
PUBLIC	_set_body_density
EXTRN	__fltused:DWORD
; Function compile flags: /Ogtp
;	COMDAT _set_body_density
_TEXT	SEGMENT
_b_id$ = 8						; size = 4
_v$ = 12						; size = 8
_set_body_density PROC					; COMDAT

; 323  :       {         ( valid_id(b_id) ?  bptr(b_id)->density = (v) : 0.0 ) ; }

	push	ebp
	mov	ebp, esp
	mov	eax, DWORD PTR _b_id$[ebp]
	test	eax, 268435456				; 10000000H
	je	SHORT $LN3@set_body_d
	mov	ecx, DWORD PTR _web+348
	fld	QWORD PTR _v$[ebp]
	and	eax, 134217727				; 07ffffffH
	mov	edx, DWORD PTR [ecx+eax*4]
	fstp	QWORD PTR [edx+344]
$LN3@set_body_d:
	pop	ebp
	ret	0
_set_body_density ENDP
_TEXT	ENDS
PUBLIC	_set_body_pressure
; Function compile flags: /Ogtp
;	COMDAT _set_body_pressure
_TEXT	SEGMENT
_b_id$ = 8						; size = 4
_v$ = 12						; size = 8
_set_body_pressure PROC					; COMDAT

; 326  :       {         ( valid_id(b_id) ?  bptr(b_id)->pressure = (v) : 0.0 ) ; }

	push	ebp
	mov	ebp, esp
	mov	eax, DWORD PTR _b_id$[ebp]
	test	eax, 268435456				; 10000000H
	je	SHORT $LN3@set_body_p
	mov	ecx, DWORD PTR _web+348
	fld	QWORD PTR _v$[ebp]
	and	eax, 134217727				; 07ffffffH
	mov	edx, DWORD PTR [ecx+eax*4]
	fstp	QWORD PTR [edx+312]
$LN3@set_body_p:
	pop	ebp
	ret	0
_set_body_pressure ENDP
_TEXT	ENDS
PUBLIC	_set_body_volconst
EXTRN	_gen_quant_list:DWORD
EXTRN	_everything_quantities_flag:DWORD
; Function compile flags: /Ogtp
;	COMDAT _set_body_volconst
_TEXT	SEGMENT
_b_id$ = 8						; size = 4
_v$ = 12						; size = 8
_set_body_volconst PROC					; COMDAT

; 329  : { if ( !valid_id(b_id) ) return;

	push	ebp
	mov	ebp, esp
	mov	eax, DWORD PTR _b_id$[ebp]
	test	eax, 268435456				; 10000000H
	je	SHORT $LN1@set_body_v

; 330  :   bptr(b_id)->volconst = v;

	mov	ecx, DWORD PTR _web+348
	fld	QWORD PTR _v$[ebp]
	and	eax, 134217727				; 07ffffffH
	add	eax, eax
	add	eax, eax
	mov	edx, DWORD PTR [eax+ecx]
	fst	QWORD PTR [edx+328]

; 331  :   if ( everything_quantities_flag )

	cmp	DWORD PTR _everything_quantities_flag, 0
	je	SHORT $LN6@set_body_v

; 332  :   { struct gen_quant *q = GEN_QUANT(get_body_volquant(b_id));

	mov	ecx, DWORD PTR _web+348
	mov	edx, DWORD PTR [eax+ecx]
	mov	eax, DWORD PTR [edx+404]

; 333  :     q->volconst = v;

	mov	ecx, DWORD PTR _gen_quant_list
	imul	eax, 368				; 00000170H
	fstp	QWORD PTR [eax+ecx+208]

; 334  :   }
; 335  : }

	pop	ebp
	ret	0
$LN6@set_body_v:

; 333  :     q->volconst = v;

	fstp	ST(0)
$LN1@set_body_v:

; 334  :   }
; 335  : }

	pop	ebp
	ret	0
_set_body_volconst ENDP
_TEXT	ENDS
PUBLIC	_get_extra
; Function compile flags: /Ogtp
;	COMDAT _get_extra
_TEXT	SEGMENT
_id$ = 8						; size = 4
_n$ = 12						; size = 4
_get_extra PROC						; COMDAT

; 348  : { int type = id_type(id);

	push	ebp
	mov	ebp, esp

; 349  : 
; 350  :   return ( (char*)elptr(id) + EXTRAS(type)[n].offset);

	mov	ecx, DWORD PTR _id$[ebp]
	mov	eax, ecx
	push	esi
	mov	esi, DWORD PTR _n$[ebp]
	shr	eax, 29					; 0000001dH
	imul	esi, 240				; 000000f0H
	imul	eax, 112				; 00000070H
	mov	edx, DWORD PTR _web[eax+12]
	push	edi
	mov	edi, DWORD PTR _web[eax+104]
	and	ecx, 134217727				; 07ffffffH
	mov	eax, DWORD PTR [edx+ecx*4]
	mov	ecx, DWORD PTR _dymem
	add	edi, esi
	add	eax, DWORD PTR [edi+ecx+64]
	pop	edi
	pop	esi

; 351  : }

	pop	ebp
	ret	0
_get_extra ENDP
_TEXT	ENDS
PUBLIC	__real@40f869f000000000
PUBLIC	__real@3d719799812dea11
PUBLIC	__real@3ff6666666666666
PUBLIC	__real@3fd0000000000000
PUBLIC	??_C@_04GOEDGNCF@area?$AA@			; `string'
PUBLIC	__real@3fb999999999999a
PUBLIC	__real@3fa999999999999a
PUBLIC	__real@3eb0c6f7a0b5ed8d
PUBLIC	__real@3fe0000000000000
PUBLIC	__real@3f1a36e2eb1c432d
PUBLIC	__real@3fe4cccccccccccd
PUBLIC	__real@4000000000000000
PUBLIC	__real@3f50624dd2f1a9fc
PUBLIC	__real@3f647ae147ae147b
PUBLIC	__real@3f589374bc6a7efa
PUBLIC	__real@3f60624dd2f1a9fc
PUBLIC	__real@4008000000000000
PUBLIC	??_C@_05MHOFLBOO@stdin?$AA@			; `string'
PUBLIC	??_C@_09JGPPFAML@LEXINIT?4C?$AA@		; `string'
PUBLIC	__real@0000000000000000
PUBLIC	__real@3ff0000000000000
PUBLIC	__real@41684bfe477e06cc
PUBLIC	_reset_web
EXTRN	_reset_counts:PROC
EXTRN	_warnings_suppressed_count:DWORD
EXTRN	_expand_attribute:PROC
EXTRN	_expand_global_hash:PROC
EXTRN	_gpolypartial:DWORD
EXTRN	_gpoly:DWORD
EXTRN	_gauss1polyd:DWORD
EXTRN	_gauss1poly:DWORD
EXTRN	_gauss1Dpt:DWORD
EXTRN	_gauss1Dwt:DWORD
EXTRN	_single_redefine:BYTE
EXTRN	_show_expr:BYTE
EXTRN	_show_expr_table:BYTE
EXTRN	_userfunc_init:PROC
EXTRN	_end_normal_motion:PROC
EXTRN	_end_geomview_object:PROC
EXTRN	_metric_convert_flag:DWORD
EXTRN	_phase_flag:DWORD
EXTRN	_v_procnum:DWORD
EXTRN	_el_list:BYTE
EXTRN	_conical_w:DWORD
EXTRN	_conical_x:DWORD
EXTRN	_vertex_normals:DWORD
EXTRN	_transform_colors_flag:DWORD
EXTRN	_transform_gen_swap:DWORD
EXTRN	_allocate_transform_colors:PROC
EXTRN	_transform_colors:DWORD
EXTRN	_view_transform_det:DWORD
EXTRN	_transform_expr:BYTE
EXTRN	_transforms_flag:DWORD
EXTRN	_set_view_transform_generators_global:PROC
EXTRN	_set_view_transforms_global:PROC
EXTRN	_transform_count:DWORD
EXTRN	_zoom_number:DWORD
EXTRN	_view_transforms_unique_point_flag:DWORD
EXTRN	_NULLVERTEX:DWORD
EXTRN	_view_transforms_unique_point:DWORD
EXTRN	_torus_display_period_expr:BYTE
EXTRN	_torus_period_expr:BYTE
EXTRN	_inverse_periods_global:DWORD
EXTRN	_torus_periods_global:DWORD
EXTRN	_localbase:DWORD
EXTRN	_no_refine:DWORD
EXTRN	_reflevel:DWORD
EXTRN	_set_by_user_gauss_2D:DWORD
EXTRN	_set_by_user_gauss_1D:DWORD
EXTRN	_bezier_flag:DWORD
EXTRN	_identity_compose:PROC
EXTRN	_sym_compose:DWORD
EXTRN	_identity_inverse:PROC
EXTRN	_identity_form_pullback:PROC
EXTRN	_sym_form_pullback:DWORD
EXTRN	_identity_wrap:PROC
EXTRN	_sym_wrap:DWORD
EXTRN	_symmetry_name:DWORD
EXTRN	_sym_flags:DWORD
EXTRN	_areaname:DWORD
EXTRN	_view_matrix_global:DWORD
EXTRN	_maxgaussorder:BYTE
EXTRN	_gauss_lagrange:BYTE
EXTRN	_dt_eps:QWORD
EXTRN	_homothety_target:QWORD
EXTRN	_total_time:QWORD
EXTRN	_runge_kutta_flag:DWORD
EXTRN	_pop_to_face_flag:DWORD
EXTRN	_pop_to_edge_flag:DWORD
EXTRN	_pop_enjoin_flag:DWORD
EXTRN	_pop_disjoin_flag:DWORD
EXTRN	_autopop_quartic_flag:DWORD
EXTRN	_immediate_autopop_flag:DWORD
EXTRN	_autopop_flag:DWORD
EXTRN	_autochop_flag:DWORD
EXTRN	_effective_area_flag:DWORD
EXTRN	_conf_edge_curv_flag:DWORD
EXTRN	_klein_metric_flag:DWORD
EXTRN	_kusner_flag:DWORD
EXTRN	_approx_curve_flag:DWORD
EXTRN	_normal_curvature_flag:DWORD
EXTRN	_boundary_curvature_flag:DWORD
EXTRN	_mean_curv_int_flag:DWORD
EXTRN	_square_curvature_flag:DWORD
EXTRN	_sqgauss_flag:DWORD
EXTRN	_area_fixed_flag:DWORD
EXTRN	_old_area_flag:DWORD
EXTRN	_method_instances_predicted:DWORD
EXTRN	_quantities_predicted:DWORD
EXTRN	_elements_predicted:BYTE
EXTRN	_star_fraction:QWORD
EXTRN	_mobility_formula:BYTE
EXTRN	_mobility_flag:DWORD
EXTRN	_mobility_tensor_flag:DWORD
EXTRN	_conj_grad_flag:DWORD
EXTRN	_K_altitude_flag:DWORD
EXTRN	_assume_oriented_flag:DWORD
EXTRN	_ribiere_flag:DWORD
EXTRN	_read_command_flag:DWORD
EXTRN	_post_project_flag:DWORD
EXTRN	_datafile_view_flag:DWORD
EXTRN	_make_pos_def_flag:DWORD
EXTRN	_self_similar_flag:DWORD
EXTRN	_pressure_set_flag:DWORD
EXTRN	_quiet_flag:DWORD
EXTRN	_quiet_go_flag:DWORD
EXTRN	_sobolev_flag:DWORD
EXTRN	_dirichlet_flag:DWORD
EXTRN	_mindeg_debug_level:DWORD
EXTRN	_hess_debug:DWORD
EXTRN	_hessian_by_diff_flag:DWORD
EXTRN	_hessian_quiet_flag:DWORD
EXTRN	_hessian_normal_one_flag:DWORD
EXTRN	_hessian_double_normal_flag:DWORD
EXTRN	_hessian_normal_perp_flag:DWORD
EXTRN	_mobility_tensor:BYTE
EXTRN	_hessian_special_normal_flag:DWORD
EXTRN	_hessian_normal_flag:DWORD
EXTRN	_view_4D_flag:DWORD
EXTRN	_mean_curv_int_quantity_num:DWORD
EXTRN	_sq_mean_curv_quantity_num:DWORD
EXTRN	_gravity_quantity_num:DWORD
EXTRN	_star_sq_mean_curvature_mi:DWORD
EXTRN	_star_eff_area_sq_mean_curvature_mi:DWORD
EXTRN	_hessian_special_normal_expr:BYTE
EXTRN	_star_normal_sq_mean_curvature_mi:DWORD
EXTRN	_mix_sq_mean_curvature_mi:DWORD
EXTRN	_sq_mean_curvature_mi:DWORD
EXTRN	_eff_area_sq_mean_curvature_mi:DWORD
EXTRN	_normal_sq_mean_curvature_mi:DWORD
EXTRN	_innerflag:DWORD
EXTRN	_outerflag:DWORD
EXTRN	_eigen_neg:DWORD
EXTRN	_eigen_pos:DWORD
EXTRN	_eigen_zero:DWORD
EXTRN	_hess_move_con_flag:DWORD
EXTRN	_hessian_linear_metric_flag:DWORD
EXTRN	_min_square_grad_flag:DWORD
EXTRN	_quantities_only_flag:DWORD
EXTRN	_rotorder_var:DWORD
EXTRN	_thickenflag:DWORD
EXTRN	_optparamcount:DWORD
EXTRN	_user_thickness_flag:DWORD
EXTRN	_interp_bdry_param:DWORD
EXTRN	_kraynikpopvertex_flag:DWORD
EXTRN	_kraynikpopedge_flag:DWORD
EXTRN	_rgb_colors_flag:DWORD
EXTRN	_spherical_arc_flag:DWORD
EXTRN	_circular_arc_flag:DWORD
EXTRN	_autorecalc_flag:DWORD
EXTRN	_labelflag:DWORD
EXTRN	_crossingflag:DWORD
EXTRN	_septum_flag:DWORD
EXTRN	_force_edgeswap_flag:DWORD
EXTRN	_gridflag:DWORD
EXTRN	_boundary_expr_flag:DWORD
EXTRN	_ps_cmykflag:DWORD
EXTRN	_ps_colorflag:DWORD
EXTRN	_ackerman_flag:DWORD
EXTRN	_sqcurve_ignore_constr:DWORD
EXTRN	_new_vertex_id:DWORD
EXTRN	_new_edge_id:DWORD
EXTRN	_new_facet_id:DWORD
EXTRN	_new_body_id:DWORD
EXTRN	_needed_version:BYTE
EXTRN	_keep_macros_flag:DWORD
EXTRN	_pickvnum:DWORD
EXTRN	_pickenum:DWORD
EXTRN	_pickfnum:DWORD
EXTRN	_zener_drag_flag:DWORD
EXTRN	_volgrads_every_flag:DWORD
EXTRN	_check_increase_flag:DWORD
EXTRN	_last_error:DWORD
EXTRN	_linear_metric_mix:QWORD
EXTRN	_blas_flag:DWORD
EXTRN	_augmented_hessian_flag:DWORD
EXTRN	_last_hessian_scale:QWORD
EXTRN	_sparse_constraints_flag:DWORD
EXTRN	_last_eigenvalue:QWORD
EXTRN	_bad_errors_count:DWORD
EXTRN	_facets_same_vertices_count:DWORD
EXTRN	_edges_same_vertices_count:DWORD
EXTRN	_thickness:QWORD
EXTRN	_edge_loop_count:DWORD
EXTRN	_inconsistent_bodies_count:DWORD
EXTRN	_bad_next_prev_count:DWORD
EXTRN	_check_count:DWORD
EXTRN	_brightness:QWORD
EXTRN	_inputsave_flag:DWORD
EXTRN	_uminus_flag:DWORD
EXTRN	_hessian_epsilon:QWORD
EXTRN	_volume_method_name:BYTE
EXTRN	_hessian_epsilon_default:QWORD
EXTRN	_length_method_name:BYTE
EXTRN	_hessian_slant_cutoff:QWORD
EXTRN	_area_method_name:BYTE
EXTRN	_permlist:DWORD
EXTRN	_list:DWORD
EXTRN	_listmax:DWORD
EXTRN	_bi_sums:DWORD
EXTRN	_f_sums:DWORD
EXTRN	_cg_hvector:DWORD
EXTRN	_fpicklist:DWORD
EXTRN	_vpicklist:DWORD
EXTRN	_macros:DWORD
EXTRN	_macro_subs:DWORD
EXTRN	_option_q:DWORD
EXTRN	_extra_bdry_param_attr:DWORD
EXTRN	_extra_bdry_attr:DWORD
EXTRN	_local_nest_depth:DWORD
EXTRN	_dont_resize_flag:DWORD
EXTRN	_bezier1invert:BYTE
EXTRN	_bezier1revert:BYTE
EXTRN	_show_command:BYTE
EXTRN	_string_curve_tolerance:QWORD
EXTRN	_bezier_refine_1d:BYTE
EXTRN	_bezier2invert:BYTE
EXTRN	_bezier2revert:BYTE
EXTRN	_bezier_refine_2d:BYTE
EXTRN	_ps_gridedgewidth:QWORD
EXTRN	_edgeshow_flag:DWORD
EXTRN	_mpi_show_corona_flag:DWORD
EXTRN	_thread_stages:DWORD
EXTRN	_tgverts:DWORD
EXTRN	_ps_bareedgewidth:QWORD
EXTRN	_ritzvecs:DWORD
EXTRN	_rleftside:DWORD
EXTRN	_ps_conedgewidth:QWORD
EXTRN	_optparam_congrads:DWORD
EXTRN	_conrhs:DWORD
EXTRN	_ps_tripleedgewidth:QWORD
EXTRN	_pressures:DWORD
EXTRN	_conhess_base:DWORD
EXTRN	_ps_fixededgewidth:QWORD
EXTRN	_vproj_space:DWORD
EXTRN	_ps_stringwidth:QWORD
EXTRN	_vproj_base:DWORD
EXTRN	_vhead:DWORD
EXTRN	_ps_labelsize:QWORD
EXTRN	_pmax:BYTE
EXTRN	_warning_messages_new:DWORD
EXTRN	_warning_messages_max:DWORD
EXTRN	_warning_messages:DWORD
EXTRN	_estimate_flag:DWORD
EXTRN	_verbose_flag:DWORD
EXTRN	_replace_load_flag:DWORD
EXTRN	_addload_flag:DWORD
EXTRN	_file_no_used:DWORD
EXTRN	_pbase:BYTE
EXTRN	_file_names:DWORD
EXTRN	_kb_calloc:PROC
EXTRN	_file_no_max:DWORD
EXTRN	_file_no:DWORD
EXTRN	_srand48:PROC
EXTRN	_srand:PROC
EXTRN	_random_seed:DWORD
EXTRN	_default_random_seed:DWORD
EXTRN	_reset_skeleton:PROC
EXTRN	_initialize_perm_globals:PROC
EXTRN	_clear_globals:PROC
EXTRN	_clear_symtable:PROC
EXTRN	_list_free_all:PROC
EXTRN	_free_all_q_info:PROC
EXTRN	_clip_coeff_set_flag:DWORD
EXTRN	_slice_coeff_set_flag:DWORD
EXTRN	_clip_coeff:BYTE
EXTRN	_one_sided_lagrange_attr:DWORD
EXTRN	_one_sided_present:DWORD
EXTRN	_quantity_function_sparse_flag:DWORD
EXTRN	_some_no_transforms_flag:DWORD
EXTRN	_clip_view_flag:DWORD
EXTRN	_slice_view_flag:DWORD
EXTRN	_slice_coeff:BYTE
EXTRN	_view_transforms:DWORD
EXTRN	_view_transform_gens_expr:DWORD
EXTRN	_view_transform_gens:DWORD
EXTRN	_transform_gen_count:DWORD
EXTRN	_facet_diffusion_attr:DWORD
EXTRN	_edge_diffusion_attr:DWORD
EXTRN	_quarter_turn_var:DWORD
EXTRN	_lmc_mobility_attr:DWORD
EXTRN	_lmc_mc_attr:DWORD
EXTRN	_raw_velocity_attr:DWORD
EXTRN	_suppress_erroutstring:DWORD
EXTRN	_detorus_sticky:DWORD
EXTRN	_f_partition_proc_attr:DWORD
EXTRN	_e_partition_proc_attr:DWORD
EXTRN	_v_partition_proc_attr:DWORD
EXTRN	_f_partition_stage_attr:DWORD
EXTRN	_e_partition_stage_attr:DWORD
EXTRN	_v_partition_stage_attr:DWORD
EXTRN	_opacity_attr:DWORD
EXTRN	_facet_alpha_flag:DWORD
EXTRN	_break_on_warning:DWORD
EXTRN	_bounding_box_color:DWORD
EXTRN	_window_aspect_ratio:QWORD
EXTRN	_box_flag:DWORD
EXTRN	_BK_flag:DWORD
EXTRN	_facet_alpha:QWORD
EXTRN	_realloc:PROC
EXTRN	_thread_data_ptrs:DWORD
EXTRN	_nprocs:DWORD
EXTRN	_little_endian_flag:DWORD
EXTRN	_former_torus_display_mode:DWORD
EXTRN	_torus_display_mode:DWORD
EXTRN	_display_text_count:DWORD
EXTRN	_token_count:DWORD
EXTRN	_dymemsize:DWORD
EXTRN	_text_chunks:BYTE
EXTRN	_unload_libraries:PROC
EXTRN	_memset:PROC
;	COMDAT __real@40f869f000000000
; File c:\levolver\yonkang-sefit\levolver\ev_ogl\lexinit.c
CONST	SEGMENT
__real@40f869f000000000 DQ 040f869f000000000r	; 99999
CONST	ENDS
;	COMDAT __real@3d719799812dea11
CONST	SEGMENT
__real@3d719799812dea11 DQ 03d719799812dea11r	; 1e-012
CONST	ENDS
;	COMDAT __real@3ff6666666666666
CONST	SEGMENT
__real@3ff6666666666666 DQ 03ff6666666666666r	; 1.4
CONST	ENDS
;	COMDAT __real@3fd0000000000000
CONST	SEGMENT
__real@3fd0000000000000 DQ 03fd0000000000000r	; 0.25
CONST	ENDS
;	COMDAT ??_C@_04GOEDGNCF@area?$AA@
CONST	SEGMENT
??_C@_04GOEDGNCF@area?$AA@ DB 'area', 00H		; `string'
CONST	ENDS
;	COMDAT __real@3fb999999999999a
CONST	SEGMENT
__real@3fb999999999999a DQ 03fb999999999999ar	; 0.1
CONST	ENDS
;	COMDAT __real@3fa999999999999a
CONST	SEGMENT
__real@3fa999999999999a DQ 03fa999999999999ar	; 0.05
CONST	ENDS
;	COMDAT __real@3eb0c6f7a0b5ed8d
CONST	SEGMENT
__real@3eb0c6f7a0b5ed8d DQ 03eb0c6f7a0b5ed8dr	; 1e-006
CONST	ENDS
;	COMDAT __real@3fe0000000000000
CONST	SEGMENT
__real@3fe0000000000000 DQ 03fe0000000000000r	; 0.5
CONST	ENDS
;	COMDAT __real@3f1a36e2eb1c432d
CONST	SEGMENT
__real@3f1a36e2eb1c432d DQ 03f1a36e2eb1c432dr	; 0.0001
CONST	ENDS
;	COMDAT __real@3fe4cccccccccccd
CONST	SEGMENT
__real@3fe4cccccccccccd DQ 03fe4cccccccccccdr	; 0.65
CONST	ENDS
;	COMDAT __real@4000000000000000
CONST	SEGMENT
__real@4000000000000000 DQ 04000000000000000r	; 2
CONST	ENDS
;	COMDAT __real@3f50624dd2f1a9fc
CONST	SEGMENT
__real@3f50624dd2f1a9fc DQ 03f50624dd2f1a9fcr	; 0.001
CONST	ENDS
;	COMDAT __real@3f647ae147ae147b
CONST	SEGMENT
__real@3f647ae147ae147b DQ 03f647ae147ae147br	; 0.0025
CONST	ENDS
;	COMDAT __real@3f589374bc6a7efa
CONST	SEGMENT
__real@3f589374bc6a7efa DQ 03f589374bc6a7efar	; 0.0015
CONST	ENDS
;	COMDAT __real@3f60624dd2f1a9fc
CONST	SEGMENT
__real@3f60624dd2f1a9fc DQ 03f60624dd2f1a9fcr	; 0.002
CONST	ENDS
;	COMDAT __real@4008000000000000
CONST	SEGMENT
__real@4008000000000000 DQ 04008000000000000r	; 3
CONST	ENDS
;	COMDAT ??_C@_05MHOFLBOO@stdin?$AA@
CONST	SEGMENT
??_C@_05MHOFLBOO@stdin?$AA@ DB 'stdin', 00H		; `string'
CONST	ENDS
;	COMDAT ??_C@_09JGPPFAML@LEXINIT?4C?$AA@
CONST	SEGMENT
??_C@_09JGPPFAML@LEXINIT?4C?$AA@ DB 'LEXINIT.C', 00H	; `string'
CONST	ENDS
;	COMDAT __real@0000000000000000
CONST	SEGMENT
__real@0000000000000000 DQ 00000000000000000r	; 0
CONST	ENDS
;	COMDAT __real@3ff0000000000000
CONST	SEGMENT
__real@3ff0000000000000 DQ 03ff0000000000000r	; 1
CONST	ENDS
;	COMDAT __real@41684bfe477e06cc
CONST	SEGMENT
__real@41684bfe477e06cc DQ 041684bfe477e06ccr	; 1.27385e+007
; Function compile flags: /Ogtp
CONST	ENDS
;	COMDAT _reset_web
_TEXT	SEGMENT
_stack_used$89378 = -16					; size = 4
_bflag$ = -12						; size = 4
_cflag$ = -8						; size = 4
_sdim$89464 = -4					; size = 4
_i$ = -4						; size = 4
_reset_web PROC						; COMDAT

; 29   : {

	push	ebp
	mov	ebp, esp
	sub	esp, 16					; 00000010H

; 30   :   int i,j;
; 31   :   int cflag = web.torus_clip_flag;

	mov	eax, DWORD PTR _web+800

; 32   :   int bflag = web.torus_body_flag;

	mov	ecx, DWORD PTR _web+804
	push	ebx
	push	esi
	push	edi
	mov	DWORD PTR _cflag$[ebp], eax
	mov	DWORD PTR _bflag$[ebp], ecx

; 33   : 
; 34   :   
; 35   :   unload_libraries(); /* unload dynamic libraries */

	call	_unload_libraries

; 36   :   dymemsize = 0;

	xor	ebx, ebx

; 37   :   dymem = NULL; 
; 38   :   token_count = 0;
; 39   :   display_text_count = 0;
; 40   :   memset(text_chunks,0,sizeof(text_chunks));

	push	3200					; 00000c80H
	push	ebx
	push	OFFSET _text_chunks
	mov	DWORD PTR _dymemsize, ebx
	mov	DWORD PTR _dymem, ebx
	mov	DWORD PTR _token_count, ebx
	mov	DWORD PTR _display_text_count, ebx
	call	_memset

; 41   :  
; 42   :   if ( torus_display_mode )

	mov	eax, DWORD PTR _torus_display_mode
	add	esp, 12					; 0000000cH
	cmp	eax, ebx
	je	SHORT $LN18@reset_web

; 43   :     former_torus_display_mode = torus_display_mode;

	mov	DWORD PTR _former_torus_display_mode, eax
$LN18@reset_web:

; 44   : 
; 45   :   i = 1;
; 46   :   if ( ((char*)&i)[0] ) little_endian_flag = 1;
; 47   :   else big_endian_flag = 1;
; 48   : 
; 49   :   /* cut down overgrown eval stacks */
; 50   :   for ( i = 0 ; i < nprocs ; i++ )

	xor	edx, edx
	mov	edi, 1
	mov	DWORD PTR _little_endian_flag, edi
	mov	DWORD PTR _i$[ebp], edx
	cmp	DWORD PTR _nprocs, ebx
	jle	SHORT $LN13@reset_web
$LL15@reset_web:

; 51   :   { struct thread_data *td = thread_data_ptrs[i];

	mov	eax, DWORD PTR _thread_data_ptrs
	mov	esi, DWORD PTR [eax+edx*4]

; 52   :     int stack_used = (int)(td->stack_top - td->eval_stack);

	mov	ecx, DWORD PTR [esi+40]
	mov	eax, DWORD PTR [esi+48]
	sub	eax, ecx
	sar	eax, 3
	mov	DWORD PTR _stack_used$89378[ebp], eax

; 53   :     if ( td->eval_stack_size > stack_used + 1000 )

	add	eax, 1000				; 000003e8H
	cmp	DWORD PTR [esi+44], eax
	jle	SHORT $LN14@reset_web

; 54   :     { td->eval_stack_size = stack_used + 1000;
; 55   :       td->eval_stack = 
; 56   :           (REAL*)realloc(td->eval_stack,td->eval_stack_size*sizeof(REAL));

	lea	edx, DWORD PTR [eax*8]
	push	edx
	push	ecx
	mov	DWORD PTR [esi+44], eax
	call	_realloc

; 57   :       td->stack_top = td->eval_stack + stack_used;
; 58   :       td->eval_stack[td->eval_stack_size-1] = STACKMAGIC;

	fld	QWORD PTR __real@41684bfe477e06cc
	mov	ecx, DWORD PTR _stack_used$89378[ebp]
	lea	edx, DWORD PTR [eax+ecx*8]
	mov	ecx, DWORD PTR [esi+44]
	mov	DWORD PTR [esi+48], edx
	mov	edx, DWORD PTR _i$[ebp]
	mov	DWORD PTR [esi+40], eax
	fstp	QWORD PTR [eax+ecx*8-8]
	add	esp, 8
$LN14@reset_web:

; 44   : 
; 45   :   i = 1;
; 46   :   if ( ((char*)&i)[0] ) little_endian_flag = 1;
; 47   :   else big_endian_flag = 1;
; 48   : 
; 49   :   /* cut down overgrown eval stacks */
; 50   :   for ( i = 0 ; i < nprocs ; i++ )

	add	edx, edi
	mov	DWORD PTR _i$[ebp], edx
	cmp	edx, DWORD PTR _nprocs
	jl	SHORT $LL15@reset_web
$LN13@reset_web:

; 59   :     }
; 60   : //    td->stack_top = td->eval_stack;  // don't chop, in case of permload
; 61   :   }   
; 62   : 
; 63   :   /* reset nonzero flags and stuff */
; 64   : 
; 65   :   BK_flag = 0;
; 66   :   box_flag = 0;
; 67   :   bounding_box_color = BLUE;
; 68   :   break_on_warning = 0;
; 69   :   facet_alpha = 1;

	fld1

; 70   :   facet_alpha_flag = 0;
; 71   :   opacity_attr = 0;
; 72   :   v_partition_stage_attr = -1;

	or	esi, -1
	fstp	QWORD PTR _facet_alpha
	mov	DWORD PTR _BK_flag, ebx

; 73   :   e_partition_stage_attr = -1;
; 74   :   f_partition_stage_attr = -1;
; 75   :   v_partition_proc_attr = -1;
; 76   :   e_partition_proc_attr = -1;
; 77   :   f_partition_proc_attr = -1;
; 78   :   detorus_sticky = 1;
; 79   :   suppress_erroutstring = 0;
; 80   :   raw_velocity_attr = -1;
; 81   :   lmc_mc_attr = -1; 
; 82   :   lmc_mobility_attr = -1;
; 83   :   quarter_turn_var = -1;
; 84   :   edge_diffusion_attr = -1;
; 85   :   facet_diffusion_attr = -1;
; 86   :   window_aspect_ratio = 0.0;  /* signifying not used */

	fldz
	mov	DWORD PTR _box_flag, ebx
	fstp	QWORD PTR _window_aspect_ratio
	mov	DWORD PTR _bounding_box_color, edi
	mov	DWORD PTR _break_on_warning, ebx
	mov	DWORD PTR _facet_alpha_flag, ebx
	mov	DWORD PTR _opacity_attr, ebx
	mov	DWORD PTR _v_partition_stage_attr, esi
	mov	DWORD PTR _e_partition_stage_attr, esi
	mov	DWORD PTR _f_partition_stage_attr, esi
	mov	DWORD PTR _v_partition_proc_attr, esi
	mov	DWORD PTR _e_partition_proc_attr, esi
	mov	DWORD PTR _f_partition_proc_attr, esi
	mov	DWORD PTR _detorus_sticky, edi
	mov	DWORD PTR _suppress_erroutstring, ebx
	mov	DWORD PTR _raw_velocity_attr, esi
	mov	DWORD PTR _lmc_mc_attr, esi
	mov	DWORD PTR _lmc_mobility_attr, esi
	mov	DWORD PTR _quarter_turn_var, esi
	mov	DWORD PTR _edge_diffusion_attr, esi
	mov	DWORD PTR _facet_diffusion_attr, esi

; 87   :   transform_gen_count = 0;

	mov	DWORD PTR _transform_gen_count, ebx

; 88   :   view_transform_gens = NULL;

	mov	DWORD PTR _view_transform_gens, ebx

; 89   :   view_transform_gens_expr = NULL;

	mov	DWORD PTR _view_transform_gens_expr, ebx

; 90   :   view_transforms = NULL;

	mov	DWORD PTR _view_transforms, ebx

; 91   :   if ( !bflag && !cflag )

	cmp	DWORD PTR _bflag$[ebp], ebx
	jne	SHORT $LN11@reset_web
	cmp	DWORD PTR _cflag$[ebp], ebx
	jne	SHORT $LN11@reset_web

; 92   :     torus_display_mode = TORUS_DEFAULT_MODE; 

	mov	DWORD PTR _torus_display_mode, ebx
$LN11@reset_web:

; 93   :   slice_view_flag = 0;
; 94   :   clip_view_flag = 0;
; 95   :   some_no_transforms_flag = 0;
; 96   :   quantity_function_sparse_flag = 1;
; 97   :   one_sided_present = 0;
; 98   :   one_sided_lagrange_attr = -1;
; 99   : 
; 100  :   memset(slice_coeff,0,sizeof(slice_coeff));

	push	64					; 00000040H
	push	ebx
	push	OFFSET _slice_coeff
	mov	DWORD PTR _slice_view_flag, ebx
	mov	DWORD PTR _clip_view_flag, ebx
	mov	DWORD PTR _some_no_transforms_flag, ebx
	mov	DWORD PTR _quantity_function_sparse_flag, edi
	mov	DWORD PTR _one_sided_present, ebx
	mov	DWORD PTR _one_sided_lagrange_attr, esi
	call	_memset

; 101  :   memset(clip_coeff,0,sizeof(clip_coeff));

	push	640					; 00000280H
	push	ebx
	push	OFFSET _clip_coeff
	call	_memset

; 102  :   clip_coeff[0][0] = 1.0;

	fld1
	fstp	QWORD PTR _clip_coeff

; 103  :   slice_coeff_set_flag = 0;

	mov	DWORD PTR _slice_coeff_set_flag, ebx

; 104  :   clip_coeff_set_flag = 0;

	mov	DWORD PTR _clip_coeff_set_flag, ebx

; 105  : 
; 106  :   free_all_q_info();

	call	_free_all_q_info

; 107  :   list_free_all(PERM_BLOCK);  /* get rid of everything */

	push	43947					; 0000ababH
	call	_list_free_all

; 108  : 
; 109  :   clear_symtable();

	call	_clear_symtable

; 110  :   clear_globals();  /* need this to reset global name hash table */

	call	_clear_globals

; 111  :   initialize_perm_globals(); /* put some internal variable names in permanent symbol table */

	call	_initialize_perm_globals

; 112  : 
; 113  :   reset_skeleton();  /* cleans out web and resets to 0 */

	call	_reset_skeleton

; 114  : 
; 115  : #ifdef MPI_EVOLVER
; 116  :   mpi_reset();
; 117  : #endif
; 118  : 
; 119  : #ifdef MPI_EVOLVER
; 120  :  random_seed = default_random_seed+this_task;  
; 121  : #else
; 122  :  random_seed = default_random_seed;  

	mov	eax, DWORD PTR _default_random_seed

; 123  : #endif
; 124  :   srand(random_seed); srand48(random_seed);

	push	eax
	mov	DWORD PTR _random_seed, eax
	call	_srand
	mov	edx, DWORD PTR _random_seed
	push	edx
	call	_srand48

; 125  : 
; 126  :   file_no = 0;
; 127  :   file_no_max = 12;
; 128  :   file_names = (char**)mycalloc(file_no_max,sizeof(char**));

	push	128					; 00000080H
	push	OFFSET ??_C@_09JGPPFAML@LEXINIT?4C?$AA@
	push	4
	push	12					; 0000000cH
	mov	DWORD PTR _file_no, ebx
	mov	DWORD PTR _file_no_max, 12		; 0000000cH
	call	_kb_calloc

; 129  :   file_names[0] = "stdin";
; 130  :   file_no_used = 1;
; 131  : 
; 132  :   addload_flag = 0;
; 133  :   replace_load_flag = 0;
; 134  :   verbose_flag = 0;
; 135  :   estimate_flag = 0;
; 136  :   warning_messages = NULL;
; 137  :   warning_messages_max = 0;
; 138  :   warning_messages_new = 0;
; 139  :   memset((char*)pbase,0,sizeof(pbase));

	push	576					; 00000240H
	mov	DWORD PTR _file_names, eax
	mov	DWORD PTR [eax], OFFSET ??_C@_05MHOFLBOO@stdin?$AA@
	push	ebx
	push	OFFSET _pbase
	mov	DWORD PTR _file_no_used, edi
	mov	DWORD PTR _addload_flag, ebx
	mov	DWORD PTR _replace_load_flag, ebx
	mov	DWORD PTR _verbose_flag, ebx
	mov	DWORD PTR _estimate_flag, ebx
	mov	DWORD PTR _warning_messages, ebx
	mov	DWORD PTR _warning_messages_max, ebx
	mov	DWORD PTR _warning_messages_new, ebx
	call	_memset
	add	esp, 64					; 00000040H

; 140  :   memset((char*)pmax,0,sizeof(pmax));

	push	576					; 00000240H
	push	ebx
	push	OFFSET _pmax
	call	_memset

; 141  :   vhead = NULL;
; 142  :   vproj_base = NULL; 
; 143  :   vproj_space = NULL;
; 144  :   conhess_base = NULL;
; 145  :   pressures = NULL;
; 146  :   conrhs = NULL;
; 147  :   optparam_congrads = NULL;
; 148  :   rleftside = NULL;
; 149  :   ritzvecs = NULL;
; 150  :   tgverts = NULL;
; 151  :   thread_stages = NULL;
; 152  :   mpi_show_corona_flag = 0;
; 153  :   edgeshow_flag = 1;
; 154  : 
; 155  :   /* Following PostScript line width variables relative to page size */
; 156  :   ps_labelsize = 3.0;

	fld	QWORD PTR __real@4008000000000000
	fstp	QWORD PTR _ps_labelsize
	mov	DWORD PTR _vhead, ebx

; 157  :   ps_stringwidth = 0.002;  /* default edge width */

	fld	QWORD PTR __real@3f60624dd2f1a9fc
	mov	DWORD PTR _vproj_base, ebx
	fst	QWORD PTR _ps_stringwidth
	mov	DWORD PTR _vproj_space, ebx

; 158  :   ps_fixededgewidth = 0.002;

	fst	QWORD PTR _ps_fixededgewidth
	mov	DWORD PTR _conhess_base, ebx

; 159  :   ps_tripleedgewidth = 0.0015;

	fld	QWORD PTR __real@3f589374bc6a7efa
	mov	DWORD PTR _pressures, ebx
	fstp	QWORD PTR _ps_tripleedgewidth
	mov	DWORD PTR _conrhs, ebx
	mov	DWORD PTR _optparam_congrads, ebx

; 160  :   ps_conedgewidth = 0.002;

	fstp	QWORD PTR _ps_conedgewidth
	mov	DWORD PTR _rleftside, ebx

; 161  :   ps_bareedgewidth = 0.0025;

	fld	QWORD PTR __real@3f647ae147ae147b
	mov	DWORD PTR _ritzvecs, ebx
	fstp	QWORD PTR _ps_bareedgewidth
	mov	DWORD PTR _tgverts, ebx
	mov	DWORD PTR _thread_stages, ebx
	mov	DWORD PTR _mpi_show_corona_flag, ebx
	mov	DWORD PTR _edgeshow_flag, edi

; 162  :   ps_gridedgewidth = 0.001;
; 163  : 
; 164  :   for ( i = 0 ; i < MAXLAGRANGE ; i++ )
; 165  :   { bezier1invert[i] = NULL;
; 166  :     bezier1revert[i] = NULL;
; 167  :     bezier_refine_1d[i] = NULL;
; 168  :     bezier2invert[i] = NULL;
; 169  :     bezier2revert[i] = NULL;
; 170  :     bezier_refine_2d[i] = NULL;

	xor	eax, eax
	fld	QWORD PTR __real@3f50624dd2f1a9fc
	fstp	QWORD PTR _ps_gridedgewidth
	mov	DWORD PTR _bezier_refine_2d, eax
	mov	DWORD PTR _bezier_refine_2d+4, eax
	mov	DWORD PTR _bezier_refine_2d+8, eax
	mov	DWORD PTR _bezier_refine_2d+12, eax
	mov	DWORD PTR _bezier_refine_2d+16, eax
	mov	DWORD PTR _bezier_refine_2d+20, eax
	mov	DWORD PTR _bezier_refine_2d+24, eax
	mov	DWORD PTR _bezier_refine_2d+28, eax
	mov	DWORD PTR _bezier_refine_2d+32, eax
	mov	DWORD PTR _bezier_refine_2d+36, eax
	mov	DWORD PTR _bezier_refine_2d+40, eax
	mov	DWORD PTR _bezier_refine_2d+44, eax
	mov	DWORD PTR _bezier_refine_2d+48, eax
	mov	DWORD PTR _bezier_refine_2d+52, eax
	mov	DWORD PTR _bezier_refine_2d+56, eax
	mov	DWORD PTR _bezier_refine_2d+60, eax
	mov	DWORD PTR _bezier_refine_2d+64, eax
	mov	DWORD PTR _bezier_refine_2d+68, eax
	mov	DWORD PTR _bezier_refine_2d+72, eax
	mov	DWORD PTR _bezier_refine_2d+76, eax
	mov	DWORD PTR _bezier2revert, eax
	mov	DWORD PTR _bezier2revert+4, eax
	mov	DWORD PTR _bezier2revert+8, eax
	mov	DWORD PTR _bezier2revert+12, eax
	mov	DWORD PTR _bezier2revert+16, eax
	mov	DWORD PTR _bezier2revert+20, eax
	mov	DWORD PTR _bezier2revert+24, eax
	mov	DWORD PTR _bezier2revert+28, eax
	mov	DWORD PTR _bezier2revert+32, eax
	mov	DWORD PTR _bezier2revert+36, eax
	mov	DWORD PTR _bezier2revert+40, eax
	mov	DWORD PTR _bezier2revert+44, eax
	mov	DWORD PTR _bezier2revert+48, eax
	mov	DWORD PTR _bezier2revert+52, eax
	mov	DWORD PTR _bezier2revert+56, eax
	mov	DWORD PTR _bezier2revert+60, eax
	mov	DWORD PTR _bezier2revert+64, eax
	mov	DWORD PTR _bezier2revert+68, eax
	mov	DWORD PTR _bezier2revert+72, eax
	mov	DWORD PTR _bezier2revert+76, eax
	mov	DWORD PTR _bezier2invert, eax
	mov	DWORD PTR _bezier2invert+4, eax
	mov	DWORD PTR _bezier2invert+8, eax
	mov	DWORD PTR _bezier2invert+12, eax
	mov	DWORD PTR _bezier2invert+16, eax
	mov	DWORD PTR _bezier2invert+20, eax
	mov	DWORD PTR _bezier2invert+24, eax
	mov	DWORD PTR _bezier2invert+28, eax
	mov	DWORD PTR _bezier2invert+32, eax
	mov	DWORD PTR _bezier2invert+36, eax
	mov	DWORD PTR _bezier2invert+40, eax
	mov	DWORD PTR _bezier2invert+44, eax
	mov	DWORD PTR _bezier2invert+48, eax
	mov	DWORD PTR _bezier2invert+52, eax
	mov	DWORD PTR _bezier2invert+56, eax
	mov	DWORD PTR _bezier2invert+60, eax
	mov	DWORD PTR _bezier2invert+64, eax
	mov	DWORD PTR _bezier2invert+68, eax
	mov	DWORD PTR _bezier2invert+72, eax
	mov	DWORD PTR _bezier2invert+76, eax
	mov	DWORD PTR _bezier_refine_1d, eax
	mov	DWORD PTR _bezier_refine_1d+4, eax
	mov	DWORD PTR _bezier_refine_1d+8, eax
	mov	DWORD PTR _bezier_refine_1d+12, eax
	mov	DWORD PTR _bezier_refine_1d+16, eax
	mov	DWORD PTR _bezier_refine_1d+20, eax
	mov	DWORD PTR _bezier_refine_1d+24, eax
	mov	DWORD PTR _bezier_refine_1d+28, eax
	mov	DWORD PTR _bezier_refine_1d+32, eax
	mov	DWORD PTR _bezier_refine_1d+36, eax
	mov	DWORD PTR _bezier_refine_1d+40, eax
	mov	DWORD PTR _bezier_refine_1d+44, eax
	mov	DWORD PTR _bezier_refine_1d+48, eax
	mov	DWORD PTR _bezier_refine_1d+52, eax
	mov	DWORD PTR _bezier_refine_1d+56, eax
	mov	DWORD PTR _bezier_refine_1d+60, eax
	mov	DWORD PTR _bezier_refine_1d+64, eax
	mov	DWORD PTR _bezier_refine_1d+68, eax

; 171  :   }
; 172  :   string_curve_tolerance = 2.0; /* degrees */

	fld	QWORD PTR __real@4000000000000000

; 173  : 
; 174  :   dont_resize_flag = 0;
; 175  :   local_nest_depth = 0;
; 176  :   extra_bdry_attr = 0;
; 177  :   extra_bdry_param_attr = 0;
; 178  :   memset((char*)show_command,0,sizeof(show_command));

	push	520					; 00000208H
	push	ebx
	fstp	QWORD PTR _string_curve_tolerance
	push	OFFSET _show_command
	mov	DWORD PTR _bezier_refine_1d+72, eax
	mov	DWORD PTR _bezier_refine_1d+76, eax
	mov	DWORD PTR _bezier1revert, eax
	mov	DWORD PTR _bezier1revert+4, eax
	mov	DWORD PTR _bezier1revert+8, eax
	mov	DWORD PTR _bezier1revert+12, eax
	mov	DWORD PTR _bezier1revert+16, eax
	mov	DWORD PTR _bezier1revert+20, eax
	mov	DWORD PTR _bezier1revert+24, eax
	mov	DWORD PTR _bezier1revert+28, eax
	mov	DWORD PTR _bezier1revert+32, eax
	mov	DWORD PTR _bezier1revert+36, eax
	mov	DWORD PTR _bezier1revert+40, eax
	mov	DWORD PTR _bezier1revert+44, eax
	mov	DWORD PTR _bezier1revert+48, eax
	mov	DWORD PTR _bezier1revert+52, eax
	mov	DWORD PTR _bezier1revert+56, eax
	mov	DWORD PTR _bezier1revert+60, eax
	mov	DWORD PTR _bezier1revert+64, eax
	mov	DWORD PTR _bezier1revert+68, eax
	mov	DWORD PTR _bezier1revert+72, eax
	mov	DWORD PTR _bezier1revert+76, eax
	mov	DWORD PTR _bezier1invert, eax
	mov	DWORD PTR _bezier1invert+4, eax
	mov	DWORD PTR _bezier1invert+8, eax
	mov	DWORD PTR _bezier1invert+12, eax
	mov	DWORD PTR _bezier1invert+16, eax
	mov	DWORD PTR _bezier1invert+20, eax
	mov	DWORD PTR _bezier1invert+24, eax
	mov	DWORD PTR _bezier1invert+28, eax
	mov	DWORD PTR _bezier1invert+32, eax
	mov	DWORD PTR _bezier1invert+36, eax
	mov	DWORD PTR _bezier1invert+40, eax
	mov	DWORD PTR _bezier1invert+44, eax
	mov	DWORD PTR _bezier1invert+48, eax
	mov	DWORD PTR _bezier1invert+52, eax
	mov	DWORD PTR _bezier1invert+56, eax
	mov	DWORD PTR _bezier1invert+60, eax
	mov	DWORD PTR _bezier1invert+64, eax
	mov	DWORD PTR _bezier1invert+68, eax
	mov	DWORD PTR _bezier1invert+72, eax
	mov	DWORD PTR _bezier1invert+76, eax
	mov	DWORD PTR _dont_resize_flag, ebx
	mov	DWORD PTR _local_nest_depth, ebx
	mov	DWORD PTR _extra_bdry_attr, ebx
	mov	DWORD PTR _extra_bdry_param_attr, ebx
	call	_memset
	add	esp, 24					; 00000018H

; 179  :   macro_subs = NULL;
; 180  :   macros = NULL;
; 181  :   vpicklist = NULL;
; 182  :   fpicklist = NULL;
; 183  :   cg_hvector = NULL;
; 184  :   f_sums = NULL;
; 185  :   bi_sums = NULL;
; 186  :   listmax = 0; list = NULL; permlist = NULL;
; 187  :   if ( option_q == 2 ) option_q = 0;

	cmp	DWORD PTR _option_q, 2
	mov	DWORD PTR _macro_subs, ebx
	mov	DWORD PTR _macros, ebx
	mov	DWORD PTR _vpicklist, ebx
	mov	DWORD PTR _fpicklist, ebx
	mov	DWORD PTR _cg_hvector, ebx
	mov	DWORD PTR _f_sums, ebx
	mov	DWORD PTR _bi_sums, ebx
	mov	DWORD PTR _listmax, ebx
	mov	DWORD PTR _list, ebx
	mov	DWORD PTR _permlist, ebx
	jne	SHORT $LN7@reset_web
	mov	DWORD PTR _option_q, ebx
$LN7@reset_web:

; 188  :   area_method_name[0] = 0;
; 189  :   length_method_name[0] = 0;
; 190  :   volume_method_name[0] = 0;
; 191  :   uminus_flag = 0;
; 192  :   inputsave_flag = 0;
; 193  :   check_count = 0;
; 194  :   bad_next_prev_count = 0;
; 195  :   inconsistent_bodies_count = 0;
; 196  :   edge_loop_count = 0;
; 197  :   edges_same_vertices_count = 0;
; 198  :   facets_same_vertices_count = 0;
; 199  :   bad_errors_count = 0; 
; 200  :   hessian_slant_cutoff = 0.0;

	fldz
	mov	BYTE PTR _area_method_name, bl
	fst	QWORD PTR _hessian_slant_cutoff
	mov	BYTE PTR _length_method_name, bl

; 201  :   hessian_epsilon = hessian_epsilon_default;

	fld	QWORD PTR _hessian_epsilon_default
	mov	BYTE PTR _volume_method_name, bl
	fstp	QWORD PTR _hessian_epsilon
	mov	DWORD PTR _uminus_flag, ebx

; 202  :   #ifdef MPI_EVOLVER
; 203  :   sparse_constraints_flag = 0;
; 204  :   augmented_hessian_flag = 1;
; 205  :   #else
; 206  :   sparse_constraints_flag = 1;
; 207  :   augmented_hessian_flag = -1;
; 208  :   #endif
; 209  :   blas_flag = 0;
; 210  :   last_error = 0;
; 211  :   check_increase_flag = 0;
; 212  :   brightness = DEFAULT_BRIGHTNESS;

	fld	QWORD PTR __real@3fe4cccccccccccd
	mov	DWORD PTR _inputsave_flag, ebx
	fstp	QWORD PTR _brightness
	mov	DWORD PTR _check_count, ebx

; 213  :   volgrads_every_flag = 0;
; 214  :   zener_drag_flag = 0 ;
; 215  :   pickvnum = pickenum = pickfnum = 0;
; 216  :   keep_macros_flag = 0;
; 217  :   needed_version[0] = 0;
; 218  :   new_vertex_id = new_edge_id = new_facet_id = new_body_id = 0;
; 219  :   sqcurve_ignore_constr = 0;
; 220  :   ackerman_flag = 0;
; 221  :   ps_colorflag = -1;
; 222  :   ps_cmykflag = 0;
; 223  :   boundary_expr_flag = 0;
; 224  :   gridflag = -1;
; 225  :   force_edgeswap_flag = 0;
; 226  :   septum_flag = -1;
; 227  :   crossingflag = -1;
; 228  :   labelflag = -1;
; 229  :   web.target_tolerance = DEFAULT_TARGET_TOLERANCE;

	fld	QWORD PTR __real@3f1a36e2eb1c432d
	mov	DWORD PTR _bad_next_prev_count, ebx
	fstp	QWORD PTR _web+760
	mov	DWORD PTR _inconsistent_bodies_count, ebx

; 230  :   web.highcon = -1;
; 231  :   web.highbdry = -1;
; 232  :   autorecalc_flag = 1;
; 233  :   circular_arc_flag = 0;
; 234  :   spherical_arc_flag = 0;
; 235  :   rgb_colors_flag = 0;
; 236  :   kraynikpopedge_flag = 0;
; 237  :   kraynikpopvertex_flag = 1;
; 238  :   interp_bdry_param = 0;
; 239  :   web.headvnum = 1;
; 240  :   thickness = .001;

	fld	QWORD PTR __real@3f50624dd2f1a9fc
	mov	DWORD PTR _edge_loop_count, ebx
	fstp	QWORD PTR _thickness
	mov	DWORD PTR _edges_same_vertices_count, ebx
	mov	DWORD PTR _facets_same_vertices_count, ebx
	mov	DWORD PTR _bad_errors_count, ebx

; 241  :   user_thickness_flag = 0;
; 242  :   last_eigenvalue = 0.0;

	fst	QWORD PTR _last_eigenvalue
	mov	DWORD PTR _sparse_constraints_flag, edi

; 243  :   last_hessian_scale = 0.0;

	fstp	QWORD PTR _last_hessian_scale
	mov	DWORD PTR _augmented_hessian_flag, esi

; 244  :   optparamcount = 0;
; 245  :   thickenflag = 0;
; 246  :   rotorder_var = -1;
; 247  :   quantities_only_flag = everything_quantities_flag = 0;
; 248  :   linear_metric_mix = .50;

	fld	QWORD PTR __real@3fe0000000000000
	mov	DWORD PTR _blas_flag, ebx
	fstp	QWORD PTR _linear_metric_mix
	mov	DWORD PTR _last_error, ebx
	mov	DWORD PTR _check_increase_flag, ebx
	mov	DWORD PTR _volgrads_every_flag, ebx
	mov	DWORD PTR _zener_drag_flag, ebx
	mov	DWORD PTR _pickfnum, ebx
	mov	DWORD PTR _pickenum, ebx
	mov	DWORD PTR _pickvnum, ebx
	mov	DWORD PTR _keep_macros_flag, ebx
	mov	BYTE PTR _needed_version, bl
	mov	DWORD PTR _new_body_id, ebx
	mov	DWORD PTR _new_facet_id, ebx
	mov	DWORD PTR _new_edge_id, ebx
	mov	DWORD PTR _new_vertex_id, ebx
	mov	DWORD PTR _sqcurve_ignore_constr, ebx
	mov	DWORD PTR _ackerman_flag, ebx
	mov	DWORD PTR _ps_colorflag, esi
	mov	DWORD PTR _ps_cmykflag, ebx
	mov	DWORD PTR _boundary_expr_flag, ebx
	mov	DWORD PTR _gridflag, esi
	mov	DWORD PTR _force_edgeswap_flag, ebx
	mov	DWORD PTR _septum_flag, esi
	mov	DWORD PTR _crossingflag, esi
	mov	DWORD PTR _labelflag, esi
	mov	DWORD PTR _web+648, esi
	mov	DWORD PTR _web+772, esi
	mov	DWORD PTR _autorecalc_flag, edi
	mov	DWORD PTR _circular_arc_flag, ebx
	mov	DWORD PTR _spherical_arc_flag, ebx
	mov	DWORD PTR _rgb_colors_flag, ebx
	mov	DWORD PTR _kraynikpopedge_flag, ebx
	mov	DWORD PTR _kraynikpopvertex_flag, edi
	mov	DWORD PTR _interp_bdry_param, ebx
	mov	DWORD PTR _web+636, edi
	mov	DWORD PTR _user_thickness_flag, ebx
	mov	DWORD PTR _optparamcount, ebx
	mov	DWORD PTR _thickenflag, ebx
	mov	DWORD PTR _rotorder_var, esi
	mov	DWORD PTR _everything_quantities_flag, ebx
	mov	DWORD PTR _quantities_only_flag, ebx

; 249  :   min_square_grad_flag = 0;

	mov	DWORD PTR _min_square_grad_flag, ebx

; 250  :   hessian_linear_metric_flag = 0;

	mov	DWORD PTR _hessian_linear_metric_flag, ebx

; 251  :   hess_move_con_flag = 1;

	mov	DWORD PTR _hess_move_con_flag, edi

; 252  :   eigen_neg = eigen_pos = eigen_zero = 0;

	mov	DWORD PTR _eigen_zero, ebx
	mov	DWORD PTR _eigen_pos, ebx
	mov	DWORD PTR _eigen_neg, ebx

; 253  :   innerflag = outerflag = 1;

	mov	DWORD PTR _outerflag, edi
	mov	DWORD PTR _innerflag, edi

; 254  :   normal_sq_mean_curvature_mi = -1;

	mov	DWORD PTR _normal_sq_mean_curvature_mi, esi

; 255  :   eff_area_sq_mean_curvature_mi = -1;

	mov	DWORD PTR _eff_area_sq_mean_curvature_mi, esi

; 256  :   sq_mean_curvature_mi = -1;

	mov	DWORD PTR _sq_mean_curvature_mi, esi

; 257  :   mix_sq_mean_curvature_mi = -1;

	mov	DWORD PTR _mix_sq_mean_curvature_mi, esi

; 258  :   star_normal_sq_mean_curvature_mi = -1;

	mov	DWORD PTR _star_normal_sq_mean_curvature_mi, esi

; 259  :   star_eff_area_sq_mean_curvature_mi = -1;
; 260  :   star_sq_mean_curvature_mi = -1;
; 261  :   gravity_quantity_num = -1;
; 262  :   sq_mean_curv_quantity_num = -1;
; 263  :   mean_curv_int_quantity_num = -1;
; 264  :   view_4D_flag = 0;
; 265  :   hessian_normal_flag = 1;
; 266  :   hessian_special_normal_flag = 0;
; 267  :   memset((char*)hessian_special_normal_expr,0,MAXCOORD*sizeof(struct expnode));

	push	624					; 00000270H
	push	ebx
	push	OFFSET _hessian_special_normal_expr
	mov	DWORD PTR _star_eff_area_sq_mean_curvature_mi, esi
	mov	DWORD PTR _star_sq_mean_curvature_mi, esi
	mov	DWORD PTR _gravity_quantity_num, esi
	mov	DWORD PTR _sq_mean_curv_quantity_num, esi
	mov	DWORD PTR _mean_curv_int_quantity_num, esi
	mov	DWORD PTR _view_4D_flag, ebx
	mov	DWORD PTR _hessian_normal_flag, edi
	mov	DWORD PTR _hessian_special_normal_flag, ebx
	call	_memset

; 268  :   hessian_normal_perp_flag = 0;
; 269  :   hessian_double_normal_flag = 0;
; 270  :   hessian_normal_one_flag = 0;
; 271  :   hessian_quiet_flag = 1;
; 272  :   hessian_by_diff_flag = 0;
; 273  :   hess_debug = 0;
; 274  :   mindeg_debug_level = 0;
; 275  :   dirichlet_flag = 0;
; 276  :   sobolev_flag = 0;
; 277  :   quiet_go_flag = 0;
; 278  :   quiet_flag = 0;
; 279  :   pressure_set_flag = 1;
; 280  :   self_similar_flag = 0;
; 281  :   make_pos_def_flag = 0;
; 282  :   datafile_view_flag = 0;
; 283  :   post_project_flag = 0;
; 284  :   read_command_flag = 0;
; 285  :   ribiere_flag = 1;
; 286  :   assume_oriented_flag = 0;
; 287  :   K_altitude_flag = 0;
; 288  :   conj_grad_flag = 0;
; 289  :   mobility_flag = mobility_tensor_flag = 0;
; 290  :   memset((void*)mobility_tensor,0,sizeof(mobility_tensor));

	push	3744					; 00000ea0H
	push	ebx
	push	OFFSET _mobility_tensor
	mov	DWORD PTR _hessian_normal_perp_flag, ebx
	mov	DWORD PTR _hessian_double_normal_flag, ebx
	mov	DWORD PTR _hessian_normal_one_flag, ebx
	mov	DWORD PTR _hessian_quiet_flag, edi
	mov	DWORD PTR _hessian_by_diff_flag, ebx
	mov	DWORD PTR _hess_debug, ebx
	mov	DWORD PTR _mindeg_debug_level, ebx
	mov	DWORD PTR _dirichlet_flag, ebx
	mov	DWORD PTR _sobolev_flag, ebx
	mov	DWORD PTR _quiet_go_flag, ebx
	mov	DWORD PTR _quiet_flag, ebx
	mov	DWORD PTR _pressure_set_flag, edi
	mov	DWORD PTR _self_similar_flag, ebx
	mov	DWORD PTR _make_pos_def_flag, ebx
	mov	DWORD PTR _datafile_view_flag, ebx
	mov	DWORD PTR _post_project_flag, ebx
	mov	DWORD PTR _read_command_flag, ebx
	mov	DWORD PTR _ribiere_flag, edi
	mov	DWORD PTR _assume_oriented_flag, ebx
	mov	DWORD PTR _K_altitude_flag, ebx
	mov	DWORD PTR _conj_grad_flag, ebx
	mov	DWORD PTR _mobility_tensor_flag, ebx
	mov	DWORD PTR _mobility_flag, ebx
	call	_memset

; 291  :   memset((void*)&mobility_formula,0,sizeof(mobility_formula));

	push	104					; 00000068H
	push	ebx
	push	OFFSET _mobility_formula
	call	_memset

; 292  :   memset((void*)elements_predicted,0,sizeof(elements_predicted));
; 293  :   quantities_predicted = 0;
; 294  :   method_instances_predicted = 0;
; 295  :   old_area_flag = 0;
; 296  :   area_fixed_flag = 0;
; 297  :   sqgauss_flag = 0;
; 298  :   square_curvature_flag = 0;
; 299  :   mean_curv_int_flag = 0;
; 300  :   boundary_curvature_flag = 0;
; 301  :   normal_curvature_flag = 0;
; 302  :   approx_curve_flag = 0;
; 303  :   kusner_flag = 0;
; 304  :   klein_metric_flag = 0;
; 305  :   conf_edge_curv_flag = 0;
; 306  :   effective_area_flag = 0;
; 307  :   autochop_flag = 0; 
; 308  :   autopop_flag = 0;
; 309  :   immediate_autopop_flag = 0;
; 310  :   autopop_quartic_flag = 0;
; 311  :   pop_disjoin_flag = 0;
; 312  :   pop_enjoin_flag = 0;
; 313  :   pop_to_edge_flag = 0;
; 314  :   pop_to_face_flag = 0;
; 315  :   runge_kutta_flag = 0;
; 316  :   web.dimension = 2;
; 317  :   web.representation = SOAPFILM;
; 318  :   web.skel[VERTEX].ctrlpts = 1;
; 319  :   web.skel[EDGE].ctrlpts = 2;
; 320  :   web.skel[FACET].ctrlpts = 3;
; 321  :   star_fraction = web.dimension + 1.0;

	fld	QWORD PTR __real@4008000000000000
	mov	esi, 2
	fstp	QWORD PTR _star_fraction
	mov	eax, 3
	add	esp, 36					; 00000024H
	mov	DWORD PTR _elements_predicted, ebx
	mov	DWORD PTR _elements_predicted+4, ebx
	mov	DWORD PTR _elements_predicted+8, ebx
	mov	DWORD PTR _elements_predicted+12, ebx
	mov	DWORD PTR _elements_predicted+16, ebx
	mov	DWORD PTR _quantities_predicted, ebx
	mov	DWORD PTR _method_instances_predicted, ebx
	mov	DWORD PTR _old_area_flag, ebx
	mov	DWORD PTR _area_fixed_flag, ebx
	mov	DWORD PTR _sqgauss_flag, ebx
	mov	DWORD PTR _square_curvature_flag, ebx
	mov	DWORD PTR _mean_curv_int_flag, ebx
	mov	DWORD PTR _boundary_curvature_flag, ebx
	mov	DWORD PTR _normal_curvature_flag, ebx
	mov	DWORD PTR _approx_curve_flag, ebx
	mov	DWORD PTR _kusner_flag, ebx
	mov	DWORD PTR _klein_metric_flag, ebx
	mov	DWORD PTR _conf_edge_curv_flag, ebx
	mov	DWORD PTR _effective_area_flag, ebx
	mov	DWORD PTR _autochop_flag, ebx
	mov	DWORD PTR _autopop_flag, ebx
	mov	DWORD PTR _immediate_autopop_flag, ebx
	mov	DWORD PTR _autopop_quartic_flag, ebx
	mov	DWORD PTR _pop_disjoin_flag, ebx
	mov	DWORD PTR _pop_enjoin_flag, ebx
	mov	DWORD PTR _pop_to_edge_flag, ebx
	mov	DWORD PTR _pop_to_face_flag, ebx
	mov	DWORD PTR _runge_kutta_flag, ebx
	mov	DWORD PTR _web+620, esi
	mov	DWORD PTR _web+624, esi
	mov	DWORD PTR _web+8, edi
	mov	DWORD PTR _web+120, esi
	mov	DWORD PTR _web+232, eax

; 322  :   areaname = "area";
; 323  :   web.sdim = DEFAULT_SDIM;
; 324  :   total_time = 0.0;

	fldz

; 325  :   homothety_target = 1.0;
; 326  :   sym_flags = 0;
; 327  :   symmetry_name = NULL;
; 328  :   sym_wrap = identity_wrap;
; 329  :   sym_form_pullback = identity_form_pullback;
; 330  :   sym_inverse = identity_inverse;
; 331  :   sym_compose = identity_compose;
; 332  :   web.modeltype = LINEAR;
; 333  :   web.lagrange_order = 1;
; 334  :   bezier_flag = 0;
; 335  :   web.torus_clip_flag = cflag;

	mov	ecx, DWORD PTR _cflag$[ebp]
	fst	QWORD PTR _total_time

; 336  :   web.torus_body_flag = bflag;

	mov	edx, DWORD PTR _bflag$[ebp]
	fld1
	mov	DWORD PTR _web+616, eax
	fst	QWORD PTR _homothety_target

; 337  :   web.torus_flag = 0;
; 338  :   web.full_flag = 0;
; 339  :   dt_eps = DT_EPS_DEFAULT;
; 340  :   web.meritfactor = 0.0;
; 341  :   web.grav_const = 1.0;
; 342  :   web.symmetric_content = 0;
; 343  :   web.pressure_flag = 0;
; 344  :   web.projection_flag = 0;
; 345  :   web.area_norm_flag = 0;
; 346  :   web.vol_flag = 0;
; 347  :   web.jiggle_flag = 0;
; 348  :   web.temperature = 0.05;
; 349  :   web.total_area = 0.0;
; 350  :   web.total_facets = 0;
; 351  :   web.scale = 0.1;
; 352  :   web.scale_scale = 1.0;
; 353  :   web.maxscale = 1.0;
; 354  :   web.pressure = 0.0;
; 355  :   web.bodycount = 0;
; 356  :   web.wulff_count = web.wulff_flag = 0;
; 357  :   web.min_area = 0.1;
; 358  :   web.min_length = 0.25;
; 359  :   web.max_len = 1.4;
; 360  :   web.max_angle = 0.1;
; 361  :   web.spring_constant = 1.0;
; 362  :   web.gauss1D_order = 3;  /* can do 3  degree exactly (need default 7 in quadratic)*/

	mov	DWORD PTR _web+1592, eax
	fld	QWORD PTR __real@3eb0c6f7a0b5ed8d

; 363  :   set_by_user_gauss_1D = 0;
; 364  :   web.gauss2D_order = 6; /* can do 6th degree poly */ 
; 365  :   set_by_user_gauss_2D = 0;
; 366  :   memset(gauss_lagrange,0,sizeof(gauss_lagrange));

	xor	eax, eax
	fstp	QWORD PTR _dt_eps
	mov	DWORD PTR _gauss_lagrange, eax
	fxch	ST(1)
	mov	DWORD PTR _gauss_lagrange+4, eax
	fst	QWORD PTR _web+816
	mov	DWORD PTR _gauss_lagrange+8, eax
	fxch	ST(1)
	mov	DWORD PTR _gauss_lagrange+12, eax
	fst	QWORD PTR _web+832
	mov	DWORD PTR _gauss_lagrange+16, eax
	fld	QWORD PTR __real@3fa999999999999a
	mov	DWORD PTR _gauss_lagrange+20, eax
	fstp	QWORD PTR _web+1576

; 367  :   memset(maxgaussorder,0,sizeof(maxgaussorder));

	mov	DWORD PTR _maxgaussorder, eax
	fxch	ST(1)
	mov	DWORD PTR _maxgaussorder+4, eax
	fst	QWORD PTR _web+992
	mov	DWORD PTR _maxgaussorder+8, eax
	fld	QWORD PTR __real@3fb999999999999a
	mov	DWORD PTR _maxgaussorder+12, eax
	fst	QWORD PTR _web+1512
	mov	DWORD PTR _maxgaussorder+16, eax
	fxch	ST(2)
	mov	DWORD PTR _maxgaussorder+20, eax

; 368  :   web.tolerance = DEFAULT_TOLERANCE;
; 369  :   reflevel = 0;
; 370  :   no_refine = 0;
; 371  : 
; 372  :   globals(view_matrix_global)->attr.arrayptr->sizes[0] = 0;

	mov	eax, DWORD PTR _view_matrix_global
	fst	QWORD PTR _web+1520
	fst	QWORD PTR _web+1528
	mov	DWORD PTR _web+800, ecx
	fxch	ST(1)
	mov	ecx, eax
	fstp	QWORD PTR _web+1536
	and	ecx, -16777216				; ff000000H
	fxch	ST(1)
	mov	DWORD PTR _areaname, OFFSET ??_C@_04GOEDGNCF@area?$AA@
	fst	QWORD PTR _web+1544
	mov	DWORD PTR _sym_flags, ebx
	fld	QWORD PTR __real@3fd0000000000000
	mov	DWORD PTR _symmetry_name, ebx
	fstp	QWORD PTR _web+1552
	mov	DWORD PTR _sym_wrap, OFFSET _identity_wrap
	fld	QWORD PTR __real@3ff6666666666666
	mov	DWORD PTR _sym_form_pullback, OFFSET _identity_form_pullback
	fstp	QWORD PTR _web+1560
	mov	DWORD PTR _sym_inverse, OFFSET _identity_inverse
	mov	DWORD PTR _sym_compose, OFFSET _identity_compose
	mov	DWORD PTR _web+628, edi
	mov	DWORD PTR _web+632, edi
	fstp	QWORD PTR _web+1568
	mov	DWORD PTR _bezier_flag, ebx
	mov	DWORD PTR _web+804, edx
	fstp	QWORD PTR _web+1584
	mov	DWORD PTR _web+860, ebx
	fld	QWORD PTR __real@3d719799812dea11
	mov	DWORD PTR _web+864, ebx
	fstp	QWORD PTR _web+752
	mov	DWORD PTR _web+808, ebx
	mov	DWORD PTR _web+868, ebx
	mov	DWORD PTR _web+872, ebx
	mov	DWORD PTR _web+876, ebx
	mov	DWORD PTR _web+896, ebx
	mov	DWORD PTR _web+900, ebx
	mov	DWORD PTR _web+1496, ebx
	mov	DWORD PTR _web+1500, ebx
	mov	DWORD PTR _web+908, ebx
	mov	DWORD PTR _web+912, ebx
	mov	DWORD PTR _set_by_user_gauss_1D, ebx
	mov	DWORD PTR _web+1596, 6
	mov	DWORD PTR _set_by_user_gauss_2D, ebx
	mov	DWORD PTR _reflevel, ebx
	mov	DWORD PTR _no_refine, ebx
	cmp	ecx, 268435456				; 10000000H
	je	SHORT $LN21@reset_web
	cmp	ecx, 805306368				; 30000000H
	jne	SHORT $LN23@reset_web
	mov	ecx, DWORD PTR _localbase
	and	eax, 16777215				; 00ffffffH
	imul	eax, 224				; 000000e0H
	add	eax, DWORD PTR [ecx]
	jmp	SHORT $LN22@reset_web
$LN23@reset_web:
	cmp	ecx, 536870912				; 20000000H
	jne	SHORT $LN21@reset_web
	mov	edx, DWORD PTR _web+5656
	and	eax, 16777215				; 00ffffffH
	mov	eax, DWORD PTR [edx+eax*4]
	jmp	SHORT $LN22@reset_web
$LN21@reset_web:
	mov	ecx, DWORD PTR _web+5652
	and	eax, 16777215				; 00ffffffH
	lea	edx, DWORD PTR [ecx+eax*4]
	mov	eax, DWORD PTR _dymem
	mov	eax, DWORD PTR [edx+eax]
$LN22@reset_web:
	mov	ecx, DWORD PTR [eax+168]
	mov	DWORD PTR [ecx+24], ebx

; 373  :   globals(torus_periods_global)->attr.arrayptr->sizes[0] = 0;

	mov	eax, DWORD PTR _torus_periods_global
	mov	ecx, eax
	and	ecx, -16777216				; ff000000H
	cmp	ecx, 268435456				; 10000000H
	je	SHORT $LN27@reset_web
	cmp	ecx, 805306368				; 30000000H
	jne	SHORT $LN29@reset_web
	mov	edx, DWORD PTR _localbase
	and	eax, 16777215				; 00ffffffH
	imul	eax, 224				; 000000e0H
	add	eax, DWORD PTR [edx]
	jmp	SHORT $LN28@reset_web
$LN29@reset_web:
	cmp	ecx, 536870912				; 20000000H
	jne	SHORT $LN27@reset_web
	mov	ecx, DWORD PTR _web+5656
	and	eax, 16777215				; 00ffffffH
	mov	eax, DWORD PTR [ecx+eax*4]
	jmp	SHORT $LN28@reset_web
$LN27@reset_web:
	mov	edx, DWORD PTR _web+5652
	mov	ecx, DWORD PTR _dymem
	and	eax, 16777215				; 00ffffffH
	lea	eax, DWORD PTR [edx+eax*4]
	mov	eax, DWORD PTR [eax+ecx]
$LN28@reset_web:
	mov	edx, DWORD PTR [eax+168]
	mov	DWORD PTR [edx+24], ebx

; 374  :   globals(inverse_periods_global)->attr.arrayptr->sizes[0] = 0;

	mov	eax, DWORD PTR _inverse_periods_global
	mov	ecx, eax
	and	ecx, -16777216				; ff000000H
	cmp	ecx, 268435456				; 10000000H
	je	SHORT $LN33@reset_web
	cmp	ecx, 805306368				; 30000000H
	jne	SHORT $LN35@reset_web
	mov	ecx, DWORD PTR _localbase
	and	eax, 16777215				; 00ffffffH
	imul	eax, 224				; 000000e0H
	add	eax, DWORD PTR [ecx]
	jmp	SHORT $LN34@reset_web
$LN35@reset_web:
	cmp	ecx, 536870912				; 20000000H
	jne	SHORT $LN33@reset_web
	mov	edx, DWORD PTR _web+5656
	and	eax, 16777215				; 00ffffffH
	mov	eax, DWORD PTR [edx+eax*4]
	jmp	SHORT $LN34@reset_web
$LN33@reset_web:
	mov	ecx, DWORD PTR _web+5652
	and	eax, 16777215				; 00ffffffH
	lea	edx, DWORD PTR [ecx+eax*4]
	mov	eax, DWORD PTR _dymem
	mov	eax, DWORD PTR [edx+eax]
$LN34@reset_web:
	mov	ecx, DWORD PTR [eax+168]

; 375  :   memset(torus_period_expr,0,sizeof(torus_period_expr));

	push	3744					; 00000ea0H
	push	ebx
	push	OFFSET _torus_period_expr
	mov	DWORD PTR [ecx+24], ebx
	call	_memset

; 376  :   memset(torus_display_period_expr,0,sizeof(torus_display_period_expr));

	push	3744					; 00000ea0H
	push	ebx
	push	OFFSET _torus_display_period_expr
	call	_memset

; 377  :   memset(view_transforms_unique_point,0,sizeof(REAL)*MAXCOORD);

	mov	edx, DWORD PTR _view_transforms_unique_point
	push	48					; 00000030H
	push	ebx
	push	edx
	call	_memset

; 378  :   view_transforms_unique_point_flag = 0;
; 379  :   zoom_number = 1;
; 380  :   web.zoom_v = NULLVERTEX;
; 381  :   web.zoom_radius = 99999.0;

	fld	QWORD PTR __real@40f869f000000000
	mov	eax, DWORD PTR _NULLVERTEX
	fstp	QWORD PTR _web+984
	mov	DWORD PTR _view_transforms_unique_point_flag, ebx
	mov	DWORD PTR _zoom_number, edi
	mov	DWORD PTR _web+976, eax

; 382  :   transform_count = 0;

	mov	DWORD PTR _transform_count, ebx

; 383  :   view_transforms = NULL;

	mov	DWORD PTR _view_transforms, ebx

; 384  :   set_view_transforms_global();

	call	_set_view_transforms_global

; 385  :   set_view_transform_generators_global();

	call	_set_view_transform_generators_global

; 386  :   transforms_flag = 1;
; 387  :   transform_expr[0] = '\0';
; 388  :   view_transform_det = NULL; 
; 389  :   transform_colors = NULL; /* special kludge so allocate... doesn't free */
; 390  :   allocate_transform_colors(0); 

	push	ebx
	mov	DWORD PTR _transforms_flag, edi
	mov	BYTE PTR _transform_expr, bl
	mov	DWORD PTR _view_transform_det, ebx
	mov	DWORD PTR _transform_colors, ebx
	call	_allocate_transform_colors

; 391  :   transform_gen_swap = NULL;

	mov	DWORD PTR _transform_gen_swap, ebx

; 392  :   transform_colors_flag = 0;

	mov	DWORD PTR _transform_colors_flag, ebx

; 393  :   vertex_normals = NULL;

	mov	DWORD PTR _vertex_normals, ebx

; 394  :   conical_x = NULL;

	mov	DWORD PTR _conical_x, ebx

; 395  :   conical_w = NULL;

	mov	DWORD PTR _conical_w, ebx

; 396  :   for ( j = 0 ; j < NUMELEMENTS ; j++ ) el_list[j] = NULL;

	mov	DWORD PTR _el_list, ebx
	mov	DWORD PTR _el_list+4, ebx
	mov	DWORD PTR _el_list+8, ebx
	mov	DWORD PTR _el_list+12, ebx
	mov	DWORD PTR _el_list+16, ebx

; 397  :   v_procnum = NULL;

	mov	DWORD PTR _v_procnum, ebx

; 398  :   phase_flag = 0;

	mov	DWORD PTR _phase_flag, ebx

; 399  :   metric_convert_flag = 0;

	mov	DWORD PTR _metric_convert_flag, ebx

; 400  :   end_geomview_object();

	call	_end_geomview_object

; 401  :   end_normal_motion();

	call	_end_normal_motion

; 402  :   userfunc_init();

	call	_userfunc_init

; 403  :   for ( j = 0 ; j < NUMELEMENTS ; j++ )
; 404  :   {
; 405  :     show_expr[j] = NULL;
; 406  :   }
; 407  :   memset((char*)show_expr_table,0,sizeof(show_expr_table));

	push	520					; 00000208H
	push	ebx
	push	OFFSET _show_expr_table
	mov	DWORD PTR _show_expr, ebx
	mov	DWORD PTR _show_expr+4, ebx
	mov	DWORD PTR _show_expr+8, ebx
	mov	DWORD PTR _show_expr+12, ebx
	mov	DWORD PTR _show_expr+16, ebx
	call	_memset

; 408  :   memset((char*)single_redefine,0,128*sizeof(struct expnode));

	push	13312					; 00003400H
	push	ebx
	push	OFFSET _single_redefine
	call	_memset
	add	esp, 64					; 00000040H

; 409  :   gauss1Dwt = NULL;

	mov	DWORD PTR _gauss1Dwt, ebx

; 410  :   gauss1Dpt = NULL;

	mov	DWORD PTR _gauss1Dpt, ebx

; 411  :   gauss1poly = NULL; 

	mov	DWORD PTR _gauss1poly, ebx

; 412  :   gauss1polyd = NULL; 

	mov	DWORD PTR _gauss1polyd, ebx

; 413  :   gpoly = NULL; 

	mov	DWORD PTR _gpoly, ebx

; 414  :   gpolypartial = NULL; 

	mov	DWORD PTR _gpolypartial, ebx

; 415  : 
; 416  :   expand_global_hash();  /* to get permanent variables on board */

	call	_expand_global_hash

; 417  : 
; 418  :   /* just in case no surface read in, can take commands */
; 419  :   { int sdim = SDIM;

	mov	ecx, DWORD PTR _web+616

; 420  :     expand_attribute(VERTEX,V_COORD_ATTR,&sdim);

	lea	edx, DWORD PTR _sdim$89464[ebp]
	push	edx
	push	ebx
	push	ebx
	mov	DWORD PTR _sdim$89464[ebp], ecx
	call	_expand_attribute

; 421  :     expand_attribute(VERTEX,V_OLDCOORD_ATTR,&sdim);

	lea	eax, DWORD PTR _sdim$89464[ebp]
	push	eax
	push	edi
	push	ebx
	call	_expand_attribute

; 422  :     expand_attribute(VERTEX,V_FORCE_ATTR,&sdim);

	lea	ecx, DWORD PTR _sdim$89464[ebp]
	push	ecx
	push	3
	push	ebx
	call	_expand_attribute

; 423  :     expand_attribute(VERTEX,V_VELOCITY_ATTR,&sdim);

	lea	edx, DWORD PTR _sdim$89464[ebp]
	push	edx
	push	4
	push	ebx
	call	_expand_attribute

; 424  :     expand_attribute(EDGE,E_VERTICES_ATTR,&web.skel[EDGE].ctrlpts);

	push	OFFSET _web+120
	push	edi
	push	edi
	call	_expand_attribute

; 425  :     expand_attribute(FACET,F_VERTICES_ATTR,&web.skel[FACET].ctrlpts);

	push	OFFSET _web+232
	push	edi
	push	esi
	call	_expand_attribute
	add	esp, 72					; 00000048H

; 426  :   }
; 427  : 
; 428  :   warnings_suppressed_count = 0;

	mov	DWORD PTR _warnings_suppressed_count, ebx

; 429  :   reset_counts();

	call	_reset_counts
	pop	edi
	pop	esi
	pop	ebx

; 430  : } // end reset_web()

	mov	esp, ebp
	pop	ebp
	ret	0
_reset_web ENDP
_TEXT	ENDS
PUBLIC	_read_single_value
EXTRN	_get_ordinal_id:PROC
EXTRN	_yylval:BYTE
EXTRN	_unput_tok:PROC
EXTRN	_yytext:DWORD
EXTRN	_kb_yylex:PROC
EXTRN	_tok:DWORD
EXTRN	_read_const:PROC
EXTRN	__ftol2_sse:PROC
; Function compile flags: /Ogtp
;	COMDAT _read_single_value
_TEXT	SEGMENT
tv442 = -8						; size = 8
_val$ = -8						; size = 8
tv489 = -4						; size = 4
tv487 = -4						; size = 4
tv466 = -4						; size = 4
tv464 = -4						; size = 4
tv444 = -4						; size = 4
_type$ = 8						; size = 4
tv492 = 10						; size = 2
tv469 = 10						; size = 2
tv447 = 10						; size = 2
_dest$ = 12						; size = 4
_read_single_value PROC					; COMDAT

; 1844 : { REAL val;

	push	ebp
	mov	ebp, esp

; 1845 : 
; 1846 :         switch (type )

	mov	eax, DWORD PTR _type$[ebp]
	dec	eax
	sub	esp, 8
	cmp	eax, 22					; 00000016H
	ja	SHORT $LN84@read_singl
	jmp	DWORD PTR $LN97@read_singl[eax*4]
$LN83@read_singl:

; 1847 :         { 
; 1848 :           case CHAR_TYPE : 
; 1849 :                 if ( read_const(&val) >= 0 )

	lea	eax, DWORD PTR _val$[ebp]
	push	eax
	call	_read_const
	add	esp, 4
	test	eax, eax
	js	$LN82@read_singl

; 1850 :                   *(char*)dest = (char)val; 

	fld	QWORD PTR _val$[ebp]
	call	__ftol2_sse

; 1855 :                   *(unsigned char*)dest = (unsigned char)val; 

	mov	ecx, DWORD PTR _dest$[ebp]
	mov	BYTE PTR [ecx], al
$LN84@read_singl:

; 2007 : 
; 2008 :         } 
; 2009 :   return 1;

	mov	eax, 1

; 2010 : } // end read_single_value()

	mov	esp, ebp
	pop	ebp
	ret	0
$LN80@read_singl:

; 1851 :                 else return 0;
; 1852 :                 break;
; 1853 :           case UCHAR_TYPE : 
; 1854 :                 if ( read_const(&val) >= 0 )

	lea	edx, DWORD PTR _val$[ebp]
	push	edx
	call	_read_const
	add	esp, 4
	test	eax, eax
	js	$LN82@read_singl

; 1855 :                   *(unsigned char*)dest = (unsigned char)val; 

	fld	QWORD PTR _val$[ebp]
	mov	ecx, DWORD PTR _dest$[ebp]
	fnstcw	WORD PTR tv492[ebp]
	movzx	eax, WORD PTR tv492[ebp]
	or	eax, 3072				; 00000c00H
	mov	DWORD PTR tv489[ebp], eax
	fldcw	WORD PTR tv489[ebp]
	fistp	DWORD PTR tv487[ebp]
	mov	al, BYTE PTR tv487[ebp]
	mov	BYTE PTR [ecx], al

; 2007 : 
; 2008 :         } 
; 2009 :   return 1;

	mov	eax, 1
	fldcw	WORD PTR tv492[ebp]

; 2010 : } // end read_single_value()

	mov	esp, ebp
	pop	ebp
	ret	0
$LN77@read_singl:

; 1856 :                 else return 0;
; 1857 :                 break;
; 1858 :           case SHORT_TYPE : 
; 1859 :                 if ( read_const(&val) >= 0 )

	lea	edx, DWORD PTR _val$[ebp]
	push	edx
	call	_read_const
	add	esp, 4
	test	eax, eax
	js	$LN82@read_singl

; 1860 :                   *(short*)dest = (short)val; 

	fld	QWORD PTR _val$[ebp]
	call	__ftol2_sse
	mov	ecx, DWORD PTR _dest$[ebp]
	mov	WORD PTR [ecx], ax

; 2007 : 
; 2008 :         } 
; 2009 :   return 1;

	mov	eax, 1

; 2010 : } // end read_single_value()

	mov	esp, ebp
	pop	ebp
	ret	0
$LN74@read_singl:

; 1861 :                 else return 0;
; 1862 :                 break;
; 1863 :           case USHORT_TYPE : 
; 1864 :                 if ( read_const(&val) >= 0 )

	lea	edx, DWORD PTR _val$[ebp]
	push	edx
	call	_read_const
	add	esp, 4
	test	eax, eax
	js	$LN82@read_singl

; 1865 :                   *(unsigned short*)dest = (unsigned short)val; 

	fld	QWORD PTR _val$[ebp]
	mov	ecx, DWORD PTR _dest$[ebp]
	fnstcw	WORD PTR tv469[ebp]
	movzx	eax, WORD PTR tv469[ebp]
	or	eax, 3072				; 00000c00H
	mov	DWORD PTR tv466[ebp], eax
	fldcw	WORD PTR tv466[ebp]
	fistp	DWORD PTR tv464[ebp]
	mov	ax, WORD PTR tv464[ebp]
	mov	WORD PTR [ecx], ax

; 2007 : 
; 2008 :         } 
; 2009 :   return 1;

	mov	eax, 1
	fldcw	WORD PTR tv469[ebp]

; 2010 : } // end read_single_value()

	mov	esp, ebp
	pop	ebp
	ret	0
$LN71@read_singl:

; 1866 :                 else return 0;
; 1867 :                 break;
; 1868 :           case INTEGER_TYPE : 
; 1869 :                 if ( read_const(&val) >= 0 )

	lea	edx, DWORD PTR _val$[ebp]
	push	edx
	call	_read_const
	add	esp, 4
	test	eax, eax
	js	$LN82@read_singl

; 1870 :                    *(int*)dest = (int)val; 

	fld	QWORD PTR _val$[ebp]
	call	__ftol2_sse
	mov	ecx, DWORD PTR _dest$[ebp]
	mov	DWORD PTR [ecx], eax

; 2007 : 
; 2008 :         } 
; 2009 :   return 1;

	mov	eax, 1

; 2010 : } // end read_single_value()

	mov	esp, ebp
	pop	ebp
	ret	0
$LN68@read_singl:

; 1871 :                 else return 0;
; 1872 :                 break;
; 1873 :           case REAL_TYPE : 
; 1874 :                 if ( read_const(&val) >= 0 )

	lea	edx, DWORD PTR _val$[ebp]
	push	edx
	call	_read_const
	add	esp, 4
	test	eax, eax
	js	$LN82@read_singl

; 1875 :                    *(REAL*)dest = val; 

	mov	eax, DWORD PTR _dest$[ebp]
	fld	QWORD PTR _val$[ebp]
	fstp	QWORD PTR [eax]

; 2007 : 
; 2008 :         } 
; 2009 :   return 1;

	mov	eax, 1

; 2010 : } // end read_single_value()

	mov	esp, ebp
	pop	ebp
	ret	0
$LN65@read_singl:

; 1876 :                 else return 0;
; 1877 :                 break;
; 1878 :           case ULONG_TYPE : 
; 1879 :                 if ( read_const(&val) >= 0 )

	lea	ecx, DWORD PTR _val$[ebp]
	push	ecx
	call	_read_const
	add	esp, 4
	test	eax, eax
	js	$LN82@read_singl

; 1880 :                    *((unsigned long *)dest) = (unsigned long)val;

	fld	QWORD PTR _val$[ebp]
	fnstcw	WORD PTR tv447[ebp]
	movzx	eax, WORD PTR tv447[ebp]
	or	eax, 3072				; 00000c00H
	mov	DWORD PTR tv444[ebp], eax
	mov	eax, DWORD PTR _dest$[ebp]
	fldcw	WORD PTR tv444[ebp]
	fistp	QWORD PTR tv442[ebp]
	mov	edx, DWORD PTR tv442[ebp]
	mov	DWORD PTR [eax], edx

; 2007 : 
; 2008 :         } 
; 2009 :   return 1;

	mov	eax, 1
	fldcw	WORD PTR tv447[ebp]

; 2010 : } // end read_single_value()

	mov	esp, ebp
	pop	ebp
	ret	0
$LN62@read_singl:

; 1881 :                 else return 0;
; 1882 :                 break;
; 1883 :           
; 1884 :           case STRING_TYPE:
; 1885 :                 if ( tok == '{' || tok == ',') tok = yylex();

	mov	eax, DWORD PTR _tok
	cmp	eax, 123				; 0000007bH
	je	SHORT $LN60@read_singl
	cmp	eax, 44					; 0000002cH
	jne	SHORT $LN61@read_singl
$LN60@read_singl:
	push	0
	call	_kb_yylex
	add	esp, 4
	mov	DWORD PTR _tok, eax
$LN61@read_singl:

; 1886 :                 if ( tok == QUOTATION_TOK )

	cmp	eax, 309				; 00000135H
	jne	$LN82@read_singl

; 1887 :                 { *(char**)dest = mycalloc(strlen(yytext)+1,sizeof(char));

	mov	eax, DWORD PTR _yytext
	lea	edx, DWORD PTR [eax+1]
	npad	3
$LL90@read_singl:
	mov	cl, BYTE PTR [eax]
	inc	eax
	test	cl, cl
	jne	SHORT $LL90@read_singl
	push	1887					; 0000075fH
	sub	eax, edx
	push	OFFSET ??_C@_09JGPPFAML@LEXINIT?4C?$AA@
	inc	eax
	push	1
	push	eax
	call	_kb_calloc
	mov	ecx, DWORD PTR _dest$[ebp]
	mov	DWORD PTR [ecx], eax

; 1888 :                   strcpy(*(char**)dest,yytext);

	mov	ecx, DWORD PTR _yytext
	add	esp, 16					; 00000010H
	mov	edx, eax
	npad	4
$LL88@read_singl:
	mov	al, BYTE PTR [ecx]
	mov	BYTE PTR [edx], al
	inc	ecx
	inc	edx
	test	al, al
	jne	SHORT $LL88@read_singl

; 1889 :                   tok = yylex();

	push	0
	call	_kb_yylex
	add	esp, 4
	mov	DWORD PTR _tok, eax

; 1890 :                   if ( tok != ',' ) 

	cmp	eax, 44					; 0000002cH
	je	$LN84@read_singl

; 1891 :                     unput_tok();  // kludgy, I know

	call	_unput_tok

; 2007 : 
; 2008 :         } 
; 2009 :   return 1;

	mov	eax, 1

; 2010 : } // end read_single_value()

	mov	esp, ebp
	pop	ebp
	ret	0
$LN55@read_singl:

; 1892 :                 }
; 1893 :                 else return 0;
; 1894 :                 break;
; 1895 : 
; 1896 :           case ELEMENTID_TYPE:
; 1897 :                   return 0;
; 1898 :           case VERTEX_TYPE:
; 1899 :                if ( tok != VERTICES_TOK ) return 0;

	cmp	DWORD PTR _tok, 293			; 00000125H
	jne	SHORT $LN82@read_singl

; 1900 :                tok = yylex();

	push	0
	call	_kb_yylex
	add	esp, 4
	mov	DWORD PTR _tok, eax

; 1901 :                if ( tok != '[' ) return 0;

	cmp	eax, 91					; 0000005bH
	jne	SHORT $LN82@read_singl

; 1902 :                tok = yylex();

	push	0
	call	_kb_yylex
	add	esp, 4
	mov	DWORD PTR _tok, eax

; 1903 :                if ( (tok != INTEGER_TOK) && (tok != INTEGER_AT_TOK) ) return 0;

	cmp	eax, 265				; 00000109H
	je	SHORT $LN52@read_singl
	cmp	eax, 550				; 00000226H
	jne	SHORT $LN82@read_singl
$LN52@read_singl:

; 1904 :                *(element_id*)dest = get_ordinal_id(VERTEX,yylval.i);

	mov	edx, DWORD PTR _yylval
	push	edx
	push	0
	call	_get_ordinal_id
	mov	ecx, DWORD PTR _dest$[ebp]

; 1905 :                tok = yylex();

	push	0
	mov	DWORD PTR [ecx], eax
	call	_kb_yylex
	add	esp, 12					; 0000000cH
	mov	DWORD PTR _tok, eax

; 1906 :                if ( tok != ']' ) return 0;

	cmp	eax, 93					; 0000005dH
	je	$LN84@read_singl
$LN82@read_singl:
	xor	eax, eax

; 2010 : } // end read_single_value()

	mov	esp, ebp
	pop	ebp
	ret	0
$LN50@read_singl:

; 1907 :                break;
; 1908 :                 
; 1909 :           case EDGE_TYPE:
; 1910 :                if ( tok != EDGES_TOK ) return 0;

	cmp	DWORD PTR _tok, 294			; 00000126H
	jne	SHORT $LN82@read_singl

; 1911 :                tok = yylex();

	push	0
	call	_kb_yylex
	add	esp, 4
	mov	DWORD PTR _tok, eax

; 1912 :                if ( tok != '[' ) return 0;

	cmp	eax, 91					; 0000005bH
	jne	SHORT $LN82@read_singl

; 1913 :                tok = yylex();

	push	0
	call	_kb_yylex
	add	esp, 4
	mov	DWORD PTR _tok, eax

; 1914 :                if ( (tok != INTEGER_TOK) && (tok != INTEGER_AT_TOK) ) return 0;

	cmp	eax, 265				; 00000109H
	je	SHORT $LN47@read_singl
	cmp	eax, 550				; 00000226H
	jne	SHORT $LN82@read_singl
$LN47@read_singl:

; 1915 :                *(element_id*)dest = get_ordinal_id(EDGE,yylval.i);

	mov	edx, DWORD PTR _yylval
	push	edx
	push	1
	call	_get_ordinal_id
	mov	ecx, DWORD PTR _dest$[ebp]

; 1916 :                tok = yylex();

	push	0
	mov	DWORD PTR [ecx], eax
	call	_kb_yylex
	add	esp, 12					; 0000000cH
	mov	DWORD PTR _tok, eax

; 1917 :                if ( tok != ']' ) return 0;

	cmp	eax, 93					; 0000005dH
	je	$LN84@read_singl
	xor	eax, eax

; 2010 : } // end read_single_value()

	mov	esp, ebp
	pop	ebp
	ret	0
$LN45@read_singl:

; 1918 :                break;
; 1919 :                 
; 1920 :           case FACET_TYPE:
; 1921 :                if ( tok != FACETS_TOK ) return 0;

	cmp	DWORD PTR _tok, 295			; 00000127H
	jne	SHORT $LN82@read_singl

; 1922 :                tok = yylex();

	push	0
	call	_kb_yylex
	add	esp, 4
	mov	DWORD PTR _tok, eax

; 1923 :                if ( tok != '[' ) return 0;

	cmp	eax, 91					; 0000005bH
	jne	$LN82@read_singl

; 1924 :                tok = yylex();

	push	0
	call	_kb_yylex
	add	esp, 4
	mov	DWORD PTR _tok, eax

; 1925 :                if ( (tok != INTEGER_TOK) && (tok != INTEGER_AT_TOK) ) return 0;

	cmp	eax, 265				; 00000109H
	je	SHORT $LN42@read_singl
	cmp	eax, 550				; 00000226H
	jne	$LN82@read_singl
$LN42@read_singl:

; 1926 :                *(element_id*)dest = get_ordinal_id(FACET,yylval.i);

	mov	edx, DWORD PTR _yylval
	push	edx
	push	2
	call	_get_ordinal_id
	mov	ecx, DWORD PTR _dest$[ebp]

; 1927 :                tok = yylex();

	push	0
	mov	DWORD PTR [ecx], eax
	call	_kb_yylex
	add	esp, 12					; 0000000cH
	mov	DWORD PTR _tok, eax

; 1928 :                if ( tok != ']' ) return 0;

	cmp	eax, 93					; 0000005dH
	je	$LN84@read_singl
	xor	eax, eax

; 2010 : } // end read_single_value()

	mov	esp, ebp
	pop	ebp
	ret	0
$LN40@read_singl:

; 1929 :                break;
; 1930 :                 
; 1931 :           case BODY_TYPE:
; 1932 :                if ( tok != BODIES_TOK ) return 0;

	cmp	DWORD PTR _tok, 296			; 00000128H
	jne	$LN82@read_singl

; 1933 :                tok = yylex();

	push	0
	call	_kb_yylex
	add	esp, 4
	mov	DWORD PTR _tok, eax

; 1934 :                if ( tok != '[' ) return 0;

	cmp	eax, 91					; 0000005bH
	jne	$LN82@read_singl

; 1935 :                tok = yylex();

	push	0
	call	_kb_yylex
	add	esp, 4
	mov	DWORD PTR _tok, eax

; 1936 :                if ( (tok != INTEGER_TOK) && (tok != INTEGER_AT_TOK) ) return 0;

	cmp	eax, 265				; 00000109H
	je	SHORT $LN37@read_singl
	cmp	eax, 550				; 00000226H
	jne	$LN82@read_singl
$LN37@read_singl:

; 1937 :                *(element_id*)dest = get_ordinal_id(BODY,yylval.i);

	mov	edx, DWORD PTR _yylval
	push	edx
	push	3
	call	_get_ordinal_id
	mov	ecx, DWORD PTR _dest$[ebp]

; 1938 :                tok = yylex();

	push	0
	mov	DWORD PTR [ecx], eax
	call	_kb_yylex
	add	esp, 12					; 0000000cH
	mov	DWORD PTR _tok, eax

; 1939 :                if ( tok != ']' ) return 0;

	cmp	eax, 93					; 0000005dH
	je	$LN84@read_singl
	xor	eax, eax

; 2010 : } // end read_single_value()

	mov	esp, ebp
	pop	ebp
	ret	0
$LN35@read_singl:

; 1940 :                break;
; 1941 :                 
; 1942 :           case FACETEDGE_TYPE:
; 1943 :                if ( tok != FACETEDGES_TOK ) return 0;

	cmp	DWORD PTR _tok, 307			; 00000133H
	jne	$LN82@read_singl

; 1944 :                tok = yylex();

	push	0
	call	_kb_yylex
	add	esp, 4
	mov	DWORD PTR _tok, eax

; 1945 :                if ( tok != '[' ) return 0;

	cmp	eax, 91					; 0000005bH
	jne	$LN82@read_singl

; 1946 :                tok = yylex();

	push	0
	call	_kb_yylex
	add	esp, 4
	mov	DWORD PTR _tok, eax

; 1947 :                if ( (tok != INTEGER_TOK) && (tok != INTEGER_AT_TOK) ) return 0;

	cmp	eax, 265				; 00000109H
	je	SHORT $LN32@read_singl
	cmp	eax, 550				; 00000226H
	jne	$LN82@read_singl
$LN32@read_singl:

; 1948 :                *(element_id*)dest = get_ordinal_id(FACETEDGE,yylval.i);

	mov	edx, DWORD PTR _yylval
	push	edx
	push	4
	call	_get_ordinal_id
	mov	ecx, DWORD PTR _dest$[ebp]

; 1949 :                tok = yylex();

	push	0
	mov	DWORD PTR [ecx], eax
	call	_kb_yylex
	add	esp, 12					; 0000000cH
	mov	DWORD PTR _tok, eax

; 1950 :                if ( tok != ']' ) return 0;

	cmp	eax, 93					; 0000005dH
	je	$LN84@read_singl
	xor	eax, eax

; 2010 : } // end read_single_value()

	mov	esp, ebp
	pop	ebp
	ret	0
$LN30@read_singl:

; 1951 :                break;
; 1952 :                 
; 1953 :           case CONSTRAINT_TYPE:
; 1954 :                if ( tok == CONSTRAINT_TOK )

	mov	eax, DWORD PTR _tok
	cmp	eax, 320				; 00000140H
	jne	SHORT $LN29@read_singl

; 1955 :                { tok = yylex();

	push	0
	call	_kb_yylex
	add	esp, 4
	mov	DWORD PTR _tok, eax

; 1956 :                  if ( tok == INTEGER_TOK )

	cmp	eax, 265				; 00000109H

; 1957 :                    *(int *)dest = yylval.i;

	je	SHORT $LN92@read_singl

; 1958 :                  else if ( tok == CONSTRAINT_NAME_TOK ) 

	cmp	eax, 519				; 00000207H

; 1959 :                    *(int *)dest = yylval.i;
; 1960 :                  else return 0;
; 1961 :                }
; 1962 :                else

	jmp	$LN95@read_singl
$LN29@read_singl:

; 1963 :                { if ( tok == CONSTRAINT_NAME_TOK ) 

	cmp	eax, 519				; 00000207H
$LN96@read_singl:
	jne	$LN82@read_singl

; 1964 :                    *(int *)dest = yylval.i;

	mov	eax, DWORD PTR _dest$[ebp]
	mov	ecx, DWORD PTR _yylval
	mov	DWORD PTR [eax], ecx

; 2007 : 
; 2008 :         } 
; 2009 :   return 1;

	mov	eax, 1

; 2010 : } // end read_single_value()

	mov	esp, ebp
	pop	ebp
	ret	0
$LN21@read_singl:

; 1965 :                  else return 0;
; 1966 :                }
; 1967 :                break;
; 1968 :           case BOUNDARY_TYPE: 
; 1969 :                if ( tok == BOUNDARY_TOK )

	mov	eax, DWORD PTR _tok
	cmp	eax, 408				; 00000198H
	jne	SHORT $LN20@read_singl

; 1970 :                { tok = yylex();

	push	0
	call	_kb_yylex
	add	esp, 4
	mov	DWORD PTR _tok, eax

; 1971 :                  if ( tok == INTEGER_TOK )

	cmp	eax, 265				; 00000109H

; 1972 :                    *(int *)dest = yylval.i;

	je	SHORT $LN92@read_singl

; 1973 :                  else if ( tok == BOUNDARY_NAME_TOK ) 

	cmp	eax, 520				; 00000208H

; 1974 :                    *(int *)dest = yylval.i;
; 1975 :                  else return 0;
; 1976 :                }
; 1977 :                else

	jmp	SHORT $LN95@read_singl
$LN20@read_singl:

; 1978 :                { if ( tok == BOUNDARY_NAME_TOK ) 

	cmp	eax, 520				; 00000208H

; 1979 :                    *(int *)dest = yylval.i;
; 1980 :                  else return 0;
; 1981 :                }
; 1982 :                break;

	jmp	SHORT $LN96@read_singl
$LN12@read_singl:

; 1983 : 
; 1984 :           case QUANTITY_TYPE:
; 1985 :                if ( tok == QUANTITY_TOK )

	mov	eax, DWORD PTR _tok
	cmp	eax, 482				; 000001e2H
	jne	SHORT $LN11@read_singl

; 1986 :                  tok = yylex();

	push	0
	call	_kb_yylex
	add	esp, 4
	mov	DWORD PTR _tok, eax
$LN11@read_singl:

; 1987 :                if ( tok == QUANTITY_NAME_TOK ) 

	cmp	eax, 336				; 00000150H
	jne	$LN82@read_singl
$LN92@read_singl:

; 1988 :                  *(int *)dest = yylval.i;

	mov	eax, DWORD PTR _yylval
	mov	edx, DWORD PTR _dest$[ebp]
	mov	DWORD PTR [edx], eax

; 2007 : 
; 2008 :         } 
; 2009 :   return 1;

	mov	eax, 1

; 2010 : } // end read_single_value()

	mov	esp, ebp
	pop	ebp
	ret	0
$LN8@read_singl:

; 1989 :                else return 0;
; 1990 :                break;
; 1991 : 
; 1992 :           case INSTANCE_TYPE:
; 1993 :                if ( tok == METHOD_INSTANCE_TOK )

	mov	eax, DWORD PTR _tok
	cmp	eax, 491				; 000001ebH
	jne	SHORT $LN7@read_singl

; 1994 :                  tok = yylex();

	push	0
	call	_kb_yylex
	add	esp, 4
	mov	DWORD PTR _tok, eax
$LN7@read_singl:

; 1995 :                if ( tok == METHOD_NAME_TOK ) 

	cmp	eax, 414				; 0000019eH
$LN95@read_singl:
	jne	$LN82@read_singl

; 1996 :                  *(int *)dest = yylval.i;

	mov	ecx, DWORD PTR _dest$[ebp]
	mov	edx, DWORD PTR _yylval
	mov	DWORD PTR [ecx], edx

; 2007 : 
; 2008 :         } 
; 2009 :   return 1;

	mov	eax, 1

; 2010 : } // end read_single_value()

	mov	esp, ebp
	pop	ebp
	ret	0
$LN4@read_singl:

; 1997 :                else return 0;
; 1998 :                break;
; 1999 : 
; 2000 :           case PROCEDURE_TYPE:
; 2001 :                if ( tok == PROCEDURE_WORD_TOK )

	mov	eax, DWORD PTR _tok
	cmp	eax, 485				; 000001e5H
	jne	SHORT $LN3@read_singl

; 2002 :                  tok = yylex();

	push	0
	call	_kb_yylex
	add	esp, 4
	mov	DWORD PTR _tok, eax
$LN3@read_singl:

; 2003 :                if ( tok == PROCEDURE_IDENT_TOK ) 

	cmp	eax, 521				; 00000209H

; 2004 :                  *(int *)dest = yylval.i;
; 2005 :                else return 0;
; 2006 :                break;

	jmp	$LN96@read_singl
	npad	3
$LN97@read_singl:

; 2010 : } // end read_single_value()

	DD	$LN68@read_singl
	DD	$LN71@read_singl
	DD	$LN65@read_singl
	DD	$LN80@read_singl
	DD	$LN74@read_singl
	DD	$LN84@read_singl
	DD	$LN84@read_singl
	DD	$LN83@read_singl
	DD	$LN77@read_singl
	DD	$LN84@read_singl
	DD	$LN62@read_singl
	DD	$LN84@read_singl
	DD	$LN55@read_singl
	DD	$LN50@read_singl
	DD	$LN45@read_singl
	DD	$LN40@read_singl
	DD	$LN35@read_singl
	DD	$LN82@read_singl
	DD	$LN21@read_singl
	DD	$LN30@read_singl
	DD	$LN12@read_singl
	DD	$LN8@read_singl
	DD	$LN4@read_singl
_read_single_value ENDP
_TEXT	ENDS
PUBLIC	??_C@_0BI@ECCJKJJA@Too?5many?5initializers?4?6?$AA@ ; `string'
PUBLIC	??_C@_0DC@JPOKFPEK@Illegal?5token?5in?5initialization?5@ ; `string'
PUBLIC	??_C@_0CJ@PBJANMJM@Too?5many?5initializers?5for?5attrib@ ; `string'
PUBLIC	??_C@_0CB@GHOBBEEK@missing?5value?5for?5attribute?5?$CFs?4?6@ ; `string'
PUBLIC	__$ArrayPad$
PUBLIC	_read_attribute_value
EXTRN	_unput_tok_count:DWORD
EXTRN	_kb_error:PROC
EXTRN	_sprintf:PROC
EXTRN	_errmsg:BYTE
EXTRN	___security_cookie:DWORD
EXTRN	@__security_check_cookie@4:PROC
;	COMDAT ??_C@_0BI@ECCJKJJA@Too?5many?5initializers?4?6?$AA@
CONST	SEGMENT
??_C@_0BI@ECCJKJJA@Too?5many?5initializers?4?6?$AA@ DB 'Too many initiali'
	DB	'zers.', 0aH, 00H				; `string'
CONST	ENDS
;	COMDAT ??_C@_0DC@JPOKFPEK@Illegal?5token?5in?5initialization?5@
CONST	SEGMENT
??_C@_0DC@JPOKFPEK@Illegal?5token?5in?5initialization?5@ DB 'Illegal toke'
	DB	'n in initialization of attribute %s.', 0aH, 00H ; `string'
CONST	ENDS
;	COMDAT ??_C@_0CJ@PBJANMJM@Too?5many?5initializers?5for?5attrib@
CONST	SEGMENT
??_C@_0CJ@PBJANMJM@Too?5many?5initializers?5for?5attrib@ DB 'Too many ini'
	DB	'tializers for attribute %s.', 0aH, 00H	; `string'
CONST	ENDS
;	COMDAT ??_C@_0CB@GHOBBEEK@missing?5value?5for?5attribute?5?$CFs?4?6@
CONST	SEGMENT
??_C@_0CB@GHOBBEEK@missing?5value?5for?5attribute?5?$CFs?4?6@ DB 'missing'
	DB	' value for attribute %s.', 0aH, 00H		; `string'
; Function compile flags: /Ogtp
CONST	ENDS
;	COMDAT _read_attribute_value
_TEXT	SEGMENT
_spots$ = -92						; size = 32
_first_bracket_flag$ = -60				; size = 4
_no_first_bracket$ = -56				; size = 4
_blocksize$ = -52					; size = 4
_spot$ = -48						; size = 4
tv487 = -44						; size = 4
tv489 = -40						; size = 4
_items$ = -36						; size = 32
__$ArrayPad$ = -4					; size = 4
_ex$ = 8						; size = 4
_datastart$ = 12					; size = 4
_read_attribute_value PROC				; COMDAT

; 2023 : {

	push	ebp
	mov	ebp, esp
	sub	esp, 92					; 0000005cH
	mov	eax, DWORD PTR ___security_cookie
	xor	eax, ebp
	mov	DWORD PTR __$ArrayPad$[ebp], eax
	mov	eax, DWORD PTR _datastart$[ebp]
	push	ebx
	push	esi
	mov	esi, DWORD PTR _ex$[ebp]

; 2024 :     char *spot;
; 2025 :     int depth;
; 2026 :     int blocksize;
; 2027 :     char *spots[MAXARRAYDIMS];
; 2028 :     int items[MAXARRAYDIMS];
; 2029 :     int first_bracket_flag = 0; /* whether seen first bracket, 

	xor	ebx, ebx
	push	edi

; 2030 :                                    which is optional for 1 dim attribute */
; 2031 :     int no_first_bracket = 0;  /* record option */
; 2032 : 
; 2033 :     depth = 0;

	xor	edi, edi
	mov	DWORD PTR _first_bracket_flag$[ebp], ebx
	mov	DWORD PTR _no_first_bracket$[ebp], ebx

; 2034 :     spot = datastart;

	mov	DWORD PTR _spot$[ebp], eax

; 2035 :     if ( ex->array_spec.dim == 0 ) /* scalar */

	cmp	DWORD PTR [esi+76], ebx
	jne	SHORT $LN31@read_attri

; 2036 :     { if ( !read_single_value(ex->type,spot) )

	push	eax
	mov	eax, DWORD PTR [esi+68]
	push	eax
	call	_read_single_value
	add	esp, 8
	test	eax, eax
	jne	$LN30@read_attri

; 2037 :       { sprintf(errmsg,"missing value for attribute %s.\n",ex->name);

	push	esi
	push	OFFSET ??_C@_0CB@GHOBBEEK@missing?5value?5for?5attribute?5?$CFs?4?6@
	push	OFFSET _errmsg
	call	_sprintf

; 2038 :         kb_error(2587,errmsg,DATAFILE_ERROR);

	push	6
	push	OFFSET _errmsg
	push	2587					; 00000a1bH
	call	_kb_error
	add	esp, 24					; 00000018H

; 2039 :       }
; 2040 :       tok = yylex();  /* get lookahead */
; 2041 :       return;

	jmp	$LN30@read_attri
$LN31@read_attri:

; 2044 :     items[depth] = 0;
; 2045 :     blocksize = ex->array_spec.datacount;

	mov	ecx, DWORD PTR [esi+88]
	mov	DWORD PTR _spots$[ebp], eax
	lea	edx, DWORD PTR [esi+92]
	lea	eax, DWORD PTR [esi+96]
	mov	DWORD PTR _items$[ebp], ebx
	mov	DWORD PTR _blocksize$[ebp], ecx
	mov	DWORD PTR tv487[ebp], edx
	mov	DWORD PTR tv489[ebp], eax
$LN49@read_attri:

; 2042 :     }
; 2043 :     spots[depth] = spot;

	mov	ecx, DWORD PTR _tok
$LL29@read_attri:

; 2046 :     for (;;)
; 2047 :     { 
; 2048 :       if ( depth == ex->array_spec.dim )

	cmp	edi, DWORD PTR [esi+76]
	jne	$LN43@read_attri
$LN51@read_attri:

; 2051 :         { /* kludge with LEAD_INTEGER_ here */
; 2052 :           if ( tok != LEAD_INTEGER_TOK )

	cmp	ecx, 264				; 00000108H
	je	SHORT $LN43@read_attri
$LL42@read_attri:

; 2053 :           { 
; 2054 :             if ( read_single_value(ex->type,spot) )

	mov	ecx, DWORD PTR _spot$[ebp]
	mov	edx, DWORD PTR [esi+68]
	push	ecx
	push	edx
	call	_read_single_value
	add	esp, 8
	test	eax, eax
	je	SHORT $LN22@read_attri

; 2055 :             { if ( k < ex->array_spec.sizes[depth-1] ) 

	mov	eax, DWORD PTR tv487[ebp]
	cmp	ebx, DWORD PTR [eax]
	jge	SHORT $LN21@read_attri

; 2056 :                 spot += ex->array_spec.itemsize;

	mov	ecx, DWORD PTR [esi+84]
	add	DWORD PTR _spot$[ebp], ecx

; 2057 :               else

	mov	ecx, DWORD PTR _tok
	jmp	SHORT $LN25@read_attri
$LN21@read_attri:

; 2058 :               { sprintf(errmsg, "Too many initializers for attribute %s.\n",
; 2059 :                     ex->name);

	push	esi
	push	OFFSET ??_C@_0CJ@PBJANMJM@Too?5many?5initializers?5for?5attrib@
	push	OFFSET _errmsg
	call	_sprintf

; 2060 :                 kb_error(2511,errmsg,DATAFILE_ERROR);

	push	6
	push	OFFSET _errmsg
	push	2511					; 000009cfH
	call	_kb_error

; 2061 :               }
; 2062 :             }
; 2063 :             else

	mov	ecx, DWORD PTR _tok
	add	esp, 24					; 00000018H
	jmp	SHORT $LN25@read_attri
$LN22@read_attri:

; 2064 :             { tok = yylex();  /* get back token exparse pushed back */

	push	0
	call	_kb_yylex
	mov	ecx, eax
	add	esp, 4
	mov	DWORD PTR _tok, ecx

; 2065 :               if ( tok != ',' ) 

	cmp	ecx, 44					; 0000002cH
	jne	SHORT $LN43@read_attri
$LN25@read_attri:

; 2049 :       { int k;
; 2050 :         for ( k = 0 ; ; k++ )

	inc	ebx

; 2051 :         { /* kludge with LEAD_INTEGER_ here */
; 2052 :           if ( tok != LEAD_INTEGER_TOK )

	cmp	ecx, 264				; 00000108H
	jne	SHORT $LL42@read_attri
$LN43@read_attri:

; 2066 :                 break;
; 2067 :             }
; 2068 :           }
; 2069 :           else break;
; 2070 :         }
; 2071 :       }
; 2072 :       if ( !first_bracket_flag ) tok = yylex();

	xor	ebx, ebx
	cmp	DWORD PTR _first_bracket_flag$[ebp], ebx
	jne	SHORT $LN16@read_attri
	push	ebx
	call	_kb_yylex
	mov	ecx, eax
	add	esp, 4
	mov	DWORD PTR _tok, ecx
$LN16@read_attri:

; 2073 :       if ( (tok == '{') || !first_bracket_flag )  

	cmp	ecx, 123				; 0000007bH
	je	$LN47@read_attri
	cmp	DWORD PTR _first_bracket_flag$[ebp], ebx
	je	$LN14@read_attri

; 2085 :       }
; 2086 :       else if ( tok == '}' )

	cmp	ecx, 125				; 0000007dH
	jne	SHORT $LN8@read_attri

; 2087 :       { tok = yylex();

	push	ebx
	call	_kb_yylex
	mov	ecx, eax

; 2088 :         depth--;

	mov	eax, 4
	sub	DWORD PTR tv487[ebp], eax
	sub	DWORD PTR tv489[ebp], eax
	dec	edi
	add	esp, 4
	mov	DWORD PTR _tok, ecx

; 2089 :         if ( depth == 0 ) return;

	cmp	edi, ebx
	je	$LN2@read_attri

; 2090 : 
; 2091 :         blocksize *= ex->array_spec.sizes[depth];

	mov	edx, DWORD PTR tv489[ebp]
	mov	eax, DWORD PTR [edx]
	imul	eax, DWORD PTR _blocksize$[ebp]

; 2092 :         spots[depth] += blocksize*ex->array_spec.itemsize;

	mov	edx, DWORD PTR [esi+84]
	imul	edx, eax
	add	DWORD PTR _spots$[ebp+edi*4], edx
	mov	DWORD PTR _blocksize$[ebp], eax
	mov	eax, DWORD PTR _spots$[ebp+edi*4]
	mov	DWORD PTR _spot$[ebp], eax

; 2093 :         spot = spots[depth];

	jmp	$LL29@read_attri
$LN8@read_attri:

; 2094 :       }
; 2095 :       else if ( tok == ',' )

	cmp	ecx, 44					; 0000002cH
	jne	SHORT $LN5@read_attri

; 2096 :       { tok = yylex();

	push	ebx
	call	_kb_yylex
	mov	ecx, eax
	mov	DWORD PTR _tok, ecx

; 2097 :         spots[depth] += blocksize*ex->array_spec.itemsize;

	mov	edx, DWORD PTR [esi+84]
	imul	edx, DWORD PTR _blocksize$[ebp]
	add	esp, 4
	add	DWORD PTR _spots$[ebp+edi*4], edx
	jmp	$LL29@read_attri
$LN5@read_attri:

; 2098 :       }
; 2099 :       else if ( no_first_bracket )

	cmp	DWORD PTR _no_first_bracket$[ebp], ebx
	jne	$LN39@read_attri

; 2103 :         return;
; 2104 :       }
; 2105 :       else
; 2106 :       { sprintf(errmsg,"Illegal token in initialization of attribute %s.\n",
; 2107 :               ex->name);

	push	esi
	push	OFFSET ??_C@_0DC@JPOKFPEK@Illegal?5token?5in?5initialization?5@
	push	OFFSET _errmsg
	call	_sprintf

; 2108 :         kb_error(2134,errmsg, DATAFILE_ERROR);

	push	6
	push	OFFSET _errmsg
	push	2134					; 00000856H
	call	_kb_error
	add	esp, 24					; 00000018H
	jmp	$LN49@read_attri
$LN14@read_attri:

; 2074 :       { if ( tok != '{' ) 
; 2075 :         { unput_tok(); no_first_bracket = 1; }

	call	_unput_tok
	mov	ecx, DWORD PTR _tok
	mov	DWORD PTR _no_first_bracket$[ebp], 1
$LN47@read_attri:

; 2076 :         first_bracket_flag = 1;
; 2077 :         if ( blocksize ) blocksize /= ex->array_spec.sizes[depth]; 

	mov	eax, DWORD PTR _blocksize$[ebp]
	mov	DWORD PTR _first_bracket_flag$[ebp], 1
	cmp	eax, ebx
	je	SHORT $LN12@read_attri
	mov	ebx, DWORD PTR tv489[ebp]
	cdq
	idiv	DWORD PTR [ebx]
	mov	DWORD PTR _blocksize$[ebp], eax
$LN12@read_attri:

; 2078 :         spots[depth] = spot;

	mov	eax, DWORD PTR _spot$[ebp]

; 2079 :         items[depth]++;

	inc	DWORD PTR _items$[ebp+edi*4]

; 2080 :         if ( (depth > 0) && (items[depth] > ex->array_spec.sizes[depth-1]) )

	xor	ebx, ebx
	mov	DWORD PTR _spots$[ebp+edi*4], eax
	mov	eax, DWORD PTR _items$[ebp+edi*4]
	cmp	edi, ebx
	jle	SHORT $LN48@read_attri
	mov	edx, DWORD PTR tv487[ebp]
	cmp	eax, DWORD PTR [edx]
	jle	SHORT $LN48@read_attri

; 2081 :            kb_error(2133,"Too many initializers.\n",DATAFILE_ERROR);

	push	6
	push	OFFSET ??_C@_0BI@ECCJKJJA@Too?5many?5initializers?4?6?$AA@
	push	2133					; 00000855H
	call	_kb_error
	mov	ecx, DWORD PTR _tok
	add	esp, 12					; 0000000cH
$LN48@read_attri:

; 2082 :         depth++; 

	mov	eax, 4
	add	DWORD PTR tv487[ebp], eax
	add	DWORD PTR tv489[ebp], eax
	inc	edi

; 2083 :         items[depth] = 0;

	mov	DWORD PTR _items$[ebp+edi*4], ebx

; 2084 :         if ( (depth != ex->array_spec.dim) && !no_first_bracket ) tok = yylex();

	cmp	edi, DWORD PTR [esi+76]
	je	$LN51@read_attri
	cmp	DWORD PTR _no_first_bracket$[ebp], ebx
	jne	$LL29@read_attri
	push	ebx
	call	_kb_yylex
	mov	ecx, eax
	add	esp, 4
	mov	DWORD PTR _tok, ecx

; 2109 :       }
; 2110 :     }

	jmp	$LL29@read_attri
$LN39@read_attri:

; 2100 :       { /* must be end of 1-D attribute */
; 2101 :         if ( unput_tok_count )

	cmp	DWORD PTR _unput_tok_count, ebx
	je	SHORT $LN2@read_attri
$LN30@read_attri:

; 2102 :            tok = yylex();  /* get lookahead back */

	push	ebx
	call	_kb_yylex
	mov	DWORD PTR _tok, eax
	add	esp, 4
$LN2@read_attri:

; 2111 : } // end read_attribute_value()

	mov	ecx, DWORD PTR __$ArrayPad$[ebp]
	pop	edi
	pop	esi
	xor	ecx, ebp
	pop	ebx
	call	@__security_check_cookie@4
	mov	esp, ebp
	pop	ebp
	ret	0
_read_attribute_value ENDP
_TEXT	ENDS
PUBLIC	_read_extra
; Function compile flags: /Ogtp
;	COMDAT _read_extra
_TEXT	SEGMENT
_el_id$ = 8						; size = 4
_exnum$ = 12						; size = 4
_read_extra PROC					; COMDAT

; 2123 : { char *spot;

	push	ebp
	mov	ebp, esp

; 2124 :   int type = id_type(el_id);
; 2125 :   struct extra *ex = EXTRAS(type) + exnum;
; 2126 : 
; 2127 :   spot = get_extra(el_id,exnum);

	mov	ecx, DWORD PTR _el_id$[ebp]
	mov	edx, DWORD PTR _exnum$[ebp]
	mov	eax, ecx
	imul	edx, 240				; 000000f0H
	shr	eax, 29					; 0000001dH
	imul	eax, 112				; 00000070H
	push	esi
	mov	esi, DWORD PTR _web[eax+104]
	mov	eax, DWORD PTR _web[eax+12]
	add	esi, edx
	mov	edx, DWORD PTR _dymem
	and	ecx, 134217727				; 07ffffffH
	mov	ecx, DWORD PTR [eax+ecx*4]
	add	ecx, DWORD PTR [edx+esi+64]
	add	edx, esi

; 2128 :   read_attribute_value(ex,spot);

	push	ecx
	push	edx
	call	_read_attribute_value
	add	esp, 8
	pop	esi

; 2129 : } // end read_extra()

	pop	ebp
	ret	0
_read_extra ENDP
_TEXT	ENDS
PUBLIC	??_C@_0CM@COILCHG@Wrong?5number?5of?5coordinates?5for?5@ ; `string'
PUBLIC	??_C@_0CF@NGLIKJND@Cannot?5have?5constraint?5and?5bound@ ; `string'
PUBLIC	??_C@_0BG@BKFJJJKH@Unexpected?5token?3?5?$CFs?6?$AA@ ; `string'
PUBLIC	??_C@_0DA@MGFNEFND@Internal?5error?3?5forgot?5to?5get?5lo@ ; `string'
PUBLIC	??_C@_0DB@GPFFHCHH@?8?$CFs?8?5is?5a?5?$CFs?5attribute?0?5not?5a?5ve@ ; `string'
PUBLIC	??_C@_0BP@MGOCAHJG@Missing?5method?5instance?5name?4?6?$AA@ ; `string'
PUBLIC	??_C@_0CJ@CDBMMBKP@Bad?5constraint?5number?5?$CFd?5for?5ver@ ; `string'
PUBLIC	??_C@_0CL@CBHEBNEI@Wrong?5number?5of?5parameters?5for?5v@ ; `string'
PUBLIC	??_C@_0CH@EDLNKPMJ@Bad?5boundary?5number?5?$CFd?5for?5verte@ ; `string'
PUBLIC	??_C@_0BP@CEDOMNKL@Need?5boundary?5number?5or?5name?4?6?$AA@ ; `string'
PUBLIC	??_C@_0CB@LOIAMNAG@Illegal?5use?5of?5identifier?5?8?$CFs?8?4?6@ ; `string'
PUBLIC	??_C@_0BF@EAMJGDOF@Need?5quantity?5name?4?6?$AA@ ; `string'
PUBLIC	??_C@_0BK@NKBFEMPG@ORIGINAL?5number?5missing?4?6?$AA@ ; `string'
PUBLIC	??_C@_0BM@OEEKDIKO@Duplicate?5vertex?5number?5?$CFd?6?$AA@ ; `string'
PUBLIC	??_C@_0CB@BHGPMMFN@Vertex?5number?5must?5be?5positive?4?6@ ; `string'
PUBLIC	??_C@_0CP@JIMMJMCP@Cannot?5find?5VERTICES?5section?5of?5@ ; `string'
PUBLIC	__$ArrayPad$
PUBLIC	_read_vertices
EXTRN	_project_v_constr:PROC
EXTRN	_eval:PROC
EXTRN	_typenames:BYTE
EXTRN	_apply_method_num:PROC
EXTRN	_set_v_constraint_map:PROC
EXTRN	_V_BOUNDARY_ATTR:DWORD
EXTRN	_apply_quantity:PROC
EXTRN	_gettok:PROC
EXTRN	_set_v_global:PROC
EXTRN	_new_vertex:PROC
EXTRN	_move_to_free_front:PROC
EXTRN	_KB_realloc:PROC
;	COMDAT ??_C@_0CM@COILCHG@Wrong?5number?5of?5coordinates?5for?5@
; File c:\levolver\yonkang-sefit\levolver\ev_ogl\inline.h
CONST	SEGMENT
??_C@_0CM@COILCHG@Wrong?5number?5of?5coordinates?5for?5@ DB 'Wrong number'
	DB	' of coordinates for vertex %d.', 0aH, 00H	; `string'
CONST	ENDS
;	COMDAT ??_C@_0CF@NGLIKJND@Cannot?5have?5constraint?5and?5bound@
CONST	SEGMENT
??_C@_0CF@NGLIKJND@Cannot?5have?5constraint?5and?5bound@ DB 'Cannot have '
	DB	'constraint and boundary.', 00H		; `string'
CONST	ENDS
;	COMDAT ??_C@_0BG@BKFJJJKH@Unexpected?5token?3?5?$CFs?6?$AA@
CONST	SEGMENT
??_C@_0BG@BKFJJJKH@Unexpected?5token?3?5?$CFs?6?$AA@ DB 'Unexpected token'
	DB	': %s', 0aH, 00H				; `string'
CONST	ENDS
;	COMDAT ??_C@_0DA@MGFNEFND@Internal?5error?3?5forgot?5to?5get?5lo@
CONST	SEGMENT
??_C@_0DA@MGFNEFND@Internal?5error?3?5forgot?5to?5get?5lo@ DB 'Internal e'
	DB	'rror: forgot to get lookahead token.', 0aH, 00H ; `string'
CONST	ENDS
;	COMDAT ??_C@_0DB@GPFFHCHH@?8?$CFs?8?5is?5a?5?$CFs?5attribute?0?5not?5a?5ve@
CONST	SEGMENT
??_C@_0DB@GPFFHCHH@?8?$CFs?8?5is?5a?5?$CFs?5attribute?0?5not?5a?5ve@ DB ''''
	DB	'%s'' is a %s attribute, not a vertex attribute.', 0aH, 00H ; `string'
CONST	ENDS
;	COMDAT ??_C@_0BP@MGOCAHJG@Missing?5method?5instance?5name?4?6?$AA@
CONST	SEGMENT
??_C@_0BP@MGOCAHJG@Missing?5method?5instance?5name?4?6?$AA@ DB 'Missing m'
	DB	'ethod instance name.', 0aH, 00H		; `string'
CONST	ENDS
;	COMDAT ??_C@_0CJ@CDBMMBKP@Bad?5constraint?5number?5?$CFd?5for?5ver@
CONST	SEGMENT
??_C@_0CJ@CDBMMBKP@Bad?5constraint?5number?5?$CFd?5for?5ver@ DB 'Bad cons'
	DB	'traint number %d for vertex %d.', 0aH, 00H	; `string'
CONST	ENDS
;	COMDAT ??_C@_0CL@CBHEBNEI@Wrong?5number?5of?5parameters?5for?5v@
CONST	SEGMENT
??_C@_0CL@CBHEBNEI@Wrong?5number?5of?5parameters?5for?5v@ DB 'Wrong numbe'
	DB	'r of parameters for vertex %d.', 0aH, 00H	; `string'
CONST	ENDS
;	COMDAT ??_C@_0CH@EDLNKPMJ@Bad?5boundary?5number?5?$CFd?5for?5verte@
CONST	SEGMENT
??_C@_0CH@EDLNKPMJ@Bad?5boundary?5number?5?$CFd?5for?5verte@ DB 'Bad boun'
	DB	'dary number %d for vertex %d.', 0aH, 00H	; `string'
CONST	ENDS
;	COMDAT ??_C@_0BP@CEDOMNKL@Need?5boundary?5number?5or?5name?4?6?$AA@
CONST	SEGMENT
??_C@_0BP@CEDOMNKL@Need?5boundary?5number?5or?5name?4?6?$AA@ DB 'Need bou'
	DB	'ndary number or name.', 0aH, 00H		; `string'
CONST	ENDS
;	COMDAT ??_C@_0CB@LOIAMNAG@Illegal?5use?5of?5identifier?5?8?$CFs?8?4?6@
CONST	SEGMENT
??_C@_0CB@LOIAMNAG@Illegal?5use?5of?5identifier?5?8?$CFs?8?4?6@ DB 'Illeg'
	DB	'al use of identifier ''%s''.', 0aH, 00H	; `string'
CONST	ENDS
;	COMDAT ??_C@_0BF@EAMJGDOF@Need?5quantity?5name?4?6?$AA@
CONST	SEGMENT
??_C@_0BF@EAMJGDOF@Need?5quantity?5name?4?6?$AA@ DB 'Need quantity name.', 0aH
	DB	00H						; `string'
CONST	ENDS
;	COMDAT ??_C@_0BK@NKBFEMPG@ORIGINAL?5number?5missing?4?6?$AA@
CONST	SEGMENT
??_C@_0BK@NKBFEMPG@ORIGINAL?5number?5missing?4?6?$AA@ DB 'ORIGINAL number'
	DB	' missing.', 0aH, 00H			; `string'
CONST	ENDS
;	COMDAT ??_C@_0BM@OEEKDIKO@Duplicate?5vertex?5number?5?$CFd?6?$AA@
CONST	SEGMENT
??_C@_0BM@OEEKDIKO@Duplicate?5vertex?5number?5?$CFd?6?$AA@ DB 'Duplicate '
	DB	'vertex number %d', 0aH, 00H			; `string'
CONST	ENDS
;	COMDAT ??_C@_0CB@BHGPMMFN@Vertex?5number?5must?5be?5positive?4?6@
CONST	SEGMENT
??_C@_0CB@BHGPMMFN@Vertex?5number?5must?5be?5positive?4?6@ DB 'Vertex num'
	DB	'ber must be positive.', 0aH, 00H		; `string'
CONST	ENDS
;	COMDAT ??_C@_0CP@JIMMJMCP@Cannot?5find?5VERTICES?5section?5of?5@
CONST	SEGMENT
??_C@_0CP@JIMMJMCP@Cannot?5find?5VERTICES?5section?5of?5@ DB 'Cannot find'
	DB	' VERTICES section of the datafile.', 0aH, 00H ; `string'
; Function compile flags: /Ogtp
; File c:\levolver\yonkang-sefit\levolver\ev_ogl\lexinit.c
CONST	ENDS
;	COMDAT _read_vertices
_TEXT	SEGMENT
_x$90633 = -64						; size = 4
_sdim$ = -60						; size = 4
tv1962 = -56						; size = 4
_pcount$ = -56						; size = 4
_c$ = -52						; size = 48
__$ArrayPad$ = -4					; size = 4
_read_vertices PROC					; COMDAT

; 2139 : {

	push	ebp
	mov	ebp, esp
	sub	esp, 64					; 00000040H
	mov	eax, DWORD PTR ___security_cookie
	xor	eax, ebp
	mov	DWORD PTR __$ArrayPad$[ebp], eax

; 2140 :   int k;
; 2141 :   REAL c[MAXCOORD];  /* temporary number buffer */
; 2142 :   int cnum,bnum,pcount,qnum;
; 2143 :   struct boundary *bdry;
; 2144 :   struct constraint *constr;
; 2145 :   int more_attr;
; 2146 :   int sdim = SDIM;

	mov	eax, DWORD PTR _web+616

; 2147 : 
; 2148 :   /* allocate space in structures */
; 2149 :   EXTRAS(VERTEX)[V_NORMAL_ATTR].array_spec.sizes[0] = SDIM;

	mov	ecx, DWORD PTR _web+104
	mov	edx, DWORD PTR _dymem
	mov	DWORD PTR _sdim$[ebp], eax
	mov	DWORD PTR [ecx+edx+1776], eax

; 2150 :   EXTRAS(VERTEX)[V_CONSTRAINT_NORMAL_ATTR].array_spec.sizes[0] = SDIM;

	mov	eax, DWORD PTR _web+616
	mov	ecx, DWORD PTR _web+104
	mov	edx, DWORD PTR _dymem
	mov	DWORD PTR [ecx+edx+2016], eax

; 2151 :   expand_attribute(VERTEX,V_COORD_ATTR,&sdim);

	lea	eax, DWORD PTR _sdim$[ebp]
	push	eax
	push	0
	push	0
	call	_expand_attribute

; 2152 :   expand_attribute(VERTEX,V_OLDCOORD_ATTR,&sdim);

	lea	ecx, DWORD PTR _sdim$[ebp]
	push	ecx
	push	1
	push	0
	call	_expand_attribute

; 2153 :   expand_attribute(VERTEX,V_FORCE_ATTR,&sdim);

	lea	edx, DWORD PTR _sdim$[ebp]
	push	edx
	push	3
	push	0
	call	_expand_attribute

; 2154 :   expand_attribute(VERTEX,V_VELOCITY_ATTR,&sdim);

	lea	eax, DWORD PTR _sdim$[ebp]
	push	eax
	push	4
	push	0
	call	_expand_attribute
	add	esp, 48					; 00000030H

; 2155 :   if ( web.maxparam > 0 )

	cmp	DWORD PTR _web+640, 0
	jle	SHORT $LN83@read_verti

; 2156 :   { expand_attribute(VERTEX,V_PARAM_ATTR,&web.maxparam);

	push	OFFSET _web+640
	push	2
	push	0
	call	_expand_attribute
	add	esp, 12					; 0000000cH
$LN83@read_verti:

; 2157 :   }
; 2158 : 
; 2159 :   /* read in vertex coordinates */
; 2160 :   vmaxlist = MAXLIST;
; 2161 :   vlist = (vertex_id *)mycalloc(sizeof(vertex_id),vmaxlist);

	push	2161					; 00000871H
	push	OFFSET ??_C@_09JGPPFAML@LEXINIT?4C?$AA@
	push	100					; 00000064H
	push	4
	mov	DWORD PTR _vmaxlist, 100		; 00000064H
	call	_kb_calloc
	add	esp, 16					; 00000010H

; 2162 :   if ( tok != VERTICES_TOK  ) 

	cmp	DWORD PTR _tok, 293			; 00000125H
	mov	DWORD PTR _vlist, eax
	je	SHORT $LN82@read_verti

; 2163 :      kb_error(1115,"Cannot find VERTICES section of the datafile.\n",
; 2164 :           UNRECOVERABLE);

	push	0
	push	OFFSET ??_C@_0CP@JIMMJMCP@Cannot?5find?5VERTICES?5section?5of?5@
	push	1115					; 0000045bH
	call	_kb_error
	add	esp, 12					; 0000000cH
$LN82@read_verti:

; 2165 : 
; 2166 :   tok = yylex();

	push	ebx
	push	esi
	push	edi
	push	0
	call	_kb_yylex
	add	esp, 4
	mov	DWORD PTR _tok, eax
	npad	5
$LL167@read_verti:

; 2167 :   while ( (tok == LEAD_INTEGER_TOK) || (tok == LEAD_INTEGER_AT_TOK) )

	mov	eax, DWORD PTR _tok

; 2445 :     }

	mov	ebx, 512				; 00000200H
	cmp	eax, 264				; 00000108H
	je	SHORT $LN79@read_verti

; 2167 :   while ( (tok == LEAD_INTEGER_TOK) || (tok == LEAD_INTEGER_AT_TOK) )

	cmp	eax, 549				; 00000225H
	jne	$LN163@read_verti
$LN79@read_verti:

; 2168 :   { 
; 2169 :     #ifdef MPI_EVOLVER
; 2170 :     /* test task number, for MPI */
; 2171 :     int task;
; 2172 :     if ( tok == LEAD_INTEGER_TOK )
; 2173 :        task = 1;  /* default to task 1 */
; 2174 :     else task = yylval.qnum;
; 2175 :     if ( task >= mpi_nprocs || task < 1 )
; 2176 :     { sprintf(errmsg,"Task number %d must be between 1 and %d, %d\n",
; 2177 :          task,mpi_nprocs-1);
; 2178 :       kb_error(5006,errmsg,RECOVERABLE);
; 2179 :     }
; 2180 :     if ( task != this_task )
; 2181 :     { /* skip this vertex */
; 2182 :       int flag = 0;
; 2183 :       while ( !flag ) 
; 2184 :       { tok = yylex();
; 2185 :         switch (tok)
; 2186 :         { case LEAD_INTEGER_TOK: 
; 2187 :           case LEAD_INTEGER_AT_TOK:
; 2188 :           case EDGES_TOK:
; 2189 :           case FACES_TOK:
; 2190 :           case BODIES_TOK:
; 2191 :           case READ_TOK:
; 2192 :           case 0:
; 2193 :             flag = 1;
; 2194 :             break;
; 2195 :         }
; 2196 :       }
; 2197 :       continue;  /* next vertex */
; 2198 :     }
; 2199 :     #endif
; 2200 :    
; 2201 :     k = yylval.i;

	mov	esi, DWORD PTR _yylval

; 2202 :     if ( k < 1 ) 

	cmp	esi, 1
	jge	SHORT $LN78@read_verti

; 2203 :        kb_error(2103,"Vertex number must be positive.\n",DATAFILE_ERROR);

	push	6
	push	OFFSET ??_C@_0CB@BHGPMMFN@Vertex?5number?5must?5be?5positive?4?6@
	push	2103					; 00000837H
	call	_kb_error
	add	esp, 12					; 0000000cH
$LN78@read_verti:

; 2204 :     for ( pcount = 0 ; pcount < SDIM ; pcount++ )

	cmp	DWORD PTR _web+616, 0
	mov	DWORD PTR _pcount$[ebp], 0
	jle	SHORT $LN168@read_verti
	lea	edi, DWORD PTR _c$[ebp]
	npad	2
$LL178@read_verti:

; 2205 :     { if ( read_const(&c[pcount]) <= 0 ) break;

	push	edi
	call	_read_const
	add	esp, 4
	test	eax, eax
	jle	SHORT $LN168@read_verti

; 2206 :       if ( (tok == LEAD_INTEGER_TOK) || (tok == LEAD_INTEGER_AT_TOK) ) 

	mov	eax, DWORD PTR _tok
	cmp	eax, 264				; 00000108H
	je	SHORT $LN143@read_verti
	cmp	eax, 549				; 00000225H
	je	SHORT $LN143@read_verti

; 2204 :     for ( pcount = 0 ; pcount < SDIM ; pcount++ )

	mov	eax, DWORD PTR _pcount$[ebp]
	inc	eax
	add	edi, 8
	mov	DWORD PTR _pcount$[ebp], eax
	cmp	eax, DWORD PTR _web+616
	jl	SHORT $LL178@read_verti

; 2386 :                  if ( (cnum >= web.maxcon) || !(constr->attr & IN_USE) )

	jmp	SHORT $LN168@read_verti
$LN143@read_verti:

; 2207 :       { pcount++; break; }

	inc	DWORD PTR _pcount$[ebp]
$LN168@read_verti:

; 2208 :     }
; 2209 :     tok = yylex(); /* get lookahead */

	push	0
	call	_kb_yylex
	mov	DWORD PTR _tok, eax

; 2210 : 
; 2211 : 
; 2212 :     if ( k >= vmaxlist )

	mov	eax, DWORD PTR _vmaxlist
	add	esp, 4
	cmp	esi, eax
	jl	SHORT $LN165@read_verti

; 2213 :     { int spot = vmaxlist; 

	mov	edi, eax
$LL70@read_verti:

; 2214 :       while ( k >= vmaxlist )
; 2215 :         vmaxlist *= 2;

	add	eax, eax
	cmp	esi, eax
	jge	SHORT $LL70@read_verti

; 2216 :       vlist = (vertex_id *)kb_realloc((char *)vlist,
; 2217 :                vmaxlist*sizeof(vertex_id));

	mov	edx, DWORD PTR _vlist
	push	2217					; 000008a9H
	push	OFFSET ??_C@_09JGPPFAML@LEXINIT?4C?$AA@
	lea	ecx, DWORD PTR [eax*4]
	push	ecx
	push	edx
	mov	DWORD PTR _vmaxlist, eax
	call	_KB_realloc
	add	esp, 16					; 00000010H
	mov	DWORD PTR _vlist, eax

; 2218 :       for ( ; spot < vmaxlist ; spot ++ ) vlist[spot] = NULLID;

	cmp	edi, DWORD PTR _vmaxlist
	jge	SHORT $LN165@read_verti
	npad	6
$LL180@read_verti:
	mov	eax, DWORD PTR _vlist
	mov	DWORD PTR [eax+edi*4], 0
	inc	edi
	cmp	edi, DWORD PTR _vmaxlist
	jl	SHORT $LL180@read_verti
	mov	ebx, 512				; 00000200H
$LN165@read_verti:

; 2219 :     }
; 2220 :     if ( valid_id(vlist[k]) )

	mov	ecx, DWORD PTR _vlist
	test	DWORD PTR [ecx+esi*4], 268435456	; 10000000H
	je	SHORT $LN65@read_verti

; 2221 :     { sprintf(errmsg,"Duplicate vertex number %d\n",k);

	push	esi
	push	OFFSET ??_C@_0BM@OEEKDIKO@Duplicate?5vertex?5number?5?$CFd?6?$AA@
	push	OFFSET _errmsg
	call	_sprintf

; 2222 :       kb_error(1117,errmsg,DATAFILE_ERROR);

	push	6
	push	OFFSET _errmsg
	push	1117					; 0000045dH
	call	_kb_error
	add	esp, 24					; 00000018H
$LN65@read_verti:

; 2223 :     }
; 2224 :     move_to_free_front(VERTEX,k); /* so id will be k */

	push	esi
	push	0
	call	_move_to_free_front

; 2225 :     vlist[k] = new_vertex(c,NULLID);

	lea	edx, DWORD PTR _c$[ebp]
	push	0
	push	edx
	call	_new_vertex
	mov	ecx, DWORD PTR _vlist
	mov	DWORD PTR [ecx+esi*4], eax

; 2226 :     set_original(vlist[k],(k-1)|((element_id)VERTEX<<TYPESHIFT)|VALIDMASK);

	mov	edx, DWORD PTR _vlist
	mov	eax, DWORD PTR [edx+esi*4]
	mov	edx, eax
	shr	edx, 29					; 0000001dH
	imul	edx, 112				; 00000070H
	mov	edx, DWORD PTR _web[edx+12]
	and	eax, 134217727				; 07ffffffH
	mov	eax, DWORD PTR [edx+eax*4]
	lea	ecx, DWORD PTR [esi-1]
	or	ecx, 268435456				; 10000000H
	mov	DWORD PTR [eax+20], ecx

; 2227 : 
; 2228 :     /* attributes */
; 2229 :     if ( web.con_global_map )
; 2230 :     { set_v_global(vlist[k]);

	mov	ecx, DWORD PTR _vlist
	mov	edx, DWORD PTR [ecx+esi*4]
	push	edx
	call	_set_v_global
	add	esp, 20					; 00000014H
$LN191@read_verti:
	mov	ecx, DWORD PTR _tok
	npad	4
$LL63@read_verti:

; 2231 :     }
; 2232 :     for ( more_attr = 1 ; more_attr ; )
; 2233 :       switch ( tok )

	mov	eax, ecx
	cmp	eax, 264				; 00000108H
	jg	SHORT $LN102@read_verti
	je	$LN176@read_verti
	test	eax, eax
	jmp	$LN190@read_verti
$LN102@read_verti:
	cmp	eax, 549				; 00000225H
	jg	$LN103@read_verti
	je	$LN176@read_verti
	sub	eax, 284				; 0000011cH
	cmp	eax, 236				; 000000ecH
	ja	$LN175@read_verti
	movzx	eax, BYTE PTR $LN160@read_verti[eax]
	jmp	DWORD PTR $LN192@read_verti[eax*4]
$LN57@read_verti:

; 2244 : 
; 2245 :            case BARE_TOK:
; 2246 :               set_attr(vlist[k],BARE_NAKED);

	mov	ecx, DWORD PTR _vlist
	mov	eax, DWORD PTR [ecx+esi*4]
	mov	edx, eax
	shr	edx, 29					; 0000001dH
	imul	edx, 112				; 00000070H
	mov	ecx, DWORD PTR _web[edx+12]
	and	eax, 134217727				; 07ffffffH
	mov	eax, DWORD PTR [ecx+eax*4]
	or	DWORD PTR [eax+8], 65536		; 00010000H
$LN188@read_verti:
	mov	edx, DWORD PTR [eax+12]
	mov	DWORD PTR [eax+12], edx
$LN187@read_verti:

; 2247 :               tok = yylex();

	push	0
	call	_kb_yylex
	mov	ecx, eax
	add	esp, 4
	mov	DWORD PTR _tok, ecx

; 2248 :               break;

	jmp	$LL63@read_verti
$LN56@read_verti:

; 2249 : 
; 2250 :            case NO_HESSIAN_NORMAL_TOK:
; 2251 :               set_attr(vlist[k],NO_HESSIAN_NORMAL_ATTR);

	mov	eax, DWORD PTR _vlist
	mov	eax, DWORD PTR [eax+esi*4]
	mov	ecx, eax
	shr	ecx, 29					; 0000001dH
	imul	ecx, 112				; 00000070H
	mov	edx, DWORD PTR _web[ecx+12]
	and	eax, 134217727				; 07ffffffH
	mov	eax, DWORD PTR [edx+eax*4]
	mov	ecx, DWORD PTR [eax+12]
	or	DWORD PTR [eax+8], -2147483648		; 80000000H
	mov	DWORD PTR [eax+12], ecx

; 2252 :               tok = yylex();
; 2253 :               break;

	jmp	SHORT $LN187@read_verti
$LN55@read_verti:

; 2254 : 
; 2255 : 
; 2256 :            case AXIAL_POINT_TOK:
; 2257 :               set_attr(vlist[k],AXIAL_POINT);

	mov	edx, DWORD PTR _vlist
	mov	eax, DWORD PTR [edx+esi*4]
	mov	ecx, eax
	shr	ecx, 29					; 0000001dH
	imul	ecx, 112				; 00000070H
	mov	edx, DWORD PTR _web[ecx+12]
	and	eax, 134217727				; 07ffffffH
	mov	eax, DWORD PTR [edx+eax*4]
	mov	ecx, DWORD PTR [eax+12]
	or	DWORD PTR [eax+8], 8388608		; 00800000H
	mov	DWORD PTR [eax+12], ecx

; 2258 :               tok = yylex();
; 2259 :               break;

	jmp	SHORT $LN187@read_verti
$LN54@read_verti:

; 2260 : 
; 2261 :            case ORIGINAL_TOK:
; 2262 :               if ( (tok = gettok(INTEGER_TOK)) != INTEGER_TOK )

	push	265					; 00000109H
	call	_gettok
	add	esp, 4
	mov	DWORD PTR _tok, eax
	cmp	eax, 265				; 00000109H
	je	SHORT $LN53@read_verti

; 2263 :               { kb_error(2104,"ORIGINAL number missing.\n",DATAFILE_ERROR);

	push	6
	push	OFFSET ??_C@_0BK@NKBFEMPG@ORIGINAL?5number?5missing?4?6?$AA@
	push	2104					; 00000838H
	call	_kb_error
	add	esp, 12					; 0000000cH

; 2264 :                 break;

	jmp	$LN191@read_verti
$LN53@read_verti:

; 2265 :               }
; 2266 :               set_original(vlist[k],(yylval.i-1)|((element_id)VERTEX<<TYPESHIFT)|VALIDMASK);

	mov	edx, DWORD PTR _vlist
	mov	eax, DWORD PTR [edx+esi*4]
	mov	ecx, DWORD PTR _yylval
	mov	edx, eax
	shr	edx, 29					; 0000001dH
	imul	edx, 112				; 00000070H
	mov	edx, DWORD PTR _web[edx+12]
	dec	ecx
	or	ecx, 268435456				; 10000000H
	and	eax, 134217727				; 07ffffffH
	mov	eax, DWORD PTR [edx+eax*4]
	mov	DWORD PTR [eax+20], ecx

; 2267 :               tok = yylex();
; 2268 :               break;

	jmp	$LN187@read_verti
$LN52@read_verti:

; 2269 : 
; 2270 :            case FIXED_TOK:
; 2271 :               set_attr(vlist[k],FIXED);

	mov	ecx, DWORD PTR _vlist
	mov	eax, DWORD PTR [ecx+esi*4]
	mov	edx, eax
	shr	edx, 29					; 0000001dH
	imul	edx, 112				; 00000070H
	mov	ecx, DWORD PTR _web[edx+12]
	and	eax, 134217727				; 07ffffffH
	mov	eax, DWORD PTR [ecx+eax*4]
	or	DWORD PTR [eax+8], 64			; 00000040H

; 2272 :               tok = yylex();
; 2273 :               break;

	jmp	$LN188@read_verti
$LN51@read_verti:

; 2274 : 
; 2275 :            case HIT_PARTNER_TOK:
; 2276 :               set_attr(vlist[k],HIT_PARTNER);

	mov	eax, DWORD PTR _vlist
	mov	eax, DWORD PTR [eax+esi*4]
	mov	ecx, eax
	shr	ecx, 29					; 0000001dH
	imul	ecx, 112				; 00000070H
	mov	edx, DWORD PTR _web[ecx+12]
	and	eax, 134217727				; 07ffffffH
	mov	eax, DWORD PTR [edx+eax*4]
	mov	ecx, DWORD PTR [eax+12]
	or	DWORD PTR [eax+8], 32768		; 00008000H
	mov	DWORD PTR [eax+12], ecx

; 2277 :               tok = yylex();
; 2278 :               break;

	jmp	$LN187@read_verti
$LN44@read_verti:

; 2297 :               break;
; 2298 :  
; 2299 :            case QUANTITY_TOK:
; 2300 :               tok = yylex();

	push	0
	call	_kb_yylex
	add	esp, 4
	mov	DWORD PTR _tok, eax

; 2301 :                if ( tok != QUANTITY_NAME_TOK )

	cmp	eax, 336				; 00000150H
	je	SHORT $LN43@read_verti

; 2302 :                { kb_error(1121,"Need quantity name.\n",DATAFILE_ERROR);

	push	6
	push	OFFSET ??_C@_0BF@EAMJGDOF@Need?5quantity?5name?4?6?$AA@
	push	1121					; 00000461H
	call	_kb_error
	add	esp, 12					; 0000000cH

; 2303 :                  break;

	jmp	$LN191@read_verti
$LN43@read_verti:

; 2304 :                }
; 2305 :                // else fall through
; 2306 : 
; 2307 :            case QUANTITY_NAME_TOK: /* name of quantity */
; 2308 :               qnum = yylval.i;

	mov	edi, DWORD PTR _yylval

; 2309 :               tok = yylex();

	push	0
	call	_kb_yylex
	add	esp, 4
	mov	DWORD PTR _tok, eax

; 2310 :               if ( tok == '-' || tok == UMINUS_TOK )

	cmp	eax, 45					; 0000002dH
	je	SHORT $LN40@read_verti
	cmp	eax, 287				; 0000011fH
	je	SHORT $LN40@read_verti

; 2313 :               }
; 2314 :               else 
; 2315 :                 apply_quantity(vlist[k],qnum);

	mov	edx, DWORD PTR _vlist
	mov	eax, DWORD PTR [edx+esi*4]
	push	edi
	push	eax
	call	_apply_quantity
	add	esp, 8
	jmp	$LN191@read_verti
$LN40@read_verti:

; 2311 :               { apply_quantity(inverse_id(vlist[k]),qnum);

	mov	ecx, DWORD PTR _vlist
	mov	edx, DWORD PTR [ecx+esi*4]
	xor	edx, 134217728				; 08000000H
	push	edi
	push	edx
	call	_apply_quantity

; 2312 :                 tok = yylex();

	push	0
	call	_kb_yylex
	mov	ecx, eax
	add	esp, 12					; 0000000cH
	mov	DWORD PTR _tok, ecx
	jmp	$LL63@read_verti
$LN38@read_verti:

; 2316 :               break;
; 2317 : 
; 2318 :            case IDENT_TOK:  /* maybe method or quantity */
; 2319 :               { sprintf(errmsg,"Illegal use of identifier '%s'.\n",yytext);

	mov	eax, DWORD PTR _yytext
	push	eax
	push	OFFSET ??_C@_0CB@LOIAMNAG@Illegal?5use?5of?5identifier?5?8?$CFs?8?4?6@
	push	OFFSET _errmsg
	call	_sprintf

; 2320 :                 kb_error(1118,errmsg,DATAFILE_ERROR);

	push	6
	push	OFFSET _errmsg
	push	1118					; 0000045eH

; 2321 :               }
; 2322 :               tok = yylex();
; 2323 :               break;

	jmp	$LN185@read_verti
$LN37@read_verti:

; 2324 : 
; 2325 : 
; 2326 :            case BOUNDARY_TOK:
; 2327 :            case BOUNDARY_NAME_TOK:
; 2328 :               {
; 2329 :                 REAL *x,*param;
; 2330 :                 int n;
; 2331 : 
; 2332 :                 if ( tok == BOUNDARY_TOK )

	cmp	ecx, 408				; 00000198H
	jne	SHORT $LN171@read_verti

; 2333 :                   tok = gettok(INTEGER_TOK);

	push	265					; 00000109H
	call	_gettok
	mov	ecx, eax
	add	esp, 4
	mov	DWORD PTR _tok, ecx
$LN171@read_verti:

; 2334 :                 if ( (tok != INTEGER_TOK) && ( tok != BOUNDARY_NAME_TOK ) )  

	cmp	ecx, 265				; 00000109H
	je	SHORT $LN151@read_verti
	cmp	ecx, 520				; 00000208H
	je	SHORT $LN34@read_verti

; 2335 :                 { kb_error(1122,"Need boundary number or name.\n",
; 2336 :                      DATAFILE_ERROR);

	push	6
	push	OFFSET ??_C@_0BP@CEDOMNKL@Need?5boundary?5number?5or?5name?4?6?$AA@
	push	1122					; 00000462H
	call	_kb_error
	add	esp, 12					; 0000000cH

; 2337 :                   break;

	jmp	$LN191@read_verti
$LN151@read_verti:

; 2338 :                 }
; 2339 :                 if ( tok == INTEGER_TOK )
; 2340 :                 { bnum = abs(yylval.i);

	mov	eax, DWORD PTR _yylval
	cdq
	xor	eax, edx
	sub	eax, edx

; 2341 :                   if ( (bnum >= web.bdrymax) 
; 2342 :                     ||  !(web.boundaries[bnum].attr & IN_USE) )

	cmp	eax, DWORD PTR _web+768
	jge	SHORT $LN172@read_verti
	mov	edx, DWORD PTR _web+776
	mov	ecx, eax
	imul	ecx, 136				; 00000088H
	mov	ecx, DWORD PTR [ecx+edx+32]
	and	ecx, 32					; 00000020H
	xor	edx, edx
	or	ecx, edx
	jne	$LN31@read_verti
$LN172@read_verti:

; 2343 :                    {
; 2344 :                       sprintf(errmsg,
; 2345 :                           "Bad boundary number %d for vertex %d.\n",bnum,k);

	push	esi
	push	eax
	push	OFFSET ??_C@_0CH@EDLNKPMJ@Bad?5boundary?5number?5?$CFd?5for?5verte@
	push	OFFSET _errmsg
	call	_sprintf

; 2346 :                       kb_error(1123,errmsg,DATAFILE_ERROR);

	push	6
	push	OFFSET _errmsg
	push	1123					; 00000463H
	call	_kb_error

; 2347 :                       yylex();

	push	0
	call	_kb_yylex
	add	esp, 32					; 00000020H

; 2348 :                       break;

	jmp	$LN191@read_verti
$LN34@read_verti:

; 2349 :                    }          
; 2350 :                 }
; 2351 :                 else
; 2352 :                 { bnum = globals(yylval.i)->value.bnum;

	mov	eax, DWORD PTR _yylval
	mov	ecx, eax
	and	ecx, -16777216				; ff000000H
	cmp	ecx, 268435456				; 10000000H
	je	SHORT $LN86@read_verti
	cmp	ecx, 805306368				; 30000000H
	jne	SHORT $LN88@read_verti
	mov	ecx, DWORD PTR _localbase
	and	eax, 16777215				; 00ffffffH
	imul	eax, 224				; 000000e0H
	add	eax, DWORD PTR [ecx]
	jmp	SHORT $LN87@read_verti
$LN88@read_verti:
	cmp	ecx, 536870912				; 20000000H
	jne	SHORT $LN86@read_verti
	mov	edx, DWORD PTR _web+5656
	and	eax, 16777215				; 00ffffffH
	mov	eax, DWORD PTR [edx+eax*4]
	jmp	SHORT $LN87@read_verti
$LN86@read_verti:
	mov	ecx, DWORD PTR _web+5652
	and	eax, 16777215				; 00ffffffH
	lea	edx, DWORD PTR [ecx+eax*4]
	mov	eax, DWORD PTR _dymem
	mov	eax, DWORD PTR [edx+eax]
$LN87@read_verti:
	mov	eax, DWORD PTR [eax+64]
$LN31@read_verti:

; 2353 :                 }
; 2354 :                 set_attr(vlist[k],BOUNDARY);

	mov	ecx, DWORD PTR _vlist
	mov	ecx, DWORD PTR [ecx+esi*4]
	mov	edx, ecx
	shr	edx, 29					; 0000001dH
	imul	edx, 112				; 00000070H
	mov	edx, DWORD PTR _web[edx+12]
	and	ecx, 134217727				; 07ffffffH
	mov	ecx, DWORD PTR [edx+ecx*4]
	mov	edx, DWORD PTR [ecx+12]
	or	DWORD PTR [ecx+8], 128			; 00000080H
	mov	DWORD PTR [ecx+12], edx

; 2355 :                 if ( yylval.i < 0 )  set_attr(vlist[k],NEGBOUNDARY); 

	cmp	DWORD PTR _yylval, 0
	jge	SHORT $LN119@read_verti
	mov	ecx, DWORD PTR _vlist
	mov	ecx, DWORD PTR [ecx+esi*4]
	mov	edx, ecx
	shr	edx, 29					; 0000001dH
	imul	edx, 112				; 00000070H
	mov	edx, DWORD PTR _web[edx+12]
	and	ecx, 134217727				; 07ffffffH
	mov	ecx, DWORD PTR [edx+ecx*4]
	mov	edx, DWORD PTR [ecx+12]
	or	DWORD PTR [ecx+8], 256			; 00000100H
	mov	DWORD PTR [ecx+12], edx
$LN119@read_verti:

; 2356 :                 set_boundary_num(vlist[k],bnum);

	mov	ecx, DWORD PTR _V_BOUNDARY_ATTR
	test	ecx, ecx
	je	SHORT $LN94@read_verti
	mov	edx, DWORD PTR _vlist
	imul	ecx, 240				; 000000f0H
	mov	edx, DWORD PTR [edx+esi*4]
	mov	edi, DWORD PTR _web+12
	add	ecx, DWORD PTR _web+104
	and	edx, 134217727				; 07ffffffH
	mov	edx, DWORD PTR [edi+edx*4]
	mov	edi, DWORD PTR _dymem
	mov	ecx, DWORD PTR [ecx+edi+64]
	mov	DWORD PTR [edx+ecx], eax

; 2357 :                 bdry = get_boundary(vlist[k]); 

	mov	eax, DWORD PTR _V_BOUNDARY_ATTR
	test	eax, eax
	je	SHORT $LN94@read_verti
	mov	edx, DWORD PTR _vlist
	imul	eax, 240				; 000000f0H
	mov	ecx, DWORD PTR [edx+esi*4]
	mov	edx, DWORD PTR _web+12
	add	eax, DWORD PTR _web+104
	and	ecx, 134217727				; 07ffffffH
	mov	ecx, DWORD PTR [edx+ecx*4]
	mov	edx, DWORD PTR _dymem
	mov	eax, DWORD PTR [eax+edx+64]
	mov	edi, DWORD PTR [ecx+eax]
	imul	edi, 136				; 00000088H
	add	edi, DWORD PTR _web+776
	jmp	SHORT $LN95@read_verti
$LN94@read_verti:
	xor	edi, edi
$LN95@read_verti:

; 2358 :                 if ( pcount != bdry->pcount )

	mov	ecx, DWORD PTR _pcount$[ebp]
	cmp	ecx, DWORD PTR [edi+40]
	je	SHORT $LN29@read_verti

; 2359 :                   { sprintf(errmsg, "Wrong number of parameters for vertex %d.\n",k);

	push	esi
	push	OFFSET ??_C@_0CL@CBHEBNEI@Wrong?5number?5of?5parameters?5for?5v@
	push	OFFSET _errmsg
	call	_sprintf

; 2360 :                     kb_error(1124,errmsg,DATAFILE_ERROR);

	push	6
	push	OFFSET _errmsg
	push	1124					; 00000464H
	call	_kb_error
	add	esp, 24					; 00000018H
$LN29@read_verti:

; 2361 :                   }          
; 2362 :                 if ( (bdry->attr & CON_ENERGY) && (yytext[0] != '0') )

	mov	eax, DWORD PTR [edi+32]
	and	eax, 64					; 00000040H
	xor	ecx, ecx
	or	eax, ecx
	je	SHORT $LN173@read_verti
	mov	edx, DWORD PTR _yytext
	cmp	BYTE PTR [edx], 48			; 00000030H
	je	SHORT $LN173@read_verti

; 2363 :                    set_attr(vlist[k], BDRY_ENERGY);

	mov	eax, DWORD PTR _vlist
	mov	eax, DWORD PTR [eax+esi*4]
	mov	ecx, eax
	shr	ecx, 29					; 0000001dH
	imul	ecx, 112				; 00000070H
	mov	edx, DWORD PTR _web[ecx+12]
	and	eax, 134217727				; 07ffffffH
	mov	eax, DWORD PTR [edx+eax*4]
	mov	ecx, DWORD PTR [eax+12]
	or	DWORD PTR [eax+8], ebx
	mov	DWORD PTR [eax+12], ecx
$LN173@read_verti:

; 2364 :                 if ( bdry->attr & CON_CONTENT )

	mov	edi, DWORD PTR [edi+32]
	and	edi, 128				; 00000080H
	xor	eax, eax
	or	edi, eax
	je	SHORT $LN123@read_verti

; 2365 :                    set_attr(vlist[k], BDRY_CONTENT);

	mov	edx, DWORD PTR _vlist
	mov	eax, DWORD PTR [edx+esi*4]
	mov	ecx, eax
	shr	ecx, 29					; 0000001dH
	imul	ecx, 112				; 00000070H
	mov	edx, DWORD PTR _web[ecx+12]
	and	eax, 134217727				; 07ffffffH
	mov	eax, DWORD PTR [edx+eax*4]
	mov	ecx, DWORD PTR [eax+12]
	or	DWORD PTR [eax+8], 4096			; 00001000H
	mov	DWORD PTR [eax+12], ecx
$LN123@read_verti:

; 2366 :                 param = get_param(vlist[k]);

	mov	edx, DWORD PTR _vlist
	mov	eax, DWORD PTR [edx+esi*4]
	mov	ecx, DWORD PTR _web+12
	mov	edi, DWORD PTR _dymem
	and	eax, 134217727				; 07ffffffH
	mov	edx, DWORD PTR [ecx+eax*4]
	mov	ecx, DWORD PTR _web+104
	mov	eax, DWORD PTR [ecx+edi+544]

; 2367 :                 x = get_coord(vlist[k]);

	mov	ecx, DWORD PTR [ecx+edi+64]
	add	eax, edx
	add	ecx, edx

; 2368 :                 for ( n = 0 ; n < web.maxparam ; n++ )

	xor	edx, edx
	cmp	DWORD PTR _web+640, edx
	jle	SHORT $LN24@read_verti
	sub	ecx, eax
$LL182@read_verti:

; 2369 :                       param[n] = x[n];

	fld	QWORD PTR [ecx+eax]
	inc	edx
	fstp	QWORD PTR [eax]
	add	eax, 8
	cmp	edx, DWORD PTR _web+640
	jl	SHORT $LL182@read_verti
$LN24@read_verti:

; 2370 :                 /* initial coordinate calculation later, after all info */
; 2371 :                 tok = yylex();

	push	0
	call	_kb_yylex

; 2422 :                 tok = yylex();

	mov	ecx, eax
	add	esp, 4
	mov	DWORD PTR _tok, ecx
	jmp	$LL63@read_verti
$LN23@read_verti:

; 2372 :                     }
; 2373 :                 break;
; 2374 : 
; 2375 :       case CONSTRAINT_TOK:
; 2376 :       case CONSTRAINT_NAME_TOK:
; 2377 :             if ( tok == CONSTRAINT_TOK )

	cmp	ecx, 320				; 00000140H
	jne	SHORT $LL21@read_verti

; 2403 :                     set_attr(vlist[k], BDRY_CONTENT);

$LN131@read_verti:

; 2378 :               tok = gettok(INTEGER_TOK);

	push	265					; 00000109H
	call	_gettok
	mov	ecx, eax
	mov	DWORD PTR _tok, ecx
	add	esp, 4
$LL21@read_verti:

; 2379 :             while ( (tok == INTEGER_TOK) || (tok==CONSTRAINT_NAME_TOK) )

	cmp	ecx, 265				; 00000109H
	je	SHORT $LN150@read_verti
	cmp	ecx, 519				; 00000207H
	jne	$LL63@read_verti

; 2384 :                    cnum = globals(yylval.i)->value.cnum;

	mov	eax, DWORD PTR _yylval
	mov	ecx, eax
	and	ecx, -16777216				; ff000000H
	cmp	ecx, 268435456				; 10000000H
	je	SHORT $LN96@read_verti
	cmp	ecx, 805306368				; 30000000H
	jne	SHORT $LN98@read_verti
	mov	edx, DWORD PTR _localbase
	and	eax, 16777215				; 00ffffffH
	imul	eax, 224				; 000000e0H
	add	eax, DWORD PTR [edx]
	jmp	SHORT $LN97@read_verti
$LN150@read_verti:

; 2380 :               {
; 2381 :                  if ( tok == INTEGER_TOK )
; 2382 :                    cnum = abs(yylval.i);

	mov	eax, DWORD PTR _yylval
	cdq
	xor	eax, edx
	sub	eax, edx

; 2383 :                  else

	jmp	SHORT $LN17@read_verti
$LN98@read_verti:

; 2384 :                    cnum = globals(yylval.i)->value.cnum;

	cmp	ecx, 536870912				; 20000000H
	jne	SHORT $LN96@read_verti
	mov	ecx, DWORD PTR _web+5656
	and	eax, 16777215				; 00ffffffH
	mov	eax, DWORD PTR [ecx+eax*4]
	jmp	SHORT $LN97@read_verti
$LN96@read_verti:
	mov	edx, DWORD PTR _web+5652
	mov	ecx, DWORD PTR _dymem
	and	eax, 16777215				; 00ffffffH
	lea	eax, DWORD PTR [edx+eax*4]
	mov	eax, DWORD PTR [eax+ecx]
$LN97@read_verti:
	mov	eax, DWORD PTR [eax+64]
$LN17@read_verti:

; 2385 :                  constr = get_constraint(cnum); 

	mov	edi, eax
	and	edi, 1073741823				; 3fffffffH
	imul	edi, 176				; 000000b0H
	add	edi, DWORD PTR _web+652

; 2386 :                  if ( (cnum >= web.maxcon) || !(constr->attr & IN_USE) )

	cmp	eax, DWORD PTR _web+644
	jge	$LN144@read_verti
	mov	ecx, DWORD PTR [edi+32]
	and	ecx, 32					; 00000020H
	xor	edx, edx
	or	ecx, edx
	je	$LN144@read_verti

; 2392 :                       break;
; 2393 :                     }
; 2394 : 
; 2395 :                  set_attr(vlist[k],CONSTRAINT);

	mov	edx, DWORD PTR _vlist
	mov	ecx, DWORD PTR [edx+esi*4]
	mov	edx, ecx
	shr	edx, 29					; 0000001dH
	imul	edx, 112				; 00000070H
	mov	edx, DWORD PTR _web[edx+12]
	and	ecx, 134217727				; 07ffffffH
	mov	ecx, DWORD PTR [edx+ecx*4]
	mov	edx, DWORD PTR [ecx+12]
	or	DWORD PTR [ecx+8], 1024			; 00000400H
	mov	DWORD PTR [ecx+12], edx

; 2396 :                  if ( yylval.i < 0 )  

	cmp	DWORD PTR _yylval, 0
	jge	SHORT $LN127@read_verti

; 2397 :                    set_attr(vlist[k],NEGBOUNDARY); 

	mov	ecx, DWORD PTR _vlist
	mov	ecx, DWORD PTR [ecx+esi*4]
	mov	edx, ecx
	shr	edx, 29					; 0000001dH
	imul	edx, 112				; 00000070H
	mov	edx, DWORD PTR _web[edx+12]
	and	ecx, 134217727				; 07ffffffH
	mov	ecx, DWORD PTR [edx+ecx*4]
	mov	edx, DWORD PTR [ecx+12]
	or	DWORD PTR [ecx+8], 256			; 00000100H
	mov	DWORD PTR [ecx+12], edx
$LN127@read_verti:

; 2398 :                  set_v_constraint_map(vlist[k],cnum);

	push	eax
	mov	eax, DWORD PTR _vlist
	mov	ecx, DWORD PTR [eax+esi*4]
	push	ecx
	call	_set_v_constraint_map

; 2399 : 
; 2400 :                  if ( (constr->attr & CON_ENERGY) && (yytext[0] != '0') )

	mov	eax, DWORD PTR [edi+32]
	and	eax, 64					; 00000040H
	xor	ecx, ecx
	add	esp, 8
	or	eax, ecx
	je	SHORT $LN170@read_verti
	mov	edx, DWORD PTR _yytext
	cmp	BYTE PTR [edx], 48			; 00000030H
	je	SHORT $LN170@read_verti

; 2401 :                     set_attr(vlist[k], BDRY_ENERGY);

	mov	eax, DWORD PTR _vlist
	mov	eax, DWORD PTR [eax+esi*4]
	mov	ecx, eax
	shr	ecx, 29					; 0000001dH
	imul	ecx, 112				; 00000070H
	mov	edx, DWORD PTR _web[ecx+12]
	and	eax, 134217727				; 07ffffffH
	mov	eax, DWORD PTR [edx+eax*4]
	mov	ecx, DWORD PTR [eax+12]
	or	DWORD PTR [eax+8], ebx
	mov	DWORD PTR [eax+12], ecx
$LN170@read_verti:

; 2402 :                  if ( constr->attr & CON_CONTENT )

	mov	eax, DWORD PTR [edi+32]
	and	eax, 128				; 00000080H
	xor	ecx, ecx
	or	eax, ecx
	je	$LN131@read_verti

; 2403 :                     set_attr(vlist[k], BDRY_CONTENT);

	mov	edx, DWORD PTR _vlist
	mov	eax, DWORD PTR [edx+esi*4]
	mov	ecx, eax
	shr	ecx, 29					; 0000001dH
	imul	ecx, 112				; 00000070H
	mov	edx, DWORD PTR _web[ecx+12]
	and	eax, 134217727				; 07ffffffH
	mov	eax, DWORD PTR [edx+eax*4]
	mov	ecx, DWORD PTR [eax+12]
	or	DWORD PTR [eax+8], 4096			; 00001000H
	mov	DWORD PTR [eax+12], ecx

; 2404 :             
; 2405 :                  tok = gettok(INTEGER_TOK);
; 2406 :               }

	jmp	$LN131@read_verti
$LN144@read_verti:

; 2387 :                     {
; 2388 :                       sprintf(errmsg,
; 2389 :                           "Bad constraint number %d for vertex %d.\n",cnum,k);

	push	esi
	push	eax
	push	OFFSET ??_C@_0CJ@CDBMMBKP@Bad?5constraint?5number?5?$CFd?5for?5ver@
	push	OFFSET _errmsg
	call	_sprintf

; 2390 :                       kb_error(1125,errmsg,DATAFILE_ERROR);

	push	6
	push	OFFSET _errmsg
	push	1125					; 00000465H
	call	_kb_error

; 2391 :                       tok = yylex();

	push	0
	call	_kb_yylex

; 2422 :                 tok = yylex();

	mov	ecx, eax
	add	esp, 32					; 00000020H
	mov	DWORD PTR _tok, ecx
	jmp	$LL63@read_verti
$LN103@read_verti:

; 2231 :     }
; 2232 :     for ( more_attr = 1 ; more_attr ; )
; 2233 :       switch ( tok )

	cmp	eax, 35084				; 0000890cH
	jg	$LN104@read_verti
	je	$LN10@read_verti
	cmp	eax, 566				; 00000236H
	je	$LN59@read_verti
	cmp	eax, 35024				; 000088d0H
	jne	$LN175@read_verti

; 2279 : 
; 2280 :            case METHOD_TOK:  /* apply method instance to edge */
; 2281 :               tok = yylex();  /* get name */

	push	0
	call	_kb_yylex
	add	esp, 4
	mov	DWORD PTR _tok, eax

; 2282 :               if ( tok != METHOD_NAME_TOK )

	cmp	eax, 414				; 0000019eH
	je	SHORT $LN49@read_verti

; 2283 :               { kb_error(1949,"Missing method instance name.\n",DATAFILE_ERROR);

	push	6
	push	OFFSET ??_C@_0BP@MGOCAHJG@Missing?5method?5instance?5name?4?6?$AA@
	push	1949					; 0000079dH
	call	_kb_error
	add	esp, 12					; 0000000cH

; 2284 :                 break;

	jmp	$LN191@read_verti
$LN49@read_verti:

; 2285 :               }
; 2286 :               // else fall through to METHOD_NAME_TOK
; 2287 : 
; 2288 :            case METHOD_NAME_TOK:
; 2289 :               qnum = yylval.i;

	mov	edi, DWORD PTR _yylval

; 2290 :               tok = yylex();           

	push	0
	call	_kb_yylex
	add	esp, 4
	mov	DWORD PTR _tok, eax

; 2291 :               if ( tok == '-' || tok == UMINUS_TOK )

	cmp	eax, 45					; 0000002dH
	je	SHORT $LN46@read_verti
	cmp	eax, 287				; 0000011fH
	je	SHORT $LN46@read_verti

; 2294 :               }
; 2295 :               else
; 2296 :                 apply_method_num(vlist[k],qnum);

	mov	edx, DWORD PTR _vlist
	mov	eax, DWORD PTR [edx+esi*4]
	push	edi
	push	eax
	call	_apply_method_num
	add	esp, 8
	jmp	$LN191@read_verti
$LN46@read_verti:

; 2292 :               { apply_method_num(inverse_id(vlist[k]),qnum);

	mov	ecx, DWORD PTR _vlist
	mov	edx, DWORD PTR [ecx+esi*4]
	xor	edx, 134217728				; 08000000H
	push	edi
	push	edx
	call	_apply_method_num

; 2293 :                 tok = yylex();

	push	0
	call	_kb_yylex

; 2422 :                 tok = yylex();

	mov	ecx, eax
	add	esp, 12					; 0000000cH
	mov	DWORD PTR _tok, ecx
	jmp	$LL63@read_verti
$LN59@read_verti:

; 2234 :         {
; 2235 :            case EXTRA_ATTRIBUTE_TOK:
; 2236 :            case ARRAY_ATTRIBUTE_TOK:
; 2237 :                 if ( yylval.etype != VERTEX )

	mov	eax, DWORD PTR _yylval+24
	test	eax, eax
	je	SHORT $LN58@read_verti

; 2238 :                 { sprintf(errmsg,"'%s' is a %s attribute, not a vertex attribute.\n",
; 2239 :                         yytext,typenames[yylval.etype]);

	mov	eax, DWORD PTR _typenames[eax*4]
	mov	ecx, DWORD PTR _yytext
	push	eax
	push	ecx
	push	OFFSET ??_C@_0DB@GPFFHCHH@?8?$CFs?8?5is?5a?5?$CFs?5attribute?0?5not?5a?5ve@
	push	OFFSET _errmsg
	call	_sprintf

; 2240 :                   kb_error(2506,errmsg,DATAFILE_ERROR);

	push	6
	push	OFFSET _errmsg
	push	2506					; 000009caH
	call	_kb_error
	add	esp, 28					; 0000001cH
$LN58@read_verti:

; 2241 :                 }
; 2242 :                 read_extra(vlist[k],yylval.qnum);

	mov	edx, DWORD PTR _yylval+4
	mov	eax, DWORD PTR _vlist
	mov	ecx, DWORD PTR [eax+esi*4]
	push	edx
	push	ecx
	call	_read_extra
	add	esp, 8

; 2243 :               break;

	jmp	$LN191@read_verti
$LN10@read_verti:

; 2407 :             /* projection later, after all vertex info read in */
; 2408 :             break;
; 2409 : 
; 2410 :             case EDGES_TOK: case FACES_TOK: case BODIES_TOK: case READ_TOK: 
; 2411 :             case LEAD_INTEGER_TOK: case LEAD_INTEGER_AT_TOK: case NO_TOKEN:
; 2412 :                 more_attr = 0 ; break;  /* error recovery */
; 2413 :             case UNPUTTED_TOK: 
; 2414 :                 kb_error(3701,
; 2415 :                    "Internal error: forgot to get lookahead token.\n",
; 2416 :                        WARNING);

	push	2
	push	OFFSET ??_C@_0DA@MGFNEFND@Internal?5error?3?5forgot?5to?5get?5lo@
	push	3701					; 00000e75H
	call	_kb_error

; 2417 :                 tok = yylex();

	push	0
	call	_kb_yylex

; 2422 :                 tok = yylex();

	mov	ecx, eax
	add	esp, 16					; 00000010H
	mov	DWORD PTR _tok, ecx
	jmp	$LL63@read_verti
$LN104@read_verti:

; 2231 :     }
; 2232 :     for ( more_attr = 1 ; more_attr ; )
; 2233 :       switch ( tok )

	cmp	eax, 35086				; 0000890eH
$LN190@read_verti:
	je	SHORT $LN176@read_verti
$LN175@read_verti:

; 2418 :                 break;
; 2419 :             default: 
; 2420 :                 sprintf(errmsg,"Unexpected token: %s\n",yytext);

	mov	edx, DWORD PTR _yytext
	push	edx
	push	OFFSET ??_C@_0BG@BKFJJJKH@Unexpected?5token?3?5?$CFs?6?$AA@
	push	OFFSET _errmsg
	call	_sprintf

; 2421 :                 kb_error(2105,errmsg,DATAFILE_ERROR);

	push	6
	push	OFFSET _errmsg
	push	2105					; 00000839H
$LN185@read_verti:
	call	_kb_error

; 2422 :                 tok = yylex();

	push	0
	call	_kb_yylex
	mov	ecx, eax
	add	esp, 28					; 0000001cH
	mov	DWORD PTR _tok, ecx
	jmp	$LL63@read_verti
$LN176@read_verti:

; 2423 :                 break; 
; 2424 : 
; 2425 :           }
; 2426 : 
; 2427 :       if ((get_vattr(vlist[k])&(BOUNDARY|CONSTRAINT)) == (BOUNDARY|CONSTRAINT))

	mov	eax, DWORD PTR _vlist
	mov	edx, DWORD PTR [eax+esi*4]
	mov	ecx, DWORD PTR _web+12
	and	edx, 134217727				; 07ffffffH
	mov	eax, DWORD PTR [ecx+edx*4]
	mov	eax, DWORD PTR [eax+8]
	and	eax, 1152				; 00000480H
	xor	edx, edx
	cmp	eax, 1152				; 00000480H
	jne	SHORT $LN8@read_verti
	test	edx, edx
	jne	SHORT $LN8@read_verti

; 2428 :           kb_error(1126,"Cannot have constraint and boundary.",DATAFILE_ERROR);

	push	6
	push	OFFSET ??_C@_0CF@NGLIKJND@Cannot?5have?5constraint?5and?5bound@
	push	1126					; 00000466H
	call	_kb_error
	mov	ecx, DWORD PTR _web+12
	add	esp, 12					; 0000000cH
$LN8@read_verti:

; 2429 : 
; 2430 :       if ( !(get_vattr(vlist[k])&BOUNDARY) && (pcount != SDIM) )

	mov	eax, DWORD PTR _vlist
	mov	edx, DWORD PTR [eax+esi*4]
	and	edx, 134217727				; 07ffffffH
	mov	eax, DWORD PTR [ecx+edx*4]
	mov	eax, DWORD PTR [eax+8]
	and	eax, 128				; 00000080H
	xor	edx, edx
	or	eax, edx
	jne	SHORT $LN166@read_verti
	mov	eax, DWORD PTR _pcount$[ebp]
	cmp	eax, DWORD PTR _web+616
	je	SHORT $LN166@read_verti

; 2431 :          { sprintf(errmsg,"Wrong number of coordinates for vertex %d.\n",k);

	push	esi
	push	OFFSET ??_C@_0CM@COILCHG@Wrong?5number?5of?5coordinates?5for?5@
	push	OFFSET _errmsg
	call	_sprintf

; 2432 :             kb_error(1127,errmsg,WARNING);

	push	2
	push	OFFSET _errmsg
	push	1127					; 00000467H
	call	_kb_error
	mov	ecx, DWORD PTR _web+12
	add	esp, 24					; 00000018H
$LN166@read_verti:

; 2433 : 
; 2434 :           }
; 2435 :       if ( get_vattr(vlist[k]) & BOUNDARY )

	mov	edx, DWORD PTR _vlist
	mov	eax, DWORD PTR [edx+esi*4]
	and	eax, 134217727				; 07ffffffH
	mov	edx, DWORD PTR [ecx+eax*4]
	mov	eax, DWORD PTR [edx+8]
	and	eax, 128				; 00000080H
	xor	edi, edi
	or	eax, edi
	je	$LN3@read_verti

; 2436 :       { REAL * x = get_coord(vlist[k]);

	mov	ebx, DWORD PTR _web+104
	mov	edi, DWORD PTR _dymem
	mov	eax, DWORD PTR [ebx+edi+64]
	add	eax, edx
	mov	DWORD PTR _x$90633[ebp], eax

; 2437 :          int n;
; 2438 :          bdry = get_boundary(vlist[k]);

	mov	eax, DWORD PTR _V_BOUNDARY_ATTR
	test	eax, eax
	je	SHORT $LN105@read_verti
	imul	eax, 240				; 000000f0H
	add	eax, ebx
	mov	eax, DWORD PTR [eax+edi+64]
	mov	edx, DWORD PTR [eax+edx]
	imul	edx, 136				; 00000088H
	add	edx, DWORD PTR _web+776
	jmp	SHORT $LN106@read_verti
$LN105@read_verti:
	xor	edx, edx
$LN106@read_verti:

; 2439 :           for ( n = 0 ; n < SDIM ; n++ )

	xor	edi, edi
	cmp	DWORD PTR _web+616, edi
	jle	SHORT $LN3@read_verti
	add	edx, 48					; 00000030H
	mov	DWORD PTR tv1962[ebp], edx
$LL184@read_verti:

; 2440 :              if ( bdry->coordf[n]->root != NULL )

	mov	edx, DWORD PTR [edx]
	cmp	DWORD PTR [edx+4], 0
	je	SHORT $LN4@read_verti

; 2441 :                  x[n] = eval(bdry->coordf[n],get_param(vlist[k]),vlist[k],NULL);

	mov	eax, DWORD PTR _vlist
	mov	eax, DWORD PTR [eax+esi*4]
	push	0
	push	eax
	and	eax, 134217727				; 07ffffffH
	mov	ecx, DWORD PTR [ecx+eax*4]
	mov	eax, DWORD PTR _dymem
	add	ecx, DWORD PTR [ebx+eax+544]
	push	ecx
	push	edx
	call	_eval
	mov	ecx, DWORD PTR _x$90633[ebp]
	fstp	QWORD PTR [ecx+edi*8]
	mov	ebx, DWORD PTR _web+104
	mov	ecx, DWORD PTR _web+12
	add	esp, 16					; 00000010H
$LN4@read_verti:

; 2439 :           for ( n = 0 ; n < SDIM ; n++ )

	mov	edx, DWORD PTR tv1962[ebp]
	inc	edi
	add	edx, 4
	mov	DWORD PTR tv1962[ebp], edx
	cmp	edi, DWORD PTR _web+616
	jl	SHORT $LL184@read_verti
$LN3@read_verti:

; 2442 :       }
; 2443 :       if ( get_vattr(vlist[k]) & CONSTRAINT )

	mov	edx, DWORD PTR _vlist
	mov	esi, DWORD PTR [edx+esi*4]
	mov	eax, esi
	and	eax, 134217727				; 07ffffffH
	mov	ecx, DWORD PTR [ecx+eax*4]
	mov	eax, DWORD PTR [ecx+8]
	and	eax, 1024				; 00000400H
	xor	ecx, ecx
	or	eax, ecx
	je	$LL167@read_verti

; 2444 :          project_v_constr(vlist[k],ACTUAL_MOVE,RESET_ONESIDEDNESS);

	push	1
	push	1
	push	esi
	call	_project_v_constr
	add	esp, 12					; 0000000cH

; 2445 :     }

	jmp	$LL167@read_verti
$LN163@read_verti:

; 2446 :   web.zoom_v = vlist[zoom_number];  /* vertex for zooming in on */

	mov	ecx, DWORD PTR _zoom_number
	mov	edx, DWORD PTR _vlist
	mov	eax, DWORD PTR [edx+ecx*4]

; 2447 : }  /* end read_vertices() */

	mov	ecx, DWORD PTR __$ArrayPad$[ebp]
	pop	edi
	pop	esi
	xor	ecx, ebp
	mov	DWORD PTR _web+976, eax
	pop	ebx
	call	@__security_check_cookie@4
	mov	esp, ebp
	pop	ebp
	ret	0
	npad	2
$LN192@read_verti:
	DD	$LN59@read_verti
	DD	$LN38@read_verti
	DD	$LN176@read_verti
	DD	$LN54@read_verti
	DD	$LN52@read_verti
	DD	$LN23@read_verti
	DD	$LN43@read_verti
	DD	$LN56@read_verti
	DD	$LN57@read_verti
	DD	$LN37@read_verti
	DD	$LN49@read_verti
	DD	$LN55@read_verti
	DD	$LN51@read_verti
	DD	$LN44@read_verti
	DD	$LN175@read_verti
$LN160@read_verti:
	DB	0
	DB	14					; 0000000eH
	DB	1
	DB	14					; 0000000eH
	DB	14					; 0000000eH
	DB	14					; 0000000eH
	DB	14					; 0000000eH
	DB	14					; 0000000eH
	DB	14					; 0000000eH
	DB	14					; 0000000eH
	DB	2
	DB	14					; 0000000eH
	DB	2
	DB	14					; 0000000eH
	DB	14					; 0000000eH
	DB	14					; 0000000eH
	DB	14					; 0000000eH
	DB	14					; 0000000eH
	DB	14					; 0000000eH
	DB	14					; 0000000eH
	DB	14					; 0000000eH
	DB	14					; 0000000eH
	DB	3
	DB	14					; 0000000eH
	DB	14					; 0000000eH
	DB	14					; 0000000eH
	DB	14					; 0000000eH
	DB	14					; 0000000eH
	DB	14					; 0000000eH
	DB	14					; 0000000eH
	DB	14					; 0000000eH
	DB	14					; 0000000eH
	DB	14					; 0000000eH
	DB	4
	DB	14					; 0000000eH
	DB	14					; 0000000eH
	DB	5
	DB	14					; 0000000eH
	DB	14					; 0000000eH
	DB	14					; 0000000eH
	DB	14					; 0000000eH
	DB	14					; 0000000eH
	DB	14					; 0000000eH
	DB	14					; 0000000eH
	DB	14					; 0000000eH
	DB	14					; 0000000eH
	DB	14					; 0000000eH
	DB	14					; 0000000eH
	DB	14					; 0000000eH
	DB	14					; 0000000eH
	DB	14					; 0000000eH
	DB	14					; 0000000eH
	DB	6
	DB	14					; 0000000eH
	DB	14					; 0000000eH
	DB	14					; 0000000eH
	DB	14					; 0000000eH
	DB	14					; 0000000eH
	DB	2
	DB	14					; 0000000eH
	DB	14					; 0000000eH
	DB	14					; 0000000eH
	DB	14					; 0000000eH
	DB	14					; 0000000eH
	DB	14					; 0000000eH
	DB	14					; 0000000eH
	DB	14					; 0000000eH
	DB	14					; 0000000eH
	DB	14					; 0000000eH
	DB	14					; 0000000eH
	DB	14					; 0000000eH
	DB	14					; 0000000eH
	DB	14					; 0000000eH
	DB	14					; 0000000eH
	DB	14					; 0000000eH
	DB	14					; 0000000eH
	DB	14					; 0000000eH
	DB	14					; 0000000eH
	DB	14					; 0000000eH
	DB	14					; 0000000eH
	DB	14					; 0000000eH
	DB	14					; 0000000eH
	DB	14					; 0000000eH
	DB	14					; 0000000eH
	DB	14					; 0000000eH
	DB	14					; 0000000eH
	DB	14					; 0000000eH
	DB	14					; 0000000eH
	DB	14					; 0000000eH
	DB	14					; 0000000eH
	DB	7
	DB	14					; 0000000eH
	DB	14					; 0000000eH
	DB	14					; 0000000eH
	DB	14					; 0000000eH
	DB	14					; 0000000eH
	DB	14					; 0000000eH
	DB	14					; 0000000eH
	DB	14					; 0000000eH
	DB	14					; 0000000eH
	DB	14					; 0000000eH
	DB	14					; 0000000eH
	DB	14					; 0000000eH
	DB	14					; 0000000eH
	DB	14					; 0000000eH
	DB	14					; 0000000eH
	DB	14					; 0000000eH
	DB	14					; 0000000eH
	DB	14					; 0000000eH
	DB	14					; 0000000eH
	DB	14					; 0000000eH
	DB	14					; 0000000eH
	DB	14					; 0000000eH
	DB	14					; 0000000eH
	DB	14					; 0000000eH
	DB	8
	DB	14					; 0000000eH
	DB	14					; 0000000eH
	DB	14					; 0000000eH
	DB	14					; 0000000eH
	DB	14					; 0000000eH
	DB	14					; 0000000eH
	DB	14					; 0000000eH
	DB	14					; 0000000eH
	DB	9
	DB	14					; 0000000eH
	DB	14					; 0000000eH
	DB	14					; 0000000eH
	DB	14					; 0000000eH
	DB	14					; 0000000eH
	DB	10					; 0000000aH
	DB	14					; 0000000eH
	DB	14					; 0000000eH
	DB	14					; 0000000eH
	DB	14					; 0000000eH
	DB	14					; 0000000eH
	DB	14					; 0000000eH
	DB	14					; 0000000eH
	DB	14					; 0000000eH
	DB	14					; 0000000eH
	DB	14					; 0000000eH
	DB	14					; 0000000eH
	DB	14					; 0000000eH
	DB	14					; 0000000eH
	DB	14					; 0000000eH
	DB	14					; 0000000eH
	DB	14					; 0000000eH
	DB	14					; 0000000eH
	DB	14					; 0000000eH
	DB	14					; 0000000eH
	DB	14					; 0000000eH
	DB	14					; 0000000eH
	DB	14					; 0000000eH
	DB	11					; 0000000bH
	DB	14					; 0000000eH
	DB	14					; 0000000eH
	DB	14					; 0000000eH
	DB	14					; 0000000eH
	DB	14					; 0000000eH
	DB	14					; 0000000eH
	DB	14					; 0000000eH
	DB	14					; 0000000eH
	DB	14					; 0000000eH
	DB	14					; 0000000eH
	DB	14					; 0000000eH
	DB	14					; 0000000eH
	DB	14					; 0000000eH
	DB	14					; 0000000eH
	DB	14					; 0000000eH
	DB	14					; 0000000eH
	DB	14					; 0000000eH
	DB	14					; 0000000eH
	DB	14					; 0000000eH
	DB	14					; 0000000eH
	DB	14					; 0000000eH
	DB	14					; 0000000eH
	DB	12					; 0000000cH
	DB	14					; 0000000eH
	DB	14					; 0000000eH
	DB	14					; 0000000eH
	DB	14					; 0000000eH
	DB	14					; 0000000eH
	DB	14					; 0000000eH
	DB	14					; 0000000eH
	DB	14					; 0000000eH
	DB	14					; 0000000eH
	DB	14					; 0000000eH
	DB	14					; 0000000eH
	DB	14					; 0000000eH
	DB	14					; 0000000eH
	DB	14					; 0000000eH
	DB	14					; 0000000eH
	DB	14					; 0000000eH
	DB	14					; 0000000eH
	DB	14					; 0000000eH
	DB	14					; 0000000eH
	DB	14					; 0000000eH
	DB	14					; 0000000eH
	DB	13					; 0000000dH
	DB	14					; 0000000eH
	DB	14					; 0000000eH
	DB	14					; 0000000eH
	DB	14					; 0000000eH
	DB	14					; 0000000eH
	DB	14					; 0000000eH
	DB	14					; 0000000eH
	DB	14					; 0000000eH
	DB	14					; 0000000eH
	DB	14					; 0000000eH
	DB	14					; 0000000eH
	DB	14					; 0000000eH
	DB	14					; 0000000eH
	DB	14					; 0000000eH
	DB	14					; 0000000eH
	DB	14					; 0000000eH
	DB	14					; 0000000eH
	DB	14					; 0000000eH
	DB	14					; 0000000eH
	DB	14					; 0000000eH
	DB	14					; 0000000eH
	DB	14					; 0000000eH
	DB	14					; 0000000eH
	DB	14					; 0000000eH
	DB	14					; 0000000eH
	DB	14					; 0000000eH
	DB	14					; 0000000eH
	DB	14					; 0000000eH
	DB	14					; 0000000eH
	DB	14					; 0000000eH
	DB	14					; 0000000eH
	DB	14					; 0000000eH
	DB	14					; 0000000eH
	DB	14					; 0000000eH
	DB	14					; 0000000eH
	DB	14					; 0000000eH
	DB	5
	DB	9
_read_vertices ENDP
_TEXT	ENDS
PUBLIC	??_C@_0CE@DKGMBMOB@Edge?5?$CFd?3?5vertex?5?$CFd?5is?5not?5define@ ; `string'
PUBLIC	??_C@_0BM@OFNCGKJA@Too?5few?5vertices?5for?5edge?4?6?$AA@ ; `string'
PUBLIC	??_C@_0EC@PDLLHJBK@addload?5datafile?5is?5linear?5model@ ; `string'
PUBLIC	??_C@_0ED@FDOHNEFP@addload?5datafile?5is?5linear?5model@ ; `string'
PUBLIC	??_C@_0DA@JHENGICO@?8?$CFs?8?5is?5a?5?$CFs?5attribute?0?5not?5an?5e@ ; `string'
PUBLIC	??_C@_0EI@HNEECJIN@?8Energy?8?5obsolete?4?5Implement?5edg@ ; `string'
PUBLIC	??_C@_0BI@JFIOCEAN@Undefined?5quantity?3?5?$CFs?6?$AA@ ; `string'
PUBLIC	??_C@_0BI@PJJAKHC@Missing?5DENSITY?5value?4?6?$AA@ ; `string'
PUBLIC	??_C@_0CH@JCKGDEOH@Bad?5constraint?5number?5?$CFd?5for?5edg@ ; `string'
PUBLIC	??_C@_0FK@MDDCAAB@Inconsistent?5number?5of?5component@ ; `string'
PUBLIC	??_C@_0GG@EEBCIKGE@Edge?5?$CFs?5is?5on?5constraint?5?$CFs?0?5whi@ ; `string'
PUBLIC	??_C@_00CNPNBAHC@?$AA@				; `string'
PUBLIC	??_C@_02DPKJAMEF@?$CFd?$AA@			; `string'
PUBLIC	??_C@_0CF@HDBOPHDM@Bad?5boundary?5number?5?$CFd?5for?5edge?5@ ; `string'
PUBLIC	??_C@_0BA@IPLAMOJB@Color?5missing?4?6?$AA@	; `string'
PUBLIC	??_C@_0DC@JNMGKLBI@Cannot?5do?5wraps?5without?5torus?5or@ ; `string'
PUBLIC	??_C@_0BM@NLDAKABN@ORIENTATION?5value?5missing?4?6?$AA@ ; `string'
PUBLIC	??_C@_0BF@PFOEMAKJ@Missing?5wrap?5value?4?6?$AA@ ; `string'
PUBLIC	??_C@_0CP@DGBDNCJM@Edge?5wraps?5must?5immediately?5foll@ ; `string'
PUBLIC	??_C@_0BK@CJPBBAMB@Duplicate?5edge?5number?5?$CFd?6?$AA@ ; `string'
PUBLIC	??_C@_0BP@BDIDPFBJ@Edge?5number?5must?5be?5positive?4?6?$AA@ ; `string'
PUBLIC	__$ArrayPad$
PUBLIC	_read_edges
EXTRN	_valid_element:PROC
EXTRN	_free_element:PROC
EXTRN	_strncpy:PROC
EXTRN	_apply_method:PROC
EXTRN	_set_e_constraint_map:PROC
EXTRN	_elnames:BYTE
EXTRN	_E_BOUNDARY_ATTR:DWORD
EXTRN	_read_wrap_flag:DWORD
EXTRN	_new_edge:PROC
EXTRN	_binom_coeff:PROC
;	COMDAT ??_C@_0CE@DKGMBMOB@Edge?5?$CFd?3?5vertex?5?$CFd?5is?5not?5define@
; File c:\levolver\yonkang-sefit\levolver\ev_ogl\inline.h
CONST	SEGMENT
??_C@_0CE@DKGMBMOB@Edge?5?$CFd?3?5vertex?5?$CFd?5is?5not?5define@ DB 'Edg'
	DB	'e %d: vertex %d is not defined.', 0aH, 00H	; `string'
CONST	ENDS
;	COMDAT ??_C@_0BM@OFNCGKJA@Too?5few?5vertices?5for?5edge?4?6?$AA@
CONST	SEGMENT
??_C@_0BM@OFNCGKJA@Too?5few?5vertices?5for?5edge?4?6?$AA@ DB 'Too few ver'
	DB	'tices for edge.', 0aH, 00H			; `string'
CONST	ENDS
;	COMDAT ??_C@_0EC@PDLLHJBK@addload?5datafile?5is?5linear?5model@
CONST	SEGMENT
??_C@_0EC@PDLLHJBK@addload?5datafile?5is?5linear?5model@ DB 'addload data'
	DB	'file is linear model, but current model is Lagrange.', 0aH, 00H ; `string'
CONST	ENDS
;	COMDAT ??_C@_0ED@FDOHNEFP@addload?5datafile?5is?5linear?5model@
CONST	SEGMENT
??_C@_0ED@FDOHNEFP@addload?5datafile?5is?5linear?5model@ DB 'addload data'
	DB	'file is linear model, but current model is quadratic.', 0aH, 00H ; `string'
CONST	ENDS
;	COMDAT ??_C@_0DA@JHENGICO@?8?$CFs?8?5is?5a?5?$CFs?5attribute?0?5not?5an?5e@
CONST	SEGMENT
??_C@_0DA@JHENGICO@?8?$CFs?8?5is?5a?5?$CFs?5attribute?0?5not?5an?5e@ DB ''''
	DB	'%s'' is a %s attribute, not an edge attribute.', 0aH, 00H ; `string'
CONST	ENDS
;	COMDAT ??_C@_0EI@HNEECJIN@?8Energy?8?5obsolete?4?5Implement?5edg@
CONST	SEGMENT
??_C@_0EI@HNEECJIN@?8Energy?8?5obsolete?4?5Implement?5edg@ DB '''Energy'''
	DB	' obsolete. Implement edge integral energy with named quantity'
	DB	'.', 0aH, 00H				; `string'
CONST	ENDS
;	COMDAT ??_C@_0BI@JFIOCEAN@Undefined?5quantity?3?5?$CFs?6?$AA@
CONST	SEGMENT
??_C@_0BI@JFIOCEAN@Undefined?5quantity?3?5?$CFs?6?$AA@ DB 'Undefined quan'
	DB	'tity: %s', 0aH, 00H				; `string'
CONST	ENDS
;	COMDAT ??_C@_0BI@PJJAKHC@Missing?5DENSITY?5value?4?6?$AA@
CONST	SEGMENT
??_C@_0BI@PJJAKHC@Missing?5DENSITY?5value?4?6?$AA@ DB 'Missing DENSITY va'
	DB	'lue.', 0aH, 00H				; `string'
CONST	ENDS
;	COMDAT ??_C@_0CH@JCKGDEOH@Bad?5constraint?5number?5?$CFd?5for?5edg@
CONST	SEGMENT
??_C@_0CH@JCKGDEOH@Bad?5constraint?5number?5?$CFd?5for?5edg@ DB 'Bad cons'
	DB	'traint number %d for edge %d.', 0aH, 00H	; `string'
CONST	ENDS
;	COMDAT ??_C@_0FK@MDDCAAB@Inconsistent?5number?5of?5component@
CONST	SEGMENT
??_C@_0FK@MDDCAAB@Inconsistent?5number?5of?5component@ DB 'Inconsistent n'
	DB	'umber of components in edge %s constraint %s content or energ'
	DB	'y integrands.', 0aH, 00H			; `string'
CONST	ENDS
;	COMDAT ??_C@_0GG@EEBCIKGE@Edge?5?$CFs?5is?5on?5constraint?5?$CFs?0?5whi@
CONST	SEGMENT
??_C@_0GG@EEBCIKGE@Edge?5?$CFs?5is?5on?5constraint?5?$CFs?0?5whi@ DB 'Edg'
	DB	'e %s is on constraint %s, which has an energy integral.  Prob'
	DB	'ably a bad idea in the string model.', 0aH, 00H ; `string'
CONST	ENDS
;	COMDAT ??_C@_00CNPNBAHC@?$AA@
CONST	SEGMENT
??_C@_00CNPNBAHC@?$AA@ DB 00H				; `string'
CONST	ENDS
;	COMDAT ??_C@_02DPKJAMEF@?$CFd?$AA@
CONST	SEGMENT
??_C@_02DPKJAMEF@?$CFd?$AA@ DB '%d', 00H		; `string'
CONST	ENDS
;	COMDAT ??_C@_0CF@HDBOPHDM@Bad?5boundary?5number?5?$CFd?5for?5edge?5@
CONST	SEGMENT
??_C@_0CF@HDBOPHDM@Bad?5boundary?5number?5?$CFd?5for?5edge?5@ DB 'Bad bou'
	DB	'ndary number %d for edge %d.', 0aH, 00H	; `string'
CONST	ENDS
;	COMDAT ??_C@_0BA@IPLAMOJB@Color?5missing?4?6?$AA@
CONST	SEGMENT
??_C@_0BA@IPLAMOJB@Color?5missing?4?6?$AA@ DB 'Color missing.', 0aH, 00H ; `string'
CONST	ENDS
;	COMDAT ??_C@_0DC@JNMGKLBI@Cannot?5do?5wraps?5without?5torus?5or@
CONST	SEGMENT
??_C@_0DC@JNMGKLBI@Cannot?5do?5wraps?5without?5torus?5or@ DB 'Cannot do w'
	DB	'raps without torus or symmetry group.', 0aH, 00H ; `string'
CONST	ENDS
;	COMDAT ??_C@_0BM@NLDAKABN@ORIENTATION?5value?5missing?4?6?$AA@
CONST	SEGMENT
??_C@_0BM@NLDAKABN@ORIENTATION?5value?5missing?4?6?$AA@ DB 'ORIENTATION v'
	DB	'alue missing.', 0aH, 00H			; `string'
CONST	ENDS
;	COMDAT ??_C@_0BF@PFOEMAKJ@Missing?5wrap?5value?4?6?$AA@
CONST	SEGMENT
??_C@_0BF@PFOEMAKJ@Missing?5wrap?5value?4?6?$AA@ DB 'Missing wrap value.', 0aH
	DB	00H						; `string'
CONST	ENDS
;	COMDAT ??_C@_0CP@DGBDNCJM@Edge?5wraps?5must?5immediately?5foll@
CONST	SEGMENT
??_C@_0CP@DGBDNCJM@Edge?5wraps?5must?5immediately?5foll@ DB 'Edge wraps m'
	DB	'ust immediately follow endpoints.', 0aH, 00H ; `string'
CONST	ENDS
;	COMDAT ??_C@_0BK@CJPBBAMB@Duplicate?5edge?5number?5?$CFd?6?$AA@
CONST	SEGMENT
??_C@_0BK@CJPBBAMB@Duplicate?5edge?5number?5?$CFd?6?$AA@ DB 'Duplicate ed'
	DB	'ge number %d', 0aH, 00H			; `string'
CONST	ENDS
;	COMDAT ??_C@_0BP@BDIDPFBJ@Edge?5number?5must?5be?5positive?4?6?$AA@
CONST	SEGMENT
??_C@_0BP@BDIDPFBJ@Edge?5number?5must?5be?5positive?4?6?$AA@ DB 'Edge num'
	DB	'ber must be positive.', 0aH, 00H		; `string'
; Function compile flags: /Ogtp
; File c:\levolver\yonkang-sefit\levolver\ev_ogl\lexinit.c
CONST	ENDS
;	COMDAT _read_edges
_TEXT	SEGMENT
tv2456 = -96						; size = 8
_k$ = -92						; size = 4
_one$ = -88						; size = 4
_head$ = -84						; size = 4
_compcount$ = -80					; size = 4
_have_mid$90696 = -76					; size = 4
_value$ = -72						; size = 8
_numv$ = -64						; size = 4
_wrap$90697 = -60					; size = 4
tv2623 = -56						; size = 4
_cnum$ = -56						; size = 4
_tail$ = -56						; size = 4
_vercount$90714 = -56					; size = 4
_h$90974 = -52						; size = 48
_qname$90942 = -36					; size = 32
__$ArrayPad$ = -4					; size = 4
_read_edges PROC					; COMDAT

; 2458 : {

	push	ebp
	mov	ebp, esp
	sub	esp, 96					; 00000060H
	mov	eax, DWORD PTR ___security_cookie
	xor	eax, ebp
	mov	DWORD PTR __$ArrayPad$[ebp], eax

; 2459 :   int i,k;
; 2460 :   element_id head,tail;
; 2461 :   int cnum,bnum;
; 2462 :   struct boundary *bdry;
; 2463 :   struct constraint *constr;
; 2464 :   int more_attr;
; 2465 :   REAL value;  /* for constant expression values */
; 2466 :   int compcount;  /* proper number of components for integrands */
; 2467 :   int numv; /* vertices to read in association with a facet */
; 2468 :   int edim = (web.representation==STRING) ? 1 : web.dimension - 1;

	mov	eax, DWORD PTR _web+624
	push	esi
	push	edi
	cmp	eax, 1
	jne	SHORT $LN152@read_edges
	mov	esi, eax
	jmp	SHORT $LN153@read_edges
$LN152@read_edges:
	mov	esi, DWORD PTR _web+620
	dec	esi
$LN153@read_edges:

; 2469 :   int one = 1;
; 2470 : #ifdef MPI_EVOLVER
; 2471 :   struct element *vdummy = (struct element *)mycalloc(web.sizes[VERTEX],1);
; 2472 : #endif
; 2473 : 
; 2474 :   if ( web.representation == SIMPLEX ) 

	mov	edi, 3
	mov	DWORD PTR _one$[ebp], 1
	cmp	eax, edi
	jne	SHORT $LN149@read_edges

; 2475 :      compcount = binom_coeff(SDIM,edim);

	mov	eax, DWORD PTR _web+616
	push	esi
	push	eax
	call	_binom_coeff
	add	esp, 8
	mov	DWORD PTR _compcount$[ebp], eax
	jmp	SHORT $LN148@read_edges
$LN149@read_edges:

; 2476 :   else compcount = SDIM; 

	mov	ecx, DWORD PTR _web+616
	mov	DWORD PTR _compcount$[ebp], ecx
$LN148@read_edges:

; 2477 : 
; 2478 :   /* adjust attributes for space dimension*/
; 2479 :   EXTRAS(EDGE)[E_VECTOR_ATTR].array_spec.sizes[0] = SDIM;

	mov	edx, DWORD PTR _web+216
	mov	eax, DWORD PTR _dymem
	mov	ecx, DWORD PTR _web+616

; 2480 :   expand_attribute(EDGE,E_VERTICES_ATTR,&web.skel[EDGE].ctrlpts);

	push	OFFSET _web+120
	push	1
	push	1
	mov	DWORD PTR [edx+eax+576], ecx
	call	_expand_attribute
	add	esp, 12					; 0000000cH

; 2481 :   if ( web.symmetry_flag )

	cmp	DWORD PTR _web+856, 0
	je	SHORT $LN147@read_edges

; 2482 :      expand_attribute(EDGE,E_WRAP_ATTR,&one);

	lea	edx, DWORD PTR _one$[ebp]
	push	edx
	push	edi
	push	1
	call	_expand_attribute
	add	esp, 12					; 0000000cH
$LN147@read_edges:

; 2483 : 
; 2484 :   if ( web.representation == SIMPLEX )

	cmp	DWORD PTR _web+624, edi
	jne	SHORT $LN146@read_edges

; 2485 :   { if ( web.modeltype == LAGRANGE )

	cmp	DWORD PTR _web+628, edi
	jne	SHORT $LN145@read_edges

; 2486 :         numv = binom_coeff(web.lagrange_order+edim,edim); 

	mov	eax, DWORD PTR _web+632
	add	eax, esi
	push	esi
	push	eax
	call	_binom_coeff
	add	esp, 8
	mov	DWORD PTR _numv$[ebp], eax
	jmp	SHORT $LN140@read_edges
$LN145@read_edges:

; 2487 :      else numv = web.dimension;

	mov	ecx, DWORD PTR _web+620

; 2488 :   }
; 2489 :   else if ( web.modeltype == LAGRANGE )

	jmp	SHORT $LN310@read_edges
$LN146@read_edges:
	mov	eax, DWORD PTR _web+628
	cmp	eax, edi
	jne	SHORT $LN142@read_edges

; 2490 :   { numv = binom_coeff(web.lagrange_order+edim,edim);

	mov	edx, DWORD PTR _web+632
	add	edx, esi
	push	esi
	push	edx
	call	_binom_coeff
	add	esp, 8
	mov	DWORD PTR _numv$[ebp], eax
	jmp	SHORT $LN140@read_edges
$LN142@read_edges:

; 2491 :   }
; 2492 :   else if ( web.modeltype == QUADRATIC ) numv = 3;

	xor	ecx, ecx
	cmp	eax, 2
	sete	cl
	add	ecx, 2
$LN310@read_edges:
	mov	DWORD PTR _numv$[ebp], ecx
$LN140@read_edges:

; 2493 :   else numv = 2;
; 2494 : 
; 2495 :   /* read in edges */
; 2496 :   emaxlist = MAXLIST;
; 2497 :   elist = (edge_id *)mycalloc(sizeof(edge_id),emaxlist);

	push	2497					; 000009c1H
	push	OFFSET ??_C@_09JGPPFAML@LEXINIT?4C?$AA@
	push	100					; 00000064H
	push	4
	mov	DWORD PTR _emaxlist, 100		; 00000064H
	call	_kb_calloc
	mov	DWORD PTR _elist, eax

; 2498 :   while ( (tok != EDGES_TOK) && (tok != 0 ) ) 

	mov	eax, DWORD PTR _tok
	add	esp, 16					; 00000010H
	cmp	eax, 294				; 00000126H
	je	SHORT $LN272@read_edges
$LL138@read_edges:
	test	eax, eax
	je	$LN134@read_edges

; 2499 :      tok = yylex();

	push	0
	call	_kb_yylex
	add	esp, 4
	mov	DWORD PTR _tok, eax
	cmp	eax, 294				; 00000126H
	jne	SHORT $LL138@read_edges
$LN272@read_edges:

; 2500 :   if ( tok != EDGES_TOK) return;
; 2501 :   tok = yylex();

	push	0
	call	_kb_yylex
	add	esp, 4
	mov	DWORD PTR _tok, eax
	push	ebx
$LL135@read_edges:

; 2502 :   while ( (tok == LEAD_INTEGER_TOK) || (tok == LEAD_INTEGER_AT_TOK) )

	mov	eax, DWORD PTR _tok
	cmp	eax, 264				; 00000108H
	je	SHORT $LN133@read_edges
	cmp	eax, 549				; 00000225H
	jne	$LN307@read_edges
$LN133@read_edges:

; 2503 :   { int have_mid = 0;
; 2504 :     WRAPTYPE wrap = 0;
; 2505 : 
; 2506 :     #ifdef MPI_EVOLVER
; 2507 :     /* test task number, for MPI */
; 2508 :     int task;
; 2509 :     if ( tok == LEAD_INTEGER_TOK )
; 2510 :        task = 1;  /* default to task 1 */
; 2511 :     else task = yylval.qnum;
; 2512 :     if ( task >= mpi_nprocs || task < 1 )
; 2513 :     { sprintf(errmsg,"Task number %d must be between 1 and %d\n",
; 2514 :          task,mpi_nprocs-1);
; 2515 :       kb_error(5007,errmsg,RECOVERABLE);
; 2516 :     }
; 2517 :     if ( task != this_task )
; 2518 :     { /* skip this edge */
; 2519 :       int flag = 0;
; 2520 :       while ( !flag ) 
; 2521 :       { tok = yylex();
; 2522 :         switch (tok)
; 2523 :         { case LEAD_INTEGER_TOK: 
; 2524 :           case LEAD_INTEGER_AT_TOK:
; 2525 :           case FACES_TOK:
; 2526 :           case BODIES_TOK:
; 2527 :           case READ_TOK:
; 2528 :           case 0:
; 2529 :             flag = 1;
; 2530 :             break;
; 2531 :         }
; 2532 :       }
; 2533 :       continue;  /* next edge */
; 2534 :     }
; 2535 :     #endif
; 2536 :     
; 2537 :     /* check edge number */
; 2538 :     k = yylval.i;

	mov	ebx, DWORD PTR _yylval
	xor	eax, eax
	mov	DWORD PTR _have_mid$90696[ebp], eax
	mov	DWORD PTR _wrap$90697[ebp], eax
	mov	DWORD PTR _k$[ebp], ebx

; 2539 :     if ( k < 1 ) 

	cmp	ebx, 1
	jge	SHORT $LN132@read_edges

; 2540 :         kb_error(2106,"Edge number must be positive.\n",DATAFILE_ERROR);

	push	6
	push	OFFSET ??_C@_0BP@BDIDPFBJ@Edge?5number?5must?5be?5positive?4?6?$AA@
	push	2106					; 0000083aH
	call	_kb_error
	add	esp, 12					; 0000000cH
$LN132@read_edges:

; 2541 :     if ( k >= emaxlist )

	mov	eax, DWORD PTR _emaxlist
	cmp	ebx, eax
	jl	SHORT $LN126@read_edges

; 2542 :     { int spot = emaxlist; 

	mov	esi, eax
	npad	4
$LL130@read_edges:

; 2543 :       while ( k >= emaxlist )
; 2544 :         emaxlist *= 2;

	add	eax, eax
	cmp	ebx, eax
	jge	SHORT $LL130@read_edges

; 2545 :       elist = (edge_id *)kb_realloc((char *)elist,emaxlist*sizeof(edge_id));

	push	2545					; 000009f1H
	lea	edx, DWORD PTR [eax*4]
	push	OFFSET ??_C@_09JGPPFAML@LEXINIT?4C?$AA@
	mov	DWORD PTR _emaxlist, eax
	mov	eax, DWORD PTR _elist
	push	edx
	push	eax
	call	_KB_realloc
	add	esp, 16					; 00000010H
	mov	DWORD PTR _elist, eax

; 2546 :       for ( ; spot < emaxlist ; spot ++ ) elist[spot] = NULLID;

	cmp	esi, DWORD PTR _emaxlist
	jge	SHORT $LN126@read_edges
	npad	8
$LL293@read_edges:
	mov	ecx, DWORD PTR _elist
	mov	DWORD PTR [ecx+esi*4], 0
	inc	esi
	cmp	esi, DWORD PTR _emaxlist
	jl	SHORT $LL293@read_edges
$LN126@read_edges:

; 2547 :     }
; 2548 :     if ( valid_id(elist[k]) )

	mov	edx, DWORD PTR _elist
	test	DWORD PTR [edx+ebx*4], 268435456	; 10000000H
	je	SHORT $LN125@read_edges

; 2549 :     { sprintf(errmsg,"Duplicate edge number %d\n",k);

	push	ebx
	push	OFFSET ??_C@_0BK@CJPBBAMB@Duplicate?5edge?5number?5?$CFd?6?$AA@
	push	OFFSET _errmsg
	call	_sprintf

; 2550 :       kb_error(1130,errmsg,DATAFILE_ERROR);

	push	6
	push	OFFSET _errmsg
	push	1130					; 0000046aH
	call	_kb_error
	add	esp, 24					; 00000018H
$LN125@read_edges:

; 2551 :     }
; 2552 : 
; 2553 :     { /* read vertex list */
; 2554 :           int vercount;
; 2555 :        vertex_id *v,*vv;
; 2556 : 
; 2557 :        move_to_free_front(EDGE,k); /* so id will be k */

	push	ebx
	push	1
	call	_move_to_free_front

; 2558 :        elist[k] = new_edge(NULLID,NULLID,NULLID);

	push	0
	push	0
	push	0
	call	_new_edge
	mov	ecx, DWORD PTR _elist
	mov	DWORD PTR [ecx+ebx*4], eax

; 2559 :        vv = v = get_edge_vertices(elist[k]);

	mov	edx, DWORD PTR _elist
	mov	eax, DWORD PTR [edx+ebx*4]
	mov	ecx, DWORD PTR _web+124
	mov	edx, DWORD PTR _dymem
	and	eax, 134217727				; 07ffffffH
	mov	edi, DWORD PTR [ecx+eax*4]
	mov	eax, DWORD PTR _web+216
	add	edi, DWORD PTR [eax+edx+304]
	add	esp, 20					; 00000014H

; 2560 :        for ( vercount = 0 ; vercount < numv ; vercount++ )

	cmp	DWORD PTR _numv$[ebp], 0
	mov	esi, edi
	mov	DWORD PTR _vercount$90714[ebp], 0
	jle	SHORT $LN295@read_edges
$LL124@read_edges:

; 2561 :        { tok = gettok(INTEGER_TOK);

	push	265					; 00000109H
	call	_gettok
	add	esp, 4
	mov	DWORD PTR _tok, eax

; 2562 :          if ( tok != INTEGER_TOK )

	cmp	eax, 265				; 00000109H
	jne	$LN256@read_edges

; 2578 :             return; 
; 2579 :           }
; 2580 : #ifdef MPI_EVOLVER
; 2581 :           if ( yylval.qnum == 0 )
; 2582 :              yylval.qnum = 1;
; 2583 :           if ( yylval.qnum >= mpi_nprocs )
; 2584 :           { sprintf(errmsg,"Task number %d exceeds number of tasks running, %d\n",
; 2585 :                yylval.qnum,mpi_nprocs-1);
; 2586 :             kb_error(5008,errmsg,RECOVERABLE);
; 2587 :           }
; 2588 :           if ( yylval.qnum != this_task )
; 2589 :           { 
; 2590 :             *v = ((element_id)VERTEX << TYPESHIFT) | VALIDMASK | 
; 2591 :                 (yylval.i-1) | ((element_id)yylval.qnum << TASK_ID_SHIFT);  
; 2592 :             /* add spaceholder to remote element list */
; 2593 :             memset(vdummy,0,web.sizes[VERTEX]);
; 2594 :             vdummy->self_id = *v;
; 2595 :             vdummy->attr = ALLOCATED|NEWELEMENT;
; 2596 :             mpi_add_remote_element(vdummy);
; 2597 :             v++;
; 2598 :           }
; 2599 :           else
; 2600 : #endif
; 2601 :           if ( (yylval.i >= vmaxlist) || !valid_id(vlist[yylval.i]) )

	mov	ecx, DWORD PTR _yylval
	cmp	ecx, DWORD PTR _vmaxlist
	jge	$LN257@read_edges
	mov	edx, DWORD PTR _vlist
	mov	eax, DWORD PTR [edx+ecx*4]
	test	eax, 268435456				; 10000000H
	je	$LN257@read_edges

; 2604 :             return;
; 2605 :           }
; 2606 :           else *(v++) = vlist[yylval.i];

	mov	DWORD PTR [edi], eax
	mov	eax, DWORD PTR _vercount$90714[ebp]
	inc	eax
	add	edi, 4
	mov	DWORD PTR _vercount$90714[ebp], eax
	cmp	eax, DWORD PTR _numv$[ebp]
	jl	SHORT $LL124@read_edges
$LN295@read_edges:

; 2607 :         }
; 2608 :        if ( web.modeltype == QUADRATIC )

	cmp	DWORD PTR _web+628, 2
	jne	$LN109@read_edges

; 2609 :        { head = vv[1]; tail = vv[0]; set_edge_midv(elist[k],vv[2]); }

	mov	ecx, DWORD PTR [esi]
	mov	edx, DWORD PTR _elist
	mov	edx, DWORD PTR [edx+ebx*4]
	mov	eax, DWORD PTR [esi+4]
	mov	edi, DWORD PTR _web+124
	mov	ebx, DWORD PTR _dymem
	mov	DWORD PTR _tail$[ebp], ecx
	mov	ecx, edx
	and	ecx, 134217727				; 07ffffffH
	mov	ecx, DWORD PTR [edi+ecx*4]
	mov	edi, DWORD PTR _web+216
	mov	edi, DWORD PTR [edi+ebx+304]
	mov	DWORD PTR _head$[ebp], eax
	mov	eax, DWORD PTR [esi+8]
	mov	DWORD PTR [ecx+edi+8], eax
	mov	edi, DWORD PTR _web+12
	mov	ecx, eax
	mov	ebx, DWORD PTR _k$[ebp]
	shr	eax, 29					; 0000001dH
	imul	eax, 112				; 00000070H
	and	ecx, 134217727				; 07ffffffH
	add	ecx, ecx
	add	ecx, ecx
	mov	edi, DWORD PTR [edi+ecx]
	mov	DWORD PTR [edi+28], edx
	mov	edx, DWORD PTR _web[eax+12]
	mov	ecx, DWORD PTR [edx+ecx]
	mov	eax, DWORD PTR [ecx+12]
	or	DWORD PTR [ecx+8], 131072		; 00020000H
	mov	edi, DWORD PTR _tail$[ebp]
	mov	DWORD PTR [ecx+12], eax
	mov	eax, DWORD PTR _global_timestamp
	inc	eax
	mov	DWORD PTR _global_timestamp, eax
	mov	DWORD PTR _top_timestamp, eax
	mov	eax, DWORD PTR _head$[ebp]
	jmp	SHORT $LN108@read_edges
$LN109@read_edges:

; 2610 :        else { head = vv[numv-1]; tail = vv[0]; }

	mov	ecx, DWORD PTR _numv$[ebp]
	mov	eax, DWORD PTR [esi+ecx*4-4]
	mov	edi, DWORD PTR [esi]
$LN108@read_edges:

; 2611 :        set_edge_headv(elist[k],head);

	mov	edx, DWORD PTR _elist
	push	eax
	mov	eax, DWORD PTR [edx+ebx*4]
	push	eax
	call	_set_edge_headv

; 2612 :        set_edge_tailv(elist[k],tail);

	mov	ecx, DWORD PTR _elist
	mov	edx, DWORD PTR [ecx+ebx*4]
	push	edi
	push	edx
	call	_set_edge_tailv

; 2613 :        if ( web.modeltype == QUADRATIC )

	mov	eax, DWORD PTR _web+628
	add	esp, 16					; 00000010H
	cmp	eax, 2
	jne	SHORT $LN107@read_edges

; 2614 :        { have_mid =1; /* for later */

	mov	DWORD PTR _have_mid$90696[ebp], 1
	jmp	SHORT $LN102@read_edges
$LN107@read_edges:

; 2615 :        }
; 2616 :        else if ( web.modeltype == LAGRANGE )

	cmp	eax, 3
	jne	SHORT $LN102@read_edges

; 2617 :        { for ( i = 1 ; i < numv-1 ; i++ )

	mov	edx, DWORD PTR _numv$[ebp]
	lea	ecx, DWORD PTR [eax-2]
	dec	edx
	cmp	edx, ecx
	jle	SHORT $LN102@read_edges
	npad	2
$LL104@read_edges:

; 2618 :           { set_attr(vv[i],Q_MIDEDGE); 

	mov	eax, DWORD PTR [esi+ecx*4]
	mov	edi, eax
	shr	edi, 29					; 0000001dH
	imul	edi, 112				; 00000070H
	mov	edi, DWORD PTR _web[edi+12]
	and	eax, 134217727				; 07ffffffH
	mov	eax, DWORD PTR [edi+eax*4]
	or	DWORD PTR [eax+8], 4194304		; 00400000H
	mov	edi, DWORD PTR [eax+12]
	mov	DWORD PTR [eax+12], edi

; 2619 :             set_vertex_edge(vv[i],elist[k]);

	mov	eax, DWORD PTR [esi+ecx*4]
	mov	edi, DWORD PTR _web+12
	and	eax, 134217727				; 07ffffffH
	mov	eax, DWORD PTR [edi+eax*4]
	mov	edi, DWORD PTR _elist
	mov	edi, DWORD PTR [edi+ebx*4]
	inc	ecx
	mov	DWORD PTR [eax+28], edi
	cmp	ecx, edx
	jl	SHORT $LL104@read_edges
$LN102@read_edges:

; 2620 :           } 
; 2621 :        }
; 2622 :     } 
; 2623 :     tok = yylex();

	push	0
	call	_kb_yylex
	add	esp, 4

; 2624 :     if ( web.torus_flag )

	cmp	DWORD PTR _web+860, 0
	mov	edi, eax
	mov	DWORD PTR _tok, edi
	je	SHORT $LN296@read_edges

; 2625 :     { read_wrap_flag = 1;
; 2626 :       for ( i = 0 ; i < SDIM  ; i++ )

	xor	esi, esi
	mov	DWORD PTR _read_wrap_flag, 1
	cmp	DWORD PTR _web+616, esi
	jle	SHORT $LN296@read_edges
	npad	9
$LL100@read_edges:

; 2627 :       switch ( tok )

	cmp	edi, 272				; 00000110H
	jg	$LN154@read_edges
	je	$LN89@read_edges
	sub	edi, 42					; 0000002aH
	je	SHORT $LN91@read_edges
	dec	edi
	je	$LN92@read_edges
	sub	edi, 2
	jne	$LN88@read_edges
$LN90@read_edges:

; 2640 : 
; 2641 :         case '*': 
; 2642 :             tok = ' '; /* so won't expect more input */
; 2643 :             tok = yylex(); 
; 2644 :            break;
; 2645 : 
; 2646 :         case '-':
; 2647 :         case UMINUS_TOK:
; 2648 :             wrap += NEGWRAP << (i*TWRAPBITS);

	mov	edx, 31					; 0000001fH
$LN311@read_edges:
	lea	ecx, DWORD PTR [esi+esi*2]
	add	ecx, ecx
	shl	edx, cl
	add	DWORD PTR _wrap$90697[ebp], edx
$LN91@read_edges:

; 2649 :             tok = ' '; /* so won't expect more input */
; 2650 :             tok = yylex();

	push	0
	mov	DWORD PTR _tok, 32			; 00000020H
	call	_kb_yylex
	mov	edi, eax
	mov	DWORD PTR _tok, edi
	add	esp, 4
$LN99@read_edges:

; 2625 :     { read_wrap_flag = 1;
; 2626 :       for ( i = 0 ; i < SDIM  ; i++ )

	inc	esi
	cmp	esi, DWORD PTR _web+616
	jl	SHORT $LL100@read_edges
$LN296@read_edges:

; 2662 :       }
; 2663 :     }
; 2664 :     read_wrap_flag = 0;
; 2665 : 
; 2666 :     set_original(elist[k],(k-1)|((element_id)EDGE<<TYPESHIFT)|VALIDMASK);

	mov	eax, DWORD PTR _elist
	mov	DWORD PTR _read_wrap_flag, 0
	mov	eax, DWORD PTR [eax+ebx*4]
	mov	edx, eax
	shr	edx, 29					; 0000001dH
	imul	edx, 112				; 00000070H
	mov	edx, DWORD PTR _web[edx+12]
	and	eax, 134217727				; 07ffffffH
	mov	eax, DWORD PTR [edx+eax*4]
	lea	ecx, DWORD PTR [ebx-1]
	or	ecx, 805306368				; 30000000H
	mov	DWORD PTR [eax+20], ecx

; 2667 : 
; 2668 :     if ( web.representation == STRING )

	cmp	DWORD PTR _web+624, 1
	jne	$LN87@read_edges

; 2669 :        set_edge_density(elist[k],1.0);

	mov	ecx, DWORD PTR _elist
	fld1
	mov	edx, DWORD PTR [ecx+ebx*4]
	mov	eax, DWORD PTR _web+124
	and	edx, 134217727				; 07ffffffH
	mov	ecx, DWORD PTR [eax+edx*4]
	fstp	QWORD PTR [ecx+40]

; 2670 :     else

	jmp	$LL85@read_edges
$LN92@read_edges:

; 2635 :         case '+':
; 2636 :             wrap += POSWRAP << (i*TWRAPBITS);

	mov	edx, 1

; 2637 :             tok = ' '; /* so won't expect more input */
; 2638 :             tok = yylex();
; 2639 :             break;

	jmp	$LN311@read_edges
$LN89@read_edges:

; 2651 :             break;
; 2652 : 
; 2653 :         case POW_TOK: /* ** */
; 2654 :              i++;            

	inc	esi

; 2655 :              tok = ' '; /* so won't expect more input */
; 2656 :              tok = yylex(); break;

	jmp	$LN91@read_edges
$LN154@read_edges:

; 2627 :       switch ( tok )

	sub	edi, 287				; 0000011fH
	je	$LN90@read_edges
	sub	edi, 21					; 00000015H
	je	SHORT $LN95@read_edges
$LN88@read_edges:

; 2657 :         default :
; 2658 :           kb_error(1133,"Edge wraps must immediately follow endpoints.\n",
; 2659 :               WARNING);

	push	2
	push	OFFSET ??_C@_0CP@DGBDNCJM@Edge?5wraps?5must?5immediately?5foll@
	push	1133					; 0000046dH
	call	_kb_error

; 2660 :           i = SDIM; /* assume wraps are missing */

	mov	esi, DWORD PTR _web+616

; 2661 :           break;

	mov	edi, DWORD PTR _tok
	add	esp, 12					; 0000000cH
	jmp	$LN99@read_edges
$LN95@read_edges:

; 2628 :       { case WRAP_TOK: 
; 2629 :             if ( read_const(&value) < 0 ) 

	lea	eax, DWORD PTR _value$[ebp]
	push	eax
	call	_read_const
	add	esp, 4
	test	eax, eax
	jns	SHORT $LN94@read_edges

; 2630 :                 kb_error(4135,"Missing wrap value.\n",DATAFILE_ERROR);

	push	6
	push	OFFSET ??_C@_0BF@PFOEMAKJ@Missing?5wrap?5value?4?6?$AA@
	push	4135					; 00001027H
	call	_kb_error
	mov	edi, DWORD PTR _tok
	add	esp, 12					; 0000000cH
	jmp	SHORT $LN93@read_edges
$LN94@read_edges:

; 2631 :             else tok = yylex();

	push	0
	call	_kb_yylex
	mov	edi, eax
	add	esp, 4
	mov	DWORD PTR _tok, edi
$LN93@read_edges:

; 2632 :             wrap = (WRAPTYPE)value;

	fld	QWORD PTR _value$[ebp]
	call	__ftol2_sse

; 2633 :             i = SDIM;

	mov	esi, DWORD PTR _web+616
	mov	DWORD PTR _wrap$90697[ebp], eax

; 2634 :             break;

	jmp	$LN99@read_edges
$LN87@read_edges:

; 2671 :        set_edge_density(elist[k],0.0);

	mov	edx, DWORD PTR _elist
	fldz
	mov	eax, DWORD PTR [edx+ebx*4]
	mov	ecx, DWORD PTR _web+124
	and	eax, 134217727				; 07ffffffH
	mov	edx, DWORD PTR [ecx+eax*4]
	fstp	QWORD PTR [edx+40]
$LL85@read_edges:

; 2672 :     /* check attributes */
; 2673 :     for ( more_attr = 1; more_attr ; )
; 2674 :        switch ( tok )

	mov	ecx, DWORD PTR _tok
	mov	eax, ecx
	cmp	eax, 264				; 00000108H
	jg	SHORT $LN187@read_edges
	je	$LN299@read_edges
	test	eax, eax
	jmp	$LN316@read_edges
$LN187@read_edges:
	cmp	eax, 549				; 00000225H
	jg	$LN188@read_edges
	je	$LN299@read_edges
	sub	eax, 284				; 0000011cH
	cmp	eax, 236				; 000000ecH
	ja	$LN7@read_edges
	movzx	eax, BYTE PTR $LN288@read_edges[eax]
	jmp	DWORD PTR $LN318@read_edges[eax*4]
$LN79@read_edges:

; 2685 : 
; 2686 :                case ORIENTATION_TOK:
; 2687 :                   tok = gettok(INTEGER_TOK);

	push	265					; 00000109H
	call	_gettok
	add	esp, 4
	mov	DWORD PTR _tok, eax

; 2688 :                   if ( tok != INTEGER_TOK )

	cmp	eax, 265				; 00000109H
	je	SHORT $LN78@read_edges

; 2689 :                   { kb_error(2107,"ORIENTATION value missing.\n",DATAFILE_ERROR);

	push	6
	push	OFFSET ??_C@_0BM@NLDAKABN@ORIENTATION?5value?5missing?4?6?$AA@
	push	2107					; 0000083bH
	call	_kb_error
	add	esp, 12					; 0000000cH

; 2690 :                     break;

	jmp	SHORT $LL85@read_edges
$LN78@read_edges:

; 2691 :                   }
; 2692 :                   if ( yylval.i < 0 ) set_attr(elist[k],NEGBOUNDARY);

	cmp	DWORD PTR _yylval, 0
	jge	SHORT $LN196@read_edges
	mov	ecx, DWORD PTR _elist
	mov	eax, DWORD PTR [ecx+ebx*4]
	mov	edx, eax
	shr	edx, 29					; 0000001dH
	imul	edx, 112				; 00000070H
	mov	ecx, DWORD PTR _web[edx+12]
	and	eax, 134217727				; 07ffffffH
	mov	eax, DWORD PTR [ecx+eax*4]
	mov	edx, DWORD PTR [eax+12]
	or	DWORD PTR [eax+8], 256			; 00000100H
	mov	DWORD PTR [eax+12], edx
$LN196@read_edges:

; 2693 :                   tok = yylex();

	push	0
	call	_kb_yylex
	add	esp, 4
	mov	DWORD PTR _tok, eax

; 2694 :                   break;

	jmp	$LL85@read_edges
$LN76@read_edges:

; 2695 : 
; 2696 :                case NONCONTENT_TOK:
; 2697 :                   set_attr(elist[k],NONCONTENT);

	mov	eax, DWORD PTR _elist
	mov	eax, DWORD PTR [eax+ebx*4]
	mov	ecx, eax
	shr	ecx, 29					; 0000001dH
	imul	ecx, 112				; 00000070H
	mov	edx, DWORD PTR _web[ecx+12]
	and	eax, 134217727				; 07ffffffH
	mov	eax, DWORD PTR [edx+eax*4]
	or	DWORD PTR [eax+8], 536870912		; 20000000H

; 2698 :                   tok = yylex();
; 2699 :                   break;

	jmp	$LN312@read_edges
$LN75@read_edges:

; 2700 : 
; 2701 :                case NO_REFINE_TOK:
; 2702 :                   set_attr(elist[k],NO_REFINE);

	mov	edx, DWORD PTR _elist
	mov	eax, DWORD PTR [edx+ebx*4]
	mov	ecx, eax
	shr	ecx, 29					; 0000001dH
	imul	ecx, 112				; 00000070H
	mov	edx, DWORD PTR _web[ecx+12]
	and	eax, 134217727				; 07ffffffH
	mov	eax, DWORD PTR [edx+eax*4]
	or	DWORD PTR [eax+8], 16777216		; 01000000H

; 2703 :                   tok = yylex();
; 2704 :                   break;

	jmp	$LN312@read_edges
$LN74@read_edges:

; 2705 : 
; 2706 :                case NO_TRANSFORM_TOK:
; 2707 :                   set_attr(elist[k],NO_TRANSFORM);

	mov	edx, DWORD PTR _elist
	mov	eax, DWORD PTR [edx+ebx*4]
	mov	ecx, eax
	shr	ecx, 29					; 0000001dH
	imul	ecx, 112				; 00000070H
	mov	edx, DWORD PTR _web[ecx+12]
	and	eax, 134217727				; 07ffffffH
	mov	eax, DWORD PTR [edx+eax*4]
	mov	ecx, DWORD PTR [eax+8]
	or	DWORD PTR [eax+12], 1

; 2743 :                    tok = yylex();

	push	0
	mov	DWORD PTR [eax+8], ecx
	call	_kb_yylex
	add	esp, 4
	mov	DWORD PTR _tok, eax
	jmp	$LL85@read_edges
$LN73@read_edges:

; 2708 :                   tok = yylex();
; 2709 :                   break;
; 2710 : 
; 2711 :                case BARE_TOK:
; 2712 :                   set_attr(elist[k],BARE_NAKED);

	mov	edx, DWORD PTR _elist
	mov	eax, DWORD PTR [edx+ebx*4]
	mov	ecx, eax
	shr	ecx, 29					; 0000001dH
	imul	ecx, 112				; 00000070H
	mov	edx, DWORD PTR _web[ecx+12]
	and	eax, 134217727				; 07ffffffH
	mov	eax, DWORD PTR [edx+eax*4]
	or	DWORD PTR [eax+8], 65536		; 00010000H

; 2713 :                   tok = yylex();
; 2714 :                   break;

	jmp	$LN312@read_edges
$LN72@read_edges:

; 2715 : 
; 2716 :                case ORIGINAL_TOK:
; 2717 :                   if ( (tok = gettok(INTEGER_TOK)) != INTEGER_TOK )

	push	265					; 00000109H
	call	_gettok
	add	esp, 4
	mov	DWORD PTR _tok, eax
	cmp	eax, 265				; 00000109H
	je	SHORT $LN71@read_edges

; 2718 :                   { kb_error(2108,"ORIGINAL number missing.\n",DATAFILE_ERROR);

	push	6
	push	OFFSET ??_C@_0BK@NKBFEMPG@ORIGINAL?5number?5missing?4?6?$AA@
	push	2108					; 0000083cH
	call	_kb_error
	add	esp, 12					; 0000000cH

; 2719 :                     break;

	jmp	$LL85@read_edges
$LN71@read_edges:

; 2720 :                   }
; 2721 :                   set_original(elist[k],(yylval.i-1)|((element_id)EDGE<<TYPESHIFT)|VALIDMASK);

	mov	edx, DWORD PTR _elist
	mov	eax, DWORD PTR [edx+ebx*4]
	mov	ecx, DWORD PTR _yylval
	mov	edx, eax
	shr	edx, 29					; 0000001dH
	imul	edx, 112				; 00000070H
	mov	edx, DWORD PTR _web[edx+12]
	dec	ecx
	and	eax, 134217727				; 07ffffffH
	mov	eax, DWORD PTR [edx+eax*4]
	or	ecx, 805306368				; 30000000H

; 2743 :                    tok = yylex();

	push	0
	mov	DWORD PTR [eax+20], ecx
	call	_kb_yylex
	add	esp, 4
	mov	DWORD PTR _tok, eax
	jmp	$LL85@read_edges
$LN70@read_edges:

; 2722 :                   tok = yylex();
; 2723 :                   break;
; 2724 : 
; 2725 :             case WRAP_TOK:
; 2726 :                    if ( read_const(&value) < 0 ) 

	lea	ecx, DWORD PTR _value$[ebp]
	push	ecx
	call	_read_const
	add	esp, 4
	test	eax, eax
	jns	SHORT $LN69@read_edges

; 2727 :                       kb_error(1135,"Missing wrap value.\n",DATAFILE_ERROR);

	push	6
	push	OFFSET ??_C@_0BF@PFOEMAKJ@Missing?5wrap?5value?4?6?$AA@
	push	1135					; 0000046fH
	call	_kb_error
	add	esp, 12					; 0000000cH
	jmp	SHORT $LN68@read_edges
$LN69@read_edges:

; 2728 :                    else tok = yylex();

	push	0
	call	_kb_yylex
	add	esp, 4
	mov	DWORD PTR _tok, eax
$LN68@read_edges:

; 2729 :                    wrap = (WRAPTYPE)value;

	fld	QWORD PTR _value$[ebp]
	call	__ftol2_sse

; 2730 :                    if ( !web.symmetry_flag )

	cmp	DWORD PTR _web+856, 0
	mov	DWORD PTR _wrap$90697[ebp], eax
	jne	SHORT $LN67@read_edges

; 2731 :                        kb_error(1134,"Cannot do wraps without torus or symmetry group.\n",
; 2732 :                           DATAFILE_ERROR);

	push	6
	push	OFFSET ??_C@_0DC@JNMGKLBI@Cannot?5do?5wraps?5without?5torus?5or@
	push	1134					; 0000046eH
	call	_kb_error
	add	esp, 12					; 0000000cH
	jmp	$LL85@read_edges
$LN67@read_edges:

; 2733 :                    else set_edge_wrap(elist[k],wrap);

	mov	edx, DWORD PTR _elist
	mov	esi, DWORD PTR [edx+ebx*4]
	test	esi, 134217728				; 08000000H
	je	SHORT $LN208@read_edges
	push	eax
	call	DWORD PTR _sym_inverse
	add	esp, 4
$LN208@read_edges:
	mov	ecx, DWORD PTR _web+124
	and	esi, 134217727				; 07ffffffH
	mov	edx, DWORD PTR [ecx+esi*4]
	mov	ecx, DWORD PTR _web+216
	mov	esi, DWORD PTR _dymem
	mov	ecx, DWORD PTR [ecx+esi+784]
	mov	DWORD PTR [edx+ecx], eax

; 2734 :                    break;

	jmp	$LL85@read_edges
$LN65@read_edges:

; 2735 : 
; 2736 :             case FIXED_TOK:
; 2737 :                    set_attr(elist[k],FIXED);  

	mov	edx, DWORD PTR _elist
	mov	eax, DWORD PTR [edx+ebx*4]

; 2738 :                    tok = yylex();
; 2739 :                    break;

	jmp	$LN314@read_edges
$LN63@read_edges:

; 2744 :                    break;
; 2745 : 
; 2746 :             case COLOR_TOK:
; 2747 :                    if ( read_const(&value) <= 0 )

	lea	edx, DWORD PTR _value$[ebp]
	push	edx
	call	_read_const
	add	esp, 4
	test	eax, eax
	jg	SHORT $LN62@read_edges

; 2748 :                    { kb_error(1136,"Color missing.\n",DATAFILE_ERROR);

	push	6
	push	OFFSET ??_C@_0BA@IPLAMOJB@Color?5missing?4?6?$AA@
	push	1136					; 00000470H
	call	_kb_error
	add	esp, 12					; 0000000cH

; 2749 :                      break;

	jmp	$LL85@read_edges
$LN62@read_edges:

; 2750 :                    }
; 2751 :                    set_edge_color(elist[k],(short)value);

	fld	QWORD PTR _value$[ebp]
	call	__ftol2_sse
	mov	ecx, DWORD PTR _elist
	mov	edx, DWORD PTR [ecx+ebx*4]
	mov	ecx, DWORD PTR _web+124
	and	edx, 134217727				; 07ffffffH
	mov	edx, DWORD PTR [ecx+edx*4]
	push	0
	mov	WORD PTR [edx+56], ax
	call	_kb_yylex
	add	esp, 4
	mov	DWORD PTR _tok, eax
	jmp	$LL85@read_edges
$LN61@read_edges:

; 2752 :                    tok = yylex();
; 2753 :                    break;
; 2754 : 
; 2755 :             case BOUNDARY_TOK:
; 2756 :             case BOUNDARY_NAME_TOK:
; 2757 :                    if ( tok == BOUNDARY_TOK )

	cmp	ecx, 408				; 00000198H
	jne	SHORT $LN60@read_edges

; 2758 :                      tok = gettok(INTEGER_TOK);

	push	265					; 00000109H
	call	_gettok
	mov	ecx, eax
	add	esp, 4
	mov	DWORD PTR _tok, ecx
$LN60@read_edges:

; 2759 :                    if ( (tok != INTEGER_TOK) && ( tok != BOUNDARY_NAME_TOK ) )  

	cmp	ecx, 265				; 00000109H
	je	SHORT $LN271@read_edges
	cmp	ecx, 520				; 00000208H
	je	SHORT $LN58@read_edges

; 2760 :                        { kb_error(2109,"Need boundary number or name.\n",
; 2761 :                            DATAFILE_ERROR);

	push	6
	push	OFFSET ??_C@_0BP@CEDOMNKL@Need?5boundary?5number?5or?5name?4?6?$AA@
	push	2109					; 0000083dH
	call	_kb_error
	add	esp, 12					; 0000000cH

; 2762 :                           break;

	jmp	$LL85@read_edges
$LN271@read_edges:

; 2763 :                        }
; 2764 :                    if ( tok == INTEGER_TOK )
; 2765 :                     { bnum = abs(yylval.i);

	mov	eax, DWORD PTR _yylval
	cdq
	xor	eax, edx
	sub	eax, edx

; 2766 :                       if ( (bnum >= web.bdrymax) 
; 2767 :                               || !(web.boundaries[bnum].attr & IN_USE) )

	cmp	eax, DWORD PTR _web+768
	jge	SHORT $LN297@read_edges
	mov	edx, DWORD PTR _web+776
	mov	ecx, eax
	imul	ecx, 136				; 00000088H
	mov	ecx, DWORD PTR [ecx+edx+32]
	and	ecx, 32					; 00000020H
	xor	edx, edx
	or	ecx, edx
	jne	$LN55@read_edges
$LN297@read_edges:

; 2768 :                        {
; 2769 :                           sprintf(errmsg,
; 2770 :                               "Bad boundary number %d for edge %d.\n",bnum,k);

	push	ebx
	push	eax
	push	OFFSET ??_C@_0CF@HDBOPHDM@Bad?5boundary?5number?5?$CFd?5for?5edge?5@
	push	OFFSET _errmsg
	call	_sprintf

; 2771 :                           kb_error(1137,errmsg,DATAFILE_ERROR);

	push	6
	push	OFFSET _errmsg
	push	1137					; 00000471H
	call	_kb_error

; 2772 :                           yylex();

	push	0
	call	_kb_yylex
	add	esp, 32					; 00000020H

; 2773 :                           break;

	jmp	$LL85@read_edges
$LN58@read_edges:

; 2774 :                        }          
; 2775 :                     }
; 2776 :                     else
; 2777 :                     { bnum = globals(yylval.i)->value.bnum;

	mov	eax, DWORD PTR _yylval
	mov	ecx, eax
	and	ecx, -16777216				; ff000000H
	cmp	ecx, 268435456				; 10000000H
	je	SHORT $LN155@read_edges
	cmp	ecx, 805306368				; 30000000H
	jne	SHORT $LN157@read_edges
	mov	ecx, DWORD PTR _localbase
	and	eax, 16777215				; 00ffffffH
	imul	eax, 224				; 000000e0H
	add	eax, DWORD PTR [ecx]
	jmp	SHORT $LN156@read_edges
$LN157@read_edges:
	cmp	ecx, 536870912				; 20000000H
	jne	SHORT $LN155@read_edges
	mov	edx, DWORD PTR _web+5656
	and	eax, 16777215				; 00ffffffH
	mov	eax, DWORD PTR [edx+eax*4]
	jmp	SHORT $LN156@read_edges
$LN155@read_edges:
	mov	ecx, DWORD PTR _web+5652
	and	eax, 16777215				; 00ffffffH
	lea	edx, DWORD PTR [ecx+eax*4]
	mov	eax, DWORD PTR _dymem
	mov	eax, DWORD PTR [edx+eax]
$LN156@read_edges:
	mov	eax, DWORD PTR [eax+64]
$LN55@read_edges:

; 2778 :                     }
; 2779 :                    set_attr(elist[k],BOUNDARY);

	mov	ecx, DWORD PTR _elist
	mov	ecx, DWORD PTR [ecx+ebx*4]
	mov	edx, ecx
	shr	edx, 29					; 0000001dH
	imul	edx, 112				; 00000070H
	mov	edx, DWORD PTR _web[edx+12]
	and	ecx, 134217727				; 07ffffffH
	mov	ecx, DWORD PTR [edx+ecx*4]
	mov	edx, DWORD PTR [ecx+12]
	or	DWORD PTR [ecx+8], 128			; 00000080H
	mov	DWORD PTR [ecx+12], edx

; 2780 :                    if ( yylval.i < 0 )  set_attr(vlist[k],NEGBOUNDARY); 

	cmp	DWORD PTR _yylval, 0
	jge	SHORT $LN216@read_edges
	mov	ecx, DWORD PTR _vlist
	mov	ecx, DWORD PTR [ecx+ebx*4]
	mov	edx, ecx
	shr	edx, 29					; 0000001dH
	imul	edx, 112				; 00000070H
	mov	edx, DWORD PTR _web[edx+12]
	and	ecx, 134217727				; 07ffffffH
	mov	ecx, DWORD PTR [edx+ecx*4]
	mov	edx, DWORD PTR [ecx+12]
	or	DWORD PTR [ecx+8], 256			; 00000100H
	mov	DWORD PTR [ecx+12], edx
$LN216@read_edges:

; 2781 :                    set_edge_boundary_num(elist[k],bnum);

	mov	ecx, DWORD PTR _E_BOUNDARY_ATTR
	test	ecx, ecx
	je	SHORT $LN163@read_edges
	mov	edx, DWORD PTR _elist
	imul	ecx, 240				; 000000f0H
	mov	edx, DWORD PTR [edx+ebx*4]
	mov	esi, DWORD PTR _web+124
	add	ecx, DWORD PTR _web+216
	and	edx, 134217727				; 07ffffffH
	mov	edx, DWORD PTR [esi+edx*4]
	mov	esi, DWORD PTR _dymem
	mov	ecx, DWORD PTR [ecx+esi+64]
	mov	DWORD PTR [edx+ecx], eax

; 2782 :                    bdry = get_edge_boundary(elist[k]); 

	mov	eax, DWORD PTR _E_BOUNDARY_ATTR
	test	eax, eax
	je	SHORT $LN163@read_edges
	mov	edx, DWORD PTR _elist
	imul	eax, 240				; 000000f0H
	mov	ecx, DWORD PTR [edx+ebx*4]
	add	eax, DWORD PTR _web+216
	mov	edx, DWORD PTR _web+124
	and	ecx, 134217727				; 07ffffffH
	mov	ecx, DWORD PTR [edx+ecx*4]
	mov	edx, DWORD PTR _dymem
	mov	eax, DWORD PTR [eax+edx+64]
	mov	eax, DWORD PTR [ecx+eax]
	imul	eax, 136				; 00000088H
	add	eax, DWORD PTR _web+776
	jmp	SHORT $LN164@read_edges
$LN163@read_edges:
	xor	eax, eax
$LN164@read_edges:

; 2783 :                    if ( (bdry->attr & CON_ENERGY) && (yytext[0] == '0') )

	mov	ecx, DWORD PTR [eax+32]
	and	ecx, 64					; 00000040H
	xor	edx, edx
	or	ecx, edx
	je	SHORT $LN218@read_edges
	mov	ecx, DWORD PTR _yytext
	cmp	BYTE PTR [ecx], 48			; 00000030H
	jne	SHORT $LN218@read_edges

; 2784 :                       set_attr(elist[k], BDRY_ENERGY);

	mov	edx, DWORD PTR _elist
	mov	ecx, DWORD PTR [edx+ebx*4]
	mov	edx, ecx
	shr	edx, 29					; 0000001dH
	imul	edx, 112				; 00000070H
	mov	edx, DWORD PTR _web[edx+12]
	and	ecx, 134217727				; 07ffffffH
	mov	ecx, DWORD PTR [edx+ecx*4]
	mov	edx, DWORD PTR [ecx+12]
	or	DWORD PTR [ecx+8], 512			; 00000200H
	mov	DWORD PTR [ecx+12], edx
$LN218@read_edges:

; 2785 :                    if ( bdry->attr & CON_CONTENT )

	mov	eax, DWORD PTR [eax+32]
	and	eax, 128				; 00000080H
	xor	ecx, ecx
	or	eax, ecx
	je	$LN313@read_edges

; 2786 :                       set_attr(elist[k], BDRY_CONTENT);

	mov	eax, DWORD PTR _elist
	mov	eax, DWORD PTR [eax+ebx*4]
	mov	ecx, eax
	shr	ecx, 29					; 0000001dH
	imul	ecx, 112				; 00000070H
	mov	edx, DWORD PTR _web[ecx+12]
	and	eax, 134217727				; 07ffffffH
	mov	eax, DWORD PTR [edx+eax*4]
	or	DWORD PTR [eax+8], 4096			; 00001000H

; 2787 :                    tok = yylex();
; 2788 :                    break;

	jmp	$LN312@read_edges
$LN51@read_edges:

; 2789 : 
; 2790 :           case CONSTRAINT_TOK:
; 2791 :           case CONSTRAINT_NAME_TOK:
; 2792 :              if ( tok == CONSTRAINT_TOK )

	cmp	ecx, 320				; 00000140H
	jne	SHORT $LL49@read_edges

; 2829 :                   set_attr(elist[k], BDRY_CONTENT);

$LN228@read_edges:

; 2793 :                tok = gettok(INTEGER_TOK);

	push	265					; 00000109H
	call	_gettok
	mov	ecx, eax
	mov	DWORD PTR _tok, ecx
	add	esp, 4
	npad	2
$LL49@read_edges:

; 2794 :              while ( (tok == INTEGER_TOK) || (tok==CONSTRAINT_NAME_TOK) )

	cmp	ecx, 265				; 00000109H
	je	SHORT $LN270@read_edges
	cmp	ecx, 519				; 00000207H
	jne	$LL85@read_edges

; 2799 :                  cnum = globals(yylval.i)->value.cnum;

	mov	eax, DWORD PTR _yylval
	mov	ecx, eax
	and	ecx, -16777216				; ff000000H
	cmp	ecx, 268435456				; 10000000H
	je	SHORT $LN165@read_edges
	cmp	ecx, 805306368				; 30000000H
	jne	SHORT $LN167@read_edges
	mov	edx, DWORD PTR _localbase
	and	eax, 16777215				; 00ffffffH
	imul	eax, 224				; 000000e0H
	add	eax, DWORD PTR [edx]
	jmp	SHORT $LN166@read_edges
$LN270@read_edges:

; 2795 :              { struct constraint *con;
; 2796 :                if ( tok == INTEGER_TOK )
; 2797 :                  cnum = abs(yylval.i);

	mov	eax, DWORD PTR _yylval
	cdq
	xor	eax, edx
	sub	eax, edx
	mov	DWORD PTR _cnum$[ebp], eax

; 2798 :                else

	jmp	SHORT $LN45@read_edges
$LN167@read_edges:

; 2799 :                  cnum = globals(yylval.i)->value.cnum;

	cmp	ecx, 536870912				; 20000000H
	jne	SHORT $LN165@read_edges
	mov	ecx, DWORD PTR _web+5656
	and	eax, 16777215				; 00ffffffH
	mov	eax, DWORD PTR [ecx+eax*4]
	jmp	SHORT $LN166@read_edges
$LN165@read_edges:
	mov	edx, DWORD PTR _web+5652
	mov	ecx, DWORD PTR _dymem
	and	eax, 16777215				; 00ffffffH
	lea	eax, DWORD PTR [edx+eax*4]
	mov	eax, DWORD PTR [eax+ecx]
$LN166@read_edges:
	mov	edx, DWORD PTR [eax+64]
	mov	DWORD PTR _cnum$[ebp], edx
	mov	eax, edx
$LN45@read_edges:

; 2800 :                con = get_constraint(cnum);

	mov	ecx, DWORD PTR _web+652
	mov	edi, eax
	and	edi, 1073741823				; 3fffffffH
	imul	edi, 176				; 000000b0H
	lea	esi, DWORD PTR [edi+ecx]

; 2801 :                if ( (cnum >= web.maxcon) || !(con->attr & IN_USE) )

	cmp	eax, DWORD PTR _web+644
	jge	$LN258@read_edges
	mov	ecx, DWORD PTR [esi+32]
	mov	edx, DWORD PTR [esi+36]
	mov	eax, ecx
	mov	DWORD PTR tv2456[ebp+4], edx
	and	eax, 32					; 00000020H
	xor	edx, edx
	or	eax, edx
	je	$LN258@read_edges

; 2806 :                  break;
; 2807 :                }
; 2808 :                /* check consistency of number of components */
; 2809 :                if ( (con->attr & CON_ENERGY) ||
; 2810 :                     ((con->attr & CON_CONTENT) && web.dimension==SOAPFILM) )

	mov	eax, ecx
	and	eax, 64					; 00000040H
	or	eax, edx
	mov	edx, DWORD PTR _web+620
	jne	SHORT $LN301@read_edges
	and	ecx, 128				; 00000080H
	xor	eax, eax
	or	ecx, eax
	je	$LN38@read_edges
	cmp	edx, 2
	jne	$LN38@read_edges
$LN301@read_edges:

; 2811 :                { if ( web.dimension == 1 )

	cmp	edx, 1
	jne	SHORT $LN40@read_edges

; 2812 :                  { sprintf(errmsg,"Edge %s is on constraint %s, which has an energy integral.  Probably a bad idea in the string model.\n",ELNAME(elist[k]),con->name);

	mov	eax, DWORD PTR _elist
	mov	eax, DWORD PTR [eax+ebx*4]
	test	eax, 268435456				; 10000000H
	je	SHORT $LN171@read_edges
	and	eax, 134217727				; 07ffffffH
	inc	eax
	push	eax
	push	OFFSET ??_C@_02DPKJAMEF@?$CFd?$AA@
	push	OFFSET _elnames
	call	_sprintf
	add	esp, 12					; 0000000cH
	mov	eax, OFFSET _elnames
	jmp	SHORT $LN172@read_edges
$LN171@read_edges:
	mov	eax, OFFSET ??_C@_00CNPNBAHC@?$AA@
$LN172@read_edges:
	push	esi
	push	eax
	push	OFFSET ??_C@_0GG@EEBCIKGE@Edge?5?$CFs?5is?5on?5constraint?5?$CFs?0?5whi@
	push	OFFSET _errmsg
	call	_sprintf

; 2813 :                    kb_error(3918,errmsg,WARNING);

	push	2
	push	OFFSET _errmsg
	push	3918					; 00000f4eH
	jmp	SHORT $LN317@read_edges
$LN40@read_edges:

; 2814 :                  }
; 2815 :                  else if ( con->compcount != compcount )

	mov	ecx, DWORD PTR [esi+44]
	cmp	ecx, DWORD PTR _compcount$[ebp]
	je	SHORT $LN38@read_edges

; 2816 :                  { sprintf(errmsg,
; 2817 : "Inconsistent number of components in edge %s constraint %s content or energy integrands.\n",
; 2818 :                     ELNAME(elist[k]),con->name);

	mov	edx, DWORD PTR _elist
	mov	eax, DWORD PTR [edx+ebx*4]
	test	eax, 268435456				; 10000000H
	je	SHORT $LN173@read_edges
	and	eax, 134217727				; 07ffffffH
	inc	eax
	push	eax
	push	OFFSET ??_C@_02DPKJAMEF@?$CFd?$AA@
	push	OFFSET _elnames
	call	_sprintf
	add	esp, 12					; 0000000cH
	mov	eax, OFFSET _elnames
	jmp	SHORT $LN174@read_edges
$LN173@read_edges:
	mov	eax, OFFSET ??_C@_00CNPNBAHC@?$AA@
$LN174@read_edges:
	push	esi
	push	eax
	push	OFFSET ??_C@_0FK@MDDCAAB@Inconsistent?5number?5of?5component@
	push	OFFSET _errmsg
	call	_sprintf

; 2819 :                    kb_error(1139,errmsg, WARNING);

	push	2
	push	OFFSET _errmsg
	push	1139					; 00000473H
$LN317@read_edges:
	call	_kb_error
	add	esp, 28					; 0000001cH
$LN38@read_edges:

; 2820 :                  }
; 2821 :                }
; 2822 :                set_attr(elist[k],CONSTRAINT);

	mov	eax, DWORD PTR _elist
	mov	eax, DWORD PTR [eax+ebx*4]
	mov	ecx, eax
	shr	ecx, 29					; 0000001dH
	imul	ecx, 112				; 00000070H
	mov	edx, DWORD PTR _web[ecx+12]
	and	eax, 134217727				; 07ffffffH
	mov	eax, DWORD PTR [edx+eax*4]
	mov	ecx, DWORD PTR [eax+12]
	or	DWORD PTR [eax+8], 1024			; 00000400H
	mov	DWORD PTR [eax+12], ecx

; 2823 :                if ( yylval.i < 0 )  set_attr(elist[k],NEGBOUNDARY); 

	cmp	DWORD PTR _yylval, 0
	jge	SHORT $LN224@read_edges
	mov	edx, DWORD PTR _elist
	mov	eax, DWORD PTR [edx+ebx*4]
	mov	ecx, eax
	shr	ecx, 29					; 0000001dH
	imul	ecx, 112				; 00000070H
	mov	edx, DWORD PTR _web[ecx+12]
	and	eax, 134217727				; 07ffffffH
	mov	eax, DWORD PTR [edx+eax*4]
	mov	ecx, DWORD PTR [eax+12]
	or	DWORD PTR [eax+8], 256			; 00000100H
	mov	DWORD PTR [eax+12], ecx
$LN224@read_edges:

; 2824 :                set_e_constraint_map(elist[k],cnum);

	mov	edx, DWORD PTR _cnum$[ebp]
	mov	eax, DWORD PTR _elist
	mov	ecx, DWORD PTR [eax+ebx*4]
	push	edx
	push	ecx
	call	_set_e_constraint_map

; 2825 :                constr = get_constraint(cnum); 
; 2826 :                if ( (constr->attr & CON_ENERGY) && (yytext[0] != '0') )

	mov	edx, DWORD PTR _web+652
	mov	eax, DWORD PTR [edi+edx+32]
	lea	ecx, DWORD PTR [edi+edx+32]
	and	eax, 64					; 00000040H
	xor	edx, edx
	add	esp, 8
	or	eax, edx
	je	SHORT $LN302@read_edges
	mov	eax, DWORD PTR _yytext
	cmp	BYTE PTR [eax], 48			; 00000030H
	je	SHORT $LN302@read_edges

; 2827 :                   set_attr(elist[k], BDRY_ENERGY);

	mov	edx, DWORD PTR _elist
	mov	eax, DWORD PTR [edx+ebx*4]
	mov	edx, eax
	shr	edx, 29					; 0000001dH
	imul	edx, 112				; 00000070H
	mov	edx, DWORD PTR _web[edx+12]
	and	eax, 134217727				; 07ffffffH
	mov	eax, DWORD PTR [edx+eax*4]
	mov	edx, DWORD PTR [eax+12]
	or	DWORD PTR [eax+8], 512			; 00000200H
	mov	DWORD PTR [eax+12], edx
$LN302@read_edges:

; 2828 :                if ( constr->attr & CON_CONTENT )

	mov	eax, DWORD PTR [ecx]
	and	eax, 128				; 00000080H
	xor	ecx, ecx
	or	eax, ecx
	je	$LN228@read_edges

; 2829 :                   set_attr(elist[k], BDRY_CONTENT);

	mov	eax, DWORD PTR _elist
	mov	eax, DWORD PTR [eax+ebx*4]
	mov	ecx, eax
	shr	ecx, 29					; 0000001dH
	imul	ecx, 112				; 00000070H
	mov	edx, DWORD PTR _web[ecx+12]
	and	eax, 134217727				; 07ffffffH
	mov	eax, DWORD PTR [edx+eax*4]
	mov	ecx, DWORD PTR [eax+12]
	or	DWORD PTR [eax+8], 4096			; 00001000H
	mov	DWORD PTR [eax+12], ecx

; 2830 :                tok = gettok(INTEGER_TOK);
; 2831 :             }

	jmp	$LN228@read_edges
$LN258@read_edges:

; 2802 :                { sprintf(errmsg,
; 2803 :                         "Bad constraint number %d for edge %d.\n",cnum,k);

	mov	edx, DWORD PTR _cnum$[ebp]
	push	ebx
	push	edx
	push	OFFSET ??_C@_0CH@JCKGDEOH@Bad?5constraint?5number?5?$CFd?5for?5edg@
	push	OFFSET _errmsg
	call	_sprintf

; 2804 :                  kb_error(1138,errmsg,DATAFILE_ERROR);

	push	6
	push	OFFSET _errmsg
	push	1138					; 00000472H
	call	_kb_error

; 2805 :                  tok=yylex();

	push	0
	call	_kb_yylex
	add	esp, 32					; 00000020H
	mov	DWORD PTR _tok, eax
	jmp	$LL85@read_edges
$LN34@read_edges:

; 2832 :           break;
; 2833 : 
; 2834 :           case DENSITY_TOK:
; 2835 :                if ( read_const(&value) <= 0 )

	lea	eax, DWORD PTR _value$[ebp]
	push	eax
	call	_read_const
	add	esp, 4
	test	eax, eax
	jg	SHORT $LN33@read_edges

; 2836 :                   kb_error(1140,"Missing DENSITY value.\n",WARNING);

	push	2
	push	OFFSET ??_C@_0BI@PJJAKHC@Missing?5DENSITY?5value?4?6?$AA@
	push	1140					; 00000474H
	call	_kb_error
	add	esp, 12					; 0000000cH
	jmp	SHORT $LN32@read_edges
$LN33@read_edges:

; 2837 :                else tok = yylex();

	push	0
	call	_kb_yylex
	add	esp, 4
	mov	DWORD PTR _tok, eax
$LN32@read_edges:

; 2838 :                set_attr(elist[k],DENSITY);

	mov	ecx, DWORD PTR _elist
	mov	eax, DWORD PTR [ecx+ebx*4]
	mov	edx, eax
	shr	edx, 29					; 0000001dH
	imul	edx, 112				; 00000070H
	mov	ecx, DWORD PTR _web[edx+12]
	and	eax, 134217727				; 07ffffffH
	mov	eax, DWORD PTR [ecx+eax*4]
	or	DWORD PTR [eax+8], 16			; 00000010H
	mov	edx, DWORD PTR [eax+12]
	mov	DWORD PTR [eax+12], edx

; 2839 :                set_edge_density(elist[k],value);

	mov	eax, DWORD PTR _elist
	mov	ecx, DWORD PTR [eax+ebx*4]
	fld	QWORD PTR _value$[ebp]
	mov	edx, DWORD PTR _web+124
	and	ecx, 134217727				; 07ffffffH
	mov	eax, DWORD PTR [edx+ecx*4]
	fstp	QWORD PTR [eax+40]

; 2840 :                break;

	jmp	$LL85@read_edges
$LN31@read_edges:

; 2841 : 
; 2842 :         case QUANTITY_NAME_TOK: /* name of quantity */ 
; 2843 :          { int qnum = yylval.i;

	mov	esi, DWORD PTR _yylval

; 2844 :            tok = yylex();

	push	0
	call	_kb_yylex
	add	esp, 4
	mov	DWORD PTR _tok, eax

; 2845 :            if ( tok == '-' || tok == UMINUS_TOK )

	cmp	eax, 45					; 0000002dH
	je	SHORT $LN29@read_edges
	cmp	eax, 287				; 0000011fH
	je	SHORT $LN29@read_edges

; 2848 :            }
; 2849 :            else 
; 2850 :              apply_quantity(elist[k],qnum);

	mov	ecx, DWORD PTR _elist
	mov	edx, DWORD PTR [ecx+ebx*4]
	push	esi
	push	edx
	call	_apply_quantity
	add	esp, 8
	jmp	$LL85@read_edges
$LN29@read_edges:

; 2846 :            { apply_quantity(inverse_id(elist[k]),qnum);

	mov	eax, DWORD PTR _elist
	mov	ecx, DWORD PTR [eax+ebx*4]
	xor	ecx, 134217728				; 08000000H
	push	esi
	push	ecx
	call	_apply_quantity

; 2847 :              tok = yylex();

	push	0
	call	_kb_yylex
	add	esp, 12					; 0000000cH
	mov	DWORD PTR _tok, eax
	jmp	$LL85@read_edges
$LN27@read_edges:

; 2851 :            break;
; 2852 :          }
; 2853 :           
; 2854 :         case IDENT_TOK:  /* maybe method or quantity */
; 2855 :            if ( globals(yylval.i)->flags & METHOD_NAME )

	mov	esi, DWORD PTR _yylval
	mov	edi, DWORD PTR _dymem
	mov	edx, esi
	and	edx, -16777216				; ff000000H
	cmp	edx, 268435456				; 10000000H
	je	SHORT $LN175@read_edges
	cmp	edx, 805306368				; 30000000H
	jne	SHORT $LN177@read_edges
	mov	edi, DWORD PTR _localbase
	mov	eax, esi
	and	eax, 16777215				; 00ffffffH
	mov	ecx, eax
	imul	ecx, 224				; 000000e0H
	add	ecx, DWORD PTR [edi]
	mov	edi, DWORD PTR _dymem
	jmp	SHORT $LN176@read_edges
$LN177@read_edges:
	cmp	edx, 536870912				; 20000000H
	jne	SHORT $LN175@read_edges
	mov	ecx, DWORD PTR _web+5656
	mov	eax, esi
	and	eax, 16777215				; 00ffffffH
	mov	ecx, DWORD PTR [ecx+eax*4]
	jmp	SHORT $LN176@read_edges
$LN175@read_edges:
	mov	ecx, DWORD PTR _web+5652
	mov	eax, esi
	and	eax, 16777215				; 00ffffffH
	lea	ecx, DWORD PTR [ecx+eax*4]
	mov	ecx, DWORD PTR [ecx+edi]
$LN176@read_edges:
	test	DWORD PTR [ecx+192], 1024		; 00000400H
	je	SHORT $LN26@read_edges

; 2856 :               apply_method(elist[k],yytext);

	mov	edx, DWORD PTR _yytext
	mov	eax, DWORD PTR _elist
	mov	ecx, DWORD PTR [eax+ebx*4]
	push	edx
	push	ecx
	call	_apply_method
	add	esp, 8
	push	0
	call	_kb_yylex
	add	esp, 4
	mov	DWORD PTR _tok, eax
	jmp	$LL85@read_edges
$LN26@read_edges:

; 2857 :            else if ( globals(yylval.i)->flags & QUANTITY_NAME )

	cmp	edx, 268435456				; 10000000H
	jne	SHORT $LN185@read_edges
	mov	edx, DWORD PTR _web+5652
	lea	eax, DWORD PTR [edx+eax*4]
	mov	eax, DWORD PTR [eax+edi]
	jmp	SHORT $LN182@read_edges
$LN185@read_edges:
	cmp	edx, 805306368				; 30000000H
	jne	SHORT $LN183@read_edges
	mov	ecx, DWORD PTR _localbase
	imul	eax, 224				; 000000e0H
	add	eax, DWORD PTR [ecx]
	jmp	SHORT $LN182@read_edges
$LN183@read_edges:
	cmp	edx, 536870912				; 20000000H
	jne	SHORT $LN181@read_edges
	mov	edx, DWORD PTR _web+5656
	mov	eax, DWORD PTR [edx+eax*4]
	jmp	SHORT $LN182@read_edges
$LN181@read_edges:
	mov	ecx, DWORD PTR _web+5652
	lea	edx, DWORD PTR [ecx+eax*4]
	mov	eax, DWORD PTR [edx+edi]
$LN182@read_edges:
	test	BYTE PTR [eax+192], -128		; ffffff80H
	je	SHORT $LN24@read_edges

; 2858 :               apply_quantity(elist[k],yylval.i);

	mov	eax, DWORD PTR _elist
	mov	ecx, DWORD PTR [eax+ebx*4]
	push	esi
	push	ecx
	call	_apply_quantity
	add	esp, 8
	push	0
	call	_kb_yylex
	add	esp, 4
	mov	DWORD PTR _tok, eax
	jmp	$LL85@read_edges
$LN24@read_edges:

; 2859 :            else
; 2860 :             { sprintf(errmsg,"Illegal use of identifier '%s'.\n",yytext);

	mov	edx, DWORD PTR _yytext
	push	edx
	push	OFFSET ??_C@_0CB@LOIAMNAG@Illegal?5use?5of?5identifier?5?8?$CFs?8?4?6@
	push	OFFSET _errmsg
	call	_sprintf

; 2861 :               kb_error(1141,yytext,DATAFILE_ERROR);

	mov	eax, DWORD PTR _yytext
	push	6
	push	eax
	push	1141					; 00000475H
	call	_kb_error
	add	esp, 24					; 00000018H
	push	0
	call	_kb_yylex
	add	esp, 4
	mov	DWORD PTR _tok, eax
	jmp	$LL85@read_edges
$LN16@read_edges:

; 2882 :            break;
; 2883 :         }
; 2884 : 
; 2885 :         case QUANTITY_TOK:
; 2886 :         /* see if quantity */
; 2887 :         tok = yylex();

	push	0
	call	_kb_yylex

; 2888 :         if ( tok == QUANTITY_NAME_TOK )
; 2889 :         { /* have named quantity/method pair */
; 2890 :           char qname[32];
; 2891 :           int qnum = yylval.i;
; 2892 :           
; 2893 :           strncpy(qname,yytext,sizeof(qname));

	mov	ecx, DWORD PTR _yytext
	add	esp, 4
	mov	DWORD PTR _tok, eax
	cmp	eax, 336				; 00000150H
	jne	SHORT $LN15@read_edges
	mov	esi, DWORD PTR _yylval
	push	32					; 00000020H
	push	ecx
	lea	edx, DWORD PTR _qname$90942[ebp]
	push	edx
	call	_strncpy

; 2894 :           tok = yylex();

	push	0
	call	_kb_yylex
	add	esp, 16					; 00000010H
	mov	DWORD PTR _tok, eax

; 2895 :           if ( tok == '-' || tok == UMINUS_TOK )

	cmp	eax, 45					; 0000002dH
	je	SHORT $LN13@read_edges
	cmp	eax, 287				; 0000011fH
	je	SHORT $LN13@read_edges

; 2898 :           }
; 2899 :           else 
; 2900 :             apply_quantity(elist[k],qnum);

	mov	eax, DWORD PTR _elist
	mov	ecx, DWORD PTR [eax+ebx*4]
	push	esi
	push	ecx
	call	_apply_quantity
	add	esp, 8
	jmp	$LL85@read_edges
$LN13@read_edges:

; 2896 :           { apply_quantity(inverse_id(elist[k]),qnum);

	mov	edx, DWORD PTR _elist
	mov	eax, DWORD PTR [edx+ebx*4]
	xor	eax, 134217728				; 08000000H
	push	esi
	push	eax
	call	_apply_quantity

; 2897 :             tok = yylex();

	push	0
	call	_kb_yylex
	add	esp, 12					; 0000000cH
	mov	DWORD PTR _tok, eax
	jmp	$LL85@read_edges
$LN15@read_edges:

; 2901 :         }
; 2902 :         else 
; 2903 :         { sprintf(errmsg,"Undefined quantity: %s\n",yytext);

	push	ecx
	push	OFFSET ??_C@_0BI@JFIOCEAN@Undefined?5quantity?3?5?$CFs?6?$AA@
	push	OFFSET _errmsg
	call	_sprintf

; 2904 :           kb_error(1144,errmsg,DATAFILE_ERROR);

	push	6
	push	OFFSET _errmsg
	push	1144					; 00000478H
	call	_kb_error
	add	esp, 24					; 00000018H

; 2905 :         }
; 2906 :         break;

	jmp	$LL85@read_edges
$LN10@read_edges:

; 2907 : 
; 2908 :         case ENERGY_TOK:
; 2909 :         /* obsolete surface energy */
; 2910 :            kb_error(1147,
; 2911 :   "'Energy' obsolete. Implement edge integral energy with named quantity.\n",
; 2912 :             DATAFILE_ERROR);

	push	6
	push	OFFSET ??_C@_0EI@HNEECJIN@?8Energy?8?5obsolete?4?5Implement?5edg@
	push	1147					; 0000047bH
	call	_kb_error
	add	esp, 12					; 0000000cH

; 2913 :            break;

	jmp	$LL85@read_edges
$LN188@read_edges:

; 2672 :     /* check attributes */
; 2673 :     for ( more_attr = 1; more_attr ; )
; 2674 :        switch ( tok )

	cmp	eax, 35084				; 0000890cH
	jg	$LN189@read_edges
	je	$LN8@read_edges
	cmp	eax, 566				; 00000236H
	je	$LN81@read_edges
	cmp	eax, 35024				; 000088d0H
	jne	$LN7@read_edges

; 2862 :             }
; 2863 :            tok = yylex();
; 2864 :            break;
; 2865 : 
; 2866 :         case METHOD_TOK:  /* apply method instance to edge */
; 2867 :            tok = yylex();

	push	0
	call	_kb_yylex
	add	esp, 4
	mov	DWORD PTR _tok, eax

; 2868 :            if ( tok != METHOD_NAME_TOK )

	cmp	eax, 414				; 0000019eH
	je	SHORT $LN21@read_edges

; 2869 :            { kb_error(1950,"Missing method instance name.\n",DATAFILE_ERROR);

	push	6
	push	OFFSET ??_C@_0BP@MGOCAHJG@Missing?5method?5instance?5name?4?6?$AA@
	push	1950					; 0000079eH
	call	_kb_error
	add	esp, 12					; 0000000cH

; 2870 :              break;

	jmp	$LL85@read_edges
$LN21@read_edges:

; 2871 :            }
; 2872 :            // else fall through to METHOD_NAME_TOK
; 2873 : 
; 2874 :         case METHOD_NAME_TOK:
; 2875 :         { int qnum = yylval.i;      

	mov	esi, DWORD PTR _yylval

; 2876 :            tok = yylex();

	push	0
	call	_kb_yylex
	add	esp, 4
	mov	DWORD PTR _tok, eax

; 2877 :            if ( tok == UMINUS_TOK  || tok == '-' )

	cmp	eax, 287				; 0000011fH
	je	SHORT $LN18@read_edges
	cmp	eax, 45					; 0000002dH
	je	SHORT $LN18@read_edges

; 2880 :            }
; 2881 :            else apply_method_num(elist[k],qnum);

	mov	edx, DWORD PTR _elist
	mov	eax, DWORD PTR [edx+ebx*4]
	push	esi
	push	eax
	call	_apply_method_num
	add	esp, 8
	jmp	$LL85@read_edges
$LN18@read_edges:

; 2878 :            { apply_method_num(inverse_id(elist[k]),qnum);

	mov	ecx, DWORD PTR _elist
	mov	edx, DWORD PTR [ecx+ebx*4]
	xor	edx, 134217728				; 08000000H
	push	esi
	push	edx
	call	_apply_method_num

; 2879 :              tok = yylex();

	push	0
	call	_kb_yylex
	add	esp, 12					; 0000000cH
	mov	DWORD PTR _tok, eax
	jmp	$LL85@read_edges
$LN81@read_edges:

; 2675 :           {
; 2676 :                case EXTRA_ATTRIBUTE_TOK:
; 2677 :                case ARRAY_ATTRIBUTE_TOK:
; 2678 :                   if ( yylval.etype != EDGE )

	mov	eax, DWORD PTR _yylval+24
	cmp	eax, 1
	je	SHORT $LN80@read_edges

; 2679 :                   { sprintf(errmsg,"'%s' is a %s attribute, not an edge attribute.\n",
; 2680 :                         yytext,typenames[yylval.etype]);

	mov	eax, DWORD PTR _typenames[eax*4]
	mov	ecx, DWORD PTR _yytext
	push	eax
	push	ecx
	push	OFFSET ??_C@_0DA@JHENGICO@?8?$CFs?8?5is?5a?5?$CFs?5attribute?0?5not?5an?5e@
	push	OFFSET _errmsg
	call	_sprintf

; 2681 :                     kb_error(4320,errmsg,DATAFILE_ERROR);

	push	6
	push	OFFSET _errmsg
	push	4320					; 000010e0H
	call	_kb_error
	add	esp, 28					; 0000001cH
$LN80@read_edges:

; 2682 :                   }
; 2683 :                   read_extra(elist[k],yylval.qnum);

	mov	edx, DWORD PTR _yylval+4
	mov	eax, DWORD PTR _elist
	mov	ecx, DWORD PTR [eax+ebx*4]
	push	edx
	push	ecx
	call	_read_extra
	add	esp, 8

; 2684 :                   break;

	jmp	$LL85@read_edges
$LN8@read_edges:

; 2914 : 
; 2915 :           case FACES_TOK: case BODIES_TOK: case READ_TOK: case LEAD_INTEGER_TOK: 
; 2916 :           case LEAD_INTEGER_AT_TOK:
; 2917 :           case NO_TOKEN:    more_attr = 0 ; break;  /* error recovery */
; 2918 :           case UNPUTTED_TOK: 
; 2919 :                 kb_error(3702,
; 2920 :                    "Internal error: forgot to get lookahead token.\n",
; 2921 :                        WARNING);

	push	2
	push	OFFSET ??_C@_0DA@MGFNEFND@Internal?5error?3?5forgot?5to?5get?5lo@
	push	3702					; 00000e76H
	call	_kb_error

; 2922 :                 tok = yylex();

	push	0
	call	_kb_yylex
	add	esp, 16					; 00000010H
	mov	DWORD PTR _tok, eax
	jmp	$LL85@read_edges
$LN189@read_edges:

; 2672 :     /* check attributes */
; 2673 :     for ( more_attr = 1; more_attr ; )
; 2674 :        switch ( tok )

	sub	eax, 35085				; 0000890dH
	je	SHORT $LN64@read_edges
	dec	eax
$LN316@read_edges:
	je	SHORT $LN299@read_edges
$LN7@read_edges:

; 2923 :                 break;
; 2924 :           default: 
; 2925 :               sprintf(errmsg,"Unexpected token: %s\n",yytext);

	mov	edx, DWORD PTR _yytext
	push	edx
	push	OFFSET ??_C@_0BG@BKFJJJKH@Unexpected?5token?3?5?$CFs?6?$AA@
	push	OFFSET _errmsg
	call	_sprintf

; 2926 :               kb_error(2110,errmsg,WARNING);

	push	2
	push	OFFSET _errmsg
	push	2110					; 0000083eH
	call	_kb_error

; 2927 :               tok = yylex();

	push	0
	call	_kb_yylex
	add	esp, 28					; 0000001cH
	mov	DWORD PTR _tok, eax
	jmp	$LL85@read_edges
$LN64@read_edges:

; 2740 : 
; 2741 :             case EFIXED_TOK: /* edge only, not vertices */ 
; 2742 :                    set_attr(elist[k],FIXED);  

	mov	eax, DWORD PTR _elist
	mov	eax, DWORD PTR [eax+ebx*4]
$LN314@read_edges:
	mov	ecx, eax
	shr	ecx, 29					; 0000001dH
	imul	ecx, 112				; 00000070H
	mov	edx, DWORD PTR _web[ecx+12]
	and	eax, 134217727				; 07ffffffH
	mov	eax, DWORD PTR [edx+eax*4]
	or	DWORD PTR [eax+8], 64			; 00000040H
$LN312@read_edges:
	mov	ecx, DWORD PTR [eax+12]
	mov	DWORD PTR [eax+12], ecx
$LN313@read_edges:

; 2743 :                    tok = yylex();

	push	0
	call	_kb_yylex
	add	esp, 4
	mov	DWORD PTR _tok, eax
	jmp	$LL85@read_edges
$LN299@read_edges:

; 2928 :               break;
; 2929 : 
; 2930 :        }
; 2931 : 
; 2932 :     if ( web.symmetry_flag )

	cmp	DWORD PTR _web+856, 0
	je	$LN294@read_edges

; 2933 :     {  set_edge_wrap(elist[k],wrap);

	mov	edx, DWORD PTR _elist
	mov	esi, DWORD PTR [edx+ebx*4]
	mov	eax, DWORD PTR _wrap$90697[ebp]
	test	esi, 134217728				; 08000000H
	je	SHORT $LN235@read_edges
	push	eax
	call	DWORD PTR _sym_inverse
	add	esp, 4
$LN235@read_edges:
	mov	ecx, DWORD PTR _web+124
	and	esi, 134217727				; 07ffffffH
	mov	edx, DWORD PTR [ecx+esi*4]
	mov	ecx, DWORD PTR _web+216
	mov	esi, DWORD PTR _dymem
	mov	ecx, DWORD PTR [ecx+esi+784]
	mov	DWORD PTR [edx+ecx], eax

; 2934 :        if ( (web.modeltype == QUADRATIC) && !have_mid )

	cmp	DWORD PTR _web+628, 2
	jne	$LN294@read_edges
	cmp	DWORD PTR _have_mid$90696[ebp], 0
	jne	$LN294@read_edges

; 2935 :        { /* have to adjust midpoints */
; 2936 :          REAL *x = get_coord(get_edge_midv(elist[k]));

	mov	edx, DWORD PTR _elist
	mov	eax, DWORD PTR [edx+ebx*4]
	mov	edx, DWORD PTR _dymem
	mov	ecx, DWORD PTR _web+216
	mov	ecx, DWORD PTR [ecx+edx+304]
	mov	esi, DWORD PTR _web+104
	mov	edx, DWORD PTR [esi+edx+64]
	mov	edi, DWORD PTR _web+12
	mov	DWORD PTR tv2623[ebp], edx
	mov	edx, DWORD PTR _web+124
	mov	esi, eax
	and	esi, 134217727				; 07ffffffH
	mov	esi, DWORD PTR [edx+esi*4]
	mov	esi, DWORD PTR [esi+ecx+8]
	and	esi, 134217727				; 07ffffffH
	mov	edi, DWORD PTR [edi+esi*4]
	add	edi, DWORD PTR tv2623[ebp]

; 2937 :          REAL *t = get_coord(get_edge_tailv(elist[k]));

	test	eax, 134217728				; 08000000H
	je	SHORT $LN237@read_edges
	mov	esi, DWORD PTR _web+636
	and	eax, 134217727				; 07ffffffH
	mov	eax, DWORD PTR [edx+eax*4]
	lea	eax, DWORD PTR [eax+esi*4]
	mov	eax, DWORD PTR [eax+ecx]
	jmp	SHORT $LN236@read_edges
$LN237@read_edges:
	and	eax, 134217727				; 07ffffffH
	mov	eax, DWORD PTR [edx+eax*4]
	mov	eax, DWORD PTR [ecx+eax]
$LN236@read_edges:
	mov	esi, DWORD PTR _web+12
	and	eax, 134217727				; 07ffffffH
	mov	esi, DWORD PTR [esi+eax*4]

; 2938 :          REAL h[MAXCOORD];
; 2939 :          (*sym_wrap)(get_coord(get_edge_headv(elist[k])),h,wrap);

	mov	eax, DWORD PTR _elist
	mov	eax, DWORD PTR [eax+ebx*4]
	add	esi, DWORD PTR tv2623[ebp]
	test	eax, 134217728				; 08000000H
	je	SHORT $LN241@read_edges
	and	eax, 134217727				; 07ffffffH
	mov	edx, DWORD PTR [edx+eax*4]
	mov	ecx, DWORD PTR [ecx+edx]
	jmp	SHORT $LN240@read_edges
$LN241@read_edges:
	and	eax, 134217727				; 07ffffffH
	mov	eax, DWORD PTR [edx+eax*4]
	mov	edx, DWORD PTR _web+636
	lea	eax, DWORD PTR [eax+edx*4]
	mov	ecx, DWORD PTR [eax+ecx]
$LN240@read_edges:
	mov	edx, DWORD PTR _wrap$90697[ebp]
	push	edx
	mov	edx, DWORD PTR _web+12
	lea	eax, DWORD PTR _h$90974[ebp]
	push	eax
	and	ecx, 134217727				; 07ffffffH
	mov	eax, DWORD PTR [edx+ecx*4]
	add	eax, DWORD PTR tv2623[ebp]
	push	eax
	call	DWORD PTR _sym_wrap

; 2940 :          for ( i = 0 ; i < SDIM ; i++ )

	xor	eax, eax
	add	esp, 12					; 0000000cH
	cmp	DWORD PTR _web+616, eax
	jle	SHORT $LN294@read_edges
	fld	QWORD PTR __real@3fe0000000000000
	lea	ecx, DWORD PTR _h$90974[ebp]
	mov	edx, ecx
	sub	esi, ecx
	sub	edi, edx
$LN305@read_edges:
	lea	ecx, DWORD PTR [esi+eax*8]

; 2941 :             x[i] = 0.5*(t[i] + h[i]);

	fld	QWORD PTR _h$90974[ebp+ecx]
	lea	edx, DWORD PTR [edi+eax*8]
	fadd	QWORD PTR _h$90974[ebp+eax*8]
	inc	eax
	fmul	ST(0), ST(1)
	fstp	QWORD PTR _h$90974[ebp+edx]
	cmp	eax, DWORD PTR _web+616
	jl	SHORT $LN305@read_edges

; 2940 :          for ( i = 0 ; i < SDIM ; i++ )

	fstp	ST(0)
$LN294@read_edges:

; 2942 :        }
; 2943 :     }
; 2944 :     if ((get_eattr(elist[k])&(BOUNDARY|CONSTRAINT)) == (BOUNDARY|CONSTRAINT))

	mov	eax, DWORD PTR _elist
	mov	ecx, DWORD PTR [eax+ebx*4]
	mov	edx, DWORD PTR _web+124
	and	ecx, 134217727				; 07ffffffH
	mov	eax, DWORD PTR [edx+ecx*4]
	mov	eax, DWORD PTR [eax+8]
	and	eax, 1152				; 00000480H
	xor	ecx, ecx
	cmp	eax, 1152				; 00000480H
	jne	$LL135@read_edges
	test	ecx, ecx
	jne	$LL135@read_edges

; 2945 :         kb_error(1148,"Cannot have constraint and boundary.",DATAFILE_ERROR);

	push	6
	push	OFFSET ??_C@_0CF@NGLIKJND@Cannot?5have?5constraint?5and?5bound@
	push	1148					; 0000047cH
	call	_kb_error
	add	esp, 12					; 0000000cH

; 2946 :    }

	jmp	$LL135@read_edges
$LN256@read_edges:

; 2563 :           { free_element(elist[k]);   

	mov	eax, DWORD PTR _elist
	mov	ecx, DWORD PTR [eax+ebx*4]
	push	ecx
	call	_free_element

; 2564 : 		    elist[k] = NULLID;

	mov	edx, DWORD PTR _elist
	add	esp, 4
	mov	DWORD PTR [edx+ebx*4], 0

; 2565 : 			if ( addload_flag && (vercount == 2) )

	cmp	DWORD PTR _addload_flag, 0
	je	$LN120@read_edges
	mov	edi, 2
	cmp	DWORD PTR _vercount$90714[ebp], edi
	jne	$LN120@read_edges

; 2566 : 		    { for ( i = 0 ; i < vmaxlist ; i++ )

	xor	esi, esi
	cmp	DWORD PTR _vmaxlist, esi
	jle	SHORT $LN300@read_edges
	npad	7
$LL306@read_edges:

; 2567 : 				if ( valid_element(vlist[i]) )

	mov	eax, DWORD PTR _vlist
	mov	ecx, DWORD PTR [eax+esi*4]
	push	ecx
	call	_valid_element
	add	esp, 4
	test	eax, eax
	je	SHORT $LN118@read_edges

; 2568 : 					free_element(vlist[i]);

	mov	edx, DWORD PTR _vlist
	mov	eax, DWORD PTR [edx+esi*4]
	push	eax
	call	_free_element
	add	esp, 4
$LN118@read_edges:

; 2566 : 		    { for ( i = 0 ; i < vmaxlist ; i++ )

	inc	esi
	cmp	esi, DWORD PTR _vmaxlist
	jl	SHORT $LL306@read_edges
$LN300@read_edges:

; 2569 : 			  if ( web.modeltype == QUADRATIC )
; 2570 : 				kb_error(5437,"addload datafile is linear model, but current model is quadratic.\n",
; 2571 : 				  RECOVERABLE);

	push	1
	cmp	DWORD PTR _web+628, edi
	jne	SHORT $LN115@read_edges
	push	OFFSET ??_C@_0ED@FDOHNEFP@addload?5datafile?5is?5linear?5model@
	push	5437					; 0000153dH
	call	_kb_error
	add	esp, 12					; 0000000cH
	pop	ebx
	pop	edi
	pop	esi

; 2947 : 
; 2948 : #ifdef MPI_EVOLVER
; 2949 :   myfree((char*)vdummy);
; 2950 : #endif
; 2951 : 
; 2952 : } /* end read_edges() */

	mov	ecx, DWORD PTR __$ArrayPad$[ebp]
	xor	ecx, ebp
	call	@__security_check_cookie@4
	mov	esp, ebp
	pop	ebp
	ret	0
$LN115@read_edges:

; 2572 : 			  else
; 2573 : 				kb_error(5438,"addload datafile is linear model, but current model is Lagrange.\n",
; 2574 : 				  RECOVERABLE);

	push	OFFSET ??_C@_0EC@PDLLHJBK@addload?5datafile?5is?5linear?5model@
	push	5438					; 0000153eH
	call	_kb_error
	add	esp, 12					; 0000000cH
	pop	ebx
	pop	edi
	pop	esi

; 2947 : 
; 2948 : #ifdef MPI_EVOLVER
; 2949 :   myfree((char*)vdummy);
; 2950 : #endif
; 2951 : 
; 2952 : } /* end read_edges() */

	mov	ecx, DWORD PTR __$ArrayPad$[ebp]
	xor	ecx, ebp
	call	@__security_check_cookie@4
	mov	esp, ebp
	pop	ebp
	ret	0
$LN120@read_edges:

; 2575 : 		    } 
; 2576 : 		    else
; 2577 : 			kb_error(1131,"Too few vertices for edge.\n",DATAFILE_ERROR); 

	push	6
	push	OFFSET ??_C@_0BM@OFNCGKJA@Too?5few?5vertices?5for?5edge?4?6?$AA@
	push	1131					; 0000046bH
	call	_kb_error
	add	esp, 12					; 0000000cH
	pop	ebx
	pop	edi
	pop	esi

; 2947 : 
; 2948 : #ifdef MPI_EVOLVER
; 2949 :   myfree((char*)vdummy);
; 2950 : #endif
; 2951 : 
; 2952 : } /* end read_edges() */

	mov	ecx, DWORD PTR __$ArrayPad$[ebp]
	xor	ecx, ebp
	call	@__security_check_cookie@4
	mov	esp, ebp
	pop	ebp
	ret	0
$LN257@read_edges:

; 2602 :           { sprintf(errmsg,"Edge %d: vertex %d is not defined.\n",k,yylval.i);

	push	ecx
	push	ebx
	push	OFFSET ??_C@_0CE@DKGMBMOB@Edge?5?$CFd?3?5vertex?5?$CFd?5is?5not?5define@
	push	OFFSET _errmsg
	call	_sprintf

; 2603 :             kb_error(1132,errmsg, RECOVERABLE /*DATAFILE_ERROR*/ );

	push	1
	push	OFFSET _errmsg
	push	1132					; 0000046cH
	call	_kb_error
	add	esp, 28					; 0000001cH
$LN307@read_edges:
	pop	ebx
$LN134@read_edges:

; 2947 : 
; 2948 : #ifdef MPI_EVOLVER
; 2949 :   myfree((char*)vdummy);
; 2950 : #endif
; 2951 : 
; 2952 : } /* end read_edges() */

	mov	ecx, DWORD PTR __$ArrayPad$[ebp]
	pop	edi
	xor	ecx, ebp
	pop	esi
	call	@__security_check_cookie@4
	mov	esp, ebp
	pop	ebp
	ret	0
	npad	1
$LN318@read_edges:
	DD	$LN81@read_edges
	DD	$LN27@read_edges
	DD	$LN63@read_edges
	DD	$LN299@read_edges
	DD	$LN72@read_edges
	DD	$LN70@read_edges
	DD	$LN65@read_edges
	DD	$LN34@read_edges
	DD	$LN51@read_edges
	DD	$LN31@read_edges
	DD	$LN73@read_edges
	DD	$LN61@read_edges
	DD	$LN79@read_edges
	DD	$LN21@read_edges
	DD	$LN10@read_edges
	DD	$LN75@read_edges
	DD	$LN74@read_edges
	DD	$LN76@read_edges
	DD	$LN16@read_edges
	DD	$LN7@read_edges
$LN288@read_edges:
	DB	0
	DB	19					; 00000013H
	DB	1
	DB	19					; 00000013H
	DB	19					; 00000013H
	DB	2
	DB	19					; 00000013H
	DB	19					; 00000013H
	DB	19					; 00000013H
	DB	19					; 00000013H
	DB	19					; 00000013H
	DB	19					; 00000013H
	DB	3
	DB	19					; 00000013H
	DB	19					; 00000013H
	DB	19					; 00000013H
	DB	19					; 00000013H
	DB	19					; 00000013H
	DB	19					; 00000013H
	DB	19					; 00000013H
	DB	19					; 00000013H
	DB	19					; 00000013H
	DB	4
	DB	19					; 00000013H
	DB	5
	DB	19					; 00000013H
	DB	19					; 00000013H
	DB	19					; 00000013H
	DB	19					; 00000013H
	DB	19					; 00000013H
	DB	19					; 00000013H
	DB	19					; 00000013H
	DB	19					; 00000013H
	DB	6
	DB	7
	DB	19					; 00000013H
	DB	8
	DB	19					; 00000013H
	DB	19					; 00000013H
	DB	19					; 00000013H
	DB	19					; 00000013H
	DB	19					; 00000013H
	DB	19					; 00000013H
	DB	19					; 00000013H
	DB	19					; 00000013H
	DB	19					; 00000013H
	DB	19					; 00000013H
	DB	19					; 00000013H
	DB	19					; 00000013H
	DB	19					; 00000013H
	DB	19					; 00000013H
	DB	19					; 00000013H
	DB	9
	DB	19					; 00000013H
	DB	19					; 00000013H
	DB	19					; 00000013H
	DB	19					; 00000013H
	DB	19					; 00000013H
	DB	3
	DB	19					; 00000013H
	DB	19					; 00000013H
	DB	19					; 00000013H
	DB	19					; 00000013H
	DB	19					; 00000013H
	DB	19					; 00000013H
	DB	19					; 00000013H
	DB	19					; 00000013H
	DB	19					; 00000013H
	DB	19					; 00000013H
	DB	19					; 00000013H
	DB	19					; 00000013H
	DB	19					; 00000013H
	DB	19					; 00000013H
	DB	19					; 00000013H
	DB	19					; 00000013H
	DB	19					; 00000013H
	DB	19					; 00000013H
	DB	19					; 00000013H
	DB	19					; 00000013H
	DB	19					; 00000013H
	DB	19					; 00000013H
	DB	19					; 00000013H
	DB	19					; 00000013H
	DB	19					; 00000013H
	DB	19					; 00000013H
	DB	19					; 00000013H
	DB	19					; 00000013H
	DB	19					; 00000013H
	DB	19					; 00000013H
	DB	19					; 00000013H
	DB	19					; 00000013H
	DB	19					; 00000013H
	DB	19					; 00000013H
	DB	19					; 00000013H
	DB	19					; 00000013H
	DB	19					; 00000013H
	DB	19					; 00000013H
	DB	19					; 00000013H
	DB	19					; 00000013H
	DB	19					; 00000013H
	DB	19					; 00000013H
	DB	19					; 00000013H
	DB	19					; 00000013H
	DB	19					; 00000013H
	DB	19					; 00000013H
	DB	19					; 00000013H
	DB	19					; 00000013H
	DB	19					; 00000013H
	DB	19					; 00000013H
	DB	19					; 00000013H
	DB	19					; 00000013H
	DB	19					; 00000013H
	DB	19					; 00000013H
	DB	19					; 00000013H
	DB	19					; 00000013H
	DB	10					; 0000000aH
	DB	19					; 00000013H
	DB	19					; 00000013H
	DB	19					; 00000013H
	DB	19					; 00000013H
	DB	19					; 00000013H
	DB	19					; 00000013H
	DB	19					; 00000013H
	DB	19					; 00000013H
	DB	11					; 0000000bH
	DB	12					; 0000000cH
	DB	19					; 00000013H
	DB	19					; 00000013H
	DB	19					; 00000013H
	DB	19					; 00000013H
	DB	13					; 0000000dH
	DB	19					; 00000013H
	DB	19					; 00000013H
	DB	19					; 00000013H
	DB	19					; 00000013H
	DB	19					; 00000013H
	DB	19					; 00000013H
	DB	19					; 00000013H
	DB	19					; 00000013H
	DB	19					; 00000013H
	DB	19					; 00000013H
	DB	19					; 00000013H
	DB	19					; 00000013H
	DB	19					; 00000013H
	DB	19					; 00000013H
	DB	19					; 00000013H
	DB	19					; 00000013H
	DB	19					; 00000013H
	DB	19					; 00000013H
	DB	19					; 00000013H
	DB	19					; 00000013H
	DB	19					; 00000013H
	DB	19					; 00000013H
	DB	19					; 00000013H
	DB	14					; 0000000eH
	DB	19					; 00000013H
	DB	19					; 00000013H
	DB	19					; 00000013H
	DB	19					; 00000013H
	DB	19					; 00000013H
	DB	19					; 00000013H
	DB	19					; 00000013H
	DB	19					; 00000013H
	DB	19					; 00000013H
	DB	19					; 00000013H
	DB	19					; 00000013H
	DB	19					; 00000013H
	DB	19					; 00000013H
	DB	19					; 00000013H
	DB	19					; 00000013H
	DB	19					; 00000013H
	DB	15					; 0000000fH
	DB	16					; 00000010H
	DB	19					; 00000013H
	DB	17					; 00000011H
	DB	19					; 00000013H
	DB	19					; 00000013H
	DB	19					; 00000013H
	DB	19					; 00000013H
	DB	19					; 00000013H
	DB	19					; 00000013H
	DB	19					; 00000013H
	DB	19					; 00000013H
	DB	19					; 00000013H
	DB	19					; 00000013H
	DB	19					; 00000013H
	DB	19					; 00000013H
	DB	19					; 00000013H
	DB	19					; 00000013H
	DB	19					; 00000013H
	DB	19					; 00000013H
	DB	19					; 00000013H
	DB	19					; 00000013H
	DB	19					; 00000013H
	DB	19					; 00000013H
	DB	19					; 00000013H
	DB	19					; 00000013H
	DB	19					; 00000013H
	DB	18					; 00000012H
	DB	19					; 00000013H
	DB	19					; 00000013H
	DB	19					; 00000013H
	DB	19					; 00000013H
	DB	19					; 00000013H
	DB	19					; 00000013H
	DB	19					; 00000013H
	DB	19					; 00000013H
	DB	19					; 00000013H
	DB	19					; 00000013H
	DB	19					; 00000013H
	DB	19					; 00000013H
	DB	19					; 00000013H
	DB	19					; 00000013H
	DB	19					; 00000013H
	DB	19					; 00000013H
	DB	19					; 00000013H
	DB	19					; 00000013H
	DB	19					; 00000013H
	DB	19					; 00000013H
	DB	19					; 00000013H
	DB	19					; 00000013H
	DB	19					; 00000013H
	DB	19					; 00000013H
	DB	19					; 00000013H
	DB	19					; 00000013H
	DB	19					; 00000013H
	DB	19					; 00000013H
	DB	19					; 00000013H
	DB	19					; 00000013H
	DB	19					; 00000013H
	DB	19					; 00000013H
	DB	19					; 00000013H
	DB	19					; 00000013H
	DB	19					; 00000013H
	DB	19					; 00000013H
	DB	8
	DB	11					; 0000000bH
_read_edges ENDP
_TEXT	ENDS
PUBLIC	??_C@_0DA@CHADONEE@?8?$CFs?8?5is?5a?5?$CFs?5attribute?0?5not?5a?5fa@ ; `string'
PUBLIC	??_C@_0BI@BHPPHJKA@Missing?5quantity?5name?4?6?$AA@ ; `string'
PUBLIC	??_C@_0BM@MDBJLIJJ@Surface?5energies?5obsolete?4?6?$AA@ ; `string'
PUBLIC	??_C@_0CH@LHEMMEFB@Bad?5constraint?5number?5?$CFd?5for?5fac@ ; `string'
PUBLIC	??_C@_0CG@NOPNANDI@Bad?5boundary?5number?5?$CFd?5for?5facet@ ; `string'
PUBLIC	??_C@_0BI@IHKMFJBP@Opacity?5value?5missing?4?6?$AA@ ; `string'
PUBLIC	??_C@_07IJGPCJHC@opacity?$AA@			; `string'
PUBLIC	??_C@_0BK@LANJCDLM@Backcolor?5value?5missing?4?6?$AA@ ; `string'
PUBLIC	??_C@_0BL@DELOLHDF@Frontcolor?5value?5missing?4?6?$AA@ ; `string'
PUBLIC	??_C@_0BG@OGOMJBJM@Missing?5color?5value?4?6?$AA@ ; `string'
PUBLIC	??_C@_0BG@DIEMLGNJ@Illegal?5phase?5value?4?6?$AA@ ; `string'
PUBLIC	??_C@_0BA@DKJJCAOO@Phase?5missing?4?6?$AA@	; `string'
PUBLIC	??_C@_0CI@KHMGPKDK@Phases?5on?5facets?5only?5in?5STRING?5@ ; `string'
PUBLIC	??_C@_0BH@EDLGBDIJ@Phases?5not?5in?5effect?4?6?$AA@ ; `string'
PUBLIC	??_C@_0CD@NLJGPPIJ@Missing?5DENSITY?5or?5TENSION?5value@ ; `string'
PUBLIC	??_C@_0BJ@ICLHKEOI@ORIGINAL?5value?5missing?4?6?$AA@ ; `string'
PUBLIC	??_C@_0CI@DFPGPIEE@Need?5facet?5vertices?5in?5Lagrange?5@ ; `string'
PUBLIC	??_C@_0DA@IEDFFOBH@Inconsistency?5in?5face?5?$CFd?5first?5a@ ; `string'
PUBLIC	??_C@_0BM@HAIGIAMA@Face?5?$CFd?5has?5too?5few?5edges?4?6?$AA@ ; `string'
PUBLIC	??_C@_0EN@HCKOHEMK@Inconsistency?5in?5face?5?$CFd?0?5edge?5?$CF@ ; `string'
PUBLIC	??_C@_0CD@GEOGAJGJ@Facet?5?$CFd?3?5edge?5?$CFd?5is?5not?5defined@ ; `string'
PUBLIC	??_C@_0BN@NGNHMCAM@Too?5few?5vertices?5for?5facet?4?6?$AA@ ; `string'
PUBLIC	??_C@_0CF@BHJOBNNN@Facet?5?$CFd?3?5vertex?5?$CFd?5is?5not?5defin@ ; `string'
PUBLIC	??_C@_0BO@FIGLFJNJ@Too?5many?5vertices?5for?5facet?4?6?$AA@ ; `string'
PUBLIC	??_C@_0BK@CKBCJFKD@Duplicate?5face?5number?5?$CFd?6?$AA@ ; `string'
PUBLIC	??_C@_0BP@JKCGMBJD@Face?5number?5must?5be?5positive?4?6?$AA@ ; `string'
PUBLIC	__$ArrayPad$
PUBLIC	_read_faces
EXTRN	_set_f_constraint_map:PROC
EXTRN	_F_BOUNDARY_ATTR:DWORD
EXTRN	_add_attribute:PROC
EXTRN	_F_PHASE_ATTR:DWORD
EXTRN	_phasemax:DWORD
EXTRN	_set_facet_fe:PROC
EXTRN	_msg:DWORD
EXTRN	_new_facetedge:PROC
EXTRN	_new_facet:PROC
EXTRN	_NULLFACETEDGE:DWORD
;	COMDAT ??_C@_0DA@CHADONEE@?8?$CFs?8?5is?5a?5?$CFs?5attribute?0?5not?5a?5fa@
; File c:\levolver\yonkang-sefit\levolver\ev_ogl\inline.h
CONST	SEGMENT
??_C@_0DA@CHADONEE@?8?$CFs?8?5is?5a?5?$CFs?5attribute?0?5not?5a?5fa@ DB ''''
	DB	'%s'' is a %s attribute, not a facet attribute.', 0aH, 00H ; `string'
CONST	ENDS
;	COMDAT ??_C@_0BI@BHPPHJKA@Missing?5quantity?5name?4?6?$AA@
CONST	SEGMENT
??_C@_0BI@BHPPHJKA@Missing?5quantity?5name?4?6?$AA@ DB 'Missing quantity '
	DB	'name.', 0aH, 00H				; `string'
CONST	ENDS
;	COMDAT ??_C@_0BM@MDBJLIJJ@Surface?5energies?5obsolete?4?6?$AA@
CONST	SEGMENT
??_C@_0BM@MDBJLIJJ@Surface?5energies?5obsolete?4?6?$AA@ DB 'Surface energ'
	DB	'ies obsolete.', 0aH, 00H			; `string'
CONST	ENDS
;	COMDAT ??_C@_0CH@LHEMMEFB@Bad?5constraint?5number?5?$CFd?5for?5fac@
CONST	SEGMENT
??_C@_0CH@LHEMMEFB@Bad?5constraint?5number?5?$CFd?5for?5fac@ DB 'Bad cons'
	DB	'traint number %d for face %d.', 0aH, 00H	; `string'
CONST	ENDS
;	COMDAT ??_C@_0CG@NOPNANDI@Bad?5boundary?5number?5?$CFd?5for?5facet@
CONST	SEGMENT
??_C@_0CG@NOPNANDI@Bad?5boundary?5number?5?$CFd?5for?5facet@ DB 'Bad boun'
	DB	'dary number %d for facet %d.', 0aH, 00H	; `string'
CONST	ENDS
;	COMDAT ??_C@_0BI@IHKMFJBP@Opacity?5value?5missing?4?6?$AA@
CONST	SEGMENT
??_C@_0BI@IHKMFJBP@Opacity?5value?5missing?4?6?$AA@ DB 'Opacity value mis'
	DB	'sing.', 0aH, 00H				; `string'
CONST	ENDS
;	COMDAT ??_C@_07IJGPCJHC@opacity?$AA@
CONST	SEGMENT
??_C@_07IJGPCJHC@opacity?$AA@ DB 'opacity', 00H		; `string'
CONST	ENDS
;	COMDAT ??_C@_0BK@LANJCDLM@Backcolor?5value?5missing?4?6?$AA@
CONST	SEGMENT
??_C@_0BK@LANJCDLM@Backcolor?5value?5missing?4?6?$AA@ DB 'Backcolor value'
	DB	' missing.', 0aH, 00H			; `string'
CONST	ENDS
;	COMDAT ??_C@_0BL@DELOLHDF@Frontcolor?5value?5missing?4?6?$AA@
CONST	SEGMENT
??_C@_0BL@DELOLHDF@Frontcolor?5value?5missing?4?6?$AA@ DB 'Frontcolor val'
	DB	'ue missing.', 0aH, 00H			; `string'
CONST	ENDS
;	COMDAT ??_C@_0BG@OGOMJBJM@Missing?5color?5value?4?6?$AA@
CONST	SEGMENT
??_C@_0BG@OGOMJBJM@Missing?5color?5value?4?6?$AA@ DB 'Missing color value'
	DB	'.', 0aH, 00H				; `string'
CONST	ENDS
;	COMDAT ??_C@_0BG@DIEMLGNJ@Illegal?5phase?5value?4?6?$AA@
CONST	SEGMENT
??_C@_0BG@DIEMLGNJ@Illegal?5phase?5value?4?6?$AA@ DB 'Illegal phase value'
	DB	'.', 0aH, 00H				; `string'
CONST	ENDS
;	COMDAT ??_C@_0BA@DKJJCAOO@Phase?5missing?4?6?$AA@
CONST	SEGMENT
??_C@_0BA@DKJJCAOO@Phase?5missing?4?6?$AA@ DB 'Phase missing.', 0aH, 00H ; `string'
CONST	ENDS
;	COMDAT ??_C@_0CI@KHMGPKDK@Phases?5on?5facets?5only?5in?5STRING?5@
CONST	SEGMENT
??_C@_0CI@KHMGPKDK@Phases?5on?5facets?5only?5in?5STRING?5@ DB 'Phases on '
	DB	'facets only in STRING model.', 0aH, 00H	; `string'
CONST	ENDS
;	COMDAT ??_C@_0BH@EDLGBDIJ@Phases?5not?5in?5effect?4?6?$AA@
CONST	SEGMENT
??_C@_0BH@EDLGBDIJ@Phases?5not?5in?5effect?4?6?$AA@ DB 'Phases not in eff'
	DB	'ect.', 0aH, 00H				; `string'
CONST	ENDS
;	COMDAT ??_C@_0CD@NLJGPPIJ@Missing?5DENSITY?5or?5TENSION?5value@
CONST	SEGMENT
??_C@_0CD@NLJGPPIJ@Missing?5DENSITY?5or?5TENSION?5value@ DB 'Missing DENS'
	DB	'ITY or TENSION value.', 0aH, 00H		; `string'
CONST	ENDS
;	COMDAT ??_C@_0BJ@ICLHKEOI@ORIGINAL?5value?5missing?4?6?$AA@
CONST	SEGMENT
??_C@_0BJ@ICLHKEOI@ORIGINAL?5value?5missing?4?6?$AA@ DB 'ORIGINAL value m'
	DB	'issing.', 0aH, 00H				; `string'
CONST	ENDS
;	COMDAT ??_C@_0CI@DFPGPIEE@Need?5facet?5vertices?5in?5Lagrange?5@
CONST	SEGMENT
??_C@_0CI@DFPGPIEE@Need?5facet?5vertices?5in?5Lagrange?5@ DB 'Need facet '
	DB	'vertices in Lagrange model.', 0aH, 00H	; `string'
CONST	ENDS
;	COMDAT ??_C@_0DA@IEDFFOBH@Inconsistency?5in?5face?5?$CFd?5first?5a@
CONST	SEGMENT
??_C@_0DA@IEDFFOBH@Inconsistency?5in?5face?5?$CFd?5first?5a@ DB 'Inconsis'
	DB	'tency in face %d first and last edges.', 0aH, 00H ; `string'
CONST	ENDS
;	COMDAT ??_C@_0BM@HAIGIAMA@Face?5?$CFd?5has?5too?5few?5edges?4?6?$AA@
CONST	SEGMENT
??_C@_0BM@HAIGIAMA@Face?5?$CFd?5has?5too?5few?5edges?4?6?$AA@ DB 'Face %d'
	DB	' has too few edges.', 0aH, 00H		; `string'
CONST	ENDS
;	COMDAT ??_C@_0EN@HCKOHEMK@Inconsistency?5in?5face?5?$CFd?0?5edge?5?$CF@
CONST	SEGMENT
??_C@_0EN@HCKOHEMK@Inconsistency?5in?5face?5?$CFd?0?5edge?5?$CF@ DB 'Inco'
	DB	'nsistency in face %d, edge %d tail vertex disagrees with prev'
	DB	'ious head.', 0aH, 00H			; `string'
CONST	ENDS
;	COMDAT ??_C@_0CD@GEOGAJGJ@Facet?5?$CFd?3?5edge?5?$CFd?5is?5not?5defined@
CONST	SEGMENT
??_C@_0CD@GEOGAJGJ@Facet?5?$CFd?3?5edge?5?$CFd?5is?5not?5defined@ DB 'Fac'
	DB	'et %d: edge %d is not defined.', 0aH, 00H	; `string'
CONST	ENDS
;	COMDAT ??_C@_0BN@NGNHMCAM@Too?5few?5vertices?5for?5facet?4?6?$AA@
CONST	SEGMENT
??_C@_0BN@NGNHMCAM@Too?5few?5vertices?5for?5facet?4?6?$AA@ DB 'Too few ve'
	DB	'rtices for facet.', 0aH, 00H		; `string'
CONST	ENDS
;	COMDAT ??_C@_0CF@BHJOBNNN@Facet?5?$CFd?3?5vertex?5?$CFd?5is?5not?5defin@
CONST	SEGMENT
??_C@_0CF@BHJOBNNN@Facet?5?$CFd?3?5vertex?5?$CFd?5is?5not?5defin@ DB 'Fac'
	DB	'et %d: vertex %d is not defined.', 0aH, 00H	; `string'
CONST	ENDS
;	COMDAT ??_C@_0BO@FIGLFJNJ@Too?5many?5vertices?5for?5facet?4?6?$AA@
CONST	SEGMENT
??_C@_0BO@FIGLFJNJ@Too?5many?5vertices?5for?5facet?4?6?$AA@ DB 'Too many '
	DB	'vertices for facet.', 0aH, 00H		; `string'
CONST	ENDS
;	COMDAT ??_C@_0BK@CKBCJFKD@Duplicate?5face?5number?5?$CFd?6?$AA@
CONST	SEGMENT
??_C@_0BK@CKBCJFKD@Duplicate?5face?5number?5?$CFd?6?$AA@ DB 'Duplicate fa'
	DB	'ce number %d', 0aH, 00H			; `string'
CONST	ENDS
;	COMDAT ??_C@_0BP@JKCGMBJD@Face?5number?5must?5be?5positive?4?6?$AA@
CONST	SEGMENT
??_C@_0BP@JKCGMBJD@Face?5number?5must?5be?5positive?4?6?$AA@ DB 'Face num'
	DB	'ber must be positive.', 0aH, 00H		; `string'
; Function compile flags: /Ogtp
; File c:\levolver\yonkang-sefit\levolver\ev_ogl\lexinit.c
CONST	ENDS
;	COMDAT _read_faces
_TEXT	SEGMENT
_value$ = -180						; size = 8
_first_fe$91057 = -172					; size = 4
tv2739 = -168						; size = 4
_one$91219 = -168					; size = 4
_e$ = -168						; size = 4
_old_fe$ = -164						; size = 4
tv2604 = -160						; size = 4
_tt$91084 = -160					; size = 4
_hh$91069 = -160					; size = 4
_numv$ = -156						; size = 4
tv2708 = -152						; size = 4
_e_id$91061 = -152					; size = 4
_k$ = -148						; size = 4
_vercount$91090 = -144					; size = 4
_vercount$91037 = -144					; size = 4
_edge_count$91016 = -144				; size = 4
_this_facet_id$ = -140					; size = 4
_name$91301 = -136					; size = 100
_qname$91310 = -36					; size = 32
__$ArrayPad$ = -4					; size = 4
_read_faces PROC					; COMDAT

; 2966 : {

	push	ebp
	mov	ebp, esp
	sub	esp, 180				; 000000b4H
	mov	eax, DWORD PTR ___security_cookie
	xor	eax, ebp
	mov	DWORD PTR __$ArrayPad$[ebp], eax

; 2967 :   int i,k;
; 2968 :   int e;
; 2969 :   facetedge_id old_fe;
; 2970 :   facet_id this_facet_id;
; 2971 :   int cnum,bnum;
; 2972 :   struct constraint *constr;
; 2973 :   REAL value;  /* for constant expression values */
; 2974 :   int numv; /* vertices to read with facet */
; 2975 : #ifdef MPI_EVOLVER
; 2976 :   struct element *vdummy = (struct element *)mycalloc(web.sizes[VERTEX],1);
; 2977 :   struct element *edummy = (struct element *)mycalloc(web.sizes[EDGE],1);
; 2978 :   int facet_task,edge_task;
; 2979 :   int split_loop_flag = 0; /* string, set if task number of any edge is foreign */
; 2980 : #endif
; 2981 : 
; 2982 :   /* optional attributes */
; 2983 :   EXTRAS(EDGE)[F_NORMAL_ATTR].array_spec.sizes[0] = SDIM;

	mov	eax, DWORD PTR _dymem
	mov	ecx, DWORD PTR _web+616
	mov	edx, DWORD PTR _web+216

; 2984 :   expand_attribute(FACET,F_VERTICES_ATTR,&web.skel[FACET].ctrlpts);

	push	OFFSET _web+232
	push	1
	push	2
	mov	DWORD PTR [edx+eax+576], ecx
	call	_expand_attribute

; 2985 : 
; 2986 :   if ( web.representation == SIMPLEX )

	mov	eax, 3
	add	esp, 12					; 0000000cH
	cmp	DWORD PTR _web+624, eax
	jne	SHORT $LN146@read_faces

; 2987 :   { if ( web.modeltype == LAGRANGE )

	cmp	DWORD PTR _web+628, eax
	jne	SHORT $LN145@read_faces

; 2988 :         numv = binom_coeff(web.lagrange_order+web.dimension,web.dimension); 

	mov	eax, DWORD PTR _web+620
	mov	ecx, DWORD PTR _web+632
	push	eax
	add	ecx, eax
	push	ecx
	call	_binom_coeff
	add	esp, 8
	mov	DWORD PTR _numv$[ebp], eax
	jmp	SHORT $LN140@read_faces
$LN145@read_faces:

; 2989 :     else numv = web.dimension;

	mov	edx, DWORD PTR _web+620
	mov	DWORD PTR _numv$[ebp], edx

; 2990 :   }
; 2991 :   else if ( web.modeltype == LAGRANGE )

	jmp	SHORT $LN140@read_faces
$LN146@read_faces:
	cmp	DWORD PTR _web+628, eax
	jne	SHORT $LN142@read_faces

; 2992 :   { numv = binom_coeff(web.lagrange_order+web.dimension,web.dimension);

	mov	eax, DWORD PTR _web+620
	mov	ecx, DWORD PTR _web+632
	push	eax
	add	ecx, eax
	push	ecx
	call	_binom_coeff
	add	esp, 8
	mov	DWORD PTR _numv$[ebp], eax
	jmp	SHORT $LN140@read_faces
$LN142@read_faces:

; 2993 :   }
; 2994 :   else if ( web.modeltype == QUADRATIC ) numv = 0;

	mov	DWORD PTR _numv$[ebp], 0
$LN140@read_faces:

; 2995 :   else numv = 0;
; 2996 : 
; 2997 :   /* read in faces */
; 2998 :   fmaxlist = MAXLIST;
; 2999 :   flist = (facet_id *)mycalloc(sizeof(facet_id),fmaxlist);

	push	2999					; 00000bb7H
	push	OFFSET ??_C@_09JGPPFAML@LEXINIT?4C?$AA@
	push	100					; 00000064H
	push	4
	mov	DWORD PTR _fmaxlist, 100		; 00000064H
	call	_kb_calloc

; 3000 : 
; 3001 :   tok = yylex();

	push	0
	mov	DWORD PTR _flist, eax
	call	_kb_yylex
	add	esp, 20					; 00000014H
	push	ebx
	push	esi
	mov	DWORD PTR _tok, eax
	push	edi
$LL138@read_faces:

; 3002 :   while ( (tok == LEAD_INTEGER_TOK) || (tok == LEAD_INTEGER_AT_TOK) )

	mov	eax, DWORD PTR _tok
	cmp	eax, 264				; 00000108H
	je	SHORT $LN136@read_faces
	cmp	eax, 549				; 00000225H
	jne	$LN137@read_faces
$LN136@read_faces:

; 3003 :   { int more_attr;
; 3004 :     int edge_count = 0;
; 3005 : 
; 3006 : 
; 3007 :     #ifdef MPI_EVOLVER
; 3008 :     /* test task number, for MPI */
; 3009 :     if ( tok == LEAD_INTEGER_TOK )
; 3010 :        facet_task = 1;  /* default to task 1 */
; 3011 :     else facet_task = yylval.qnum;
; 3012 :     if ( facet_task >= mpi_nprocs || facet_task < 1 )
; 3013 :     { sprintf(errmsg,"Task number %d must be between 1 and %d\n",
; 3014 :          facet_task,mpi_nprocs-1);
; 3015 :       kb_error(5009,errmsg,RECOVERABLE);
; 3016 :     }
; 3017 :     if ( facet_task != this_task )
; 3018 :     { /* skip this facet */
; 3019 :       int flag = 0;
; 3020 :       while ( !flag ) 
; 3021 :       { tok = yylex();
; 3022 :         switch (tok)
; 3023 :         { case LEAD_INTEGER_TOK: 
; 3024 :           case LEAD_INTEGER_AT_TOK:
; 3025 :           case BODIES_TOK:
; 3026 :           case READ_TOK:
; 3027 :           case 0:
; 3028 :             flag = 1;
; 3029 :             break;
; 3030 :         }
; 3031 :       }
; 3032 :       continue;  /* next facet */
; 3033 :     }
; 3034 :     #endif
; 3035 :     
; 3036 :     k = yylval.i;

	mov	edi, DWORD PTR _yylval
	xor	ebx, ebx
	mov	DWORD PTR _edge_count$91016[ebp], ebx
	mov	DWORD PTR _k$[ebp], edi

; 3037 :     if ( k < 1 ) 

	cmp	edi, 1
	jge	SHORT $LN345@read_faces

; 3038 :         kb_error(2111,"Face number must be positive.\n",DATAFILE_ERROR);

	push	6
	push	OFFSET ??_C@_0BP@JKCGMBJD@Face?5number?5must?5be?5positive?4?6?$AA@
	push	2111					; 0000083fH
	call	_kb_error
	add	esp, 12					; 0000000cH
$LN345@read_faces:

; 3039 :     old_fe = NULLFACETEDGE;
; 3040 : 
; 3041 :     {
; 3042 :       if ( k >= fmaxlist )

	mov	eax, DWORD PTR _fmaxlist
	mov	edx, DWORD PTR _NULLFACETEDGE
	mov	DWORD PTR _old_fe$[ebp], edx
	cmp	edi, eax
	jl	SHORT $LN341@read_faces

; 3043 :       { int spot = fmaxlist;

	mov	esi, eax
	npad	2
$LL133@read_faces:

; 3044 :         while ( k >= fmaxlist )
; 3045 :           fmaxlist *= 2;

	add	eax, eax
	cmp	edi, eax
	jge	SHORT $LL133@read_faces

; 3046 :         flist = (facet_id *)kb_realloc((char *)flist,
; 3047 :                               fmaxlist*sizeof(facet_id));

	mov	ecx, DWORD PTR _flist
	mov	DWORD PTR _fmaxlist, eax
	push	3047					; 00000be7H
	add	eax, eax
	push	OFFSET ??_C@_09JGPPFAML@LEXINIT?4C?$AA@
	add	eax, eax
	push	eax
	push	ecx
	call	_KB_realloc
	add	esp, 16					; 00000010H
	mov	DWORD PTR _flist, eax

; 3048 :         for ( ; spot < fmaxlist ; spot++ ) flist[spot] = NULLID;

	cmp	esi, DWORD PTR _fmaxlist
	jge	SHORT $LN341@read_faces
$LL340@read_faces:
	mov	edx, DWORD PTR _flist
	mov	DWORD PTR [edx+esi*4], ebx
	inc	esi
	cmp	esi, DWORD PTR _fmaxlist
	jl	SHORT $LL340@read_faces
	xor	ebx, ebx
$LN341@read_faces:

; 3049 :       }
; 3050 :       if ( valid_id(flist[k]) )

	mov	eax, DWORD PTR _flist
	test	DWORD PTR [eax+edi*4], 268435456	; 10000000H
	je	SHORT $LN346@read_faces

; 3051 :       { sprintf(errmsg,"Duplicate face number %d\n",k);

	push	edi
	push	OFFSET ??_C@_0BK@CKBCJFKD@Duplicate?5face?5number?5?$CFd?6?$AA@
	push	OFFSET _errmsg
	call	_sprintf

; 3052 :         kb_error(1152,errmsg,DATAFILE_ERROR);

	push	6
	push	OFFSET _errmsg
	push	1152					; 00000480H
	call	_kb_error
	add	esp, 24					; 00000018H
$LN346@read_faces:

; 3053 :       }
; 3054 :   
; 3055 :       move_to_free_front(FACET,k); /* so id will be k */

	push	edi
	push	2
	call	_move_to_free_front
	add	esp, 8

; 3056 :       flist[k] = new_facet();

	call	_new_facet
	mov	ecx, DWORD PTR _flist
	mov	DWORD PTR [ecx+edi*4], eax

; 3057 :       set_original(flist[k],(k-1)|((element_id)FACET<<TYPESHIFT)|VALIDMASK);

	mov	edx, DWORD PTR _flist
	mov	eax, DWORD PTR [edx+edi*4]
	mov	edx, eax
	shr	edx, 29					; 0000001dH
	imul	edx, 112				; 00000070H
	mov	edx, DWORD PTR _web[edx+12]
	and	eax, 134217727				; 07ffffffH
	mov	eax, DWORD PTR [edx+eax*4]
	lea	ecx, DWORD PTR [edi-1]
	or	ecx, 1342177280				; 50000000H
	mov	DWORD PTR [eax+20], ecx

; 3058 :       this_facet_id = flist[k];
; 3059 :     }
; 3060 : 
; 3061 : 
; 3062 :     if ( web.representation == SIMPLEX )

	cmp	DWORD PTR _web+624, 3
	mov	ecx, DWORD PTR _flist
	mov	esi, DWORD PTR [ecx+edi*4]
	mov	DWORD PTR _this_facet_id$[ebp], esi

; 3066 :       while ( (tok = gettok(INTEGER_TOK)) == INTEGER_TOK )

	push	265					; 00000109H
	jne	$LN127@read_faces

; 3063 :     { /* read vertex list */
; 3064 :       int vercount = 0;
; 3065 :       vertex_id *v = get_facet_vertices(this_facet_id);

	mov	edx, DWORD PTR _web+236
	mov	eax, DWORD PTR _dymem
	mov	ecx, DWORD PTR _web+328
	and	esi, 134217727				; 07ffffffH
	add	esi, esi
	mov	DWORD PTR _vercount$91037[ebp], ebx
	add	esi, esi
	mov	ebx, DWORD PTR [esi+edx]
	add	ebx, DWORD PTR [ecx+eax+304]

; 3066 :       while ( (tok = gettok(INTEGER_TOK)) == INTEGER_TOK )

	call	_gettok
	add	esp, 4
	mov	DWORD PTR _tok, eax
	cmp	eax, 265				; 00000109H
	jne	$LN347@read_faces
$LL126@read_faces:

; 3067 :       { if ( vercount++ > numv )

	mov	eax, DWORD PTR _vercount$91037[ebp]
	mov	edx, eax
	inc	eax
	mov	DWORD PTR _vercount$91037[ebp], eax
	cmp	edx, DWORD PTR _numv$[ebp]
	jle	SHORT $LN124@read_faces

; 3068 :           kb_error(1153,"Too many vertices for facet.\n",DATAFILE_ERROR);

	push	6
	push	OFFSET ??_C@_0BO@FIGLFJNJ@Too?5many?5vertices?5for?5facet?4?6?$AA@
	push	1153					; 00000481H
	call	_kb_error
	add	esp, 12					; 0000000cH
$LN124@read_faces:

; 3069 : #ifdef MPI_EVOLVER
; 3070 :         if ( yylval.qnum == 0 )
; 3071 :              yylval.qnum = 1;
; 3072 :         if ( yylval.qnum >= mpi_nprocs )
; 3073 :         { sprintf(errmsg,"Task number %d exceeds number of tasks running, %d\n",
; 3074 :              yylval.qnum,mpi_nprocs-1);
; 3075 :           kb_error(5010,errmsg,RECOVERABLE);
; 3076 :         }
; 3077 :         if ( yylval.qnum != this_task )
; 3078 :         { *v = ((element_id)VERTEX << TYPESHIFT) | VALIDMASK | 
; 3079 :              (yylval.i-1) | ((element_id)yylval.qnum << TASK_ID_SHIFT);  
; 3080 :           memset(vdummy,0,web.sizes[VERTEX]);
; 3081 :           vdummy->self_id = *v;
; 3082 :           vdummy->attr = ALLOCATED|NEWELEMENT;
; 3083 :           mpi_add_remote_element(vdummy);
; 3084 :           v++;
; 3085 :         }
; 3086 :         else
; 3087 : #endif
; 3088 :         if ( (yylval.i >= vmaxlist) || !valid_id(vlist[yylval.i]) )

	mov	eax, DWORD PTR _yylval
	cmp	eax, DWORD PTR _vmaxlist
	jge	SHORT $LN122@read_faces
	mov	ecx, DWORD PTR _vlist
	mov	ecx, DWORD PTR [ecx+eax*4]
	test	ecx, 268435456				; 10000000H
	je	SHORT $LN122@read_faces

; 3091 :         }
; 3092 :         else 
; 3093 :           *(v++) = vlist[yylval.i];

	mov	DWORD PTR [ebx], ecx
	add	ebx, 4
	jmp	SHORT $LN121@read_faces
$LN122@read_faces:

; 3089 :         { sprintf(errmsg,"Facet %d: vertex %d is not defined.\n",k,yylval.i);

	push	eax
	push	edi
	push	OFFSET ??_C@_0CF@BHJOBNNN@Facet?5?$CFd?3?5vertex?5?$CFd?5is?5not?5defin@
	push	OFFSET _errmsg
	call	_sprintf

; 3090 :           kb_error(1154,errmsg,RECOVERABLE /*DATAFILE_ERROR*/);

	push	1
	push	OFFSET _errmsg
	push	1154					; 00000482H
	call	_kb_error
	add	esp, 28					; 0000001cH
$LN121@read_faces:

; 3066 :       while ( (tok = gettok(INTEGER_TOK)) == INTEGER_TOK )

	push	265					; 00000109H
	call	_gettok
	add	esp, 4
	mov	DWORD PTR _tok, eax
	cmp	eax, 265				; 00000109H
	je	$LL126@read_faces
$LN347@read_faces:

; 3094 :       }
; 3095 :       if ( vercount < numv )

	mov	edx, DWORD PTR _vercount$91037[ebp]
	cmp	edx, DWORD PTR _numv$[ebp]
	jge	$LN94@read_faces

; 3096 :         kb_error(1155,"Too few vertices for facet.\n",DATAFILE_ERROR);

	push	6
