; Listing generated by Microsoft (R) Optimizing Compiler Version 16.00.40219.01 

	TITLE	C:\levolver\yonkang-sefit\levolver\ev_ogl\LEXYY.C
	.686P
	.XMM
	include listing.inc
	.model	flat

INCLUDELIB LIBCMT
INCLUDELIB OLDNAMES

PUBLIC	??_C@_0M@FKBLKCGO@where_count?$AA@		; `string'
PUBLIC	??_C@_09NANCMDLE@pop_count?$AA@			; `string'
PUBLIC	??_C@_0P@JACOHDHP@dissolve_count?$AA@		; `string'
PUBLIC	??_C@_0M@KEDMJLF@notch_count?$AA@		; `string'
PUBLIC	??_C@_0N@BGIPOCMC@refine_count?$AA@		; `string'
PUBLIC	??_C@_0N@MDBAOLCA@delete_count?$AA@		; `string'
PUBLIC	??_C@_0L@MMIEKJIF@equi_count?$AA@		; `string'
PUBLIC	??_C@_0BA@FLAJOIPD@hessian_epsilon?$AA@		; `string'
PUBLIC	??_C@_0N@PMIPBODO@total_length?$AA@		; `string'
PUBLIC	??_C@_0L@KNDBPLBH@total_area?$AA@		; `string'
PUBLIC	??_C@_0N@FOHOADKL@total_energy?$AA@		; `string'
PUBLIC	??_C@_0BA@KJPGFHE@facetedge_count?$AA@		; `string'
PUBLIC	??_C@_0L@BLNIGKEE@body_count?$AA@		; `string'
PUBLIC	??_C@_0M@MDEFFDDC@facet_count?$AA@		; `string'
PUBLIC	??_C@_0L@NIJKJMJB@edge_count?$AA@		; `string'
PUBLIC	??_C@_0N@HPKCIPGC@vertex_count?$AA@		; `string'
PUBLIC	??_C@_0M@FONFPPOA@scale_scale?$AA@		; `string'
PUBLIC	??_C@_0BC@OLOACPCP@iteration_counter?$AA@	; `string'
PUBLIC	??_C@_0BD@HHELJMGO@jiggle_temperature?$AA@	; `string'
PUBLIC	??_C@_09OAKPPPIB@eigenzero?$AA@			; `string'
PUBLIC	??_C@_08EPNFMFBP@eigenneg?$AA@			; `string'
PUBLIC	??_C@_08NMCKLHDA@eigenpos?$AA@			; `string'
PUBLIC	??_C@_0L@BENLKAPC@eigen_zero?$AA@		; `string'
PUBLIC	??_C@_09OPDPOHAJ@eigen_neg?$AA@			; `string'
PUBLIC	??_C@_09HMMAJFCG@eigen_pos?$AA@			; `string'
PUBLIC	??_C@_08LBHOIHHJ@pickfnum?$AA@			; `string'
PUBLIC	??_C@_08PGNOPNKJ@pickenum?$AA@			; `string'
PUBLIC	??_C@_08NBJOBAPL@pickvnum?$AA@			; `string'
PUBLIC	??_C@_0BF@GFGAKDLL@quadratic_metric_mix?$AA@	; `string'
PUBLIC	??_C@_0BC@DAHPKAPK@linear_metric_mix?$AA@	; `string'
PUBLIC	??_C@_06NLFCANPD@random?$AA@			; `string'
PUBLIC	??_C@_0M@PANFJEDO@random_seed?$AA@		; `string'
PUBLIC	??_C@_0BD@CHOAMOKA@last_hessian_scale?$AA@	; `string'
PUBLIC	??_C@_0BA@OBNGJMBG@last_eigenvalue?$AA@		; `string'
PUBLIC	??_C@_09GLPKLBIH@thickness?$AA@			; `string'
PUBLIC	??_C@_0BB@GHHBGKKF@target_tolerance?$AA@	; `string'
PUBLIC	??_C@_0M@HBHAPOJO@cpu_counter?$AA@		; `string'
PUBLIC	??_C@_05DDECJJKE@clock?$AA@			; `string'
PUBLIC	??_C@_0BA@BIIIJIED@transform_count?$AA@		; `string'
PUBLIC	??_C@_0BA@JDILIPNO@diffusion_coeff?$AA@		; `string'
PUBLIC	??_C@_0L@BECHNFGG@brightness?$AA@		; `string'
PUBLIC	??_C@_0L@EGCKCJDC@background?$AA@		; `string'
PUBLIC	??_C@_0M@NJPPNBCL@memory_used?$AA@		; `string'
PUBLIC	??_C@_0N@HIDDLAJM@memory_arena?$AA@		; `string'
PUBLIC	??_C@_0L@IAKFAOLO@last_error?$AA@		; `string'
PUBLIC	??_C@_0BH@OAPNEHDB@ambient_pressure_value?$AA@	; `string'
PUBLIC	??_C@_0BF@PLHANHAM@hessian_slant_cutoff?$AA@	; `string'
PUBLIC	??_C@_09MEOACIKB@breakflag?$AA@			; `string'
PUBLIC	??_C@_0BA@HBCDBDGE@bad_error_count?$AA@		; `string'
PUBLIC	??_C@_0BL@CKKLJMAI@facets_same_vertices_count?$AA@ ; `string'
PUBLIC	??_C@_0BK@JKNABKBA@edges_same_vertices_count?$AA@ ; `string'
PUBLIC	??_C@_0BA@GMPBMHMF@edge_loop_count?$AA@		; `string'
PUBLIC	??_C@_0BK@LLHOBCKD@inconsistent_bodies_count?$AA@ ; `string'
PUBLIC	??_C@_0BE@CJKHIDDP@bad_next_prev_count?$AA@	; `string'
PUBLIC	??_C@_0M@PLDEDAON@check_count?$AA@		; `string'
PUBLIC	??_C@_0BB@GILLHKAL@visibility_debug?$AA@	; `string'
PUBLIC	??_C@_0BB@NLMEBPED@scrollbuffersize?$AA@	; `string'
PUBLIC	??_C@_0BB@OFCJADDO@ps_gridedgewidth?$AA@	; `string'
PUBLIC	??_C@_0BB@NEEDDBHF@ps_bareedgewidth?$AA@	; `string'
PUBLIC	??_C@_0BA@LMLNIMJE@ps_conedgewidth?$AA@		; `string'
PUBLIC	??_C@_0BD@DOBHCOCD@ps_tripleedgewidth?$AA@	; `string'
PUBLIC	??_C@_0BC@CPCJJCCO@ps_fixededgewidth?$AA@	; `string'
PUBLIC	??_C@_0P@MKDKOLJB@ps_stringwidth?$AA@		; `string'
PUBLIC	??_C@_0N@PPOIJFFB@ps_labelsize?$AA@		; `string'
PUBLIC	??_C@_0BC@EADCAAG@t1_edgeswap_count?$AA@	; `string'
PUBLIC	??_C@_0P@IOOMGAHI@edgeswap_count?$AA@		; `string'
PUBLIC	??_C@_0BH@GEAHEOKO@pop_quad_to_quad_count?$AA@	; `string'
PUBLIC	??_C@_0BG@LGGDNHOG@pop_edge_to_tri_count?$AA@	; `string'
PUBLIC	??_C@_0BG@NFPFNFEP@pop_tri_to_edge_count?$AA@	; `string'
PUBLIC	??_C@_0P@CIHELNID@edge_pop_count?$AA@		; `string'
PUBLIC	??_C@_0BB@PNOKJDFD@vertex_pop_count?$AA@	; `string'
PUBLIC	??_C@_0BD@KDOCBOAO@facet_refine_count?$AA@	; `string'
PUBLIC	??_C@_0BC@LJKCEDIK@edge_refine_count?$AA@	; `string'
PUBLIC	??_C@_0BE@CKCDJLNA@body_dissolve_count?$AA@	; `string'
PUBLIC	??_C@_0BF@EDGKOAGH@facet_dissolve_count?$AA@	; `string'
PUBLIC	??_C@_0BE@JFPIKCB@edge_dissolve_count?$AA@	; `string'
PUBLIC	??_C@_0BG@MLIFIJNF@vertex_dissolve_count?$AA@	; `string'
PUBLIC	??_C@_0BD@HGHNBHOM@facet_delete_count?$AA@	; `string'
PUBLIC	??_C@_0BC@GMDNEKGI@edge_delete_count?$AA@	; `string'
PUBLIC	??_C@_0M@HMIJLFOH@unfix_count?$AA@		; `string'
PUBLIC	??_C@_09FKJNFACE@fix_count?$AA@			; `string'
PUBLIC	??_C@_0O@IOPDAKCK@mindeg_margin?$AA@		; `string'
PUBLIC	??_C@_0BH@CCPNJHKC@mindeg_min_region_size?$AA@	; `string'
PUBLIC	??_C@_0BD@ICNMFEGJ@mindeg_debug_level?$AA@	; `string'
PUBLIC	??_C@_0BE@LMLDEADG@window_aspect_ratio?$AA@	; `string'
PUBLIC	??_C@_09LEOGOINP@this_task?$AA@			; `string'
PUBLIC	??_C@_0M@JCMEGIAD@mpi_maxtask?$AA@		; `string'
PUBLIC	??_C@_0N@ILKHNNHO@corona_state?$AA@		; `string'
PUBLIC	??_C@_0BH@CENGABA@string_curve_tolerance?$AA@	; `string'
PUBLIC	??_C@_0BA@OIGENEKE@autochop_length?$AA@		; `string'
PUBLIC	??_C@_0BA@GKOHKDJ@detorus_epsilon?$AA@		; `string'
PUBLIC	??_C@_0BD@ENGCHOCN@bounding_box_color?$AA@	; `string'
PUBLIC	??_C@_05PMAELIEO@white?$AA@			; `string'
PUBLIC	??_C@_06ENJNJKEL@yellow?$AA@			; `string'
PUBLIC	??_C@_0N@BBECPGBJ@lightmagenta?$AA@		; `string'
PUBLIC	??_C@_08EEFKFEFN@lightred?$AA@			; `string'
PUBLIC	??_C@_09KPGEKFMK@lightcyan?$AA@			; `string'
PUBLIC	??_C@_0L@OPBGACJD@lightgreen?$AA@		; `string'
PUBLIC	??_C@_09NBIPJLA@lightblue?$AA@			; `string'
PUBLIC	??_C@_08EHDJKNHJ@darkgrey?$AA@			; `string'
PUBLIC	??_C@_08EADAAFKF@darkgray?$AA@			; `string'
PUBLIC	??_C@_04GDBIAANM@grey?$AA@			; `string'
PUBLIC	??_C@_04GEBBKIAA@gray?$AA@			; `string'
PUBLIC	??_C@_09IPGPKIEB@lightgrey?$AA@			; `string'
PUBLIC	??_C@_09IIGGAAJN@lightgray?$AA@			; `string'
PUBLIC	??_C@_05EBJGJMAL@brown?$AA@			; `string'
PUBLIC	??_C@_07EMDGAPCI@magenta?$AA@			; `string'
PUBLIC	??_C@_03FAAAOPJM@red?$AA@			; `string'
PUBLIC	??_C@_04EDBDANFH@cyan?$AA@			; `string'
PUBLIC	??_C@_05GBEEJKMC@green?$AA@			; `string'
PUBLIC	??_C@_04OBGPFBCN@blue?$AA@			; `string'
PUBLIC	??_C@_05BIMBDNDC@black?$AA@			; `string'
PUBLIC	??_C@_0M@CEEDCJLA@transparent?$AA@		; `string'
PUBLIC	??_C@_05MEHLAELG@clear?$AA@			; `string'
PUBLIC	??_C@_07BCIELMPF@pinning?$AA@			; `string'
PUBLIC	??_C@_0L@MABNKBMJ@autorecalc?$AA@		; `string'
PUBLIC	??_C@_0BC@LJJGFBGD@metric_conversion?$AA@	; `string'
PUBLIC	??_C@_09BPDDPHCA@gv_binary?$AA@			; `string'
PUBLIC	??_C@_0N@FFMNCIGF@self_similar?$AA@		; `string'
PUBLIC	??_C@_0BF@KHPBBAHH@div_normal_curvature?$AA@	; `string'
PUBLIC	??_C@_07IBJKBKNG@shading?$AA@			; `string'
PUBLIC	??_C@_0N@BNMHNAMC@facet_colors?$AA@		; `string'
PUBLIC	??_C@_09BAKALBHB@conj_grad?$AA@			; `string'
PUBLIC	??_C@_0O@HCDDDEHN@hessian_quiet?$AA@		; `string'
PUBLIC	??_C@_07HBPOHFLN@quietgo?$AA@			; `string'
PUBLIC	??_C@_05PMBAOCDH@quiet?$AA@			; `string'
PUBLIC	??_C@_0L@DLCCMBJF@transforms?$AA@		; `string'
PUBLIC	??_C@_0N@NFINOFHM@post_project?$AA@		; `string'
PUBLIC	??_C@_08LDELGPJH@estimate?$AA@			; `string'
PUBLIC	??_C@_07GFBFDLBM@gravity?$AA@			; `string'
PUBLIC	??_C@_07GGEALCBM@itdebug?$AA@			; `string'
PUBLIC	??_C@_08ONKONDHK@memdebug?$AA@			; `string'
PUBLIC	??_C@_05GFCDIDHO@debug?$AA@			; `string'
PUBLIC	??_C@_0P@OGHBAHOF@check_increase?$AA@		; `string'
PUBLIC	??_C@_0M@GGBEIMML@approx_curv?$AA@		; `string'
PUBLIC	??_C@_08MINHKHMD@old_area?$AA@			; `string'
PUBLIC	??_C@_07ENPKKAPH@sqgauss?$AA@			; `string'
PUBLIC	??_C@_09MFCEMNNF@conf_edge?$AA@			; `string'
PUBLIC	??_C@_07EMJKOPJK@view_4d?$AA@			; `string'
PUBLIC	??_C@_06IGFDKMHM@kusner?$AA@			; `string'
PUBLIC	??_C@_07LLNNGCPP@deturck?$AA@			; `string'
PUBLIC	??_C@_0O@PKIOMPCC@normal_motion?$AA@		; `string'
PUBLIC	??_C@_0N@PBIFKJMI@hessian_diff?$AA@		; `string'
PUBLIC	??_C@_07KCLCNBJB@thicken?$AA@			; `string'
PUBLIC	??_C@_08OMBDDLKJ@colormap?$AA@			; `string'
PUBLIC	??_C@_0L@LOICIGID@show_outer?$AA@		; `string'
PUBLIC	??_C@_0BA@FMBIOPNC@connected_cells?$AA@		; `string'
PUBLIC	??_C@_09JGOMOAGJ@connected?$AA@			; `string'
PUBLIC	??_C@_09DNEEIDBP@raw_cells?$AA@			; `string'
PUBLIC	??_C@_0O@ILHEOIGK@clipped_cells?$AA@		; `string'
PUBLIC	??_C@_07HKDEBIPG@clipped?$AA@			; `string'
PUBLIC	??_C@_0L@EAEPHEPG@show_inner?$AA@		; `string'
PUBLIC	??_C@_0M@DMCDJPBF@autodisplay?$AA@		; `string'
PUBLIC	??_C@_0O@MHBOMMFK@force_pos_def?$AA@		; `string'
PUBLIC	??_C@_07PIJPCAMN@ribiere?$AA@			; `string'
PUBLIC	??_C@_0BA@NLJCNNPB@assume_oriented?$AA@		; `string'
PUBLIC	??_C@_0P@BMDMDICD@hessian_normal?$AA@		; `string'
PUBLIC	??_C@_0P@GKFGPBHG@bunch_kauffman?$AA@		; `string'
PUBLIC	??_C@_0O@BFFIKKOE@bunch_kaufman?$AA@		; `string'
PUBLIC	??_C@_03JKDNAPFH@mkl?$AA@			; `string'
PUBLIC	??_C@_04NLKFKEKL@ysmp?$AA@			; `string'
PUBLIC	??_C@_0BA@HGBJAEID@quantities_only?$AA@		; `string'
PUBLIC	??_C@_0P@OHNEFNEP@metric_convert?$AA@		; `string'
PUBLIC	??_C@_0O@PLHGPNIO@linear_metric?$AA@		; `string'
PUBLIC	??_C@_0BB@GPGBGBKF@squared_gradient?$AA@	; `string'
PUBLIC	??_C@_0BB@GLJECMNP@h_inverse_metric?$AA@	; `string'
PUBLIC	??_C@_0BG@GAEGJDMI@hessian_double_normal?$AA@	; `string'
PUBLIC	??_C@_0BD@HMMIFHMP@hessian_normal_one?$AA@	; `string'
PUBLIC	??_C@_0N@ECHDFDIC@ps_labelflag?$AA@		; `string'
PUBLIC	??_C@_09KMOLHLBE@labelflag?$AA@			; `string'
PUBLIC	??_C@_0BA@MDFPOHGI@ps_crossingflag?$AA@		; `string'
PUBLIC	??_C@_0N@JJEIJGBI@crossingflag?$AA@		; `string'
PUBLIC	??_C@_08EGOBEDIK@gridflag?$AA@			; `string'
PUBLIC	??_C@_0M@NAKIPJII@ps_gridflag?$AA@		; `string'
PUBLIC	??_C@_0M@LOFHKFBI@ps_cmykflag?$AA@		; `string'
PUBLIC	??_C@_0N@PDJMPNAK@ps_colorflag?$AA@		; `string'
PUBLIC	??_C@_0M@MGNBMOID@pscolorflag?$AA@		; `string'
PUBLIC	??_C@_0BE@PABNDBOD@show_all_quantities?$AA@	; `string'
PUBLIC	??_C@_0BE@IEAFMCH@hessian_normal_perp?$AA@	; `string'
PUBLIC	??_C@_0BH@DJGEPEF@hessian_special_normal?$AA@	; `string'
PUBLIC	??_C@_0L@PLJDOBHE@zener_drag?$AA@		; `string'
PUBLIC	??_C@_0P@PLDNIGHE@volgrads_every?$AA@		; `string'
PUBLIC	??_C@_0P@DFOEIAJO@interp_normals?$AA@		; `string'
PUBLIC	??_C@_0O@DOAHOLKA@rotate_lights?$AA@		; `string'
PUBLIC	??_C@_08KFLJAAGL@backcull?$AA@			; `string'
PUBLIC	??_C@_0BB@JLCFDFN@ambient_pressure?$AA@		; `string'
PUBLIC	??_C@_07KBAMPNJK@verbose?$AA@			; `string'
PUBLIC	??_C@_0P@DEKALNNI@dirichlet_mode?$AA@		; `string'
PUBLIC	??_C@_0N@IAKIABKB@sobolev_mode?$AA@		; `string'
PUBLIC	??_C@_0P@EOAPCHNN@kraynikpopedge?$AA@		; `string'
PUBLIC	??_C@_0BB@OFKJMHPN@kraynikpopvertex?$AA@	; `string'
PUBLIC	??_C@_0L@NAICPCIF@rgb_colors?$AA@		; `string'
PUBLIC	??_C@_0BC@ENFIPPEC@circular_arc_draw?$AA@	; `string'
PUBLIC	??_C@_0BA@NBAAGIKN@visibility_test?$AA@		; `string'
PUBLIC	??_C@_0BD@LILDNGFC@sparse_constraints?$AA@	; `string'
PUBLIC	??_C@_0BC@OIKNNBJM@augmented_hessian?$AA@	; `string'
PUBLIC	??_C@_09ELACHHOE@blas_flag?$AA@			; `string'
PUBLIC	??_C@_0BB@GKDPKLCB@break_on_warning?$AA@	; `string'
PUBLIC	??_C@_0BE@HEFINIJJ@break_after_warning?$AA@	; `string'
PUBLIC	??_C@_0N@OJEGAGKB@bezier_basis?$AA@		; `string'
PUBLIC	??_C@_0N@DFPINMIP@smooth_graph?$AA@		; `string'
PUBLIC	??_C@_09PJOICEHA@mpi_debug?$AA@			; `string'
PUBLIC	??_C@_0M@FHCBDAPB@pop_to_face?$AA@		; `string'
PUBLIC	??_C@_0M@CAFGBCMP@pop_to_edge?$AA@		; `string'
PUBLIC	??_C@_0L@NBNMFCPF@pop_enjoin?$AA@		; `string'
PUBLIC	??_C@_0M@PDGIDHIC@pop_disjoin?$AA@		; `string'
PUBLIC	??_C@_0BC@PCBOIGLG@full_bounding_box?$AA@	; `string'
PUBLIC	??_C@_0O@EKBDJBFN@little_endian?$AA@		; `string'
PUBLIC	??_C@_0L@HGLBMAAF@big_endian?$AA@		; `string'
PUBLIC	??_C@_09EOFABKBN@quietload?$AA@			; `string'
PUBLIC	??_C@_09FMDIMAMP@clip_view?$AA@			; `string'
PUBLIC	??_C@_0L@KMEPJMME@slice_view?$AA@		; `string'
PUBLIC	??_C@_0BJ@GACLGPHB@function_quantity_sparse?$AA@ ; `string'
PUBLIC	??_C@_0P@BHLDEOD@force_deletion?$AA@		; `string'
PUBLIC	??_C@_0P@JPONPFLM@star_finagling?$AA@		; `string'
PUBLIC	??_C@_0BC@PCLABFDB@immediate_autopop?$AA@	; `string'
PUBLIC	??_C@_0P@HBGAENON@detorus_sticky?$AA@		; `string'
PUBLIC	??_C@_0CB@GFKKBGMN@view_transforms_use_unique_point@ ; `string'
PUBLIC	??_C@_0M@FKFJNJHN@septum_flag?$AA@		; `string'
PUBLIC	??_C@_0BC@IOPGAMGF@show_bounding_box?$AA@	; `string'
PUBLIC	??_C@_0BA@FEGMCNGA@K_altitude_mode?$AA@		; `string'
PUBLIC	??_C@_0P@BMEBABFE@show_all_edges?$AA@		; `string'
PUBLIC	??_C@_0P@EJEJKKN@force_edgeswap?$AA@		; `string'
PUBLIC	??_C@_08GIBBNMIA@optimise?$AA@			; `string'
PUBLIC	??_C@_08GHMAOHAP@optimize?$AA@			; `string'
PUBLIC	??_C@_06BDEIOILB@recalc?$AA@			; `string'
PUBLIC	??_C@_05EPBFLBEJ@unset?$AA@			; `string'
PUBLIC	??_C@_03KCHOJKKI@set?$AA@			; `string'
PUBLIC	??_C@_05OOLEAMGB@shell?$AA@			; `string'
PUBLIC	??_C@_08KFIPBGJH@dissolve?$AA@			; `string'
PUBLIC	??_C@_06FOBLBEIN@delete?$AA@			; `string'
PUBLIC	??_C@_05GOBGMMII@showq?$AA@			; `string'
PUBLIC	??_C@_04FKMICODN@show?$AA@			; `string'
PUBLIC	??_C@_04DONFEANM@list?$AA@			; `string'
PUBLIC	??_C@_05LCFPHLEE@where?$AA@			; `string'
PUBLIC	??_C@_07MEIPJMCG@sqcurve?$AA@			; `string'
PUBLIC	??_C@_04GOEDGNCF@area?$AA@			; `string'
PUBLIC	??_C@_07HKCFKCGH@valence?$AA@			; `string'
PUBLIC	??_C@_06IJDLPEM@length?$AA@			; `string'
PUBLIC	??_C@_0L@BBAJEGNK@bottominfo?$AA@		; `string'
PUBLIC	??_C@_07CFPPNLMH@topinfo?$AA@			; `string'
PUBLIC	??_C@_03PLGJJJLK@oid?$AA@			; `string'
PUBLIC	??_C@_02EGCJHIOB@id?$AA@			; `string'
PUBLIC	??_C@_08MGNLKBNG@show_vol?$AA@			; `string'
PUBLIC	??_C@_05KJHPNPAA@check?$AA@			; `string'
PUBLIC	??_C@_06ELMCDMMG@refine?$AA@			; `string'
PUBLIC	??_C@_02KPEDIMCA@go?$AA@			; `string'
PUBLIC	??_C@_07ENILCFOA@rawestv?$AA@			; `string'
PUBLIC	??_C@_04BBIOILIO@rawv?$AA@			; `string'
PUBLIC	??_C@_05CDBKKPFJ@longj?$AA@			; `string'
PUBLIC	??_C@_05IHFEJEKL@chdir?$AA@			; `string'
PUBLIC	??_C@_06FHFOAHML@system?$AA@			; `string'
PUBLIC	??_C@_05IJMOJOL@utest?$AA@			; `string'
PUBLIC	??_C@_04HKCCIOCO@zoom?$AA@			; `string'
PUBLIC	??_C@_0P@HKDMGBBG@stability_test?$AA@		; `string'
PUBLIC	??_C@_05MFGCEKPN@alice?$AA@			; `string'
PUBLIC	??_C@_0M@EKPFJKCG@edge_divide?$AA@		; `string'
PUBLIC	??_C@_08EFAMPBPP@edgeweed?$AA@			; `string'
PUBLIC	??_C@_08KODKMLGA@areaweed?$AA@			; `string'
PUBLIC	??_C@_03MCADLMAF@off?$AA@			; `string'
PUBLIC	??_C@_0M@MMGMMHEK@extrapolate?$AA@		; `string'
PUBLIC	??_C@_06JMEOMOEA@counts?$AA@			; `string'
PUBLIC	??_C@_02LIELOMNJ@on?$AA@			; `string'
PUBLIC	??_C@_0L@LFLJKKDA@procedures?$AA@		; `string'
PUBLIC	??_C@_0O@DNBEMPOF@binary_printf?$AA@		; `string'
PUBLIC	??_C@_07DNAEFDKF@sprintf?$AA@			; `string'
PUBLIC	??_C@_09JOJNMAED@errprintf?$AA@			; `string'
PUBLIC	??_C@_06OHJFMFMB@printf?$AA@			; `string'
PUBLIC	??_C@_06HMBJBPPM@eprint?$AA@			; `string'
PUBLIC	??_C@_05IJDJACGD@print?$AA@			; `string'
PUBLIC	??_C@_05IOMEMJEC@count?$AA@			; `string'
PUBLIC	??_C@_03CFFIJAMA@sum?$AA@			; `string'
PUBLIC	??_C@_03CHOBFJAH@avg?$AA@			; `string'
PUBLIC	??_C@_03KLIPLJLL@min?$AA@			; `string'
PUBLIC	??_C@_03LJAEFNNE@max?$AA@			; `string'
PUBLIC	??_C@_08BKGECACE@dihedral?$AA@			; `string'
PUBLIC	??_C@_0L@BHDKNBMG@show_trans?$AA@		; `string'
PUBLIC	??_C@_09INMNGPFE@show_expr?$AA@			; `string'
PUBLIC	??_C@_0N@MFCDHBBC@loghistogram?$AA@		; `string'
PUBLIC	??_C@_09JOLNEMIB@histogram?$AA@			; `string'
PUBLIC	??_C@_04FHMCPBIP@else?$AA@			; `string'
PUBLIC	??_C@_04HOHPNOOD@then?$AA@			; `string'
PUBLIC	??_C@_02HEBPBKGD@if?$AA@			; `string'
PUBLIC	??_C@_02KNAFDCHJ@do?$AA@			; `string'
PUBLIC	??_C@_05OODBEKIG@while?$AA@			; `string'
PUBLIC	??_C@_05GEEJHDPH@notch?$AA@			; `string'
PUBLIC	??_C@_08MJMACJHA@permload?$AA@			; `string'
PUBLIC	??_C@_04EONOHKEP@load?$AA@			; `string'
PUBLIC	??_C@_04GGLOKIEE@dump?$AA@			; `string'
PUBLIC	??_C@_03MDONDFG@bye?$AA@			; `string'
PUBLIC	??_C@_04MKNBDEPB@exit?$AA@			; `string'
PUBLIC	??_C@_04KNNLNNGO@quit?$AA@			; `string'
PUBLIC	??_C@_04PCJFHION@help?$AA@			; `string'
PUBLIC	??_C@_0N@NJLPGECL@hessian_menu?$AA@		; `string'
PUBLIC	??_C@_0N@NOHLJNPG@hessian_seek?$AA@		; `string'
PUBLIC	??_C@_07IHNMECBN@hessian?$AA@			; `string'
PUBLIC	??_C@_0P@MKIFIEMC@transform_expr?$AA@		; `string'
PUBLIC	??_C@_0BA@IPCFDLJD@transform_depth?$AA@		; `string'
PUBLIC	??_C@_08BOPEGKMG@show_off?$AA@			; `string'
PUBLIC	??_C@_0L@HANDHNGN@close_show?$AA@		; `string'
PUBLIC	??_C@_08GHINPAG@burchard?$AA@			; `string'
PUBLIC	??_C@_06HAMJBNFB@rebody?$AA@			; `string'
PUBLIC	??_C@_07ICLAOFOB@foreach?$AA@			; `string'
PUBLIC	??_C@_05INHNKAIM@unfix?$AA@			; `string'
PUBLIC	??_C@_03GABGILGN@fix?$AA@			; `string'
PUBLIC	??_C@_07MMNEDCBK@history?$AA@			; `string'
PUBLIC	??_C@_05KBOMEDGA@total?$AA@			; `string'
PUBLIC	??_C@_0P@BLIMDDOG@dirichlet_seek?$AA@		; `string'
PUBLIC	??_C@_09JHHPCHFN@dirichlet?$AA@			; `string'
PUBLIC	??_C@_0N@KPIEIPJP@sobolev_seek?$AA@		; `string'
PUBLIC	??_C@_07NNCLFLCE@sobolev?$AA@			; `string'
PUBLIC	??_C@_0L@HNMJPKNA@attributes?$AA@		; `string'
PUBLIC	??_C@_04CIOKLOBL@midv?$AA@			; `string'
PUBLIC	??_C@_06PNAKCKLH@saddle?$AA@			; `string'
PUBLIC	??_C@_08GOLFMCHH@geomview?$AA@			; `string'
PUBLIC	??_C@_0N@PEAHACPA@datafilename?$AA@		; `string'
PUBLIC	??_C@_0N@DHNCNHBM@triple_point?$AA@		; `string'
PUBLIC	??_C@_0M@DFLKEBKH@tetra_point?$AA@		; `string'
PUBLIC	??_C@_07JPCPFHFE@lanczos?$AA@			; `string'
PUBLIC	??_C@_0L@FLCFPHEO@eigenprobe?$AA@		; `string'
PUBLIC	??_C@_04HKMJFCDE@ritz?$AA@			; `string'
PUBLIC	??_C@_08DLICDMBN@continue?$AA@			; `string'
PUBLIC	??_C@_08HEBLBDOI@volfixed?$AA@			; `string'
PUBLIC	??_C@_05ELPHFHOI@break?$AA@			; `string'
PUBLIC	??_C@_0M@HIFAJGPB@t1_edgeswap?$AA@		; `string'
PUBLIC	??_C@_08GDDLLHKC@edgeswap?$AA@			; `string'
PUBLIC	??_C@_0BG@LAOGOOCK@convert_to_quantities?$AA@	; `string'
PUBLIC	??_C@_08IDOMCGJP@geompipe?$AA@			; `string'
PUBLIC	??_C@_04HDMMNHEL@move?$AA@			; `string'
PUBLIC	??_C@_06FPFOALMG@sizeof?$AA@			; `string'
PUBLIC	??_C@_06FNJMBFGF@ometis?$AA@			; `string'
PUBLIC	??_C@_06KJNDDBHG@kmetis?$AA@			; `string'
PUBLIC	??_C@_0L@JJNAPELC@body_metis?$AA@		; `string'
PUBLIC	??_C@_0P@BEHGJJCH@metis_readjust?$AA@		; `string'
PUBLIC	??_C@_05MMMFHLE@metis?$AA@			; `string'
PUBLIC	??_C@_0N@GAAHAAOL@metis_factor?$AA@		; `string'
PUBLIC	??_C@_0BG@EBKCCFDE@rawest_vertex_average?$AA@	; `string'
PUBLIC	??_C@_0BD@FBBKFDM@raw_vertex_average?$AA@	; `string'
PUBLIC	??_C@_0P@OLMKLKE@vertex_average?$AA@		; `string'
PUBLIC	??_C@_0BA@IBDAIKBO@binary_off_file?$AA@		; `string'
PUBLIC	??_C@_08KLNLDNLL@ooglfile?$AA@			; `string'
PUBLIC	??_C@_0L@CCPMELKB@postscript?$AA@		; `string'
PUBLIC	??_C@_06LNOFJDNM@return?$AA@			; `string'
PUBLIC	??_C@_08PANPCJAE@new_body?$AA@			; `string'
PUBLIC	??_C@_09OAIEDJBI@new_facet?$AA@			; `string'
PUBLIC	??_C@_08HBMPJBBB@new_edge?$AA@			; `string'
PUBLIC	??_C@_0L@KAOEHGMG@new_vertex?$AA@		; `string'
PUBLIC	??_C@_08JONLCJIM@backbody?$AA@			; `string'
PUBLIC	??_C@_09GNLMKAKO@frontbody?$AA@			; `string'
PUBLIC	??_C@_0L@GKBDMEAN@keylogfile?$AA@		; `string'
PUBLIC	??_C@_07HMINABEO@logfile?$AA@			; `string'
PUBLIC	??_C@_05PDJBBECF@pause?$AA@			; `string'
PUBLIC	??_C@_0N@JJMKEIGG@renumber_all?$AA@		; `string'
PUBLIC	??_C@_0BA@PJJKCDON@reorder_storage?$AA@		; `string'
PUBLIC	??_C@_0L@FMKAEFLC@is_defined?$AA@		; `string'
PUBLIC	??_C@_0M@CJACPCIB@wrap_vertex?$AA@		; `string'
PUBLIC	??_C@_04MGEIEJAD@exec?$AA@			; `string'
PUBLIC	??_C@_07BKFFEMDK@exprint?$AA@			; `string'
PUBLIC	??_C@_0O@DICBBEEI@date_and_time?$AA@		; `string'
PUBLIC	??_C@_09BADENEHP@colorfile?$AA@			; `string'
PUBLIC	??_C@_0N@ICOOBCNI@vertexnormal?$AA@		; `string'
PUBLIC	??_C@_0N@PBJCFAJD@equiangulate?$AA@		; `string'
PUBLIC	??_C@_0BB@FIMKOPGK@warning_messages?$AA@	; `string'
PUBLIC	??_C@_03JOHEBPFF@for?$AA@			; `string'
PUBLIC	??_C@_05IDKHKMLA@local?$AA@			; `string'
PUBLIC	??_C@_0BB@NFBBDANK@pop_quad_to_quad?$AA@	; `string'
PUBLIC	??_C@_0BA@LLOFFOFA@pop_edge_to_tri?$AA@		; `string'
PUBLIC	??_C@_0BA@HKCODAC@pop_tri_to_edge?$AA@		; `string'
PUBLIC	??_C@_03NJDAHFJE@pop?$AA@			; `string'
PUBLIC	??_C@_09BOMFCCD@task_exec?$AA@			; `string'
PUBLIC	??_C@_0O@OJLJIFPG@parallel_exec?$AA@		; `string'
PUBLIC	??_C@_0P@FKOPBMAL@mean_curvature?$AA@		; `string'
PUBLIC	??_C@_08KEAKBNCK@mpi_task?$AA@			; `string'
PUBLIC	??_C@_0M@HCCAAKMF@facet_merge?$AA@		; `string'
PUBLIC	??_C@_0L@GJPPMFGG@edge_merge?$AA@		; `string'
PUBLIC	??_C@_0N@MOMHNGJF@vertex_merge?$AA@		; `string'
PUBLIC	??_C@_0N@BFEIANBO@reset_counts?$AA@		; `string'
PUBLIC	??_C@_0O@HEMOCGDL@valid_element?$AA@		; `string'
PUBLIC	??_C@_0N@HEKOHBEK@flush_counts?$AA@		; `string'
PUBLIC	??_C@_09BPLDEHMH@mid_facet?$AA@			; `string'
PUBLIC	??_C@_08EJNLDOMI@mid_edge?$AA@			; `string'
PUBLIC	??_C@_0BD@JJNPEKJD@matrix_determinant?$AA@	; `string'
PUBLIC	??_C@_0P@EBJBPEJC@matrix_inverse?$AA@		; `string'
PUBLIC	??_C@_0BA@JNPAPNBO@matrix_multiply?$AA@		; `string'
PUBLIC	??_C@_0BE@KCPFLFEG@reverse_orientation?$AA@	; `string'
PUBLIC	??_C@_0N@GDMIKNMD@dump_memlist?$AA@		; `string'
PUBLIC	??_C@_0O@OKPNNEJG@free_discards?$AA@		; `string'
PUBLIC	??_C@_0M@PLKJAEAL@repartition?$AA@		; `string'
PUBLIC	??_C@_0L@KHFNHBNM@subcommand?$AA@		; `string'
PUBLIC	??_C@_05BBAEEBBH@abort?$AA@			; `string'
PUBLIC	??_C@_0M@BKKBNEBK@breakpoints?$AA@		; `string'
PUBLIC	??_C@_0L@LCAMEHJC@breakpoint?$AA@		; `string'
PUBLIC	??_C@_08DHCGNBAN@whereami?$AA@			; `string'
PUBLIC	??_C@_0N@OJACEENF@replace_load?$AA@		; `string'
PUBLIC	??_C@_07BNADNHKE@addload?$AA@			; `string'
PUBLIC	??_C@_0O@ECJLFEKE@simplex_to_fe?$AA@		; `string'
PUBLIC	??_C@_0N@CJJGNHCN@display_text?$AA@		; `string'
PUBLIC	??_C@_0M@EOIFPGKG@delete_text?$AA@		; `string'
PUBLIC	??_C@_0BA@OHLAHHBM@reset_profiling?$AA@		; `string'
PUBLIC	??_C@_09IICGFFJH@profiling?$AA@			; `string'
PUBLIC	??_C@_0P@CFKICEKD@valid_boundary?$AA@		; `string'
PUBLIC	??_C@_0BB@CNFDAFCL@valid_constraint?$AA@	; `string'
PUBLIC	??_C@_0O@KPBBKELJ@is_constraint?$AA@		; `string'
PUBLIC	??_C@_07LDNKKEH@detorus?$AA@			; `string'
PUBLIC	??_C@_0P@KJENOODO@facet_crosscut?$AA@		; `string'
PUBLIC	??_C@_0BC@NBLIDMLB@make_thread_lists?$AA@	; `string'
PUBLIC	??_C@_0BC@KBMGOFNF@no_hessian_normal?$AA@	; `string'
PUBLIC	??_C@_07LFPCKGAP@p_force?$AA@			; `string'
PUBLIC	??_C@_0L@LJPKPJJM@p_velocity?$AA@		; `string'
PUBLIC	??_C@_07IAPJLEJH@no_dump?$AA@			; `string'
PUBLIC	??_C@_0O@KIAILNPN@normal_vector?$AA@		; `string'
PUBLIC	??_C@_06IKLLLDHL@normal?$AA@			; `string'
PUBLIC	??_C@_03JGHBODFD@pow?$AA@			; `string'
PUBLIC	??_C@_07CCOEHHFD@minimum?$AA@			; `string'
PUBLIC	??_C@_07MEIENILC@maximum?$AA@			; `string'
PUBLIC	??_C@_0BE@DIEKFJPK@incompleteEllipticE?$AA@	; `string'
PUBLIC	??_C@_0BE@BDGHAKDJ@incompleteEllipticF?$AA@	; `string'
PUBLIC	??_C@_05KNGEOGJB@atan2?$AA@			; `string'
PUBLIC	??_C@_0N@HGNPFHKM@wrap_compose?$AA@		; `string'
PUBLIC	??_C@_03BCGAIFPO@abs?$AA@			; `string'
PUBLIC	??_C@_05PBJFFIGL@floor?$AA@			; `string'
PUBLIC	??_C@_04GFPJNGEK@ceil?$AA@			; `string'
PUBLIC	??_C@_03OPALDGIC@sqr?$AA@			; `string'
PUBLIC	??_C@_04EIAKFFMI@sqrt?$AA@			; `string'
PUBLIC	??_C@_05ONDAFDEP@atanh?$AA@			; `string'
PUBLIC	??_C@_05MLNBFPMN@acosh?$AA@			; `string'
PUBLIC	??_C@_05JKKEKHLA@asinh?$AA@			; `string'
PUBLIC	??_C@_04FJHINJAO@tanh?$AA@			; `string'
PUBLIC	??_C@_04HPJJNFIM@cosh?$AA@			; `string'
PUBLIC	??_C@_04COOMCNPB@sinh?$AA@			; `string'
PUBLIC	??_C@_04MLLJIGOK@atan?$AA@			; `string'
PUBLIC	??_C@_04PDIFKINK@acos?$AA@			; `string'
PUBLIC	??_C@_04FIHNOPOL@asin?$AA@			; `string'
PUBLIC	??_C@_03IIINPABG@tan?$AA@			; `string'
PUBLIC	??_C@_03LALBNOCG@cos?$AA@			; `string'
PUBLIC	??_C@_03BLEJJJBH@sin?$AA@			; `string'
PUBLIC	??_C@_03KHJOGHMM@exp?$AA@			; `string'
PUBLIC	??_C@_03MGHMBJCF@log?$AA@			; `string'
PUBLIC	??_C@_09IOEHKLLB@ellipticE?$AA@			; `string'
PUBLIC	??_C@_09BAMEIGDP@ellipticK?$AA@			; `string'
PUBLIC	??_C@_0N@CCAKCFDI@wrap_inverse?$AA@		; `string'
PUBLIC	??_C@_09CMEJCHLK@facetedge?$AA@			; `string'
PUBLIC	??_C@_0L@CPIKDJIA@facetedges?$AA@		; `string'
PUBLIC	??_C@_0L@LKKCPKKM@facet_edge?$AA@		; `string'
PUBLIC	??_C@_0M@NLMIGHAM@facet_edges?$AA@		; `string'
PUBLIC	??_C@_04IEJGKNJ@body?$AA@			; `string'
PUBLIC	??_C@_06OHIKIKDI@bodies?$AA@			; `string'
PUBLIC	??_C@_05BIBOABDC@facet?$AA@			; `string'
PUBLIC	??_C@_06MMNNGFLE@facets?$AA@			; `string'
PUBLIC	??_C@_04POCOPAPC@face?$AA@			; `string'
PUBLIC	??_C@_05FHFPJHPF@faces?$AA@			; `string'
PUBLIC	??_C@_04IJFJNCMM@edge?$AA@			; `string'
PUBLIC	??_C@_05JGEJPNHM@edges?$AA@			; `string'
PUBLIC	??_C@_06HLKHCFCI@vertex?$AA@			; `string'
PUBLIC	??_C@_08BOLPBPCL@vertices?$AA@			; `string'
PUBLIC	??_C@_08LAAABFKN@original?$AA@			; `string'
PUBLIC	??_C@_0M@CBIPACOJ@dot_product?$AA@		; `string'
PUBLIC	??_C@_04CHNIFDFF@idiv?$AA@			; `string'
PUBLIC	??_C@_04CGKJBALO@imod?$AA@			; `string'
PUBLIC	??_C@_03FFONCNID@mod?$AA@			; `string'
PUBLIC	??_C@_03NJKJADM@not?$AA@			; `string'
PUBLIC	??_C@_02FODMLBIE@or?$AA@			; `string'
PUBLIC	??_C@_03BOPJPIAM@and?$AA@			; `string'
PUBLIC	??_C@_04POLDLDMI@read?$AA@			; `string'
PUBLIC	??_C@_08IMINLCCL@volconst?$AA@			; `string'
PUBLIC	??_C@_08OCNIHGPN@quantity?$AA@			; `string'
PUBLIC	??_C@_0M@EMFGBOOI@zoom_radius?$AA@		; `string'
PUBLIC	??_C@_0M@JBIJOPDG@zoom_vertex?$AA@		; `string'
PUBLIC	??_C@_0M@PJCBAJEM@scale_limit?$AA@		; `string'
PUBLIC	??_C@_09KIHCPOPL@nodisplay?$AA@			; `string'
PUBLIC	??_C@_07BJBOFKDG@tension?$AA@			; `string'
PUBLIC	??_C@_07HAFFKDBK@density?$AA@			; `string'
PUBLIC	??_C@_06EMCPHFGM@volume?$AA@			; `string'
PUBLIC	??_C@_08POHEELCJ@pressure?$AA@			; `string'
PUBLIC	??_C@_0M@GJEHHDCL@temperature?$AA@		; `string'
PUBLIC	??_C@_06HACLPJI@pscale?$AA@			; `string'
PUBLIC	??_C@_05MHMEBBGO@scale?$AA@			; `string'
PUBLIC	??_C@_0N@DKAJABDK@gap_constant?$AA@		; `string'
PUBLIC	??_C@_0BA@CNIKOEML@spring_constant?$AA@		; `string'
PUBLIC	??_C@_0BB@LFLMFBL@gravity_constant?$AA@		; `string'
PUBLIC	??_C@_0N@OMNDKHGB@merit_factor?$AA@		; `string'
PUBLIC	??_C@_09NBBNKAEP@diffusion?$AA@			; `string'
PUBLIC	??_C@_06LGAKKEPJ@jiggle?$AA@			; `string'
PUBLIC	??_C@_0BD@JAENIDNE@area_normalization?$AA@	; `string'
PUBLIC	??_C@_06HPJICMPM@linear?$AA@			; `string'
PUBLIC	??_C@_09NDEBDKFB@quadratic?$AA@			; `string'
PUBLIC	??_C@_07ICAJMOAO@content?$AA@			; `string'
PUBLIC	??_C@_06KKGCKCNJ@energy?$AA@			; `string'
PUBLIC	??_C@_0M@EANCEANL@nonpositive?$AA@		; `string'
PUBLIC	??_C@_0M@MKNCPPEA@nonnegative?$AA@		; `string'
PUBLIC	??_C@_07FAFBHKGP@nonwall?$AA@			; `string'
PUBLIC	??_C@_06OAMDAHCP@convex?$AA@			; `string'
PUBLIC	??_C@_0BF@MOILGEJM@constraint_tolerance?$AA@	; `string'
PUBLIC	??_C@_0BF@CFFGCHHD@integration_order_2d?$AA@	; `string'
PUBLIC	??_C@_0BF@CHBAJJCK@integration_order_1d?$AA@	; `string'
PUBLIC	??_C@_0BC@CCICJAIC@integration_order?$AA@	; `string'
PUBLIC	??_C@_0BC@CBPAEDJL@integral_order_2d?$AA@	; `string'
PUBLIC	??_C@_0BC@CDLGPNMC@integral_order_1d?$AA@	; `string'
PUBLIC	??_C@_0P@JOOJGKKP@integral_order?$AA@		; `string'
PUBLIC	??_C@_0BC@COAHFEML@symmetric_content?$AA@	; `string'
PUBLIC	??_C@_0P@EAADGFKM@parameter_file?$AA@		; `string'
PUBLIC	??_C@_0L@HHPOFMCB@parameters?$AA@		; `string'
PUBLIC	??_C@_09DAGAJHIH@parameter?$AA@			; `string'
PUBLIC	??_C@_08HFFPPCHF@function?$AA@			; `string'
PUBLIC	??_C@_07LHCFJCJM@formula?$AA@			; `string'
PUBLIC	??_C@_0P@LFIPMAJA@surface_energy?$AA@		; `string'
PUBLIC	??_C@_0M@JGLONDGH@constraints?$AA@		; `string'
PUBLIC	??_C@_0L@HOHHMJMM@constraint?$AA@		; `string'
PUBLIC	??_C@_0L@PABKJGNF@boundaries?$AA@		; `string'
PUBLIC	??_C@_08KIKGFOKI@boundary?$AA@			; `string'
PUBLIC	??_C@_05GHCFDPJC@wulff?$AA@			; `string'
PUBLIC	??_C@_08DODCPBAM@soapfilm?$AA@			; `string'
PUBLIC	??_C@_06ICGJLFIM@string?$AA@			; `string'
PUBLIC	??_C@_0BA@HCKIGAAA@display_periods?$AA@		; `string'
PUBLIC	??_C@_07BFECMFCO@periods?$AA@			; `string'
PUBLIC	??_C@_0O@IMAKABFD@torus_periods?$AA@		; `string'
PUBLIC	??_C@_0N@IGCELFFA@torus_filled?$AA@		; `string'
PUBLIC	??_C@_05FCPCBJIO@torus?$AA@			; `string'
PUBLIC	??_C@_04NFDDIEML@wrap?$AA@			; `string'
PUBLIC	??_C@_0P@GKEDIIHF@symmetry_group?$AA@		; `string'
PUBLIC	??_C@_06BAJEJFKD@efixed?$AA@			; `string'
PUBLIC	??_C@_0L@DKEDBIHO@noncontent?$AA@		; `string'
PUBLIC	??_C@_0L@ODCODBLD@no_display?$AA@		; `string'
PUBLIC	??_C@_0N@OFAMNBMC@centerofmass?$AA@		; `string'
PUBLIC	??_C@_0M@JAGBIOBF@hit_partner?$AA@		; `string'
PUBLIC	??_C@_0N@CMIGFPCH@no_transform?$AA@		; `string'
PUBLIC	??_C@_09PFNGBABC@no_refine?$AA@			; `string'
PUBLIC	??_C@_05OFLEIIDM@fixed?$AA@			; `string'
PUBLIC	??_C@_0BB@HOLKBDMI@conformal_metric?$AA@	; `string'
PUBLIC	??_C@_0N@FGNFAGIK@klein_metric?$AA@		; `string'
PUBLIC	??_C@_06BEHJHFJO@metric?$AA@			; `string'
PUBLIC	??_C@_0BH@ELELLFNL@simplex_representation?$AA@	; `string'
PUBLIC	??_C@_0BC@CCLFHFGM@surface_dimension?$AA@	; `string'
PUBLIC	??_C@_0BA@NCBBEAIN@space_dimension?$AA@		; `string'
PUBLIC	??_C@_0BH@PBMPDDPJ@conducting_knot_energy?$AA@	; `string'
PUBLIC	??_C@_0BH@KFIJAGHO@insulating_knot_energy?$AA@	; `string'
PUBLIC	??_C@_0BA@MAJEELEA@gauss_curvature?$AA@		; `string'
PUBLIC	??_C@_0BL@MADIBINB@squared_gaussian_curvature?$AA@ ; `string'
PUBLIC	??_C@_0BK@FKPNCHGB@square_gaussian_curvature?$AA@ ; `string'
PUBLIC	??_C@_0BC@ODOAEPAL@squared_curvature?$AA@	; `string'
PUBLIC	??_C@_0BB@OIOLOLOH@square_curvature?$AA@	; `string'
PUBLIC	??_C@_0BB@ODBHHAP@normal_curvature?$AA@		; `string'
PUBLIC	??_C@_0BI@KGGFDDEC@mean_curvature_integral?$AA@	; `string'
PUBLIC	??_C@_0L@DKEJANLD@frontcolor?$AA@		; `string'
PUBLIC	??_C@_09OPNKCLNO@backcolor?$AA@			; `string'
PUBLIC	??_C@_05PEENBMOG@color?$AA@			; `string'
PUBLIC	??_C@_0M@OBNGAKOC@runge_kutta?$AA@		; `string'
PUBLIC	??_C@_0P@OMMOBLOA@effective_area?$AA@		; `string'
PUBLIC	??_C@_0L@OIFGKHMH@total_time?$AA@		; `string'
PUBLIC	??_C@_08BLGPIPGP@autochop?$AA@			; `string'
PUBLIC	??_C@_0BA@KEKJOJEJ@autopop_quartic?$AA@		; `string'
PUBLIC	??_C@_07LEJGIFAD@autopop?$AA@			; `string'
PUBLIC	??_C@_05CBPKLGJM@phase?$AA@			; `string'
PUBLIC	??_C@_09JNGEFCBF@phasefile?$AA@			; `string'
PUBLIC	??_C@_0BB@MNCGPOEG@approx_curvature?$AA@	; `string'
PUBLIC	??_C@_0BG@CNKFKNKC@approximate_curvature?$AA@	; `string'
PUBLIC	??_C@_09PDIDGCEH@homothety?$AA@			; `string'
PUBLIC	??_C@_0BK@PJALNND@view_transform_generators?$AA@ ; `string'
PUBLIC	??_C@_0BA@IFLDONLI@view_transforms?$AA@		; `string'
PUBLIC	??_C@_0M@PIDOJOI@view_matrix?$AA@		; `string'
PUBLIC	??_C@_0L@HCEEFND@fixed_area?$AA@		; `string'
PUBLIC	??_C@_0L@IDDPHJLO@area_fixed?$AA@		; `string'
PUBLIC	??_C@_06FJKEMHGD@global?$AA@			; `string'
PUBLIC	??_C@_0O@LJFOIPB@global_method?$AA@		; `string'
PUBLIC	??_C@_09EMCPFNEA@info_only?$AA@			; `string'
PUBLIC	??_C@_07CJECEDDG@modulus?$AA@			; `string'
PUBLIC	??_C@_0BD@MOPCCJLG@boundary_curvature?$AA@	; `string'
PUBLIC	??_C@_04BGEKJPHF@bare?$AA@			; `string'
PUBLIC	??_C@_0BA@LJFNGFOM@mobility_tensor?$AA@		; `string'
PUBLIC	??_C@_08DJCKBMBN@mobility?$AA@			; `string'
PUBLIC	??_C@_0P@LNEAGBL@form_integrand?$AA@		; `string'
PUBLIC	??_C@_0P@HMNODAPJ@k_vector_order?$AA@		; `string'
PUBLIC	??_C@_0BB@CNKNAII@vector_integrand?$AA@		; `string'
PUBLIC	??_C@_0BB@KCGOMKJL@scalar_integrand?$AA@	; `string'
PUBLIC	??_C@_06GABBCIBA@method?$AA@			; `string'
PUBLIC	??_C@_0BA@FCDDEKDG@method_instance?$AA@		; `string'
PUBLIC	??_C@_09HGIEBAJ@attribute?$AA@			; `string'
PUBLIC	??_C@_06EPMMJFDC@define?$AA@			; `string'
PUBLIC	??_C@_06JJLAMBGK@target?$AA@			; `string'
PUBLIC	??_C@_05MFEJDJP@value?$AA@			; `string'
PUBLIC	??_C@_0BG@DMHBIFMB@everything_quantities?$AA@	; `string'
PUBLIC	??_C@_0BF@PCMDHFO@optimising_parameter?$AA@	; `string'
PUBLIC	??_C@_0BF@HJFOCADB@optimizing_parameter?$AA@	; `string'
PUBLIC	??_C@_0M@JADJAFPH@parameter_2?$AA@		; `string'
PUBLIC	??_C@_0M@LLBEFGDE@parameter_1?$AA@		; `string'
PUBLIC	??_C@_0P@DDMFGHDB@lagrange_order?$AA@		; `string'
PUBLIC	??_C@_08JNKCHLOP@lagrange?$AA@			; `string'
PUBLIC	??_C@_0M@BIHLDDLK@axial_point?$AA@		; `string'
PUBLIC	??_C@_0BC@KPHKHJOD@interp_bdry_param?$AA@	; `string'
PUBLIC	??_C@_0N@KPOPAFCP@load_library?$AA@		; `string'
PUBLIC	??_C@_0N@DPCDAEDN@ignore_fixed?$AA@		; `string'
PUBLIC	??_C@_0BD@IJHNDEKK@ignore_constraints?$AA@	; `string'
PUBLIC	??_C@_0M@KPMDGEHG@orientation?$AA@		; `string'
PUBLIC	??_C@_0BA@DKKLMIEO@evolver_version?$AA@		; `string'
PUBLIC	??_C@_0BE@MPMEKLIN@lagrange_multiplier?$AA@	; `string'
PUBLIC	??_C@_09FFJNLCDE@tolerance?$AA@			; `string'
PUBLIC	??_C@_0P@EHFNPAFG@on_assign_call?$AA@		; `string'
PUBLIC	??_C@_06BCKCJHAK@pdelta?$AA@			; `string'
PUBLIC	??_C@_0M@MGPGBEBP@keep_macros?$AA@		; `string'
PUBLIC	??_C@_0O@CFOLDLE@actual_volume?$AA@		; `string'
PUBLIC	??_C@_09GHGMGLNO@conserved?$AA@			; `string'
PUBLIC	??_C@_04PJDNGLKJ@self?$AA@			; `string'
PUBLIC	??_C@_0M@GNHLGAPA@swap_colors?$AA@		; `string'
PUBLIC	??_C@_0BA@EFLDDNJL@element_modulus?$AA@		; `string'
PUBLIC	??_C@_0P@NAPIFNOG@keep_originals?$AA@		; `string'
PUBLIC	??_C@_0BO@JLAEKIJE@hessian_special_normal_vector?$AA@ ; `string'
PUBLIC	??_C@_0BB@CNJENMNM@area_method_name?$AA@	; `string'
PUBLIC	??_C@_0BD@LPDEKMFI@length_method_name?$AA@	; `string'
PUBLIC	??_C@_0P@OAMDDONM@display_origin?$AA@		; `string'
PUBLIC	??_C@_09KAGJCBDL@procedure?$AA@			; `string'
PUBLIC	??_C@_0BA@FGAGLOAP@partner_hitting?$AA@		; `string'
PUBLIC	??_C@_0BD@PDLHDKOI@volume_method_name?$AA@	; `string'
PUBLIC	??_C@_0BD@JLBMBNDA@unsuppress_warning?$AA@	; `string'
PUBLIC	??_C@_0BB@DAFJNDLH@suppress_warning?$AA@	; `string'
PUBLIC	??_C@_0O@FHDEFNFH@high_boundary?$AA@		; `string'
PUBLIC	??_C@_0BA@HEFKJKJG@high_constraint?$AA@		; `string'
PUBLIC	??_C@_0N@BGNGCLLP@content_rank?$AA@		; `string'
PUBLIC	??_C@_0BD@DOOANBHL@on_method_instance?$AA@	; `string'
PUBLIC	??_C@_0M@GPHPDHLO@on_quantity?$AA@		; `string'
PUBLIC	??_C@_0M@CFABBPOL@on_boundary?$AA@		; `string'
PUBLIC	??_C@_0BE@CFDLCAJO@value_of_constraint?$AA@	; `string'
PUBLIC	??_C@_0P@FJLNFBKF@hit_constraint?$AA@		; `string'
PUBLIC	??_C@_0O@KEPICJKL@on_constraint?$AA@		; `string'
PUBLIC	??_C@_0M@GOLNCKNL@slice_coeff?$AA@		; `string'
PUBLIC	??_C@_0L@PJJPIEAP@clip_coeff?$AA@		; `string'
PUBLIC	??_C@_0BB@EHCKFCGI@mpi_local_bodies?$AA@	; `string'
PUBLIC	??_C@_07IJGPCJHC@opacity?$AA@			; `string'
PUBLIC	??_C@_0BL@GEDNAPDC@method_instances_predicted?$AA@ ; `string'
PUBLIC	??_C@_0BF@MMBIFFBD@quantities_predicted?$AA@	; `string'
PUBLIC	??_C@_0BF@OBIIONED@facetedges_predicted?$AA@	; `string'
PUBLIC	??_C@_0BB@PCLCALDK@bodies_predicted?$AA@	; `string'
PUBLIC	??_C@_0BB@HJFNDLDG@facets_predicted?$AA@	; `string'
PUBLIC	??_C@_0BA@EPBHJJLH@edges_predicted?$AA@		; `string'
PUBLIC	??_C@_0BD@ICOCBELD@vertices_predicted?$AA@	; `string'
PUBLIC	??_C@_0BA@GIOJPOGN@calculate_in_3d?$AA@		; `string'
PUBLIC	??_C@_06INBLBDJM@?5?7?$AN?0?3?$DL?$AA@		; `string'
PUBLIC	??_C@_01JEJKBAGA@g?$AA@				; `string'
PUBLIC	??_C@_01KGKMHCOC@e?$AA@				; `string'
PUBLIC	??_C@_02OAHAJOFD@pi?$AA@			; `string'
PUBLIC	_yyin
PUBLIC	_yyout
PUBLIC	_const_expr_keywords
PUBLIC	_next_err_token
PUBLIC	_line_no
PUBLIC	_whitespace
PUBLIC	_datafile_keywords
PUBLIC	_mathfunc_keywords
PUBLIC	_mathfunc2_keywords
PUBLIC	_command_keywords
PUBLIC	_togglenames
PUBLIC	_colornames
PUBLIC	_internal_variables
PUBLIC	_inputbuffersize
PUBLIC	_inputbufferspot
PUBLIC	_inputsave_flag
PUBLIC	_ubuff_max
PUBLIC	_ubuff_spot
_DATA	SEGMENT
COMM	_macro_subs_max:DWORD
COMM	_inputbuffer:DWORD
COMM	_unput_tok_count:DWORD
COMM	_macro_subs_top:DWORD
COMM	_err_tok_gen_flag:DWORD
COMM	_yytext_max:DWORD
COMM	_morebuff:BYTE:03eaH
COMM	_unput_buff:DWORD
COMM	_yyleng:DWORD
COMM	_yylval:BYTE:068H
COMM	_macro_flag:DWORD
COMM	_unputted_tok:DWORD:0aH
COMM	_macro_max:DWORD
COMM	_yytext:DWORD
COMM	_token_count:DWORD
_DATA	ENDS
_BSS	SEGMENT
_yy_current_buffer DD 01H DUP (?)
_yy_c_buf_p DD	01H DUP (?)
_yy_start DD	01H DUP (?)
_yyin	DD	01H DUP (?)
_yyout	DD	01H DUP (?)
_previous_char DD 01H DUP (?)
_BUFFSIZE DD	01H DUP (?)
_buff	DD	01H DUP (?)
_spot	DD	01H DUP (?)
_next_err_token DD 01H DUP (?)
_inputbuffersize DD 01H DUP (?)
_inputbufferspot DD 01H DUP (?)
_inputsave_flag DD 01H DUP (?)
?sorted@?1??identcase@@9@9 DD 01H DUP (?)		; `identcase'::`2'::sorted
_ubuff_max DD	01H DUP (?)
_ubuff_spot DD	01H DUP (?)
_BSS	ENDS
;	COMDAT ??_C@_0M@FKBLKCGO@where_count?$AA@
CONST	SEGMENT
??_C@_0M@FKBLKCGO@where_count?$AA@ DB 'where_count', 00H ; `string'
CONST	ENDS
;	COMDAT ??_C@_09NANCMDLE@pop_count?$AA@
CONST	SEGMENT
??_C@_09NANCMDLE@pop_count?$AA@ DB 'pop_count', 00H	; `string'
CONST	ENDS
;	COMDAT ??_C@_0P@JACOHDHP@dissolve_count?$AA@
CONST	SEGMENT
??_C@_0P@JACOHDHP@dissolve_count?$AA@ DB 'dissolve_count', 00H ; `string'
CONST	ENDS
;	COMDAT ??_C@_0M@KEDMJLF@notch_count?$AA@
CONST	SEGMENT
??_C@_0M@KEDMJLF@notch_count?$AA@ DB 'notch_count', 00H	; `string'
CONST	ENDS
;	COMDAT ??_C@_0N@BGIPOCMC@refine_count?$AA@
CONST	SEGMENT
??_C@_0N@BGIPOCMC@refine_count?$AA@ DB 'refine_count', 00H ; `string'
CONST	ENDS
;	COMDAT ??_C@_0N@MDBAOLCA@delete_count?$AA@
CONST	SEGMENT
??_C@_0N@MDBAOLCA@delete_count?$AA@ DB 'delete_count', 00H ; `string'
CONST	ENDS
;	COMDAT ??_C@_0L@MMIEKJIF@equi_count?$AA@
CONST	SEGMENT
??_C@_0L@MMIEKJIF@equi_count?$AA@ DB 'equi_count', 00H	; `string'
CONST	ENDS
;	COMDAT ??_C@_0BA@FLAJOIPD@hessian_epsilon?$AA@
CONST	SEGMENT
??_C@_0BA@FLAJOIPD@hessian_epsilon?$AA@ DB 'hessian_epsilon', 00H ; `string'
CONST	ENDS
;	COMDAT ??_C@_0N@PMIPBODO@total_length?$AA@
CONST	SEGMENT
??_C@_0N@PMIPBODO@total_length?$AA@ DB 'total_length', 00H ; `string'
CONST	ENDS
;	COMDAT ??_C@_0L@KNDBPLBH@total_area?$AA@
CONST	SEGMENT
??_C@_0L@KNDBPLBH@total_area?$AA@ DB 'total_area', 00H	; `string'
CONST	ENDS
;	COMDAT ??_C@_0N@FOHOADKL@total_energy?$AA@
CONST	SEGMENT
??_C@_0N@FOHOADKL@total_energy?$AA@ DB 'total_energy', 00H ; `string'
CONST	ENDS
;	COMDAT ??_C@_0BA@KJPGFHE@facetedge_count?$AA@
CONST	SEGMENT
??_C@_0BA@KJPGFHE@facetedge_count?$AA@ DB 'facetedge_count', 00H ; `string'
CONST	ENDS
;	COMDAT ??_C@_0L@BLNIGKEE@body_count?$AA@
CONST	SEGMENT
??_C@_0L@BLNIGKEE@body_count?$AA@ DB 'body_count', 00H	; `string'
CONST	ENDS
;	COMDAT ??_C@_0M@MDEFFDDC@facet_count?$AA@
CONST	SEGMENT
??_C@_0M@MDEFFDDC@facet_count?$AA@ DB 'facet_count', 00H ; `string'
CONST	ENDS
;	COMDAT ??_C@_0L@NIJKJMJB@edge_count?$AA@
CONST	SEGMENT
??_C@_0L@NIJKJMJB@edge_count?$AA@ DB 'edge_count', 00H	; `string'
CONST	ENDS
;	COMDAT ??_C@_0N@HPKCIPGC@vertex_count?$AA@
CONST	SEGMENT
??_C@_0N@HPKCIPGC@vertex_count?$AA@ DB 'vertex_count', 00H ; `string'
CONST	ENDS
;	COMDAT ??_C@_0M@FONFPPOA@scale_scale?$AA@
CONST	SEGMENT
??_C@_0M@FONFPPOA@scale_scale?$AA@ DB 'scale_scale', 00H ; `string'
CONST	ENDS
;	COMDAT ??_C@_0BC@OLOACPCP@iteration_counter?$AA@
CONST	SEGMENT
??_C@_0BC@OLOACPCP@iteration_counter?$AA@ DB 'iteration_counter', 00H ; `string'
CONST	ENDS
;	COMDAT ??_C@_0BD@HHELJMGO@jiggle_temperature?$AA@
CONST	SEGMENT
??_C@_0BD@HHELJMGO@jiggle_temperature?$AA@ DB 'jiggle_temperature', 00H ; `string'
CONST	ENDS
;	COMDAT ??_C@_09OAKPPPIB@eigenzero?$AA@
CONST	SEGMENT
??_C@_09OAKPPPIB@eigenzero?$AA@ DB 'eigenzero', 00H	; `string'
CONST	ENDS
;	COMDAT ??_C@_08EPNFMFBP@eigenneg?$AA@
CONST	SEGMENT
??_C@_08EPNFMFBP@eigenneg?$AA@ DB 'eigenneg', 00H	; `string'
CONST	ENDS
;	COMDAT ??_C@_08NMCKLHDA@eigenpos?$AA@
CONST	SEGMENT
??_C@_08NMCKLHDA@eigenpos?$AA@ DB 'eigenpos', 00H	; `string'
CONST	ENDS
;	COMDAT ??_C@_0L@BENLKAPC@eigen_zero?$AA@
CONST	SEGMENT
??_C@_0L@BENLKAPC@eigen_zero?$AA@ DB 'eigen_zero', 00H	; `string'
CONST	ENDS
;	COMDAT ??_C@_09OPDPOHAJ@eigen_neg?$AA@
CONST	SEGMENT
??_C@_09OPDPOHAJ@eigen_neg?$AA@ DB 'eigen_neg', 00H	; `string'
CONST	ENDS
;	COMDAT ??_C@_09HMMAJFCG@eigen_pos?$AA@
CONST	SEGMENT
??_C@_09HMMAJFCG@eigen_pos?$AA@ DB 'eigen_pos', 00H	; `string'
CONST	ENDS
;	COMDAT ??_C@_08LBHOIHHJ@pickfnum?$AA@
CONST	SEGMENT
??_C@_08LBHOIHHJ@pickfnum?$AA@ DB 'pickfnum', 00H	; `string'
CONST	ENDS
;	COMDAT ??_C@_08PGNOPNKJ@pickenum?$AA@
CONST	SEGMENT
??_C@_08PGNOPNKJ@pickenum?$AA@ DB 'pickenum', 00H	; `string'
CONST	ENDS
;	COMDAT ??_C@_08NBJOBAPL@pickvnum?$AA@
CONST	SEGMENT
??_C@_08NBJOBAPL@pickvnum?$AA@ DB 'pickvnum', 00H	; `string'
CONST	ENDS
;	COMDAT ??_C@_0BF@GFGAKDLL@quadratic_metric_mix?$AA@
CONST	SEGMENT
??_C@_0BF@GFGAKDLL@quadratic_metric_mix?$AA@ DB 'quadratic_metric_mix', 00H ; `string'
CONST	ENDS
;	COMDAT ??_C@_0BC@DAHPKAPK@linear_metric_mix?$AA@
CONST	SEGMENT
??_C@_0BC@DAHPKAPK@linear_metric_mix?$AA@ DB 'linear_metric_mix', 00H ; `string'
CONST	ENDS
;	COMDAT ??_C@_06NLFCANPD@random?$AA@
CONST	SEGMENT
??_C@_06NLFCANPD@random?$AA@ DB 'random', 00H		; `string'
CONST	ENDS
;	COMDAT ??_C@_0M@PANFJEDO@random_seed?$AA@
CONST	SEGMENT
??_C@_0M@PANFJEDO@random_seed?$AA@ DB 'random_seed', 00H ; `string'
CONST	ENDS
;	COMDAT ??_C@_0BD@CHOAMOKA@last_hessian_scale?$AA@
CONST	SEGMENT
??_C@_0BD@CHOAMOKA@last_hessian_scale?$AA@ DB 'last_hessian_scale', 00H ; `string'
CONST	ENDS
;	COMDAT ??_C@_0BA@OBNGJMBG@last_eigenvalue?$AA@
CONST	SEGMENT
??_C@_0BA@OBNGJMBG@last_eigenvalue?$AA@ DB 'last_eigenvalue', 00H ; `string'
CONST	ENDS
;	COMDAT ??_C@_09GLPKLBIH@thickness?$AA@
CONST	SEGMENT
??_C@_09GLPKLBIH@thickness?$AA@ DB 'thickness', 00H	; `string'
CONST	ENDS
;	COMDAT ??_C@_0BB@GHHBGKKF@target_tolerance?$AA@
CONST	SEGMENT
??_C@_0BB@GHHBGKKF@target_tolerance?$AA@ DB 'target_tolerance', 00H ; `string'
CONST	ENDS
;	COMDAT ??_C@_0M@HBHAPOJO@cpu_counter?$AA@
CONST	SEGMENT
??_C@_0M@HBHAPOJO@cpu_counter?$AA@ DB 'cpu_counter', 00H ; `string'
CONST	ENDS
;	COMDAT ??_C@_05DDECJJKE@clock?$AA@
CONST	SEGMENT
??_C@_05DDECJJKE@clock?$AA@ DB 'clock', 00H		; `string'
CONST	ENDS
;	COMDAT ??_C@_0BA@BIIIJIED@transform_count?$AA@
CONST	SEGMENT
??_C@_0BA@BIIIJIED@transform_count?$AA@ DB 'transform_count', 00H ; `string'
CONST	ENDS
;	COMDAT ??_C@_0BA@JDILIPNO@diffusion_coeff?$AA@
CONST	SEGMENT
??_C@_0BA@JDILIPNO@diffusion_coeff?$AA@ DB 'diffusion_coeff', 00H ; `string'
CONST	ENDS
;	COMDAT ??_C@_0L@BECHNFGG@brightness?$AA@
CONST	SEGMENT
??_C@_0L@BECHNFGG@brightness?$AA@ DB 'brightness', 00H	; `string'
CONST	ENDS
;	COMDAT ??_C@_0L@EGCKCJDC@background?$AA@
CONST	SEGMENT
??_C@_0L@EGCKCJDC@background?$AA@ DB 'background', 00H	; `string'
CONST	ENDS
;	COMDAT ??_C@_0M@NJPPNBCL@memory_used?$AA@
CONST	SEGMENT
??_C@_0M@NJPPNBCL@memory_used?$AA@ DB 'memory_used', 00H ; `string'
CONST	ENDS
;	COMDAT ??_C@_0N@HIDDLAJM@memory_arena?$AA@
CONST	SEGMENT
??_C@_0N@HIDDLAJM@memory_arena?$AA@ DB 'memory_arena', 00H ; `string'
CONST	ENDS
;	COMDAT ??_C@_0L@IAKFAOLO@last_error?$AA@
CONST	SEGMENT
??_C@_0L@IAKFAOLO@last_error?$AA@ DB 'last_error', 00H	; `string'
CONST	ENDS
;	COMDAT ??_C@_0BH@OAPNEHDB@ambient_pressure_value?$AA@
CONST	SEGMENT
??_C@_0BH@OAPNEHDB@ambient_pressure_value?$AA@ DB 'ambient_pressure_value'
	DB	00H						; `string'
CONST	ENDS
;	COMDAT ??_C@_0BF@PLHANHAM@hessian_slant_cutoff?$AA@
CONST	SEGMENT
??_C@_0BF@PLHANHAM@hessian_slant_cutoff?$AA@ DB 'hessian_slant_cutoff', 00H ; `string'
CONST	ENDS
;	COMDAT ??_C@_09MEOACIKB@breakflag?$AA@
CONST	SEGMENT
??_C@_09MEOACIKB@breakflag?$AA@ DB 'breakflag', 00H	; `string'
CONST	ENDS
;	COMDAT ??_C@_0BA@HBCDBDGE@bad_error_count?$AA@
CONST	SEGMENT
??_C@_0BA@HBCDBDGE@bad_error_count?$AA@ DB 'bad_error_count', 00H ; `string'
CONST	ENDS
;	COMDAT ??_C@_0BL@CKKLJMAI@facets_same_vertices_count?$AA@
CONST	SEGMENT
??_C@_0BL@CKKLJMAI@facets_same_vertices_count?$AA@ DB 'facets_same_vertic'
	DB	'es_count', 00H				; `string'
CONST	ENDS
;	COMDAT ??_C@_0BK@JKNABKBA@edges_same_vertices_count?$AA@
CONST	SEGMENT
??_C@_0BK@JKNABKBA@edges_same_vertices_count?$AA@ DB 'edges_same_vertices'
	DB	'_count', 00H				; `string'
CONST	ENDS
;	COMDAT ??_C@_0BA@GMPBMHMF@edge_loop_count?$AA@
CONST	SEGMENT
??_C@_0BA@GMPBMHMF@edge_loop_count?$AA@ DB 'edge_loop_count', 00H ; `string'
CONST	ENDS
;	COMDAT ??_C@_0BK@LLHOBCKD@inconsistent_bodies_count?$AA@
CONST	SEGMENT
??_C@_0BK@LLHOBCKD@inconsistent_bodies_count?$AA@ DB 'inconsistent_bodies'
	DB	'_count', 00H				; `string'
CONST	ENDS
;	COMDAT ??_C@_0BE@CJKHIDDP@bad_next_prev_count?$AA@
CONST	SEGMENT
??_C@_0BE@CJKHIDDP@bad_next_prev_count?$AA@ DB 'bad_next_prev_count', 00H ; `string'
CONST	ENDS
;	COMDAT ??_C@_0M@PLDEDAON@check_count?$AA@
CONST	SEGMENT
??_C@_0M@PLDEDAON@check_count?$AA@ DB 'check_count', 00H ; `string'
CONST	ENDS
;	COMDAT ??_C@_0BB@GILLHKAL@visibility_debug?$AA@
CONST	SEGMENT
??_C@_0BB@GILLHKAL@visibility_debug?$AA@ DB 'visibility_debug', 00H ; `string'
CONST	ENDS
;	COMDAT ??_C@_0BB@NLMEBPED@scrollbuffersize?$AA@
CONST	SEGMENT
??_C@_0BB@NLMEBPED@scrollbuffersize?$AA@ DB 'scrollbuffersize', 00H ; `string'
CONST	ENDS
;	COMDAT ??_C@_0BB@OFCJADDO@ps_gridedgewidth?$AA@
CONST	SEGMENT
??_C@_0BB@OFCJADDO@ps_gridedgewidth?$AA@ DB 'ps_gridedgewidth', 00H ; `string'
CONST	ENDS
;	COMDAT ??_C@_0BB@NEEDDBHF@ps_bareedgewidth?$AA@
CONST	SEGMENT
??_C@_0BB@NEEDDBHF@ps_bareedgewidth?$AA@ DB 'ps_bareedgewidth', 00H ; `string'
CONST	ENDS
;	COMDAT ??_C@_0BA@LMLNIMJE@ps_conedgewidth?$AA@
CONST	SEGMENT
??_C@_0BA@LMLNIMJE@ps_conedgewidth?$AA@ DB 'ps_conedgewidth', 00H ; `string'
CONST	ENDS
;	COMDAT ??_C@_0BD@DOBHCOCD@ps_tripleedgewidth?$AA@
CONST	SEGMENT
??_C@_0BD@DOBHCOCD@ps_tripleedgewidth?$AA@ DB 'ps_tripleedgewidth', 00H ; `string'
CONST	ENDS
;	COMDAT ??_C@_0BC@CPCJJCCO@ps_fixededgewidth?$AA@
CONST	SEGMENT
??_C@_0BC@CPCJJCCO@ps_fixededgewidth?$AA@ DB 'ps_fixededgewidth', 00H ; `string'
CONST	ENDS
;	COMDAT ??_C@_0P@MKDKOLJB@ps_stringwidth?$AA@
CONST	SEGMENT
??_C@_0P@MKDKOLJB@ps_stringwidth?$AA@ DB 'ps_stringwidth', 00H ; `string'
CONST	ENDS
;	COMDAT ??_C@_0N@PPOIJFFB@ps_labelsize?$AA@
CONST	SEGMENT
??_C@_0N@PPOIJFFB@ps_labelsize?$AA@ DB 'ps_labelsize', 00H ; `string'
CONST	ENDS
;	COMDAT ??_C@_0BC@EADCAAG@t1_edgeswap_count?$AA@
CONST	SEGMENT
??_C@_0BC@EADCAAG@t1_edgeswap_count?$AA@ DB 't1_edgeswap_count', 00H ; `string'
CONST	ENDS
;	COMDAT ??_C@_0P@IOOMGAHI@edgeswap_count?$AA@
CONST	SEGMENT
??_C@_0P@IOOMGAHI@edgeswap_count?$AA@ DB 'edgeswap_count', 00H ; `string'
CONST	ENDS
;	COMDAT ??_C@_0BH@GEAHEOKO@pop_quad_to_quad_count?$AA@
CONST	SEGMENT
??_C@_0BH@GEAHEOKO@pop_quad_to_quad_count?$AA@ DB 'pop_quad_to_quad_count'
	DB	00H						; `string'
CONST	ENDS
;	COMDAT ??_C@_0BG@LGGDNHOG@pop_edge_to_tri_count?$AA@
CONST	SEGMENT
??_C@_0BG@LGGDNHOG@pop_edge_to_tri_count?$AA@ DB 'pop_edge_to_tri_count', 00H ; `string'
CONST	ENDS
;	COMDAT ??_C@_0BG@NFPFNFEP@pop_tri_to_edge_count?$AA@
CONST	SEGMENT
??_C@_0BG@NFPFNFEP@pop_tri_to_edge_count?$AA@ DB 'pop_tri_to_edge_count', 00H ; `string'
CONST	ENDS
;	COMDAT ??_C@_0P@CIHELNID@edge_pop_count?$AA@
CONST	SEGMENT
??_C@_0P@CIHELNID@edge_pop_count?$AA@ DB 'edge_pop_count', 00H ; `string'
CONST	ENDS
;	COMDAT ??_C@_0BB@PNOKJDFD@vertex_pop_count?$AA@
CONST	SEGMENT
??_C@_0BB@PNOKJDFD@vertex_pop_count?$AA@ DB 'vertex_pop_count', 00H ; `string'
CONST	ENDS
;	COMDAT ??_C@_0BD@KDOCBOAO@facet_refine_count?$AA@
CONST	SEGMENT
??_C@_0BD@KDOCBOAO@facet_refine_count?$AA@ DB 'facet_refine_count', 00H ; `string'
CONST	ENDS
;	COMDAT ??_C@_0BC@LJKCEDIK@edge_refine_count?$AA@
CONST	SEGMENT
??_C@_0BC@LJKCEDIK@edge_refine_count?$AA@ DB 'edge_refine_count', 00H ; `string'
CONST	ENDS
;	COMDAT ??_C@_0BE@CKCDJLNA@body_dissolve_count?$AA@
CONST	SEGMENT
??_C@_0BE@CKCDJLNA@body_dissolve_count?$AA@ DB 'body_dissolve_count', 00H ; `string'
CONST	ENDS
;	COMDAT ??_C@_0BF@EDGKOAGH@facet_dissolve_count?$AA@
CONST	SEGMENT
??_C@_0BF@EDGKOAGH@facet_dissolve_count?$AA@ DB 'facet_dissolve_count', 00H ; `string'
CONST	ENDS
;	COMDAT ??_C@_0BE@JFPIKCB@edge_dissolve_count?$AA@
CONST	SEGMENT
??_C@_0BE@JFPIKCB@edge_dissolve_count?$AA@ DB 'edge_dissolve_count', 00H ; `string'
CONST	ENDS
;	COMDAT ??_C@_0BG@MLIFIJNF@vertex_dissolve_count?$AA@
CONST	SEGMENT
??_C@_0BG@MLIFIJNF@vertex_dissolve_count?$AA@ DB 'vertex_dissolve_count', 00H ; `string'
CONST	ENDS
;	COMDAT ??_C@_0BD@HGHNBHOM@facet_delete_count?$AA@
CONST	SEGMENT
??_C@_0BD@HGHNBHOM@facet_delete_count?$AA@ DB 'facet_delete_count', 00H ; `string'
CONST	ENDS
;	COMDAT ??_C@_0BC@GMDNEKGI@edge_delete_count?$AA@
CONST	SEGMENT
??_C@_0BC@GMDNEKGI@edge_delete_count?$AA@ DB 'edge_delete_count', 00H ; `string'
CONST	ENDS
;	COMDAT ??_C@_0M@HMIJLFOH@unfix_count?$AA@
CONST	SEGMENT
??_C@_0M@HMIJLFOH@unfix_count?$AA@ DB 'unfix_count', 00H ; `string'
CONST	ENDS
;	COMDAT ??_C@_09FKJNFACE@fix_count?$AA@
CONST	SEGMENT
??_C@_09FKJNFACE@fix_count?$AA@ DB 'fix_count', 00H	; `string'
CONST	ENDS
;	COMDAT ??_C@_0O@IOPDAKCK@mindeg_margin?$AA@
CONST	SEGMENT
??_C@_0O@IOPDAKCK@mindeg_margin?$AA@ DB 'mindeg_margin', 00H ; `string'
CONST	ENDS
;	COMDAT ??_C@_0BH@CCPNJHKC@mindeg_min_region_size?$AA@
CONST	SEGMENT
??_C@_0BH@CCPNJHKC@mindeg_min_region_size?$AA@ DB 'mindeg_min_region_size'
	DB	00H						; `string'
CONST	ENDS
;	COMDAT ??_C@_0BD@ICNMFEGJ@mindeg_debug_level?$AA@
CONST	SEGMENT
??_C@_0BD@ICNMFEGJ@mindeg_debug_level?$AA@ DB 'mindeg_debug_level', 00H ; `string'
CONST	ENDS
;	COMDAT ??_C@_0BE@LMLDEADG@window_aspect_ratio?$AA@
CONST	SEGMENT
??_C@_0BE@LMLDEADG@window_aspect_ratio?$AA@ DB 'window_aspect_ratio', 00H ; `string'
CONST	ENDS
;	COMDAT ??_C@_09LEOGOINP@this_task?$AA@
CONST	SEGMENT
??_C@_09LEOGOINP@this_task?$AA@ DB 'this_task', 00H	; `string'
CONST	ENDS
;	COMDAT ??_C@_0M@JCMEGIAD@mpi_maxtask?$AA@
CONST	SEGMENT
??_C@_0M@JCMEGIAD@mpi_maxtask?$AA@ DB 'mpi_maxtask', 00H ; `string'
CONST	ENDS
;	COMDAT ??_C@_0N@ILKHNNHO@corona_state?$AA@
CONST	SEGMENT
??_C@_0N@ILKHNNHO@corona_state?$AA@ DB 'corona_state', 00H ; `string'
CONST	ENDS
;	COMDAT ??_C@_0BH@CENGABA@string_curve_tolerance?$AA@
CONST	SEGMENT
??_C@_0BH@CENGABA@string_curve_tolerance?$AA@ DB 'string_curve_tolerance', 00H ; `string'
CONST	ENDS
;	COMDAT ??_C@_0BA@OIGENEKE@autochop_length?$AA@
CONST	SEGMENT
??_C@_0BA@OIGENEKE@autochop_length?$AA@ DB 'autochop_length', 00H ; `string'
CONST	ENDS
;	COMDAT ??_C@_0BA@GKOHKDJ@detorus_epsilon?$AA@
CONST	SEGMENT
??_C@_0BA@GKOHKDJ@detorus_epsilon?$AA@ DB 'detorus_epsilon', 00H ; `string'
CONST	ENDS
;	COMDAT ??_C@_0BD@ENGCHOCN@bounding_box_color?$AA@
CONST	SEGMENT
??_C@_0BD@ENGCHOCN@bounding_box_color?$AA@ DB 'bounding_box_color', 00H ; `string'
CONST	ENDS
;	COMDAT ??_C@_05PMAELIEO@white?$AA@
CONST	SEGMENT
??_C@_05PMAELIEO@white?$AA@ DB 'white', 00H		; `string'
CONST	ENDS
;	COMDAT ??_C@_06ENJNJKEL@yellow?$AA@
CONST	SEGMENT
??_C@_06ENJNJKEL@yellow?$AA@ DB 'yellow', 00H		; `string'
CONST	ENDS
;	COMDAT ??_C@_0N@BBECPGBJ@lightmagenta?$AA@
CONST	SEGMENT
??_C@_0N@BBECPGBJ@lightmagenta?$AA@ DB 'lightmagenta', 00H ; `string'
CONST	ENDS
;	COMDAT ??_C@_08EEFKFEFN@lightred?$AA@
CONST	SEGMENT
??_C@_08EEFKFEFN@lightred?$AA@ DB 'lightred', 00H	; `string'
CONST	ENDS
;	COMDAT ??_C@_09KPGEKFMK@lightcyan?$AA@
CONST	SEGMENT
??_C@_09KPGEKFMK@lightcyan?$AA@ DB 'lightcyan', 00H	; `string'
CONST	ENDS
;	COMDAT ??_C@_0L@OPBGACJD@lightgreen?$AA@
CONST	SEGMENT
??_C@_0L@OPBGACJD@lightgreen?$AA@ DB 'lightgreen', 00H	; `string'
CONST	ENDS
;	COMDAT ??_C@_09NBIPJLA@lightblue?$AA@
CONST	SEGMENT
??_C@_09NBIPJLA@lightblue?$AA@ DB 'lightblue', 00H	; `string'
CONST	ENDS
;	COMDAT ??_C@_08EHDJKNHJ@darkgrey?$AA@
CONST	SEGMENT
??_C@_08EHDJKNHJ@darkgrey?$AA@ DB 'darkgrey', 00H	; `string'
CONST	ENDS
;	COMDAT ??_C@_08EADAAFKF@darkgray?$AA@
CONST	SEGMENT
??_C@_08EADAAFKF@darkgray?$AA@ DB 'darkgray', 00H	; `string'
CONST	ENDS
;	COMDAT ??_C@_04GDBIAANM@grey?$AA@
CONST	SEGMENT
??_C@_04GDBIAANM@grey?$AA@ DB 'grey', 00H		; `string'
CONST	ENDS
;	COMDAT ??_C@_04GEBBKIAA@gray?$AA@
CONST	SEGMENT
??_C@_04GEBBKIAA@gray?$AA@ DB 'gray', 00H		; `string'
CONST	ENDS
;	COMDAT ??_C@_09IPGPKIEB@lightgrey?$AA@
CONST	SEGMENT
??_C@_09IPGPKIEB@lightgrey?$AA@ DB 'lightgrey', 00H	; `string'
CONST	ENDS
;	COMDAT ??_C@_09IIGGAAJN@lightgray?$AA@
CONST	SEGMENT
??_C@_09IIGGAAJN@lightgray?$AA@ DB 'lightgray', 00H	; `string'
CONST	ENDS
;	COMDAT ??_C@_05EBJGJMAL@brown?$AA@
CONST	SEGMENT
??_C@_05EBJGJMAL@brown?$AA@ DB 'brown', 00H		; `string'
CONST	ENDS
;	COMDAT ??_C@_07EMDGAPCI@magenta?$AA@
CONST	SEGMENT
??_C@_07EMDGAPCI@magenta?$AA@ DB 'magenta', 00H		; `string'
CONST	ENDS
;	COMDAT ??_C@_03FAAAOPJM@red?$AA@
CONST	SEGMENT
??_C@_03FAAAOPJM@red?$AA@ DB 'red', 00H			; `string'
CONST	ENDS
;	COMDAT ??_C@_04EDBDANFH@cyan?$AA@
CONST	SEGMENT
??_C@_04EDBDANFH@cyan?$AA@ DB 'cyan', 00H		; `string'
CONST	ENDS
;	COMDAT ??_C@_05GBEEJKMC@green?$AA@
CONST	SEGMENT
??_C@_05GBEEJKMC@green?$AA@ DB 'green', 00H		; `string'
CONST	ENDS
;	COMDAT ??_C@_04OBGPFBCN@blue?$AA@
CONST	SEGMENT
??_C@_04OBGPFBCN@blue?$AA@ DB 'blue', 00H		; `string'
CONST	ENDS
;	COMDAT ??_C@_05BIMBDNDC@black?$AA@
CONST	SEGMENT
??_C@_05BIMBDNDC@black?$AA@ DB 'black', 00H		; `string'
CONST	ENDS
;	COMDAT ??_C@_0M@CEEDCJLA@transparent?$AA@
CONST	SEGMENT
??_C@_0M@CEEDCJLA@transparent?$AA@ DB 'transparent', 00H ; `string'
CONST	ENDS
;	COMDAT ??_C@_05MEHLAELG@clear?$AA@
CONST	SEGMENT
??_C@_05MEHLAELG@clear?$AA@ DB 'clear', 00H		; `string'
CONST	ENDS
;	COMDAT ??_C@_07BCIELMPF@pinning?$AA@
CONST	SEGMENT
??_C@_07BCIELMPF@pinning?$AA@ DB 'pinning', 00H		; `string'
CONST	ENDS
;	COMDAT ??_C@_0L@MABNKBMJ@autorecalc?$AA@
CONST	SEGMENT
??_C@_0L@MABNKBMJ@autorecalc?$AA@ DB 'autorecalc', 00H	; `string'
CONST	ENDS
;	COMDAT ??_C@_0BC@LJJGFBGD@metric_conversion?$AA@
CONST	SEGMENT
??_C@_0BC@LJJGFBGD@metric_conversion?$AA@ DB 'metric_conversion', 00H ; `string'
CONST	ENDS
;	COMDAT ??_C@_09BPDDPHCA@gv_binary?$AA@
CONST	SEGMENT
??_C@_09BPDDPHCA@gv_binary?$AA@ DB 'gv_binary', 00H	; `string'
CONST	ENDS
;	COMDAT ??_C@_0N@FFMNCIGF@self_similar?$AA@
CONST	SEGMENT
??_C@_0N@FFMNCIGF@self_similar?$AA@ DB 'self_similar', 00H ; `string'
CONST	ENDS
;	COMDAT ??_C@_0BF@KHPBBAHH@div_normal_curvature?$AA@
CONST	SEGMENT
??_C@_0BF@KHPBBAHH@div_normal_curvature?$AA@ DB 'div_normal_curvature', 00H ; `string'
CONST	ENDS
;	COMDAT ??_C@_07IBJKBKNG@shading?$AA@
CONST	SEGMENT
??_C@_07IBJKBKNG@shading?$AA@ DB 'shading', 00H		; `string'
CONST	ENDS
;	COMDAT ??_C@_0N@BNMHNAMC@facet_colors?$AA@
CONST	SEGMENT
??_C@_0N@BNMHNAMC@facet_colors?$AA@ DB 'facet_colors', 00H ; `string'
CONST	ENDS
;	COMDAT ??_C@_09BAKALBHB@conj_grad?$AA@
CONST	SEGMENT
??_C@_09BAKALBHB@conj_grad?$AA@ DB 'conj_grad', 00H	; `string'
CONST	ENDS
;	COMDAT ??_C@_0O@HCDDDEHN@hessian_quiet?$AA@
CONST	SEGMENT
??_C@_0O@HCDDDEHN@hessian_quiet?$AA@ DB 'hessian_quiet', 00H ; `string'
CONST	ENDS
;	COMDAT ??_C@_07HBPOHFLN@quietgo?$AA@
CONST	SEGMENT
??_C@_07HBPOHFLN@quietgo?$AA@ DB 'quietgo', 00H		; `string'
CONST	ENDS
;	COMDAT ??_C@_05PMBAOCDH@quiet?$AA@
CONST	SEGMENT
??_C@_05PMBAOCDH@quiet?$AA@ DB 'quiet', 00H		; `string'
CONST	ENDS
;	COMDAT ??_C@_0L@DLCCMBJF@transforms?$AA@
CONST	SEGMENT
??_C@_0L@DLCCMBJF@transforms?$AA@ DB 'transforms', 00H	; `string'
CONST	ENDS
;	COMDAT ??_C@_0N@NFINOFHM@post_project?$AA@
CONST	SEGMENT
??_C@_0N@NFINOFHM@post_project?$AA@ DB 'post_project', 00H ; `string'
CONST	ENDS
;	COMDAT ??_C@_08LDELGPJH@estimate?$AA@
CONST	SEGMENT
??_C@_08LDELGPJH@estimate?$AA@ DB 'estimate', 00H	; `string'
CONST	ENDS
;	COMDAT ??_C@_07GFBFDLBM@gravity?$AA@
CONST	SEGMENT
??_C@_07GFBFDLBM@gravity?$AA@ DB 'gravity', 00H		; `string'
CONST	ENDS
;	COMDAT ??_C@_07GGEALCBM@itdebug?$AA@
CONST	SEGMENT
??_C@_07GGEALCBM@itdebug?$AA@ DB 'itdebug', 00H		; `string'
CONST	ENDS
;	COMDAT ??_C@_08ONKONDHK@memdebug?$AA@
CONST	SEGMENT
??_C@_08ONKONDHK@memdebug?$AA@ DB 'memdebug', 00H	; `string'
CONST	ENDS
;	COMDAT ??_C@_05GFCDIDHO@debug?$AA@
CONST	SEGMENT
??_C@_05GFCDIDHO@debug?$AA@ DB 'debug', 00H		; `string'
CONST	ENDS
;	COMDAT ??_C@_0P@OGHBAHOF@check_increase?$AA@
CONST	SEGMENT
??_C@_0P@OGHBAHOF@check_increase?$AA@ DB 'check_increase', 00H ; `string'
CONST	ENDS
;	COMDAT ??_C@_0M@GGBEIMML@approx_curv?$AA@
CONST	SEGMENT
??_C@_0M@GGBEIMML@approx_curv?$AA@ DB 'approx_curv', 00H ; `string'
CONST	ENDS
;	COMDAT ??_C@_08MINHKHMD@old_area?$AA@
CONST	SEGMENT
??_C@_08MINHKHMD@old_area?$AA@ DB 'old_area', 00H	; `string'
CONST	ENDS
;	COMDAT ??_C@_07ENPKKAPH@sqgauss?$AA@
CONST	SEGMENT
??_C@_07ENPKKAPH@sqgauss?$AA@ DB 'sqgauss', 00H		; `string'
CONST	ENDS
;	COMDAT ??_C@_09MFCEMNNF@conf_edge?$AA@
CONST	SEGMENT
??_C@_09MFCEMNNF@conf_edge?$AA@ DB 'conf_edge', 00H	; `string'
CONST	ENDS
;	COMDAT ??_C@_07EMJKOPJK@view_4d?$AA@
CONST	SEGMENT
??_C@_07EMJKOPJK@view_4d?$AA@ DB 'view_4d', 00H		; `string'
CONST	ENDS
;	COMDAT ??_C@_06IGFDKMHM@kusner?$AA@
CONST	SEGMENT
??_C@_06IGFDKMHM@kusner?$AA@ DB 'kusner', 00H		; `string'
CONST	ENDS
;	COMDAT ??_C@_07LLNNGCPP@deturck?$AA@
CONST	SEGMENT
??_C@_07LLNNGCPP@deturck?$AA@ DB 'deturck', 00H		; `string'
CONST	ENDS
;	COMDAT ??_C@_0O@PKIOMPCC@normal_motion?$AA@
CONST	SEGMENT
??_C@_0O@PKIOMPCC@normal_motion?$AA@ DB 'normal_motion', 00H ; `string'
CONST	ENDS
;	COMDAT ??_C@_0N@PBIFKJMI@hessian_diff?$AA@
CONST	SEGMENT
??_C@_0N@PBIFKJMI@hessian_diff?$AA@ DB 'hessian_diff', 00H ; `string'
CONST	ENDS
;	COMDAT ??_C@_07KCLCNBJB@thicken?$AA@
CONST	SEGMENT
??_C@_07KCLCNBJB@thicken?$AA@ DB 'thicken', 00H		; `string'
CONST	ENDS
;	COMDAT ??_C@_08OMBDDLKJ@colormap?$AA@
CONST	SEGMENT
??_C@_08OMBDDLKJ@colormap?$AA@ DB 'colormap', 00H	; `string'
CONST	ENDS
;	COMDAT ??_C@_0L@LOICIGID@show_outer?$AA@
CONST	SEGMENT
??_C@_0L@LOICIGID@show_outer?$AA@ DB 'show_outer', 00H	; `string'
CONST	ENDS
;	COMDAT ??_C@_0BA@FMBIOPNC@connected_cells?$AA@
CONST	SEGMENT
??_C@_0BA@FMBIOPNC@connected_cells?$AA@ DB 'connected_cells', 00H ; `string'
CONST	ENDS
;	COMDAT ??_C@_09JGOMOAGJ@connected?$AA@
CONST	SEGMENT
??_C@_09JGOMOAGJ@connected?$AA@ DB 'connected', 00H	; `string'
CONST	ENDS
;	COMDAT ??_C@_09DNEEIDBP@raw_cells?$AA@
CONST	SEGMENT
??_C@_09DNEEIDBP@raw_cells?$AA@ DB 'raw_cells', 00H	; `string'
CONST	ENDS
;	COMDAT ??_C@_0O@ILHEOIGK@clipped_cells?$AA@
CONST	SEGMENT
??_C@_0O@ILHEOIGK@clipped_cells?$AA@ DB 'clipped_cells', 00H ; `string'
CONST	ENDS
;	COMDAT ??_C@_07HKDEBIPG@clipped?$AA@
CONST	SEGMENT
??_C@_07HKDEBIPG@clipped?$AA@ DB 'clipped', 00H		; `string'
CONST	ENDS
;	COMDAT ??_C@_0L@EAEPHEPG@show_inner?$AA@
CONST	SEGMENT
??_C@_0L@EAEPHEPG@show_inner?$AA@ DB 'show_inner', 00H	; `string'
CONST	ENDS
;	COMDAT ??_C@_0M@DMCDJPBF@autodisplay?$AA@
CONST	SEGMENT
??_C@_0M@DMCDJPBF@autodisplay?$AA@ DB 'autodisplay', 00H ; `string'
CONST	ENDS
;	COMDAT ??_C@_0O@MHBOMMFK@force_pos_def?$AA@
CONST	SEGMENT
??_C@_0O@MHBOMMFK@force_pos_def?$AA@ DB 'force_pos_def', 00H ; `string'
CONST	ENDS
;	COMDAT ??_C@_07PIJPCAMN@ribiere?$AA@
CONST	SEGMENT
??_C@_07PIJPCAMN@ribiere?$AA@ DB 'ribiere', 00H		; `string'
CONST	ENDS
;	COMDAT ??_C@_0BA@NLJCNNPB@assume_oriented?$AA@
CONST	SEGMENT
??_C@_0BA@NLJCNNPB@assume_oriented?$AA@ DB 'assume_oriented', 00H ; `string'
CONST	ENDS
;	COMDAT ??_C@_0P@BMDMDICD@hessian_normal?$AA@
CONST	SEGMENT
??_C@_0P@BMDMDICD@hessian_normal?$AA@ DB 'hessian_normal', 00H ; `string'
CONST	ENDS
;	COMDAT ??_C@_0P@GKFGPBHG@bunch_kauffman?$AA@
CONST	SEGMENT
??_C@_0P@GKFGPBHG@bunch_kauffman?$AA@ DB 'bunch_kauffman', 00H ; `string'
CONST	ENDS
;	COMDAT ??_C@_0O@BFFIKKOE@bunch_kaufman?$AA@
CONST	SEGMENT
??_C@_0O@BFFIKKOE@bunch_kaufman?$AA@ DB 'bunch_kaufman', 00H ; `string'
CONST	ENDS
;	COMDAT ??_C@_03JKDNAPFH@mkl?$AA@
CONST	SEGMENT
??_C@_03JKDNAPFH@mkl?$AA@ DB 'mkl', 00H			; `string'
CONST	ENDS
;	COMDAT ??_C@_04NLKFKEKL@ysmp?$AA@
CONST	SEGMENT
??_C@_04NLKFKEKL@ysmp?$AA@ DB 'ysmp', 00H		; `string'
CONST	ENDS
;	COMDAT ??_C@_0BA@HGBJAEID@quantities_only?$AA@
CONST	SEGMENT
??_C@_0BA@HGBJAEID@quantities_only?$AA@ DB 'quantities_only', 00H ; `string'
CONST	ENDS
;	COMDAT ??_C@_0P@OHNEFNEP@metric_convert?$AA@
CONST	SEGMENT
??_C@_0P@OHNEFNEP@metric_convert?$AA@ DB 'metric_convert', 00H ; `string'
CONST	ENDS
;	COMDAT ??_C@_0O@PLHGPNIO@linear_metric?$AA@
CONST	SEGMENT
??_C@_0O@PLHGPNIO@linear_metric?$AA@ DB 'linear_metric', 00H ; `string'
CONST	ENDS
;	COMDAT ??_C@_0BB@GPGBGBKF@squared_gradient?$AA@
CONST	SEGMENT
??_C@_0BB@GPGBGBKF@squared_gradient?$AA@ DB 'squared_gradient', 00H ; `string'
CONST	ENDS
;	COMDAT ??_C@_0BB@GLJECMNP@h_inverse_metric?$AA@
CONST	SEGMENT
??_C@_0BB@GLJECMNP@h_inverse_metric?$AA@ DB 'h_inverse_metric', 00H ; `string'
CONST	ENDS
;	COMDAT ??_C@_0BG@GAEGJDMI@hessian_double_normal?$AA@
CONST	SEGMENT
??_C@_0BG@GAEGJDMI@hessian_double_normal?$AA@ DB 'hessian_double_normal', 00H ; `string'
CONST	ENDS
;	COMDAT ??_C@_0BD@HMMIFHMP@hessian_normal_one?$AA@
CONST	SEGMENT
??_C@_0BD@HMMIFHMP@hessian_normal_one?$AA@ DB 'hessian_normal_one', 00H ; `string'
CONST	ENDS
;	COMDAT ??_C@_0N@ECHDFDIC@ps_labelflag?$AA@
CONST	SEGMENT
??_C@_0N@ECHDFDIC@ps_labelflag?$AA@ DB 'ps_labelflag', 00H ; `string'
CONST	ENDS
;	COMDAT ??_C@_09KMOLHLBE@labelflag?$AA@
CONST	SEGMENT
??_C@_09KMOLHLBE@labelflag?$AA@ DB 'labelflag', 00H	; `string'
CONST	ENDS
;	COMDAT ??_C@_0BA@MDFPOHGI@ps_crossingflag?$AA@
CONST	SEGMENT
??_C@_0BA@MDFPOHGI@ps_crossingflag?$AA@ DB 'ps_crossingflag', 00H ; `string'
CONST	ENDS
;	COMDAT ??_C@_0N@JJEIJGBI@crossingflag?$AA@
CONST	SEGMENT
??_C@_0N@JJEIJGBI@crossingflag?$AA@ DB 'crossingflag', 00H ; `string'
CONST	ENDS
;	COMDAT ??_C@_08EGOBEDIK@gridflag?$AA@
CONST	SEGMENT
??_C@_08EGOBEDIK@gridflag?$AA@ DB 'gridflag', 00H	; `string'
CONST	ENDS
;	COMDAT ??_C@_0M@NAKIPJII@ps_gridflag?$AA@
CONST	SEGMENT
??_C@_0M@NAKIPJII@ps_gridflag?$AA@ DB 'ps_gridflag', 00H ; `string'
CONST	ENDS
;	COMDAT ??_C@_0M@LOFHKFBI@ps_cmykflag?$AA@
CONST	SEGMENT
??_C@_0M@LOFHKFBI@ps_cmykflag?$AA@ DB 'ps_cmykflag', 00H ; `string'
CONST	ENDS
;	COMDAT ??_C@_0N@PDJMPNAK@ps_colorflag?$AA@
CONST	SEGMENT
??_C@_0N@PDJMPNAK@ps_colorflag?$AA@ DB 'ps_colorflag', 00H ; `string'
CONST	ENDS
;	COMDAT ??_C@_0M@MGNBMOID@pscolorflag?$AA@
CONST	SEGMENT
??_C@_0M@MGNBMOID@pscolorflag?$AA@ DB 'pscolorflag', 00H ; `string'
CONST	ENDS
;	COMDAT ??_C@_0BE@PABNDBOD@show_all_quantities?$AA@
CONST	SEGMENT
??_C@_0BE@PABNDBOD@show_all_quantities?$AA@ DB 'show_all_quantities', 00H ; `string'
CONST	ENDS
;	COMDAT ??_C@_0BE@IEAFMCH@hessian_normal_perp?$AA@
CONST	SEGMENT
??_C@_0BE@IEAFMCH@hessian_normal_perp?$AA@ DB 'hessian_normal_perp', 00H ; `string'
CONST	ENDS
;	COMDAT ??_C@_0BH@DJGEPEF@hessian_special_normal?$AA@
CONST	SEGMENT
??_C@_0BH@DJGEPEF@hessian_special_normal?$AA@ DB 'hessian_special_normal', 00H ; `string'
CONST	ENDS
;	COMDAT ??_C@_0L@PLJDOBHE@zener_drag?$AA@
CONST	SEGMENT
??_C@_0L@PLJDOBHE@zener_drag?$AA@ DB 'zener_drag', 00H	; `string'
CONST	ENDS
;	COMDAT ??_C@_0P@PLDNIGHE@volgrads_every?$AA@
CONST	SEGMENT
??_C@_0P@PLDNIGHE@volgrads_every?$AA@ DB 'volgrads_every', 00H ; `string'
CONST	ENDS
;	COMDAT ??_C@_0P@DFOEIAJO@interp_normals?$AA@
CONST	SEGMENT
??_C@_0P@DFOEIAJO@interp_normals?$AA@ DB 'interp_normals', 00H ; `string'
CONST	ENDS
;	COMDAT ??_C@_0O@DOAHOLKA@rotate_lights?$AA@
CONST	SEGMENT
??_C@_0O@DOAHOLKA@rotate_lights?$AA@ DB 'rotate_lights', 00H ; `string'
CONST	ENDS
;	COMDAT ??_C@_08KFLJAAGL@backcull?$AA@
CONST	SEGMENT
??_C@_08KFLJAAGL@backcull?$AA@ DB 'backcull', 00H	; `string'
CONST	ENDS
;	COMDAT ??_C@_0BB@JLCFDFN@ambient_pressure?$AA@
CONST	SEGMENT
??_C@_0BB@JLCFDFN@ambient_pressure?$AA@ DB 'ambient_pressure', 00H ; `string'
CONST	ENDS
;	COMDAT ??_C@_07KBAMPNJK@verbose?$AA@
CONST	SEGMENT
??_C@_07KBAMPNJK@verbose?$AA@ DB 'verbose', 00H		; `string'
CONST	ENDS
;	COMDAT ??_C@_0P@DEKALNNI@dirichlet_mode?$AA@
CONST	SEGMENT
??_C@_0P@DEKALNNI@dirichlet_mode?$AA@ DB 'dirichlet_mode', 00H ; `string'
CONST	ENDS
;	COMDAT ??_C@_0N@IAKIABKB@sobolev_mode?$AA@
CONST	SEGMENT
??_C@_0N@IAKIABKB@sobolev_mode?$AA@ DB 'sobolev_mode', 00H ; `string'
CONST	ENDS
;	COMDAT ??_C@_0P@EOAPCHNN@kraynikpopedge?$AA@
CONST	SEGMENT
??_C@_0P@EOAPCHNN@kraynikpopedge?$AA@ DB 'kraynikpopedge', 00H ; `string'
CONST	ENDS
;	COMDAT ??_C@_0BB@OFKJMHPN@kraynikpopvertex?$AA@
CONST	SEGMENT
??_C@_0BB@OFKJMHPN@kraynikpopvertex?$AA@ DB 'kraynikpopvertex', 00H ; `string'
CONST	ENDS
;	COMDAT ??_C@_0L@NAICPCIF@rgb_colors?$AA@
CONST	SEGMENT
??_C@_0L@NAICPCIF@rgb_colors?$AA@ DB 'rgb_colors', 00H	; `string'
CONST	ENDS
;	COMDAT ??_C@_0BC@ENFIPPEC@circular_arc_draw?$AA@
CONST	SEGMENT
??_C@_0BC@ENFIPPEC@circular_arc_draw?$AA@ DB 'circular_arc_draw', 00H ; `string'
CONST	ENDS
;	COMDAT ??_C@_0BA@NBAAGIKN@visibility_test?$AA@
CONST	SEGMENT
??_C@_0BA@NBAAGIKN@visibility_test?$AA@ DB 'visibility_test', 00H ; `string'
CONST	ENDS
;	COMDAT ??_C@_0BD@LILDNGFC@sparse_constraints?$AA@
CONST	SEGMENT
??_C@_0BD@LILDNGFC@sparse_constraints?$AA@ DB 'sparse_constraints', 00H ; `string'
CONST	ENDS
;	COMDAT ??_C@_0BC@OIKNNBJM@augmented_hessian?$AA@
CONST	SEGMENT
??_C@_0BC@OIKNNBJM@augmented_hessian?$AA@ DB 'augmented_hessian', 00H ; `string'
CONST	ENDS
;	COMDAT ??_C@_09ELACHHOE@blas_flag?$AA@
CONST	SEGMENT
??_C@_09ELACHHOE@blas_flag?$AA@ DB 'blas_flag', 00H	; `string'
CONST	ENDS
;	COMDAT ??_C@_0BB@GKDPKLCB@break_on_warning?$AA@
CONST	SEGMENT
??_C@_0BB@GKDPKLCB@break_on_warning?$AA@ DB 'break_on_warning', 00H ; `string'
CONST	ENDS
;	COMDAT ??_C@_0BE@HEFINIJJ@break_after_warning?$AA@
CONST	SEGMENT
??_C@_0BE@HEFINIJJ@break_after_warning?$AA@ DB 'break_after_warning', 00H ; `string'
CONST	ENDS
;	COMDAT ??_C@_0N@OJEGAGKB@bezier_basis?$AA@
CONST	SEGMENT
??_C@_0N@OJEGAGKB@bezier_basis?$AA@ DB 'bezier_basis', 00H ; `string'
CONST	ENDS
;	COMDAT ??_C@_0N@DFPINMIP@smooth_graph?$AA@
CONST	SEGMENT
??_C@_0N@DFPINMIP@smooth_graph?$AA@ DB 'smooth_graph', 00H ; `string'
CONST	ENDS
;	COMDAT ??_C@_09PJOICEHA@mpi_debug?$AA@
CONST	SEGMENT
??_C@_09PJOICEHA@mpi_debug?$AA@ DB 'mpi_debug', 00H	; `string'
CONST	ENDS
;	COMDAT ??_C@_0M@FHCBDAPB@pop_to_face?$AA@
CONST	SEGMENT
??_C@_0M@FHCBDAPB@pop_to_face?$AA@ DB 'pop_to_face', 00H ; `string'
CONST	ENDS
;	COMDAT ??_C@_0M@CAFGBCMP@pop_to_edge?$AA@
CONST	SEGMENT
??_C@_0M@CAFGBCMP@pop_to_edge?$AA@ DB 'pop_to_edge', 00H ; `string'
CONST	ENDS
;	COMDAT ??_C@_0L@NBNMFCPF@pop_enjoin?$AA@
CONST	SEGMENT
??_C@_0L@NBNMFCPF@pop_enjoin?$AA@ DB 'pop_enjoin', 00H	; `string'
CONST	ENDS
;	COMDAT ??_C@_0M@PDGIDHIC@pop_disjoin?$AA@
CONST	SEGMENT
??_C@_0M@PDGIDHIC@pop_disjoin?$AA@ DB 'pop_disjoin', 00H ; `string'
CONST	ENDS
;	COMDAT ??_C@_0BC@PCBOIGLG@full_bounding_box?$AA@
CONST	SEGMENT
??_C@_0BC@PCBOIGLG@full_bounding_box?$AA@ DB 'full_bounding_box', 00H ; `string'
CONST	ENDS
;	COMDAT ??_C@_0O@EKBDJBFN@little_endian?$AA@
CONST	SEGMENT
??_C@_0O@EKBDJBFN@little_endian?$AA@ DB 'little_endian', 00H ; `string'
CONST	ENDS
;	COMDAT ??_C@_0L@HGLBMAAF@big_endian?$AA@
CONST	SEGMENT
??_C@_0L@HGLBMAAF@big_endian?$AA@ DB 'big_endian', 00H	; `string'
CONST	ENDS
;	COMDAT ??_C@_09EOFABKBN@quietload?$AA@
CONST	SEGMENT
??_C@_09EOFABKBN@quietload?$AA@ DB 'quietload', 00H	; `string'
CONST	ENDS
;	COMDAT ??_C@_09FMDIMAMP@clip_view?$AA@
CONST	SEGMENT
??_C@_09FMDIMAMP@clip_view?$AA@ DB 'clip_view', 00H	; `string'
CONST	ENDS
;	COMDAT ??_C@_0L@KMEPJMME@slice_view?$AA@
CONST	SEGMENT
??_C@_0L@KMEPJMME@slice_view?$AA@ DB 'slice_view', 00H	; `string'
CONST	ENDS
;	COMDAT ??_C@_0BJ@GACLGPHB@function_quantity_sparse?$AA@
CONST	SEGMENT
??_C@_0BJ@GACLGPHB@function_quantity_sparse?$AA@ DB 'function_quantity_sp'
	DB	'arse', 00H					; `string'
CONST	ENDS
;	COMDAT ??_C@_0P@BHLDEOD@force_deletion?$AA@
CONST	SEGMENT
??_C@_0P@BHLDEOD@force_deletion?$AA@ DB 'force_deletion', 00H ; `string'
CONST	ENDS
;	COMDAT ??_C@_0P@JPONPFLM@star_finagling?$AA@
CONST	SEGMENT
??_C@_0P@JPONPFLM@star_finagling?$AA@ DB 'star_finagling', 00H ; `string'
CONST	ENDS
;	COMDAT ??_C@_0BC@PCLABFDB@immediate_autopop?$AA@
CONST	SEGMENT
??_C@_0BC@PCLABFDB@immediate_autopop?$AA@ DB 'immediate_autopop', 00H ; `string'
CONST	ENDS
;	COMDAT ??_C@_0P@HBGAENON@detorus_sticky?$AA@
CONST	SEGMENT
??_C@_0P@HBGAENON@detorus_sticky?$AA@ DB 'detorus_sticky', 00H ; `string'
CONST	ENDS
;	COMDAT ??_C@_0CB@GFKKBGMN@view_transforms_use_unique_point@
CONST	SEGMENT
??_C@_0CB@GFKKBGMN@view_transforms_use_unique_point@ DB 'view_transforms_'
	DB	'use_unique_point', 00H			; `string'
CONST	ENDS
;	COMDAT ??_C@_0M@FKFJNJHN@septum_flag?$AA@
CONST	SEGMENT
??_C@_0M@FKFJNJHN@septum_flag?$AA@ DB 'septum_flag', 00H ; `string'
CONST	ENDS
;	COMDAT ??_C@_0BC@IOPGAMGF@show_bounding_box?$AA@
CONST	SEGMENT
??_C@_0BC@IOPGAMGF@show_bounding_box?$AA@ DB 'show_bounding_box', 00H ; `string'
CONST	ENDS
;	COMDAT ??_C@_0BA@FEGMCNGA@K_altitude_mode?$AA@
CONST	SEGMENT
??_C@_0BA@FEGMCNGA@K_altitude_mode?$AA@ DB 'K_altitude_mode', 00H ; `string'
CONST	ENDS
;	COMDAT ??_C@_0P@BMEBABFE@show_all_edges?$AA@
CONST	SEGMENT
??_C@_0P@BMEBABFE@show_all_edges?$AA@ DB 'show_all_edges', 00H ; `string'
CONST	ENDS
;	COMDAT ??_C@_0P@EJEJKKN@force_edgeswap?$AA@
CONST	SEGMENT
??_C@_0P@EJEJKKN@force_edgeswap?$AA@ DB 'force_edgeswap', 00H ; `string'
CONST	ENDS
;	COMDAT ??_C@_08GIBBNMIA@optimise?$AA@
CONST	SEGMENT
??_C@_08GIBBNMIA@optimise?$AA@ DB 'optimise', 00H	; `string'
CONST	ENDS
;	COMDAT ??_C@_08GHMAOHAP@optimize?$AA@
CONST	SEGMENT
??_C@_08GHMAOHAP@optimize?$AA@ DB 'optimize', 00H	; `string'
CONST	ENDS
;	COMDAT ??_C@_06BDEIOILB@recalc?$AA@
CONST	SEGMENT
??_C@_06BDEIOILB@recalc?$AA@ DB 'recalc', 00H		; `string'
CONST	ENDS
;	COMDAT ??_C@_05EPBFLBEJ@unset?$AA@
CONST	SEGMENT
??_C@_05EPBFLBEJ@unset?$AA@ DB 'unset', 00H		; `string'
CONST	ENDS
;	COMDAT ??_C@_03KCHOJKKI@set?$AA@
CONST	SEGMENT
??_C@_03KCHOJKKI@set?$AA@ DB 'set', 00H			; `string'
CONST	ENDS
;	COMDAT ??_C@_05OOLEAMGB@shell?$AA@
CONST	SEGMENT
??_C@_05OOLEAMGB@shell?$AA@ DB 'shell', 00H		; `string'
CONST	ENDS
;	COMDAT ??_C@_08KFIPBGJH@dissolve?$AA@
CONST	SEGMENT
??_C@_08KFIPBGJH@dissolve?$AA@ DB 'dissolve', 00H	; `string'
CONST	ENDS
;	COMDAT ??_C@_06FOBLBEIN@delete?$AA@
CONST	SEGMENT
??_C@_06FOBLBEIN@delete?$AA@ DB 'delete', 00H		; `string'
CONST	ENDS
;	COMDAT ??_C@_05GOBGMMII@showq?$AA@
CONST	SEGMENT
??_C@_05GOBGMMII@showq?$AA@ DB 'showq', 00H		; `string'
CONST	ENDS
;	COMDAT ??_C@_04FKMICODN@show?$AA@
CONST	SEGMENT
??_C@_04FKMICODN@show?$AA@ DB 'show', 00H		; `string'
CONST	ENDS
;	COMDAT ??_C@_04DONFEANM@list?$AA@
CONST	SEGMENT
??_C@_04DONFEANM@list?$AA@ DB 'list', 00H		; `string'
CONST	ENDS
;	COMDAT ??_C@_05LCFPHLEE@where?$AA@
CONST	SEGMENT
??_C@_05LCFPHLEE@where?$AA@ DB 'where', 00H		; `string'
CONST	ENDS
;	COMDAT ??_C@_07MEIPJMCG@sqcurve?$AA@
CONST	SEGMENT
??_C@_07MEIPJMCG@sqcurve?$AA@ DB 'sqcurve', 00H		; `string'
CONST	ENDS
;	COMDAT ??_C@_04GOEDGNCF@area?$AA@
CONST	SEGMENT
??_C@_04GOEDGNCF@area?$AA@ DB 'area', 00H		; `string'
CONST	ENDS
;	COMDAT ??_C@_07HKCFKCGH@valence?$AA@
CONST	SEGMENT
??_C@_07HKCFKCGH@valence?$AA@ DB 'valence', 00H		; `string'
CONST	ENDS
;	COMDAT ??_C@_06IJDLPEM@length?$AA@
CONST	SEGMENT
??_C@_06IJDLPEM@length?$AA@ DB 'length', 00H		; `string'
CONST	ENDS
;	COMDAT ??_C@_0L@BBAJEGNK@bottominfo?$AA@
CONST	SEGMENT
??_C@_0L@BBAJEGNK@bottominfo?$AA@ DB 'bottominfo', 00H	; `string'
CONST	ENDS
;	COMDAT ??_C@_07CFPPNLMH@topinfo?$AA@
CONST	SEGMENT
??_C@_07CFPPNLMH@topinfo?$AA@ DB 'topinfo', 00H		; `string'
CONST	ENDS
;	COMDAT ??_C@_03PLGJJJLK@oid?$AA@
CONST	SEGMENT
??_C@_03PLGJJJLK@oid?$AA@ DB 'oid', 00H			; `string'
CONST	ENDS
;	COMDAT ??_C@_02EGCJHIOB@id?$AA@
CONST	SEGMENT
??_C@_02EGCJHIOB@id?$AA@ DB 'id', 00H			; `string'
CONST	ENDS
;	COMDAT ??_C@_08MGNLKBNG@show_vol?$AA@
CONST	SEGMENT
??_C@_08MGNLKBNG@show_vol?$AA@ DB 'show_vol', 00H	; `string'
CONST	ENDS
;	COMDAT ??_C@_05KJHPNPAA@check?$AA@
CONST	SEGMENT
??_C@_05KJHPNPAA@check?$AA@ DB 'check', 00H		; `string'
CONST	ENDS
;	COMDAT ??_C@_06ELMCDMMG@refine?$AA@
CONST	SEGMENT
??_C@_06ELMCDMMG@refine?$AA@ DB 'refine', 00H		; `string'
CONST	ENDS
;	COMDAT ??_C@_02KPEDIMCA@go?$AA@
CONST	SEGMENT
??_C@_02KPEDIMCA@go?$AA@ DB 'go', 00H			; `string'
CONST	ENDS
;	COMDAT ??_C@_07ENILCFOA@rawestv?$AA@
CONST	SEGMENT
??_C@_07ENILCFOA@rawestv?$AA@ DB 'rawestv', 00H		; `string'
CONST	ENDS
;	COMDAT ??_C@_04BBIOILIO@rawv?$AA@
CONST	SEGMENT
??_C@_04BBIOILIO@rawv?$AA@ DB 'rawv', 00H		; `string'
CONST	ENDS
;	COMDAT ??_C@_05CDBKKPFJ@longj?$AA@
CONST	SEGMENT
??_C@_05CDBKKPFJ@longj?$AA@ DB 'longj', 00H		; `string'
CONST	ENDS
;	COMDAT ??_C@_05IHFEJEKL@chdir?$AA@
CONST	SEGMENT
??_C@_05IHFEJEKL@chdir?$AA@ DB 'chdir', 00H		; `string'
CONST	ENDS
;	COMDAT ??_C@_06FHFOAHML@system?$AA@
CONST	SEGMENT
??_C@_06FHFOAHML@system?$AA@ DB 'system', 00H		; `string'
CONST	ENDS
;	COMDAT ??_C@_05IJMOJOL@utest?$AA@
CONST	SEGMENT
??_C@_05IJMOJOL@utest?$AA@ DB 'utest', 00H		; `string'
CONST	ENDS
;	COMDAT ??_C@_04HKCCIOCO@zoom?$AA@
CONST	SEGMENT
??_C@_04HKCCIOCO@zoom?$AA@ DB 'zoom', 00H		; `string'
CONST	ENDS
;	COMDAT ??_C@_0P@HKDMGBBG@stability_test?$AA@
CONST	SEGMENT
??_C@_0P@HKDMGBBG@stability_test?$AA@ DB 'stability_test', 00H ; `string'
CONST	ENDS
;	COMDAT ??_C@_05MFGCEKPN@alice?$AA@
CONST	SEGMENT
??_C@_05MFGCEKPN@alice?$AA@ DB 'alice', 00H		; `string'
CONST	ENDS
;	COMDAT ??_C@_0M@EKPFJKCG@edge_divide?$AA@
CONST	SEGMENT
??_C@_0M@EKPFJKCG@edge_divide?$AA@ DB 'edge_divide', 00H ; `string'
CONST	ENDS
;	COMDAT ??_C@_08EFAMPBPP@edgeweed?$AA@
CONST	SEGMENT
??_C@_08EFAMPBPP@edgeweed?$AA@ DB 'edgeweed', 00H	; `string'
CONST	ENDS
;	COMDAT ??_C@_08KODKMLGA@areaweed?$AA@
CONST	SEGMENT
??_C@_08KODKMLGA@areaweed?$AA@ DB 'areaweed', 00H	; `string'
CONST	ENDS
;	COMDAT ??_C@_03MCADLMAF@off?$AA@
CONST	SEGMENT
??_C@_03MCADLMAF@off?$AA@ DB 'off', 00H			; `string'
CONST	ENDS
;	COMDAT ??_C@_0M@MMGMMHEK@extrapolate?$AA@
CONST	SEGMENT
??_C@_0M@MMGMMHEK@extrapolate?$AA@ DB 'extrapolate', 00H ; `string'
CONST	ENDS
;	COMDAT ??_C@_06JMEOMOEA@counts?$AA@
CONST	SEGMENT
??_C@_06JMEOMOEA@counts?$AA@ DB 'counts', 00H		; `string'
CONST	ENDS
;	COMDAT ??_C@_02LIELOMNJ@on?$AA@
CONST	SEGMENT
??_C@_02LIELOMNJ@on?$AA@ DB 'on', 00H			; `string'
CONST	ENDS
;	COMDAT ??_C@_0L@LFLJKKDA@procedures?$AA@
CONST	SEGMENT
??_C@_0L@LFLJKKDA@procedures?$AA@ DB 'procedures', 00H	; `string'
CONST	ENDS
;	COMDAT ??_C@_0O@DNBEMPOF@binary_printf?$AA@
CONST	SEGMENT
??_C@_0O@DNBEMPOF@binary_printf?$AA@ DB 'binary_printf', 00H ; `string'
CONST	ENDS
;	COMDAT ??_C@_07DNAEFDKF@sprintf?$AA@
CONST	SEGMENT
??_C@_07DNAEFDKF@sprintf?$AA@ DB 'sprintf', 00H		; `string'
CONST	ENDS
;	COMDAT ??_C@_09JOJNMAED@errprintf?$AA@
CONST	SEGMENT
??_C@_09JOJNMAED@errprintf?$AA@ DB 'errprintf', 00H	; `string'
CONST	ENDS
;	COMDAT ??_C@_06OHJFMFMB@printf?$AA@
CONST	SEGMENT
??_C@_06OHJFMFMB@printf?$AA@ DB 'printf', 00H		; `string'
CONST	ENDS
;	COMDAT ??_C@_06HMBJBPPM@eprint?$AA@
CONST	SEGMENT
??_C@_06HMBJBPPM@eprint?$AA@ DB 'eprint', 00H		; `string'
CONST	ENDS
;	COMDAT ??_C@_05IJDJACGD@print?$AA@
CONST	SEGMENT
??_C@_05IJDJACGD@print?$AA@ DB 'print', 00H		; `string'
CONST	ENDS
;	COMDAT ??_C@_05IOMEMJEC@count?$AA@
CONST	SEGMENT
??_C@_05IOMEMJEC@count?$AA@ DB 'count', 00H		; `string'
CONST	ENDS
;	COMDAT ??_C@_03CFFIJAMA@sum?$AA@
CONST	SEGMENT
??_C@_03CFFIJAMA@sum?$AA@ DB 'sum', 00H			; `string'
CONST	ENDS
;	COMDAT ??_C@_03CHOBFJAH@avg?$AA@
CONST	SEGMENT
??_C@_03CHOBFJAH@avg?$AA@ DB 'avg', 00H			; `string'
CONST	ENDS
;	COMDAT ??_C@_03KLIPLJLL@min?$AA@
CONST	SEGMENT
??_C@_03KLIPLJLL@min?$AA@ DB 'min', 00H			; `string'
CONST	ENDS
;	COMDAT ??_C@_03LJAEFNNE@max?$AA@
CONST	SEGMENT
??_C@_03LJAEFNNE@max?$AA@ DB 'max', 00H			; `string'
CONST	ENDS
;	COMDAT ??_C@_08BKGECACE@dihedral?$AA@
CONST	SEGMENT
??_C@_08BKGECACE@dihedral?$AA@ DB 'dihedral', 00H	; `string'
CONST	ENDS
;	COMDAT ??_C@_0L@BHDKNBMG@show_trans?$AA@
CONST	SEGMENT
??_C@_0L@BHDKNBMG@show_trans?$AA@ DB 'show_trans', 00H	; `string'
CONST	ENDS
;	COMDAT ??_C@_09INMNGPFE@show_expr?$AA@
CONST	SEGMENT
??_C@_09INMNGPFE@show_expr?$AA@ DB 'show_expr', 00H	; `string'
CONST	ENDS
;	COMDAT ??_C@_0N@MFCDHBBC@loghistogram?$AA@
CONST	SEGMENT
??_C@_0N@MFCDHBBC@loghistogram?$AA@ DB 'loghistogram', 00H ; `string'
CONST	ENDS
;	COMDAT ??_C@_09JOLNEMIB@histogram?$AA@
CONST	SEGMENT
??_C@_09JOLNEMIB@histogram?$AA@ DB 'histogram', 00H	; `string'
CONST	ENDS
;	COMDAT ??_C@_04FHMCPBIP@else?$AA@
CONST	SEGMENT
??_C@_04FHMCPBIP@else?$AA@ DB 'else', 00H		; `string'
CONST	ENDS
;	COMDAT ??_C@_04HOHPNOOD@then?$AA@
CONST	SEGMENT
??_C@_04HOHPNOOD@then?$AA@ DB 'then', 00H		; `string'
CONST	ENDS
;	COMDAT ??_C@_02HEBPBKGD@if?$AA@
CONST	SEGMENT
??_C@_02HEBPBKGD@if?$AA@ DB 'if', 00H			; `string'
CONST	ENDS
;	COMDAT ??_C@_02KNAFDCHJ@do?$AA@
CONST	SEGMENT
??_C@_02KNAFDCHJ@do?$AA@ DB 'do', 00H			; `string'
CONST	ENDS
;	COMDAT ??_C@_05OODBEKIG@while?$AA@
CONST	SEGMENT
??_C@_05OODBEKIG@while?$AA@ DB 'while', 00H		; `string'
CONST	ENDS
;	COMDAT ??_C@_05GEEJHDPH@notch?$AA@
CONST	SEGMENT
??_C@_05GEEJHDPH@notch?$AA@ DB 'notch', 00H		; `string'
CONST	ENDS
;	COMDAT ??_C@_08MJMACJHA@permload?$AA@
CONST	SEGMENT
??_C@_08MJMACJHA@permload?$AA@ DB 'permload', 00H	; `string'
CONST	ENDS
;	COMDAT ??_C@_04EONOHKEP@load?$AA@
CONST	SEGMENT
??_C@_04EONOHKEP@load?$AA@ DB 'load', 00H		; `string'
CONST	ENDS
;	COMDAT ??_C@_04GGLOKIEE@dump?$AA@
CONST	SEGMENT
??_C@_04GGLOKIEE@dump?$AA@ DB 'dump', 00H		; `string'
CONST	ENDS
;	COMDAT ??_C@_03MDONDFG@bye?$AA@
CONST	SEGMENT
??_C@_03MDONDFG@bye?$AA@ DB 'bye', 00H			; `string'
CONST	ENDS
;	COMDAT ??_C@_04MKNBDEPB@exit?$AA@
CONST	SEGMENT
??_C@_04MKNBDEPB@exit?$AA@ DB 'exit', 00H		; `string'
CONST	ENDS
;	COMDAT ??_C@_04KNNLNNGO@quit?$AA@
CONST	SEGMENT
??_C@_04KNNLNNGO@quit?$AA@ DB 'quit', 00H		; `string'
CONST	ENDS
;	COMDAT ??_C@_04PCJFHION@help?$AA@
CONST	SEGMENT
??_C@_04PCJFHION@help?$AA@ DB 'help', 00H		; `string'
CONST	ENDS
;	COMDAT ??_C@_0N@NJLPGECL@hessian_menu?$AA@
CONST	SEGMENT
??_C@_0N@NJLPGECL@hessian_menu?$AA@ DB 'hessian_menu', 00H ; `string'
CONST	ENDS
;	COMDAT ??_C@_0N@NOHLJNPG@hessian_seek?$AA@
CONST	SEGMENT
??_C@_0N@NOHLJNPG@hessian_seek?$AA@ DB 'hessian_seek', 00H ; `string'
CONST	ENDS
;	COMDAT ??_C@_07IHNMECBN@hessian?$AA@
CONST	SEGMENT
??_C@_07IHNMECBN@hessian?$AA@ DB 'hessian', 00H		; `string'
CONST	ENDS
;	COMDAT ??_C@_0P@MKIFIEMC@transform_expr?$AA@
CONST	SEGMENT
??_C@_0P@MKIFIEMC@transform_expr?$AA@ DB 'transform_expr', 00H ; `string'
CONST	ENDS
;	COMDAT ??_C@_0BA@IPCFDLJD@transform_depth?$AA@
CONST	SEGMENT
??_C@_0BA@IPCFDLJD@transform_depth?$AA@ DB 'transform_depth', 00H ; `string'
CONST	ENDS
;	COMDAT ??_C@_08BOPEGKMG@show_off?$AA@
CONST	SEGMENT
??_C@_08BOPEGKMG@show_off?$AA@ DB 'show_off', 00H	; `string'
CONST	ENDS
;	COMDAT ??_C@_0L@HANDHNGN@close_show?$AA@
CONST	SEGMENT
??_C@_0L@HANDHNGN@close_show?$AA@ DB 'close_show', 00H	; `string'
CONST	ENDS
;	COMDAT ??_C@_08GHINPAG@burchard?$AA@
CONST	SEGMENT
??_C@_08GHINPAG@burchard?$AA@ DB 'burchard', 00H	; `string'
CONST	ENDS
;	COMDAT ??_C@_06HAMJBNFB@rebody?$AA@
CONST	SEGMENT
??_C@_06HAMJBNFB@rebody?$AA@ DB 'rebody', 00H		; `string'
CONST	ENDS
;	COMDAT ??_C@_07ICLAOFOB@foreach?$AA@
CONST	SEGMENT
??_C@_07ICLAOFOB@foreach?$AA@ DB 'foreach', 00H		; `string'
CONST	ENDS
;	COMDAT ??_C@_05INHNKAIM@unfix?$AA@
CONST	SEGMENT
??_C@_05INHNKAIM@unfix?$AA@ DB 'unfix', 00H		; `string'
CONST	ENDS
;	COMDAT ??_C@_03GABGILGN@fix?$AA@
CONST	SEGMENT
??_C@_03GABGILGN@fix?$AA@ DB 'fix', 00H			; `string'
CONST	ENDS
;	COMDAT ??_C@_07MMNEDCBK@history?$AA@
CONST	SEGMENT
??_C@_07MMNEDCBK@history?$AA@ DB 'history', 00H		; `string'
CONST	ENDS
;	COMDAT ??_C@_05KBOMEDGA@total?$AA@
CONST	SEGMENT
??_C@_05KBOMEDGA@total?$AA@ DB 'total', 00H		; `string'
CONST	ENDS
;	COMDAT ??_C@_0P@BLIMDDOG@dirichlet_seek?$AA@
CONST	SEGMENT
??_C@_0P@BLIMDDOG@dirichlet_seek?$AA@ DB 'dirichlet_seek', 00H ; `string'
CONST	ENDS
;	COMDAT ??_C@_09JHHPCHFN@dirichlet?$AA@
CONST	SEGMENT
??_C@_09JHHPCHFN@dirichlet?$AA@ DB 'dirichlet', 00H	; `string'
CONST	ENDS
;	COMDAT ??_C@_0N@KPIEIPJP@sobolev_seek?$AA@
CONST	SEGMENT
??_C@_0N@KPIEIPJP@sobolev_seek?$AA@ DB 'sobolev_seek', 00H ; `string'
CONST	ENDS
;	COMDAT ??_C@_07NNCLFLCE@sobolev?$AA@
CONST	SEGMENT
??_C@_07NNCLFLCE@sobolev?$AA@ DB 'sobolev', 00H		; `string'
CONST	ENDS
;	COMDAT ??_C@_0L@HNMJPKNA@attributes?$AA@
CONST	SEGMENT
??_C@_0L@HNMJPKNA@attributes?$AA@ DB 'attributes', 00H	; `string'
CONST	ENDS
;	COMDAT ??_C@_04CIOKLOBL@midv?$AA@
CONST	SEGMENT
??_C@_04CIOKLOBL@midv?$AA@ DB 'midv', 00H		; `string'
CONST	ENDS
;	COMDAT ??_C@_06PNAKCKLH@saddle?$AA@
CONST	SEGMENT
??_C@_06PNAKCKLH@saddle?$AA@ DB 'saddle', 00H		; `string'
CONST	ENDS
;	COMDAT ??_C@_08GOLFMCHH@geomview?$AA@
CONST	SEGMENT
??_C@_08GOLFMCHH@geomview?$AA@ DB 'geomview', 00H	; `string'
CONST	ENDS
;	COMDAT ??_C@_0N@PEAHACPA@datafilename?$AA@
CONST	SEGMENT
??_C@_0N@PEAHACPA@datafilename?$AA@ DB 'datafilename', 00H ; `string'
CONST	ENDS
;	COMDAT ??_C@_0N@DHNCNHBM@triple_point?$AA@
CONST	SEGMENT
??_C@_0N@DHNCNHBM@triple_point?$AA@ DB 'triple_point', 00H ; `string'
CONST	ENDS
;	COMDAT ??_C@_0M@DFLKEBKH@tetra_point?$AA@
CONST	SEGMENT
??_C@_0M@DFLKEBKH@tetra_point?$AA@ DB 'tetra_point', 00H ; `string'
CONST	ENDS
;	COMDAT ??_C@_07JPCPFHFE@lanczos?$AA@
CONST	SEGMENT
??_C@_07JPCPFHFE@lanczos?$AA@ DB 'lanczos', 00H		; `string'
CONST	ENDS
;	COMDAT ??_C@_0L@FLCFPHEO@eigenprobe?$AA@
CONST	SEGMENT
??_C@_0L@FLCFPHEO@eigenprobe?$AA@ DB 'eigenprobe', 00H	; `string'
CONST	ENDS
;	COMDAT ??_C@_04HKMJFCDE@ritz?$AA@
CONST	SEGMENT
??_C@_04HKMJFCDE@ritz?$AA@ DB 'ritz', 00H		; `string'
CONST	ENDS
;	COMDAT ??_C@_08DLICDMBN@continue?$AA@
CONST	SEGMENT
??_C@_08DLICDMBN@continue?$AA@ DB 'continue', 00H	; `string'
CONST	ENDS
;	COMDAT ??_C@_08HEBLBDOI@volfixed?$AA@
CONST	SEGMENT
??_C@_08HEBLBDOI@volfixed?$AA@ DB 'volfixed', 00H	; `string'
CONST	ENDS
;	COMDAT ??_C@_05ELPHFHOI@break?$AA@
CONST	SEGMENT
??_C@_05ELPHFHOI@break?$AA@ DB 'break', 00H		; `string'
CONST	ENDS
;	COMDAT ??_C@_0M@HIFAJGPB@t1_edgeswap?$AA@
CONST	SEGMENT
??_C@_0M@HIFAJGPB@t1_edgeswap?$AA@ DB 't1_edgeswap', 00H ; `string'
CONST	ENDS
;	COMDAT ??_C@_08GDDLLHKC@edgeswap?$AA@
CONST	SEGMENT
??_C@_08GDDLLHKC@edgeswap?$AA@ DB 'edgeswap', 00H	; `string'
CONST	ENDS
;	COMDAT ??_C@_0BG@LAOGOOCK@convert_to_quantities?$AA@
CONST	SEGMENT
??_C@_0BG@LAOGOOCK@convert_to_quantities?$AA@ DB 'convert_to_quantities', 00H ; `string'
CONST	ENDS
;	COMDAT ??_C@_08IDOMCGJP@geompipe?$AA@
CONST	SEGMENT
??_C@_08IDOMCGJP@geompipe?$AA@ DB 'geompipe', 00H	; `string'
CONST	ENDS
;	COMDAT ??_C@_04HDMMNHEL@move?$AA@
CONST	SEGMENT
??_C@_04HDMMNHEL@move?$AA@ DB 'move', 00H		; `string'
CONST	ENDS
;	COMDAT ??_C@_06FPFOALMG@sizeof?$AA@
CONST	SEGMENT
??_C@_06FPFOALMG@sizeof?$AA@ DB 'sizeof', 00H		; `string'
CONST	ENDS
;	COMDAT ??_C@_06FNJMBFGF@ometis?$AA@
CONST	SEGMENT
??_C@_06FNJMBFGF@ometis?$AA@ DB 'ometis', 00H		; `string'
CONST	ENDS
;	COMDAT ??_C@_06KJNDDBHG@kmetis?$AA@
CONST	SEGMENT
??_C@_06KJNDDBHG@kmetis?$AA@ DB 'kmetis', 00H		; `string'
CONST	ENDS
;	COMDAT ??_C@_0L@JJNAPELC@body_metis?$AA@
CONST	SEGMENT
??_C@_0L@JJNAPELC@body_metis?$AA@ DB 'body_metis', 00H	; `string'
CONST	ENDS
;	COMDAT ??_C@_0P@BEHGJJCH@metis_readjust?$AA@
CONST	SEGMENT
??_C@_0P@BEHGJJCH@metis_readjust?$AA@ DB 'metis_readjust', 00H ; `string'
CONST	ENDS
;	COMDAT ??_C@_05MMMFHLE@metis?$AA@
CONST	SEGMENT
??_C@_05MMMFHLE@metis?$AA@ DB 'metis', 00H		; `string'
CONST	ENDS
;	COMDAT ??_C@_0N@GAAHAAOL@metis_factor?$AA@
CONST	SEGMENT
??_C@_0N@GAAHAAOL@metis_factor?$AA@ DB 'metis_factor', 00H ; `string'
CONST	ENDS
;	COMDAT ??_C@_0BG@EBKCCFDE@rawest_vertex_average?$AA@
CONST	SEGMENT
??_C@_0BG@EBKCCFDE@rawest_vertex_average?$AA@ DB 'rawest_vertex_average', 00H ; `string'
CONST	ENDS
;	COMDAT ??_C@_0BD@FBBKFDM@raw_vertex_average?$AA@
CONST	SEGMENT
??_C@_0BD@FBBKFDM@raw_vertex_average?$AA@ DB 'raw_vertex_average', 00H ; `string'
CONST	ENDS
;	COMDAT ??_C@_0P@OLMKLKE@vertex_average?$AA@
CONST	SEGMENT
??_C@_0P@OLMKLKE@vertex_average?$AA@ DB 'vertex_average', 00H ; `string'
CONST	ENDS
;	COMDAT ??_C@_0BA@IBDAIKBO@binary_off_file?$AA@
CONST	SEGMENT
??_C@_0BA@IBDAIKBO@binary_off_file?$AA@ DB 'binary_off_file', 00H ; `string'
CONST	ENDS
;	COMDAT ??_C@_08KLNLDNLL@ooglfile?$AA@
CONST	SEGMENT
??_C@_08KLNLDNLL@ooglfile?$AA@ DB 'ooglfile', 00H	; `string'
CONST	ENDS
;	COMDAT ??_C@_0L@CCPMELKB@postscript?$AA@
CONST	SEGMENT
??_C@_0L@CCPMELKB@postscript?$AA@ DB 'postscript', 00H	; `string'
CONST	ENDS
;	COMDAT ??_C@_06LNOFJDNM@return?$AA@
CONST	SEGMENT
??_C@_06LNOFJDNM@return?$AA@ DB 'return', 00H		; `string'
CONST	ENDS
;	COMDAT ??_C@_08PANPCJAE@new_body?$AA@
CONST	SEGMENT
??_C@_08PANPCJAE@new_body?$AA@ DB 'new_body', 00H	; `string'
CONST	ENDS
;	COMDAT ??_C@_09OAIEDJBI@new_facet?$AA@
CONST	SEGMENT
??_C@_09OAIEDJBI@new_facet?$AA@ DB 'new_facet', 00H	; `string'
CONST	ENDS
;	COMDAT ??_C@_08HBMPJBBB@new_edge?$AA@
CONST	SEGMENT
??_C@_08HBMPJBBB@new_edge?$AA@ DB 'new_edge', 00H	; `string'
CONST	ENDS
;	COMDAT ??_C@_0L@KAOEHGMG@new_vertex?$AA@
CONST	SEGMENT
??_C@_0L@KAOEHGMG@new_vertex?$AA@ DB 'new_vertex', 00H	; `string'
CONST	ENDS
;	COMDAT ??_C@_08JONLCJIM@backbody?$AA@
CONST	SEGMENT
??_C@_08JONLCJIM@backbody?$AA@ DB 'backbody', 00H	; `string'
CONST	ENDS
;	COMDAT ??_C@_09GNLMKAKO@frontbody?$AA@
CONST	SEGMENT
??_C@_09GNLMKAKO@frontbody?$AA@ DB 'frontbody', 00H	; `string'
CONST	ENDS
;	COMDAT ??_C@_0L@GKBDMEAN@keylogfile?$AA@
CONST	SEGMENT
??_C@_0L@GKBDMEAN@keylogfile?$AA@ DB 'keylogfile', 00H	; `string'
CONST	ENDS
;	COMDAT ??_C@_07HMINABEO@logfile?$AA@
CONST	SEGMENT
??_C@_07HMINABEO@logfile?$AA@ DB 'logfile', 00H		; `string'
CONST	ENDS
;	COMDAT ??_C@_05PDJBBECF@pause?$AA@
CONST	SEGMENT
??_C@_05PDJBBECF@pause?$AA@ DB 'pause', 00H		; `string'
CONST	ENDS
;	COMDAT ??_C@_0N@JJMKEIGG@renumber_all?$AA@
CONST	SEGMENT
??_C@_0N@JJMKEIGG@renumber_all?$AA@ DB 'renumber_all', 00H ; `string'
CONST	ENDS
;	COMDAT ??_C@_0BA@PJJKCDON@reorder_storage?$AA@
CONST	SEGMENT
??_C@_0BA@PJJKCDON@reorder_storage?$AA@ DB 'reorder_storage', 00H ; `string'
CONST	ENDS
;	COMDAT ??_C@_0L@FMKAEFLC@is_defined?$AA@
CONST	SEGMENT
??_C@_0L@FMKAEFLC@is_defined?$AA@ DB 'is_defined', 00H	; `string'
CONST	ENDS
;	COMDAT ??_C@_0M@CJACPCIB@wrap_vertex?$AA@
CONST	SEGMENT
??_C@_0M@CJACPCIB@wrap_vertex?$AA@ DB 'wrap_vertex', 00H ; `string'
CONST	ENDS
;	COMDAT ??_C@_04MGEIEJAD@exec?$AA@
CONST	SEGMENT
??_C@_04MGEIEJAD@exec?$AA@ DB 'exec', 00H		; `string'
CONST	ENDS
;	COMDAT ??_C@_07BKFFEMDK@exprint?$AA@
CONST	SEGMENT
??_C@_07BKFFEMDK@exprint?$AA@ DB 'exprint', 00H		; `string'
CONST	ENDS
;	COMDAT ??_C@_0O@DICBBEEI@date_and_time?$AA@
CONST	SEGMENT
??_C@_0O@DICBBEEI@date_and_time?$AA@ DB 'date_and_time', 00H ; `string'
CONST	ENDS
;	COMDAT ??_C@_09BADENEHP@colorfile?$AA@
CONST	SEGMENT
??_C@_09BADENEHP@colorfile?$AA@ DB 'colorfile', 00H	; `string'
CONST	ENDS
;	COMDAT ??_C@_0N@ICOOBCNI@vertexnormal?$AA@
CONST	SEGMENT
??_C@_0N@ICOOBCNI@vertexnormal?$AA@ DB 'vertexnormal', 00H ; `string'
CONST	ENDS
;	COMDAT ??_C@_0N@PBJCFAJD@equiangulate?$AA@
CONST	SEGMENT
??_C@_0N@PBJCFAJD@equiangulate?$AA@ DB 'equiangulate', 00H ; `string'
CONST	ENDS
;	COMDAT ??_C@_0BB@FIMKOPGK@warning_messages?$AA@
CONST	SEGMENT
??_C@_0BB@FIMKOPGK@warning_messages?$AA@ DB 'warning_messages', 00H ; `string'
CONST	ENDS
;	COMDAT ??_C@_03JOHEBPFF@for?$AA@
CONST	SEGMENT
??_C@_03JOHEBPFF@for?$AA@ DB 'for', 00H			; `string'
CONST	ENDS
;	COMDAT ??_C@_05IDKHKMLA@local?$AA@
CONST	SEGMENT
??_C@_05IDKHKMLA@local?$AA@ DB 'local', 00H		; `string'
CONST	ENDS
;	COMDAT ??_C@_0BB@NFBBDANK@pop_quad_to_quad?$AA@
CONST	SEGMENT
??_C@_0BB@NFBBDANK@pop_quad_to_quad?$AA@ DB 'pop_quad_to_quad', 00H ; `string'
CONST	ENDS
;	COMDAT ??_C@_0BA@LLOFFOFA@pop_edge_to_tri?$AA@
CONST	SEGMENT
??_C@_0BA@LLOFFOFA@pop_edge_to_tri?$AA@ DB 'pop_edge_to_tri', 00H ; `string'
CONST	ENDS
;	COMDAT ??_C@_0BA@HKCODAC@pop_tri_to_edge?$AA@
CONST	SEGMENT
??_C@_0BA@HKCODAC@pop_tri_to_edge?$AA@ DB 'pop_tri_to_edge', 00H ; `string'
CONST	ENDS
;	COMDAT ??_C@_03NJDAHFJE@pop?$AA@
CONST	SEGMENT
??_C@_03NJDAHFJE@pop?$AA@ DB 'pop', 00H			; `string'
CONST	ENDS
;	COMDAT ??_C@_09BOMFCCD@task_exec?$AA@
CONST	SEGMENT
??_C@_09BOMFCCD@task_exec?$AA@ DB 'task_exec', 00H	; `string'
CONST	ENDS
;	COMDAT ??_C@_0O@OJLJIFPG@parallel_exec?$AA@
CONST	SEGMENT
??_C@_0O@OJLJIFPG@parallel_exec?$AA@ DB 'parallel_exec', 00H ; `string'
CONST	ENDS
;	COMDAT ??_C@_0P@FKOPBMAL@mean_curvature?$AA@
CONST	SEGMENT
??_C@_0P@FKOPBMAL@mean_curvature?$AA@ DB 'mean_curvature', 00H ; `string'
CONST	ENDS
;	COMDAT ??_C@_08KEAKBNCK@mpi_task?$AA@
CONST	SEGMENT
??_C@_08KEAKBNCK@mpi_task?$AA@ DB 'mpi_task', 00H	; `string'
CONST	ENDS
;	COMDAT ??_C@_0M@HCCAAKMF@facet_merge?$AA@
CONST	SEGMENT
??_C@_0M@HCCAAKMF@facet_merge?$AA@ DB 'facet_merge', 00H ; `string'
CONST	ENDS
;	COMDAT ??_C@_0L@GJPPMFGG@edge_merge?$AA@
CONST	SEGMENT
??_C@_0L@GJPPMFGG@edge_merge?$AA@ DB 'edge_merge', 00H	; `string'
CONST	ENDS
;	COMDAT ??_C@_0N@MOMHNGJF@vertex_merge?$AA@
CONST	SEGMENT
??_C@_0N@MOMHNGJF@vertex_merge?$AA@ DB 'vertex_merge', 00H ; `string'
CONST	ENDS
;	COMDAT ??_C@_0N@BFEIANBO@reset_counts?$AA@
CONST	SEGMENT
??_C@_0N@BFEIANBO@reset_counts?$AA@ DB 'reset_counts', 00H ; `string'
CONST	ENDS
;	COMDAT ??_C@_0O@HEMOCGDL@valid_element?$AA@
CONST	SEGMENT
??_C@_0O@HEMOCGDL@valid_element?$AA@ DB 'valid_element', 00H ; `string'
CONST	ENDS
;	COMDAT ??_C@_0N@HEKOHBEK@flush_counts?$AA@
CONST	SEGMENT
??_C@_0N@HEKOHBEK@flush_counts?$AA@ DB 'flush_counts', 00H ; `string'
CONST	ENDS
;	COMDAT ??_C@_09BPLDEHMH@mid_facet?$AA@
CONST	SEGMENT
??_C@_09BPLDEHMH@mid_facet?$AA@ DB 'mid_facet', 00H	; `string'
CONST	ENDS
;	COMDAT ??_C@_08EJNLDOMI@mid_edge?$AA@
CONST	SEGMENT
??_C@_08EJNLDOMI@mid_edge?$AA@ DB 'mid_edge', 00H	; `string'
CONST	ENDS
;	COMDAT ??_C@_0BD@JJNPEKJD@matrix_determinant?$AA@
CONST	SEGMENT
??_C@_0BD@JJNPEKJD@matrix_determinant?$AA@ DB 'matrix_determinant', 00H ; `string'
CONST	ENDS
;	COMDAT ??_C@_0P@EBJBPEJC@matrix_inverse?$AA@
CONST	SEGMENT
??_C@_0P@EBJBPEJC@matrix_inverse?$AA@ DB 'matrix_inverse', 00H ; `string'
CONST	ENDS
;	COMDAT ??_C@_0BA@JNPAPNBO@matrix_multiply?$AA@
CONST	SEGMENT
??_C@_0BA@JNPAPNBO@matrix_multiply?$AA@ DB 'matrix_multiply', 00H ; `string'
CONST	ENDS
;	COMDAT ??_C@_0BE@KCPFLFEG@reverse_orientation?$AA@
CONST	SEGMENT
??_C@_0BE@KCPFLFEG@reverse_orientation?$AA@ DB 'reverse_orientation', 00H ; `string'
CONST	ENDS
;	COMDAT ??_C@_0N@GDMIKNMD@dump_memlist?$AA@
CONST	SEGMENT
??_C@_0N@GDMIKNMD@dump_memlist?$AA@ DB 'dump_memlist', 00H ; `string'
CONST	ENDS
;	COMDAT ??_C@_0O@OKPNNEJG@free_discards?$AA@
CONST	SEGMENT
??_C@_0O@OKPNNEJG@free_discards?$AA@ DB 'free_discards', 00H ; `string'
CONST	ENDS
;	COMDAT ??_C@_0M@PLKJAEAL@repartition?$AA@
CONST	SEGMENT
??_C@_0M@PLKJAEAL@repartition?$AA@ DB 'repartition', 00H ; `string'
CONST	ENDS
;	COMDAT ??_C@_0L@KHFNHBNM@subcommand?$AA@
CONST	SEGMENT
??_C@_0L@KHFNHBNM@subcommand?$AA@ DB 'subcommand', 00H	; `string'
CONST	ENDS
;	COMDAT ??_C@_05BBAEEBBH@abort?$AA@
CONST	SEGMENT
??_C@_05BBAEEBBH@abort?$AA@ DB 'abort', 00H		; `string'
CONST	ENDS
;	COMDAT ??_C@_0M@BKKBNEBK@breakpoints?$AA@
CONST	SEGMENT
??_C@_0M@BKKBNEBK@breakpoints?$AA@ DB 'breakpoints', 00H ; `string'
CONST	ENDS
;	COMDAT ??_C@_0L@LCAMEHJC@breakpoint?$AA@
CONST	SEGMENT
??_C@_0L@LCAMEHJC@breakpoint?$AA@ DB 'breakpoint', 00H	; `string'
CONST	ENDS
;	COMDAT ??_C@_08DHCGNBAN@whereami?$AA@
CONST	SEGMENT
??_C@_08DHCGNBAN@whereami?$AA@ DB 'whereami', 00H	; `string'
CONST	ENDS
;	COMDAT ??_C@_0N@OJACEENF@replace_load?$AA@
CONST	SEGMENT
??_C@_0N@OJACEENF@replace_load?$AA@ DB 'replace_load', 00H ; `string'
CONST	ENDS
;	COMDAT ??_C@_07BNADNHKE@addload?$AA@
CONST	SEGMENT
??_C@_07BNADNHKE@addload?$AA@ DB 'addload', 00H		; `string'
CONST	ENDS
;	COMDAT ??_C@_0O@ECJLFEKE@simplex_to_fe?$AA@
CONST	SEGMENT
??_C@_0O@ECJLFEKE@simplex_to_fe?$AA@ DB 'simplex_to_fe', 00H ; `string'
CONST	ENDS
;	COMDAT ??_C@_0N@CJJGNHCN@display_text?$AA@
CONST	SEGMENT
??_C@_0N@CJJGNHCN@display_text?$AA@ DB 'display_text', 00H ; `string'
CONST	ENDS
;	COMDAT ??_C@_0M@EOIFPGKG@delete_text?$AA@
CONST	SEGMENT
??_C@_0M@EOIFPGKG@delete_text?$AA@ DB 'delete_text', 00H ; `string'
CONST	ENDS
;	COMDAT ??_C@_0BA@OHLAHHBM@reset_profiling?$AA@
CONST	SEGMENT
??_C@_0BA@OHLAHHBM@reset_profiling?$AA@ DB 'reset_profiling', 00H ; `string'
CONST	ENDS
;	COMDAT ??_C@_09IICGFFJH@profiling?$AA@
CONST	SEGMENT
??_C@_09IICGFFJH@profiling?$AA@ DB 'profiling', 00H	; `string'
CONST	ENDS
;	COMDAT ??_C@_0P@CFKICEKD@valid_boundary?$AA@
CONST	SEGMENT
??_C@_0P@CFKICEKD@valid_boundary?$AA@ DB 'valid_boundary', 00H ; `string'
CONST	ENDS
;	COMDAT ??_C@_0BB@CNFDAFCL@valid_constraint?$AA@
CONST	SEGMENT
??_C@_0BB@CNFDAFCL@valid_constraint?$AA@ DB 'valid_constraint', 00H ; `string'
CONST	ENDS
;	COMDAT ??_C@_0O@KPBBKELJ@is_constraint?$AA@
CONST	SEGMENT
??_C@_0O@KPBBKELJ@is_constraint?$AA@ DB 'is_constraint', 00H ; `string'
CONST	ENDS
;	COMDAT ??_C@_07LDNKKEH@detorus?$AA@
CONST	SEGMENT
??_C@_07LDNKKEH@detorus?$AA@ DB 'detorus', 00H		; `string'
CONST	ENDS
;	COMDAT ??_C@_0P@KJENOODO@facet_crosscut?$AA@
CONST	SEGMENT
??_C@_0P@KJENOODO@facet_crosscut?$AA@ DB 'facet_crosscut', 00H ; `string'
CONST	ENDS
;	COMDAT ??_C@_0BC@NBLIDMLB@make_thread_lists?$AA@
CONST	SEGMENT
??_C@_0BC@NBLIDMLB@make_thread_lists?$AA@ DB 'make_thread_lists', 00H ; `string'
CONST	ENDS
;	COMDAT ??_C@_0BC@KBMGOFNF@no_hessian_normal?$AA@
CONST	SEGMENT
??_C@_0BC@KBMGOFNF@no_hessian_normal?$AA@ DB 'no_hessian_normal', 00H ; `string'
CONST	ENDS
;	COMDAT ??_C@_07LFPCKGAP@p_force?$AA@
CONST	SEGMENT
??_C@_07LFPCKGAP@p_force?$AA@ DB 'p_force', 00H		; `string'
CONST	ENDS
;	COMDAT ??_C@_0L@LJPKPJJM@p_velocity?$AA@
CONST	SEGMENT
??_C@_0L@LJPKPJJM@p_velocity?$AA@ DB 'p_velocity', 00H	; `string'
CONST	ENDS
;	COMDAT ??_C@_07IAPJLEJH@no_dump?$AA@
CONST	SEGMENT
??_C@_07IAPJLEJH@no_dump?$AA@ DB 'no_dump', 00H		; `string'
CONST	ENDS
;	COMDAT ??_C@_0O@KIAILNPN@normal_vector?$AA@
CONST	SEGMENT
??_C@_0O@KIAILNPN@normal_vector?$AA@ DB 'normal_vector', 00H ; `string'
CONST	ENDS
;	COMDAT ??_C@_06IKLLLDHL@normal?$AA@
CONST	SEGMENT
??_C@_06IKLLLDHL@normal?$AA@ DB 'normal', 00H		; `string'
CONST	ENDS
;	COMDAT ??_C@_03JGHBODFD@pow?$AA@
CONST	SEGMENT
??_C@_03JGHBODFD@pow?$AA@ DB 'pow', 00H			; `string'
CONST	ENDS
;	COMDAT ??_C@_07CCOEHHFD@minimum?$AA@
CONST	SEGMENT
??_C@_07CCOEHHFD@minimum?$AA@ DB 'minimum', 00H		; `string'
CONST	ENDS
;	COMDAT ??_C@_07MEIENILC@maximum?$AA@
CONST	SEGMENT
??_C@_07MEIENILC@maximum?$AA@ DB 'maximum', 00H		; `string'
CONST	ENDS
;	COMDAT ??_C@_0BE@DIEKFJPK@incompleteEllipticE?$AA@
CONST	SEGMENT
??_C@_0BE@DIEKFJPK@incompleteEllipticE?$AA@ DB 'incompleteEllipticE', 00H ; `string'
CONST	ENDS
;	COMDAT ??_C@_0BE@BDGHAKDJ@incompleteEllipticF?$AA@
CONST	SEGMENT
??_C@_0BE@BDGHAKDJ@incompleteEllipticF?$AA@ DB 'incompleteEllipticF', 00H ; `string'
CONST	ENDS
;	COMDAT ??_C@_05KNGEOGJB@atan2?$AA@
CONST	SEGMENT
??_C@_05KNGEOGJB@atan2?$AA@ DB 'atan2', 00H		; `string'
CONST	ENDS
;	COMDAT ??_C@_0N@HGNPFHKM@wrap_compose?$AA@
CONST	SEGMENT
??_C@_0N@HGNPFHKM@wrap_compose?$AA@ DB 'wrap_compose', 00H ; `string'
CONST	ENDS
;	COMDAT ??_C@_03BCGAIFPO@abs?$AA@
CONST	SEGMENT
??_C@_03BCGAIFPO@abs?$AA@ DB 'abs', 00H			; `string'
CONST	ENDS
;	COMDAT ??_C@_05PBJFFIGL@floor?$AA@
CONST	SEGMENT
??_C@_05PBJFFIGL@floor?$AA@ DB 'floor', 00H		; `string'
CONST	ENDS
;	COMDAT ??_C@_04GFPJNGEK@ceil?$AA@
CONST	SEGMENT
??_C@_04GFPJNGEK@ceil?$AA@ DB 'ceil', 00H		; `string'
CONST	ENDS
;	COMDAT ??_C@_03OPALDGIC@sqr?$AA@
CONST	SEGMENT
??_C@_03OPALDGIC@sqr?$AA@ DB 'sqr', 00H			; `string'
CONST	ENDS
;	COMDAT ??_C@_04EIAKFFMI@sqrt?$AA@
CONST	SEGMENT
??_C@_04EIAKFFMI@sqrt?$AA@ DB 'sqrt', 00H		; `string'
CONST	ENDS
;	COMDAT ??_C@_05ONDAFDEP@atanh?$AA@
CONST	SEGMENT
??_C@_05ONDAFDEP@atanh?$AA@ DB 'atanh', 00H		; `string'
CONST	ENDS
;	COMDAT ??_C@_05MLNBFPMN@acosh?$AA@
CONST	SEGMENT
??_C@_05MLNBFPMN@acosh?$AA@ DB 'acosh', 00H		; `string'
CONST	ENDS
;	COMDAT ??_C@_05JKKEKHLA@asinh?$AA@
CONST	SEGMENT
??_C@_05JKKEKHLA@asinh?$AA@ DB 'asinh', 00H		; `string'
CONST	ENDS
;	COMDAT ??_C@_04FJHINJAO@tanh?$AA@
CONST	SEGMENT
??_C@_04FJHINJAO@tanh?$AA@ DB 'tanh', 00H		; `string'
CONST	ENDS
;	COMDAT ??_C@_04HPJJNFIM@cosh?$AA@
CONST	SEGMENT
??_C@_04HPJJNFIM@cosh?$AA@ DB 'cosh', 00H		; `string'
CONST	ENDS
;	COMDAT ??_C@_04COOMCNPB@sinh?$AA@
CONST	SEGMENT
??_C@_04COOMCNPB@sinh?$AA@ DB 'sinh', 00H		; `string'
CONST	ENDS
;	COMDAT ??_C@_04MLLJIGOK@atan?$AA@
CONST	SEGMENT
??_C@_04MLLJIGOK@atan?$AA@ DB 'atan', 00H		; `string'
CONST	ENDS
;	COMDAT ??_C@_04PDIFKINK@acos?$AA@
CONST	SEGMENT
??_C@_04PDIFKINK@acos?$AA@ DB 'acos', 00H		; `string'
CONST	ENDS
;	COMDAT ??_C@_04FIHNOPOL@asin?$AA@
CONST	SEGMENT
??_C@_04FIHNOPOL@asin?$AA@ DB 'asin', 00H		; `string'
CONST	ENDS
;	COMDAT ??_C@_03IIINPABG@tan?$AA@
CONST	SEGMENT
??_C@_03IIINPABG@tan?$AA@ DB 'tan', 00H			; `string'
CONST	ENDS
;	COMDAT ??_C@_03LALBNOCG@cos?$AA@
CONST	SEGMENT
??_C@_03LALBNOCG@cos?$AA@ DB 'cos', 00H			; `string'
CONST	ENDS
;	COMDAT ??_C@_03BLEJJJBH@sin?$AA@
CONST	SEGMENT
??_C@_03BLEJJJBH@sin?$AA@ DB 'sin', 00H			; `string'
CONST	ENDS
;	COMDAT ??_C@_03KHJOGHMM@exp?$AA@
CONST	SEGMENT
??_C@_03KHJOGHMM@exp?$AA@ DB 'exp', 00H			; `string'
CONST	ENDS
;	COMDAT ??_C@_03MGHMBJCF@log?$AA@
CONST	SEGMENT
??_C@_03MGHMBJCF@log?$AA@ DB 'log', 00H			; `string'
CONST	ENDS
;	COMDAT ??_C@_09IOEHKLLB@ellipticE?$AA@
CONST	SEGMENT
??_C@_09IOEHKLLB@ellipticE?$AA@ DB 'ellipticE', 00H	; `string'
CONST	ENDS
;	COMDAT ??_C@_09BAMEIGDP@ellipticK?$AA@
CONST	SEGMENT
??_C@_09BAMEIGDP@ellipticK?$AA@ DB 'ellipticK', 00H	; `string'
CONST	ENDS
;	COMDAT ??_C@_0N@CCAKCFDI@wrap_inverse?$AA@
CONST	SEGMENT
??_C@_0N@CCAKCFDI@wrap_inverse?$AA@ DB 'wrap_inverse', 00H ; `string'
CONST	ENDS
;	COMDAT ??_C@_09CMEJCHLK@facetedge?$AA@
CONST	SEGMENT
??_C@_09CMEJCHLK@facetedge?$AA@ DB 'facetedge', 00H	; `string'
CONST	ENDS
;	COMDAT ??_C@_0L@CPIKDJIA@facetedges?$AA@
CONST	SEGMENT
??_C@_0L@CPIKDJIA@facetedges?$AA@ DB 'facetedges', 00H	; `string'
CONST	ENDS
;	COMDAT ??_C@_0L@LKKCPKKM@facet_edge?$AA@
CONST	SEGMENT
??_C@_0L@LKKCPKKM@facet_edge?$AA@ DB 'facet_edge', 00H	; `string'
CONST	ENDS
;	COMDAT ??_C@_0M@NLMIGHAM@facet_edges?$AA@
CONST	SEGMENT
??_C@_0M@NLMIGHAM@facet_edges?$AA@ DB 'facet_edges', 00H ; `string'
CONST	ENDS
;	COMDAT ??_C@_04IEJGKNJ@body?$AA@
CONST	SEGMENT
??_C@_04IEJGKNJ@body?$AA@ DB 'body', 00H		; `string'
CONST	ENDS
;	COMDAT ??_C@_06OHIKIKDI@bodies?$AA@
CONST	SEGMENT
??_C@_06OHIKIKDI@bodies?$AA@ DB 'bodies', 00H		; `string'
CONST	ENDS
;	COMDAT ??_C@_05BIBOABDC@facet?$AA@
CONST	SEGMENT
??_C@_05BIBOABDC@facet?$AA@ DB 'facet', 00H		; `string'
CONST	ENDS
;	COMDAT ??_C@_06MMNNGFLE@facets?$AA@
CONST	SEGMENT
??_C@_06MMNNGFLE@facets?$AA@ DB 'facets', 00H		; `string'
CONST	ENDS
;	COMDAT ??_C@_04POCOPAPC@face?$AA@
CONST	SEGMENT
??_C@_04POCOPAPC@face?$AA@ DB 'face', 00H		; `string'
CONST	ENDS
;	COMDAT ??_C@_05FHFPJHPF@faces?$AA@
CONST	SEGMENT
??_C@_05FHFPJHPF@faces?$AA@ DB 'faces', 00H		; `string'
CONST	ENDS
;	COMDAT ??_C@_04IJFJNCMM@edge?$AA@
CONST	SEGMENT
??_C@_04IJFJNCMM@edge?$AA@ DB 'edge', 00H		; `string'
CONST	ENDS
;	COMDAT ??_C@_05JGEJPNHM@edges?$AA@
CONST	SEGMENT
??_C@_05JGEJPNHM@edges?$AA@ DB 'edges', 00H		; `string'
CONST	ENDS
;	COMDAT ??_C@_06HLKHCFCI@vertex?$AA@
CONST	SEGMENT
??_C@_06HLKHCFCI@vertex?$AA@ DB 'vertex', 00H		; `string'
CONST	ENDS
;	COMDAT ??_C@_08BOLPBPCL@vertices?$AA@
CONST	SEGMENT
??_C@_08BOLPBPCL@vertices?$AA@ DB 'vertices', 00H	; `string'
CONST	ENDS
;	COMDAT ??_C@_08LAAABFKN@original?$AA@
CONST	SEGMENT
??_C@_08LAAABFKN@original?$AA@ DB 'original', 00H	; `string'
CONST	ENDS
;	COMDAT ??_C@_0M@CBIPACOJ@dot_product?$AA@
CONST	SEGMENT
??_C@_0M@CBIPACOJ@dot_product?$AA@ DB 'dot_product', 00H ; `string'
CONST	ENDS
;	COMDAT ??_C@_04CHNIFDFF@idiv?$AA@
CONST	SEGMENT
??_C@_04CHNIFDFF@idiv?$AA@ DB 'idiv', 00H		; `string'
CONST	ENDS
;	COMDAT ??_C@_04CGKJBALO@imod?$AA@
CONST	SEGMENT
??_C@_04CGKJBALO@imod?$AA@ DB 'imod', 00H		; `string'
CONST	ENDS
;	COMDAT ??_C@_03FFONCNID@mod?$AA@
CONST	SEGMENT
??_C@_03FFONCNID@mod?$AA@ DB 'mod', 00H			; `string'
CONST	ENDS
;	COMDAT ??_C@_03NJKJADM@not?$AA@
CONST	SEGMENT
??_C@_03NJKJADM@not?$AA@ DB 'not', 00H			; `string'
CONST	ENDS
;	COMDAT ??_C@_02FODMLBIE@or?$AA@
CONST	SEGMENT
??_C@_02FODMLBIE@or?$AA@ DB 'or', 00H			; `string'
CONST	ENDS
;	COMDAT ??_C@_03BOPJPIAM@and?$AA@
CONST	SEGMENT
??_C@_03BOPJPIAM@and?$AA@ DB 'and', 00H			; `string'
CONST	ENDS
;	COMDAT ??_C@_04POLDLDMI@read?$AA@
CONST	SEGMENT
??_C@_04POLDLDMI@read?$AA@ DB 'read', 00H		; `string'
CONST	ENDS
;	COMDAT ??_C@_08IMINLCCL@volconst?$AA@
CONST	SEGMENT
??_C@_08IMINLCCL@volconst?$AA@ DB 'volconst', 00H	; `string'
CONST	ENDS
;	COMDAT ??_C@_08OCNIHGPN@quantity?$AA@
CONST	SEGMENT
??_C@_08OCNIHGPN@quantity?$AA@ DB 'quantity', 00H	; `string'
CONST	ENDS
;	COMDAT ??_C@_0M@EMFGBOOI@zoom_radius?$AA@
CONST	SEGMENT
??_C@_0M@EMFGBOOI@zoom_radius?$AA@ DB 'zoom_radius', 00H ; `string'
CONST	ENDS
;	COMDAT ??_C@_0M@JBIJOPDG@zoom_vertex?$AA@
CONST	SEGMENT
??_C@_0M@JBIJOPDG@zoom_vertex?$AA@ DB 'zoom_vertex', 00H ; `string'
CONST	ENDS
;	COMDAT ??_C@_0M@PJCBAJEM@scale_limit?$AA@
CONST	SEGMENT
??_C@_0M@PJCBAJEM@scale_limit?$AA@ DB 'scale_limit', 00H ; `string'
CONST	ENDS
;	COMDAT ??_C@_09KIHCPOPL@nodisplay?$AA@
CONST	SEGMENT
??_C@_09KIHCPOPL@nodisplay?$AA@ DB 'nodisplay', 00H	; `string'
CONST	ENDS
;	COMDAT ??_C@_07BJBOFKDG@tension?$AA@
CONST	SEGMENT
??_C@_07BJBOFKDG@tension?$AA@ DB 'tension', 00H		; `string'
CONST	ENDS
;	COMDAT ??_C@_07HAFFKDBK@density?$AA@
CONST	SEGMENT
??_C@_07HAFFKDBK@density?$AA@ DB 'density', 00H		; `string'
CONST	ENDS
;	COMDAT ??_C@_06EMCPHFGM@volume?$AA@
CONST	SEGMENT
??_C@_06EMCPHFGM@volume?$AA@ DB 'volume', 00H		; `string'
CONST	ENDS
;	COMDAT ??_C@_08POHEELCJ@pressure?$AA@
CONST	SEGMENT
??_C@_08POHEELCJ@pressure?$AA@ DB 'pressure', 00H	; `string'
CONST	ENDS
;	COMDAT ??_C@_0M@GJEHHDCL@temperature?$AA@
CONST	SEGMENT
??_C@_0M@GJEHHDCL@temperature?$AA@ DB 'temperature', 00H ; `string'
CONST	ENDS
;	COMDAT ??_C@_06HACLPJI@pscale?$AA@
CONST	SEGMENT
??_C@_06HACLPJI@pscale?$AA@ DB 'pscale', 00H		; `string'
CONST	ENDS
;	COMDAT ??_C@_05MHMEBBGO@scale?$AA@
CONST	SEGMENT
??_C@_05MHMEBBGO@scale?$AA@ DB 'scale', 00H		; `string'
CONST	ENDS
;	COMDAT ??_C@_0N@DKAJABDK@gap_constant?$AA@
CONST	SEGMENT
??_C@_0N@DKAJABDK@gap_constant?$AA@ DB 'gap_constant', 00H ; `string'
CONST	ENDS
;	COMDAT ??_C@_0BA@CNIKOEML@spring_constant?$AA@
CONST	SEGMENT
??_C@_0BA@CNIKOEML@spring_constant?$AA@ DB 'spring_constant', 00H ; `string'
CONST	ENDS
;	COMDAT ??_C@_0BB@LFLMFBL@gravity_constant?$AA@
CONST	SEGMENT
??_C@_0BB@LFLMFBL@gravity_constant?$AA@ DB 'gravity_constant', 00H ; `string'
CONST	ENDS
;	COMDAT ??_C@_0N@OMNDKHGB@merit_factor?$AA@
CONST	SEGMENT
??_C@_0N@OMNDKHGB@merit_factor?$AA@ DB 'merit_factor', 00H ; `string'
CONST	ENDS
;	COMDAT ??_C@_09NBBNKAEP@diffusion?$AA@
CONST	SEGMENT
??_C@_09NBBNKAEP@diffusion?$AA@ DB 'diffusion', 00H	; `string'
CONST	ENDS
;	COMDAT ??_C@_06LGAKKEPJ@jiggle?$AA@
CONST	SEGMENT
??_C@_06LGAKKEPJ@jiggle?$AA@ DB 'jiggle', 00H		; `string'
CONST	ENDS
;	COMDAT ??_C@_0BD@JAENIDNE@area_normalization?$AA@
CONST	SEGMENT
??_C@_0BD@JAENIDNE@area_normalization?$AA@ DB 'area_normalization', 00H ; `string'
CONST	ENDS
;	COMDAT ??_C@_06HPJICMPM@linear?$AA@
CONST	SEGMENT
??_C@_06HPJICMPM@linear?$AA@ DB 'linear', 00H		; `string'
CONST	ENDS
;	COMDAT ??_C@_09NDEBDKFB@quadratic?$AA@
CONST	SEGMENT
??_C@_09NDEBDKFB@quadratic?$AA@ DB 'quadratic', 00H	; `string'
CONST	ENDS
;	COMDAT ??_C@_07ICAJMOAO@content?$AA@
CONST	SEGMENT
??_C@_07ICAJMOAO@content?$AA@ DB 'content', 00H		; `string'
CONST	ENDS
;	COMDAT ??_C@_06KKGCKCNJ@energy?$AA@
CONST	SEGMENT
??_C@_06KKGCKCNJ@energy?$AA@ DB 'energy', 00H		; `string'
CONST	ENDS
;	COMDAT ??_C@_0M@EANCEANL@nonpositive?$AA@
CONST	SEGMENT
??_C@_0M@EANCEANL@nonpositive?$AA@ DB 'nonpositive', 00H ; `string'
CONST	ENDS
;	COMDAT ??_C@_0M@MKNCPPEA@nonnegative?$AA@
CONST	SEGMENT
??_C@_0M@MKNCPPEA@nonnegative?$AA@ DB 'nonnegative', 00H ; `string'
CONST	ENDS
;	COMDAT ??_C@_07FAFBHKGP@nonwall?$AA@
CONST	SEGMENT
??_C@_07FAFBHKGP@nonwall?$AA@ DB 'nonwall', 00H		; `string'
CONST	ENDS
;	COMDAT ??_C@_06OAMDAHCP@convex?$AA@
CONST	SEGMENT
??_C@_06OAMDAHCP@convex?$AA@ DB 'convex', 00H		; `string'
CONST	ENDS
;	COMDAT ??_C@_0BF@MOILGEJM@constraint_tolerance?$AA@
CONST	SEGMENT
??_C@_0BF@MOILGEJM@constraint_tolerance?$AA@ DB 'constraint_tolerance', 00H ; `string'
CONST	ENDS
;	COMDAT ??_C@_0BF@CFFGCHHD@integration_order_2d?$AA@
CONST	SEGMENT
??_C@_0BF@CFFGCHHD@integration_order_2d?$AA@ DB 'integration_order_2d', 00H ; `string'
CONST	ENDS
;	COMDAT ??_C@_0BF@CHBAJJCK@integration_order_1d?$AA@
CONST	SEGMENT
??_C@_0BF@CHBAJJCK@integration_order_1d?$AA@ DB 'integration_order_1d', 00H ; `string'
CONST	ENDS
;	COMDAT ??_C@_0BC@CCICJAIC@integration_order?$AA@
CONST	SEGMENT
??_C@_0BC@CCICJAIC@integration_order?$AA@ DB 'integration_order', 00H ; `string'
CONST	ENDS
;	COMDAT ??_C@_0BC@CBPAEDJL@integral_order_2d?$AA@
CONST	SEGMENT
??_C@_0BC@CBPAEDJL@integral_order_2d?$AA@ DB 'integral_order_2d', 00H ; `string'
CONST	ENDS
;	COMDAT ??_C@_0BC@CDLGPNMC@integral_order_1d?$AA@
CONST	SEGMENT
??_C@_0BC@CDLGPNMC@integral_order_1d?$AA@ DB 'integral_order_1d', 00H ; `string'
CONST	ENDS
;	COMDAT ??_C@_0P@JOOJGKKP@integral_order?$AA@
CONST	SEGMENT
??_C@_0P@JOOJGKKP@integral_order?$AA@ DB 'integral_order', 00H ; `string'
CONST	ENDS
;	COMDAT ??_C@_0BC@COAHFEML@symmetric_content?$AA@
CONST	SEGMENT
??_C@_0BC@COAHFEML@symmetric_content?$AA@ DB 'symmetric_content', 00H ; `string'
CONST	ENDS
;	COMDAT ??_C@_0P@EAADGFKM@parameter_file?$AA@
CONST	SEGMENT
??_C@_0P@EAADGFKM@parameter_file?$AA@ DB 'parameter_file', 00H ; `string'
CONST	ENDS
;	COMDAT ??_C@_0L@HHPOFMCB@parameters?$AA@
CONST	SEGMENT
??_C@_0L@HHPOFMCB@parameters?$AA@ DB 'parameters', 00H	; `string'
CONST	ENDS
;	COMDAT ??_C@_09DAGAJHIH@parameter?$AA@
CONST	SEGMENT
??_C@_09DAGAJHIH@parameter?$AA@ DB 'parameter', 00H	; `string'
CONST	ENDS
;	COMDAT ??_C@_08HFFPPCHF@function?$AA@
CONST	SEGMENT
??_C@_08HFFPPCHF@function?$AA@ DB 'function', 00H	; `string'
CONST	ENDS
;	COMDAT ??_C@_07LHCFJCJM@formula?$AA@
CONST	SEGMENT
??_C@_07LHCFJCJM@formula?$AA@ DB 'formula', 00H		; `string'
CONST	ENDS
;	COMDAT ??_C@_0P@LFIPMAJA@surface_energy?$AA@
CONST	SEGMENT
??_C@_0P@LFIPMAJA@surface_energy?$AA@ DB 'surface_energy', 00H ; `string'
CONST	ENDS
;	COMDAT ??_C@_0M@JGLONDGH@constraints?$AA@
CONST	SEGMENT
??_C@_0M@JGLONDGH@constraints?$AA@ DB 'constraints', 00H ; `string'
CONST	ENDS
;	COMDAT ??_C@_0L@HOHHMJMM@constraint?$AA@
CONST	SEGMENT
??_C@_0L@HOHHMJMM@constraint?$AA@ DB 'constraint', 00H	; `string'
CONST	ENDS
;	COMDAT ??_C@_0L@PABKJGNF@boundaries?$AA@
CONST	SEGMENT
??_C@_0L@PABKJGNF@boundaries?$AA@ DB 'boundaries', 00H	; `string'
CONST	ENDS
;	COMDAT ??_C@_08KIKGFOKI@boundary?$AA@
CONST	SEGMENT
??_C@_08KIKGFOKI@boundary?$AA@ DB 'boundary', 00H	; `string'
CONST	ENDS
;	COMDAT ??_C@_05GHCFDPJC@wulff?$AA@
CONST	SEGMENT
??_C@_05GHCFDPJC@wulff?$AA@ DB 'wulff', 00H		; `string'
CONST	ENDS
;	COMDAT ??_C@_08DODCPBAM@soapfilm?$AA@
CONST	SEGMENT
??_C@_08DODCPBAM@soapfilm?$AA@ DB 'soapfilm', 00H	; `string'
CONST	ENDS
;	COMDAT ??_C@_06ICGJLFIM@string?$AA@
CONST	SEGMENT
??_C@_06ICGJLFIM@string?$AA@ DB 'string', 00H		; `string'
CONST	ENDS
;	COMDAT ??_C@_0BA@HCKIGAAA@display_periods?$AA@
CONST	SEGMENT
??_C@_0BA@HCKIGAAA@display_periods?$AA@ DB 'display_periods', 00H ; `string'
CONST	ENDS
;	COMDAT ??_C@_07BFECMFCO@periods?$AA@
CONST	SEGMENT
??_C@_07BFECMFCO@periods?$AA@ DB 'periods', 00H		; `string'
CONST	ENDS
;	COMDAT ??_C@_0O@IMAKABFD@torus_periods?$AA@
CONST	SEGMENT
??_C@_0O@IMAKABFD@torus_periods?$AA@ DB 'torus_periods', 00H ; `string'
CONST	ENDS
;	COMDAT ??_C@_0N@IGCELFFA@torus_filled?$AA@
CONST	SEGMENT
??_C@_0N@IGCELFFA@torus_filled?$AA@ DB 'torus_filled', 00H ; `string'
CONST	ENDS
;	COMDAT ??_C@_05FCPCBJIO@torus?$AA@
CONST	SEGMENT
??_C@_05FCPCBJIO@torus?$AA@ DB 'torus', 00H		; `string'
CONST	ENDS
;	COMDAT ??_C@_04NFDDIEML@wrap?$AA@
CONST	SEGMENT
??_C@_04NFDDIEML@wrap?$AA@ DB 'wrap', 00H		; `string'
CONST	ENDS
;	COMDAT ??_C@_0P@GKEDIIHF@symmetry_group?$AA@
CONST	SEGMENT
??_C@_0P@GKEDIIHF@symmetry_group?$AA@ DB 'symmetry_group', 00H ; `string'
CONST	ENDS
;	COMDAT ??_C@_06BAJEJFKD@efixed?$AA@
CONST	SEGMENT
??_C@_06BAJEJFKD@efixed?$AA@ DB 'efixed', 00H		; `string'
CONST	ENDS
;	COMDAT ??_C@_0L@DKEDBIHO@noncontent?$AA@
CONST	SEGMENT
??_C@_0L@DKEDBIHO@noncontent?$AA@ DB 'noncontent', 00H	; `string'
CONST	ENDS
;	COMDAT ??_C@_0L@ODCODBLD@no_display?$AA@
CONST	SEGMENT
??_C@_0L@ODCODBLD@no_display?$AA@ DB 'no_display', 00H	; `string'
CONST	ENDS
;	COMDAT ??_C@_0N@OFAMNBMC@centerofmass?$AA@
CONST	SEGMENT
??_C@_0N@OFAMNBMC@centerofmass?$AA@ DB 'centerofmass', 00H ; `string'
CONST	ENDS
;	COMDAT ??_C@_0M@JAGBIOBF@hit_partner?$AA@
CONST	SEGMENT
??_C@_0M@JAGBIOBF@hit_partner?$AA@ DB 'hit_partner', 00H ; `string'
CONST	ENDS
;	COMDAT ??_C@_0N@CMIGFPCH@no_transform?$AA@
CONST	SEGMENT
??_C@_0N@CMIGFPCH@no_transform?$AA@ DB 'no_transform', 00H ; `string'
CONST	ENDS
;	COMDAT ??_C@_09PFNGBABC@no_refine?$AA@
CONST	SEGMENT
??_C@_09PFNGBABC@no_refine?$AA@ DB 'no_refine', 00H	; `string'
CONST	ENDS
;	COMDAT ??_C@_05OFLEIIDM@fixed?$AA@
CONST	SEGMENT
??_C@_05OFLEIIDM@fixed?$AA@ DB 'fixed', 00H		; `string'
CONST	ENDS
;	COMDAT ??_C@_0BB@HOLKBDMI@conformal_metric?$AA@
CONST	SEGMENT
??_C@_0BB@HOLKBDMI@conformal_metric?$AA@ DB 'conformal_metric', 00H ; `string'
CONST	ENDS
;	COMDAT ??_C@_0N@FGNFAGIK@klein_metric?$AA@
CONST	SEGMENT
??_C@_0N@FGNFAGIK@klein_metric?$AA@ DB 'klein_metric', 00H ; `string'
CONST	ENDS
;	COMDAT ??_C@_06BEHJHFJO@metric?$AA@
CONST	SEGMENT
??_C@_06BEHJHFJO@metric?$AA@ DB 'metric', 00H		; `string'
CONST	ENDS
;	COMDAT ??_C@_0BH@ELELLFNL@simplex_representation?$AA@
CONST	SEGMENT
??_C@_0BH@ELELLFNL@simplex_representation?$AA@ DB 'simplex_representation'
	DB	00H						; `string'
CONST	ENDS
;	COMDAT ??_C@_0BC@CCLFHFGM@surface_dimension?$AA@
CONST	SEGMENT
??_C@_0BC@CCLFHFGM@surface_dimension?$AA@ DB 'surface_dimension', 00H ; `string'
CONST	ENDS
;	COMDAT ??_C@_0BA@NCBBEAIN@space_dimension?$AA@
CONST	SEGMENT
??_C@_0BA@NCBBEAIN@space_dimension?$AA@ DB 'space_dimension', 00H ; `string'
CONST	ENDS
;	COMDAT ??_C@_0BH@PBMPDDPJ@conducting_knot_energy?$AA@
CONST	SEGMENT
??_C@_0BH@PBMPDDPJ@conducting_knot_energy?$AA@ DB 'conducting_knot_energy'
	DB	00H						; `string'
CONST	ENDS
;	COMDAT ??_C@_0BH@KFIJAGHO@insulating_knot_energy?$AA@
CONST	SEGMENT
??_C@_0BH@KFIJAGHO@insulating_knot_energy?$AA@ DB 'insulating_knot_energy'
	DB	00H						; `string'
CONST	ENDS
;	COMDAT ??_C@_0BA@MAJEELEA@gauss_curvature?$AA@
CONST	SEGMENT
??_C@_0BA@MAJEELEA@gauss_curvature?$AA@ DB 'gauss_curvature', 00H ; `string'
CONST	ENDS
;	COMDAT ??_C@_0BL@MADIBINB@squared_gaussian_curvature?$AA@
CONST	SEGMENT
??_C@_0BL@MADIBINB@squared_gaussian_curvature?$AA@ DB 'squared_gaussian_c'
	DB	'urvature', 00H				; `string'
CONST	ENDS
;	COMDAT ??_C@_0BK@FKPNCHGB@square_gaussian_curvature?$AA@
CONST	SEGMENT
??_C@_0BK@FKPNCHGB@square_gaussian_curvature?$AA@ DB 'square_gaussian_cur'
	DB	'vature', 00H				; `string'
CONST	ENDS
;	COMDAT ??_C@_0BC@ODOAEPAL@squared_curvature?$AA@
CONST	SEGMENT
??_C@_0BC@ODOAEPAL@squared_curvature?$AA@ DB 'squared_curvature', 00H ; `string'
CONST	ENDS
;	COMDAT ??_C@_0BB@OIOLOLOH@square_curvature?$AA@
CONST	SEGMENT
??_C@_0BB@OIOLOLOH@square_curvature?$AA@ DB 'square_curvature', 00H ; `string'
CONST	ENDS
;	COMDAT ??_C@_0BB@ODBHHAP@normal_curvature?$AA@
CONST	SEGMENT
??_C@_0BB@ODBHHAP@normal_curvature?$AA@ DB 'normal_curvature', 00H ; `string'
CONST	ENDS
;	COMDAT ??_C@_0BI@KGGFDDEC@mean_curvature_integral?$AA@
CONST	SEGMENT
??_C@_0BI@KGGFDDEC@mean_curvature_integral?$AA@ DB 'mean_curvature_integr'
	DB	'al', 00H					; `string'
CONST	ENDS
;	COMDAT ??_C@_0L@DKEJANLD@frontcolor?$AA@
CONST	SEGMENT
??_C@_0L@DKEJANLD@frontcolor?$AA@ DB 'frontcolor', 00H	; `string'
CONST	ENDS
;	COMDAT ??_C@_09OPNKCLNO@backcolor?$AA@
CONST	SEGMENT
??_C@_09OPNKCLNO@backcolor?$AA@ DB 'backcolor', 00H	; `string'
CONST	ENDS
;	COMDAT ??_C@_05PEENBMOG@color?$AA@
CONST	SEGMENT
??_C@_05PEENBMOG@color?$AA@ DB 'color', 00H		; `string'
CONST	ENDS
;	COMDAT ??_C@_0M@OBNGAKOC@runge_kutta?$AA@
CONST	SEGMENT
??_C@_0M@OBNGAKOC@runge_kutta?$AA@ DB 'runge_kutta', 00H ; `string'
CONST	ENDS
;	COMDAT ??_C@_0P@OMMOBLOA@effective_area?$AA@
CONST	SEGMENT
??_C@_0P@OMMOBLOA@effective_area?$AA@ DB 'effective_area', 00H ; `string'
CONST	ENDS
;	COMDAT ??_C@_0L@OIFGKHMH@total_time?$AA@
CONST	SEGMENT
??_C@_0L@OIFGKHMH@total_time?$AA@ DB 'total_time', 00H	; `string'
CONST	ENDS
;	COMDAT ??_C@_08BLGPIPGP@autochop?$AA@
CONST	SEGMENT
??_C@_08BLGPIPGP@autochop?$AA@ DB 'autochop', 00H	; `string'
CONST	ENDS
;	COMDAT ??_C@_0BA@KEKJOJEJ@autopop_quartic?$AA@
CONST	SEGMENT
??_C@_0BA@KEKJOJEJ@autopop_quartic?$AA@ DB 'autopop_quartic', 00H ; `string'
CONST	ENDS
;	COMDAT ??_C@_07LEJGIFAD@autopop?$AA@
CONST	SEGMENT
??_C@_07LEJGIFAD@autopop?$AA@ DB 'autopop', 00H		; `string'
CONST	ENDS
;	COMDAT ??_C@_05CBPKLGJM@phase?$AA@
CONST	SEGMENT
??_C@_05CBPKLGJM@phase?$AA@ DB 'phase', 00H		; `string'
CONST	ENDS
;	COMDAT ??_C@_09JNGEFCBF@phasefile?$AA@
CONST	SEGMENT
??_C@_09JNGEFCBF@phasefile?$AA@ DB 'phasefile', 00H	; `string'
CONST	ENDS
;	COMDAT ??_C@_0BB@MNCGPOEG@approx_curvature?$AA@
CONST	SEGMENT
??_C@_0BB@MNCGPOEG@approx_curvature?$AA@ DB 'approx_curvature', 00H ; `string'
CONST	ENDS
;	COMDAT ??_C@_0BG@CNKFKNKC@approximate_curvature?$AA@
CONST	SEGMENT
??_C@_0BG@CNKFKNKC@approximate_curvature?$AA@ DB 'approximate_curvature', 00H ; `string'
CONST	ENDS
;	COMDAT ??_C@_09PDIDGCEH@homothety?$AA@
CONST	SEGMENT
??_C@_09PDIDGCEH@homothety?$AA@ DB 'homothety', 00H	; `string'
CONST	ENDS
;	COMDAT ??_C@_0BK@PJALNND@view_transform_generators?$AA@
CONST	SEGMENT
??_C@_0BK@PJALNND@view_transform_generators?$AA@ DB 'view_transform_gener'
	DB	'ators', 00H					; `string'
CONST	ENDS
;	COMDAT ??_C@_0BA@IFLDONLI@view_transforms?$AA@
CONST	SEGMENT
??_C@_0BA@IFLDONLI@view_transforms?$AA@ DB 'view_transforms', 00H ; `string'
CONST	ENDS
;	COMDAT ??_C@_0M@PIDOJOI@view_matrix?$AA@
CONST	SEGMENT
??_C@_0M@PIDOJOI@view_matrix?$AA@ DB 'view_matrix', 00H	; `string'
CONST	ENDS
;	COMDAT ??_C@_0L@HCEEFND@fixed_area?$AA@
CONST	SEGMENT
??_C@_0L@HCEEFND@fixed_area?$AA@ DB 'fixed_area', 00H	; `string'
CONST	ENDS
;	COMDAT ??_C@_0L@IDDPHJLO@area_fixed?$AA@
CONST	SEGMENT
??_C@_0L@IDDPHJLO@area_fixed?$AA@ DB 'area_fixed', 00H	; `string'
CONST	ENDS
;	COMDAT ??_C@_06FJKEMHGD@global?$AA@
CONST	SEGMENT
??_C@_06FJKEMHGD@global?$AA@ DB 'global', 00H		; `string'
CONST	ENDS
;	COMDAT ??_C@_0O@LJFOIPB@global_method?$AA@
CONST	SEGMENT
??_C@_0O@LJFOIPB@global_method?$AA@ DB 'global_method', 00H ; `string'
CONST	ENDS
;	COMDAT ??_C@_09EMCPFNEA@info_only?$AA@
CONST	SEGMENT
??_C@_09EMCPFNEA@info_only?$AA@ DB 'info_only', 00H	; `string'
CONST	ENDS
;	COMDAT ??_C@_07CJECEDDG@modulus?$AA@
CONST	SEGMENT
??_C@_07CJECEDDG@modulus?$AA@ DB 'modulus', 00H		; `string'
CONST	ENDS
;	COMDAT ??_C@_0BD@MOPCCJLG@boundary_curvature?$AA@
CONST	SEGMENT
??_C@_0BD@MOPCCJLG@boundary_curvature?$AA@ DB 'boundary_curvature', 00H ; `string'
CONST	ENDS
;	COMDAT ??_C@_04BGEKJPHF@bare?$AA@
CONST	SEGMENT
??_C@_04BGEKJPHF@bare?$AA@ DB 'bare', 00H		; `string'
CONST	ENDS
;	COMDAT ??_C@_0BA@LJFNGFOM@mobility_tensor?$AA@
CONST	SEGMENT
??_C@_0BA@LJFNGFOM@mobility_tensor?$AA@ DB 'mobility_tensor', 00H ; `string'
CONST	ENDS
;	COMDAT ??_C@_08DJCKBMBN@mobility?$AA@
CONST	SEGMENT
??_C@_08DJCKBMBN@mobility?$AA@ DB 'mobility', 00H	; `string'
CONST	ENDS
;	COMDAT ??_C@_0P@LNEAGBL@form_integrand?$AA@
CONST	SEGMENT
??_C@_0P@LNEAGBL@form_integrand?$AA@ DB 'form_integrand', 00H ; `string'
CONST	ENDS
;	COMDAT ??_C@_0P@HMNODAPJ@k_vector_order?$AA@
CONST	SEGMENT
??_C@_0P@HMNODAPJ@k_vector_order?$AA@ DB 'k_vector_order', 00H ; `string'
CONST	ENDS
;	COMDAT ??_C@_0BB@CNKNAII@vector_integrand?$AA@
CONST	SEGMENT
??_C@_0BB@CNKNAII@vector_integrand?$AA@ DB 'vector_integrand', 00H ; `string'
CONST	ENDS
;	COMDAT ??_C@_0BB@KCGOMKJL@scalar_integrand?$AA@
CONST	SEGMENT
??_C@_0BB@KCGOMKJL@scalar_integrand?$AA@ DB 'scalar_integrand', 00H ; `string'
CONST	ENDS
;	COMDAT ??_C@_06GABBCIBA@method?$AA@
CONST	SEGMENT
??_C@_06GABBCIBA@method?$AA@ DB 'method', 00H		; `string'
CONST	ENDS
;	COMDAT ??_C@_0BA@FCDDEKDG@method_instance?$AA@
CONST	SEGMENT
??_C@_0BA@FCDDEKDG@method_instance?$AA@ DB 'method_instance', 00H ; `string'
CONST	ENDS
;	COMDAT ??_C@_09HGIEBAJ@attribute?$AA@
CONST	SEGMENT
??_C@_09HGIEBAJ@attribute?$AA@ DB 'attribute', 00H	; `string'
CONST	ENDS
;	COMDAT ??_C@_06EPMMJFDC@define?$AA@
CONST	SEGMENT
??_C@_06EPMMJFDC@define?$AA@ DB 'define', 00H		; `string'
CONST	ENDS
;	COMDAT ??_C@_06JJLAMBGK@target?$AA@
CONST	SEGMENT
??_C@_06JJLAMBGK@target?$AA@ DB 'target', 00H		; `string'
CONST	ENDS
;	COMDAT ??_C@_05MFEJDJP@value?$AA@
CONST	SEGMENT
??_C@_05MFEJDJP@value?$AA@ DB 'value', 00H		; `string'
CONST	ENDS
;	COMDAT ??_C@_0BG@DMHBIFMB@everything_quantities?$AA@
CONST	SEGMENT
??_C@_0BG@DMHBIFMB@everything_quantities?$AA@ DB 'everything_quantities', 00H ; `string'
CONST	ENDS
;	COMDAT ??_C@_0BF@PCMDHFO@optimising_parameter?$AA@
CONST	SEGMENT
??_C@_0BF@PCMDHFO@optimising_parameter?$AA@ DB 'optimising_parameter', 00H ; `string'
CONST	ENDS
;	COMDAT ??_C@_0BF@HJFOCADB@optimizing_parameter?$AA@
CONST	SEGMENT
??_C@_0BF@HJFOCADB@optimizing_parameter?$AA@ DB 'optimizing_parameter', 00H ; `string'
CONST	ENDS
;	COMDAT ??_C@_0M@JADJAFPH@parameter_2?$AA@
CONST	SEGMENT
??_C@_0M@JADJAFPH@parameter_2?$AA@ DB 'parameter_2', 00H ; `string'
CONST	ENDS
;	COMDAT ??_C@_0M@LLBEFGDE@parameter_1?$AA@
CONST	SEGMENT
??_C@_0M@LLBEFGDE@parameter_1?$AA@ DB 'parameter_1', 00H ; `string'
CONST	ENDS
;	COMDAT ??_C@_0P@DDMFGHDB@lagrange_order?$AA@
CONST	SEGMENT
??_C@_0P@DDMFGHDB@lagrange_order?$AA@ DB 'lagrange_order', 00H ; `string'
CONST	ENDS
;	COMDAT ??_C@_08JNKCHLOP@lagrange?$AA@
CONST	SEGMENT
??_C@_08JNKCHLOP@lagrange?$AA@ DB 'lagrange', 00H	; `string'
CONST	ENDS
;	COMDAT ??_C@_0M@BIHLDDLK@axial_point?$AA@
CONST	SEGMENT
??_C@_0M@BIHLDDLK@axial_point?$AA@ DB 'axial_point', 00H ; `string'
CONST	ENDS
;	COMDAT ??_C@_0BC@KPHKHJOD@interp_bdry_param?$AA@
CONST	SEGMENT
??_C@_0BC@KPHKHJOD@interp_bdry_param?$AA@ DB 'interp_bdry_param', 00H ; `string'
CONST	ENDS
;	COMDAT ??_C@_0N@KPOPAFCP@load_library?$AA@
CONST	SEGMENT
??_C@_0N@KPOPAFCP@load_library?$AA@ DB 'load_library', 00H ; `string'
CONST	ENDS
;	COMDAT ??_C@_0N@DPCDAEDN@ignore_fixed?$AA@
CONST	SEGMENT
??_C@_0N@DPCDAEDN@ignore_fixed?$AA@ DB 'ignore_fixed', 00H ; `string'
CONST	ENDS
;	COMDAT ??_C@_0BD@IJHNDEKK@ignore_constraints?$AA@
CONST	SEGMENT
??_C@_0BD@IJHNDEKK@ignore_constraints?$AA@ DB 'ignore_constraints', 00H ; `string'
CONST	ENDS
;	COMDAT ??_C@_0M@KPMDGEHG@orientation?$AA@
CONST	SEGMENT
??_C@_0M@KPMDGEHG@orientation?$AA@ DB 'orientation', 00H ; `string'
CONST	ENDS
;	COMDAT ??_C@_0BA@DKKLMIEO@evolver_version?$AA@
CONST	SEGMENT
??_C@_0BA@DKKLMIEO@evolver_version?$AA@ DB 'evolver_version', 00H ; `string'
CONST	ENDS
;	COMDAT ??_C@_0BE@MPMEKLIN@lagrange_multiplier?$AA@
CONST	SEGMENT
??_C@_0BE@MPMEKLIN@lagrange_multiplier?$AA@ DB 'lagrange_multiplier', 00H ; `string'
CONST	ENDS
;	COMDAT ??_C@_09FFJNLCDE@tolerance?$AA@
CONST	SEGMENT
??_C@_09FFJNLCDE@tolerance?$AA@ DB 'tolerance', 00H	; `string'
CONST	ENDS
;	COMDAT ??_C@_0P@EHFNPAFG@on_assign_call?$AA@
CONST	SEGMENT
??_C@_0P@EHFNPAFG@on_assign_call?$AA@ DB 'on_assign_call', 00H ; `string'
CONST	ENDS
;	COMDAT ??_C@_06BCKCJHAK@pdelta?$AA@
CONST	SEGMENT
??_C@_06BCKCJHAK@pdelta?$AA@ DB 'pdelta', 00H		; `string'
CONST	ENDS
;	COMDAT ??_C@_0M@MGPGBEBP@keep_macros?$AA@
CONST	SEGMENT
??_C@_0M@MGPGBEBP@keep_macros?$AA@ DB 'keep_macros', 00H ; `string'
CONST	ENDS
;	COMDAT ??_C@_0O@CFOLDLE@actual_volume?$AA@
CONST	SEGMENT
??_C@_0O@CFOLDLE@actual_volume?$AA@ DB 'actual_volume', 00H ; `string'
CONST	ENDS
;	COMDAT ??_C@_09GHGMGLNO@conserved?$AA@
CONST	SEGMENT
??_C@_09GHGMGLNO@conserved?$AA@ DB 'conserved', 00H	; `string'
CONST	ENDS
;	COMDAT ??_C@_04PJDNGLKJ@self?$AA@
CONST	SEGMENT
??_C@_04PJDNGLKJ@self?$AA@ DB 'self', 00H		; `string'
CONST	ENDS
;	COMDAT ??_C@_0M@GNHLGAPA@swap_colors?$AA@
CONST	SEGMENT
??_C@_0M@GNHLGAPA@swap_colors?$AA@ DB 'swap_colors', 00H ; `string'
CONST	ENDS
;	COMDAT ??_C@_0BA@EFLDDNJL@element_modulus?$AA@
CONST	SEGMENT
??_C@_0BA@EFLDDNJL@element_modulus?$AA@ DB 'element_modulus', 00H ; `string'
CONST	ENDS
;	COMDAT ??_C@_0P@NAPIFNOG@keep_originals?$AA@
CONST	SEGMENT
??_C@_0P@NAPIFNOG@keep_originals?$AA@ DB 'keep_originals', 00H ; `string'
CONST	ENDS
;	COMDAT ??_C@_0BO@JLAEKIJE@hessian_special_normal_vector?$AA@
CONST	SEGMENT
??_C@_0BO@JLAEKIJE@hessian_special_normal_vector?$AA@ DB 'hessian_special'
	DB	'_normal_vector', 00H			; `string'
CONST	ENDS
;	COMDAT ??_C@_0BB@CNJENMNM@area_method_name?$AA@
CONST	SEGMENT
??_C@_0BB@CNJENMNM@area_method_name?$AA@ DB 'area_method_name', 00H ; `string'
CONST	ENDS
;	COMDAT ??_C@_0BD@LPDEKMFI@length_method_name?$AA@
CONST	SEGMENT
??_C@_0BD@LPDEKMFI@length_method_name?$AA@ DB 'length_method_name', 00H ; `string'
CONST	ENDS
;	COMDAT ??_C@_0P@OAMDDONM@display_origin?$AA@
CONST	SEGMENT
??_C@_0P@OAMDDONM@display_origin?$AA@ DB 'display_origin', 00H ; `string'
CONST	ENDS
;	COMDAT ??_C@_09KAGJCBDL@procedure?$AA@
CONST	SEGMENT
??_C@_09KAGJCBDL@procedure?$AA@ DB 'procedure', 00H	; `string'
CONST	ENDS
;	COMDAT ??_C@_0BA@FGAGLOAP@partner_hitting?$AA@
CONST	SEGMENT
??_C@_0BA@FGAGLOAP@partner_hitting?$AA@ DB 'partner_hitting', 00H ; `string'
CONST	ENDS
;	COMDAT ??_C@_0BD@PDLHDKOI@volume_method_name?$AA@
CONST	SEGMENT
??_C@_0BD@PDLHDKOI@volume_method_name?$AA@ DB 'volume_method_name', 00H ; `string'
CONST	ENDS
;	COMDAT ??_C@_0BD@JLBMBNDA@unsuppress_warning?$AA@
CONST	SEGMENT
??_C@_0BD@JLBMBNDA@unsuppress_warning?$AA@ DB 'unsuppress_warning', 00H ; `string'
CONST	ENDS
;	COMDAT ??_C@_0BB@DAFJNDLH@suppress_warning?$AA@
CONST	SEGMENT
??_C@_0BB@DAFJNDLH@suppress_warning?$AA@ DB 'suppress_warning', 00H ; `string'
CONST	ENDS
;	COMDAT ??_C@_0O@FHDEFNFH@high_boundary?$AA@
CONST	SEGMENT
??_C@_0O@FHDEFNFH@high_boundary?$AA@ DB 'high_boundary', 00H ; `string'
CONST	ENDS
;	COMDAT ??_C@_0BA@HEFKJKJG@high_constraint?$AA@
CONST	SEGMENT
??_C@_0BA@HEFKJKJG@high_constraint?$AA@ DB 'high_constraint', 00H ; `string'
CONST	ENDS
;	COMDAT ??_C@_0N@BGNGCLLP@content_rank?$AA@
CONST	SEGMENT
??_C@_0N@BGNGCLLP@content_rank?$AA@ DB 'content_rank', 00H ; `string'
CONST	ENDS
;	COMDAT ??_C@_0BD@DOOANBHL@on_method_instance?$AA@
CONST	SEGMENT
??_C@_0BD@DOOANBHL@on_method_instance?$AA@ DB 'on_method_instance', 00H ; `string'
CONST	ENDS
;	COMDAT ??_C@_0M@GPHPDHLO@on_quantity?$AA@
CONST	SEGMENT
??_C@_0M@GPHPDHLO@on_quantity?$AA@ DB 'on_quantity', 00H ; `string'
CONST	ENDS
;	COMDAT ??_C@_0M@CFABBPOL@on_boundary?$AA@
CONST	SEGMENT
??_C@_0M@CFABBPOL@on_boundary?$AA@ DB 'on_boundary', 00H ; `string'
CONST	ENDS
;	COMDAT ??_C@_0BE@CFDLCAJO@value_of_constraint?$AA@
CONST	SEGMENT
??_C@_0BE@CFDLCAJO@value_of_constraint?$AA@ DB 'value_of_constraint', 00H ; `string'
CONST	ENDS
;	COMDAT ??_C@_0P@FJLNFBKF@hit_constraint?$AA@
CONST	SEGMENT
??_C@_0P@FJLNFBKF@hit_constraint?$AA@ DB 'hit_constraint', 00H ; `string'
CONST	ENDS
;	COMDAT ??_C@_0O@KEPICJKL@on_constraint?$AA@
CONST	SEGMENT
??_C@_0O@KEPICJKL@on_constraint?$AA@ DB 'on_constraint', 00H ; `string'
CONST	ENDS
;	COMDAT ??_C@_0M@GOLNCKNL@slice_coeff?$AA@
CONST	SEGMENT
??_C@_0M@GOLNCKNL@slice_coeff?$AA@ DB 'slice_coeff', 00H ; `string'
CONST	ENDS
;	COMDAT ??_C@_0L@PJJPIEAP@clip_coeff?$AA@
CONST	SEGMENT
??_C@_0L@PJJPIEAP@clip_coeff?$AA@ DB 'clip_coeff', 00H	; `string'
CONST	ENDS
;	COMDAT ??_C@_0BB@EHCKFCGI@mpi_local_bodies?$AA@
CONST	SEGMENT
??_C@_0BB@EHCKFCGI@mpi_local_bodies?$AA@ DB 'mpi_local_bodies', 00H ; `string'
CONST	ENDS
;	COMDAT ??_C@_07IJGPCJHC@opacity?$AA@
CONST	SEGMENT
??_C@_07IJGPCJHC@opacity?$AA@ DB 'opacity', 00H		; `string'
CONST	ENDS
;	COMDAT ??_C@_0BL@GEDNAPDC@method_instances_predicted?$AA@
CONST	SEGMENT
??_C@_0BL@GEDNAPDC@method_instances_predicted?$AA@ DB 'method_instances_p'
	DB	'redicted', 00H				; `string'
CONST	ENDS
;	COMDAT ??_C@_0BF@MMBIFFBD@quantities_predicted?$AA@
CONST	SEGMENT
??_C@_0BF@MMBIFFBD@quantities_predicted?$AA@ DB 'quantities_predicted', 00H ; `string'
CONST	ENDS
;	COMDAT ??_C@_0BF@OBIIONED@facetedges_predicted?$AA@
CONST	SEGMENT
??_C@_0BF@OBIIONED@facetedges_predicted?$AA@ DB 'facetedges_predicted', 00H ; `string'
CONST	ENDS
;	COMDAT ??_C@_0BB@PCLCALDK@bodies_predicted?$AA@
CONST	SEGMENT
??_C@_0BB@PCLCALDK@bodies_predicted?$AA@ DB 'bodies_predicted', 00H ; `string'
CONST	ENDS
;	COMDAT ??_C@_0BB@HJFNDLDG@facets_predicted?$AA@
CONST	SEGMENT
??_C@_0BB@HJFNDLDG@facets_predicted?$AA@ DB 'facets_predicted', 00H ; `string'
CONST	ENDS
;	COMDAT ??_C@_0BA@EPBHJJLH@edges_predicted?$AA@
CONST	SEGMENT
??_C@_0BA@EPBHJJLH@edges_predicted?$AA@ DB 'edges_predicted', 00H ; `string'
CONST	ENDS
;	COMDAT ??_C@_0BD@ICOCBELD@vertices_predicted?$AA@
CONST	SEGMENT
??_C@_0BD@ICOCBELD@vertices_predicted?$AA@ DB 'vertices_predicted', 00H ; `string'
CONST	ENDS
;	COMDAT ??_C@_0BA@GIOJPOGN@calculate_in_3d?$AA@
CONST	SEGMENT
??_C@_0BA@GIOJPOGN@calculate_in_3d?$AA@ DB 'calculate_in_3d', 00H ; `string'
CONST	ENDS
;	COMDAT ??_C@_06INBLBDJM@?5?7?$AN?0?3?$DL?$AA@
CONST	SEGMENT
??_C@_06INBLBDJM@?5?7?$AN?0?3?$DL?$AA@ DB ' ', 09H, 0dH, ',:;', 00H ; `string'
CONST	ENDS
;	COMDAT ??_C@_01JEJKBAGA@g?$AA@
CONST	SEGMENT
??_C@_01JEJKBAGA@g?$AA@ DB 'g', 00H			; `string'
CONST	ENDS
;	COMDAT ??_C@_01KGKMHCOC@e?$AA@
CONST	SEGMENT
??_C@_01KGKMHCOC@e?$AA@ DB 'e', 00H			; `string'
CONST	ENDS
;	COMDAT ??_C@_02OAHAJOFD@pi?$AA@
CONST	SEGMENT
??_C@_02OAHAJOFD@pi?$AA@ DB 'pi', 00H			; `string'
CONST	ENDS
_DATA	SEGMENT
_yy_init DD	01H
_line_no DD	01H
_yy_accept DW	00H
	DW	00H
	DW	00H
	DW	045H
	DW	043H
	DW	041H
	DW	03H
	DW	038H
	DW	019H
	DW	043H
	DW	029H
	DW	043H
	DW	043H
	DW	02eH
	DW	02fH
	DW	029H
	DW	029H
	DW	028H
	DW	029H
	DW	029H
	DW	07H
	DW	07H
	DW	07H
	DW	042H
	DW	02aH
	DW	029H
	DW	02dH
	DW	029H
	DW	03fH
	DW	03fH
	DW	030H
	DW	02bH
	DW	039H
	DW	02cH
	DW	041H
	DW	029H
	DW	01fH
	DW	029H
	DW	05H
	DW	05H
	DW	05H
	DW	00H
	DW	00H
	DW	01cH
	DW	00H
	DW	033H
	DW	00H
	DW	00H
	DW	037H
	DW	00H
	DW	031H
	DW	024H
	DW	022H
	DW	023H
	DW	017H
	DW	01H
	DW	02H
	DW	025H
	DW	016H
	DW	07H
	DW	07H
	DW	0bH
	DW	00H
	DW	00H
	DW	00H
	DW	020H
	DW	021H
	DW	034H
	DW	032H
	DW	035H
	DW	03aH
	DW	03fH
	DW	03fH
	DW	00H
	DW	03cH
	DW	036H
	DW	00H
	DW	00H
	DW	01cH
	DW	00H
	DW	05H
	DW	00H
	DW	00H
	DW	01eH
	DW	05H
	DW	014H
	DW	013H
	DW	05H
	DW	05H
	DW	00H
	DW	00H
	DW	00H
	DW	06H
	DW	01aH
	DW	01bH
	DW	06H
	DW	01dH
	DW	00H
	DW	00H
	DW	00H
	DW	040H
	DW	00H
	DW	02H
	DW	016H
	DW	00H
	DW	00H
	DW	018H
	DW	0aH
	DW	00H
	DW	026H
	DW	03bH
	DW	03fH
	DW	00H
	DW	06H
	DW	05H
	DW	014H
	DW	013H
	DW	00H
	DW	00H
	DW	0eH
	DW	0dH
	DW	00H
	DW	00H
	DW	013H
	DW	00H
	DW	08H
	DW	00H
	DW	015H
	DW	011H
	DW	010H
	DW	00H
	DW	09H
	DW	00H
	DW	00H
	DW	00H
	DW	017H
	DW	00H
	DW	0cH
	DW	0cH
	DW	00H
	DW	016H
	DW	027H
	DW	03fH
	DW	0eH
	DW	0dH
	DW	00H
	DW	00H
	DW	013H
	DW	00H
	DW	08H
	DW	00H
	DW	015H
	DW	00H
	DW	0dH
	DW	00H
	DW	00H
	DW	0fH
	DW	00H
	DW	014H
	DW	00H
	DW	0cH
	DW	00H
	DW	013H
	DW	00H
	DW	010H
	DW	00H
	DW	00H
	DW	012H
	DW	00H
	DW	00H
	DW	00H
	DW	016H
	DW	03fH
	DW	00H
	DW	0dH
	DW	00H
	DW	00H
	DW	0fH
	DW	00H
	DW	014H
	DW	00H
	DW	00H
	DW	013H
	DW	00H
	DW	0eH
	DW	00H
	DW	00H
	DW	0dH
	DW	00H
	DW	013H
	DW	00H
	DW	011H
	DW	00H
	DW	00H
	DW	010H
	DW	00H
	DW	00H
	DW	03fH
	DW	00H
	DW	0eH
	DW	00H
	DW	00H
	DW	0dH
	DW	00H
	DW	013H
	DW	00H
	DW	0dH
	DW	00H
	DW	010H
	DW	03dH
	DW	00H
	DW	03fH
	DW	00H
	DW	0dH
	DW	00H
	DW	03fH
	DW	00H
	DW	00H
	DW	03fH
	DW	00H
	DW	03eH
	DW	03fH
	DW	03fH
	DW	03fH
	DW	03fH
	DW	03fH
	DW	03fH
	DW	03fH
	DW	04H
	DW	00H
_whitespace DD	FLAT:??_C@_06INBLBDJM@?5?7?$AN?0?3?$DL?$AA@
_yy_ec	DD	00H
	DD	01H
	DD	01H
	DD	01H
	DD	01H
	DD	01H
	DD	01H
	DD	01H
	DD	01H
	DD	02H
	DD	03H
	DD	01H
	DD	01H
	DD	02H
	DD	01H
	DD	01H
	DD	01H
	DD	01H
	DD	01H
	DD	01H
	DD	01H
	DD	01H
	DD	01H
	DD	01H
	DD	01H
	DD	01H
	DD	02H
	DD	01H
	DD	01H
	DD	01H
	DD	01H
	DD	01H
	DD	04H
	DD	05H
	DD	06H
	DD	07H
	DD	01H
	DD	08H
	DD	09H
	DD	0aH
	DD	0bH
	DD	0cH
	DD	0dH
	DD	0eH
	DD	0fH
	DD	010H
	DD	011H
	DD	012H
	DD	013H
	DD	014H
	DD	015H
	DD	015H
	DD	015H
	DD	015H
	DD	015H
	DD	015H
	DD	015H
	DD	015H
	DD	016H
	DD	017H
	DD	018H
	DD	019H
	DD	01aH
	DD	08H
	DD	01bH
	DD	01cH
	DD	01dH
	DD	01cH
	DD	01eH
	DD	01eH
	DD	01cH
	DD	01fH
	DD	01fH
	DD	01fH
	DD	01fH
	DD	020H
	DD	01fH
	DD	01fH
	DD	01fH
	DD	021H
	DD	01fH
	DD	01fH
	DD	01fH
	DD	01fH
	DD	022H
	DD	01fH
	DD	01fH
	DD	01fH
	DD	01fH
	DD	01fH
	DD	01fH
	DD	08H
	DD	01H
	DD	08H
	DD	08H
	DD	023H
	DD	024H
	DD	025H
	DD	026H
	DD	027H
	DD	028H
	DD	029H
	DD	02aH
	DD	02bH
	DD	02bH
	DD	02cH
	DD	02bH
	DD	02bH
	DD	02dH
	DD	02bH
	DD	02eH
	DD	02fH
	DD	02bH
	DD	02bH
	DD	02bH
	DD	02bH
	DD	030H
	DD	031H
	DD	02bH
	DD	02bH
	DD	032H
	DD	02bH
	DD	02bH
	DD	033H
	DD	034H
	DD	035H
	DD	01H
	DD	01H
	DD	01H
	DD	01H
	DD	01H
	DD	01H
	DD	01H
	DD	01H
	DD	01H
	DD	01H
	DD	01H
	DD	01H
	DD	01H
	DD	01H
	DD	01H
	DD	01H
	DD	01H
	DD	01H
	DD	01H
	DD	01H
	DD	01H
	DD	01H
	DD	01H
	DD	01H
	DD	01H
	DD	01H
	DD	01H
	DD	01H
	DD	01H
	DD	01H
	DD	01H
	DD	01H
	DD	01H
	DD	01H
	DD	01H
	DD	01H
	DD	01H
	DD	01H
	DD	01H
	DD	01H
	DD	01H
	DD	01H
	DD	01H
	DD	01H
	DD	01H
	DD	01H
	DD	01H
	DD	01H
	DD	01H
	DD	01H
	DD	01H
	DD	01H
	DD	01H
	DD	01H
	DD	01H
	DD	01H
	DD	01H
	DD	01H
	DD	01H
	DD	01H
	DD	01H
	DD	01H
	DD	01H
	DD	01H
	DD	01H
	DD	01H
	DD	01H
	DD	01H
	DD	01H
	DD	01H
	DD	01H
	DD	01H
	DD	01H
	DD	01H
	DD	01H
	DD	01H
	DD	01H
	DD	01H
	DD	01H
	DD	01H
	DD	01H
	DD	01H
	DD	01H
	DD	01H
	DD	01H
	DD	01H
	DD	01H
	DD	01H
	DD	01H
	DD	01H
	DD	01H
	DD	01H
	DD	01H
	DD	01H
	DD	01H
	DD	01H
	DD	01H
	DD	01H
	DD	01H
	DD	01H
	DD	01H
	DD	01H
	DD	01H
	DD	01H
	DD	01H
	DD	01H
	DD	01H
	DD	01H
	DD	01H
	DD	01H
	DD	01H
	DD	01H
	DD	01H
	DD	01H
	DD	01H
	DD	01H
	DD	01H
	DD	01H
	DD	01H
	DD	01H
	DD	01H
	DD	01H
	DD	01H
	DD	01H
	DD	01H
	DD	01H
	DD	01H
	DD	01H
	DD	01H
	DD	01H
_yy_meta DD	00H
	DD	01H
	DD	01H
	DD	02H
	DD	01H
	DD	01H
	DD	01H
	DD	01H
	DD	01H
	DD	01H
	DD	01H
	DD	01H
	DD	01H
	DD	01H
	DD	01H
	DD	01H
	DD	01H
	DD	01H
	DD	01H
	DD	03H
	DD	03H
	DD	03H
	DD	01H
	DD	01H
	DD	01H
	DD	01H
	DD	01H
	DD	01H
	DD	04H
	DD	04H
	DD	05H
	DD	06H
	DD	06H
	DD	06H
	DD	06H
	DD	07H
	DD	01H
	DD	05H
	DD	05H
	DD	05H
	DD	05H
	DD	05H
	DD	05H
	DD	08H
	DD	08H
	DD	08H
	DD	08H
	DD	08H
	DD	08H
	DD	08H
	DD	08H
	DD	01H
	DD	01H
	DD	01H
_yy_base DW	00H
	DW	00H
	DW	034H
	DW	0133H
	DW	033bH
	DW	03cH
	DW	033bH
	DW	0118H
	DW	033bH
	DW	0fH
	DW	033bH
	DW	011eH
	DW	00H
	DW	033bH
	DW	033bH
	DW	02dH
	DW	0107H
	DW	0106H
	DW	03fH
	DW	048H
	DW	051H
	DW	0e9H
	DW	04aH
	DW	023H
	DW	0fdH
	DW	0f7H
	DW	0f2H
	DW	034H
	DW	00H
	DW	0e1H
	DW	047H
	DW	033bH
	DW	0cdH
	DW	033bH
	DW	082H
	DW	058H
	DW	074H
	DW	044H
	DW	087H
	DW	0caH
	DW	0a9H
	DW	0c6H
	DW	06aH
	DW	0daH
	DW	08bH
	DW	033bH
	DW	0d2H
	DW	0cbH
	DW	033bH
	DW	0ebH
	DW	033bH
	DW	033bH
	DW	033bH
	DW	033bH
	DW	097H
	DW	033bH
	DW	00H
	DW	033bH
	DW	0a3H
	DW	0c2H
	DW	0ceH
	DW	033bH
	DW	0eaH
	DW	00H
	DW	04aH
	DW	033bH
	DW	033bH
	DW	033bH
	DW	033bH
	DW	033bH
	DW	0d0H
	DW	00H
	DW	0bbH
	DW	058H
	DW	033bH
	DW	033bH
	DW	00H
	DW	0d3H
	DW	0efH
	DW	06dH
	DW	0f4H
	DW	077H
	DW	0f9H
	DW	033bH
	DW	0100H
	DW	0105H
	DW	0111H
	DW	0b3H
	DW	00H
	DW	094H
	DW	0122H
	DW	09eH
	DW	012aH
	DW	03bH
	DW	033bH
	DW	0143H
	DW	033bH
	DW	0baH
	DW	0b6H
	DW	0b1H
	DW	033bH
	DW	0132H
	DW	00H
	DW	0137H
	DW	0154H
	DW	0ddH
	DW	0117H
	DW	00H
	DW	0b7H
	DW	033bH
	DW	033bH
	DW	099H
	DW	013aH
	DW	0148H
	DW	0161H
	DW	015aH
	DW	0166H
	DW	0172H
	DW	017dH
	DW	0180H
	DW	0183H
	DW	018fH
	DW	019fH
	DW	0192H
	DW	01a9H
	DW	0186H
	DW	01acH
	DW	01afH
	DW	01b2H
	DW	01b5H
	DW	01c1H
	DW	01b8H
	DW	09aH
	DW	098H
	DW	01c4H
	DW	01ccH
	DW	01d4H
	DW	01d7H
	DW	01dfH
	DW	01e3H
	DW	01e6H
	DW	033bH
	DW	097H
	DW	01e9H
	DW	01ecH
	DW	01f8H
	DW	0208H
	DW	01fbH
	DW	0212H
	DW	01efH
	DW	0215H
	DW	0218H
	DW	0220H
	DW	0223H
	DW	022bH
	DW	022fH
	DW	0232H
	DW	0235H
	DW	023aH
	DW	0242H
	DW	024aH
	DW	024dH
	DW	0250H
	DW	0258H
	DW	025bH
	DW	0263H
	DW	0267H
	DW	026aH
	DW	094H
	DW	08aH
	DW	026dH
	DW	0272H
	DW	091H
	DW	027aH
	DW	027dH
	DW	0285H
	DW	0289H
	DW	028cH
	DW	028fH
	DW	0294H
	DW	029cH
	DW	029fH
	DW	02a2H
	DW	02a5H
	DW	02a8H
	DW	02b0H
	DW	02b3H
	DW	02b6H
	DW	02b9H
	DW	02bcH
	DW	02bfH
	DW	02c2H
	DW	02caH
	DW	02cdH
	DW	02d0H
	DW	085H
	DW	07bH
	DW	074H
	DW	02d3H
	DW	02d6H
	DW	02deH
	DW	02e1H
	DW	02e4H
	DW	02e7H
	DW	02eaH
	DW	02edH
	DW	02f0H
	DW	02f3H
	DW	02f6H
	DW	033bH
	DW	074H
	DW	06dH
	DW	02f9H
	DW	02fcH
	DW	0d1H
	DW	066H
	DW	0310H
	DW	08bH
	DW	066H
	DW	088H
	DW	033bH
	DW	059H
	DW	047H
	DW	045H
	DW	04dH
	DW	048H
	DW	022H
	DW	021H
	DW	00H
	DW	033bH
	DW	0313H
	DW	0319H
	DW	0321H
	DW	0327H
	DW	032aH
	DW	0332H
_yy_def	DW	00H
	DW	0e5H
	DW	01H
	DW	0e5H
	DW	0e5H
	DW	0e5H
	DW	0e5H
	DW	0e5H
	DW	0e5H
	DW	0e5H
	DW	0e5H
	DW	0e5H
	DW	0e6H
	DW	0e5H
	DW	0e5H
	DW	0e5H
	DW	0e5H
	DW	0e5H
	DW	0e5H
	DW	0e5H
	DW	0e5H
	DW	014H
	DW	0e5H
	DW	0e5H
	DW	0e5H
	DW	0e5H
	DW	0e5H
	DW	0e5H
	DW	0e7H
	DW	0e7H
	DW	0e5H
	DW	0e5H
	DW	0e5H
	DW	0e5H
	DW	0e5H
	DW	0e5H
	DW	0e5H
	DW	0e5H
	DW	0e5H
	DW	026H
	DW	0e5H
	DW	0e5H
	DW	0e5H
	DW	0e5H
	DW	0e5H
	DW	0e5H
	DW	0e5H
	DW	0e5H
	DW	0e5H
	DW	0e5H
	DW	0e5H
	DW	0e5H
	DW	0e5H
	DW	0e5H
	DW	0e5H
	DW	0e5H
	DW	0e8H
	DW	0e5H
	DW	0e5H
	DW	014H
	DW	0e5H
	DW	0e5H
	DW	0e5H
	DW	0e9H
	DW	0e5H
	DW	0e5H
	DW	0e5H
	DW	0e5H
	DW	0e5H
	DW	0e5H
	DW	0e5H
	DW	0e7H
	DW	0e7H
	DW	0e5H
	DW	0e5H
	DW	0e5H
	DW	022H
	DW	0e5H
	DW	02bH
	DW	0e5H
	DW	0e5H
	DW	0e5H
	DW	0e5H
	DW	0e5H
	DW	0e5H
	DW	0e5H
	DW	0e5H
	DW	026H
	DW	028H
	DW	0e5H
	DW	0e5H
	DW	0e5H
	DW	0e5H
	DW	0e5H
	DW	0e5H
	DW	0e5H
	DW	0e5H
	DW	0e5H
	DW	0e5H
	DW	0e5H
	DW	0e5H
	DW	0e5H
	DW	0e8H
	DW	0eaH
	DW	0e5H
	DW	0e5H
	DW	0e5H
	DW	0e9H
	DW	0e5H
	DW	0e5H
	DW	0e5H
	DW	0e7H
	DW	0e5H
	DW	0e5H
	DW	0e5H
	DW	0e5H
	DW	0e5H
	DW	0e5H
	DW	0e5H
	DW	0e5H
	DW	0e5H
	DW	0e5H
	DW	0e5H
	DW	0eaH
	DW	0e5H
	DW	0e5H
	DW	0e5H
	DW	0e5H
	DW	0e5H
	DW	0e5H
	DW	0e5H
	DW	0e5H
	DW	0e5H
	DW	0e5H
	DW	0e5H
	DW	0e5H
	DW	0e5H
	DW	0eaH
	DW	089H
	DW	0e5H
	DW	0e5H
	DW	0e5H
	DW	0e7H
	DW	0e5H
	DW	0e5H
	DW	0e5H
	DW	0e5H
	DW	0e5H
	DW	0e5H
	DW	0e5H
	DW	0e5H
	DW	0e5H
	DW	0e5H
	DW	0e5H
	DW	0e5H
	DW	0e5H
	DW	0e5H
	DW	0e5H
	DW	0e5H
	DW	0e5H
	DW	089H
	DW	0e5H
	DW	0e5H
	DW	0e5H
	DW	0e5H
	DW	0e5H
	DW	0e5H
	DW	0e5H
	DW	0e5H
	DW	0e5H
	DW	0e5H
	DW	0e5H
	DW	0e7H
	DW	0e5H
	DW	0e5H
	DW	0e5H
	DW	0e5H
	DW	0e5H
	DW	0e5H
	DW	0e5H
	DW	0e5H
	DW	0e5H
	DW	0e5H
	DW	0e5H
	DW	0e5H
	DW	0e5H
	DW	0e5H
	DW	0e5H
	DW	0e5H
	DW	0e5H
	DW	0e5H
	DW	0e5H
	DW	0e5H
	DW	0e5H
	DW	0e5H
	DW	0e5H
	DW	0e5H
	DW	0e7H
	DW	0e5H
	DW	0e5H
	DW	0e5H
	DW	0e5H
	DW	0e5H
	DW	0e5H
	DW	0e5H
	DW	0e5H
	DW	0e5H
	DW	0e5H
	DW	0e5H
	DW	0e5H
	DW	0e5H
	DW	0e7H
	DW	0e5H
	DW	0e5H
	DW	0e5H
	DW	0e7H
	DW	0e5H
	DW	0ebH
	DW	0e7H
	DW	0ebH
	DW	0e5H
	DW	0e7H
	DW	0e7H
	DW	0e7H
	DW	0e7H
	DW	0e7H
	DW	0e7H
	DW	0e7H
	DW	0e7H
	DW	00H
	DW	0e5H
	DW	0e5H
	DW	0e5H
	DW	0e5H
	DW	0e5H
	DW	0e5H
_yy_nxt	DW	00H
	DW	04H
	DW	05H
	DW	06H
	DW	05H
	DW	07H
	DW	08H
	DW	09H
	DW	0aH
	DW	0bH
	DW	0cH
	DW	0dH
	DW	0eH
	DW	0fH
	DW	010H
	DW	0aH
	DW	011H
	DW	012H
	DW	013H
	DW	014H
	DW	015H
	DW	016H
	DW	017H
	DW	018H
	DW	019H
	DW	01aH
	DW	01bH
	DW	04H
	DW	01cH
	DW	01cH
	DW	01cH
	DW	01cH
	DW	01cH
	DW	01cH
	DW	01cH
	DW	01dH
	DW	01eH
	DW	01cH
	DW	01cH
	DW	01cH
	DW	01cH
	DW	01cH
	DW	01cH
	DW	01cH
	DW	01cH
	DW	01cH
	DW	01cH
	DW	01cH
	DW	01cH
	DW	01cH
	DW	01cH
	DW	01fH
	DW	020H
	DW	021H
	DW	022H
	DW	02eH
	DW	022H
	DW	040H
	DW	032H
	DW	02fH
	DW	041H
	DW	05dH
	DW	029H
	DW	05dH
	DW	029H
	DW	0e4H
	DW	023H
	DW	0e3H
	DW	024H
	DW	025H
	DW	033H
	DW	026H
	DW	027H
	DW	028H
	DW	02aH
	DW	049H
	DW	02bH
	DW	045H
	DW	046H
	DW	02cH
	DW	02cH
	DW	02cH
	DW	036H
	DW	036H
	DW	036H
	DW	037H
	DW	04aH
	DW	055H
	DW	055H
	DW	055H
	DW	038H
	DW	03aH
	DW	049H
	DW	03cH
	DW	03cH
	DW	03cH
	DW	06cH
	DW	039H
	DW	03aH
	DW	06dH
	DW	03bH
	DW	03bH
	DW	03cH
	DW	04aH
	DW	03eH
	DW	051H
	DW	0e2H
	DW	052H
	DW	052H
	DW	052H
	DW	03dH
	DW	03eH
	DW	0e1H
	DW	034H
	DW	03eH
	DW	03eH
	DW	0e0H
	DW	0dfH
	DW	053H
	DW	03dH
	DW	053H
	DW	03eH
	DW	03eH
	DW	05bH
	DW	0deH
	DW	05cH
	DW	05cH
	DW	05cH
	DW	073H
	DW	073H
	DW	073H
	DW	03fH
	DW	04cH
	DW	051H
	DW	04cH
	DW	054H
	DW	054H
	DW	054H
	DW	077H
	DW	077H
	DW	077H
	DW	035H
	DW	0dcH
	DW	0ddH
	DW	04dH
	DW	0dcH
	DW	04eH
	DW	04fH
	DW	0daH
	DW	050H
	DW	050H
	DW	050H
	DW	056H
	DW	0d7H
	DW	057H
	DW	057H
	DW	058H
	DW	0d6H
	DW	02cH
	DW	02cH
	DW	02cH
	DW	0d3H
	DW	059H
	DW	0d2H
	DW	03dH
	DW	05aH
	DW	061H
	DW	07dH
	DW	07dH
	DW	07dH
	DW	036H
	DW	036H
	DW	036H
	DW	03dH
	DW	0d1H
	DW	05aH
	DW	05aH
	DW	080H
	DW	080H
	DW	080H
	DW	0c5H
	DW	065H
	DW	067H
	DW	067H
	DW	067H
	DW	03fH
	DW	056H
	DW	0c4H
	DW	058H
	DW	058H
	DW	058H
	DW	065H
	DW	065H
	DW	068H
	DW	0c3H
	DW	0acH
	DW	059H
	DW	0a9H
	DW	0a8H
	DW	05aH
	DW	029H
	DW	08eH
	DW	029H
	DW	068H
	DW	068H
	DW	083H
	DW	083H
	DW	083H
	DW	08dH
	DW	05aH
	DW	05aH
	DW	0d8H
	DW	02aH
	DW	0d8H
	DW	02bH
	DW	0d9H
	DW	085H
	DW	02cH
	DW	02cH
	DW	02cH
	DW	05dH
	DW	05eH
	DW	05dH
	DW	03aH
	DW	084H
	DW	03cH
	DW	03cH
	DW	03cH
	DW	070H
	DW	0e5H
	DW	071H
	DW	071H
	DW	071H
	DW	06fH
	DW	06eH
	DW	05bH
	DW	03eH
	DW	05fH
	DW	05fH
	DW	05fH
	DW	06aH
	DW	06aH
	DW	06aH
	DW	060H
	DW	0e5H
	DW	064H
	DW	03eH
	DW	03eH
	DW	069H
	DW	063H
	DW	069H
	DW	062H
	DW	0e5H
	DW	06aH
	DW	06aH
	DW	06aH
	DW	070H
	DW	04bH
	DW	072H
	DW	072H
	DW	072H
	DW	074H
	DW	048H
	DW	050H
	DW	050H
	DW	050H
	DW	078H
	DW	044H
	DW	052H
	DW	052H
	DW	052H
	DW	075H
	DW	043H
	DW	078H
	DW	076H
	DW	054H
	DW	054H
	DW	054H
	DW	042H
	DW	079H
	DW	055H
	DW	055H
	DW	055H
	DW	0e5H
	DW	076H
	DW	076H
	DW	079H
	DW	035H
	DW	034H
	DW	079H
	DW	079H
	DW	07aH
	DW	07bH
	DW	07bH
	DW	07bH
	DW	030H
	DW	079H
	DW	079H
	DW	06aH
	DW	06aH
	DW	06aH
	DW	07aH
	DW	07aH
	DW	07cH
	DW	07eH
	DW	02dH
	DW	07eH
	DW	0e5H
	DW	0e5H
	DW	07fH
	DW	07fH
	DW	07fH
	DW	0e5H
	DW	07cH
	DW	07cH
	DW	081H
	DW	0e5H
	DW	05cH
	DW	05cH
	DW	05cH
	DW	086H
	DW	0e5H
	DW	086H
	DW	0e5H
	DW	0e5H
	DW	087H
	DW	087H
	DW	087H
	DW	082H
	DW	0e5H
	DW	067H
	DW	067H
	DW	067H
	DW	08fH
	DW	08fH
	DW	08fH
	DW	0e5H
	DW	0e5H
	DW	082H
	DW	082H
	DW	081H
	DW	088H
	DW	05fH
	DW	05fH
	DW	05fH
	DW	090H
	DW	0e5H
	DW	071H
	DW	071H
	DW	071H
	DW	061H
	DW	08aH
	DW	08aH
	DW	082H
	DW	08bH
	DW	0e5H
	DW	08bH
	DW	0e5H
	DW	091H
	DW	08cH
	DW	08cH
	DW	08cH
	DW	0e5H
	DW	082H
	DW	082H
	DW	073H
	DW	073H
	DW	073H
	DW	091H
	DW	091H
	DW	090H
	DW	0e5H
	DW	072H
	DW	072H
	DW	072H
	DW	0e5H
	DW	092H
	DW	093H
	DW	093H
	DW	093H
	DW	061H
	DW	0e5H
	DW	0e5H
	DW	091H
	DW	0e5H
	DW	0e5H
	DW	092H
	DW	092H
	DW	094H
	DW	095H
	DW	095H
	DW	095H
	DW	0e5H
	DW	091H
	DW	091H
	DW	096H
	DW	0e5H
	DW	096H
	DW	094H
	DW	094H
	DW	097H
	DW	097H
	DW	097H
	DW	077H
	DW	077H
	DW	077H
	DW	099H
	DW	099H
	DW	099H
	DW	07dH
	DW	07dH
	DW	07dH
	DW	0e5H
	DW	09bH
	DW	098H
	DW	09bH
	DW	0e5H
	DW	09aH
	DW	09cH
	DW	09cH
	DW	09cH
	DW	07bH
	DW	07bH
	DW	07bH
	DW	098H
	DW	098H
	DW	0e5H
	DW	09aH
	DW	09aH
	DW	09dH
	DW	0e5H
	DW	09dH
	DW	09fH
	DW	0e5H
	DW	09eH
	DW	09eH
	DW	09eH
	DW	0e5H
	DW	0e5H
	DW	0a1H
	DW	0e5H
	DW	0a1H
	DW	0a0H
	DW	0a0H
	DW	0a2H
	DW	0a2H
	DW	0a2H
	DW	07fH
	DW	07fH
	DW	07fH
	DW	07fH
	DW	07fH
	DW	07fH
	DW	080H
	DW	080H
	DW	080H
	DW	0a4H
	DW	0a4H
	DW	0a4H
	DW	083H
	DW	083H
	DW	083H
	DW	0e5H
	DW	0a6H
	DW	0a3H
	DW	0a6H
	DW	0e5H
	DW	0a5H
	DW	0a7H
	DW	0a7H
	DW	0a7H
	DW	087H
	DW	087H
	DW	087H
	DW	0a3H
	DW	0a3H
	DW	0e5H
	DW	0a5H
	DW	0a5H
	DW	087H
	DW	087H
	DW	087H
	DW	0aaH
	DW	0e5H
	DW	0aaH
	DW	0e5H
	DW	0e5H
	DW	0abH
	DW	0abH
	DW	0abH
	DW	0e5H
	DW	0e5H
	DW	0e5H
	DW	0aaH
	DW	0e5H
	DW	0aaH
	DW	0e5H
	DW	0e5H
	DW	0abH
	DW	0abH
	DW	0abH
	DW	0e5H
	DW	08cH
	DW	08cH
	DW	08cH
	DW	08cH
	DW	08cH
	DW	08cH
	DW	08fH
	DW	08fH
	DW	08fH
	DW	0aeH
	DW	0aeH
	DW	0aeH
	DW	095H
	DW	095H
	DW	095H
	DW	0e5H
	DW	0b0H
	DW	0adH
	DW	0b0H
	DW	0e5H
	DW	0afH
	DW	0b1H
	DW	0b1H
	DW	0b1H
	DW	093H
	DW	093H
	DW	093H
	DW	0adH
	DW	0adH
	DW	0e5H
	DW	0afH
	DW	0afH
	DW	0b2H
	DW	0e5H
	DW	0b2H
	DW	0b4H
	DW	0e5H
	DW	0b3H
	DW	0b3H
	DW	0b3H
	DW	0e5H
	DW	0e5H
	DW	0b5H
	DW	0e5H
	DW	0b5H
	DW	0b4H
	DW	0b4H
	DW	0b6H
	DW	0b6H
	DW	0b6H
	DW	097H
	DW	097H
	DW	097H
	DW	097H
	DW	097H
	DW	097H
	DW	0b7H
	DW	0e5H
	DW	0b7H
	DW	0e5H
	DW	0e5H
	DW	0b8H
	DW	0b8H
	DW	0b8H
	DW	099H
	DW	099H
	DW	099H
	DW	0baH
	DW	0e5H
	DW	0baH
	DW	0e5H
	DW	0e5H
	DW	0bbH
	DW	0bbH
	DW	0bbH
	DW	0b9H
	DW	09cH
	DW	09cH
	DW	09cH
	DW	09cH
	DW	09cH
	DW	09cH
	DW	09eH
	DW	09eH
	DW	09eH
	DW	0b9H
	DW	0b9H
	DW	09eH
	DW	09eH
	DW	09eH
	DW	0bcH
	DW	0e5H
	DW	0bcH
	DW	0e5H
	DW	0e5H
	DW	0bdH
	DW	0bdH
	DW	0bdH
	DW	0bcH
	DW	0e5H
	DW	0bcH
	DW	0e5H
	DW	0e5H
	DW	0bdH
	DW	0bdH
	DW	0bdH
	DW	0a2H
	DW	0a2H
	DW	0a2H
	DW	0a2H
	DW	0a2H
	DW	0a2H
	DW	0beH
	DW	0e5H
	DW	0beH
	DW	0e5H
	DW	0e5H
	DW	0bfH
	DW	0bfH
	DW	0bfH
	DW	0a4H
	DW	0a4H
	DW	0a4H
	DW	0c1H
	DW	0e5H
	DW	0c1H
	DW	0e5H
	DW	0e5H
	DW	0c2H
	DW	0c2H
	DW	0c2H
	DW	0c0H
	DW	0a7H
	DW	0a7H
	DW	0a7H
	DW	0a7H
	DW	0a7H
	DW	0a7H
	DW	0abH
	DW	0abH
	DW	0abH
	DW	0c0H
	DW	0c0H
	DW	0abH
	DW	0abH
	DW	0abH
	DW	0c6H
	DW	0e5H
	DW	0c6H
	DW	0e5H
	DW	0e5H
	DW	0c7H
	DW	0c7H
	DW	0c7H
	DW	0aeH
	DW	0aeH
	DW	0aeH
	DW	0c9H
	DW	0e5H
	DW	0c9H
	DW	0e5H
	DW	0e5H
	DW	0caH
	DW	0caH
	DW	0caH
	DW	0c8H
	DW	0b1H
	DW	0b1H
	DW	0b1H
	DW	0b1H
	DW	0b1H
	DW	0b1H
	DW	0b3H
	DW	0b3H
	DW	0b3H
	DW	0c8H
	DW	0c8H
	DW	0b3H
	DW	0b3H
	DW	0b3H
	DW	0cbH
	DW	0e5H
	DW	0cbH
	DW	0e5H
	DW	0e5H
	DW	0ccH
	DW	0ccH
	DW	0ccH
	DW	0b6H
	DW	0b6H
	DW	0b6H
	DW	0b6H
	DW	0b6H
	DW	0b6H
	DW	0b8H
	DW	0b8H
	DW	0b8H
	DW	0b8H
	DW	0b8H
	DW	0b8H
	DW	0cdH
	DW	0e5H
	DW	0cdH
	DW	0e5H
	DW	0e5H
	DW	0ceH
	DW	0ceH
	DW	0ceH
	DW	0bbH
	DW	0bbH
	DW	0bbH
	DW	0bbH
	DW	0bbH
	DW	0bbH
	DW	0bdH
	DW	0bdH
	DW	0bdH
	DW	0bdH
	DW	0bdH
	DW	0bdH
	DW	0bfH
	DW	0bfH
	DW	0bfH
	DW	0bfH
	DW	0bfH
	DW	0bfH
	DW	0cfH
	DW	0e5H
	DW	0cfH
	DW	0e5H
	DW	0e5H
	DW	0d0H
	DW	0d0H
	DW	0d0H
	DW	0c2H
	DW	0c2H
	DW	0c2H
	DW	0c2H
	DW	0c2H
	DW	0c2H
	DW	0c7H
	DW	0c7H
	DW	0c7H
	DW	0c7H
	DW	0c7H
	DW	0c7H
	DW	0d4H
	DW	0e5H
	DW	0d4H
	DW	0e5H
	DW	0e5H
	DW	0d5H
	DW	0d5H
	DW	0d5H
	DW	0caH
	DW	0caH
	DW	0caH
	DW	0caH
	DW	0caH
	DW	0caH
	DW	0ccH
	DW	0ccH
	DW	0ccH
	DW	0ccH
	DW	0ccH
	DW	0ccH
	DW	0ceH
	DW	0ceH
	DW	0ceH
	DW	0ceH
	DW	0ceH
	DW	0ceH
	DW	0d0H
	DW	0d0H
	DW	0d0H
	DW	0d0H
	DW	0d0H
	DW	0d0H
	DW	0d5H
	DW	0d5H
	DW	0d5H
	DW	0d5H
	DW	0d5H
	DW	0d5H
	DW	0d8H
	DW	0e5H
	DW	0d8H
	DW	0e5H
	DW	0d9H
	DW	031H
	DW	031H
	DW	031H
	DW	0e5H
	DW	031H
	DW	047H
	DW	047H
	DW	047H
	DW	047H
	DW	047H
	DW	047H
	DW	066H
	DW	0e5H
	DW	066H
	DW	066H
	DW	066H
	DW	066H
	DW	066H
	DW	066H
	DW	06bH
	DW	06bH
	DW	06bH
	DW	089H
	DW	0e5H
	DW	089H
	DW	0e5H
	DW	0e5H
	DW	089H
	DW	0dbH
	DW	0dbH
	DW	0dbH
	DW	0dbH
	DW	0dbH
	DW	0dbH
	DW	0dbH
	DW	0dbH
	DW	03H
	DW	0e5H
	DW	0e5H
	DW	0e5H
	DW	0e5H
	DW	0e5H
	DW	0e5H
	DW	0e5H
	DW	0e5H
	DW	0e5H
	DW	0e5H
	DW	0e5H
	DW	0e5H
	DW	0e5H
	DW	0e5H
	DW	0e5H
	DW	0e5H
	DW	0e5H
	DW	0e5H
	DW	0e5H
	DW	0e5H
	DW	0e5H
	DW	0e5H
	DW	0e5H
	DW	0e5H
	DW	0e5H
	DW	0e5H
	DW	0e5H
	DW	0e5H
	DW	0e5H
	DW	0e5H
	DW	0e5H
	DW	0e5H
	DW	0e5H
	DW	0e5H
	DW	0e5H
	DW	0e5H
	DW	0e5H
	DW	0e5H
	DW	0e5H
	DW	0e5H
	DW	0e5H
	DW	0e5H
	DW	0e5H
	DW	0e5H
	DW	0e5H
	DW	0e5H
	DW	0e5H
	DW	0e5H
	DW	0e5H
	DW	0e5H
	DW	0e5H
	DW	0e5H
	DW	0e5H
	ORG $+6
_yy_chk	DW	00H
	DW	01H
	DW	01H
	DW	01H
	DW	01H
	DW	01H
	DW	01H
	DW	01H
	DW	01H
	DW	01H
	DW	01H
	DW	01H
	DW	01H
	DW	01H
	DW	01H
	DW	01H
	DW	01H
	DW	01H
	DW	01H
	DW	01H
	DW	01H
	DW	01H
	DW	01H
	DW	01H
	DW	01H
	DW	01H
	DW	01H
	DW	01H
	DW	01H
	DW	01H
	DW	01H
	DW	01H
	DW	01H
	DW	01H
	DW	01H
	DW	01H
	DW	01H
	DW	01H
	DW	01H
	DW	01H
	DW	01H
	DW	01H
	DW	01H
	DW	01H
	DW	01H
	DW	01H
	DW	01H
	DW	01H
	DW	01H
	DW	01H
	DW	01H
	DW	01H
	DW	01H
	DW	01H
	DW	02H
	DW	09H
	DW	02H
	DW	017H
	DW	0fH
	DW	09H
	DW	017H
	DW	05dH
	DW	05H
	DW	05dH
	DW	05H
	DW	0e3H
	DW	02H
	DW	0e2H
	DW	02H
	DW	02H
	DW	0fH
	DW	02H
	DW	02H
	DW	02H
	DW	05H
	DW	01eH
	DW	05H
	DW	01bH
	DW	01bH
	DW	05H
	DW	05H
	DW	05H
	DW	012H
	DW	012H
	DW	012H
	DW	013H
	DW	01eH
	DW	025H
	DW	025H
	DW	025H
	DW	013H
	DW	016H
	DW	049H
	DW	016H
	DW	016H
	DW	016H
	DW	040H
	DW	013H
	DW	014H
	DW	040H
	DW	014H
	DW	014H
	DW	014H
	DW	049H
	DW	016H
	DW	023H
	DW	0e1H
	DW	023H
	DW	023H
	DW	023H
	DW	014H
	DW	014H
	DW	0e0H
	DW	023H
	DW	016H
	DW	016H
	DW	0dfH
	DW	0deH
	DW	024H
	DW	014H
	DW	024H
	DW	014H
	DW	014H
	DW	02aH
	DW	0ddH
	DW	02aH
	DW	02aH
	DW	02aH
	DW	04fH
	DW	04fH
	DW	04fH
	DW	014H
	DW	022H
	DW	024H
	DW	022H
	DW	024H
	DW	024H
	DW	024H
	DW	051H
	DW	051H
	DW	051H
	DW	024H
	DW	0dbH
	DW	0daH
	DW	022H
	DW	0d9H
	DW	022H
	DW	022H
	DW	0d7H
	DW	022H
	DW	022H
	DW	022H
	DW	026H
	DW	0d3H
	DW	026H
	DW	026H
	DW	026H
	DW	0d2H
	DW	02cH
	DW	02cH
	DW	02cH
	DW	0c5H
	DW	026H
	DW	0c4H
	DW	026H
	DW	026H
	DW	02cH
	DW	059H
	DW	059H
	DW	059H
	DW	036H
	DW	036H
	DW	036H
	DW	026H
	DW	0c3H
	DW	026H
	DW	026H
	DW	05bH
	DW	05bH
	DW	05bH
	DW	0acH
	DW	036H
	DW	03aH
	DW	03aH
	DW	03aH
	DW	026H
	DW	028H
	DW	0a9H
	DW	028H
	DW	028H
	DW	028H
	DW	036H
	DW	036H
	DW	03aH
	DW	0a8H
	DW	08eH
	DW	028H
	DW	085H
	DW	084H
	DW	028H
	DW	029H
	DW	06fH
	DW	029H
	DW	03aH
	DW	03aH
	DW	061H
	DW	061H
	DW	061H
	DW	06cH
	DW	028H
	DW	028H
	DW	0d6H
	DW	029H
	DW	0d6H
	DW	029H
	DW	0d6H
	DW	063H
	DW	029H
	DW	029H
	DW	029H
	DW	02bH
	DW	02bH
	DW	02bH
	DW	03cH
	DW	062H
	DW	03cH
	DW	03cH
	DW	03cH
	DW	04dH
	DW	057H
	DW	04dH
	DW	04dH
	DW	04dH
	DW	048H
	DW	046H
	DW	02bH
	DW	03cH
	DW	02bH
	DW	02bH
	DW	02bH
	DW	069H
	DW	069H
	DW	069H
	DW	02bH
	DW	03bH
	DW	031H
	DW	03cH
	DW	03cH
	DW	03eH
	DW	02fH
	DW	03eH
	DW	02eH
	DW	027H
	DW	03eH
	DW	03eH
	DW	03eH
	DW	04eH
	DW	020H
	DW	04eH
	DW	04eH
	DW	04eH
	DW	050H
	DW	01dH
	DW	050H
	DW	050H
	DW	050H
	DW	052H
	DW	01aH
	DW	052H
	DW	052H
	DW	052H
	DW	050H
	DW	019H
	DW	054H
	DW	050H
	DW	054H
	DW	054H
	DW	054H
	DW	018H
	DW	052H
	DW	055H
	DW	055H
	DW	055H
	DW	015H
	DW	050H
	DW	050H
	DW	054H
	DW	011H
	DW	010H
	DW	052H
	DW	052H
	DW	055H
	DW	056H
	DW	056H
	DW	056H
	DW	0bH
	DW	054H
	DW	054H
	DW	06aH
	DW	06aH
	DW	06aH
	DW	055H
	DW	055H
	DW	056H
	DW	05aH
	DW	07H
	DW	05aH
	DW	03H
	DW	00H
	DW	05aH
	DW	05aH
	DW	05aH
	DW	00H
	DW	056H
	DW	056H
	DW	05cH
	DW	00H
	DW	05cH
	DW	05cH
	DW	05cH
	DW	065H
	DW	00H
	DW	065H
	DW	00H
	DW	00H
	DW	065H
	DW	065H
	DW	065H
	DW	05cH
	DW	00H
	DW	067H
	DW	067H
	DW	067H
	DW	070H
	DW	070H
	DW	070H
	DW	00H
	DW	00H
	DW	05cH
	DW	05cH
	DW	05fH
	DW	067H
	DW	05fH
	DW	05fH
	DW	05fH
	DW	071H
	DW	00H
	DW	071H
	DW	071H
	DW	071H
	DW	05fH
	DW	067H
	DW	067H
	DW	05fH
	DW	068H
	DW	00H
	DW	068H
	DW	00H
	DW	071H
	DW	068H
	DW	068H
	DW	068H
	DW	00H
	DW	05fH
	DW	05fH
	DW	073H
	DW	073H
	DW	073H
	DW	071H
	DW	071H
	DW	072H
	DW	00H
	DW	072H
	DW	072H
	DW	072H
	DW	00H
	DW	073H
	DW	074H
	DW	074H
	DW	074H
	DW	072H
	DW	00H
	DW	00H
	DW	072H
	DW	00H
	DW	00H
	DW	073H
	DW	073H
	DW	074H
	DW	075H
	DW	075H
	DW	075H
	DW	00H
	DW	072H
	DW	072H
	DW	076H
	DW	00H
	DW	076H
	DW	074H
	DW	074H
	DW	076H
	DW	076H
	DW	076H
	DW	077H
	DW	077H
	DW	077H
	DW	078H
	DW	078H
	DW	078H
	DW	07dH
	DW	07dH
	DW	07dH
	DW	00H
	DW	079H
	DW	077H
	DW	079H
	DW	00H
	DW	078H
	DW	079H
	DW	079H
	DW	079H
	DW	07bH
	DW	07bH
	DW	07bH
	DW	077H
	DW	077H
	DW	00H
	DW	078H
	DW	078H
	DW	07aH
	DW	00H
	DW	07aH
	DW	07bH
	DW	00H
	DW	07aH
	DW	07aH
	DW	07aH
	DW	00H
	DW	00H
	DW	07cH
	DW	00H
	DW	07cH
	DW	07bH
	DW	07bH
	DW	07cH
	DW	07cH
	DW	07cH
	DW	07eH
	DW	07eH
	DW	07eH
	DW	07fH
	DW	07fH
	DW	07fH
	DW	080H
	DW	080H
	DW	080H
	DW	081H
	DW	081H
	DW	081H
	DW	083H
	DW	083H
	DW	083H
	DW	00H
	DW	082H
	DW	080H
	DW	082H
	DW	00H
	DW	081H
	DW	082H
	DW	082H
	DW	082H
	DW	086H
	DW	086H
	DW	086H
	DW	080H
	DW	080H
	DW	00H
	DW	081H
	DW	081H
	DW	087H
	DW	087H
	DW	087H
	DW	088H
	DW	00H
	DW	088H
	DW	00H
	DW	00H
	DW	088H
	DW	088H
	DW	088H
	DW	089H
	DW	089H
	DW	089H
	DW	08aH
	DW	00H
	DW	08aH
	DW	00H
	DW	00H
	DW	08aH
	DW	08aH
	DW	08aH
	DW	089H
	DW	08bH
	DW	08bH
	DW	08bH
	DW	08cH
	DW	08cH
	DW	08cH
	DW	08fH
	DW	08fH
	DW	08fH
	DW	090H
	DW	090H
	DW	090H
	DW	095H
	DW	095H
	DW	095H
	DW	00H
	DW	091H
	DW	08fH
	DW	091H
	DW	00H
	DW	090H
	DW	091H
	DW	091H
	DW	091H
	DW	093H
	DW	093H
	DW	093H
	DW	08fH
	DW	08fH
	DW	00H
	DW	090H
	DW	090H
	DW	092H
	DW	00H
	DW	092H
	DW	093H
	DW	00H
	DW	092H
	DW	092H
	DW	092H
	DW	00H
	DW	00H
	DW	094H
	DW	00H
	DW	094H
	DW	093H
	DW	093H
	DW	094H
	DW	094H
	DW	094H
	DW	096H
	DW	096H
	DW	096H
	DW	097H
	DW	097H
	DW	097H
	DW	098H
	DW	00H
	DW	098H
	DW	00H
	DW	00H
	DW	098H
	DW	098H
	DW	098H
	DW	099H
	DW	099H
	DW	099H
	DW	09aH
	DW	00H
	DW	09aH
	DW	00H
	DW	00H
	DW	09aH
	DW	09aH
	DW	09aH
	DW	099H
	DW	09bH
	DW	09bH
	DW	09bH
	DW	09cH
	DW	09cH
	DW	09cH
	DW	09dH
	DW	09dH
	DW	09dH
	DW	099H
	DW	099H
	DW	09eH
	DW	09eH
	DW	09eH
	DW	09fH
	DW	00H
	DW	09fH
	DW	00H
	DW	00H
	DW	09fH
	DW	09fH
	DW	09fH
	DW	0a0H
	DW	00H
	DW	0a0H
	DW	00H
	DW	00H
	DW	0a0H
	DW	0a0H
	DW	0a0H
	DW	0a1H
	DW	0a1H
	DW	0a1H
	DW	0a2H
	DW	0a2H
	DW	0a2H
	DW	0a3H
	DW	00H
	DW	0a3H
	DW	00H
	DW	00H
	DW	0a3H
	DW	0a3H
	DW	0a3H
	DW	0a4H
	DW	0a4H
	DW	0a4H
	DW	0a5H
	DW	00H
	DW	0a5H
	DW	00H
	DW	00H
	DW	0a5H
	DW	0a5H
	DW	0a5H
	DW	0a4H
	DW	0a6H
	DW	0a6H
	DW	0a6H
	DW	0a7H
	DW	0a7H
	DW	0a7H
	DW	0aaH
	DW	0aaH
	DW	0aaH
	DW	0a4H
	DW	0a4H
	DW	0abH
	DW	0abH
	DW	0abH
	DW	0adH
	DW	00H
	DW	0adH
	DW	00H
	DW	00H
	DW	0adH
	DW	0adH
	DW	0adH
	DW	0aeH
	DW	0aeH
	DW	0aeH
	DW	0afH
	DW	00H
	DW	0afH
	DW	00H
	DW	00H
	DW	0afH
	DW	0afH
	DW	0afH
	DW	0aeH
	DW	0b0H
	DW	0b0H
	DW	0b0H
	DW	0b1H
	DW	0b1H
	DW	0b1H
	DW	0b2H
	DW	0b2H
	DW	0b2H
	DW	0aeH
	DW	0aeH
	DW	0b3H
	DW	0b3H
	DW	0b3H
	DW	0b4H
	DW	00H
	DW	0b4H
	DW	00H
	DW	00H
	DW	0b4H
	DW	0b4H
	DW	0b4H
	DW	0b5H
	DW	0b5H
	DW	0b5H
	DW	0b6H
	DW	0b6H
	DW	0b6H
	DW	0b7H
	DW	0b7H
	DW	0b7H
	DW	0b8H
	DW	0b8H
	DW	0b8H
	DW	0b9H
	DW	00H
	DW	0b9H
	DW	00H
	DW	00H
	DW	0b9H
	DW	0b9H
	DW	0b9H
	DW	0baH
	DW	0baH
	DW	0baH
	DW	0bbH
	DW	0bbH
	DW	0bbH
	DW	0bcH
	DW	0bcH
	DW	0bcH
	DW	0bdH
	DW	0bdH
	DW	0bdH
	DW	0beH
	DW	0beH
	DW	0beH
	DW	0bfH
	DW	0bfH
	DW	0bfH
	DW	0c0H
	DW	00H
	DW	0c0H
	DW	00H
	DW	00H
	DW	0c0H
	DW	0c0H
	DW	0c0H
	DW	0c1H
	DW	0c1H
	DW	0c1H
	DW	0c2H
	DW	0c2H
	DW	0c2H
	DW	0c6H
	DW	0c6H
	DW	0c6H
	DW	0c7H
	DW	0c7H
	DW	0c7H
	DW	0c8H
	DW	00H
	DW	0c8H
	DW	00H
	DW	00H
	DW	0c8H
	DW	0c8H
	DW	0c8H
	DW	0c9H
	DW	0c9H
	DW	0c9H
	DW	0caH
	DW	0caH
	DW	0caH
	DW	0cbH
	DW	0cbH
	DW	0cbH
	DW	0ccH
	DW	0ccH
	DW	0ccH
	DW	0cdH
	DW	0cdH
	DW	0cdH
	DW	0ceH
	DW	0ceH
	DW	0ceH
	DW	0cfH
	DW	0cfH
	DW	0cfH
	DW	0d0H
	DW	0d0H
	DW	0d0H
	DW	0d4H
	DW	0d4H
	DW	0d4H
	DW	0d5H
	DW	0d5H
	DW	0d5H
	DW	0d8H
	DW	00H
	DW	0d8H
	DW	00H
	DW	0d8H
	DW	0e6H
	DW	0e6H
	DW	0e6H
	DW	00H
	DW	0e6H
	DW	0e7H
	DW	0e7H
	DW	0e7H
	DW	0e7H
	DW	0e7H
	DW	0e7H
	DW	0e8H
	DW	00H
	DW	0e8H
	DW	0e8H
	DW	0e8H
	DW	0e8H
	DW	0e8H
	DW	0e8H
	DW	0e9H
	DW	0e9H
	DW	0e9H
	DW	0eaH
	DW	00H
	DW	0eaH
	DW	00H
	DW	00H
	DW	0eaH
	DW	0ebH
	DW	0ebH
	DW	0ebH
	DW	0ebH
	DW	0ebH
	DW	0ebH
	DW	0ebH
	DW	0ebH
	DW	0e5H
	DW	0e5H
	DW	0e5H
	DW	0e5H
	DW	0e5H
	DW	0e5H
	DW	0e5H
	DW	0e5H
	DW	0e5H
	DW	0e5H
	DW	0e5H
	DW	0e5H
	DW	0e5H
	DW	0e5H
	DW	0e5H
	DW	0e5H
	DW	0e5H
	DW	0e5H
	DW	0e5H
	DW	0e5H
	DW	0e5H
	DW	0e5H
	DW	0e5H
	DW	0e5H
	DW	0e5H
	DW	0e5H
	DW	0e5H
	DW	0e5H
	DW	0e5H
	DW	0e5H
	DW	0e5H
	DW	0e5H
	DW	0e5H
	DW	0e5H
	DW	0e5H
	DW	0e5H
	DW	0e5H
	DW	0e5H
	DW	0e5H
	DW	0e5H
	DW	0e5H
	DW	0e5H
	DW	0e5H
	DW	0e5H
	DW	0e5H
	DW	0e5H
	DW	0e5H
	DW	0e5H
	DW	0e5H
	DW	0e5H
	DW	0e5H
	DW	0e5H
	DW	0e5H
	DW	0e5H
	ORG $+2
_const_expr_keywords DD FLAT:??_C@_02OAHAJOFD@pi?$AA@
	DD	0116H
	DD	FLAT:??_C@_01KGKMHCOC@e?$AA@
	DD	0117H
	DD	FLAT:??_C@_01JEJKBAGA@g?$AA@
	DD	0118H
	ORG $+4
_datafile_keywords DD FLAT:??_C@_0BA@GIOJPOGN@calculate_in_3d?$AA@
	DD	0891fH
	DD	FLAT:??_C@_0BD@ICOCBELD@vertices_predicted?$AA@
	DD	08918H
	DD	FLAT:??_C@_0BA@EPBHJJLH@edges_predicted?$AA@
	DD	08919H
	DD	FLAT:??_C@_0BB@HJFNDLDG@facets_predicted?$AA@
	DD	0891aH
	DD	FLAT:??_C@_0BB@PCLCALDK@bodies_predicted?$AA@
	DD	0891bH
	DD	FLAT:??_C@_0BF@OBIIONED@facetedges_predicted?$AA@
	DD	0891cH
	DD	FLAT:??_C@_0BF@MMBIFFBD@quantities_predicted?$AA@
	DD	0891dH
	DD	FLAT:??_C@_0BL@GEDNAPDC@method_instances_predicted?$AA@
	DD	0891eH
	DD	FLAT:??_C@_07IJGPCJHC@opacity?$AA@
	DD	0138H
	DD	FLAT:??_C@_0BB@EHCKFCGI@mpi_local_bodies?$AA@
	DD	0298fH
	DD	FLAT:??_C@_0L@PJJPIEAP@clip_coeff?$AA@
	DD	088fdH
	DD	FLAT:??_C@_0M@GOLNCKNL@slice_coeff?$AA@
	DD	088feH
	DD	FLAT:??_C@_0O@KEPICJKL@on_constraint?$AA@
	DD	0245H
	DD	FLAT:??_C@_0P@FJLNFBKF@hit_constraint?$AA@
	DD	0246H
	DD	FLAT:??_C@_0BE@CFDLCAJO@value_of_constraint?$AA@
	DD	0152H
	DD	FLAT:??_C@_0M@CFABBPOL@on_boundary?$AA@
	DD	0247H
	DD	FLAT:??_C@_0M@GPHPDHLO@on_quantity?$AA@
	DD	0248H
	DD	FLAT:??_C@_0BD@DOOANBHL@on_method_instance?$AA@
	DD	0249H
	DD	FLAT:??_C@_0N@BGNGCLLP@content_rank?$AA@
	DD	088b9H
	DD	FLAT:??_C@_0BA@HEFKJKJG@high_constraint?$AA@
	DD	0902H
	DD	FLAT:??_C@_0O@FHDEFNFH@high_boundary?$AA@
	DD	0903H
	DD	FLAT:??_C@_0BB@DAFJNDLH@suppress_warning?$AA@
	DD	0231H
	DD	FLAT:??_C@_0BD@JLBMBNDA@unsuppress_warning?$AA@
	DD	0232H
	DD	FLAT:??_C@_0BD@PDLHDKOI@volume_method_name?$AA@
	DD	088baH
	DD	FLAT:??_C@_0BA@FGAGLOAP@partner_hitting?$AA@
	DD	088bbH
	DD	FLAT:??_C@_09KAGJCBDL@procedure?$AA@
	DD	01e5H
	DD	FLAT:??_C@_0P@OAMDDONM@display_origin?$AA@
	DD	088bcH
	DD	FLAT:??_C@_0BD@LPDEKMFI@length_method_name?$AA@
	DD	088bdH
	DD	FLAT:??_C@_0BB@CNJENMNM@area_method_name?$AA@
	DD	088beH
	DD	FLAT:??_C@_0BO@JLAEKIJE@hessian_special_normal_vector?$AA@
	DD	088bfH
	DD	FLAT:??_C@_0P@NAPIFNOG@keep_originals?$AA@
	DD	088c0H
	DD	FLAT:??_C@_0BA@EFLDDNJL@element_modulus?$AA@
	DD	088c1H
	DD	FLAT:??_C@_0M@GNHLGAPA@swap_colors?$AA@
	DD	088c2H
	DD	FLAT:??_C@_04PJDNGLKJ@self?$AA@
	DD	015bH
	DD	FLAT:??_C@_09GHGMGLNO@conserved?$AA@
	DD	01b7H
	DD	FLAT:??_C@_0O@CFOLDLE@actual_volume?$AA@
	DD	088c3H
	DD	FLAT:??_C@_0M@MGPGBEBP@keep_macros?$AA@
	DD	088c4H
	DD	FLAT:??_C@_06BCKCJHAK@pdelta?$AA@
	DD	01deH
	DD	FLAT:??_C@_0P@EHFNPAFG@on_assign_call?$AA@
	DD	0107H
	DD	FLAT:??_C@_09FFJNLCDE@tolerance?$AA@
	DD	01f0H
	DD	FLAT:??_C@_0BE@MPMEKLIN@lagrange_multiplier?$AA@
	DD	088c5H
	DD	FLAT:??_C@_0BA@DKKLMIEO@evolver_version?$AA@
	DD	088c6H
	DD	FLAT:??_C@_0M@KPMDGEHG@orientation?$AA@
	DD	0199H
	DD	FLAT:??_C@_0BD@IJHNDEKK@ignore_constraints?$AA@
	DD	088c7H
	DD	FLAT:??_C@_0N@DPCDAEDN@ignore_fixed?$AA@
	DD	088c8H
	DD	FLAT:??_C@_0N@KPOPAFCP@load_library?$AA@
	DD	088c9H
	DD	FLAT:??_C@_0BC@KPHKHJOD@interp_bdry_param?$AA@
	DD	088caH
	DD	FLAT:??_C@_0M@BIHLDDLK@axial_point?$AA@
	DD	01b5H
	DD	FLAT:??_C@_08JNKCHLOP@lagrange?$AA@
	DD	01a3H
	DD	FLAT:??_C@_0P@DDMFGHDB@lagrange_order?$AA@
	DD	088cbH
	DD	FLAT:??_C@_0M@LLBEFGDE@parameter_1?$AA@
	DD	088ccH
	DD	FLAT:??_C@_0M@JADJAFPH@parameter_2?$AA@
	DD	08920H
	DD	FLAT:??_C@_0BF@HJFOCADB@optimizing_parameter?$AA@
	DD	088cdH
	DD	FLAT:??_C@_0BF@PCMDHFO@optimising_parameter?$AA@
	DD	088cdH
	DD	FLAT:??_C@_0BG@DMHBIFMB@everything_quantities?$AA@
	DD	088cfH
	DD	FLAT:??_C@_05MFEJDJP@value?$AA@
	DD	01dbH
	DD	FLAT:??_C@_06JJLAMBGK@target?$AA@
	DD	01daH
	DD	FLAT:??_C@_06EPMMJFDC@define?$AA@
	DD	0164H
	DD	FLAT:??_C@_09HGIEBAJ@attribute?$AA@
	DD	016bH
	DD	FLAT:??_C@_0BA@FCDDEKDG@method_instance?$AA@
	DD	01ebH
	DD	FLAT:??_C@_06GABBCIBA@method?$AA@
	DD	088d0H
	DD	FLAT:??_C@_0BB@KCGOMKJL@scalar_integrand?$AA@
	DD	088d1H
	DD	FLAT:??_C@_0BB@CNKNAII@vector_integrand?$AA@
	DD	088d2H
	DD	FLAT:??_C@_0P@HMNODAPJ@k_vector_order?$AA@
	DD	088d3H
	DD	FLAT:??_C@_0P@LNEAGBL@form_integrand?$AA@
	DD	088d4H
	DD	FLAT:??_C@_08DJCKBMBN@mobility?$AA@
	DD	088d5H
	DD	FLAT:??_C@_0BA@LJFNGFOM@mobility_tensor?$AA@
	DD	088d6H
	DD	FLAT:??_C@_04BGEKJPHF@bare?$AA@
	DD	018fH
	DD	FLAT:??_C@_0BD@MOPCCJLG@boundary_curvature?$AA@
	DD	088d7H
	DD	FLAT:??_C@_07CJECEDDG@modulus?$AA@
	DD	01d9H
	DD	FLAT:??_C@_09EMCPFNEA@info_only?$AA@
	DD	01b8H
	DD	FLAT:??_C@_0O@LJFOIPB@global_method?$AA@
	DD	088d8H
	DD	FLAT:??_C@_06FJKEMHGD@global?$AA@
	DD	0224H
	DD	FLAT:??_C@_0L@IDDPHJLO@area_fixed?$AA@
	DD	01c0H
	DD	FLAT:??_C@_0L@HCEEFND@fixed_area?$AA@
	DD	01c0H
	DD	FLAT:??_C@_0M@PIDOJOI@view_matrix?$AA@
	DD	0106H
	DD	FLAT:??_C@_0BA@IFLDONLI@view_transforms?$AA@
	DD	01f4H
	DD	FLAT:??_C@_0BK@PJALNND@view_transform_generators?$AA@
	DD	088d9H
	DD	FLAT:??_C@_09PDIDGCEH@homothety?$AA@
	DD	088daH
	DD	FLAT:??_C@_0BG@CNKFKNKC@approximate_curvature?$AA@
	DD	088dbH
	DD	FLAT:??_C@_0BB@MNCGPOEG@approx_curvature?$AA@
	DD	088dbH
	DD	FLAT:??_C@_09JNGEFCBF@phasefile?$AA@
	DD	088ddH
	DD	FLAT:??_C@_05CBPKLGJM@phase?$AA@
	DD	01f9H
	DD	FLAT:??_C@_07LEJGIFAD@autopop?$AA@
	DD	088deH
	DD	FLAT:??_C@_0BA@KEKJOJEJ@autopop_quartic?$AA@
	DD	088dfH
	DD	FLAT:??_C@_08BLGPIPGP@autochop?$AA@
	DD	0169H
	DD	FLAT:??_C@_0L@OIFGKHMH@total_time?$AA@
	DD	088e0H
	DD	FLAT:??_C@_0P@OMMOBLOA@effective_area?$AA@
	DD	088e1H
	DD	FLAT:??_C@_0M@OBNGAKOC@runge_kutta?$AA@
	DD	088e2H
	DD	FLAT:??_C@_05PEENBMOG@color?$AA@
	DD	0121H
	DD	FLAT:??_C@_09OPNKCLNO@backcolor?$AA@
	DD	01a2H
	DD	FLAT:??_C@_0L@DKEJANLD@frontcolor?$AA@
	DD	019cH
	DD	FLAT:??_C@_0BI@KGGFDDEC@mean_curvature_integral?$AA@
	DD	088e3H
	DD	FLAT:??_C@_0BB@ODBHHAP@normal_curvature?$AA@
	DD	088e4H
	DD	FLAT:??_C@_0BB@OIOLOLOH@square_curvature?$AA@
	DD	088e5H
	DD	FLAT:??_C@_0BC@ODOAEPAL@squared_curvature?$AA@
	DD	088e5H
	DD	FLAT:??_C@_0BK@FKPNCHGB@square_gaussian_curvature?$AA@
	DD	088e7H
	DD	FLAT:??_C@_0BL@MADIBINB@squared_gaussian_curvature?$AA@
	DD	088e7H
	DD	FLAT:??_C@_0BA@MAJEELEA@gauss_curvature?$AA@
	DD	088e9H
	DD	FLAT:??_C@_0BH@KFIJAGHO@insulating_knot_energy?$AA@
	DD	088eaH
	DD	FLAT:??_C@_0BH@PBMPDDPJ@conducting_knot_energy?$AA@
	DD	08902H
	DD	FLAT:??_C@_0BA@NCBBEAIN@space_dimension?$AA@
	DD	088ebH
	DD	FLAT:??_C@_0BC@CCLFHFGM@surface_dimension?$AA@
	DD	088ecH
	DD	FLAT:??_C@_0BH@ELELLFNL@simplex_representation?$AA@
	DD	088edH
	DD	FLAT:??_C@_06BEHJHFJO@metric?$AA@
	DD	088f2H
	DD	FLAT:??_C@_0N@FGNFAGIK@klein_metric?$AA@
	DD	088f1H
	DD	FLAT:??_C@_0BB@HOLKBDMI@conformal_metric?$AA@
	DD	088f0H
	DD	FLAT:??_C@_05OFLEIIDM@fixed?$AA@
	DD	013dH
	DD	FLAT:??_C@_09PFNGBABC@no_refine?$AA@
	DD	01c7H
	DD	FLAT:??_C@_0N@CMIGFPCH@no_transform?$AA@
	DD	01c8H
	DD	FLAT:??_C@_0M@JAGBIOBF@hit_partner?$AA@
	DD	01ccH
	DD	FLAT:??_C@_0N@OFAMNBMC@centerofmass?$AA@
	DD	01c3H
	DD	FLAT:??_C@_0L@ODCODBLD@no_display?$AA@
	DD	01f7H
	DD	FLAT:??_C@_0L@DKEDBIHO@noncontent?$AA@
	DD	01caH
	DD	FLAT:??_C@_06BAJEJFKD@efixed?$AA@
	DD	0890dH
	DD	FLAT:??_C@_0P@GKEDIIHF@symmetry_group?$AA@
	DD	088f3H
	DD	FLAT:??_C@_04NFDDIEML@wrap?$AA@
	DD	0134H
	DD	FLAT:??_C@_05FCPCBJIO@torus?$AA@
	DD	088f4H
	DD	FLAT:??_C@_0N@IGCELFFA@torus_filled?$AA@
	DD	088f5H
	DD	FLAT:??_C@_0O@IMAKABFD@torus_periods?$AA@
	DD	0124H
	DD	FLAT:??_C@_07BFECMFCO@periods?$AA@
	DD	088fbH
	DD	FLAT:??_C@_0BA@HCKIGAAA@display_periods?$AA@
	DD	088fcH
	DD	FLAT:??_C@_06ICGJLFIM@string?$AA@
	DD	01c9H
	DD	FLAT:??_C@_08DODCPBAM@soapfilm?$AA@
	DD	088f6H
	DD	FLAT:??_C@_05GHCFDPJC@wulff?$AA@
	DD	088faH
	DD	FLAT:??_C@_08KIKGFOKI@boundary?$AA@
	DD	0198H
	DD	FLAT:??_C@_0L@PABKJGNF@boundaries?$AA@
	DD	0198H
	DD	FLAT:??_C@_0L@HOHHMJMM@constraint?$AA@
	DD	0140H
	DD	FLAT:??_C@_0M@JGLONDGH@constraints?$AA@
	DD	0140H
	DD	FLAT:??_C@_0P@LFIPMAJA@surface_energy?$AA@
	DD	08900H
	DD	FLAT:??_C@_07LHCFJCJM@formula?$AA@
	DD	01acH
	DD	FLAT:??_C@_08HFFPPCHF@function?$AA@
	DD	01acH
	DD	FLAT:??_C@_09DAGAJHIH@parameter?$AA@
	DD	088ffH
	DD	FLAT:??_C@_0L@HHPOFMCB@parameters?$AA@
	DD	088ffH
	DD	FLAT:??_C@_0P@EAADGFKM@parameter_file?$AA@
	DD	08911H
	DD	FLAT:??_C@_0BC@COAHFEML@symmetric_content?$AA@
	DD	088f8H
	DD	FLAT:??_C@_0P@JOOJGKKP@integral_order?$AA@
	DD	066aH
	DD	FLAT:??_C@_0BC@CDLGPNMC@integral_order_1d?$AA@
	DD	0731H
	DD	FLAT:??_C@_0BC@CBPAEDJL@integral_order_2d?$AA@
	DD	0732H
	DD	FLAT:??_C@_0BC@CCICJAIC@integration_order?$AA@
	DD	066aH
	DD	FLAT:??_C@_0BF@CHBAJJCK@integration_order_1d?$AA@
	DD	0731H
	DD	FLAT:??_C@_0BF@CFFGCHHD@integration_order_2d?$AA@
	DD	0732H
	DD	FLAT:??_C@_0BF@MOILGEJM@constraint_tolerance?$AA@
	DD	08906H
	DD	FLAT:??_C@_06OAMDAHCP@convex?$AA@
	DD	08912H
	DD	FLAT:??_C@_07FAFBHKGP@nonwall?$AA@
	DD	08913H
	DD	FLAT:??_C@_0M@MKNCPPEA@nonnegative?$AA@
	DD	0184H
	DD	FLAT:??_C@_0M@EANCEANL@nonpositive?$AA@
	DD	0183H
	DD	FLAT:??_C@_06FJKEMHGD@global?$AA@
	DD	0224H
	DD	FLAT:??_C@_06KKGCKCNJ@energy?$AA@
	DD	01b6H
	DD	FLAT:??_C@_07ICAJMOAO@content?$AA@
	DD	08916H
	DD	FLAT:??_C@_09NDEBDKFB@quadratic?$AA@
	DD	017cH
	DD	FLAT:??_C@_06HPJICMPM@linear?$AA@
	DD	017bH
	DD	FLAT:??_C@_0BD@JAENIDNE@area_normalization?$AA@
	DD	088f9H
	DD	FLAT:??_C@_06LGAKKEPJ@jiggle?$AA@
	DD	01f3H
	DD	FLAT:??_C@_09NBBNKAEP@diffusion?$AA@
	DD	017eH
	DD	FLAT:??_C@_0N@OMNDKHGB@merit_factor?$AA@
	DD	08907H
	DD	FLAT:??_C@_0BB@LFLMFBL@gravity_constant?$AA@
	DD	08908H
	DD	FLAT:??_C@_0BA@CNIKOEML@spring_constant?$AA@
	DD	08909H
	DD	FLAT:??_C@_0N@DKAJABDK@gap_constant?$AA@
	DD	01dfH
	DD	FLAT:??_C@_05MHMEBBGO@scale?$AA@
	DD	0194H
	DD	FLAT:??_C@_06HACLPJI@pscale?$AA@
	DD	0195H
	DD	FLAT:??_C@_0M@GJEHHDCL@temperature?$AA@
	DD	0890aH
	DD	FLAT:??_C@_08POHEELCJ@pressure?$AA@
	DD	013fH
	DD	FLAT:??_C@_06EMCPHFGM@volume?$AA@
	DD	012eH
	DD	FLAT:??_C@_07HAFFKDBK@density?$AA@
	DD	013eH
	DD	FLAT:??_C@_07BJBOFKDG@tension?$AA@
	DD	013eH
	DD	FLAT:??_C@_09KIHCPOPL@nodisplay?$AA@
	DD	01f7H
	DD	FLAT:??_C@_0M@PJCBAJEM@scale_limit?$AA@
	DD	08903H
	DD	FLAT:??_C@_0M@JBIJOPDG@zoom_vertex?$AA@
	DD	08905H
	DD	FLAT:??_C@_0M@EMFGBOOI@zoom_radius?$AA@
	DD	08904H
	DD	FLAT:??_C@_08OCNIHGPN@quantity?$AA@
	DD	01e2H
	DD	FLAT:??_C@_08IMINLCCL@volconst?$AA@
	DD	0123H
	DD	FLAT:??_C@_04POLDLDMI@read?$AA@
	DD	0156H
	DD	FLAT:??_C@_03BOPJPIAM@and?$AA@
	DD	023fH
	DD	FLAT:??_C@_02FODMLBIE@or?$AA@
	DD	023eH
	DD	FLAT:??_C@_03NJKJADM@not?$AA@
	DD	0240H
	DD	FLAT:??_C@_03FFONCNID@mod?$AA@
	DD	025H
	DD	FLAT:??_C@_04CGKJBALO@imod?$AA@
	DD	024aH
	DD	FLAT:??_C@_04CHNIFDFF@idiv?$AA@
	DD	024cH
	DD	FLAT:??_C@_0M@CBIPACOJ@dot_product?$AA@
	DD	024bH
	DD	FLAT:??_C@_02OAHAJOFD@pi?$AA@
	DD	0116H
	DD	FLAT:??_C@_01KGKMHCOC@e?$AA@
	DD	0117H
	DD	FLAT:??_C@_01JEJKBAGA@g?$AA@
	DD	0118H
	DD	FLAT:??_C@_08LAAABFKN@original?$AA@
	DD	0132H
	DD	FLAT:??_C@_08BOLPBPCL@vertices?$AA@
	DD	0125H
	DD	FLAT:??_C@_06HLKHCFCI@vertex?$AA@
	DD	0125H
	DD	FLAT:??_C@_05JGEJPNHM@edges?$AA@
	DD	0126H
	DD	FLAT:??_C@_04IJFJNCMM@edge?$AA@
	DD	0126H
	DD	FLAT:??_C@_05FHFPJHPF@faces?$AA@
	DD	0890eH
	DD	FLAT:??_C@_04POCOPAPC@face?$AA@
	DD	0890eH
	DD	FLAT:??_C@_06MMNNGFLE@facets?$AA@
	DD	0890eH
	DD	FLAT:??_C@_05BIBOABDC@facet?$AA@
	DD	0890eH
	DD	FLAT:??_C@_06OHIKIKDI@bodies?$AA@
	DD	0128H
	DD	FLAT:??_C@_04IEJGKNJ@body?$AA@
	DD	0128H
	DD	FLAT:??_C@_0M@NLMIGHAM@facet_edges?$AA@
	DD	0133H
	DD	FLAT:??_C@_0L@LKKCPKKM@facet_edge?$AA@
	DD	0133H
	DD	FLAT:??_C@_0L@CPIKDJIA@facetedges?$AA@
	DD	0133H
	DD	FLAT:??_C@_09CMEJCHLK@facetedge?$AA@
	DD	0133H
_mathfunc_keywords DD FLAT:??_C@_0N@CCAKCFDI@wrap_inverse?$AA@
	DD	02797H
	DD	FLAT:??_C@_09BAMEIGDP@ellipticK?$AA@
	DD	027acH
	DD	FLAT:??_C@_09IOEHKLLB@ellipticE?$AA@
	DD	027adH
	DD	FLAT:??_C@_03MGHMBJCF@log?$AA@
	DD	027a8H
	DD	FLAT:??_C@_03KHJOGHMM@exp?$AA@
	DD	027a1H
	DD	FLAT:??_C@_03BLEJJJBH@sin?$AA@
	DD	0279eH
	DD	FLAT:??_C@_03LALBNOCG@cos?$AA@
	DD	0279fH
	DD	FLAT:??_C@_03IIINPABG@tan?$AA@
	DD	027a0H
	DD	FLAT:??_C@_04FIHNOPOL@asin?$AA@
	DD	027a9H
	DD	FLAT:??_C@_04PDIFKINK@acos?$AA@
	DD	027aaH
	DD	FLAT:??_C@_04MLLJIGOK@atan?$AA@
	DD	027abH
	DD	FLAT:??_C@_04COOMCNPB@sinh?$AA@
	DD	027a2H
	DD	FLAT:??_C@_04HPJJNFIM@cosh?$AA@
	DD	027a3H
	DD	FLAT:??_C@_04FJHINJAO@tanh?$AA@
	DD	027a4H
	DD	FLAT:??_C@_05JKKEKHLA@asinh?$AA@
	DD	027a5H
	DD	FLAT:??_C@_05MLNBFPMN@acosh?$AA@
	DD	027a6H
	DD	FLAT:??_C@_05ONDAFDEP@atanh?$AA@
	DD	027a7H
	DD	FLAT:??_C@_04EIAKFFMI@sqrt?$AA@
	DD	0279aH
	DD	FLAT:??_C@_03OPALDGIC@sqr?$AA@
	DD	02799H
	DD	FLAT:??_C@_04GFPJNGEK@ceil?$AA@
	DD	0279bH
	DD	FLAT:??_C@_05PBJFFIGL@floor?$AA@
	DD	0279cH
	DD	FLAT:??_C@_03BCGAIFPO@abs?$AA@
	DD	0279dH
_mathfunc2_keywords DD FLAT:??_C@_0N@HGNPFHKM@wrap_compose?$AA@
	DD	02796H
	DD	FLAT:??_C@_05KNGEOGJB@atan2?$AA@
	DD	02798H
	DD	FLAT:??_C@_0BE@BDGHAKDJ@incompleteEllipticF?$AA@
	DD	027aeH
	DD	FLAT:??_C@_0BE@DIEKFJPK@incompleteEllipticE?$AA@
	DD	027afH
	DD	FLAT:??_C@_07MEIENILC@maximum?$AA@
	DD	02794H
	DD	FLAT:??_C@_07CCOEHHFD@minimum?$AA@
	DD	02795H
	DD	FLAT:??_C@_03JGHBODFD@pow?$AA@
	DD	02793H
_command_keywords DD FLAT:??_C@_06IKLLLDHL@normal?$AA@
	DD	012bH
	DD	FLAT:??_C@_0M@MKNCPPEA@nonnegative?$AA@
	DD	0184H
	DD	FLAT:??_C@_0M@EANCEANL@nonpositive?$AA@
	DD	0183H
	DD	FLAT:??_C@_0O@KIAILNPN@normal_vector?$AA@
	DD	0168H
	DD	FLAT:??_C@_07IAPJLEJH@no_dump?$AA@
	DD	013bH
	DD	FLAT:??_C@_0L@LJPKPJJM@p_velocity?$AA@
	DD	01fdH
	DD	FLAT:??_C@_07LFPCKGAP@p_force?$AA@
	DD	01fcH
	DD	FLAT:??_C@_0BC@KBMGOFNF@no_hessian_normal?$AA@
	DD	0176H
	DD	FLAT:??_C@_0BC@NBLIDMLB@make_thread_lists?$AA@
	DD	0239H
	DD	FLAT:??_C@_0P@KJENOODO@facet_crosscut?$AA@
	DD	01d8H
	DD	FLAT:??_C@_07LDNKKEH@detorus?$AA@
	DD	0238H
	DD	FLAT:??_C@_0O@KPBBKELJ@is_constraint?$AA@
	DD	0111H
	DD	FLAT:??_C@_0BB@CNFDAFCL@valid_constraint?$AA@
	DD	0234H
	DD	FLAT:??_C@_0P@CFKICEKD@valid_boundary?$AA@
	DD	0235H
	DD	FLAT:??_C@_09IICGFFJH@profiling?$AA@
	DD	0237H
	DD	FLAT:??_C@_0BA@OHLAHHBM@reset_profiling?$AA@
	DD	0233H
	DD	FLAT:??_C@_0BB@DAFJNDLH@suppress_warning?$AA@
	DD	0231H
	DD	FLAT:??_C@_0BD@JLBMBNDA@unsuppress_warning?$AA@
	DD	0232H
	DD	FLAT:??_C@_0M@EOIFPGKG@delete_text?$AA@
	DD	0230H
	DD	FLAT:??_C@_0N@CJJGNHCN@display_text?$AA@
	DD	022fH
	DD	FLAT:??_C@_0O@ECJLFEKE@simplex_to_fe?$AA@
	DD	022dH
	DD	FLAT:??_C@_07BNADNHKE@addload?$AA@
	DD	022cH
	DD	FLAT:??_C@_0N@OJACEENF@replace_load?$AA@
	DD	022eH
	DD	FLAT:??_C@_08DHCGNBAN@whereami?$AA@
	DD	022bH
	DD	FLAT:??_C@_0L@LCAMEHJC@breakpoint?$AA@
	DD	022aH
	DD	FLAT:??_C@_0M@BKKBNEBK@breakpoints?$AA@
	DD	022aH
	DD	FLAT:??_C@_05BBAEEBBH@abort?$AA@
	DD	0229H
	DD	FLAT:??_C@_0L@KHFNHBNM@subcommand?$AA@
	DD	0228H
	DD	FLAT:??_C@_06FJKEMHGD@global?$AA@
	DD	0224H
	DD	FLAT:??_C@_0M@PLKJAEAL@repartition?$AA@
	DD	0221H
	DD	FLAT:??_C@_0O@OKPNNEJG@free_discards?$AA@
	DD	0220H
	DD	FLAT:??_C@_0N@GDMIKNMD@dump_memlist?$AA@
	DD	021fH
	DD	FLAT:??_C@_0BE@KCPFLFEG@reverse_orientation?$AA@
	DD	021bH
	DD	FLAT:??_C@_0BA@JNPAPNBO@matrix_multiply?$AA@
	DD	021cH
	DD	FLAT:??_C@_0P@EBJBPEJC@matrix_inverse?$AA@
	DD	021dH
	DD	FLAT:??_C@_0BD@JJNPEKJD@matrix_determinant?$AA@
	DD	0227H
	DD	FLAT:??_C@_08EJNLDOMI@mid_edge?$AA@
	DD	0216H
	DD	FLAT:??_C@_09BPLDEHMH@mid_facet?$AA@
	DD	0217H
	DD	FLAT:??_C@_0N@HEKOHBEK@flush_counts?$AA@
	DD	0167H
	DD	FLAT:??_C@_0O@HEMOCGDL@valid_element?$AA@
	DD	0215H
	DD	FLAT:??_C@_0N@BFEIANBO@reset_counts?$AA@
	DD	0214H
	DD	FLAT:??_C@_0N@MOMHNGJF@vertex_merge?$AA@
	DD	0213H
	DD	FLAT:??_C@_0L@GJPPMFGG@edge_merge?$AA@
	DD	0211H
	DD	FLAT:??_C@_0M@HCCAAKMF@facet_merge?$AA@
	DD	0212H
	DD	FLAT:??_C@_08KEAKBNCK@mpi_task?$AA@
	DD	020fH
	DD	FLAT:??_C@_0P@FKOPBMAL@mean_curvature?$AA@
	DD	0223H
	DD	FLAT:??_C@_0BA@EFLDDNJL@element_modulus?$AA@
	DD	088c1H
	DD	FLAT:??_C@_0BD@IJHNDEKK@ignore_constraints?$AA@
	DD	088c7H
	DD	FLAT:??_C@_0N@DPCDAEDN@ignore_fixed?$AA@
	DD	088c8H
	DD	FLAT:??_C@_0O@LJFOIPB@global_method?$AA@
	DD	088d8H
	DD	FLAT:??_C@_0BB@KCGOMKJL@scalar_integrand?$AA@
	DD	088d1H
	DD	FLAT:??_C@_0BB@CNKNAII@vector_integrand?$AA@
	DD	088d2H
	DD	FLAT:??_C@_0P@HMNODAPJ@k_vector_order?$AA@
	DD	088d3H
	DD	FLAT:??_C@_0P@LNEAGBL@form_integrand?$AA@
	DD	088d4H
	DD	FLAT:??_C@_09EMCPFNEA@info_only?$AA@
	DD	01b8H
	DD	FLAT:??_C@_06GABBCIBA@method?$AA@
	DD	088d0H
	DD	FLAT:??_C@_0O@OJLJIFPG@parallel_exec?$AA@
	DD	01a7H
	DD	FLAT:??_C@_09BOMFCCD@task_exec?$AA@
	DD	019fH
	DD	FLAT:??_C@_03NJDAHFJE@pop?$AA@
	DD	016fH
	DD	FLAT:??_C@_0BA@HKCODAC@pop_tri_to_edge?$AA@
	DD	020aH
	DD	FLAT:??_C@_0BA@LLOFFOFA@pop_edge_to_tri?$AA@
	DD	020bH
	DD	FLAT:??_C@_0BB@NFBBDANK@pop_quad_to_quad?$AA@
	DD	020cH
	DD	FLAT:??_C@_05IDKHKMLA@local?$AA@
	DD	01b2H
	DD	FLAT:??_C@_03JOHEBPFF@for?$AA@
	DD	01cbH
	DD	FLAT:??_C@_0BB@FIMKOPGK@warning_messages?$AA@
	DD	01c2H
	DD	FLAT:??_C@_0N@PBJCFAJD@equiangulate?$AA@
	DD	01bdH
	DD	FLAT:??_C@_09PFNGBABC@no_refine?$AA@
	DD	01c7H
	DD	FLAT:??_C@_0N@CMIGFPCH@no_transform?$AA@
	DD	01c8H
	DD	FLAT:??_C@_0M@JAGBIOBF@hit_partner?$AA@
	DD	01ccH
	DD	FLAT:??_C@_0N@OFAMNBMC@centerofmass?$AA@
	DD	01c3H
	DD	FLAT:??_C@_0L@ODCODBLD@no_display?$AA@
	DD	01f7H
	DD	FLAT:??_C@_0N@ICOOBCNI@vertexnormal?$AA@
	DD	016eH
	DD	FLAT:??_C@_09BADENEHP@colorfile?$AA@
	DD	01cfH
	DD	FLAT:??_C@_0O@DICBBEEI@date_and_time?$AA@
	DD	01b1H
	DD	FLAT:??_C@_0BA@DKKLMIEO@evolver_version?$AA@
	DD	017dH
	DD	FLAT:??_C@_07BKFFEMDK@exprint?$AA@
	DD	01adH
	DD	FLAT:??_C@_06KKGCKCNJ@energy?$AA@
	DD	01b6H
	DD	FLAT:??_C@_09EMCPFNEA@info_only?$AA@
	DD	01b8H
	DD	FLAT:??_C@_09GHGMGLNO@conserved?$AA@
	DD	01b7H
	DD	FLAT:??_C@_04MGEIEJAD@exec?$AA@
	DD	0175H
	DD	FLAT:??_C@_0M@CJACPCIB@wrap_vertex?$AA@
	DD	01afH
	DD	FLAT:??_C@_04PJDNGLKJ@self?$AA@
	DD	015bH
	DD	FLAT:??_C@_0L@FMKAEFLC@is_defined?$AA@
	DD	01f6H
	DD	FLAT:??_C@_09KIHCPOPL@nodisplay?$AA@
	DD	01f7H
	DD	FLAT:??_C@_0L@ODCODBLD@no_display?$AA@
	DD	01f7H
	DD	FLAT:??_C@_08HFFPPCHF@function?$AA@
	DD	01acH
	DD	FLAT:??_C@_0BA@PJJKCDON@reorder_storage?$AA@
	DD	0205H
	DD	FLAT:??_C@_0N@JJMKEIGG@renumber_all?$AA@
	DD	0206H
	DD	FLAT:??_C@_05PDJBBECF@pause?$AA@
	DD	0151H
	DD	FLAT:??_C@_06BCKCJHAK@pdelta?$AA@
	DD	01deH
	DD	FLAT:??_C@_0P@EHFNPAFG@on_assign_call?$AA@
	DD	0107H
	DD	FLAT:??_C@_06HACLPJI@pscale?$AA@
	DD	0195H
	DD	FLAT:??_C@_05MHMEBBGO@scale?$AA@
	DD	0194H
	DD	FLAT:??_C@_09FFJNLCDE@tolerance?$AA@
	DD	01f0H
	DD	FLAT:??_C@_0BA@FCDDEKDG@method_instance?$AA@
	DD	01ebH
	DD	FLAT:??_C@_07HMINABEO@logfile?$AA@
	DD	0115H
	DD	FLAT:??_C@_0L@GKBDMEAN@keylogfile?$AA@
	DD	0193H
	DD	FLAT:??_C@_09GNLMKAKO@frontbody?$AA@
	DD	01cdH
	DD	FLAT:??_C@_08JONLCJIM@backbody?$AA@
	DD	01ceH
	DD	FLAT:??_C@_0L@KAOEHGMG@new_vertex?$AA@
	DD	01d5H
	DD	FLAT:??_C@_08HBMPJBBB@new_edge?$AA@
	DD	01d6H
	DD	FLAT:??_C@_09OAIEDJBI@new_facet?$AA@
	DD	01d7H
	DD	FLAT:??_C@_08PANPCJAE@new_body?$AA@
	DD	01ddH
	DD	FLAT:??_C@_0L@DKEDBIHO@noncontent?$AA@
	DD	01caH
	DD	FLAT:??_C@_06LNOFJDNM@return?$AA@
	DD	01a4H
	DD	FLAT:??_C@_0L@CCPMELKB@postscript?$AA@
	DD	012aH
	DD	FLAT:??_C@_08KLNLDNLL@ooglfile?$AA@
	DD	01a6H
	DD	FLAT:??_C@_0BA@IBDAIKBO@binary_off_file?$AA@
	DD	01a8H
	DD	FLAT:??_C@_0P@OLMKLKE@vertex_average?$AA@
	DD	01eaH
	DD	FLAT:??_C@_0BD@FBBKFDM@raw_vertex_average?$AA@
	DD	01ecH
	DD	FLAT:??_C@_0BG@EBKCCFDE@rawest_vertex_average?$AA@
	DD	01f1H
	DD	FLAT:??_C@_0M@BIHLDDLK@axial_point?$AA@
	DD	01b5H
	DD	FLAT:??_C@_0N@GAAHAAOL@metis_factor?$AA@
	DD	01abH
	DD	FLAT:??_C@_08JNKCHLOP@lagrange?$AA@
	DD	01a3H
	DD	FLAT:??_C@_05MMMFHLE@metis?$AA@
	DD	0191H
	DD	FLAT:??_C@_0P@BEHGJJCH@metis_readjust?$AA@
	DD	0222H
	DD	FLAT:??_C@_0L@JJNAPELC@body_metis?$AA@
	DD	021aH
	DD	FLAT:??_C@_06KJNDDBHG@kmetis?$AA@
	DD	0192H
	DD	FLAT:??_C@_06FNJMBFGF@ometis?$AA@
	DD	019aH
	DD	FLAT:??_C@_06FPFOALMG@sizeof?$AA@
	DD	018dH
	DD	FLAT:??_C@_04HDMMNHEL@move?$AA@
	DD	016dH
	DD	FLAT:??_C@_08IDOMCGJP@geompipe?$AA@
	DD	015aH
	DD	FLAT:??_C@_0BG@LAOGOOCK@convert_to_quantities?$AA@
	DD	01aaH
	DD	FLAT:??_C@_08GDDLLHKC@edgeswap?$AA@
	DD	014aH
	DD	FLAT:??_C@_0M@HIFAJGPB@t1_edgeswap?$AA@
	DD	0210H
	DD	FLAT:??_C@_05ELPHFHOI@break?$AA@
	DD	018bH
	DD	FLAT:??_C@_08HEBLBDOI@volfixed?$AA@
	DD	011dH
	DD	FLAT:??_C@_08DLICDMBN@continue?$AA@
	DD	018cH
	DD	FLAT:??_C@_08IMINLCCL@volconst?$AA@
	DD	0123H
	DD	FLAT:??_C@_04HKMJFCDE@ritz?$AA@
	DD	016cH
	DD	FLAT:??_C@_0M@KPMDGEHG@orientation?$AA@
	DD	0199H
	DD	FLAT:??_C@_0L@FLCFPHEO@eigenprobe?$AA@
	DD	0174H
	DD	FLAT:??_C@_07JPCPFHFE@lanczos?$AA@
	DD	0173H
	DD	FLAT:??_C@_0M@DFLKEBKH@tetra_point?$AA@
	DD	0171H
	DD	FLAT:??_C@_0N@DHNCNHBM@triple_point?$AA@
	DD	0172H
	DD	FLAT:??_C@_05MFEJDJP@value?$AA@
	DD	01dbH
	DD	FLAT:??_C@_06JJLAMBGK@target?$AA@
	DD	01daH
	DD	FLAT:??_C@_0N@PEAHACPA@datafilename?$AA@
	DD	0114H
	DD	FLAT:??_C@_08GOLFMCHH@geomview?$AA@
	DD	0105H
	DD	FLAT:??_C@_06PNAKCKLH@saddle?$AA@
	DD	013aH
	DD	FLAT:??_C@_04CIOKLOBL@midv?$AA@
	DD	0113H
	DD	FLAT:??_C@_06EPMMJFDC@define?$AA@
	DD	0164H
	DD	FLAT:??_C@_09HGIEBAJ@attribute?$AA@
	DD	016bH
	DD	FLAT:??_C@_0L@HNMJPKNA@attributes?$AA@
	DD	016bH
	DD	FLAT:??_C@_06ICGJLFIM@string?$AA@
	DD	01c9H
	DD	FLAT:??_C@_07NNCLFLCE@sobolev?$AA@
	DD	0200H
	DD	FLAT:??_C@_0N@KPIEIPJP@sobolev_seek?$AA@
	DD	0202H
	DD	FLAT:??_C@_09JHHPCHFN@dirichlet?$AA@
	DD	01ffH
	DD	FLAT:??_C@_0P@BLIMDDOG@dirichlet_seek?$AA@
	DD	0203H
	DD	FLAT:??_C@_04NFDDIEML@wrap?$AA@
	DD	0134H
	DD	FLAT:??_C@_05KBOMEDGA@total?$AA@
	DD	011bH
	DD	FLAT:??_C@_07MMNEDCBK@history?$AA@
	DD	0104H
	DD	FLAT:??_C@_03GABGILGN@fix?$AA@
	DD	014cH
	DD	FLAT:??_C@_05INHNKAIM@unfix?$AA@
	DD	014dH
	DD	FLAT:??_C@_04BGEKJPHF@bare?$AA@
	DD	018fH
	DD	FLAT:??_C@_05CBPKLGJM@phase?$AA@
	DD	01f9H
	DD	FLAT:??_C@_07ICLAOFOB@foreach?$AA@
	DD	01bbH
	DD	FLAT:??_C@_06HAMJBNFB@rebody?$AA@
	DD	0197H
	DD	FLAT:??_C@_08GHINPAG@burchard?$AA@
	DD	0196H
	DD	FLAT:??_C@_0L@HANDHNGN@close_show?$AA@
	DD	01f5H
	DD	FLAT:??_C@_08BOPEGKMG@show_off?$AA@
	DD	01f5H
	DD	FLAT:??_C@_0BA@IPCFDLJD@transform_depth?$AA@
	DD	0180H
	DD	FLAT:??_C@_0P@MKIFIEMC@transform_expr?$AA@
	DD	018eH
	DD	FLAT:??_C@_07CJECEDDG@modulus?$AA@
	DD	01d9H
	DD	FLAT:??_C@_08KIKGFOKI@boundary?$AA@
	DD	0198H
	DD	FLAT:??_C@_0O@KEPICJKL@on_constraint?$AA@
	DD	0245H
	DD	FLAT:??_C@_0P@FJLNFBKF@hit_constraint?$AA@
	DD	0246H
	DD	FLAT:??_C@_0BE@CFDLCAJO@value_of_constraint?$AA@
	DD	0152H
	DD	FLAT:??_C@_0M@CFABBPOL@on_boundary?$AA@
	DD	0247H
	DD	FLAT:??_C@_0M@GPHPDHLO@on_quantity?$AA@
	DD	0248H
	DD	FLAT:??_C@_0BD@DOOANBHL@on_method_instance?$AA@
	DD	0249H
	DD	FLAT:??_C@_07IHNMECBN@hessian?$AA@
	DD	0122H
	DD	FLAT:??_C@_0N@NOHLJNPG@hessian_seek?$AA@
	DD	0204H
	DD	FLAT:??_C@_0N@NJLPGECL@hessian_menu?$AA@
	DD	0129H
	DD	FLAT:??_C@_04PCJFHION@help?$AA@
	DD	01e9H
	DD	FLAT:??_C@_04KNNLNNGO@quit?$AA@
	DD	01c1H
	DD	FLAT:??_C@_04MKNBDEPB@exit?$AA@
	DD	01c1H
	DD	FLAT:??_C@_03MDONDFG@bye?$AA@
	DD	01c1H
	DD	FLAT:??_C@_04GGLOKIEE@dump?$AA@
	DD	01e0H
	DD	FLAT:??_C@_04EONOHKEP@load?$AA@
	DD	01e3H
	DD	FLAT:??_C@_08MJMACJHA@permload?$AA@
	DD	01e8H
	DD	FLAT:??_C@_08OCNIHGPN@quantity?$AA@
	DD	01e2H
	DD	FLAT:??_C@_0BA@CNIKOEML@spring_constant?$AA@
	DD	01dfH
	DD	FLAT:??_C@_0N@DKAJABDK@gap_constant?$AA@
	DD	01dfH
	DD	FLAT:??_C@_05GEEJHDPH@notch?$AA@
	DD	01e1H
	DD	FLAT:??_C@_05OODBEKIG@while?$AA@
	DD	01c5H
	DD	FLAT:??_C@_02KNAFDCHJ@do?$AA@
	DD	01c6H
	DD	FLAT:??_C@_02HEBPBKGD@if?$AA@
	DD	01c4H
	DD	FLAT:??_C@_04HOHPNOOD@then?$AA@
	DD	023cH
	DD	FLAT:??_C@_04FHMCPBIP@else?$AA@
	DD	023dH
	DD	FLAT:??_C@_09JOLNEMIB@histogram?$AA@
	DD	01beH
	DD	FLAT:??_C@_0N@MFCDHBBC@loghistogram?$AA@
	DD	01bfH
	DD	FLAT:??_C@_09INMNGPFE@show_expr?$AA@
	DD	01b3H
	DD	FLAT:??_C@_0L@BHDKNBMG@show_trans?$AA@
	DD	01b4H
	DD	FLAT:??_C@_08BKGECACE@dihedral?$AA@
	DD	01aeH
	DD	FLAT:??_C@_03LJAEFNNE@max?$AA@
	DD	0186H
	DD	FLAT:??_C@_03KLIPLJLL@min?$AA@
	DD	0187H
	DD	FLAT:??_C@_03CHOBFJAH@avg?$AA@
	DD	018aH
	DD	FLAT:??_C@_03CFFIJAMA@sum?$AA@
	DD	0189H
	DD	FLAT:??_C@_05IOMEMJEC@count?$AA@
	DD	0188H
	DD	FLAT:??_C@_05IJDJACGD@print?$AA@
	DD	0185H
	DD	FLAT:??_C@_06HMBJBPPM@eprint?$AA@
	DD	024eH
	DD	FLAT:??_C@_06OHJFMFMB@printf?$AA@
	DD	0181H
	DD	FLAT:??_C@_09JOJNMAED@errprintf?$AA@
	DD	0182H
	DD	FLAT:??_C@_07DNAEFDKF@sprintf?$AA@
	DD	01a9H
	DD	FLAT:??_C@_0O@DNBEMPOF@binary_printf?$AA@
	DD	021eH
	DD	FLAT:??_C@_0L@LFLJKKDA@procedures?$AA@
	DD	020eH
	DD	FLAT:??_C@_09KAGJCBDL@procedure?$AA@
	DD	01e5H
	DD	FLAT:??_C@_02LIELOMNJ@on?$AA@
	DD	0158H
	DD	FLAT:??_C@_06JMEOMOEA@counts?$AA@
	DD	015fH
	DD	FLAT:??_C@_0M@MMGMMHEK@extrapolate?$AA@
	DD	017fH
	DD	FLAT:??_C@_03MCADLMAF@off?$AA@
	DD	0159H
	DD	FLAT:??_C@_08KODKMLGA@areaweed?$AA@
	DD	0177H
	DD	FLAT:??_C@_08EFAMPBPP@edgeweed?$AA@
	DD	0178H
	DD	FLAT:??_C@_0M@EKPFJKCG@edge_divide?$AA@
	DD	017aH
	DD	FLAT:??_C@_05MFGCEKPN@alice?$AA@
	DD	0162H
	DD	FLAT:??_C@_0P@HKDMGBBG@stability_test?$AA@
	DD	0163H
	DD	FLAT:??_C@_04HKCCIOCO@zoom?$AA@
	DD	0157H
	DD	FLAT:??_C@_05IJMOJOL@utest?$AA@
	DD	016aH
	DD	FLAT:??_C@_06FHFOAHML@system?$AA@
	DD	0170H
	DD	FLAT:??_C@_05IHFEJEKL@chdir?$AA@
	DD	0160H
	DD	FLAT:??_C@_05CDBKKPFJ@longj?$AA@
	DD	015dH
	DD	FLAT:??_C@_04BBIOILIO@rawv?$AA@
	DD	015eH
	DD	FLAT:??_C@_07ENILCFOA@rawestv?$AA@
	DD	01a0H
	DD	FLAT:??_C@_02KPEDIMCA@go?$AA@
	DD	0153H
	DD	FLAT:??_C@_06ELMCDMMG@refine?$AA@
	DD	0147H
	DD	FLAT:??_C@_05KJHPNPAA@check?$AA@
	DD	0155H
	DD	FLAT:??_C@_08MGNLKBNG@show_vol?$AA@
	DD	0154H
	DD	FLAT:??_C@_02EGCJHIOB@id?$AA@
	DD	012fH
	DD	FLAT:??_C@_03PLGJJJLK@oid?$AA@
	DD	0130H
	DD	FLAT:??_C@_03BOPJPIAM@and?$AA@
	DD	023fH
	DD	FLAT:??_C@_02FODMLBIE@or?$AA@
	DD	023eH
	DD	FLAT:??_C@_03NJKJADM@not?$AA@
	DD	0240H
	DD	FLAT:??_C@_03FFONCNID@mod?$AA@
	DD	025H
	DD	FLAT:??_C@_04CGKJBALO@imod?$AA@
	DD	024aH
	DD	FLAT:??_C@_04CHNIFDFF@idiv?$AA@
	DD	024cH
	DD	FLAT:??_C@_0M@CBIPACOJ@dot_product?$AA@
	DD	024bH
	DD	FLAT:??_C@_02OAHAJOFD@pi?$AA@
	DD	0116H
	DD	FLAT:??_C@_01KGKMHCOC@e?$AA@
	DD	0117H
	DD	FLAT:??_C@_01JEJKBAGA@g?$AA@
	DD	0118H
	DD	FLAT:??_C@_08LAAABFKN@original?$AA@
	DD	0132H
	DD	FLAT:??_C@_05OFLEIIDM@fixed?$AA@
	DD	013dH
	DD	FLAT:??_C@_08BOLPBPCL@vertices?$AA@
	DD	0125H
	DD	FLAT:??_C@_06HLKHCFCI@vertex?$AA@
	DD	0125H
	DD	FLAT:??_C@_05JGEJPNHM@edges?$AA@
	DD	0126H
	DD	FLAT:??_C@_04IJFJNCMM@edge?$AA@
	DD	0126H
	DD	FLAT:??_C@_06MMNNGFLE@facets?$AA@
	DD	0127H
	DD	FLAT:??_C@_05BIBOABDC@facet?$AA@
	DD	0127H
	DD	FLAT:??_C@_05FHFPJHPF@faces?$AA@
	DD	0127H
	DD	FLAT:??_C@_04POCOPAPC@face?$AA@
	DD	0127H
	DD	FLAT:??_C@_0M@NLMIGHAM@facet_edges?$AA@
	DD	0133H
	DD	FLAT:??_C@_0L@LKKCPKKM@facet_edge?$AA@
	DD	0133H
	DD	FLAT:??_C@_0L@CPIKDJIA@facetedges?$AA@
	DD	0133H
	DD	FLAT:??_C@_09CMEJCHLK@facetedge?$AA@
	DD	0133H
	DD	FLAT:??_C@_06OHIKIKDI@bodies?$AA@
	DD	0128H
	DD	FLAT:??_C@_04IEJGKNJ@body?$AA@
	DD	0128H
	DD	FLAT:??_C@_07CFPPNLMH@topinfo?$AA@
	DD	0137H
	DD	FLAT:??_C@_0L@BBAJEGNK@bottominfo?$AA@
	DD	0190H
	DD	FLAT:??_C@_06IJDLPEM@length?$AA@
	DD	012cH
	DD	FLAT:??_C@_07HKCFKCGH@valence?$AA@
	DD	0139H
	DD	FLAT:??_C@_04GOEDGNCF@area?$AA@
	DD	012dH
	DD	FLAT:??_C@_06EMCPHFGM@volume?$AA@
	DD	012eH
	DD	FLAT:??_C@_07MEIPJMCG@sqcurve?$AA@
	DD	019bH
	DD	FLAT:??_C@_05LCFPHLEE@where?$AA@
	DD	0143H
	DD	FLAT:??_C@_04DONFEANM@list?$AA@
	DD	0144H
	DD	FLAT:??_C@_04FKMICODN@show?$AA@
	DD	0145H
	DD	FLAT:??_C@_05GOBGMMII@showq?$AA@
	DD	0149H
	DD	FLAT:??_C@_06FOBLBEIN@delete?$AA@
	DD	0146H
	DD	FLAT:??_C@_08KFIPBGJH@dissolve?$AA@
	DD	0142H
	DD	FLAT:??_C@_06ELMCDMMG@refine?$AA@
	DD	0147H
	DD	FLAT:??_C@_05OOLEAMGB@shell?$AA@
	DD	0120H
	DD	FLAT:??_C@_0L@HOHHMJMM@constraint?$AA@
	DD	0140H
	DD	FLAT:??_C@_08POHEELCJ@pressure?$AA@
	DD	013fH
	DD	FLAT:??_C@_05PEENBMOG@color?$AA@
	DD	0121H
	DD	FLAT:??_C@_09OPNKCLNO@backcolor?$AA@
	DD	01a2H
	DD	FLAT:??_C@_0L@DKEJANLD@frontcolor?$AA@
	DD	019cH
	DD	FLAT:??_C@_07IJGPCJHC@opacity?$AA@
	DD	0138H
	DD	FLAT:??_C@_06EMCPHFGM@volume?$AA@
	DD	012eH
	DD	FLAT:??_C@_07HAFFKDBK@density?$AA@
	DD	013eH
	DD	FLAT:??_C@_07BJBOFKDG@tension?$AA@
	DD	013eH
	DD	FLAT:??_C@_03KCHOJKKI@set?$AA@
	DD	013cH
	DD	FLAT:??_C@_04POLDLDMI@read?$AA@
	DD	0156H
	DD	FLAT:??_C@_05EPBFLBEJ@unset?$AA@
	DD	0136H
	DD	FLAT:??_C@_06BDEIOILB@recalc?$AA@
	DD	0148H
	DD	FLAT:??_C@_08GHMAOHAP@optimize?$AA@
	DD	01eeH
	DD	FLAT:??_C@_08GIBBNMIA@optimise?$AA@
	DD	01eeH
	DD	FLAT:??_C@_08BLGPIPGP@autochop?$AA@
	DD	0169H
_togglenames DD	FLAT:??_C@_0P@EJEJKKN@force_edgeswap?$AA@
	DD	02963H
	DD	FLAT:??_C@_0P@BMEBABFE@show_all_edges?$AA@
	DD	02968H
	DD	FLAT:??_C@_0BA@FEGMCNGA@K_altitude_mode?$AA@
	DD	02985H
	DD	FLAT:??_C@_0BC@IOPGAMGF@show_bounding_box?$AA@
	DD	02967H
	DD	FLAT:??_C@_0M@FKFJNJHN@septum_flag?$AA@
	DD	02969H
	DD	FLAT:??_C@_0CB@GFKKBGMN@view_transforms_use_unique_point@
	DD	02970H
	DD	FLAT:??_C@_0P@HBGAENON@detorus_sticky?$AA@
	DD	0296fH
	DD	FLAT:??_C@_0BC@PCLABFDB@immediate_autopop?$AA@
	DD	02949H
	DD	FLAT:??_C@_0P@JPONPFLM@star_finagling?$AA@
	DD	02972H
	DD	FLAT:??_C@_0P@BHLDEOD@force_deletion?$AA@
	DD	02971H
	DD	FLAT:??_C@_0BJ@GACLGPHB@function_quantity_sparse?$AA@
	DD	0296eH
	DD	FLAT:??_C@_0L@KMEPJMME@slice_view?$AA@
	DD	02973H
	DD	FLAT:??_C@_09FMDIMAMP@clip_view?$AA@
	DD	02974H
	DD	FLAT:??_C@_09EOFABKBN@quietload?$AA@
	DD	0296dH
	DD	FLAT:??_C@_0L@HGLBMAAF@big_endian?$AA@
	DD	0298cH
	DD	FLAT:??_C@_0O@EKBDJBFN@little_endian?$AA@
	DD	0298dH
	DD	FLAT:??_C@_0BC@PCBOIGLG@full_bounding_box?$AA@
	DD	02987H
	DD	FLAT:??_C@_0M@PDGIDHIC@pop_disjoin?$AA@
	DD	0298aH
	DD	FLAT:??_C@_0L@NBNMFCPF@pop_enjoin?$AA@
	DD	0298bH
	DD	FLAT:??_C@_0M@CAFGBCMP@pop_to_edge?$AA@
	DD	02988H
	DD	FLAT:??_C@_0M@FHCBDAPB@pop_to_face?$AA@
	DD	02989H
	DD	FLAT:??_C@_09PJOICEHA@mpi_debug?$AA@
	DD	0298eH
	DD	FLAT:??_C@_0N@DFPINMIP@smooth_graph?$AA@
	DD	02986H
	DD	FLAT:??_C@_0N@OJEGAGKB@bezier_basis?$AA@
	DD	02990H
	DD	FLAT:??_C@_0BE@HEFINIJJ@break_after_warning?$AA@
	DD	0297cH
	DD	FLAT:??_C@_0BB@GKDPKLCB@break_on_warning?$AA@
	DD	0297dH
	DD	FLAT:??_C@_09ELACHHOE@blas_flag?$AA@
	DD	0297eH
	DD	FLAT:??_C@_09NBBNKAEP@diffusion?$AA@
	DD	029e0H
	DD	FLAT:??_C@_0BC@OIKNNBJM@augmented_hessian?$AA@
	DD	0297fH
	DD	FLAT:??_C@_0BD@LILDNGFC@sparse_constraints?$AA@
	DD	02980H
	DD	FLAT:??_C@_0BA@NBAAGIKN@visibility_test?$AA@
	DD	02981H
	DD	FLAT:??_C@_0BC@ENFIPPEC@circular_arc_draw?$AA@
	DD	02982H
	DD	FLAT:??_C@_0L@NAICPCIF@rgb_colors?$AA@
	DD	0297bH
	DD	FLAT:??_C@_0BB@OFKJMHPN@kraynikpopvertex?$AA@
	DD	02983H
	DD	FLAT:??_C@_0P@EOAPCHNN@kraynikpopedge?$AA@
	DD	02984H
	DD	FLAT:??_C@_0N@IAKIABKB@sobolev_mode?$AA@
	DD	02991H
	DD	FLAT:??_C@_0P@DEKALNNI@dirichlet_mode?$AA@
	DD	0297aH
	DD	FLAT:??_C@_07KBAMPNJK@verbose?$AA@
	DD	0296bH
	DD	FLAT:??_C@_0N@IGCELFFA@torus_filled?$AA@
	DD	0296aH
	DD	FLAT:??_C@_0BB@JLCFDFN@ambient_pressure?$AA@
	DD	029e6H
	DD	FLAT:??_C@_08KFLJAAGL@backcull?$AA@
	DD	02975H
	DD	FLAT:??_C@_0O@DOAHOLKA@rotate_lights?$AA@
	DD	02976H
	DD	FLAT:??_C@_0P@DFOEIAJO@interp_normals?$AA@
	DD	029e4H
	DD	FLAT:??_C@_0P@PLDNIGHE@volgrads_every?$AA@
	DD	02977H
	DD	FLAT:??_C@_0L@PLJDOBHE@zener_drag?$AA@
	DD	02978H
	DD	FLAT:??_C@_0BH@DJGEPEF@hessian_special_normal?$AA@
	DD	02993H
	DD	FLAT:??_C@_0BE@IEAFMCH@hessian_normal_perp?$AA@
	DD	02994H
	DD	FLAT:??_C@_0BE@PABNDBOD@show_all_quantities?$AA@
	DD	02960H
	DD	FLAT:??_C@_0M@MGNBMOID@pscolorflag?$AA@
	DD	02961H
	DD	FLAT:??_C@_0N@PDJMPNAK@ps_colorflag?$AA@
	DD	02961H
	DD	FLAT:??_C@_0M@LOFHKFBI@ps_cmykflag?$AA@
	DD	02962H
	DD	FLAT:??_C@_0M@NAKIPJII@ps_gridflag?$AA@
	DD	02964H
	DD	FLAT:??_C@_08EGOBEDIK@gridflag?$AA@
	DD	02964H
	DD	FLAT:??_C@_0N@JJEIJGBI@crossingflag?$AA@
	DD	02965H
	DD	FLAT:??_C@_0BA@MDFPOHGI@ps_crossingflag?$AA@
	DD	02965H
	DD	FLAT:??_C@_09KMOLHLBE@labelflag?$AA@
	DD	02966H
	DD	FLAT:??_C@_0N@ECHDFDIC@ps_labelflag?$AA@
	DD	02966H
	DD	FLAT:??_C@_0BD@HMMIFHMP@hessian_normal_one?$AA@
	DD	02996H
	DD	FLAT:??_C@_0BC@KPHKHJOD@interp_bdry_param?$AA@
	DD	02999H
	DD	FLAT:??_C@_0BG@GAEGJDMI@hessian_double_normal?$AA@
	DD	02995H
	DD	FLAT:??_C@_0BB@GLJECMNP@h_inverse_metric?$AA@
	DD	0294eH
	DD	FLAT:??_C@_0BB@GPGBGBKF@squared_gradient?$AA@
	DD	029feH
	DD	FLAT:??_C@_0O@PLHGPNIO@linear_metric?$AA@
	DD	029ffH
	DD	FLAT:??_C@_0P@OHNEFNEP@metric_convert?$AA@
	DD	029fcH
	DD	FLAT:??_C@_0BA@HGBJAEID@quantities_only?$AA@
	DD	029fdH
	DD	FLAT:??_C@_04NLKFKEKL@ysmp?$AA@
	DD	02a01H
	DD	FLAT:??_C@_03JKDNAPFH@mkl?$AA@
	DD	02a00H
	DD	FLAT:??_C@_0O@BFFIKKOE@bunch_kaufman?$AA@
	DD	02a03H
	DD	FLAT:??_C@_0P@GKFGPBHG@bunch_kauffman?$AA@
	DD	02a03H
	DD	FLAT:??_C@_0P@BMDMDICD@hessian_normal?$AA@
	DD	02992H
	DD	FLAT:??_C@_06LGAKKEPJ@jiggle?$AA@
	DD	0295cH
	DD	FLAT:??_C@_0BA@NLJCNNPB@assume_oriented?$AA@
	DD	0294fH
	DD	FLAT:??_C@_07PIJPCAMN@ribiere?$AA@
	DD	0295dH
	DD	FLAT:??_C@_0BD@JAENIDNE@area_normalization?$AA@
	DD	0295fH
	DD	FLAT:??_C@_0O@MHBOMMFK@force_pos_def?$AA@
	DD	02941H
	DD	FLAT:??_C@_0M@DMCDJPBF@autodisplay?$AA@
	DD	029e1H
	DD	FLAT:??_C@_08JNKCHLOP@lagrange?$AA@
	DD	0271cH
	DD	FLAT:??_C@_09NDEBDKFB@quadratic?$AA@
	DD	0271bH
	DD	FLAT:??_C@_06HPJICMPM@linear?$AA@
	DD	0271aH
	DD	FLAT:??_C@_0L@EAEPHEPG@show_inner?$AA@
	DD	029e2H
	DD	FLAT:??_C@_0L@IDDPHJLO@area_fixed?$AA@
	DD	01c0H
	DD	FLAT:??_C@_0L@HCEEFND@fixed_area?$AA@
	DD	01c0H
	DD	FLAT:??_C@_07HKDEBIPG@clipped?$AA@
	DD	029faH
	DD	FLAT:??_C@_0O@ILHEOIGK@clipped_cells?$AA@
	DD	029faH
	DD	FLAT:??_C@_09DNEEIDBP@raw_cells?$AA@
	DD	029f8H
	DD	FLAT:??_C@_09JGOMOAGJ@connected?$AA@
	DD	029f9H
	DD	FLAT:??_C@_0BA@FMBIOPNC@connected_cells?$AA@
	DD	029f9H
	DD	FLAT:??_C@_0L@LOICIGID@show_outer?$AA@
	DD	029e3H
	DD	FLAT:??_C@_08OMBDDLKJ@colormap?$AA@
	DD	029e5H
	DD	FLAT:??_C@_07KCLCNBJB@thicken?$AA@
	DD	029fbH
	DD	FLAT:??_C@_0N@PBIFKJMI@hessian_diff?$AA@
	DD	02998H
	DD	FLAT:??_C@_0O@PKIOMPCC@normal_motion?$AA@
	DD	02935H
	DD	FLAT:??_C@_0M@OBNGAKOC@runge_kutta?$AA@
	DD	029dbH
	DD	FLAT:??_C@_07LLNNGCPP@deturck?$AA@
	DD	02944H
	DD	FLAT:??_C@_06IGFDKMHM@kusner?$AA@
	DD	0293bH
	DD	FLAT:??_C@_07EMJKOPJK@view_4d?$AA@
	DD	02936H
	DD	FLAT:??_C@_09MFCEMNNF@conf_edge?$AA@
	DD	0293dH
	DD	FLAT:??_C@_0BI@KGGFDDEC@mean_curvature_integral?$AA@
	DD	0293fH
	DD	FLAT:??_C@_07ENPKKAPH@sqgauss?$AA@
	DD	02945H
	DD	FLAT:??_C@_07LEJGIFAD@autopop?$AA@
	DD	02947H
	DD	FLAT:??_C@_0BA@KEKJOJEJ@autopop_quartic?$AA@
	DD	02948H
	DD	FLAT:??_C@_08MINHKHMD@old_area?$AA@
	DD	0294cH
	DD	FLAT:??_C@_0M@GGBEIMML@approx_curv?$AA@
	DD	0294dH
	DD	FLAT:??_C@_0P@OGHBAHOF@check_increase?$AA@
	DD	029dcH
	DD	FLAT:??_C@_05GFCDIDHO@debug?$AA@
	DD	028f9H
	DD	FLAT:??_C@_08ONKONDHK@memdebug?$AA@
	DD	028fbH
	DD	FLAT:??_C@_07GGEALCBM@itdebug?$AA@
	DD	028faH
	DD	FLAT:??_C@_07GFBFDLBM@gravity?$AA@
	DD	0292dH
	DD	FLAT:??_C@_0P@OMMOBLOA@effective_area?$AA@
	DD	029e7H
	DD	FLAT:??_C@_08LDELGPJH@estimate?$AA@
	DD	02942H
	DD	FLAT:??_C@_0N@NFINOFHM@post_project?$AA@
	DD	0293eH
	DD	FLAT:??_C@_0L@DLCCMBJF@transforms?$AA@
	DD	02943H
	DD	FLAT:??_C@_05PMBAOCDH@quiet?$AA@
	DD	0296cH
	DD	FLAT:??_C@_07HBPOHFLN@quietgo?$AA@
	DD	02979H
	DD	FLAT:??_C@_0O@HCDDDEHN@hessian_quiet?$AA@
	DD	02997H
	DD	FLAT:??_C@_09BAKALBHB@conj_grad?$AA@
	DD	0295eH
	DD	FLAT:??_C@_09PDIDGCEH@homothety?$AA@
	DD	029ddH
	DD	FLAT:??_C@_0N@BNMHNAMC@facet_colors?$AA@
	DD	0292fH
	DD	FLAT:??_C@_07IBJKBKNG@shading?$AA@
	DD	02930H
	DD	FLAT:??_C@_0BF@KHPBBAHH@div_normal_curvature?$AA@
	DD	029e9H
	DD	FLAT:??_C@_0BB@ODBHHAP@normal_curvature?$AA@
	DD	029e8H
	DD	FLAT:??_C@_0BD@MOPCCJLG@boundary_curvature?$AA@
	DD	0293cH
	DD	FLAT:??_C@_0N@FFMNCIGF@self_similar?$AA@
	DD	02939H
	DD	FLAT:??_C@_09BPDDPHCA@gv_binary?$AA@
	DD	0293aH
	DD	FLAT:??_C@_0BC@LJJGFBGD@metric_conversion?$AA@
	DD	02938H
	DD	FLAT:??_C@_0L@MABNKBMJ@autorecalc?$AA@
	DD	02940H
	DD	FLAT:??_C@_07BCIELMPF@pinning?$AA@
	DD	02937H
_colornames DD	FLAT:??_C@_05MEHLAELG@clear?$AA@
	DD	0ffffffffH
	DD	FLAT:??_C@_0M@CEEDCJLA@transparent?$AA@
	DD	0ffffffffH
	DD	FLAT:??_C@_05BIMBDNDC@black?$AA@
	DD	00H
	DD	FLAT:??_C@_04OBGPFBCN@blue?$AA@
	DD	01H
	DD	FLAT:??_C@_05GBEEJKMC@green?$AA@
	DD	02H
	DD	FLAT:??_C@_04EDBDANFH@cyan?$AA@
	DD	03H
	DD	FLAT:??_C@_03FAAAOPJM@red?$AA@
	DD	04H
	DD	FLAT:??_C@_07EMDGAPCI@magenta?$AA@
	DD	05H
	DD	FLAT:??_C@_05EBJGJMAL@brown?$AA@
	DD	06H
	DD	FLAT:??_C@_09IIGGAAJN@lightgray?$AA@
	DD	07H
	DD	FLAT:??_C@_09IPGPKIEB@lightgrey?$AA@
	DD	07H
	DD	FLAT:??_C@_04GEBBKIAA@gray?$AA@
	DD	07H
	DD	FLAT:??_C@_04GDBIAANM@grey?$AA@
	DD	07H
	DD	FLAT:??_C@_08EADAAFKF@darkgray?$AA@
	DD	08H
	DD	FLAT:??_C@_08EHDJKNHJ@darkgrey?$AA@
	DD	08H
	DD	FLAT:??_C@_09NBIPJLA@lightblue?$AA@
	DD	09H
	DD	FLAT:??_C@_0L@OPBGACJD@lightgreen?$AA@
	DD	0aH
	DD	FLAT:??_C@_09KPGEKFMK@lightcyan?$AA@
	DD	0bH
	DD	FLAT:??_C@_08EEFKFEFN@lightred?$AA@
	DD	0cH
	DD	FLAT:??_C@_0N@BBECPGBJ@lightmagenta?$AA@
	DD	0dH
	DD	FLAT:??_C@_06ENJNJKEL@yellow?$AA@
	DD	0eH
	DD	FLAT:??_C@_05PMAELIEO@white?$AA@
	DD	0fH
_internal_variables DD FLAT:??_C@_0BD@ENGCHOCN@bounding_box_color?$AA@
	DD	0905H
	DD	FLAT:??_C@_0BA@GKOHKDJ@detorus_epsilon?$AA@
	DD	0904H
	DD	FLAT:??_C@_0BA@HEFKJKJG@high_constraint?$AA@
	DD	0902H
	DD	FLAT:??_C@_0O@FHDEFNFH@high_boundary?$AA@
	DD	0903H
	DD	FLAT:??_C@_0BA@OIGENEKE@autochop_length?$AA@
	DD	08eeH
	DD	FLAT:??_C@_0BH@CENGABA@string_curve_tolerance?$AA@
	DD	08ffH
	DD	FLAT:??_C@_0N@ILKHNNHO@corona_state?$AA@
	DD	08f9H
	DD	FLAT:??_C@_0M@JCMEGIAD@mpi_maxtask?$AA@
	DD	08f0H
	DD	FLAT:??_C@_09LEOGOINP@this_task?$AA@
	DD	08e7H
	DD	FLAT:??_C@_0BE@LMLDEADG@window_aspect_ratio?$AA@
	DD	08e5H
	DD	FLAT:??_C@_0BD@ICNMFEGJ@mindeg_debug_level?$AA@
	DD	08dcH
	DD	FLAT:??_C@_0BH@CCPNJHKC@mindeg_min_region_size?$AA@
	DD	08deH
	DD	FLAT:??_C@_0O@IOPDAKCK@mindeg_margin?$AA@
	DD	08ddH
	DD	FLAT:??_C@_09FKJNFACE@fix_count?$AA@
	DD	0842H
	DD	FLAT:??_C@_0M@HMIJLFOH@unfix_count?$AA@
	DD	0843H
	DD	FLAT:??_C@_0BC@GMDNEKGI@edge_delete_count?$AA@
	DD	083fH
	DD	FLAT:??_C@_0BD@HGHNBHOM@facet_delete_count?$AA@
	DD	0840H
	DD	FLAT:??_C@_0BG@MLIFIJNF@vertex_dissolve_count?$AA@
	DD	082fH
	DD	FLAT:??_C@_0BE@JFPIKCB@edge_dissolve_count?$AA@
	DD	0830H
	DD	FLAT:??_C@_0BF@EDGKOAGH@facet_dissolve_count?$AA@
	DD	0831H
	DD	FLAT:??_C@_0BE@CKCDJLNA@body_dissolve_count?$AA@
	DD	0832H
	DD	FLAT:??_C@_0BC@LJKCEDIK@edge_refine_count?$AA@
	DD	0833H
	DD	FLAT:??_C@_0BD@KDOCBOAO@facet_refine_count?$AA@
	DD	0834H
	DD	FLAT:??_C@_0BB@PNOKJDFD@vertex_pop_count?$AA@
	DD	0835H
	DD	FLAT:??_C@_0P@CIHELNID@edge_pop_count?$AA@
	DD	0836H
	DD	FLAT:??_C@_0BG@NFPFNFEP@pop_tri_to_edge_count?$AA@
	DD	0838H
	DD	FLAT:??_C@_0BG@LGGDNHOG@pop_edge_to_tri_count?$AA@
	DD	0839H
	DD	FLAT:??_C@_0BH@GEAHEOKO@pop_quad_to_quad_count?$AA@
	DD	083aH
	DD	FLAT:??_C@_0P@IOOMGAHI@edgeswap_count?$AA@
	DD	083bH
	DD	FLAT:??_C@_0BC@EADCAAG@t1_edgeswap_count?$AA@
	DD	083cH
	DD	FLAT:??_C@_0N@PPOIJFFB@ps_labelsize?$AA@
	DD	0844H
	DD	FLAT:??_C@_0P@MKDKOLJB@ps_stringwidth?$AA@
	DD	07e9H
	DD	FLAT:??_C@_0BC@CPCJJCCO@ps_fixededgewidth?$AA@
	DD	07eaH
	DD	FLAT:??_C@_0BD@DOBHCOCD@ps_tripleedgewidth?$AA@
	DD	07ebH
	DD	FLAT:??_C@_0BA@LMLNIMJE@ps_conedgewidth?$AA@
	DD	07ecH
	DD	FLAT:??_C@_0BB@NEEDDBHF@ps_bareedgewidth?$AA@
	DD	07edH
	DD	FLAT:??_C@_0BB@OFCJADDO@ps_gridedgewidth?$AA@
	DD	07eeH
	DD	FLAT:??_C@_0BB@NLMEBPED@scrollbuffersize?$AA@
	DD	07e3H
	DD	FLAT:??_C@_0BB@GILLHKAL@visibility_debug?$AA@
	DD	07e2H
	DD	FLAT:??_C@_0M@PLDEDAON@check_count?$AA@
	DD	07c2H
	DD	FLAT:??_C@_0BE@CJKHIDDP@bad_next_prev_count?$AA@
	DD	08e0H
	DD	FLAT:??_C@_0BK@LLHOBCKD@inconsistent_bodies_count?$AA@
	DD	08e1H
	DD	FLAT:??_C@_0BA@GMPBMHMF@edge_loop_count?$AA@
	DD	08e2H
	DD	FLAT:??_C@_0BK@JKNABKBA@edges_same_vertices_count?$AA@
	DD	08e3H
	DD	FLAT:??_C@_0BL@CKKLJMAI@facets_same_vertices_count?$AA@
	DD	08e4H
	DD	FLAT:??_C@_0BA@HBCDBDGE@bad_error_count?$AA@
	DD	08e6H
	DD	FLAT:??_C@_09MEOACIKB@breakflag?$AA@
	DD	07c3H
	DD	FLAT:??_C@_0BG@DMHBIFMB@everything_quantities?$AA@
	DD	08dfH
	DD	FLAT:??_C@_0BB@LFLMFBL@gravity_constant?$AA@
	DD	08908H
	DD	FLAT:??_C@_0BF@PLHANHAM@hessian_slant_cutoff?$AA@
	DD	07b8H
	DD	FLAT:??_C@_0BH@OAPNEHDB@ambient_pressure_value?$AA@
	DD	07b7H
	DD	FLAT:??_C@_0L@IAKFAOLO@last_error?$AA@
	DD	0799H
	DD	FLAT:??_C@_0N@HIDDLAJM@memory_arena?$AA@
	DD	0796H
	DD	FLAT:??_C@_0M@NJPPNBCL@memory_used?$AA@
	DD	0797H
	DD	FLAT:??_C@_0L@EGCKCJDC@background?$AA@
	DD	0792H
	DD	FLAT:??_C@_0L@BECHNFGG@brightness?$AA@
	DD	078fH
	DD	FLAT:??_C@_0BA@JDILIPNO@diffusion_coeff?$AA@
	DD	0790H
	DD	FLAT:??_C@_0BA@BIIIJIED@transform_count?$AA@
	DD	0770H
	DD	FLAT:??_C@_0M@PJCBAJEM@scale_limit?$AA@
	DD	075cH
	DD	FLAT:??_C@_05DDECJJKE@clock?$AA@
	DD	0758H
	DD	FLAT:??_C@_0M@HBHAPOJO@cpu_counter?$AA@
	DD	0845H
	DD	FLAT:??_C@_0BB@GHHBGKKF@target_tolerance?$AA@
	DD	0757H
	DD	FLAT:??_C@_09GLPKLBIH@thickness?$AA@
	DD	0756H
	DD	FLAT:??_C@_0BA@CNIKOEML@spring_constant?$AA@
	DD	0755H
	DD	FLAT:??_C@_0N@DKAJABDK@gap_constant?$AA@
	DD	0755H
	DD	FLAT:??_C@_0P@DDMFGHDB@lagrange_order?$AA@
	DD	074dH
	DD	FLAT:??_C@_0BA@OBNGJMBG@last_eigenvalue?$AA@
	DD	0747H
	DD	FLAT:??_C@_0BD@CHOAMOKA@last_hessian_scale?$AA@
	DD	0748H
	DD	FLAT:??_C@_0P@JOOJGKKP@integral_order?$AA@
	DD	066aH
	DD	FLAT:??_C@_0BC@CDLGPNMC@integral_order_1d?$AA@
	DD	0731H
	DD	FLAT:??_C@_0BC@CBPAEDJL@integral_order_2d?$AA@
	DD	0732H
	DD	FLAT:??_C@_0BC@CCICJAIC@integration_order?$AA@
	DD	066aH
	DD	FLAT:??_C@_0BF@CHBAJJCK@integration_order_1d?$AA@
	DD	0731H
	DD	FLAT:??_C@_0BF@CFFGCHHD@integration_order_2d?$AA@
	DD	0732H
	DD	FLAT:??_C@_0M@PANFJEDO@random_seed?$AA@
	DD	072fH
	DD	FLAT:??_C@_06NLFCANPD@random?$AA@
	DD	0789H
	DD	FLAT:??_C@_0BC@DAHPKAPK@linear_metric_mix?$AA@
	DD	0728H
	DD	FLAT:??_C@_0BF@GFGAKDLL@quadratic_metric_mix?$AA@
	DD	0745H
	DD	FLAT:??_C@_08NBJOBAPL@pickvnum?$AA@
	DD	0724H
	DD	FLAT:??_C@_08PGNOPNKJ@pickenum?$AA@
	DD	0725H
	DD	FLAT:??_C@_08LBHOIHHJ@pickfnum?$AA@
	DD	0726H
	DD	FLAT:??_C@_09HMMAJFCG@eigen_pos?$AA@
	DD	071aH
	DD	FLAT:??_C@_09OPDPOHAJ@eigen_neg?$AA@
	DD	071bH
	DD	FLAT:??_C@_0L@BENLKAPC@eigen_zero?$AA@
	DD	071cH
	DD	FLAT:??_C@_08NMCKLHDA@eigenpos?$AA@
	DD	071aH
	DD	FLAT:??_C@_08EPNFMFBP@eigenneg?$AA@
	DD	071bH
	DD	FLAT:??_C@_09OAKPPPIB@eigenzero?$AA@
	DD	071cH
	DD	FLAT:??_C@_0L@OIFGKHMH@total_time?$AA@
	DD	0703H
	DD	FLAT:??_C@_0BD@HHELJMGO@jiggle_temperature?$AA@
	DD	0704H
	DD	FLAT:??_C@_0BC@OLOACPCP@iteration_counter?$AA@
	DD	06fbH
	DD	FLAT:??_C@_0M@FONFPPOA@scale_scale?$AA@
	DD	06f2H
	DD	FLAT:??_C@_0N@HPKCIPGC@vertex_count?$AA@
	DD	0642H
	DD	FLAT:??_C@_0L@NIJKJMJB@edge_count?$AA@
	DD	0643H
	DD	FLAT:??_C@_0M@MDEFFDDC@facet_count?$AA@
	DD	0644H
	DD	FLAT:??_C@_0L@BLNIGKEE@body_count?$AA@
	DD	0645H
	DD	FLAT:??_C@_0BA@KJPGFHE@facetedge_count?$AA@
	DD	0646H
	DD	FLAT:??_C@_0N@FOHOADKL@total_energy?$AA@
	DD	0647H
	DD	FLAT:??_C@_0L@KNDBPLBH@total_area?$AA@
	DD	0648H
	DD	FLAT:??_C@_0N@PMIPBODO@total_length?$AA@
	DD	0649H
	DD	FLAT:??_C@_05MHMEBBGO@scale?$AA@
	DD	064aH
	DD	FLAT:??_C@_0BA@NCBBEAIN@space_dimension?$AA@
	DD	0664H
	DD	FLAT:??_C@_0BC@CCLFHFGM@surface_dimension?$AA@
	DD	0663H
	DD	FLAT:??_C@_05FCPCBJIO@torus?$AA@
	DD	0666H
	DD	FLAT:??_C@_0P@GKEDIIHF@symmetry_group?$AA@
	DD	0668H
	DD	FLAT:??_C@_0BH@ELELLFNL@simplex_representation?$AA@
	DD	0669H
	DD	FLAT:??_C@_0BF@MOILGEJM@constraint_tolerance?$AA@
	DD	066eH
	DD	FLAT:??_C@_0BA@FLAJOIPD@hessian_epsilon?$AA@
	DD	06ccH
	DD	FLAT:??_C@_0L@MMIEKJIF@equi_count?$AA@
	DD	0670H
	DD	FLAT:??_C@_0N@MDBAOLCA@delete_count?$AA@
	DD	0672H
	DD	FLAT:??_C@_0N@BGIPOCMC@refine_count?$AA@
	DD	0673H
	DD	FLAT:??_C@_0M@KEDMJLF@notch_count?$AA@
	DD	0674H
	DD	FLAT:??_C@_0P@JACOHDHP@dissolve_count?$AA@
	DD	0675H
	DD	FLAT:??_C@_09NANCMDLE@pop_count?$AA@
	DD	0676H
	DD	FLAT:??_C@_0M@FKBLKCGO@where_count?$AA@
	DD	0677H
_DATA	ENDS
PUBLIC	??_C@_0CO@NMEDNICH@Internal?5error?3?5unputted_tok?5sta@ ; `string'
PUBLIC	_unput_tok
EXTRN	_tok:DWORD
EXTRN	_kb_error:PROC
;	COMDAT ??_C@_0CO@NMEDNICH@Internal?5error?3?5unputted_tok?5sta@
; File c:\levolver\yonkang-sefit\levolver\ev_ogl\lexyy.c
CONST	SEGMENT
??_C@_0CO@NMEDNICH@Internal?5error?3?5unputted_tok?5sta@ DB 'Internal err'
	DB	'or: unputted_tok stack overflow.', 0aH, 00H	; `string'
; Function compile flags: /Ogtp
CONST	ENDS
;	COMDAT _unput_tok
_TEXT	SEGMENT
_unput_tok PROC						; COMDAT

; 762  :   if ( unput_tok_count >= UNPUTMAX )

	mov	eax, DWORD PTR _unput_tok_count
	cmp	eax, 10					; 0000000aH
	jl	SHORT $LN4@unput_tok

; 763  :     kb_error(2324,"Internal error: unputted_tok stack overflow.\n",DATAFILE_ERROR);

	push	6
	push	OFFSET ??_C@_0CO@NMEDNICH@Internal?5error?3?5unputted_tok?5sta@
	push	2324					; 00000914H
	call	_kb_error

; 764  :   unputted_tok[unput_tok_count++] = tok;

	mov	eax, DWORD PTR _unput_tok_count
	mov	ecx, DWORD PTR _tok
	add	esp, 12					; 0000000cH
	mov	DWORD PTR _unputted_tok[eax*4], ecx
	inc	eax
	mov	DWORD PTR _unput_tok_count, eax

; 765  :   /* fprintf(stderr,"UNPUT %3d %s %s\n",tok,tokname(tok),yytext); */
; 766  :   /* tok = UNPUTTED_TOK; */ /* some places depend on knowing unput lookahead */
; 767  :  
; 768  : } // end unput_tok()

	ret	0
$LN4@unput_tok:

; 764  :   unputted_tok[unput_tok_count++] = tok;

	mov	edx, DWORD PTR _tok
	mov	DWORD PTR _unputted_tok[eax*4], edx
	inc	eax
	mov	DWORD PTR _unput_tok_count, eax

; 765  :   /* fprintf(stderr,"UNPUT %3d %s %s\n",tok,tokname(tok),yytext); */
; 766  :   /* tok = UNPUTTED_TOK; */ /* some places depend on knowing unput lookahead */
; 767  :  
; 768  : } // end unput_tok()

	ret	0
_unput_tok ENDP
_TEXT	ENDS
_BSS	SEGMENT
_yy_last_accepting_cpos DD 01H DUP (?)
_yy_last_accepting_state DD 01H DUP (?)
; Function compile flags: /Ogtp
_BSS	ENDS
;	COMDAT _yy_get_previous_state
_TEXT	SEGMENT
_yy_get_previous_state PROC				; COMDAT

; 2454 : 	register yy_state_type yy_current_state;
; 2455 : 	register char *yy_cp;
; 2456 : 
; 2457 : 	yy_current_state = yy_start;
; 2458 : 	yy_current_state += YY_AT_BOL();

	mov	eax, DWORD PTR _yy_current_buffer
	mov	eax, DWORD PTR [eax+28]
	add	eax, DWORD PTR _yy_start
	push	esi

; 2459 : 
; 2460 : 	for ( yy_cp = yytext_ptr + YY_MORE_ADJ; yy_cp < yy_c_buf_p; ++yy_cp )

	mov	esi, DWORD PTR _yytext
	cmp	esi, DWORD PTR _yy_c_buf_p
	jae	$LN5@yy_get_pre
	push	ebx
	push	edi
$LL7@yy_get_pre:

; 2461 : 		{
; 2462 : 		register YY_CHAR yy_c = (*yy_cp ? yy_ec[YY_SC_TO_UI(*yy_cp)] : 1);

	mov	cl, BYTE PTR [esi]
	test	cl, cl
	je	SHORT $LN10@yy_get_pre
	movzx	ecx, cl
	mov	bl, BYTE PTR _yy_ec[ecx*4]
	jmp	SHORT $LN11@yy_get_pre
$LN10@yy_get_pre:
	mov	bl, 1
$LN11@yy_get_pre:

; 2463 : 		if ( yy_accept[yy_current_state] )

	lea	ecx, DWORD PTR [eax+eax]
	cmp	WORD PTR _yy_accept[ecx], 0
	je	SHORT $LN13@yy_get_pre

; 2464 : 			{
; 2465 : 			yy_last_accepting_state = yy_current_state;

	mov	DWORD PTR _yy_last_accepting_state, eax

; 2466 : 			yy_last_accepting_cpos = yy_cp;

	mov	DWORD PTR _yy_last_accepting_cpos, esi
$LN13@yy_get_pre:

; 2467 : 			}
; 2468 : 		while ( yy_chk[yy_base[yy_current_state] + yy_c] != yy_current_state )

	movsx	edi, WORD PTR _yy_base[ecx]
	movzx	edx, bl
	add	edi, edx
	movsx	edi, WORD PTR _yy_chk[edi*2]
	cmp	edi, eax
	je	SHORT $LN2@yy_get_pre
	npad	9
$LL3@yy_get_pre:

; 2469 : 			{
; 2470 : 			yy_current_state = (int) yy_def[yy_current_state];

	movsx	eax, WORD PTR _yy_def[ecx]

; 2471 : 			if ( yy_current_state >= 230 )

	cmp	eax, 230				; 000000e6H
	jl	SHORT $LN1@yy_get_pre

; 2472 : 				yy_c = yy_meta[(unsigned int) yy_c];

	mov	bl, BYTE PTR _yy_meta[edx*4]
$LN1@yy_get_pre:

; 2467 : 			}
; 2468 : 		while ( yy_chk[yy_base[yy_current_state] + yy_c] != yy_current_state )

	lea	ecx, DWORD PTR [eax+eax]
	movsx	edi, WORD PTR _yy_base[ecx]
	movzx	edx, bl
	add	edi, edx
	movsx	edi, WORD PTR _yy_chk[edi*2]
	cmp	edi, eax
	jne	SHORT $LL3@yy_get_pre
$LN2@yy_get_pre:

; 2473 : 			}
; 2474 : 		yy_current_state = yy_nxt[yy_base[yy_current_state] + (unsigned int) yy_c];

	movsx	edx, WORD PTR _yy_base[eax*2]
	movzx	eax, bl
	add	edx, eax
	movsx	eax, WORD PTR _yy_nxt[edx*2]
	inc	esi
	cmp	esi, DWORD PTR _yy_c_buf_p
	jb	$LL7@yy_get_pre
	pop	edi
	pop	ebx
$LN5@yy_get_pre:
	pop	esi

; 2475 : 		}
; 2476 : 
; 2477 : 	return yy_current_state;
; 2478 : 	}

	ret	0
_yy_get_previous_state ENDP
; Function compile flags: /Ogtp
_TEXT	ENDS
;	COMDAT _yy_try_NUL_trans
_TEXT	SEGMENT
_yy_try_NUL_trans PROC					; COMDAT
; _yy_current_state$ = eax

; 2494 : 	register int yy_is_jam;
; 2495 : 	register char *yy_cp = yy_c_buf_p;
; 2496 : 
; 2497 : 	register YY_CHAR yy_c = 1;
; 2498 : 	if ( yy_accept[yy_current_state] )

	lea	ecx, DWORD PTR [eax+eax]
	cmp	WORD PTR _yy_accept[ecx], 0
	push	esi
	mov	dl, 1
	je	SHORT $LN7@yy_try_NUL

; 2499 : 		{
; 2500 : 		yy_last_accepting_state = yy_current_state;
; 2501 : 		yy_last_accepting_cpos = yy_cp;

	mov	esi, DWORD PTR _yy_c_buf_p
	mov	DWORD PTR _yy_last_accepting_state, eax
	mov	DWORD PTR _yy_last_accepting_cpos, esi
$LN7@yy_try_NUL:

; 2502 : 		}
; 2503 : 	while ( yy_chk[yy_base[yy_current_state] + yy_c] != yy_current_state )

	movsx	esi, WORD PTR _yy_base[ecx]
	movsx	esi, WORD PTR _yy_chk[esi*2+2]
	cmp	esi, eax
	je	SHORT $LN2@yy_try_NUL
	push	edi
	npad	11
$LL3@yy_try_NUL:

; 2504 : 		{
; 2505 : 		yy_current_state = (int) yy_def[yy_current_state];

	movsx	eax, WORD PTR _yy_def[ecx]

; 2506 : 		if ( yy_current_state >= 230 )

	cmp	eax, 230				; 000000e6H
	jl	SHORT $LN1@yy_try_NUL

; 2507 : 			yy_c = yy_meta[(unsigned int) yy_c];

	movzx	ecx, dl
	mov	dl, BYTE PTR _yy_meta[ecx*4]
$LN1@yy_try_NUL:

; 2502 : 		}
; 2503 : 	while ( yy_chk[yy_base[yy_current_state] + yy_c] != yy_current_state )

	lea	ecx, DWORD PTR [eax+eax]
	movsx	esi, WORD PTR _yy_base[ecx]
	movzx	edi, dl
	add	esi, edi
	movsx	esi, WORD PTR _yy_chk[esi*2]
	cmp	esi, eax
	jne	SHORT $LL3@yy_try_NUL
	pop	edi
$LN2@yy_try_NUL:

; 2508 : 		}
; 2509 : 	yy_current_state = yy_nxt[yy_base[yy_current_state] + (unsigned int) yy_c];

	movsx	eax, WORD PTR _yy_base[eax*2]
	movzx	ecx, dl
	add	eax, ecx
	movsx	ecx, WORD PTR _yy_nxt[eax*2]

; 2510 : 	yy_is_jam = (yy_current_state == 229);

	lea	eax, DWORD PTR [ecx-229]

; 2511 : 
; 2512 : 	return yy_is_jam ? 0 : yy_current_state;

	neg	eax
	sbb	eax, eax
	and	eax, ecx
	pop	esi

; 2513 : 	}

	ret	0
_yy_try_NUL_trans ENDP
_TEXT	ENDS
PUBLIC	_yy_load_buffer_state
_BSS	SEGMENT
_yy_hold_char DB 01H DUP (?)
	ALIGN	4

_yy_n_chars DD	01H DUP (?)
; Function compile flags: /Ogtp
_BSS	ENDS
;	COMDAT _yy_load_buffer_state
_TEXT	SEGMENT
_yy_load_buffer_state PROC				; COMDAT

; 2681 : 	yy_n_chars = yy_current_buffer->yy_n_chars;

	mov	eax, DWORD PTR _yy_current_buffer
	mov	ecx, DWORD PTR [eax+16]
	mov	DWORD PTR _yy_n_chars, ecx

; 2682 : 	yytext_ptr = yy_c_buf_p = yy_current_buffer->yy_buf_pos;

	mov	ecx, DWORD PTR [eax+8]
	mov	DWORD PTR _yytext, ecx

; 2683 : 	yyin = yy_current_buffer->yy_input_file;

	mov	edx, DWORD PTR [eax]
	mov	DWORD PTR _yyin, edx

; 2684 : 	yy_hold_char = *yy_c_buf_p;

	mov	al, BYTE PTR [ecx]
	mov	DWORD PTR _yy_c_buf_p, ecx
	mov	BYTE PTR _yy_hold_char, al

; 2685 : 	}

	ret	0
_yy_load_buffer_state ENDP
_TEXT	ENDS
PUBLIC	_yy_flush_buffer
; Function compile flags: /Ogtp
;	COMDAT _yy_flush_buffer
_TEXT	SEGMENT
_b$ = 8							; size = 4
_yy_flush_buffer PROC					; COMDAT

; 2779 : 	{

	push	ebp
	mov	ebp, esp

; 2780 : 	b->yy_n_chars = 0;

	mov	eax, DWORD PTR _b$[ebp]

; 2781 : 
; 2782 : 	/* We always need two end-of-buffer characters.  The first causes
; 2783 : 	 * a transition to the end-of-buffer state.  The second causes
; 2784 : 	 * a jam in that state.
; 2785 : 	 */
; 2786 : 	b->yy_ch_buf[0] = YY_END_OF_BUFFER_CHAR;

	mov	edx, DWORD PTR [eax+4]
	xor	ecx, ecx
	mov	DWORD PTR [eax+16], ecx
	mov	BYTE PTR [edx], cl

; 2787 : 	b->yy_ch_buf[1] = YY_END_OF_BUFFER_CHAR;

	mov	edx, DWORD PTR [eax+4]
	mov	BYTE PTR [edx+1], cl

; 2788 : 
; 2789 : 	b->yy_buf_pos = &b->yy_ch_buf[0];

	mov	edx, DWORD PTR [eax+4]
	mov	DWORD PTR [eax+8], edx

; 2790 : 
; 2791 : 	b->yy_at_bol = 1;

	mov	DWORD PTR [eax+28], 1

; 2792 : 	b->yy_buffer_status = YY_BUFFER_NEW;

	mov	DWORD PTR [eax+36], ecx

; 2793 : 
; 2794 : 	if ( b == yy_current_buffer )

	cmp	eax, DWORD PTR _yy_current_buffer
	jne	SHORT $LN1@yy_flush_b

; 2796 : 	}

	pop	ebp

; 2795 : 		yy_load_buffer_state();

	jmp	_yy_load_buffer_state
$LN1@yy_flush_b:

; 2796 : 	}

	pop	ebp
	ret	0
_yy_flush_buffer ENDP
_TEXT	ENDS
PUBLIC	??_C@_03OFAPEBGM@?$CFs?6?$AA@			; `string'
EXTRN	_exit:PROC
EXTRN	_fprintf:PROC
EXTRN	___iob_func:PROC
;	COMDAT ??_C@_03OFAPEBGM@?$CFs?6?$AA@
CONST	SEGMENT
??_C@_03OFAPEBGM@?$CFs?6?$AA@ DB '%s', 0aH, 00H		; `string'
; Function compile flags: /Ogtp
CONST	ENDS
;	COMDAT _yy_fatal_error
_TEXT	SEGMENT
_yy_fatal_error PROC					; COMDAT
; _msg$ = eax

; 2956 : 	(void) fprintf( stderr, "%s\n", msg );

	push	eax
	push	OFFSET ??_C@_03OFAPEBGM@?$CFs?6?$AA@
	call	___iob_func
	add	eax, 64					; 00000040H
	push	eax
	call	_fprintf
	add	esp, 12					; 0000000cH

; 2957 : 	exit( YY_EXIT_FAILURE );

	push	2
	call	_exit
$LN4@yy_fatal_e:
$LN3@yy_fatal_e:
	int	3
_yy_fatal_error ENDP
_TEXT	ENDS
EXTRN	_malloc:PROC
; Function compile flags: /Ogtp
;	COMDAT _yy_flex_alloc
_TEXT	SEGMENT
_yy_flex_alloc PROC					; COMDAT
; _size$ = eax

; 3020 : 	return (void *) malloc( size );

	push	eax
	call	_malloc
	add	esp, 4

; 3021 : 	}

	ret	0
_yy_flex_alloc ENDP
_TEXT	ENDS
EXTRN	_realloc:PROC
; Function compile flags: /Ogtp
;	COMDAT _yy_flex_realloc
_TEXT	SEGMENT
_yy_flex_realloc PROC					; COMDAT
; _ptr$ = ecx
; _size$ = eax

; 3031 : 	/* The cast to (char *) in the following accommodates both
; 3032 : 	 * implementations that use char* generic pointers, and those
; 3033 : 	 * that use void* generic pointers.  It works with the latter
; 3034 : 	 * because both ANSI C and C++ allow castless assignment from
; 3035 : 	 * any pointer type to void*, and deal with argument conversions
; 3036 : 	 * as though doing an assignment.
; 3037 : 	 */
; 3038 : 	return (void *) realloc( (char *) ptr, size );

	push	eax
	push	ecx
	call	_realloc
	add	esp, 8

; 3039 : 	}

	ret	0
_yy_flex_realloc ENDP
_TEXT	ENDS
EXTRN	_free:PROC
; Function compile flags: /Ogtp
;	COMDAT _yy_flex_free
_TEXT	SEGMENT
_yy_flex_free PROC					; COMDAT
; _ptr$ = eax

; 3048 : 	free( ptr );

	push	eax
	call	_free
	pop	ecx

; 3049 : 	}

	ret	0
_yy_flex_free ENDP
_TEXT	ENDS
PUBLIC	??_C@_07HIIALNMO@LEXYY?4C?$AA@			; `string'
PUBLIC	_savein
EXTRN	_list_realloc:PROC
;	COMDAT ??_C@_07HIIALNMO@LEXYY?4C?$AA@
CONST	SEGMENT
??_C@_07HIIALNMO@LEXYY?4C?$AA@ DB 'LEXYY.C', 00H	; `string'
; Function compile flags: /Ogtp
CONST	ENDS
;	COMDAT _savein
_TEXT	SEGMENT
_c$ = 8							; size = 4
_savein	PROC						; COMDAT

; 3072 : { if ( !inputsave_flag ) return;

	push	ebp
	mov	ebp, esp
	cmp	DWORD PTR _inputsave_flag, 0
	je	SHORT $LN3@savein

; 3073 :   if ( inputbufferspot >= inputbuffersize )

	mov	eax, DWORD PTR _inputbuffersize
	cmp	DWORD PTR _inputbufferspot, eax
	jl	SHORT $LN7@savein

; 3074 :   { int newsize = inputbuffersize?2*inputbuffersize:1000;

	push	esi
	lea	esi, DWORD PTR [eax+eax]
	test	eax, eax
	jne	SHORT $LN6@savein
	mov	esi, 1000				; 000003e8H
$LN6@savein:

; 3075 :     inputbuffer = my_list_realloc(inputbuffer,newsize,ETERNAL_BLOCK);

	mov	eax, DWORD PTR _inputbuffer
	push	3075					; 00000c03H
	push	OFFSET ??_C@_07HIIALNMO@LEXYY?4C?$AA@
	push	60138					; 0000eaeaH
	push	esi
	push	eax
	call	_list_realloc
	add	esp, 20					; 00000014H

; 3076 :     inputbuffersize = newsize;

	mov	DWORD PTR _inputbuffersize, esi
	mov	DWORD PTR _inputbuffer, eax
	pop	esi
$LN7@savein:

; 3077 :   }
; 3078 :   inputbuffer[inputbufferspot++] = (char)c;

	mov	eax, DWORD PTR _inputbufferspot
	mov	cl, BYTE PTR _c$[ebp]
	mov	edx, DWORD PTR _inputbuffer
	mov	BYTE PTR [edx+eax], cl
	inc	DWORD PTR _inputbufferspot
$LN3@savein:

; 3079 : } // end savein()

	pop	ebp
	ret	0
_savein	ENDP
_TEXT	ENDS
PUBLIC	_reset_inputbuffer
; Function compile flags: /Ogtp
;	COMDAT _reset_inputbuffer
_TEXT	SEGMENT
_reset_inputbuffer PROC					; COMDAT

; 3086 : { inputbufferspot = 0;

	mov	DWORD PTR _inputbufferspot, 0

; 3087 :   inputsave_flag = 1;

	mov	DWORD PTR _inputsave_flag, 1

; 3088 : }

	ret	0
_reset_inputbuffer ENDP
_TEXT	ENDS
PUBLIC	_rawinput
EXTRN	_in_comment:DWORD
EXTRN	_in_quote:DWORD
EXTRN	_datafile_flag:DWORD
EXTRN	_pop_commandfd:PROC
EXTRN	_getc:PROC
EXTRN	_commandfd:DWORD
EXTRN	_getstring:PROC
EXTRN	_cmdptr:DWORD
_BSS	SEGMENT
_errbuff DB	054H DUP (?)
_errspot DD	01H DUP (?)
; Function compile flags: /Ogtp
_BSS	ENDS
;	COMDAT _rawinput
_TEXT	SEGMENT
_rawinput PROC						; COMDAT

; 3098 : {

	mov	ecx, DWORD PTR _cmdptr
	push	ebx
	push	esi
	xor	ebx, ebx
	push	edi
	mov	esi, OFFSET _morebuff
	lea	edi, DWORD PTR [ebx+13]
$LL19@rawinput:

; 3099 :   int c=0,retval;
; 3100 : 
; 3101 :   if ( cmdptr ) /* read from string */

	cmp	ecx, ebx
	je	SHORT $LL8@rawinput

; 3102 :    {
; 3103 :      if ( *cmdptr == 0 )  /* newline at end of each line */

	mov	al, BYTE PTR [ecx]
	cmp	al, bl
	je	$LN27@rawinput

; 3108 :        }
; 3109 :        else retval = 0;
; 3110 :        goto rawreturn; 
; 3111 :      }
; 3112 :      c = *(cmdptr++);

	movsx	eax, al
	inc	ecx
	mov	DWORD PTR _cmdptr, ecx

; 3113 :      if ( c == MOREIN ) /* for really long input lines */

	cmp	eax, 1
	jne	SHORT $LN25@rawinput

; 3114 :      { 
; 3115 : #ifdef USE_READLINE  //CSL
; 3116 :        prompt(CONTPROMPT,morebuff,MOREMAX);
; 3117 : #else
; 3118 :        getstring(morebuff,MOREMAX);

	push	1000					; 000003e8H
	push	esi
	call	_getstring

; 3119 : #endif
; 3120 :        cmdptr = morebuff;
; 3121 :        if ( !*cmdptr ) 

	mov	al, BYTE PTR _morebuff
	add	esp, 8
	mov	DWORD PTR _cmdptr, esi
	cmp	al, bl
	je	$LN28@rawinput

; 3126 :        }
; 3127 :        c = *(cmdptr++);

	mov	ecx, OFFSET _morebuff+1
	movsx	eax, al
	mov	DWORD PTR _cmdptr, ecx

; 3128 :      }
; 3129 :    }
; 3130 :   else /* read from file */

	jmp	SHORT $LN25@rawinput
$LL8@rawinput:

; 3131 :    { for(;;)
; 3132 :      {
; 3133 :        if ( commandfd == NULL )  /* in case read after close */

	mov	eax, DWORD PTR _commandfd
	cmp	eax, ebx
	je	SHORT $LN26@rawinput

; 3134 :        { retval = previous_char = 0; goto rawreturn; }
; 3135 :        c = getc(commandfd);

	push	eax
	call	_getc
	add	esp, 4

; 3136 :        if ( c != -1 ) break;

	cmp	eax, -1
	jne	SHORT $LN31@rawinput

; 3137 :        pop_commandfd();  /* EOF, so pop #include stack */

	call	_pop_commandfd

; 3138 :        if ( !datafile_flag ) /* EOF for a command file */

	cmp	DWORD PTR _datafile_flag, ebx
	jne	SHORT $LL8@rawinput
$LN26@rawinput:

; 3139 :        { retval =  previous_char = 0; goto rawreturn; }

	mov	DWORD PTR _previous_char, ebx
$LN14@rawinput:
	xor	eax, eax
$rawreturn$90596:
	pop	edi
	pop	esi
	pop	ebx

; 3163 : } // end rawinput()

	ret	0
$LN31@rawinput:

; 3140 :      }

	mov	ecx, DWORD PTR _cmdptr
$LN25@rawinput:

; 3141 :    }
; 3142 : 
; 3143 :   /* taking care of various line-ending combinations */
; 3144 :   if ( (c == '\n') && (previous_char == '\r') ) 

	cmp	eax, 10					; 0000000aH
	jne	SHORT $LN3@rawinput
	cmp	DWORD PTR _previous_char, edi
	je	$LL19@rawinput
$LN3@rawinput:

; 3145 :     return  rawinput();
; 3146 :   previous_char = c;

	mov	DWORD PTR _previous_char, eax

; 3147 :   if ( c == '\r' ) 

	cmp	eax, edi
	jne	SHORT $LN2@rawinput

; 3148 :      c = '\n';

	mov	eax, 10					; 0000000aH
$LN2@rawinput:

; 3149 : 
; 3150 :   errbuff[errspot++] = (char)c;

	mov	ecx, DWORD PTR _errspot
	mov	BYTE PTR _errbuff[ecx], al
	inc	ecx
	mov	DWORD PTR _errspot, ecx

; 3151 :   retval = c;

	mov	ebx, eax

; 3152 : 
; 3153 :   savein(retval);

	push	eax
$LN33@rawinput:
	call	_savein
	add	esp, 4

; 3154 : 
; 3155 : rawexit:
; 3156 :   if ( errspot >= ERRBUFFSIZE ) /* need partial reset */

	cmp	DWORD PTR _errspot, 80			; 00000050H
$rawexit$90600:

; 3159 :     }
; 3160 : 
; 3161 : rawreturn:
; 3162 :   return  retval;

	mov	eax, ebx
	jl	SHORT $rawreturn$90596

; 3157 :     { memcpy(errbuff,errbuff+ERRBUFFSIZE/2,ERRBUFFSIZE/2);

	mov	ecx, 10					; 0000000aH
	mov	esi, OFFSET _errbuff+40
	mov	edi, OFFSET _errbuff
	rep movsd
	pop	edi
	pop	esi

; 3158 :       errspot = ERRBUFFSIZE/2;

	mov	DWORD PTR _errspot, 40			; 00000028H
	pop	ebx

; 3163 : } // end rawinput()

	ret	0
$LN27@rawinput:

; 3104 :      { if ( previous_char != '\n' )

	mov	esi, 10					; 0000000aH
	cmp	DWORD PTR _previous_char, esi
	je	SHORT $LN14@rawinput

; 3105 :        { retval = previous_char = '\n';
; 3106 :          errbuff[errspot++] = retval; 

	mov	eax, DWORD PTR _errspot
	mov	BYTE PTR _errbuff[eax], 10		; 0000000aH
	inc	eax

; 3107 :          savein(retval);

	push	esi
	mov	DWORD PTR _previous_char, esi
	mov	DWORD PTR _errspot, eax
	call	_savein
	add	esp, 4
	pop	edi

; 3159 :     }
; 3160 : 
; 3161 : rawreturn:
; 3162 :   return  retval;

	mov	eax, esi
	pop	esi
	pop	ebx

; 3163 : } // end rawinput()

	ret	0
$LN28@rawinput:

; 3122 :        { if (!in_quote && !in_comment) errbuff[errspot++] = '\n';  

	cmp	DWORD PTR _in_quote, ebx
	jne	SHORT $LN10@rawinput
	cmp	DWORD PTR _in_comment, ebx
	jne	SHORT $LN10@rawinput
	mov	eax, DWORD PTR _errspot
	mov	BYTE PTR _errbuff[eax], 10		; 0000000aH
	inc	eax
	mov	DWORD PTR _errspot, eax
$LN10@rawinput:

; 3123 :          retval = '\n'; 

	mov	ebx, 10					; 0000000aH

; 3124 :          savein(retval);

	push	ebx

; 3125 :          goto rawexit; 

	jmp	$LN33@rawinput
_rawinput ENDP
_TEXT	ENDS
PUBLIC	??_C@_06EFMLOIIN@more?$DO?5?$AA@		; `string'
PUBLIC	_get_more_input
EXTRN	_catfulltext:PROC
EXTRN	_outstring:PROC
EXTRN	_quiet_load_flag:DWORD
EXTRN	_topflag:DWORD
;	COMDAT ??_C@_06EFMLOIIN@more?$DO?5?$AA@
CONST	SEGMENT
??_C@_06EFMLOIIN@more?$DO?5?$AA@ DB 'more> ', 00H	; `string'
; Function compile flags: /Ogtp
CONST	ENDS
;	COMDAT _get_more_input
_TEXT	SEGMENT
_get_more_input PROC					; COMDAT

; 3172 :  #ifdef USE_READLINE //CSL
; 3173 :   prompt(MOREPROMPT,morebuff,MOREMAX);
; 3174 :  #else
; 3175 :   if ( !topflag && (!quiet_load_flag || (commandfd == stdin)) ) 

	cmp	DWORD PTR _topflag, 0
	jne	SHORT $LN3@get_more_i
	cmp	DWORD PTR _quiet_load_flag, 0
	je	SHORT $LN2@get_more_i
	call	___iob_func
	cmp	DWORD PTR _commandfd, eax
	jne	SHORT $LN3@get_more_i
$LN2@get_more_i:

; 3176 :      outstring("more> ");

	push	OFFSET ??_C@_06EFMLOIIN@more?$DO?5?$AA@
	call	_outstring
	add	esp, 4
$LN3@get_more_i:

; 3177 :   getstring(morebuff,MOREMAX);

	push	1000					; 000003e8H
	push	OFFSET _morebuff
	call	_getstring

; 3178 :  #endif
; 3179 :   n = (int)strlen(morebuff); 

	mov	eax, OFFSET _morebuff
	add	esp, 8
	lea	edx, DWORD PTR [eax+1]
$LL6@get_more_i:
	mov	cl, BYTE PTR [eax]
	inc	eax
	test	cl, cl
	jne	SHORT $LL6@get_more_i
	sub	eax, edx

; 3180 :   if ( (morebuff[n-1] != MOREIN) && (morebuff[n-1] != '\n') )

	mov	cl, BYTE PTR _morebuff[eax-1]
	cmp	cl, 1
	je	SHORT $LN1@get_more_i
	cmp	cl, 10					; 0000000aH
	je	SHORT $LN1@get_more_i

; 3181 :   morebuff[n] = '\n'; morebuff[n+1] = 0;

	mov	BYTE PTR _morebuff[eax], 10		; 0000000aH
$LN1@get_more_i:

; 3182 :   catfulltext(morebuff);

	push	OFFSET _morebuff
	mov	BYTE PTR _morebuff[eax+1], 0
	call	_catfulltext
	add	esp, 4

; 3183 :   cmdptr = morebuff;

	mov	DWORD PTR _cmdptr, OFFSET _morebuff

; 3184 : }

	ret	0
_get_more_input ENDP
_TEXT	ENDS
PUBLIC	_rawunput
; Function compile flags: /Ogtp
;	COMDAT _rawunput
_TEXT	SEGMENT
_c$ = 8							; size = 4
_rawunput PROC						; COMDAT

; 3231 : {

	push	ebp
	mov	ebp, esp

; 3232 :   if ( spot >= BUFFSIZE - 1 ) 

	mov	eax, DWORD PTR _BUFFSIZE
	mov	ecx, DWORD PTR _spot
	lea	edx, DWORD PTR [eax-1]
	cmp	ecx, edx
	jl	SHORT $LN4@rawunput

; 3233 :   { buff = my_list_realloc(buff,BUFFSIZE+500,ETERNAL_BLOCK);

	push	3233					; 00000ca1H
	push	OFFSET ??_C@_07HIIALNMO@LEXYY?4C?$AA@
	add	eax, 500				; 000001f4H
	push	60138					; 0000eaeaH
	push	eax
	mov	eax, DWORD PTR _buff
	push	eax
	call	_list_realloc

; 3234 :     BUFFSIZE += 500;
; 3235 :   }
; 3236 : 
; 3237 :   buff[spot++] = (char)c;

	mov	ecx, DWORD PTR _spot
	mov	dl, BYTE PTR _c$[ebp]
	add	DWORD PTR _BUFFSIZE, 500		; 000001f4H
	add	esp, 20					; 00000014H
	mov	BYTE PTR [eax+ecx], dl
	inc	ecx
	mov	DWORD PTR _buff, eax
	mov	DWORD PTR _spot, ecx

; 3238 : } // end rawunput()

	pop	ebp
	ret	0
$LN4@rawunput:

; 3234 :     BUFFSIZE += 500;
; 3235 :   }
; 3236 : 
; 3237 :   buff[spot++] = (char)c;

	mov	al, BYTE PTR _c$[ebp]
	mov	edx, DWORD PTR _buff
	mov	BYTE PTR [edx+ecx], al
	inc	ecx
	mov	DWORD PTR _spot, ecx

; 3238 : } // end rawunput()

	pop	ebp
	ret	0
_rawunput ENDP
_TEXT	ENDS
PUBLIC	??_C@_01EEMJAFIK@?6?$AA@			; `string'
PUBLIC	??_C@_0BH@FPMNJDAM@?5?5Input?5line?5so?5far?3?5?6?$AA@ ; `string'
PUBLIC	_dump_buff
EXTRN	_strncat:PROC
;	COMDAT ??_C@_01EEMJAFIK@?6?$AA@
CONST	SEGMENT
??_C@_01EEMJAFIK@?6?$AA@ DB 0aH, 00H			; `string'
CONST	ENDS
;	COMDAT ??_C@_0BH@FPMNJDAM@?5?5Input?5line?5so?5far?3?5?6?$AA@
CONST	SEGMENT
??_C@_0BH@FPMNJDAM@?5?5Input?5line?5so?5far?3?5?6?$AA@ DB '  Input line s'
	DB	'o far: ', 0aH, 00H				; `string'
; Function compile flags: /Ogtp
CONST	ENDS
;	COMDAT _dump_buff
_TEXT	SEGMENT
_str$ = 8						; size = 4
_size$ = 12						; size = 4
_dump_buff PROC						; COMDAT

; 3258 : { int place;

	push	ebp
	mov	ebp, esp
	push	ebx

; 3259 :   strcpy(str,"  Input line so far: \n");

	mov	ebx, DWORD PTR _str$[ebp]
	push	esi
	push	edi
	mov	ecx, 5
	mov	esi, OFFSET ??_C@_0BH@FPMNJDAM@?5?5Input?5line?5so?5far?3?5?6?$AA@
	mov	edi, ebx
	rep movsd
	movsw

; 3260 :   size -= (int)strlen(str)+3;

	mov	eax, ebx
	movsb
	lea	edx, DWORD PTR [eax+1]
	npad	1
$LL12@dump_buff:
	mov	cl, BYTE PTR [eax]
	inc	eax
	test	cl, cl
	jne	SHORT $LL12@dump_buff
	mov	esi, DWORD PTR _size$[ebp]
	sub	eax, edx
	mov	ecx, -3					; fffffffdH
	sub	ecx, eax
	add	esi, ecx

; 3261 :   errbuff[errspot] = 0;

	mov	ecx, DWORD PTR _errspot

; 3262 :   for ( place = errspot-1 ; place >= 0 ; place-- )

	lea	eax, DWORD PTR [ecx-1]
	mov	BYTE PTR _errbuff[ecx], 0
	test	eax, eax
	js	SHORT $LN10@dump_buff
	mov	dl, 32					; 00000020H
	npad	5
$LL6@dump_buff:

; 3263 :   { if (errbuff[place]==0 ) errbuff[place] = ' '; /* nulls creep in */ 

	cmp	BYTE PTR _errbuff[eax], 0
	jne	SHORT $LN3@dump_buff
	mov	BYTE PTR _errbuff[eax], dl
$LN3@dump_buff:

; 3264 :     if (errbuff[place]=='\n' && place < errspot-2) break;

	cmp	BYTE PTR _errbuff[eax], 10		; 0000000aH
	jne	SHORT $LN5@dump_buff
	lea	edi, DWORD PTR [ecx-2]
	cmp	eax, edi
	jl	SHORT $LN10@dump_buff
$LN5@dump_buff:

; 3262 :   for ( place = errspot-1 ; place >= 0 ; place-- )

	dec	eax
	jns	SHORT $LL6@dump_buff
$LN10@dump_buff:

; 3265 :   } 
; 3266 :   strncat(str,errbuff+place+1,size);

	push	esi
	lea	edx, DWORD PTR _errbuff[eax+1]
	push	edx
	push	ebx
	call	_strncat

; 3267 :   if ( str[strlen(str)-1] != '\n' ) strcat(str,"\n");

	mov	eax, ebx
	add	esp, 12					; 0000000cH
	lea	edx, DWORD PTR [eax+1]
$LL13@dump_buff:
	mov	cl, BYTE PTR [eax]
	inc	eax
	test	cl, cl
	jne	SHORT $LL13@dump_buff
	sub	eax, edx
	cmp	BYTE PTR [eax+ebx-1], 10		; 0000000aH
	je	SHORT $LN1@dump_buff
	lea	edi, DWORD PTR [ebx-1]
	npad	5
$LL14@dump_buff:
	mov	al, BYTE PTR [edi+1]
	inc	edi
	test	al, al
	jne	SHORT $LL14@dump_buff
	mov	ax, WORD PTR ??_C@_01EEMJAFIK@?6?$AA@
	mov	WORD PTR [edi], ax
$LN1@dump_buff:
	pop	edi
	pop	esi
	pop	ebx

; 3268 : } // end dump_buff()

	pop	ebp
	ret	0
_dump_buff ENDP
_TEXT	ENDS
PUBLIC	_yywrap
EXTRN	_read_wrap_flag:DWORD
EXTRN	_help_flag:DWORD
EXTRN	_in_control_structure:DWORD
EXTRN	_in_function:DWORD
EXTRN	_brace_depth:DWORD
EXTRN	_parens:DWORD
; Function compile flags: /Ogtp
;	COMDAT _yywrap
_TEXT	SEGMENT
_yywrap	PROC						; COMDAT

; 3276 :   spot = 0; /* clean buffer */
; 3277 :   if ( (parens > 0) || (brace_depth > 0) || in_quote || in_comment 
; 3278 :          || in_function || in_control_structure /* || loopdepth */ )

	cmp	DWORD PTR _parens, 0
	mov	DWORD PTR _spot, 0
	jg	$LN9@yywrap
	cmp	DWORD PTR _brace_depth, 0
	jg	$LN9@yywrap
	cmp	DWORD PTR _in_quote, 0
	jne	$LN9@yywrap
	cmp	DWORD PTR _in_comment, 0
	jne	$LN9@yywrap
	cmp	DWORD PTR _in_function, 0
	jne	$LN9@yywrap
	cmp	DWORD PTR _in_control_structure, 0
	jne	SHORT $LN9@yywrap

; 3280 :   if ( !help_flag )

	cmp	DWORD PTR _help_flag, 0
	jne	SHORT $LN1@yywrap

; 3281 :     switch ( tok )

	mov	eax, DWORD PTR _tok
	cmp	eax, 316				; 0000013cH
	jg	SHORT $LN13@yywrap
	je	SHORT $LN9@yywrap
	sub	eax, 37					; 00000025H
	cmp	eax, 250				; 000000faH
	ja	SHORT $LN1@yywrap
	movzx	eax, BYTE PTR $LN15@yywrap[eax]
	jmp	DWORD PTR $LN18@yywrap[eax*4]
$LN5@yywrap:

; 3282 :     { case '+': case '-': case '*': /* might be wrap symbols */
; 3283 :         if ( read_wrap_flag ) return 1;

	cmp	DWORD PTR _read_wrap_flag, 0
	je	SHORT $LN9@yywrap
$LN1@yywrap:

; 3284 :         else { get_more_input(); return 0 ; }
; 3285 :         break;
; 3286 :       case UMINUS_TOK: case ',':
; 3287 :       case '=': case '?': case ':': case OR_TOK: case AND_TOK: case NOT_TOK:
; 3288 :       case EQ_TOK: case '>': case '<': case LE_TOK: case GE_TOK: case NE_TOK:
; 3289 :       case '/': case '%': case '^': case ON_CONSTRAINT_TOK: case VALUE_OF_CONSTRAINT_TOK:
; 3290 :       case HIT_CONSTRAINT_TOK: case ON_BOUNDARY_TOK: case DO_TOK: case FOR_TOK:
; 3291 :       case WHILE_TOK: case IF_TOK: case ELSE_TOK: case THEN_TOK: case SET_TOK:
; 3292 :       case DEFINE_TOK: case WHERE_TOK: case ASSIGN_TOK: case PERM_ASSIGN_TOK:
; 3293 :       case REDEFINE_TOK: case FUNCTION_TOK: case PROCEDURE_WORD_TOK:
; 3294 :       get_more_input(); return 0;
; 3295 :       break;
; 3296 :       default: return 1;

	mov	eax, 1

; 3297 :         }
; 3298 :   return 1;  /* done */
; 3299 : } // end yywrap()

	ret	0
$LN13@yywrap:

; 3281 :     switch ( tok )

	cmp	eax, 454				; 000001c6H
	jg	SHORT $LN14@yywrap
	cmp	eax, 452				; 000001c4H
	jge	SHORT $LN9@yywrap
	sub	eax, 323				; 00000143H
	cmp	eax, 118				; 00000076H
	ja	SHORT $LN1@yywrap
	movzx	ecx, BYTE PTR $LN16@yywrap[eax]
	jmp	DWORD PTR $LN19@yywrap[ecx*4]
$LN14@yywrap:
	sub	eax, 459				; 000001cbH
	cmp	eax, 124				; 0000007cH
	ja	SHORT $LN1@yywrap
	movzx	edx, BYTE PTR $LN17@yywrap[eax]
	jmp	DWORD PTR $LN20@yywrap[edx*4]
$LN9@yywrap:

; 3279 :     { get_more_input(); return 0; }

	call	_get_more_input
	xor	eax, eax

; 3297 :         }
; 3298 :   return 1;  /* done */
; 3299 : } // end yywrap()

	ret	0
$LN18@yywrap:
	DD	$LN9@yywrap
	DD	$LN5@yywrap
	DD	$LN1@yywrap
$LN15@yywrap:
	DB	0
	DB	2
	DB	2
	DB	2
	DB	2
	DB	1
	DB	1
	DB	0
	DB	1
	DB	2
	DB	0
	DB	2
	DB	2
	DB	2
	DB	2
	DB	2
	DB	2
	DB	2
	DB	2
	DB	2
	DB	2
	DB	0
	DB	2
	DB	0
	DB	0
	DB	0
	DB	0
	DB	2
	DB	2
	DB	2
	DB	2
	DB	2
	DB	2
	DB	2
	DB	2
	DB	2
	DB	2
	DB	2
	DB	2
	DB	2
	DB	2
	DB	2
	DB	2
	DB	2
	DB	2
	DB	2
	DB	2
	DB	2
	DB	2
	DB	2
	DB	2
	DB	2
	DB	2
	DB	2
	DB	2
	DB	2
	DB	2
	DB	0
	DB	2
	DB	2
	DB	2
	DB	2
	DB	2
	DB	2
	DB	2
	DB	2
	DB	2
	DB	2
	DB	2
	DB	2
	DB	2
	DB	2
	DB	2
	DB	2
	DB	2
	DB	2
	DB	2
	DB	2
	DB	2
	DB	2
	DB	2
	DB	2
	DB	2
	DB	2
	DB	2
	DB	2
	DB	2
	DB	2
	DB	2
	DB	2
	DB	2
	DB	2
	DB	2
	DB	2
	DB	2
	DB	2
	DB	2
	DB	2
	DB	2
	DB	2
	DB	2
	DB	2
	DB	2
	DB	2
	DB	2
	DB	2
	DB	2
	DB	2
	DB	2
	DB	2
	DB	2
	DB	2
	DB	2
	DB	2
	DB	2
	DB	2
	DB	2
	DB	2
	DB	2
	DB	2
	DB	2
	DB	2
	DB	2
	DB	2
	DB	2
	DB	2
	DB	2
	DB	2
	DB	2
	DB	2
	DB	2
	DB	2
	DB	2
	DB	2
	DB	2
	DB	2
	DB	2
	DB	2
	DB	2
	DB	2
	DB	2
	DB	2
	DB	2
	DB	2
	DB	2
	DB	2
	DB	2
	DB	2
	DB	2
	DB	2
	DB	2
	DB	2
	DB	2
	DB	2
	DB	2
	DB	2
	DB	2
	DB	2
	DB	2
	DB	2
	DB	2
	DB	2
	DB	2
	DB	2
	DB	2
	DB	2
	DB	2
	DB	2
	DB	2
	DB	2
	DB	2
	DB	2
	DB	2
	DB	2
	DB	2
	DB	2
	DB	2
	DB	2
	DB	2
	DB	2
	DB	2
	DB	2
	DB	2
	DB	2
	DB	2
	DB	2
	DB	2
	DB	2
	DB	2
	DB	2
	DB	2
	DB	2
	DB	2
	DB	2
	DB	2
	DB	2
	DB	2
	DB	2
	DB	2
	DB	2
	DB	2
	DB	2
	DB	2
	DB	2
	DB	2
	DB	2
	DB	2
	DB	2
	DB	2
	DB	2
	DB	2
	DB	2
	DB	2
	DB	2
	DB	2
	DB	2
	DB	2
	DB	2
	DB	2
	DB	2
	DB	2
	DB	2
	DB	2
	DB	2
	DB	2
	DB	2
	DB	2
	DB	2
	DB	2
	DB	2
	DB	2
	DB	2
	DB	0
	DB	2
	DB	2
	DB	2
	DB	2
	DB	2
	DB	2
	DB	2
	DB	2
	DB	2
	DB	2
	DB	2
	DB	2
	DB	2
	DB	2
	DB	2
	DB	2
	DB	2
	DB	0
	npad	1
$LN19@yywrap:
	DD	$LN9@yywrap
	DD	$LN1@yywrap
$LN16@yywrap:
	DB	0
	DB	1
	DB	1
	DB	1
	DB	1
	DB	1
	DB	1
	DB	1
	DB	1
	DB	1
	DB	1
	DB	1
	DB	1
	DB	1
	DB	1
	DB	0
	DB	1
	DB	1
	DB	1
	DB	1
	DB	1
	DB	1
	DB	1
	DB	1
	DB	1
	DB	1
	DB	1
	DB	1
	DB	1
	DB	1
	DB	1
	DB	1
	DB	1
	DB	0
	DB	1
	DB	1
	DB	1
	DB	1
	DB	1
	DB	1
	DB	1
	DB	1
	DB	1
	DB	1
	DB	1
	DB	1
	DB	1
	DB	1
	DB	1
	DB	1
	DB	1
	DB	1
	DB	1
	DB	1
	DB	1
	DB	1
	DB	1
	DB	1
	DB	1
	DB	1
	DB	1
	DB	1
	DB	1
	DB	1
	DB	1
	DB	1
	DB	1
	DB	1
	DB	1
	DB	1
	DB	1
	DB	1
	DB	1
	DB	1
	DB	1
	DB	1
	DB	1
	DB	1
	DB	1
	DB	1
	DB	1
	DB	1
	DB	1
	DB	1
	DB	1
	DB	1
	DB	1
	DB	1
	DB	1
	DB	1
	DB	1
	DB	1
	DB	1
	DB	1
	DB	1
	DB	1
	DB	1
	DB	1
	DB	1
	DB	1
	DB	1
	DB	1
	DB	1
	DB	1
	DB	1
	DB	0
	DB	1
	DB	1
	DB	1
	DB	1
	DB	1
	DB	1
	DB	1
	DB	1
	DB	1
	DB	1
	DB	1
	DB	1
	DB	0
	npad	1
$LN20@yywrap:
	DD	$LN9@yywrap
	DD	$LN1@yywrap
$LN17@yywrap:
	DB	0
	DB	1
	DB	1
	DB	1
	DB	1
	DB	1
	DB	1
	DB	1
	DB	1
	DB	1
	DB	1
	DB	1
	DB	1
	DB	1
	DB	1
	DB	1
	DB	1
	DB	1
	DB	1
	DB	1
	DB	1
	DB	1
	DB	1
	DB	1
	DB	1
	DB	1
	DB	0
	DB	1
	DB	1
	DB	1
	DB	1
	DB	1
	DB	1
	DB	1
	DB	1
	DB	1
	DB	1
	DB	1
	DB	1
	DB	1
	DB	1
	DB	1
	DB	1
	DB	1
	DB	1
	DB	0
	DB	1
	DB	1
	DB	1
	DB	1
	DB	1
	DB	1
	DB	1
	DB	1
	DB	1
	DB	1
	DB	1
	DB	1
	DB	1
	DB	1
	DB	1
	DB	1
	DB	1
	DB	1
	DB	1
	DB	1
	DB	1
	DB	1
	DB	1
	DB	1
	DB	1
	DB	1
	DB	1
	DB	1
	DB	1
	DB	1
	DB	1
	DB	1
	DB	1
	DB	1
	DB	1
	DB	1
	DB	1
	DB	1
	DB	1
	DB	1
	DB	1
	DB	1
	DB	1
	DB	1
	DB	1
	DB	1
	DB	1
	DB	1
	DB	1
	DB	1
	DB	1
	DB	1
	DB	1
	DB	1
	DB	1
	DB	1
	DB	1
	DB	1
	DB	1
	DB	1
	DB	1
	DB	1
	DB	1
	DB	1
	DB	1
	DB	1
	DB	1
	DB	0
	DB	0
	DB	0
	DB	0
	DB	0
	DB	0
	DB	0
	DB	0
	DB	0
	DB	0
	DB	0
	DB	0
_yywrap	ENDP
_TEXT	ENDS
PUBLIC	_macro_init
EXTRN	_macro_count:DWORD
EXTRN	_macros:DWORD
EXTRN	_myfree:PROC
EXTRN	_macro_subs:DWORD
; Function compile flags: /Ogtp
;	COMDAT _macro_init
_TEXT	SEGMENT
_macro_init PROC					; COMDAT

; 3307 :   if ( macro_subs ) myfree((char *)macro_subs);

	mov	eax, DWORD PTR _macro_subs
	push	esi
	xor	esi, esi
	cmp	eax, esi
	je	SHORT $LN2@macro_init
	push	eax
	call	_myfree
	add	esp, 4
$LN2@macro_init:

; 3308 :   if ( macros ) myfree((char *)macros);

	mov	eax, DWORD PTR _macros
	cmp	eax, esi
	je	SHORT $LN1@macro_init
	push	eax
	call	_myfree
	add	esp, 4
$LN1@macro_init:

; 3309 :   macro_subs = NULL;

	mov	DWORD PTR _macro_subs, esi

; 3310 :   macros = NULL;

	mov	DWORD PTR _macros, esi

; 3311 :   macro_count = macro_subs_top = macro_max = macro_subs_max = 0;

	mov	DWORD PTR _macro_subs_max, esi
	mov	DWORD PTR _macro_max, esi
	mov	DWORD PTR _macro_subs_top, esi
	mov	DWORD PTR _macro_count, esi
	pop	esi

; 3312 : } // end macro_init()

	ret	0
_macro_init ENDP
_TEXT	ENDS
PUBLIC	__real@0000000000000000
PUBLIC	_yylex_init
EXTRN	__fltused:DWORD
;	COMDAT __real@0000000000000000
CONST	SEGMENT
__real@0000000000000000 DQ 00000000000000000r	; 0
; Function compile flags: /Ogtp
CONST	ENDS
;	COMDAT _yylex_init
_TEXT	SEGMENT
_yylex_init PROC					; COMDAT

; 3320 :   unput_tok_count = 0;
; 3321 :   ubuff_spot = 0;
; 3322 :   spot = 0;
; 3323 :   errspot = 0;
; 3324 :   yylval.i = 0;
; 3325 :   yylval.r = 0.0;

	fldz

; 3326 :   in_function = brace_depth = in_quote = in_comment = 0;
; 3327 : #ifdef FLEX_SCANNER
; 3328 :   if ( yy_current_buffer) YY_FLUSH_BUFFER;

	mov	ecx, DWORD PTR _yy_current_buffer
	xor	eax, eax
	fstp	QWORD PTR _yylval+16
	mov	DWORD PTR _unput_tok_count, eax
	mov	DWORD PTR _ubuff_spot, eax
	mov	DWORD PTR _spot, eax
	mov	DWORD PTR _errspot, eax
	mov	DWORD PTR _yylval, eax
	mov	DWORD PTR _in_comment, eax
	mov	DWORD PTR _in_quote, eax
	mov	DWORD PTR _brace_depth, eax
	mov	DWORD PTR _in_function, eax
	cmp	ecx, eax
	je	SHORT $LN1@yylex_init
	push	ecx
	call	_yy_flush_buffer
	pop	ecx
$LN1@yylex_init:

; 3329 : #endif
; 3330 : } // end yylex_init()

	ret	0
_yylex_init ENDP
_TEXT	ENDS
PUBLIC	_minus_type
; Function compile flags: /Ogtp
;	COMDAT _minus_type
_TEXT	SEGMENT
_c$ = 8							; size = 4
_minus_type PROC					; COMDAT

; 3457 : { int result;

	push	ebp
	mov	ebp, esp

; 3458 :   switch ( tok )

	mov	eax, DWORD PTR _tok
	cmp	eax, 370				; 00000172H
	jg	SHORT $LN7@minus_type
	cmp	eax, 369				; 00000171H
	jge	SHORT $LN2@minus_type
	cmp	eax, 93					; 0000005dH
	jg	SHORT $LN8@minus_type
	je	SHORT $LN2@minus_type
	cmp	eax, 41					; 00000029H
	je	SHORT $LN2@minus_type
$LN1@minus_type:

; 3459 :   {  case LEAD_INTEGER_TOK:
; 3460 :      case SIGNED_NUMBER_TOK:
; 3461 :      case INTEGER_TOK:
; 3462 :      case REAL_TOK:
; 3463 :      case PI_TOK:
; 3464 :      case E_TOK:
; 3465 :      case G_TOK:
; 3466 :      case PARAM_TOK: case ARRAYIDENT_TOK: case STRINGARRAY_TOK:
; 3467 :      case COORD_TOK: case VALUE_TOK: case BARE_TOK:
; 3468 :      case IDENT_TOK: case QUANTITY_NAME_TOK: case WRAP_TOK: case PERM_IDENT_TOK:
; 3469 :      case LENGTH_TOK: case DIHEDRAL_TOK: case VALENCE_TOK:
; 3470 :      case AREA_TOK: case VOLUME_TOK: case DENSITY_TOK: case TAG_TOK:
; 3471 :      case ID_TOK: case ORIGINAL_TOK: case SQ_MEAN_CURV_TOK:
; 3472 :      case OID_TOK: case INTERNAL_VARIABLE_TOK: case COLOR_TOK:
; 3473 :      case TOGGLEVALUE_TOK: case EXTRA_ATTRIBUTE_TOK: case PRESSURE_TOK:
; 3474 :      case ARRAY_ATTRIBUTE_TOK:
; 3475 :      case FRONTCOLOR_TOK: case BACKCOLOR_TOK: case TARGET_TOK:
; 3476 :      case NO_REFINE_TOK: case VOLCONST_TOK: case FRONTBODY_TOK: case NONCONTENT_TOK:
; 3477 :      case BACKBODY_TOK: case TETRA_POINT_TOK: case TRIPLE_POINT_TOK:
; 3478 :      case MIDV_TOK: case PHASE_TOK: case MODULUS_TOK: 
; 3479 :      case METHOD_NAME_TOK: case NODISPLAY_TOK: case HIT_PARTNER_TOK:
; 3480 :      case CENTEROFMASS_TOK:
; 3481 :      case ']': case ')':
; 3482 :         result = c; 
; 3483 :         break; 
; 3484 :      default: 
; 3485 :         result = (c=='-' ? UMINUS_TOK: UPLUS_TOK) ; 

	mov	eax, DWORD PTR _c$[ebp]
	sub	eax, 45					; 0000002dH
	neg	eax
	sbb	eax, eax
	and	eax, 70					; 00000046H
	add	eax, 287				; 0000011fH

; 3489 : } // end minus_type()

	pop	ebp
	ret	0
$LN8@minus_type:

; 3458 :   switch ( tok )

	sub	eax, 264				; 00000108H
	cmp	eax, 72					; 00000048H
	ja	SHORT $LN1@minus_type
	movzx	eax, BYTE PTR $LN9@minus_type[eax]
	jmp	DWORD PTR $LN11@minus_type[eax*4]
$LN7@minus_type:
	sub	eax, 399				; 0000018fH
	cmp	eax, 167				; 000000a7H
	ja	SHORT $LN1@minus_type
	movzx	ecx, BYTE PTR $LN10@minus_type[eax]
	jmp	DWORD PTR $LN12@minus_type[ecx*4]
$LN2@minus_type:

; 3486 :         break;
; 3487 :   }
; 3488 :   return result; 

	mov	eax, DWORD PTR _c$[ebp]

; 3489 : } // end minus_type()

	pop	ebp
	ret	0
	npad	3
$LN11@minus_type:
	DD	$LN2@minus_type
	DD	$LN1@minus_type
$LN9@minus_type:
	DB	0
	DB	0
	DB	0
	DB	0
	DB	1
	DB	1
	DB	1
	DB	1
	DB	1
	DB	1
	DB	1
	DB	0
	DB	1
	DB	1
	DB	0
	DB	0
	DB	0
	DB	0
	DB	1
	DB	1
	DB	0
	DB	1
	DB	0
	DB	1
	DB	1
	DB	0
	DB	1
	DB	0
	DB	1
	DB	1
	DB	1
	DB	1
	DB	1
	DB	1
	DB	1
	DB	1
	DB	0
	DB	0
	DB	0
	DB	0
	DB	0
	DB	0
	DB	0
	DB	1
	DB	0
	DB	1
	DB	1
	DB	1
	DB	1
	DB	0
	DB	1
	DB	1
	DB	1
	DB	1
	DB	0
	DB	0
	DB	1
	DB	0
	DB	1
	DB	1
	DB	1
	DB	1
	DB	1
	DB	1
	DB	1
	DB	1
	DB	1
	DB	0
	DB	1
	DB	1
	DB	1
	DB	0
	DB	0
	npad	3
$LN12@minus_type:
	DD	$LN2@minus_type
	DD	$LN1@minus_type
$LN10@minus_type:
	DB	0
	DB	1
	DB	1
	DB	1
	DB	1
	DB	1
	DB	1
	DB	1
	DB	1
	DB	1
	DB	1
	DB	1
	DB	0
	DB	0
	DB	1
	DB	0
	DB	1
	DB	1
	DB	1
	DB	0
	DB	1
	DB	1
	DB	1
	DB	1
	DB	1
	DB	1
	DB	1
	DB	1
	DB	1
	DB	1
	DB	1
	DB	0
	DB	1
	DB	0
	DB	1
	DB	1
	DB	1
	DB	1
	DB	1
	DB	1
	DB	1
	DB	1
	DB	1
	DB	1
	DB	1
	DB	1
	DB	1
	DB	1
	DB	1
	DB	1
	DB	1
	DB	1
	DB	0
	DB	1
	DB	1
	DB	1
	DB	0
	DB	1
	DB	1
	DB	0
	DB	1
	DB	0
	DB	0
	DB	0
	DB	1
	DB	1
	DB	1
	DB	1
	DB	1
	DB	1
	DB	1
	DB	1
	DB	1
	DB	1
	DB	0
	DB	0
	DB	0
	DB	1
	DB	1
	DB	1
	DB	1
	DB	1
	DB	1
	DB	1
	DB	1
	DB	1
	DB	1
	DB	1
	DB	0
	DB	1
	DB	1
	DB	1
	DB	1
	DB	1
	DB	1
	DB	1
	DB	1
	DB	1
	DB	1
	DB	1
	DB	1
	DB	1
	DB	1
	DB	1
	DB	0
	DB	1
	DB	0
	DB	1
	DB	1
	DB	1
	DB	1
	DB	0
	DB	1
	DB	1
	DB	1
	DB	1
	DB	1
	DB	1
	DB	1
	DB	1
	DB	1
	DB	1
	DB	1
	DB	1
	DB	1
	DB	1
	DB	1
	DB	1
	DB	1
	DB	1
	DB	1
	DB	1
	DB	1
	DB	1
	DB	1
	DB	1
	DB	1
	DB	1
	DB	1
	DB	1
	DB	1
	DB	1
	DB	1
	DB	1
	DB	1
	DB	1
	DB	1
	DB	1
	DB	1
	DB	1
	DB	1
	DB	1
	DB	1
	DB	1
	DB	1
	DB	1
	DB	1
	DB	1
	DB	1
	DB	1
	DB	1
	DB	1
	DB	1
	DB	1
	DB	1
	DB	1
	DB	1
	DB	0
_minus_type ENDP
_TEXT	ENDS
PUBLIC	_keyword_compare
EXTRN	_kb_stricmp:PROC
; Function compile flags: /Ogtp
;	COMDAT _keyword_compare
_TEXT	SEGMENT
_a$ = 8							; size = 4
_b$ = 12						; size = 4
_keyword_compare PROC					; COMDAT

; 3498 : { return stricmp(a->name,b->name); }

	push	ebp
	mov	ebp, esp
	mov	eax, DWORD PTR _b$[ebp]
	mov	ecx, DWORD PTR [eax]
	mov	edx, DWORD PTR _a$[ebp]
	mov	eax, DWORD PTR [edx]
	push	ecx
	push	eax
	call	_kb_stricmp
	add	esp, 8
	pop	ebp
	ret	0
_keyword_compare ENDP
_TEXT	ENDS
PUBLIC	??_C@_04DOKPJKJF@HELP?$AA@			; `string'
PUBLIC	??_C@_0DP@CHCDDAG@Use?5of?5the?5keyword?5?8?$CFs?8?5as?5an?5id@ ; `string'
PUBLIC	??_C@_0BC@NDPAEDHG@f_constraint_list?$AA@	; `string'
PUBLIC	??_C@_0BE@PEKCNEI@__f_constraint_list?$AA@	; `string'
PUBLIC	??_C@_0BC@DJHGJOBE@e_constraint_list?$AA@	; `string'
PUBLIC	??_C@_0BE@OFMMPACK@__e_constraint_list?$AA@	; `string'
PUBLIC	??_C@_0BC@PNFDBPGO@v_constraint_list?$AA@	; `string'
PUBLIC	??_C@_0BE@CBOJHBFA@__v_constraint_list?$AA@	; `string'
PUBLIC	??_C@_0L@FBEPDDNP@v_velocity?$AA@		; `string'
PUBLIC	??_C@_0L@KMJOICIN@__velocity?$AA@		; `string'
PUBLIC	??_C@_07HDJNKPII@v_force?$AA@			; `string'
PUBLIC	??_C@_07JFKENGPF@__force?$AA@			; `string'
PUBLIC	??_C@_0N@NKPDEDNN@facet_normal?$AA@		; `string'
PUBLIC	??_C@_0P@KJNKFOHM@__facet_normal?$AA@		; `string'
PUBLIC	??_C@_0M@MONDCLHN@edge_vector?$AA@		; `string'
PUBLIC	??_C@_0O@DLNIAJPK@__edge_vector?$AA@		; `string'
PUBLIC	??_C@_0BA@BAIGEPJG@__vertex_normal?$AA@		; `string'
PUBLIC	??_C@_0O@LBCEPFPF@vertex_normal?$AA@		; `string'
PUBLIC	??_C@_03MJOELNDA@usr?$AA@			; `string'
PUBLIC	??_C@_06CHPMNBAB@_expr_?$AA@			; `string'
PUBLIC	??_C@_09GLBCIIDB@_command_?$AA@			; `string'
PUBLIC	_identcase
EXTRN	_add_global:PROC
EXTRN	_search_libraries:PROC
EXTRN	_lookup_global_hash:PROC
EXTRN	_symtable:BYTE
EXTRN	_yysym:DWORD
EXTRN	_symbol_lookup:PROC
EXTRN	_dymem:DWORD
EXTRN	_web:BYTE
EXTRN	_localbase:DWORD
EXTRN	_lookup_local_var:PROC
EXTRN	_datatype_name:BYTE
EXTRN	_sprintf:PROC
EXTRN	_errmsg:BYTE
EXTRN	_backquote_flag:DWORD
EXTRN	_const_expr_flag:DWORD
EXTRN	_bsearch:PROC
EXTRN	_strncmp:PROC
EXTRN	_atoi:PROC
EXTRN	_isdigit:PROC
EXTRN	_single_redefine:BYTE
EXTRN	_strncpy:PROC
EXTRN	_idname:BYTE
EXTRN	_kb_upper_array:BYTE
EXTRN	_verb_flag:DWORD
EXTRN	_strtok:PROC
EXTRN	_qsort:PROC
;	COMDAT ??_C@_04DOKPJKJF@HELP?$AA@
CONST	SEGMENT
??_C@_04DOKPJKJF@HELP?$AA@ DB 'HELP', 00H		; `string'
CONST	ENDS
;	COMDAT ??_C@_0DP@CHCDDAG@Use?5of?5the?5keyword?5?8?$CFs?8?5as?5an?5id@
CONST	SEGMENT
??_C@_0DP@CHCDDAG@Use?5of?5the?5keyword?5?8?$CFs?8?5as?5an?5id@ DB 'Use o'
	DB	'f the keyword ''%s'' as an identifier is very ill-advised!', 0aH
	DB	00H						; `string'
CONST	ENDS
;	COMDAT ??_C@_0BC@NDPAEDHG@f_constraint_list?$AA@
CONST	SEGMENT
??_C@_0BC@NDPAEDHG@f_constraint_list?$AA@ DB 'f_constraint_list', 00H ; `string'
CONST	ENDS
;	COMDAT ??_C@_0BE@PEKCNEI@__f_constraint_list?$AA@
CONST	SEGMENT
??_C@_0BE@PEKCNEI@__f_constraint_list?$AA@ DB '__f_constraint_list', 00H ; `string'
CONST	ENDS
;	COMDAT ??_C@_0BC@DJHGJOBE@e_constraint_list?$AA@
CONST	SEGMENT
??_C@_0BC@DJHGJOBE@e_constraint_list?$AA@ DB 'e_constraint_list', 00H ; `string'
CONST	ENDS
;	COMDAT ??_C@_0BE@OFMMPACK@__e_constraint_list?$AA@
CONST	SEGMENT
??_C@_0BE@OFMMPACK@__e_constraint_list?$AA@ DB '__e_constraint_list', 00H ; `string'
CONST	ENDS
;	COMDAT ??_C@_0BC@PNFDBPGO@v_constraint_list?$AA@
CONST	SEGMENT
??_C@_0BC@PNFDBPGO@v_constraint_list?$AA@ DB 'v_constraint_list', 00H ; `string'
CONST	ENDS
;	COMDAT ??_C@_0BE@CBOJHBFA@__v_constraint_list?$AA@
CONST	SEGMENT
??_C@_0BE@CBOJHBFA@__v_constraint_list?$AA@ DB '__v_constraint_list', 00H ; `string'
CONST	ENDS
;	COMDAT ??_C@_0L@FBEPDDNP@v_velocity?$AA@
CONST	SEGMENT
??_C@_0L@FBEPDDNP@v_velocity?$AA@ DB 'v_velocity', 00H	; `string'
CONST	ENDS
;	COMDAT ??_C@_0L@KMJOICIN@__velocity?$AA@
CONST	SEGMENT
??_C@_0L@KMJOICIN@__velocity?$AA@ DB '__velocity', 00H	; `string'
CONST	ENDS
;	COMDAT ??_C@_07HDJNKPII@v_force?$AA@
CONST	SEGMENT
??_C@_07HDJNKPII@v_force?$AA@ DB 'v_force', 00H		; `string'
CONST	ENDS
;	COMDAT ??_C@_07JFKENGPF@__force?$AA@
CONST	SEGMENT
??_C@_07JFKENGPF@__force?$AA@ DB '__force', 00H		; `string'
CONST	ENDS
;	COMDAT ??_C@_0N@NKPDEDNN@facet_normal?$AA@
CONST	SEGMENT
??_C@_0N@NKPDEDNN@facet_normal?$AA@ DB 'facet_normal', 00H ; `string'
CONST	ENDS
;	COMDAT ??_C@_0P@KJNKFOHM@__facet_normal?$AA@
CONST	SEGMENT
??_C@_0P@KJNKFOHM@__facet_normal?$AA@ DB '__facet_normal', 00H ; `string'
CONST	ENDS
;	COMDAT ??_C@_0M@MONDCLHN@edge_vector?$AA@
CONST	SEGMENT
??_C@_0M@MONDCLHN@edge_vector?$AA@ DB 'edge_vector', 00H ; `string'
CONST	ENDS
;	COMDAT ??_C@_0O@DLNIAJPK@__edge_vector?$AA@
CONST	SEGMENT
??_C@_0O@DLNIAJPK@__edge_vector?$AA@ DB '__edge_vector', 00H ; `string'
CONST	ENDS
;	COMDAT ??_C@_0BA@BAIGEPJG@__vertex_normal?$AA@
CONST	SEGMENT
??_C@_0BA@BAIGEPJG@__vertex_normal?$AA@ DB '__vertex_normal', 00H ; `string'
CONST	ENDS
;	COMDAT ??_C@_0O@LBCEPFPF@vertex_normal?$AA@
CONST	SEGMENT
??_C@_0O@LBCEPFPF@vertex_normal?$AA@ DB 'vertex_normal', 00H ; `string'
CONST	ENDS
;	COMDAT ??_C@_03MJOELNDA@usr?$AA@
CONST	SEGMENT
??_C@_03MJOELNDA@usr?$AA@ DB 'usr', 00H			; `string'
CONST	ENDS
;	COMDAT ??_C@_06CHPMNBAB@_expr_?$AA@
CONST	SEGMENT
??_C@_06CHPMNBAB@_expr_?$AA@ DB '_expr_', 00H		; `string'
CONST	ENDS
;	COMDAT ??_C@_09GLBCIIDB@_command_?$AA@
CONST	SEGMENT
??_C@_09GLBCIIDB@_command_?$AA@ DB '_command_', 00H	; `string'
; Function compile flags: /Ogtp
CONST	ENDS
;	COMDAT _identcase
_TEXT	SEGMENT
_key$ = -12						; size = 8
_type$ = -4						; size = 4
_lexeme$ = 8						; size = 4
_identcase PROC						; COMDAT

; 3501 : {

	push	ebp
	mov	ebp, esp
	sub	esp, 12					; 0000000cH
	push	ebx
	push	esi
	push	edi

; 3502 :    int k,i;
; 3503 :    int type;
; 3504 :    struct sym *s;
; 3505 :    static int sorted = 0; /* flag for sorting keywords */
; 3506 :    struct ckey *keyptr;
; 3507 :    struct ckey key;  /* for bsearch key */
; 3508 :    char *c,*p;
; 3509 :    dll_func_type h;
; 3510 : 
; 3511 :    yylval.i = 0; 

	xor	edi, edi
	mov	DWORD PTR _yylval, edi

; 3512 : 
; 3513 :    if ( ! sorted )

	lea	esi, DWORD PTR [edi+1]
	cmp	DWORD PTR ?sorted@?1??identcase@@9@9, edi
	jne	$LN164@identcase

; 3514 :    { qsort((char*)datafile_keywords,
; 3515 :       sizeof(datafile_keywords)/ sizeof(struct dkey),sizeof(struct dkey),
; 3516 :       FCAST keyword_compare);

	push	OFFSET _keyword_compare
	push	8
	push	198					; 000000c6H
	push	OFFSET _datafile_keywords
	call	_qsort

; 3517 :      qsort((char*)command_keywords,
; 3518 :       sizeof(command_keywords)/ sizeof(struct ckey),sizeof(struct ckey),
; 3519 :       FCAST keyword_compare);

	push	OFFSET _keyword_compare
	push	8
	push	287					; 0000011fH
	push	OFFSET _command_keywords
	call	_qsort

; 3520 :      qsort((char*)togglenames,
; 3521 :       sizeof(togglenames)/ sizeof(struct ckey),sizeof(struct ckey),
; 3522 :       FCAST keyword_compare);

	push	OFFSET _keyword_compare
	push	8
	push	127					; 0000007fH
	push	OFFSET _togglenames
	call	_qsort

; 3523 :      qsort((char*)colornames,
; 3524 :       sizeof(colornames)/ sizeof(struct ckey),sizeof(struct ckey),
; 3525 :       FCAST keyword_compare);

	push	OFFSET _keyword_compare
	push	8
	push	22					; 00000016H
	push	OFFSET _colornames
	call	_qsort
	add	esp, 64					; 00000040H

; 3526 :      qsort((char*)internal_variables,
; 3527 :       sizeof(internal_variables)/ sizeof(struct ckey),sizeof(struct ckey),
; 3528 :       FCAST keyword_compare);

	push	OFFSET _keyword_compare
	push	8
	push	114					; 00000072H
	push	OFFSET _internal_variables
	call	_qsort

; 3529 :      qsort((char*)mathfunc_keywords,
; 3530 :       sizeof(mathfunc_keywords)/ sizeof(struct ckey),sizeof(struct ckey),
; 3531 :       FCAST keyword_compare);

	push	OFFSET _keyword_compare
	push	8
	push	22					; 00000016H
	push	OFFSET _mathfunc_keywords
	call	_qsort

; 3532 :      qsort((char*)mathfunc2_keywords,
; 3533 :       sizeof(mathfunc2_keywords)/ sizeof(struct ckey),sizeof(struct ckey),
; 3534 :       FCAST keyword_compare);

	push	OFFSET _keyword_compare
	push	8
	push	7
	push	OFFSET _mathfunc2_keywords
	call	_qsort
	add	esp, 48					; 00000030H

; 3535 :      sorted = 1;

	mov	DWORD PTR ?sorted@?1??identcase@@9@9, esi
$LN164@identcase:

; 3536 :    }
; 3537 : 
; 3538 :    if ( strcmp(lexeme,"_command_") == 0 )  { return tok = COMMAND_START_TOK; }

	mov	ebx, DWORD PTR _lexeme$[ebp]
	mov	ecx, OFFSET ??_C@_09GLBCIIDB@_command_?$AA@
	mov	eax, ebx
$LL211@identcase:
	mov	dl, BYTE PTR [eax]
	cmp	dl, BYTE PTR [ecx]
	jne	SHORT $LN212@identcase
	test	dl, dl
	je	SHORT $LN213@identcase
	mov	dl, BYTE PTR [eax+1]
	cmp	dl, BYTE PTR [ecx+1]
	jne	SHORT $LN212@identcase
	add	eax, 2
	add	ecx, 2
	test	dl, dl
	jne	SHORT $LL211@identcase
$LN213@identcase:
	xor	eax, eax
	jmp	SHORT $LN214@identcase
$LN212@identcase:
	sbb	eax, eax
	sbb	eax, -1
$LN214@identcase:
	cmp	eax, edi
	jne	SHORT $LN163@identcase
	pop	edi
	mov	eax, 259				; 00000103H
	pop	esi

; 3891 :    return(tok = NEWIDENT_TOK) ;

	mov	DWORD PTR _tok, eax
	pop	ebx

; 3892 : } /* end identcase() */

	mov	esp, ebp
	pop	ebp
	ret	0
$LN163@identcase:

; 3539 :    if ( strcmp(lexeme,"_expr_") == 0 )   { return tok = EXPRESSION_START_TOK; }

	mov	ecx, OFFSET ??_C@_06CHPMNBAB@_expr_?$AA@
	mov	eax, ebx
$LL215@identcase:
	mov	dl, BYTE PTR [eax]
	cmp	dl, BYTE PTR [ecx]
	jne	SHORT $LN216@identcase
	test	dl, dl
	je	SHORT $LN217@identcase
	mov	dl, BYTE PTR [eax+1]
	cmp	dl, BYTE PTR [ecx+1]
	jne	SHORT $LN216@identcase
	add	eax, 2
	add	ecx, 2
	test	dl, dl
	jne	SHORT $LL215@identcase
$LN217@identcase:
	xor	eax, eax
	jmp	SHORT $LN218@identcase
$LN216@identcase:
	sbb	eax, eax
	sbb	eax, -1
$LN218@identcase:
	cmp	eax, edi
	jne	SHORT $LN162@identcase
	pop	edi
	mov	eax, 258				; 00000102H
	pop	esi

; 3891 :    return(tok = NEWIDENT_TOK) ;

	mov	DWORD PTR _tok, eax
	pop	ebx

; 3892 : } /* end identcase() */

	mov	esp, ebp
	pop	ebp
	ret	0
$LN162@identcase:

; 3540 : 
; 3541 :    /* strip whitespace from front of lexeme */
; 3542 :    c = strtok(lexeme,whitespace);

	mov	eax, DWORD PTR _whitespace
	push	eax
	push	ebx
	call	_strtok
	add	esp, 8

; 3543 :    if ( c != lexeme ) { p = lexeme;  while ( *c )  *(p++) = *(c++); *p = 0;}

	cmp	eax, ebx
	je	SHORT $LN161@identcase
	mov	cl, BYTE PTR [eax]
	mov	edx, ebx
	test	cl, cl
	je	SHORT $LN159@identcase
	sub	eax, ebx
	npad	7
$LL160@identcase:
	mov	BYTE PTR [edx], cl
	add	edx, esi
	mov	cl, BYTE PTR [eax+edx]
	test	cl, cl
	jne	SHORT $LL160@identcase
$LN159@identcase:
	mov	BYTE PTR [edx], 0
$LN161@identcase:

; 3544 : 
; 3545 :    if ( strlen(lexeme) == 1 )

	mov	eax, ebx
	lea	edx, DWORD PTR [eax+1]
$LL219@identcase:
	mov	cl, BYTE PTR [eax]
	inc	eax
	test	cl, cl
	jne	SHORT $LL219@identcase
	sub	eax, edx
	cmp	eax, esi
	jne	$LN145@identcase

; 3546 :    { char ch = lexeme[0];
; 3547 :      if ( verb_flag == 1 || // tok==PRINT_TOK||
; 3548 :        (verb_flag == 2 && (toupper(ch) < 'W'))  )

	mov	ecx, DWORD PTR _verb_flag
	cmp	ecx, esi
	je	$LN156@identcase
	cmp	ecx, 2
	jne	SHORT $LN157@identcase
	movsx	edx, BYTE PTR [ebx]
	cmp	BYTE PTR _kb_upper_array[edx], 87	; 00000057H
	jl	SHORT $LN156@identcase
$LN157@identcase:

; 3558 :          default: return ( tok = SINGLE_LETTER_TOK);
; 3559 :        } 
; 3560 :      }
; 3561 :      else 
; 3562 :       switch ( toupper(lexeme[0]) )

	movsx	eax, BYTE PTR [ebx]
	mov	al, BYTE PTR _kb_upper_array[eax]
	cmp	al, 80					; 00000050H
	je	SHORT $LN143@identcase
	lea	ecx, DWORD PTR [eax-87]
	cmp	cl, 3
	ja	$LN145@identcase

; 3563 :       { case 'X': case 'Y': case 'Z': case 'W':
; 3564 :           yylval.i = ((toupper(lexeme[0]) - 'X' + 4) % 4) + 1;

	movsx	edx, al
	sub	edx, 84					; 00000054H
	and	edx, -2147483645			; 80000003H
	jns	SHORT $LN268@identcase
	dec	edx
	or	edx, -4					; fffffffcH
	inc	edx
$LN268@identcase:
	add	edx, esi
	mov	DWORD PTR _yylval, edx
$LN281@identcase:

; 3565 :           return COORD_TOK;

	pop	edi
	pop	esi
	mov	eax, 321				; 00000141H
	pop	ebx

; 3892 : } /* end identcase() */

	mov	esp, ebp
	pop	ebp
	ret	0
$LN143@identcase:

; 3566 :         case 'P':
; 3567 :         { strncpy(idname,lexeme,sizeof(idname)); /* save text */

	push	35					; 00000023H
	push	ebx
	push	OFFSET _idname
	call	_strncpy
	add	esp, 12					; 0000000cH

; 3568 :           yylval.qnum = V_PARAM_ATTR;
; 3569 :           yylval.etype = VERTEX;

	mov	DWORD PTR _yylval+24, edi
	pop	edi

; 3570 :           yylval.i = 1;

	mov	DWORD PTR _yylval, esi

; 3571 :           return tok = ARRAY_ATTRIBUTE_TOK; 

	mov	eax, 566				; 00000236H
	pop	esi
	mov	DWORD PTR _yylval+4, 2

; 3891 :    return(tok = NEWIDENT_TOK) ;

	mov	DWORD PTR _tok, eax
	pop	ebx

; 3892 : } /* end identcase() */

	mov	esp, ebp
	pop	ebp
	ret	0
$LN156@identcase:

; 3549 :      { yylval.i=lexeme[0]; 

	movsx	eax, BYTE PTR [ebx]

; 3550 :        if ( single_redefine[yylval.i].start ) return tok = SINGLE_REDEFD_TOK;

	mov	edx, eax
	imul	edx, 104				; 00000068H
	mov	DWORD PTR _yylval, eax
	cmp	DWORD PTR _single_redefine[edx], edi
	je	SHORT $LN155@identcase
	pop	edi
	mov	eax, 413				; 0000019dH
	pop	esi

; 3891 :    return(tok = NEWIDENT_TOK) ;

	mov	DWORD PTR _tok, eax
	pop	ebx

; 3892 : } /* end identcase() */

	mov	esp, ebp
	pop	ebp
	ret	0
$LN155@identcase:

; 3551 :        switch ( yylval.i )

	add	eax, -71				; ffffffb9H
	cmp	eax, 50					; 00000032H
	ja	$LN149@identcase
	movzx	eax, BYTE PTR $LN220@identcase[eax]
	jmp	DWORD PTR $LN282@identcase[eax*4]
$LN152@identcase:
	pop	edi

; 3552 :        { case 't': case 'l': case 'j': case 'P': case 'M':
; 3553 :          case 'w': case 'n': case 'm':  case 'b':
; 3554 :          case 'k': case 'K': case 'p': case 'y': case 'q':
; 3555 :            return ( tok = SINGLE_LETTER_ARG_TOK);

	mov	eax, 417				; 000001a1H
	pop	esi

; 3891 :    return(tok = NEWIDENT_TOK) ;

	mov	DWORD PTR _tok, eax
	pop	ebx

; 3892 : } /* end identcase() */

	mov	esp, ebp
	pop	ebp
	ret	0
$LN151@identcase:

; 3556 :            case 'G': if ( verb_flag ) return ( tok = SINGLE_LETTER_ARG_TOK);

	cmp	ecx, edi
	jne	SHORT $LN152@identcase

; 3557 :          else return tok=G_TOK;

	pop	edi
	mov	eax, 280				; 00000118H
	pop	esi

; 3891 :    return(tok = NEWIDENT_TOK) ;

	mov	DWORD PTR _tok, eax
	pop	ebx

; 3892 : } /* end identcase() */

	mov	esp, ebp
	pop	ebp
	ret	0
$LN145@identcase:

; 3572 :         }
; 3573 :       }
; 3574 :     }
; 3575 : 
; 3576 :     // x1, x2, ... form of coordinates
; 3577 :     if ( toupper(lexeme[0]) == 'X' )

	movsx	ecx, BYTE PTR [ebx]
	cmp	BYTE PTR _kb_upper_array[ecx], 88	; 00000058H
	jne	SHORT $LN137@identcase

; 3578 :     { char *c;
; 3579 :       for ( c = lexeme+1 ; isdigit(*c) ; c++ ) ;

	lea	edi, DWORD PTR [ebx+1]
	mov	esi, edi
	movsx	edx, BYTE PTR [esi]
	push	edx
	call	_isdigit
	add	esp, 4
	test	eax, eax
	je	SHORT $LN139@identcase
$LL141@identcase:
	movsx	eax, BYTE PTR [esi+1]
	inc	esi
	push	eax
	call	_isdigit
	add	esp, 4
	test	eax, eax
	jne	SHORT $LL141@identcase
$LN139@identcase:

; 3580 :       if ( *c == 0 )

	cmp	BYTE PTR [esi], 0
	jne	SHORT $LN137@identcase

; 3581 :       { yylval.i = atoi(lexeme+1);

	push	edi
	call	_atoi
	add	esp, 4
	mov	DWORD PTR _yylval, eax

; 3582 :         if ( yylval.i != 0 )

	test	eax, eax

; 3583 :           return COORD_TOK;

	jne	$LN281@identcase
$LN137@identcase:

; 3584 :       }
; 3585 :     }
; 3586 : 
; 3587 :     // parameter names p1, p2, ...
; 3588 :     if ( toupper(lexeme[0]) == 'P' && isdigit(lexeme[1]) && !lexeme[2] )

	movsx	ecx, BYTE PTR [ebx]
	cmp	BYTE PTR _kb_upper_array[ecx], 80	; 00000050H
	jne	SHORT $LN136@identcase
	movsx	edx, BYTE PTR [ebx+1]
	lea	esi, DWORD PTR [ebx+1]
	push	edx
	call	_isdigit
	add	esp, 4
	test	eax, eax
	je	SHORT $LN136@identcase
	cmp	BYTE PTR [ebx+2], 0
	jne	SHORT $LN136@identcase

; 3589 :     { yylval.i = atoi(lexeme+1);

	push	esi
	call	_atoi
	add	esp, 4
	pop	edi
	pop	esi
	mov	DWORD PTR _yylval, eax

; 3590 :       return PARAM_TOK;

	mov	eax, 281				; 00000119H
	pop	ebx

; 3892 : } /* end identcase() */

	mov	esp, ebp
	pop	ebp
	ret	0
$LN136@identcase:

; 3591 :     }
; 3592 : 
; 3593 :     // special gn kludge
; 3594 :     if ( lexeme[0] == 'g' )

	cmp	BYTE PTR [ebx], 103			; 00000067H
	jne	SHORT $LN131@identcase

; 3595 :     { char *c;
; 3596 :       for ( c = lexeme+1 ; isdigit(*c) ; c++ ) ;

	lea	edi, DWORD PTR [ebx+1]
	mov	esi, edi
	movsx	eax, BYTE PTR [esi]
	push	eax
	call	_isdigit
	add	esp, 4
	test	eax, eax
	je	SHORT $LN132@identcase
$LL134@identcase:
	movsx	ecx, BYTE PTR [esi+1]
	inc	esi
	push	ecx
	call	_isdigit
	add	esp, 4
	test	eax, eax
	jne	SHORT $LL134@identcase
$LN132@identcase:

; 3597 :       if ( *c == 0 )

	cmp	BYTE PTR [esi], 0
	jne	SHORT $LN131@identcase

; 3598 :       { yylval.i = atoi(lexeme+1);

	push	edi
	call	_atoi
	add	esp, 4
	pop	edi
	pop	esi
	mov	DWORD PTR _yylval, eax

; 3599 :         return GO_COUNT_TOK;

	mov	eax, 536				; 00000218H
	pop	ebx

; 3892 : } /* end identcase() */

	mov	esp, ebp
	pop	ebp
	ret	0
$LN131@identcase:

; 3600 :       }
; 3601 :     }
; 3602 : 
; 3603 :     if ( strncmp(lexeme,"usr",3) == 0 )

	push	3
	push	OFFSET ??_C@_03MJOELNDA@usr?$AA@
	push	ebx
	call	_strncmp
	add	esp, 12					; 0000000cH
	test	eax, eax
	jne	SHORT $LN126@identcase

; 3604 :     { char *c;
; 3605 :       for ( c = lexeme+3 ; isdigit(*c) ; c++ ) ;

	lea	edi, DWORD PTR [ebx+3]
	mov	esi, edi
	movsx	edx, BYTE PTR [esi]
	push	edx
	call	_isdigit
	add	esp, 4
	test	eax, eax
	je	SHORT $LN127@identcase
$LL129@identcase:
	movsx	eax, BYTE PTR [esi+1]
	inc	esi
	push	eax
	call	_isdigit
	add	esp, 4
	test	eax, eax
	jne	SHORT $LL129@identcase
$LN127@identcase:

; 3606 :       if ( *c == 0 )

	cmp	BYTE PTR [esi], 0
	jne	SHORT $LN126@identcase

; 3607 :       { yylval.i = atoi(lexeme+3);

	push	edi
	call	_atoi
	add	esp, 4
	pop	edi
	pop	esi
	mov	DWORD PTR _yylval, eax

; 3608 :         return USERFUNC_TOK;

	mov	eax, 274				; 00000112H
	pop	ebx

; 3892 : } /* end identcase() */

	mov	esp, ebp
	pop	ebp
	ret	0
$LN126@identcase:

; 3609 :       }
; 3610 :     }
; 3611 :  
; 3612 :     key.name = lexeme;
; 3613 : 
; 3614 : #define BSEARCH(namelist)\
; 3615 :     (struct ckey*)bsearch((char*)&key,(char*)(namelist),\
; 3616 :          sizeof(namelist)/sizeof(struct ckey),\
; 3617 :           sizeof(struct ckey),FCAST keyword_compare);
; 3618 : 
; 3619 :     keyptr = BSEARCH(colornames);

	push	OFFSET _keyword_compare
	push	8
	push	22					; 00000016H
	lea	ecx, DWORD PTR _key$[ebp]
	push	OFFSET _colornames
	push	ecx
	mov	DWORD PTR _key$[ebp], ebx
	call	_bsearch
	add	esp, 20					; 00000014H

; 3620 :     if ( keyptr )

	test	eax, eax
	je	SHORT $LN125@identcase

; 3621 :         { yylval.r = yylval.i = keyptr->token;

	mov	edx, DWORD PTR [eax+4]
	mov	DWORD PTR _yylval, edx
	fild	DWORD PTR _yylval
	pop	edi

; 3622 :           return (tok = INTEGER_TOK);

	mov	eax, 265				; 00000109H
	pop	esi
	fstp	QWORD PTR _yylval+16

; 3891 :    return(tok = NEWIDENT_TOK) ;

	mov	DWORD PTR _tok, eax
	pop	ebx

; 3892 : } /* end identcase() */

	mov	esp, ebp
	pop	ebp
	ret	0
$LN125@identcase:

; 3623 :         }
; 3624 :     /* search math funcs */
; 3625 :     keyptr = BSEARCH(mathfunc_keywords);

	push	OFFSET _keyword_compare
	push	8
	push	22					; 00000016H
	lea	eax, DWORD PTR _key$[ebp]
	push	OFFSET _mathfunc_keywords
	push	eax
	call	_bsearch
	add	esp, 20					; 00000014H

; 3626 :     if ( keyptr ) {  yylval.i = keyptr->token; return (tok = MATHFUNC_TOK); }

	test	eax, eax
	je	SHORT $LN124@identcase
	mov	ecx, DWORD PTR [eax+4]
	pop	edi
	mov	eax, 270				; 0000010eH
	pop	esi
	mov	DWORD PTR _yylval, ecx

; 3891 :    return(tok = NEWIDENT_TOK) ;

	mov	DWORD PTR _tok, eax
	pop	ebx

; 3892 : } /* end identcase() */

	mov	esp, ebp
	pop	ebp
	ret	0
$LN124@identcase:

; 3627 : 
; 3628 :     keyptr = BSEARCH(mathfunc2_keywords);

	push	OFFSET _keyword_compare
	push	8
	push	7
	lea	edx, DWORD PTR _key$[ebp]
	push	OFFSET _mathfunc2_keywords
	push	edx
	call	_bsearch
	add	esp, 20					; 00000014H

; 3629 :     if ( keyptr ) {  yylval.i  = keyptr->token; return (tok = MATHFUNC2_TOK); }

	test	eax, eax
	je	SHORT $LN123@identcase
	mov	eax, DWORD PTR [eax+4]
	pop	edi
	mov	DWORD PTR _yylval, eax
	mov	eax, 271				; 0000010fH
	pop	esi

; 3891 :    return(tok = NEWIDENT_TOK) ;

	mov	DWORD PTR _tok, eax
	pop	ebx

; 3892 : } /* end identcase() */

	mov	esp, ebp
	pop	ebp
	ret	0
$LN123@identcase:

; 3630 : 
; 3631 :     if ( const_expr_flag )

	cmp	DWORD PTR _const_expr_flag, 0
	je	SHORT $LN119@identcase

; 3632 :     { for ( k=0 ; k<sizeof(const_expr_keywords)/ sizeof(struct ckey) ; k++ )

	xor	esi, esi
$LL121@identcase:

; 3633 :       if (stricmp(lexeme,const_expr_keywords[k].name)==0)

	mov	ecx, DWORD PTR _const_expr_keywords[esi*8]
	push	ecx
	push	ebx
	call	_kb_stricmp
	add	esp, 8
	test	eax, eax
	je	SHORT $LN200@identcase

; 3632 :     { for ( k=0 ; k<sizeof(const_expr_keywords)/ sizeof(struct ckey) ; k++ )

	inc	esi
	cmp	esi, 3
	jb	SHORT $LL121@identcase
$LN119@identcase:

; 3635 :     }
; 3636 : 
; 3637 :     /* kludges for some backward compatibility */
; 3638 :     if ( strcmp(lexeme,"vertexnormal") == 0 )

	mov	ecx, OFFSET ??_C@_0N@ICOOBCNI@vertexnormal?$AA@
	mov	eax, ebx
$LL221@identcase:
	mov	dl, BYTE PTR [eax]
	cmp	dl, BYTE PTR [ecx]
	jne	SHORT $LN222@identcase
	test	dl, dl
	je	SHORT $LN260@identcase
	mov	dl, BYTE PTR [eax+1]
	cmp	dl, BYTE PTR [ecx+1]
	jne	SHORT $LN222@identcase
	add	eax, 2
	add	ecx, 2
	test	dl, dl
	jne	SHORT $LL221@identcase
$LN260@identcase:
	xor	eax, eax
	jmp	SHORT $LN224@identcase
$LN200@identcase:

; 3634 :            return (tok = const_expr_keywords[k].token);

	mov	eax, DWORD PTR _const_expr_keywords[esi*8+4]
	pop	edi
	pop	esi

; 3891 :    return(tok = NEWIDENT_TOK) ;

	mov	DWORD PTR _tok, eax
	pop	ebx

; 3892 : } /* end identcase() */

	mov	esp, ebp
	pop	ebp
	ret	0
$LN222@identcase:

; 3635 :     }
; 3636 : 
; 3637 :     /* kludges for some backward compatibility */
; 3638 :     if ( strcmp(lexeme,"vertexnormal") == 0 )

	sbb	eax, eax
	sbb	eax, -1
$LN224@identcase:
	test	eax, eax
	jne	SHORT $LN117@identcase

; 3639 :       strcpy(lexeme,"vertex_normal");

	mov	edx, DWORD PTR ??_C@_0O@LBCEPFPF@vertex_normal?$AA@
	mov	DWORD PTR [ebx], edx
	mov	eax, DWORD PTR ??_C@_0O@LBCEPFPF@vertex_normal?$AA@+4
	mov	DWORD PTR [ebx+4], eax
	mov	ecx, DWORD PTR ??_C@_0O@LBCEPFPF@vertex_normal?$AA@+8
	mov	DWORD PTR [ebx+8], ecx
	mov	dx, WORD PTR ??_C@_0O@LBCEPFPF@vertex_normal?$AA@+12
	mov	WORD PTR [ebx+12], dx
$LN117@identcase:

; 3640 :     if ( lexeme[0] == '_' )

	cmp	BYTE PTR [ebx], 95			; 0000005fH
	jne	$LN108@identcase

; 3641 :     {
; 3642 :       if ( strcmp(lexeme,"__vertex_normal") == 0 )

	mov	ecx, OFFSET ??_C@_0BA@BAIGEPJG@__vertex_normal?$AA@
	mov	eax, ebx
$LL225@identcase:
	mov	dl, BYTE PTR [eax]
	cmp	dl, BYTE PTR [ecx]
	jne	SHORT $LN226@identcase
	test	dl, dl
	je	SHORT $LN261@identcase
	mov	dl, BYTE PTR [eax+1]
	cmp	dl, BYTE PTR [ecx+1]
	jne	SHORT $LN226@identcase
	add	eax, 2
	add	ecx, 2
	test	dl, dl
	jne	SHORT $LL225@identcase
$LN261@identcase:
	xor	eax, eax
	jmp	SHORT $LN228@identcase
$LN226@identcase:
	sbb	eax, eax
	sbb	eax, -1
$LN228@identcase:
	test	eax, eax
	jne	SHORT $LN115@identcase

; 3643 :         strcpy(lexeme,"vertex_normal");

	mov	eax, DWORD PTR ??_C@_0O@LBCEPFPF@vertex_normal?$AA@
	mov	DWORD PTR [ebx], eax
	mov	ecx, DWORD PTR ??_C@_0O@LBCEPFPF@vertex_normal?$AA@+4
	mov	DWORD PTR [ebx+4], ecx
	mov	edx, DWORD PTR ??_C@_0O@LBCEPFPF@vertex_normal?$AA@+8
	mov	DWORD PTR [ebx+8], edx
	mov	ax, WORD PTR ??_C@_0O@LBCEPFPF@vertex_normal?$AA@+12
	mov	WORD PTR [ebx+12], ax
$LN115@identcase:

; 3644 :       if ( strcmp(lexeme,"__edge_vector") == 0 )

	mov	ecx, OFFSET ??_C@_0O@DLNIAJPK@__edge_vector?$AA@
	mov	eax, ebx
	npad	7
$LL229@identcase:
	mov	dl, BYTE PTR [eax]
	cmp	dl, BYTE PTR [ecx]
	jne	SHORT $LN230@identcase
	test	dl, dl
	je	SHORT $LN262@identcase
	mov	dl, BYTE PTR [eax+1]
	cmp	dl, BYTE PTR [ecx+1]
	jne	SHORT $LN230@identcase
	add	eax, 2
	add	ecx, 2
	test	dl, dl
	jne	SHORT $LL229@identcase
$LN262@identcase:
	xor	eax, eax
	jmp	SHORT $LN232@identcase
$LN230@identcase:
	sbb	eax, eax
	sbb	eax, -1
$LN232@identcase:
	test	eax, eax
	jne	SHORT $LN114@identcase

; 3645 :         strcpy(lexeme,"edge_vector");

	mov	ecx, DWORD PTR ??_C@_0M@MONDCLHN@edge_vector?$AA@
	mov	DWORD PTR [ebx], ecx
	mov	edx, DWORD PTR ??_C@_0M@MONDCLHN@edge_vector?$AA@+4
	mov	DWORD PTR [ebx+4], edx
	mov	eax, DWORD PTR ??_C@_0M@MONDCLHN@edge_vector?$AA@+8
	mov	DWORD PTR [ebx+8], eax
$LN114@identcase:

; 3646 :       if ( strcmp(lexeme,"__facet_normal") == 0 )

	mov	ecx, OFFSET ??_C@_0P@KJNKFOHM@__facet_normal?$AA@
	mov	eax, ebx
	npad	7
$LL233@identcase:
	mov	dl, BYTE PTR [eax]
