; Listing generated by Microsoft (R) Optimizing Compiler Version 16.00.40219.01 

	TITLE	C:\levolver\yonkang-sefit\levolver\ev_ogl\METHOD1.C
	.686P
	.XMM
	include listing.inc
	.model	flat

INCLUDELIB LIBCMT
INCLUDELIB OLDNAMES

PUBLIC	_get_fe_facet
EXTRN	_web:BYTE
EXTRN	_NULLFACET:DWORD
; Function compile flags: /Ogtp
; File c:\levolver\yonkang-sefit\levolver\ev_ogl\inline.h
;	COMDAT _get_fe_facet
_TEXT	SEGMENT
_fe_id$ = 8						; size = 4
_get_fe_facet PROC					; COMDAT

; 58   : {

	push	ebp
	mov	ebp, esp

; 59   :   facet_id f_id;
; 60   :   
; 61   :   if ( !valid_id(fe_id) ) return NULLFACET;

	mov	ecx, DWORD PTR _fe_id$[ebp]
	test	ecx, 268435456				; 10000000H
	jne	SHORT $LN2@get_fe_fac
	mov	eax, DWORD PTR _NULLFACET

; 64   :   return f_id;
; 65   : }

	pop	ebp
	ret	0
$LN2@get_fe_fac:

; 62   :   f_id = feptr(fe_id)->fe_facet_id;

	mov	edx, DWORD PTR _web+460
	mov	eax, ecx
	and	eax, 134217727				; 07ffffffH
	mov	eax, DWORD PTR [edx+eax*4]
	mov	eax, DWORD PTR [eax+24]

; 63   :   if ( inverted(fe_id) ) invert(f_id);

	test	ecx, 134217728				; 08000000H
	je	SHORT $LN3@get_fe_fac
	xor	eax, 134217728				; 08000000H
$LN3@get_fe_fac:

; 64   :   return f_id;
; 65   : }

	pop	ebp
	ret	0
_get_fe_facet ENDP
_TEXT	ENDS
PUBLIC	_get_next_facet
; Function compile flags: /Ogtp
;	COMDAT _get_next_facet
_TEXT	SEGMENT
_fe_id$ = 8						; size = 4
_get_next_facet PROC					; COMDAT

; 92   : {

	push	ebp
	mov	ebp, esp

; 93   :   if ( inverted(fe_id) ) 

	mov	eax, DWORD PTR _fe_id$[ebp]

; 94   :     return inverse_id(feptr(fe_id)->nextfacet[0]);

	mov	ecx, DWORD PTR _web+460
	test	eax, 134217728				; 08000000H
	je	SHORT $LN2@get_next_f
	and	eax, 134217727				; 07ffffffH
	mov	edx, DWORD PTR [ecx+eax*4]
	mov	eax, DWORD PTR [edx+36]
	xor	eax, 134217728				; 08000000H

; 97   : }

	pop	ebp
	ret	0
$LN2@get_next_f:

; 95   :   else 
; 96   :     return feptr(fe_id)->nextfacet[1];

	and	eax, 134217727				; 07ffffffH
	mov	edx, DWORD PTR [ecx+eax*4]
	mov	eax, DWORD PTR [edx+40]

; 97   : }

	pop	ebp
	ret	0
_get_next_facet ENDP
_TEXT	ENDS
PUBLIC	_get_edge_wrap
EXTRN	_sym_inverse:DWORD
EXTRN	_dymem:DWORD
; Function compile flags: /Ogtp
;	COMDAT _get_edge_wrap
_TEXT	SEGMENT
_e_id$ = 8						; size = 4
_get_edge_wrap PROC					; COMDAT

; 163  : {

	push	ebp
	mov	ebp, esp

; 164  :   WRAPTYPE wrap = *EINT(e_id,E_WRAP_ATTR) ;

	mov	ecx, DWORD PTR _e_id$[ebp]
	mov	edx, DWORD PTR _web+124
	mov	eax, ecx
	and	eax, 134217727				; 07ffffffH
	mov	eax, DWORD PTR [edx+eax*4]
	mov	edx, DWORD PTR _web+216
	push	esi
	mov	esi, DWORD PTR _dymem
	mov	edx, DWORD PTR [edx+esi+784]
	mov	eax, DWORD PTR [eax+edx]
	pop	esi

; 165  :   return    ( inverted(e_id) ? (*sym_inverse)(wrap) : wrap );

	test	ecx, 134217728				; 08000000H
	je	SHORT $LN4@get_edge_w
	push	eax
	call	DWORD PTR _sym_inverse
	add	esp, 4
$LN4@get_edge_w:

; 166  : }

	pop	ebp
	ret	0
_get_edge_wrap ENDP
_TEXT	ENDS
PUBLIC	_get_edge_fe
; Function compile flags: /Ogtp
;	COMDAT _get_edge_fe
_TEXT	SEGMENT
_e_id$ = 8						; size = 4
_get_edge_fe PROC					; COMDAT

; 179  : {   struct edge *ep;

	push	ebp
	mov	ebp, esp

; 180  :     facetedge_id fe;
; 181  : 
; 182  :  	ep = eptr(e_id);

	mov	ecx, DWORD PTR _e_id$[ebp]
	mov	edx, DWORD PTR _web+124
	mov	eax, ecx
	and	eax, 134217727				; 07ffffffH
	mov	eax, DWORD PTR [edx+eax*4]

; 183  :     if ( !ep ) return NULLID;

	test	eax, eax
	jne	SHORT $LN2@get_edge_f

; 186  :     return fe;
; 187  : }

	pop	ebp
	ret	0
$LN2@get_edge_f:

; 184  :     fe = ep->fe_id; 

	mov	eax, DWORD PTR [eax+28]

; 185  :     if ( inverted(e_id) ) invert(fe);

	test	ecx, 134217728				; 08000000H
	je	SHORT $LN3@get_edge_f
	xor	eax, 134217728				; 08000000H
$LN3@get_edge_f:

; 186  :     return fe;
; 187  : }

	pop	ebp
	ret	0
_get_edge_fe ENDP
_TEXT	ENDS
PUBLIC	_get_facet_body
; Function compile flags: /Ogtp
;	COMDAT _get_facet_body
_TEXT	SEGMENT
_f_id$ = 8						; size = 4
_get_facet_body PROC					; COMDAT

; 250  : {

	push	ebp
	mov	ebp, esp

; 251  :   if ( web.skel[BODY].count == 0 ) return NULLID;

	cmp	DWORD PTR _web+400, 0
	jne	SHORT $LN4@get_facet_
$LN7@get_facet_:
	xor	eax, eax

; 255  : }

	pop	ebp
	ret	0
$LN4@get_facet_:

; 252  :   if ( !valid_id(f_id) ) return NULLID;

	mov	eax, DWORD PTR _f_id$[ebp]
	test	eax, 268435456				; 10000000H
	je	SHORT $LN7@get_facet_

; 253  :   if ( inverted(f_id) ) return F_ELID(f_id,F_BODY_LIST_ATTR)[1];

	mov	ecx, DWORD PTR _web+236
	test	eax, 134217728				; 08000000H
	je	SHORT $LN2@get_facet_
	and	eax, 134217727				; 07ffffffH
	mov	edx, DWORD PTR [ecx+eax*4]
	mov	eax, DWORD PTR _web+328
	mov	ecx, DWORD PTR _dymem
	mov	eax, DWORD PTR [eax+ecx+784]
	mov	eax, DWORD PTR [edx+eax+4]

; 255  : }

	pop	ebp
	ret	0
$LN2@get_facet_:

; 254  :   else  return F_ELID(f_id,F_BODY_LIST_ATTR)[0];

	and	eax, 134217727				; 07ffffffH
	mov	edx, DWORD PTR [ecx+eax*4]
	mov	eax, DWORD PTR _web+328
	mov	ecx, DWORD PTR _dymem
	mov	eax, DWORD PTR [eax+ecx+784]
	mov	eax, DWORD PTR [edx+eax]

; 255  : }

	pop	ebp
	ret	0
_get_facet_body ENDP
_TEXT	ENDS
PUBLIC	_get_extra
; Function compile flags: /Ogtp
;	COMDAT _get_extra
_TEXT	SEGMENT
_id$ = 8						; size = 4
_n$ = 12						; size = 4
_get_extra PROC						; COMDAT

; 348  : { int type = id_type(id);

	push	ebp
	mov	ebp, esp

; 349  : 
; 350  :   return ( (char*)elptr(id) + EXTRAS(type)[n].offset);

	mov	ecx, DWORD PTR _id$[ebp]
	mov	eax, ecx
	push	esi
	mov	esi, DWORD PTR _n$[ebp]
	shr	eax, 29					; 0000001dH
	imul	esi, 240				; 000000f0H
	imul	eax, 112				; 00000070H
	mov	edx, DWORD PTR _web[eax+12]
	push	edi
	mov	edi, DWORD PTR _web[eax+104]
	and	ecx, 134217727				; 07ffffffH
	mov	eax, DWORD PTR [edx+ecx*4]
	mov	ecx, DWORD PTR _dymem
	add	edi, esi
	add	eax, DWORD PTR [edi+ecx+64]
	pop	edi
	pop	esi

; 351  : }

	pop	ebp
	ret	0
_get_extra ENDP
_TEXT	ENDS
PUBLIC	__real@0000000000000000
PUBLIC	_null_length_grad
EXTRN	__fltused:DWORD
;	COMDAT __real@0000000000000000
; File c:\levolver\yonkang-sefit\levolver\ev_ogl\method1.c
CONST	SEGMENT
__real@0000000000000000 DQ 00000000000000000r	; 0
; Function compile flags: /Ogtp
CONST	ENDS
;	COMDAT _null_length_grad
_TEXT	SEGMENT
_e_info$ = 8						; size = 4
_null_length_grad PROC					; COMDAT

; 24   : { return 0.0;

	fldz

; 25   : }

	ret	0
_null_length_grad ENDP
_TEXT	ENDS
PUBLIC	_null_length_hess
; Function compile flags: /Ogtp
;	COMDAT _null_length_hess
_TEXT	SEGMENT
_e_info$ = 8						; size = 4
_null_length_hess PROC					; COMDAT

; 27   : { return 0.0;

	fldz

; 28   : }

	ret	0
_null_length_hess ENDP
_TEXT	ENDS
PUBLIC	_null_area_value
EXTRN	_q_facet_tension_value:PROC
; Function compile flags: /Ogtp
;	COMDAT _null_area_value
_TEXT	SEGMENT
_f_info$ = 8						; size = 4
_null_area_value PROC					; COMDAT

; 34   : { q_facet_tension_value(f_info);

	push	ebp
	mov	ebp, esp
	mov	eax, DWORD PTR _f_info$[ebp]
	push	eax
	call	_q_facet_tension_value
	fstp	ST(0)

; 35   :   return 0.0;

	fldz
	add	esp, 4

; 36   : }

	pop	ebp
	ret	0
_null_area_value ENDP
_TEXT	ENDS
PUBLIC	_null_area_grad
; Function compile flags: /Ogtp
;	COMDAT _null_area_grad
_TEXT	SEGMENT
_f_info$ = 8						; size = 4
_null_area_grad PROC					; COMDAT

; 38   : { return 0.0;

	fldz

; 39   : }

	ret	0
_null_area_grad ENDP
_TEXT	ENDS
PUBLIC	_null_area_hess
; Function compile flags: /Ogtp
;	COMDAT _null_area_hess
_TEXT	SEGMENT
_f_info$ = 8						; size = 4
_null_area_hess PROC					; COMDAT

; 41   : { return 0.0;

	fldz

; 42   : }

	ret	0
_null_area_hess ENDP
_TEXT	ENDS
PUBLIC	_vertex_scalar_integral_init
; Function compile flags: /Ogtp
;	COMDAT _vertex_scalar_integral_init
_TEXT	SEGMENT
_mode$ = 8						; size = 4
_mi$ = 12						; size = 4
_vertex_scalar_integral_init PROC			; COMDAT

; 62   : }

	ret	0
_vertex_scalar_integral_init ENDP
_TEXT	ENDS
PUBLIC	_vertex_scalar_integral
EXTRN	_gen_quant_list:DWORD
EXTRN	_eval:PROC
EXTRN	_meth_inst_list:DWORD
; Function compile flags: /Ogtp
;	COMDAT _vertex_scalar_integral
_TEXT	SEGMENT
_area$ = -12						; size = 8
_b_id$89060 = -4					; size = 4
_fe_id$89064 = 8					; size = 4
_v_info$ = 8						; size = 4
_vertex_scalar_integral PROC				; COMDAT

; 73   : { REAL area;

	push	ebp
	mov	ebp, esp
	sub	esp, 12					; 0000000cH
	push	esi
	push	edi

; 74   :   struct method_instance *mi = METH_INSTANCE(v_info->method);

	mov	edi, DWORD PTR _v_info$[ebp]
	mov	eax, DWORD PTR [edi+8]

; 75   :   
; 76   :   area = eval(mi->expr[0],v_info->x[0],v_info->id, NULL);

	mov	ecx, DWORD PTR [edi+416]
	cdq
	mov	esi, eax
	mov	eax, DWORD PTR [edi]
	xor	esi, edx
	sub	esi, edx
	imul	esi, 2928				; 00000b70H
	add	esi, DWORD PTR _meth_inst_list
	push	0
	mov	edx, DWORD PTR [esi+232]
	push	eax
	push	ecx
	push	edx
	call	_eval
	add	esp, 16					; 00000010H

; 77   : 
; 78   :   if ( mi->flags & DEFAULT_INSTANCE )

	test	DWORD PTR [esi+140], 4194304		; 00400000H
	fstp	QWORD PTR _area$[ebp]
	je	$LN3@vertex_sca

; 79   :   { /* add to facet area */
; 80   :     body_id b_id,bb_id;
; 81   :     edge_id e_id = get_vertex_edge(v_info->id);

	mov	eax, DWORD PTR [edi]
	mov	ecx, DWORD PTR _web+12
	and	eax, 134217727				; 07ffffffH
	mov	edx, DWORD PTR [ecx+eax*4]
	mov	ecx, DWORD PTR [edx+28]

; 82   :     facetedge_id fe_id = get_edge_fe(e_id);

	mov	edx, DWORD PTR _web+124
	mov	eax, ecx
	and	eax, 134217727				; 07ffffffH
	mov	eax, DWORD PTR [edx+eax*4]
	test	eax, eax
	jne	SHORT $LN16@vertex_sca
	xor	edi, edi
	mov	DWORD PTR _fe_id$89064[ebp], edi
	jmp	SHORT $LN17@vertex_sca
$LN16@vertex_sca:
	mov	eax, DWORD PTR [eax+28]
	test	ecx, 134217728				; 08000000H
	je	SHORT $LN15@vertex_sca
	xor	eax, 134217728				; 08000000H
$LN15@vertex_sca:
	mov	DWORD PTR _fe_id$89064[ebp], eax
	mov	edi, eax
$LN17@vertex_sca:

; 83   :     facetedge_id fe;
; 84   :     facet_id f_id;
; 85   : 
; 86   :     if ( !valid_id(e_id) || !valid_id(fe_id) )

	test	ecx, 268435456				; 10000000H
	je	$LN6@vertex_sca
	test	edi, 268435456				; 10000000H
	je	$LN6@vertex_sca

; 88   :     b_id = GEN_QUANT(mi->quants[0])->b_id;

	mov	eax, DWORD PTR [esi+152]
	mov	ecx, DWORD PTR _gen_quant_list
	imul	eax, 368				; 00000170H
	mov	edx, DWORD PTR [eax+ecx+216]
	push	ebx

; 89   :     fe = fe_id;

	mov	ebx, DWORD PTR _web+460
	mov	DWORD PTR _b_id$89060[ebp], edx
	npad	3
$LL5@vertex_sca:

; 90   :     do
; 91   :     { f_id = get_fe_facet(fe);

	test	edi, 268435456				; 10000000H
	jne	SHORT $LN20@vertex_sca
	mov	esi, DWORD PTR _NULLFACET
	jmp	SHORT $LN19@vertex_sca
$LN20@vertex_sca:
	mov	eax, edi
	and	eax, 134217727				; 07ffffffH
	mov	ecx, DWORD PTR [ebx+eax*4]
	mov	esi, DWORD PTR [ecx+24]
	test	edi, 134217728				; 08000000H
	je	SHORT $LN19@vertex_sca
	xor	esi, 134217728				; 08000000H
$LN19@vertex_sca:

; 92   :       bb_id = get_facet_body(f_id);

	push	esi
	call	_get_facet_body
	add	esp, 4

; 93   :       if ( equal_id(b_id,bb_id) )

	cmp	DWORD PTR _b_id$89060[ebp], eax
	jne	SHORT $LN30@vertex_sca

; 94   :          add_facet_area(f_id,-area);

	fld	QWORD PTR _area$[ebp]
	fchs
	test	esi, 134217728				; 08000000H
	je	SHORT $LN12@vertex_sca
	fchs
$LN12@vertex_sca:
	mov	eax, DWORD PTR _web+236
	mov	edx, esi
	and	edx, 134217727				; 07ffffffH
	mov	eax, DWORD PTR [eax+edx*4]
	fadd	QWORD PTR [eax+40]
	fstp	QWORD PTR [eax+40]
	mov	ebx, DWORD PTR _web+460
$LN30@vertex_sca:

; 95   :       bb_id = get_facet_body(inverse_id(f_id));

	mov	ecx, esi
	xor	ecx, 134217728				; 08000000H
	push	ecx
	call	_get_facet_body
	add	esp, 4

; 96   :       if ( equal_id(b_id,bb_id) )

	cmp	DWORD PTR _b_id$89060[ebp], eax
	jne	SHORT $LN28@vertex_sca

; 97   :          add_facet_area(f_id,-area);

	fld	QWORD PTR _area$[ebp]
	fchs
	test	esi, 134217728				; 08000000H
	je	SHORT $LN14@vertex_sca
	fchs
$LN14@vertex_sca:
	mov	edx, DWORD PTR _web+236
	and	esi, 134217727				; 07ffffffH
	mov	esi, DWORD PTR [edx+esi*4]
	fadd	QWORD PTR [esi+40]
	fstp	QWORD PTR [esi+40]
	mov	ebx, DWORD PTR _web+460
$LN28@vertex_sca:

; 98   :       fe = get_next_facet(fe);

	test	edi, 134217728				; 08000000H
	je	SHORT $LN24@vertex_sca
	and	edi, 134217727				; 07ffffffH
	mov	eax, DWORD PTR [ebx+edi*4]
	mov	edi, DWORD PTR [eax+36]
	xor	edi, 134217728				; 08000000H
	jmp	SHORT $LN4@vertex_sca
$LN24@vertex_sca:
	and	edi, 134217727				; 07ffffffH
	mov	ecx, DWORD PTR [ebx+edi*4]
	mov	edi, DWORD PTR [ecx+40]
$LN4@vertex_sca:

; 99   :     } while ( !equal_id(fe,fe_id) );

	cmp	edi, DWORD PTR _fe_id$89064[ebp]
	jne	$LL5@vertex_sca
	pop	ebx
$LN3@vertex_sca:

; 100  :   }
; 101  : 
; 102  :   return area;

	fld	QWORD PTR _area$[ebp]
	pop	edi
	pop	esi

; 103  : } // end vertex_scalar_integral()

	mov	esp, ebp
	pop	ebp
	ret	0
$LN6@vertex_sca:

; 87   :       return 0.0;

	fldz
	pop	edi
	pop	esi

; 103  : } // end vertex_scalar_integral()

	mov	esp, ebp
	pop	ebp
	ret	0
_vertex_scalar_integral ENDP
_TEXT	ENDS
PUBLIC	_vertex_scalar_integral_grad
EXTRN	_eval_all:PROC
; Function compile flags: /Ogtp
;	COMDAT _vertex_scalar_integral_grad
_TEXT	SEGMENT
_value$ = -8						; size = 8
_v_info$ = 8						; size = 4
_vertex_scalar_integral_grad PROC			; COMDAT

; 114  : { REAL value = 0.0;

	push	ebp
	mov	ebp, esp
	sub	esp, 8

; 115  :   struct method_instance *mi = METH_INSTANCE(v_info->method);
; 116  : 
; 117  :   eval_all(mi->expr[0],v_info->x[0],SDIM,&value,
; 118  :      v_info->grad[0],v_info->id);

	mov	eax, DWORD PTR _v_info$[ebp]
	fldz
	mov	ecx, DWORD PTR [eax]
	fstp	QWORD PTR _value$[ebp]
	mov	edx, DWORD PTR [eax+1336]
	push	ecx
	mov	ecx, DWORD PTR [edx]
	push	ecx
	mov	ecx, DWORD PTR _web+616
	lea	edx, DWORD PTR _value$[ebp]
	push	edx
	mov	edx, DWORD PTR [eax+416]
	mov	eax, DWORD PTR [eax+8]
	push	ecx
	mov	ecx, DWORD PTR _meth_inst_list
	push	edx
	cdq
	xor	eax, edx
	sub	eax, edx
	imul	eax, 2928				; 00000b70H
	mov	edx, DWORD PTR [eax+ecx+232]
	push	edx
	call	_eval_all
	add	esp, 24					; 00000018H

; 119  : 
; 120  :   return value;

	fld	QWORD PTR _value$[ebp]

; 121  : } // end vertex_scalar_integral_grad()

	mov	esp, ebp
	pop	ebp
	ret	0
_vertex_scalar_integral_grad ENDP
_TEXT	ENDS
PUBLIC	_vertex_scalar_integral_hess
EXTRN	_eval_second:PROC
; Function compile flags: /Ogtp
;	COMDAT _vertex_scalar_integral_hess
_TEXT	SEGMENT
_value$ = -8						; size = 8
_v_info$ = 8						; size = 4
_vertex_scalar_integral_hess PROC			; COMDAT

; 132  : { 

	push	ebp
	mov	ebp, esp
	sub	esp, 8

; 133  :   REAL value = 0.0;
; 134  :   struct method_instance *mi = METH_INSTANCE(v_info->method); 
; 135  : 
; 136  :   eval_second(mi->expr[0],v_info->x[0],SDIM,&value,
; 137  :         v_info->grad[0], v_info->hess[0][0],v_info->id);

	mov	eax, DWORD PTR _v_info$[ebp]
	fldz
	mov	ecx, DWORD PTR [eax]
	fstp	QWORD PTR _value$[ebp]
	mov	edx, DWORD PTR [eax+1340]
	push	ecx
	mov	ecx, DWORD PTR [edx]
	mov	edx, DWORD PTR [ecx]
	mov	ecx, DWORD PTR [eax+1336]
	push	edx
	mov	edx, DWORD PTR [ecx]
	push	edx
	mov	edx, DWORD PTR _web+616
	lea	ecx, DWORD PTR _value$[ebp]
	push	ecx
	mov	ecx, DWORD PTR [eax+416]
	mov	eax, DWORD PTR [eax+8]
	push	edx
	cdq
	xor	eax, edx
	sub	eax, edx
	mov	edx, DWORD PTR _meth_inst_list
	imul	eax, 2928				; 00000b70H
	mov	eax, DWORD PTR [eax+edx+232]
	push	ecx
	push	eax
	call	_eval_second
	add	esp, 28					; 0000001cH

; 138  :   return value;

	fld	QWORD PTR _value$[ebp]

; 139  : } // end vertex_scalar_integral_hess()

	mov	esp, ebp
	pop	ebp
	ret	0
_vertex_scalar_integral_hess ENDP
_TEXT	ENDS
PUBLIC	_q_edge_tension_init
; Function compile flags: /Ogtp
;	COMDAT _q_edge_tension_init
_TEXT	SEGMENT
_mode$ = 8						; size = 4
_mi$ = 12						; size = 4
_q_edge_tension_init PROC				; COMDAT

; 159  : }

	ret	0
_q_edge_tension_init ENDP
_TEXT	ENDS
PUBLIC	_e_info$GSCopy$
PUBLIC	__$ArrayPad$
PUBLIC	_edge_length_q_value
EXTRN	_binary_tree_add:PROC
EXTRN	_proc_total_area:BYTE
EXTRN	_win_get_thread_data:PROC
EXTRN	_thread_data_key:DWORD
EXTRN	_nprocs:DWORD
EXTRN	_gauss1Dwt:DWORD
EXTRN	_dot:PROC
EXTRN	_gauss1polyd:DWORD
EXTRN	_edge_ctrl:DWORD
EXTRN	_gauss1D_num:DWORD
EXTRN	___security_cookie:DWORD
EXTRN	@__security_check_cookie@4:PROC
EXTRN	__CIsqrt:PROC
; Function compile flags: /Ogtp
;	COMDAT _edge_length_q_value
_TEXT	SEGMENT
_mi$ = -76						; size = 4
_k$ = -72						; size = 4
_value$ = -68						; size = 8
tv987 = -60						; size = 4
_e_info$GSCopy$ = -56					; size = 4
_tang$ = -52						; size = 48
__$ArrayPad$ = -4					; size = 4
_e_info$ = 8						; size = 4
_edge_length_q_value PROC				; COMDAT

; 290  : { int j,k,m;

	push	ebp
	mov	ebp, esp
	sub	esp, 76					; 0000004cH
	mov	eax, DWORD PTR ___security_cookie
	xor	eax, ebp
	mov	DWORD PTR __$ArrayPad$[ebp], eax
	push	ebx

; 291  :   REAL value = 0.0;

	fldz
	push	esi
	fld	ST(0)
	push	edi
	fst	QWORD PTR _value$[ebp]
	mov	edi, DWORD PTR _e_info$[ebp]

; 292  :   REAL tang[MAXCOORD];
; 293  :   struct method_instance *mi = METH_INSTANCE(e_info->method);

	mov	eax, DWORD PTR [edi+8]
	cdq
	mov	ebx, eax
	xor	ebx, edx
	sub	ebx, edx
	imul	ebx, 2928				; 00000b70H
	add	ebx, DWORD PTR _meth_inst_list

; 294  : 
; 295  :   for ( m = 0 ; m < gauss1D_num ; m++ )

	xor	esi, esi
	mov	DWORD PTR _e_info$GSCopy$[ebp], edi
	mov	DWORD PTR _mi$[ebp], ebx
	cmp	DWORD PTR _gauss1D_num, esi
	jle	$LN31@edge_lengt
	fstp	ST(0)
	jmp	SHORT $LN13@edge_lengt
	npad	5
$LL62@edge_lengt:
	fstp	ST(0)
	fldz
$LN13@edge_lengt:

; 296  :   { for ( j = 0 ; j < SDIM ; j ++ )

	mov	ecx, DWORD PTR _web+616
	xor	eax, eax
	test	ecx, ecx
	jle	$LN35@edge_lengt
	mov	ebx, DWORD PTR _edge_ctrl
$LN29@edge_lengt:

; 298  :       for ( k = 0 ; k < edge_ctrl ; k++ )

	xor	ecx, ecx
	fst	QWORD PTR _tang$[ebp+eax*8]
	cmp	ebx, 4
	jl	$LC23@edge_lengt

; 297  :     { tang[j] = 0.0;

	mov	edx, DWORD PTR _gauss1polyd
	lea	ecx, DWORD PTR [edi+420]
	lea	edi, DWORD PTR [ebx-4]
	shr	edi, 2
	inc	edi
	mov	DWORD PTR tv987[ebp], edi
	add	edi, edi
	add	edx, 8
	add	edi, edi
	mov	DWORD PTR _k$[ebp], edi

; 298  :       for ( k = 0 ; k < edge_ctrl ; k++ )

$LN24@edge_lengt:

; 299  :          tang[j] += gauss1polyd[k][m]*e_info->x[k][j];

	mov	edi, DWORD PTR [edx-8]
	fld	QWORD PTR [edi+esi*8]
	mov	ebx, DWORD PTR [ecx-4]
	fmul	QWORD PTR [ebx+eax*8]
	mov	ebx, DWORD PTR [ecx]
	add	ecx, 16					; 00000010H
	add	edx, 16					; 00000010H
	dec	DWORD PTR tv987[ebp]
	fadd	QWORD PTR _tang$[ebp+eax*8]
	fst	QWORD PTR _tang$[ebp+eax*8]
	mov	edi, DWORD PTR [edx-20]
	fld	QWORD PTR [edi+esi*8]
	mov	edi, DWORD PTR [ecx-12]
	fmul	QWORD PTR [ebx+eax*8]
	faddp	ST(1), ST(0)
	fst	QWORD PTR _tang$[ebp+eax*8]
	mov	ebx, DWORD PTR [edx-16]
	fld	QWORD PTR [edi+eax*8]
	fmul	QWORD PTR [ebx+esi*8]
	mov	ebx, DWORD PTR [ecx-8]
	faddp	ST(1), ST(0)
	fst	QWORD PTR _tang$[ebp+eax*8]
	mov	edi, DWORD PTR [edx-12]
	fld	QWORD PTR [edi+esi*8]
	fmul	QWORD PTR [ebx+eax*8]
	faddp	ST(1), ST(0)
	fstp	QWORD PTR _tang$[ebp+eax*8]
	jne	SHORT $LN24@edge_lengt

; 297  :     { tang[j] = 0.0;

	mov	ecx, DWORD PTR _k$[ebp]
	mov	edi, DWORD PTR _e_info$GSCopy$[ebp]
	mov	ebx, DWORD PTR _edge_ctrl
$LC23@edge_lengt:

; 298  :       for ( k = 0 ; k < edge_ctrl ; k++ )

	cmp	ecx, ebx
	jge	SHORT $LN9@edge_lengt
	lea	edi, DWORD PTR [edi+ecx*4+416]
$LN27@edge_lengt:

; 299  :          tang[j] += gauss1polyd[k][m]*e_info->x[k][j];

	mov	edx, DWORD PTR _gauss1polyd
	mov	edx, DWORD PTR [edx+ecx*4]
	mov	ebx, DWORD PTR [edi]
	fld	QWORD PTR [edx+esi*8]
	fmul	QWORD PTR [ebx+eax*8]
	mov	ebx, DWORD PTR _edge_ctrl
	inc	ecx
	add	edi, 4
	fadd	QWORD PTR _tang$[ebp+eax*8]
	fstp	QWORD PTR _tang$[ebp+eax*8]
	cmp	ecx, ebx
	jl	SHORT $LN27@edge_lengt

; 298  :       for ( k = 0 ; k < edge_ctrl ; k++ )

	mov	edi, DWORD PTR _e_info$GSCopy$[ebp]
$LN9@edge_lengt:

; 296  :   { for ( j = 0 ; j < SDIM ; j ++ )

	mov	ecx, DWORD PTR _web+616
	inc	eax
	cmp	eax, ecx
	jl	$LN29@edge_lengt
	mov	ebx, DWORD PTR _mi$[ebp]
$LN35@edge_lengt:

; 300  :     }
; 301  :     value += gauss1Dwt[m]*sqrt(SDIM_dot(tang,tang));

	push	ecx
	fstp	ST(0)
	lea	eax, DWORD PTR _tang$[ebp]
	push	eax
	mov	ecx, eax
	push	ecx
	call	_dot
	add	esp, 12					; 0000000cH
	call	__CIsqrt
	mov	edx, DWORD PTR _gauss1Dwt
	fmul	QWORD PTR [edx+esi*8]
	inc	esi
	fadd	QWORD PTR _value$[ebp]
	fst	QWORD PTR _value$[ebp]
	cmp	esi, DWORD PTR _gauss1D_num
	jl	$LL62@edge_lengt

; 294  : 
; 295  :   for ( m = 0 ; m < gauss1D_num ; m++ )

	jmp	SHORT $LN11@edge_lengt
$LN31@edge_lengt:
	fstp	ST(1)
$LN11@edge_lengt:

; 302  :   }
; 303  :   if ( mi->flags & DEFAULT_INSTANCE )

	test	DWORD PTR [ebx+140], 4194304		; 00400000H
	je	SHORT $LN4@edge_lengt

; 304  :   {
; 305  : #ifdef SHARED_MEMORY
; 306  :      if ( nprocs > 1 ) 

	cmp	DWORD PTR _nprocs, 1
	jle	SHORT $LN3@edge_lengt

; 307  :       proc_total_area[GET_THREAD_ID] += value;

	mov	eax, DWORD PTR _thread_data_key
	fstp	ST(0)
	push	eax
	call	_win_get_thread_data
	mov	eax, DWORD PTR [eax]
	fld	QWORD PTR _proc_total_area[eax*8]
	add	esp, 4
	fld	QWORD PTR _value$[ebp]
	fadd	ST(1), ST(0)
	fxch	ST(1)
	fstp	QWORD PTR _proc_total_area[eax*8]

; 308  :      else

	jmp	SHORT $LN2@edge_lengt
$LN3@edge_lengt:

; 309  : #endif
; 310  :      binary_tree_add(web.total_area_addends,value);

	sub	esp, 8
	fstp	QWORD PTR [esp]
	push	OFFSET _web+1000
	call	_binary_tree_add
	fld	QWORD PTR _value$[ebp]
	add	esp, 12					; 0000000cH
$LN2@edge_lengt:

; 311  :      set_edge_length(e_info->id,value); 

	mov	ecx, DWORD PTR [edi]
	mov	edx, DWORD PTR _web+124
	and	ecx, 134217727				; 07ffffffH
	mov	eax, DWORD PTR [edx+ecx*4]
	fst	QWORD PTR [eax+48]
$LN4@edge_lengt:

; 312  :   }
; 313  :   if ( mi->flags & USE_DENSITY )

	test	DWORD PTR [ebx+140], 536870912		; 20000000H
	je	SHORT $LN1@edge_lengt

; 314  :       value *= get_edge_density(e_info->id);

	mov	ecx, DWORD PTR [edi]
	mov	edx, DWORD PTR _web+124
	and	ecx, 134217727				; 07ffffffH
	mov	eax, DWORD PTR [edx+ecx*4]
	fmul	QWORD PTR [eax+40]
$LN1@edge_lengt:

; 315  :   return value;
; 316  : } // end edge_length_q_value()

	mov	ecx, DWORD PTR __$ArrayPad$[ebp]
	pop	edi
	pop	esi
	xor	ecx, ebp
	pop	ebx
	call	@__security_check_cookie@4
	mov	esp, ebp
	pop	ebp
	ret	0
_edge_length_q_value ENDP
_TEXT	ENDS
PUBLIC	__real@3ff0000000000000
PUBLIC	_e_info$GSCopy$
PUBLIC	__$ArrayPad$
PUBLIC	_edge_length_q_grad
;	COMDAT __real@3ff0000000000000
CONST	SEGMENT
__real@3ff0000000000000 DQ 03ff0000000000000r	; 1
; Function compile flags: /Ogtp
CONST	ENDS
;	COMDAT _edge_length_q_grad
_TEXT	SEGMENT
_density$ = -80						; size = 8
_value$ = -72						; size = 8
_k$ = -64						; size = 4
tv1023 = -60						; size = 4
_e_info$GSCopy$ = -56					; size = 4
_tang$ = -52						; size = 48
__$ArrayPad$ = -4					; size = 4
_e_info$ = 8						; size = 4
_edge_length_q_grad PROC				; COMDAT

; 327  : { int m,k,j;

	push	ebp
	mov	ebp, esp
	sub	esp, 80					; 00000050H
	mov	eax, DWORD PTR ___security_cookie
	xor	eax, ebp
	mov	DWORD PTR __$ArrayPad$[ebp], eax

; 328  :   REAL value = 0.0;

	fldz

; 329  :   REAL len,fudge;
; 330  :   REAL tang[MAXCOORD];
; 331  :   REAL density;
; 332  :   struct method_instance *mi = METH_INSTANCE(e_info->method);
; 333  : 
; 334  :   if ( mi->flags & USE_DENSITY )

	mov	ecx, DWORD PTR _meth_inst_list
	push	ebx
	fst	QWORD PTR _value$[ebp]
	push	esi
	push	edi
	mov	edi, DWORD PTR _e_info$[ebp]
	mov	eax, DWORD PTR [edi+8]
	cdq
	xor	eax, edx
	sub	eax, edx
	imul	eax, 2928				; 00000b70H
	test	DWORD PTR [eax+ecx+140], 536870912	; 20000000H

; 345  :           tang[j] += gauss1polyd[k][m]*e_info->x[k][j];

	mov	DWORD PTR _e_info$GSCopy$[ebp], edi
	je	SHORT $LN24@edge_lengt@2

; 335  :      density = get_edge_density(e_info->id);

	mov	edx, DWORD PTR [edi]
	mov	eax, DWORD PTR _web+124
	and	edx, 134217727				; 07ffffffH
	mov	ecx, DWORD PTR [eax+edx*4]
	fld	QWORD PTR [ecx+40]
	jmp	SHORT $LN96@edge_lengt@2
$LN24@edge_lengt@2:

; 336  :   else density = 1.0;

	fld1
$LN96@edge_lengt@2:

; 337  : 
; 338  :   for ( j = 0 ; j < SDIM ; j++ )

	mov	ebx, DWORD PTR _edge_ctrl
	fstp	QWORD PTR _density$[ebp]
	xor	ecx, ecx
	cmp	DWORD PTR _web+616, ecx
	jle	SHORT $LN20@edge_lengt@2
$LN22@edge_lengt@2:

; 339  :      for ( m = 0 ; m < edge_ctrl ; m++ )

	xor	eax, eax
	test	ebx, ebx
	jle	SHORT $LN21@edge_lengt@2
$LN19@edge_lengt@2:

; 340  :         e_info->grad[m][j] = 0.0;

	mov	edx, DWORD PTR [edi+1336]
	mov	edx, DWORD PTR [edx+eax*4]
	fst	QWORD PTR [edx+ecx*8]
	mov	ebx, DWORD PTR _edge_ctrl
	inc	eax
	cmp	eax, ebx
	jl	SHORT $LN19@edge_lengt@2
$LN21@edge_lengt@2:

; 337  : 
; 338  :   for ( j = 0 ; j < SDIM ; j++ )

	inc	ecx
	cmp	ecx, DWORD PTR _web+616
	jl	SHORT $LN22@edge_lengt@2
$LN20@edge_lengt@2:

; 341  :   for ( m = 0 ; m < gauss1D_num ; m++ )

	xor	esi, esi
	cmp	DWORD PTR _gauss1D_num, esi
	jle	$LN95@edge_lengt@2
$LN49@edge_lengt@2:

; 342  :   { for ( j = 0 ; j < SDIM ; j ++ )

	mov	ecx, DWORD PTR _web+616
	xor	eax, eax
	test	ecx, ecx
	jle	$LN81@edge_lengt@2
$LN51@edge_lengt@2:

; 344  :       for ( k = 0 ; k < edge_ctrl ; k++ )

	xor	ecx, ecx
	fst	QWORD PTR _tang$[ebp+eax*8]
	cmp	ebx, 4
	jl	$LC42@edge_lengt@2

; 343  :     { tang[j] = 0.0;

	mov	edx, DWORD PTR _gauss1polyd
	lea	ecx, DWORD PTR [edi+420]
	lea	edi, DWORD PTR [ebx-4]
	shr	edi, 2
	inc	edi
	mov	DWORD PTR tv1023[ebp], edi
	add	edi, edi
	add	edx, 8
	add	edi, edi
	mov	DWORD PTR _k$[ebp], edi

; 344  :       for ( k = 0 ; k < edge_ctrl ; k++ )

$LN43@edge_lengt@2:

; 345  :           tang[j] += gauss1polyd[k][m]*e_info->x[k][j];

	mov	edi, DWORD PTR [edx-8]
	fld	QWORD PTR [edi+esi*8]
	mov	ebx, DWORD PTR [ecx-4]
	fmul	QWORD PTR [ebx+eax*8]
	mov	ebx, DWORD PTR [ecx]
	add	ecx, 16					; 00000010H
	add	edx, 16					; 00000010H
	dec	DWORD PTR tv1023[ebp]
	fadd	QWORD PTR _tang$[ebp+eax*8]
	fst	QWORD PTR _tang$[ebp+eax*8]
	mov	edi, DWORD PTR [edx-20]
	fld	QWORD PTR [edi+esi*8]
	mov	edi, DWORD PTR [ecx-12]
	fmul	QWORD PTR [ebx+eax*8]
	faddp	ST(1), ST(0)
	fst	QWORD PTR _tang$[ebp+eax*8]
	mov	ebx, DWORD PTR [edx-16]
	fld	QWORD PTR [edi+eax*8]
	fmul	QWORD PTR [ebx+esi*8]
	mov	ebx, DWORD PTR [ecx-8]
	faddp	ST(1), ST(0)
	fst	QWORD PTR _tang$[ebp+eax*8]
	mov	edi, DWORD PTR [edx-12]
	fld	QWORD PTR [edi+esi*8]
	fmul	QWORD PTR [ebx+eax*8]
	faddp	ST(1), ST(0)
	fstp	QWORD PTR _tang$[ebp+eax*8]
	jne	SHORT $LN43@edge_lengt@2

; 343  :     { tang[j] = 0.0;

	mov	edi, DWORD PTR _e_info$GSCopy$[ebp]
	mov	ecx, DWORD PTR _k$[ebp]
	mov	ebx, DWORD PTR _edge_ctrl
$LC42@edge_lengt@2:

; 344  :       for ( k = 0 ; k < edge_ctrl ; k++ )

	cmp	ecx, ebx
	jge	SHORT $LN12@edge_lengt@2
	lea	edi, DWORD PTR [edi+ecx*4+416]
$LN47@edge_lengt@2:

; 345  :           tang[j] += gauss1polyd[k][m]*e_info->x[k][j];

	mov	edx, DWORD PTR _gauss1polyd
	mov	edx, DWORD PTR [edx+ecx*4]
	mov	ebx, DWORD PTR [edi]
	fld	QWORD PTR [edx+esi*8]
	fmul	QWORD PTR [ebx+eax*8]
	mov	ebx, DWORD PTR _edge_ctrl
	inc	ecx
	add	edi, 4
	fadd	QWORD PTR _tang$[ebp+eax*8]
	fstp	QWORD PTR _tang$[ebp+eax*8]
	cmp	ecx, ebx
	jl	SHORT $LN47@edge_lengt@2

; 344  :       for ( k = 0 ; k < edge_ctrl ; k++ )

	mov	edi, DWORD PTR _e_info$GSCopy$[ebp]
$LN12@edge_lengt@2:

; 342  :   { for ( j = 0 ; j < SDIM ; j ++ )

	mov	ecx, DWORD PTR _web+616
	inc	eax
	cmp	eax, ecx
	jl	$LN51@edge_lengt@2
$LN81@edge_lengt@2:

; 346  :     }
; 347  :     len = sqrt(SDIM_dot(tang,tang));

	push	ecx
	fstp	ST(0)
	lea	eax, DWORD PTR _tang$[ebp]
	push	eax
	mov	ecx, eax
	push	ecx
	call	_dot
	add	esp, 12					; 0000000cH
	call	__CIsqrt

; 348  :     if ( len == 0.0 ) continue;

	fld	ST(0)
	fldz

; 350  :     fudge = density*gauss1Dwt[m]/len;
; 351  :     for ( k = 0 ; k < edge_ctrl ; k++ )

	mov	ebx, DWORD PTR _edge_ctrl
	fld	ST(0)
	fucomp	ST(2)
	fnstsw	ax
	fstp	ST(1)
	test	ah, 68					; 00000044H
	jnp	SHORT $LN85@edge_lengt@2

; 349  :     value += gauss1Dwt[m]*len;

	mov	eax, DWORD PTR _gauss1Dwt
	fld	QWORD PTR [eax+esi*8]

; 350  :     fudge = density*gauss1Dwt[m]/len;
; 351  :     for ( k = 0 ; k < edge_ctrl ; k++ )

	xor	edx, edx
	fmul	ST(0), ST(2)
	fadd	QWORD PTR _value$[ebp]
	fstp	QWORD PTR _value$[ebp]
	fld	QWORD PTR [eax+esi*8]
	fmul	QWORD PTR _density$[ebp]
	fdivrp	ST(2), ST(0)
	test	ebx, ebx
	jle	SHORT $LN85@edge_lengt@2
$LN50@edge_lengt@2:

; 352  :       for ( j = 0 ; j < SDIM ; j++ )

	xor	eax, eax
	cmp	DWORD PTR _web+616, eax
	jle	SHORT $LN5@edge_lengt@2

; 341  :   for ( m = 0 ; m < gauss1D_num ; m++ )

	mov	ecx, DWORD PTR _gauss1polyd
	mov	ecx, DWORD PTR [ecx+edx*4]
	lea	ebx, DWORD PTR [ecx+esi*8]
$LN3@edge_lengt@2:

; 353  :          e_info->grad[k][j] += fudge*tang[j]*gauss1polyd[k][m];

	fld	QWORD PTR _tang$[ebp+eax*8]
	mov	ecx, DWORD PTR [edi+1336]
	mov	ecx, DWORD PTR [ecx+edx*4]
	fmul	ST(0), ST(2)
	lea	ecx, DWORD PTR [ecx+eax*8]
	inc	eax
	fmul	QWORD PTR [ebx]
	fadd	QWORD PTR [ecx]
	fstp	QWORD PTR [ecx]
	cmp	eax, DWORD PTR _web+616
	jl	SHORT $LN3@edge_lengt@2

; 352  :       for ( j = 0 ; j < SDIM ; j++ )

	mov	ebx, DWORD PTR _edge_ctrl
$LN5@edge_lengt@2:

; 350  :     fudge = density*gauss1Dwt[m]/len;
; 351  :     for ( k = 0 ; k < edge_ctrl ; k++ )

	inc	edx
	cmp	edx, ebx
	jl	SHORT $LN50@edge_lengt@2
$LN85@edge_lengt@2:

; 341  :   for ( m = 0 ; m < gauss1D_num ; m++ )

	inc	esi

; 350  :     fudge = density*gauss1Dwt[m]/len;
; 351  :     for ( k = 0 ; k < edge_ctrl ; k++ )

	fstp	ST(1)
	cmp	esi, DWORD PTR _gauss1D_num
	jl	$LN49@edge_lengt@2
$LN95@edge_lengt@2:

; 354  :   }
; 355  : 
; 356  :   return density*value;
; 357  : } // end edge_length_q_grad()

	mov	ecx, DWORD PTR __$ArrayPad$[ebp]
	fstp	ST(0)
	fld	QWORD PTR _density$[ebp]
	pop	edi
	fmul	QWORD PTR _value$[ebp]
	pop	esi
	xor	ecx, ebp
	pop	ebx
	call	@__security_check_cookie@4
	mov	esp, ebp
	pop	ebp
	ret	0
_edge_length_q_grad ENDP
_TEXT	ENDS
PUBLIC	_e_info$GSCopy$
PUBLIC	__$ArrayPad$
PUBLIC	_edge_length_q_hess
; Function compile flags: /Ogtp
;	COMDAT _edge_length_q_hess
_TEXT	SEGMENT
_value$ = -88						; size = 8
_density$ = -80						; size = 8
_m$ = -72						; size = 4
_e_info$GSCopy$ = -68					; size = 4
tv294 = -64						; size = 4
_kk$ = -64						; size = 4
tv1585 = -60						; size = 4
tv986 = -60						; size = 4
tv1234 = -56						; size = 4
_k$ = -56						; size = 4
_tang$ = -52						; size = 48
__$ArrayPad$ = -4					; size = 4
_e_info$ = 8						; size = 4
_edge_length_q_hess PROC				; COMDAT

; 368  : { int m,j,jj,k,kk;

	push	ebp
	mov	ebp, esp
	sub	esp, 88					; 00000058H
	mov	eax, DWORD PTR ___security_cookie
	xor	eax, ebp
	mov	DWORD PTR __$ArrayPad$[ebp], eax

; 369  :   REAL value = 0.0;

	fldz

; 370  :   REAL len,density,fudge;
; 371  :   REAL sumgrad[2][MAXCOORD];
; 372  :   REAL sumhess[2][2][MAXCOORD][MAXCOORD];
; 373  :   REAL tang[MAXCOORD];
; 374  :   struct method_instance *mi = METH_INSTANCE(e_info->method);
; 375  : 
; 376  :   if ( mi->flags & USE_DENSITY )

	mov	ecx, DWORD PTR _meth_inst_list
	push	ebx
	fst	QWORD PTR _value$[ebp]
	mov	ebx, DWORD PTR _e_info$[ebp]
	mov	eax, DWORD PTR [ebx+8]
	cdq
	xor	eax, edx
	sub	eax, edx
	imul	eax, 2928				; 00000b70H
	test	DWORD PTR [eax+ecx+140], 536870912	; 20000000H
	push	edi

; 399  :             for ( jj = 0 ; jj < SDIM ; jj++ )

	mov	DWORD PTR _e_info$GSCopy$[ebp], ebx
	je	SHORT $LN30@edge_lengt@3

; 377  :      density = get_edge_density(e_info->id);

	mov	edx, DWORD PTR [ebx]
	mov	eax, DWORD PTR _web+124
	and	edx, 134217727				; 07ffffffH
	mov	ecx, DWORD PTR [eax+edx*4]
	fld	QWORD PTR [ecx+40]
	jmp	SHORT $LN128@edge_lengt@3
$LN30@edge_lengt@3:

; 378  :   else density = 1.0;

	fld1
$LN128@edge_lengt@3:

; 379  : 
; 380  :   /* derivatives of gaussian sum part */
; 381  :   memset((char*)sumgrad,0,sizeof(sumgrad));
; 382  :   memset((char*)sumhess,0,sizeof(sumhess));
; 383  :   for ( m = 0 ; m < gauss1D_num ; m++ )

	xor	edi, edi
	fstp	QWORD PTR _density$[ebp]
	mov	DWORD PTR _m$[ebp], edi
	cmp	DWORD PTR _gauss1D_num, edi
	jle	$LN70@edge_lengt@3
	mov	ecx, DWORD PTR _web+616
	push	esi
	mov	esi, DWORD PTR _edge_ctrl
$LN63@edge_lengt@3:

; 384  :   { for ( j = 0 ; j < SDIM ; j ++ )

	xor	eax, eax
	test	ecx, ecx
	jle	$LN87@edge_lengt@3
$LN25@edge_lengt@3:

; 386  :       for ( k = 0 ; k < edge_ctrl ; k++ )

	xor	edx, edx
	fst	QWORD PTR _tang$[ebp+eax*8]
	cmp	esi, 4
	jl	$LC54@edge_lengt@3

; 385  :     { tang[j] = 0.0;

	mov	edx, DWORD PTR _gauss1polyd
	add	esi, -4					; fffffffcH
	shr	esi, 2
	inc	esi
	mov	DWORD PTR tv294[ebp], esi
	add	edx, 8
	add	esi, esi
	add	esi, esi
	mov	DWORD PTR tv986[ebp], edx
	lea	edx, DWORD PTR [ebx+420]
	mov	DWORD PTR _k$[ebp], esi

; 386  :       for ( k = 0 ; k < edge_ctrl ; k++ )

$LN55@edge_lengt@3:

; 387  :           tang[j] += gauss1polyd[k][m]*e_info->x[k][j];

	mov	esi, DWORD PTR tv986[ebp]
	mov	esi, DWORD PTR [esi-8]
	fld	QWORD PTR [esi+edi*8]
	mov	ebx, DWORD PTR [edx-4]
	fmul	QWORD PTR [ebx+eax*8]
	mov	esi, DWORD PTR tv986[ebp]
	mov	ebx, DWORD PTR [edx]
	add	edx, 16					; 00000010H
	fadd	QWORD PTR _tang$[ebp+eax*8]
	fst	QWORD PTR _tang$[ebp+eax*8]
	mov	esi, DWORD PTR [esi-4]
	fld	QWORD PTR [esi+edi*8]
	mov	esi, DWORD PTR [edx-12]
	fmul	QWORD PTR [ebx+eax*8]
	mov	ebx, DWORD PTR tv986[ebp]
	faddp	ST(1), ST(0)
	fst	QWORD PTR _tang$[ebp+eax*8]
	mov	ebx, DWORD PTR [ebx]
	fld	QWORD PTR [esi+eax*8]
	mov	esi, DWORD PTR tv986[ebp]
	fmul	QWORD PTR [ebx+edi*8]
	mov	ebx, DWORD PTR [edx-8]
	add	DWORD PTR tv986[ebp], 16		; 00000010H
	dec	DWORD PTR tv294[ebp]
	faddp	ST(1), ST(0)
	fst	QWORD PTR _tang$[ebp+eax*8]
	mov	esi, DWORD PTR [esi+4]
	fld	QWORD PTR [esi+edi*8]
	fmul	QWORD PTR [ebx+eax*8]
	faddp	ST(1), ST(0)
	fstp	QWORD PTR _tang$[ebp+eax*8]
	jne	SHORT $LN55@edge_lengt@3

; 385  :     { tang[j] = 0.0;

	mov	edx, DWORD PTR _k$[ebp]
	mov	esi, DWORD PTR _edge_ctrl
	mov	ebx, DWORD PTR _e_info$GSCopy$[ebp]
$LC54@edge_lengt@3:

; 386  :       for ( k = 0 ; k < edge_ctrl ; k++ )

	cmp	edx, esi
	jge	SHORT $LN24@edge_lengt@3
	lea	esi, DWORD PTR [ebx+edx*4+416]
	mov	DWORD PTR tv1234[ebp], esi
$LN59@edge_lengt@3:

; 387  :           tang[j] += gauss1polyd[k][m]*e_info->x[k][j];

	mov	esi, DWORD PTR _gauss1polyd
	mov	esi, DWORD PTR [esi+edx*4]
	mov	ebx, DWORD PTR tv1234[ebp]
	fld	QWORD PTR [esi+edi*8]
	mov	ebx, DWORD PTR [ebx]
	fmul	QWORD PTR [ebx+eax*8]
	mov	esi, DWORD PTR _edge_ctrl
	add	DWORD PTR tv1234[ebp], 4
	inc	edx
	fadd	QWORD PTR _tang$[ebp+eax*8]
	fstp	QWORD PTR _tang$[ebp+eax*8]
	cmp	edx, esi
	jl	SHORT $LN59@edge_lengt@3

; 386  :       for ( k = 0 ; k < edge_ctrl ; k++ )

	mov	ebx, DWORD PTR _e_info$GSCopy$[ebp]
$LN24@edge_lengt@3:

; 384  :   { for ( j = 0 ; j < SDIM ; j ++ )

	inc	eax
	cmp	eax, ecx
	jl	$LN25@edge_lengt@3
$LN87@edge_lengt@3:

; 388  :     }
; 389  :     len = sqrt(SDIM_dot(tang,tang));

	push	ecx
	fstp	ST(0)
	lea	eax, DWORD PTR _tang$[ebp]
	push	eax
	mov	ecx, eax
	push	ecx
	call	_dot
	add	esp, 12					; 0000000cH
	call	__CIsqrt

; 390  :     if ( len == 0.0 ) continue;

	fld	ST(0)
	fldz

; 392  :     fudge = density*gauss1Dwt[m]/len;
; 393  :     for ( k = 0 ; k < edge_ctrl ; k++ )

	mov	esi, DWORD PTR _edge_ctrl
	mov	ecx, DWORD PTR _web+616
	fld	ST(0)
	fucomp	ST(2)
	fnstsw	ax
	fstp	ST(1)
	test	ah, 68					; 00000044H
	jnp	$LN89@edge_lengt@3

; 391  :     value += gauss1Dwt[m]*len;

	mov	eax, DWORD PTR _gauss1Dwt
	fld	QWORD PTR [eax+edi*8]

; 392  :     fudge = density*gauss1Dwt[m]/len;
; 393  :     for ( k = 0 ; k < edge_ctrl ; k++ )

	xor	edx, edx
	fmul	ST(0), ST(2)
	fadd	QWORD PTR _value$[ebp]
	fstp	QWORD PTR _value$[ebp]
	fld	QWORD PTR [eax+edi*8]
	fmul	QWORD PTR _density$[ebp]
	fdiv	ST(0), ST(2)
	test	esi, esi
	jle	SHORT $LN16@edge_lengt@3
$LN18@edge_lengt@3:

; 394  :       for ( j = 0 ; j < SDIM ; j++ )

	xor	eax, eax
	test	ecx, ecx
	jle	SHORT $LN17@edge_lengt@3

; 379  : 
; 380  :   /* derivatives of gaussian sum part */
; 381  :   memset((char*)sumgrad,0,sizeof(sumgrad));
; 382  :   memset((char*)sumhess,0,sizeof(sumhess));
; 383  :   for ( m = 0 ; m < gauss1D_num ; m++ )

	mov	ecx, DWORD PTR _gauss1polyd
	mov	ecx, DWORD PTR [ecx+edx*4]
	lea	esi, DWORD PTR [ecx+edi*8]
$LN15@edge_lengt@3:

; 395  :          e_info->grad[k][j] += fudge*tang[j]*gauss1polyd[k][m];

	fld	QWORD PTR _tang$[ebp+eax*8]
	mov	ecx, DWORD PTR [ebx+1336]
	mov	ecx, DWORD PTR [ecx+edx*4]
	fmul	ST(0), ST(1)
	lea	ecx, DWORD PTR [ecx+eax*8]
	inc	eax
	fmul	QWORD PTR [esi]
	fadd	QWORD PTR [ecx]
	fstp	QWORD PTR [ecx]
	mov	ecx, DWORD PTR _web+616
	cmp	eax, ecx
	jl	SHORT $LN15@edge_lengt@3

; 394  :       for ( j = 0 ; j < SDIM ; j++ )

	mov	esi, DWORD PTR _edge_ctrl
$LN17@edge_lengt@3:

; 392  :     fudge = density*gauss1Dwt[m]/len;
; 393  :     for ( k = 0 ; k < edge_ctrl ; k++ )

	inc	edx
	cmp	edx, esi
	jl	SHORT $LN18@edge_lengt@3
$LN16@edge_lengt@3:

; 396  :     for ( k = 0 ; k < edge_ctrl ; k++ )

	mov	DWORD PTR _k$[ebp], 0
	test	esi, esi
	jle	$LN104@edge_lengt@3
$LN61@edge_lengt@3:

; 397  :       for ( kk = 0 ; kk < edge_ctrl ; kk++ )

	xor	ebx, ebx
	mov	DWORD PTR _kk$[ebp], ebx
	test	esi, esi
	jle	$LN11@edge_lengt@3
$LN64@edge_lengt@3:

; 398  :          for ( j = 0 ; j < SDIM ; j++ )

	xor	edx, edx
	test	ecx, ecx
	jle	$LN8@edge_lengt@3
	lea	eax, DWORD PTR _tang$[ebp]
	mov	DWORD PTR tv1585[ebp], eax
$LN62@edge_lengt@3:

; 399  :             for ( jj = 0 ; jj < SDIM ; jj++ )

	xor	eax, eax
	test	ecx, ecx
	jle	SHORT $LN5@edge_lengt@3

; 379  : 
; 380  :   /* derivatives of gaussian sum part */
; 381  :   memset((char*)sumgrad,0,sizeof(sumgrad));
; 382  :   memset((char*)sumhess,0,sizeof(sumhess));
; 383  :   for ( m = 0 ; m < gauss1D_num ; m++ )

	mov	ecx, DWORD PTR _gauss1polyd
	mov	esi, DWORD PTR _k$[ebp]
	mov	esi, DWORD PTR [ecx+esi*4]
	mov	ecx, DWORD PTR [ecx+ebx*4]
	lea	esi, DWORD PTR [esi+edi*8]
	lea	edi, DWORD PTR [ecx+edi*8]
$LN58@edge_lengt@3:

; 400  :               e_info->hess[k][kk][j][jj] += fudge*
; 401  :             ( - tang[j]*tang[jj]*gauss1polyd[k][m]*gauss1polyd[kk][m]/len/len
; 402  :             + ((j==jj)? gauss1polyd[k][m]*gauss1polyd[kk][m] : 0.0));

	cmp	edx, eax
	jne	SHORT $LN33@edge_lengt@3
	fld	QWORD PTR [edi]
	fmul	QWORD PTR [esi]
	jmp	SHORT $LN34@edge_lengt@3
$LN33@edge_lengt@3:
	fld	ST(1)
$LN34@edge_lengt@3:

; 399  :             for ( jj = 0 ; jj < SDIM ; jj++ )

	mov	ecx, DWORD PTR _e_info$GSCopy$[ebp]

; 400  :               e_info->hess[k][kk][j][jj] += fudge*
; 401  :             ( - tang[j]*tang[jj]*gauss1polyd[k][m]*gauss1polyd[kk][m]/len/len
; 402  :             + ((j==jj)? gauss1polyd[k][m]*gauss1polyd[kk][m] : 0.0));

	fld	QWORD PTR _tang$[ebp+eax*8]
	mov	ecx, DWORD PTR [ecx+1340]
	mov	ebx, DWORD PTR _k$[ebp]
	mov	ecx, DWORD PTR [ecx+ebx*4]
	mov	ebx, DWORD PTR _kk$[ebp]
	mov	ecx, DWORD PTR [ecx+ebx*4]
	mov	ebx, DWORD PTR tv1585[ebp]
	fmul	QWORD PTR [ebx]
	mov	ecx, DWORD PTR [ecx+edx*4]
	lea	ecx, DWORD PTR [ecx+eax*8]
	inc	eax
	fmul	QWORD PTR [esi]
	fmul	QWORD PTR [edi]
	fdiv	ST(0), ST(4)
	fdiv	ST(0), ST(4)
	fsubp	ST(1), ST(0)
	fmul	ST(0), ST(1)
	fadd	QWORD PTR [ecx]
	fstp	QWORD PTR [ecx]
	mov	ecx, DWORD PTR _web+616
	cmp	eax, ecx
	jl	SHORT $LN58@edge_lengt@3

; 399  :             for ( jj = 0 ; jj < SDIM ; jj++ )

	mov	edi, DWORD PTR _m$[ebp]
	mov	ebx, DWORD PTR _kk$[ebp]
$LN5@edge_lengt@3:

; 398  :          for ( j = 0 ; j < SDIM ; j++ )

	add	DWORD PTR tv1585[ebp], 8
	inc	edx
	cmp	edx, ecx
	jl	SHORT $LN62@edge_lengt@3
	mov	esi, DWORD PTR _edge_ctrl
$LN8@edge_lengt@3:

; 397  :       for ( kk = 0 ; kk < edge_ctrl ; kk++ )

	inc	ebx
	mov	DWORD PTR _kk$[ebp], ebx
	cmp	ebx, esi
	jl	$LN64@edge_lengt@3
$LN11@edge_lengt@3:

; 396  :     for ( k = 0 ; k < edge_ctrl ; k++ )

	mov	eax, DWORD PTR _k$[ebp]
	inc	eax
	mov	DWORD PTR _k$[ebp], eax
	cmp	eax, esi
	jl	$LN61@edge_lengt@3
	mov	ebx, DWORD PTR _e_info$GSCopy$[ebp]
$LN104@edge_lengt@3:
	fstp	ST(2)
$LN89@edge_lengt@3:

; 379  : 
; 380  :   /* derivatives of gaussian sum part */
; 381  :   memset((char*)sumgrad,0,sizeof(sumgrad));
; 382  :   memset((char*)sumhess,0,sizeof(sumhess));
; 383  :   for ( m = 0 ; m < gauss1D_num ; m++ )

	inc	edi

; 396  :     for ( k = 0 ; k < edge_ctrl ; k++ )

	fstp	ST(1)
	mov	DWORD PTR _m$[ebp], edi
	cmp	edi, DWORD PTR _gauss1D_num
	jl	$LN63@edge_lengt@3
	pop	esi
$LN70@edge_lengt@3:

; 403  :   }
; 404  : 
; 405  :   return density*value;
; 406  : } // end edge_length_q_hess()

	mov	ecx, DWORD PTR __$ArrayPad$[ebp]
	fstp	ST(0)
	fld	QWORD PTR _density$[ebp]
	pop	edi
	fmul	QWORD PTR _value$[ebp]
	xor	ecx, ebp
	pop	ebx
	call	@__security_check_cookie@4
	mov	esp, ebp
	pop	ebp
	ret	0
_edge_length_q_hess ENDP
_TEXT	ENDS
PUBLIC	_e_info$GSCopy$
PUBLIC	__$ArrayPad$
PUBLIC	_edge_scalar_integral_q
; Function compile flags: /Ogtp
;	COMDAT _edge_scalar_integral_q
_TEXT	SEGMENT
_value$ = -84						; size = 8
_mi$ = -76						; size = 4
tv1303 = -72						; size = 8
_k$ = -68						; size = 4
tv952 = -64						; size = 4
_m$ = -60						; size = 4
_e_info$GSCopy$ = -56					; size = 4
_tang$ = -52						; size = 48
__$ArrayPad$ = -4					; size = 4
_e_info$ = 8						; size = 4
_edge_scalar_integral_q PROC				; COMDAT

; 577  : { int j,k,m;

	push	ebp
	mov	ebp, esp
	sub	esp, 84					; 00000054H
	mov	eax, DWORD PTR ___security_cookie
	xor	eax, ebp
	mov	DWORD PTR __$ArrayPad$[ebp], eax
	push	ebx

; 578  :   REAL value = 0.0;

	fldz
	push	esi
	fld	ST(0)
	push	edi
	fst	QWORD PTR _value$[ebp]
	mov	edi, DWORD PTR _e_info$[ebp]

; 579  :   REAL tang[MAXCOORD];
; 580  :   struct method_instance *mi = METH_INSTANCE(e_info->method);

	mov	eax, DWORD PTR [edi+8]
	cdq
	mov	ebx, eax
	xor	ebx, edx
	sub	ebx, edx
	imul	ebx, 2928				; 00000b70H
	add	ebx, DWORD PTR _meth_inst_list

; 581  : 
; 582  :   for ( m = 0 ; m < gauss1D_num ; m++ ) 

	xor	esi, esi
	mov	DWORD PTR _e_info$GSCopy$[ebp], edi
	mov	DWORD PTR _mi$[ebp], ebx
	mov	DWORD PTR _m$[ebp], esi
	cmp	DWORD PTR _gauss1D_num, esi
	jle	$LN26@edge_scala
	fstp	ST(0)
	jmp	SHORT $LN9@edge_scala
	npad	2
$LL48@edge_scala:
	fstp	ST(0)
	fldz
$LN9@edge_scala:

; 583  :   { for ( j = 0 ; j < SDIM ; j ++ )

	mov	edx, DWORD PTR _web+616
	xor	eax, eax
	test	edx, edx
	jle	$LN30@edge_scala
	mov	ebx, DWORD PTR _edge_ctrl
$LN6@edge_scala:

; 585  :         for ( k = 0 ; k < edge_ctrl ; k++ )

	xor	ecx, ecx
	fst	QWORD PTR _tang$[ebp+eax*8]
	cmp	ebx, 4
	jl	$LC19@edge_scala

; 584  :       { tang[j] = 0.0;

	mov	edx, DWORD PTR _gauss1polyd
	lea	ecx, DWORD PTR [edi+420]
	lea	edi, DWORD PTR [ebx-4]
	shr	edi, 2
	inc	edi
	mov	DWORD PTR tv952[ebp], edi
	add	edi, edi
	add	edx, 8
	add	edi, edi
	mov	DWORD PTR _k$[ebp], edi

; 585  :         for ( k = 0 ; k < edge_ctrl ; k++ )

$LN20@edge_scala:

; 586  :            tang[j] += gauss1polyd[k][m]*e_info->x[k][j];

	mov	edi, DWORD PTR [edx-8]
	fld	QWORD PTR [edi+esi*8]
	mov	ebx, DWORD PTR [ecx-4]
	fmul	QWORD PTR [ebx+eax*8]
	mov	ebx, DWORD PTR [ecx]
	add	ecx, 16					; 00000010H
	add	edx, 16					; 00000010H
	dec	DWORD PTR tv952[ebp]
	fadd	QWORD PTR _tang$[ebp+eax*8]
	fst	QWORD PTR _tang$[ebp+eax*8]
	mov	edi, DWORD PTR [edx-20]
	fld	QWORD PTR [edi+esi*8]
	mov	edi, DWORD PTR [ecx-12]
	fmul	QWORD PTR [ebx+eax*8]
	faddp	ST(1), ST(0)
	fst	QWORD PTR _tang$[ebp+eax*8]
	mov	ebx, DWORD PTR [edx-16]
	fld	QWORD PTR [edi+eax*8]
	fmul	QWORD PTR [ebx+esi*8]
	mov	ebx, DWORD PTR [ecx-8]
	faddp	ST(1), ST(0)
	fst	QWORD PTR _tang$[ebp+eax*8]
	mov	edi, DWORD PTR [edx-12]
	fld	QWORD PTR [edi+esi*8]
	fmul	QWORD PTR [ebx+eax*8]
	faddp	ST(1), ST(0)
	fstp	QWORD PTR _tang$[ebp+eax*8]
	jne	SHORT $LN20@edge_scala

; 584  :       { tang[j] = 0.0;

	mov	edx, DWORD PTR _web+616
	mov	edi, DWORD PTR _e_info$GSCopy$[ebp]
	mov	ecx, DWORD PTR _k$[ebp]
	mov	ebx, DWORD PTR _edge_ctrl
$LC19@edge_scala:

; 585  :         for ( k = 0 ; k < edge_ctrl ; k++ )

	cmp	ecx, ebx
	jge	SHORT $LN5@edge_scala
	lea	edi, DWORD PTR [edi+ecx*4+416]
$LN23@edge_scala:

; 586  :            tang[j] += gauss1polyd[k][m]*e_info->x[k][j];

	mov	edx, DWORD PTR _gauss1polyd
	mov	edx, DWORD PTR [edx+ecx*4]
	mov	ebx, DWORD PTR [edi]
	fld	QWORD PTR [edx+esi*8]
	fmul	QWORD PTR [ebx+eax*8]
	mov	ebx, DWORD PTR _edge_ctrl
	inc	ecx
	add	edi, 4
	fadd	QWORD PTR _tang$[ebp+eax*8]
	fstp	QWORD PTR _tang$[ebp+eax*8]
	cmp	ecx, ebx
	jl	SHORT $LN23@edge_scala

; 585  :         for ( k = 0 ; k < edge_ctrl ; k++ )

	mov	edi, DWORD PTR _e_info$GSCopy$[ebp]
	mov	edx, DWORD PTR _web+616
$LN5@edge_scala:

; 583  :   { for ( j = 0 ; j < SDIM ; j ++ )

	inc	eax
	cmp	eax, edx
	jl	$LN6@edge_scala
	mov	ebx, DWORD PTR _mi$[ebp]
$LN30@edge_scala:

; 587  :       }
; 588  :     e_info->gauss_pt[m][2*SDIM] = m; /* kludge for attr interpolation. */

	mov	eax, DWORD PTR [edi+1268]
	fstp	ST(0)
	mov	ecx, DWORD PTR [eax+esi*4]
	fild	DWORD PTR _m$[ebp]
	add	edx, edx

; 589  :     value += gauss1Dwt[m]*eval(mi->expr[0],
; 590  :              e_info->gauss_pt[m],e_info->id,NULL)*sqrt(SDIM_dot(tang,tang));

	lea	eax, DWORD PTR _tang$[ebp]
	fstp	QWORD PTR [ecx+edx*8]
	mov	edx, DWORD PTR _web+616
	push	edx
	push	eax
	mov	ecx, eax
	push	ecx
	call	_dot
	add	esp, 12					; 0000000cH
	call	__CIsqrt
	fstp	QWORD PTR tv1303[ebp]
	mov	edx, DWORD PTR [edi]
	mov	eax, DWORD PTR [edi+1268]
	mov	ecx, DWORD PTR [eax+esi*4]
	push	0
	push	edx
	mov	edx, DWORD PTR [ebx+232]
	push	ecx
	push	edx
	call	_eval
	mov	eax, DWORD PTR _gauss1Dwt
	fmul	QWORD PTR [eax+esi*8]
	inc	esi
	add	esp, 16					; 00000010H
	mov	DWORD PTR _m$[ebp], esi
	fmul	QWORD PTR tv1303[ebp]
	fadd	QWORD PTR _value$[ebp]
	fst	QWORD PTR _value$[ebp]
	cmp	esi, DWORD PTR _gauss1D_num
	jl	$LL48@edge_scala
	pop	edi
	pop	esi
	pop	ebx

; 591  :   }
; 592  :   return value;
; 593  : } // end edge_scalar_integral_q()

	mov	ecx, DWORD PTR __$ArrayPad$[ebp]
	xor	ecx, ebp
	call	@__security_check_cookie@4
	mov	esp, ebp
	pop	ebp
	ret	0
$LN26@edge_scala:
	mov	ecx, DWORD PTR __$ArrayPad$[ebp]
	fstp	ST(1)
	pop	edi
	pop	esi
	xor	ecx, ebp
	pop	ebx
	call	@__security_check_cookie@4
	mov	esp, ebp
	pop	ebp
	ret	0
_edge_scalar_integral_q ENDP
_TEXT	ENDS
PUBLIC	_e_info$GSCopy$
PUBLIC	__$ArrayPad$
PUBLIC	_edge_scalar_integral_q_grad
EXTRN	_gauss1poly:DWORD
; Function compile flags: /Ogtp
;	COMDAT _edge_scalar_integral_q_grad
_TEXT	SEGMENT
_val$ = -140						; size = 8
_value$ = -132						; size = 8
tv1501 = -124						; size = 4
tv539 = -120						; size = 4
_e_info$GSCopy$ = -116					; size = 4
_mi$ = -112						; size = 4
tv1577 = -108						; size = 4
_k$ = -108						; size = 4
tv1027 = -104						; size = 4
tv553 = -104						; size = 4
_m$ = -104						; size = 4
_derivs$ = -100						; size = 48
_tang$ = -52						; size = 48
__$ArrayPad$ = -4					; size = 4
_e_info$ = 8						; size = 4
_edge_scalar_integral_q_grad PROC			; COMDAT

; 604  : { int m,k,j;

	push	ebp
	mov	ebp, esp
	sub	esp, 140				; 0000008cH
	mov	eax, DWORD PTR ___security_cookie
	xor	eax, ebp
	mov	DWORD PTR __$ArrayPad$[ebp], eax
	push	ebx

; 605  :   REAL value = 0.0;

	fldz

; 606  :   REAL len,val;
; 607  :   REAL derivs[MAXCOORD];
; 608  :   REAL tang[MAXCOORD];
; 609  :   struct method_instance *mi = METH_INSTANCE(e_info->method);
; 610  : 
; 611  :   for ( j = 0 ; j < SDIM ; j++ )

	mov	ecx, DWORD PTR _web+616
	fld	ST(0)
	push	esi
	fst	QWORD PTR _value$[ebp]
	push	edi
	mov	edi, DWORD PTR _e_info$[ebp]
	mov	eax, DWORD PTR [edi+8]
	cdq
	mov	ebx, eax
	xor	ebx, edx
	sub	ebx, edx
	imul	ebx, 2928				; 00000b70H
	add	ebx, DWORD PTR _meth_inst_list
	xor	edx, edx
	mov	DWORD PTR _e_info$GSCopy$[ebp], edi
	mov	DWORD PTR _mi$[ebp], ebx
	test	ecx, ecx
	jle	SHORT $LN60@edge_scala@2
	mov	esi, DWORD PTR _edge_ctrl
$LN22@edge_scala@2:

; 612  :      for ( m = 0 ; m < edge_ctrl ; m++ )

	xor	eax, eax
	test	esi, esi
	jle	SHORT $LN21@edge_scala@2
$LN19@edge_scala@2:

; 613  :         e_info->grad[m][j] = 0.0;

	mov	ecx, DWORD PTR [edi+1336]
	fxch	ST(1)
	mov	ecx, DWORD PTR [ecx+eax*4]
	fst	QWORD PTR [ecx+edx*8]
	mov	esi, DWORD PTR _edge_ctrl
	inc	eax
	fxch	ST(1)
	cmp	eax, esi
	jl	SHORT $LN19@edge_scala@2

; 612  :      for ( m = 0 ; m < edge_ctrl ; m++ )

	mov	ecx, DWORD PTR _web+616
$LN21@edge_scala@2:

; 606  :   REAL len,val;
; 607  :   REAL derivs[MAXCOORD];
; 608  :   REAL tang[MAXCOORD];
; 609  :   struct method_instance *mi = METH_INSTANCE(e_info->method);
; 610  : 
; 611  :   for ( j = 0 ; j < SDIM ; j++ )

	inc	edx
	cmp	edx, ecx
	jl	SHORT $LN22@edge_scala@2
$LN60@edge_scala@2:

; 614  :   for ( m = 0 ; m < gauss1D_num ; m++ )

	xor	esi, esi
	fstp	ST(1)
	mov	DWORD PTR _m$[ebp], esi
	cmp	DWORD PTR _gauss1D_num, esi
	jle	$LN14@edge_scala@2
	fstp	ST(0)
$LN16@edge_scala@2:

; 615  :   { e_info->gauss_pt[m][2*SDIM] = m; /* kludge for attr interpolation. */

	mov	edx, DWORD PTR [edi+1268]
	fild	DWORD PTR _m$[ebp]
	mov	eax, DWORD PTR [edx+esi*4]
	add	ecx, ecx
	fstp	QWORD PTR [eax+ecx*8]

; 616  :     eval_all(mi->expr[0],e_info->gauss_pt[m],SDIM,&val,
; 617  :                                                          derivs,e_info->id);

	mov	ecx, DWORD PTR [edi]
	push	ecx
	mov	ecx, DWORD PTR _web+616
	lea	edx, DWORD PTR _derivs$[ebp]
	push	edx
	mov	edx, DWORD PTR [edi+1268]
	lea	eax, DWORD PTR _val$[ebp]
	push	eax
	mov	eax, DWORD PTR [edx+esi*4]
	push	ecx
	mov	ecx, DWORD PTR [ebx+232]
	push	eax
	push	ecx
	call	_eval_all

; 618  :     for ( j = 0 ; j < SDIM ; j ++ )

	mov	ecx, DWORD PTR _web+616
	add	esp, 24					; 00000018H
	xor	eax, eax
	test	ecx, ecx
	jle	$LN11@edge_scala@2
	mov	ebx, DWORD PTR _edge_ctrl
	fldz
$LN49@edge_scala@2:

; 620  :       for ( k = 0 ; k < edge_ctrl ; k++ )

	xor	ecx, ecx
	fst	QWORD PTR _tang$[ebp+eax*8]
	cmp	ebx, 4
	jl	$LC40@edge_scala@2

; 619  :     { tang[j] = 0.0;

	mov	edx, DWORD PTR _gauss1polyd
	lea	ecx, DWORD PTR [edi+420]
	lea	edi, DWORD PTR [ebx-4]
	shr	edi, 2
	inc	edi
	mov	DWORD PTR tv1027[ebp], edi
	add	edi, edi
	add	edx, 8
	add	edi, edi
	mov	DWORD PTR _k$[ebp], edi

; 620  :       for ( k = 0 ; k < edge_ctrl ; k++ )

$LN41@edge_scala@2:

; 621  :           tang[j] += gauss1polyd[k][m]*e_info->x[k][j];

	mov	edi, DWORD PTR [edx-8]
	fld	QWORD PTR [edi+esi*8]
	mov	ebx, DWORD PTR [ecx-4]
	fmul	QWORD PTR [ebx+eax*8]
	mov	ebx, DWORD PTR [ecx]
	add	ecx, 16					; 00000010H
	add	edx, 16					; 00000010H
	dec	DWORD PTR tv1027[ebp]
	fadd	QWORD PTR _tang$[ebp+eax*8]
	fst	QWORD PTR _tang$[ebp+eax*8]
	mov	edi, DWORD PTR [edx-20]
	fld	QWORD PTR [edi+esi*8]
	mov	edi, DWORD PTR [ecx-12]
	fmul	QWORD PTR [ebx+eax*8]
	faddp	ST(1), ST(0)
	fst	QWORD PTR _tang$[ebp+eax*8]
	mov	ebx, DWORD PTR [edx-16]
	fld	QWORD PTR [edi+eax*8]
	fmul	QWORD PTR [ebx+esi*8]
	mov	ebx, DWORD PTR [ecx-8]
	faddp	ST(1), ST(0)
	fst	QWORD PTR _tang$[ebp+eax*8]
	mov	edi, DWORD PTR [edx-12]
	fld	QWORD PTR [edi+esi*8]
	fmul	QWORD PTR [ebx+eax*8]
	faddp	ST(1), ST(0)
	fstp	QWORD PTR _tang$[ebp+eax*8]
	jne	SHORT $LN41@edge_scala@2

; 619  :     { tang[j] = 0.0;

	mov	ebx, DWORD PTR _edge_ctrl
	mov	ecx, DWORD PTR _k$[ebp]
	mov	edi, DWORD PTR _e_info$GSCopy$[ebp]
$LC40@edge_scala@2:

; 620  :       for ( k = 0 ; k < edge_ctrl ; k++ )

	cmp	ecx, ebx
	jge	SHORT $LN12@edge_scala@2
	lea	edi, DWORD PTR [edi+ecx*4+416]
$LN46@edge_scala@2:

; 621  :           tang[j] += gauss1polyd[k][m]*e_info->x[k][j];

	mov	edx, DWORD PTR _gauss1polyd
	mov	edx, DWORD PTR [edx+ecx*4]
	mov	ebx, DWORD PTR [edi]
	fld	QWORD PTR [edx+esi*8]
	fmul	QWORD PTR [ebx+eax*8]
	mov	ebx, DWORD PTR _edge_ctrl
	inc	ecx
	add	edi, 4
	fadd	QWORD PTR _tang$[ebp+eax*8]
	fstp	QWORD PTR _tang$[ebp+eax*8]
	cmp	ecx, ebx
	jl	SHORT $LN46@edge_scala@2

; 620  :       for ( k = 0 ; k < edge_ctrl ; k++ )

	mov	edi, DWORD PTR _e_info$GSCopy$[ebp]
$LN12@edge_scala@2:

; 618  :     for ( j = 0 ; j < SDIM ; j ++ )

	mov	ecx, DWORD PTR _web+616
	inc	eax
	cmp	eax, ecx
	jl	$LN49@edge_scala@2
	mov	ebx, DWORD PTR _mi$[ebp]
	fstp	ST(0)
$LN11@edge_scala@2:

; 622  :     }
; 623  :     len = sqrt(SDIM_dot(tang,tang));

	push	ecx
	lea	eax, DWORD PTR _tang$[ebp]
	push	eax
	mov	ecx, eax
	push	ecx
	call	_dot
	add	esp, 12					; 0000000cH
	call	__CIsqrt

; 624  :     if ( len == 0.0 ) continue;

	fld	ST(0)
	fldz
	fucompp
	fnstsw	ax
	test	ah, 68					; 00000044H
	jnp	$LN82@edge_scala@2

; 625  :     value += gauss1Dwt[m]*val*len;

	mov	edx, DWORD PTR _gauss1Dwt
	fld	QWORD PTR [edx+esi*8]
	lea	eax, DWORD PTR [edx+esi*8]
	fmul	QWORD PTR _val$[ebp]

; 626  :     for ( k = 0 ; k < edge_ctrl ; k++ )

	xor	edx, edx
	mov	DWORD PTR tv539[ebp], eax
	fmul	ST(0), ST(1)
	fadd	QWORD PTR _value$[ebp]
	fstp	QWORD PTR _value$[ebp]
	cmp	DWORD PTR _edge_ctrl, edx
	jle	$LN82@edge_scala@2
	mov	ebx, DWORD PTR _gauss1polyd
	sub	ebx, DWORD PTR _gauss1poly
	mov	ecx, DWORD PTR _web+616
	mov	DWORD PTR tv1501[ebp], ebx
$LN6@edge_scala@2:

; 627  :       for ( j = 0 ; j < SDIM ; j++ )

	xor	eax, eax
	test	ecx, ecx
	jle	SHORT $LN5@edge_scala@2

; 626  :     for ( k = 0 ; k < edge_ctrl ; k++ )

	mov	ecx, DWORD PTR _gauss1poly
	lea	ecx, DWORD PTR [ecx+edx*4]
	mov	ebx, DWORD PTR [ecx+ebx]
	mov	ecx, DWORD PTR [ecx]
	lea	ebx, DWORD PTR [ebx+esi*8]
	lea	ecx, DWORD PTR [ecx+esi*8]
	mov	DWORD PTR tv1577[ebp], ebx
	mov	DWORD PTR tv553[ebp], ecx
$LN43@edge_scala@2:

; 628  :          e_info->grad[k][j] += gauss1Dwt[m]*(gauss1poly[k][m]*derivs[j]*len
; 629  :                                       + val*tang[j]/len*gauss1polyd[k][m]);

	fld	QWORD PTR _tang$[ebp+eax*8]
	mov	ebx, DWORD PTR tv1577[ebp]
	fmul	QWORD PTR _val$[ebp]
	mov	ecx, DWORD PTR [edi+1336]
	mov	ecx, DWORD PTR [ecx+edx*4]
	lea	ecx, DWORD PTR [ecx+eax*8]
	fdiv	ST(0), ST(1)
	inc	eax
	fmul	QWORD PTR [ebx]
	fld	QWORD PTR _derivs$[ebp+eax*8-8]
	mov	ebx, DWORD PTR tv553[ebp]
	fmul	QWORD PTR [ebx]
	mov	ebx, DWORD PTR tv539[ebp]
	fmul	ST(0), ST(2)
	faddp	ST(1), ST(0)
	fmul	QWORD PTR [ebx]
	fadd	QWORD PTR [ecx]
	fstp	QWORD PTR [ecx]
	mov	ecx, DWORD PTR _web+616
	cmp	eax, ecx
	jl	SHORT $LN43@edge_scala@2

; 627  :       for ( j = 0 ; j < SDIM ; j++ )

	mov	ebx, DWORD PTR tv1501[ebp]
$LN5@edge_scala@2:

; 626  :     for ( k = 0 ; k < edge_ctrl ; k++ )

	inc	edx
	cmp	edx, DWORD PTR _edge_ctrl
	jl	SHORT $LN6@edge_scala@2
	mov	ebx, DWORD PTR _mi$[ebp]
	jmp	SHORT $LN93@edge_scala@2
$LN82@edge_scala@2:
	mov	ecx, DWORD PTR _web+616
$LN93@edge_scala@2:

; 614  :   for ( m = 0 ; m < gauss1D_num ; m++ )

	inc	esi

; 626  :     for ( k = 0 ; k < edge_ctrl ; k++ )

	fstp	ST(0)
	mov	DWORD PTR _m$[ebp], esi
	cmp	esi, DWORD PTR _gauss1D_num
	jl	$LN16@edge_scala@2

; 630  :   }
; 631  : 
; 632  :   return value;

	fld	QWORD PTR _value$[ebp]
$LN14@edge_scala@2:

; 633  : } // end edge_scalar_integral_q_grad()

	mov	ecx, DWORD PTR __$ArrayPad$[ebp]
	pop	edi
	pop	esi
	xor	ecx, ebp
	pop	ebx
	call	@__security_check_cookie@4
	mov	esp, ebp
	pop	ebp
	ret	0
_edge_scalar_integral_q_grad ENDP
_TEXT	ENDS
PUBLIC	_e_info$GSCopy$
PUBLIC	__$ArrayPad$
PUBLIC	_edge_scalar_integral_q_hess
EXTRN	_mat2d_setup:PROC
; Function compile flags: /Ogtp
;	COMDAT _edge_scalar_integral_q_hess
_TEXT	SEGMENT
_secondqXvS$ = -484					; size = 24
tv2040 = -460						; size = 4
tv1793 = -456						; size = 4
tv2192 = -452						; size = 4
tv2045 = -448						; size = 4
_value$ = -444						; size = 8
_val$ = -436						; size = 8
_second$ = -428						; size = 4
tv688 = -424						; size = 4
_mi$ = -420						; size = 4
tv2025 = -416						; size = 4
_m$ = -412						; size = 4
tv2050 = -408						; size = 4
tv702 = -408						; size = 4
tv2177 = -404						; size = 4
_e_info$GSCopy$ = -400					; size = 4
_k$ = -396						; size = 4
tv1636 = -392						; size = 4
tv144 = -392						; size = 4
_kk$ = -392						; size = 4
_secondxJ$ = -388					; size = 288
_derivs$ = -100						; size = 48
_tang$ = -52						; size = 48
__$ArrayPad$ = -4					; size = 4
_e_info$ = 8						; size = 4
_edge_scalar_integral_q_hess PROC			; COMDAT

; 644  : { int m,j,jj,k,kk;

	push	ebp
	mov	ebp, esp
	sub	esp, 484				; 000001e4H
	mov	eax, DWORD PTR ___security_cookie
	xor	eax, ebp
	mov	DWORD PTR __$ArrayPad$[ebp], eax

; 645  :   REAL value = 0.0;

	fldz
	push	ebx
	push	esi
	fstp	QWORD PTR _value$[ebp]
	mov	esi, DWORD PTR _e_info$[ebp]
	push	edi

; 646  :   REAL len,val;
; 647  :   REAL derivs[MAXCOORD];
; 648  :   REAL sumgrad[2][MAXCOORD];
; 649  :   REAL sumhess[2][2][MAXCOORD][MAXCOORD];
; 650  :   MAT2D(second,MAXCOORD,MAXCOORD);

	push	6
	push	6
	lea	eax, DWORD PTR _secondxJ$[ebp]
	push	eax
	lea	ecx, DWORD PTR _secondqXvS$[ebp]
	push	ecx
	mov	DWORD PTR _e_info$GSCopy$[ebp], esi
	call	_mat2d_setup
	mov	DWORD PTR _second$[ebp], eax

; 651  :   REAL tang[MAXCOORD];
; 652  :   struct method_instance *mi = METH_INSTANCE(e_info->method);

	mov	eax, DWORD PTR [esi+8]
	cdq
	mov	edi, eax
	xor	edi, edx
	sub	edi, edx
	imul	edi, 2928				; 00000b70H
	add	edi, DWORD PTR _meth_inst_list

; 653  : 
; 654  :   /* derivatives of gaussian sum part */
; 655  :   memset((char*)sumgrad,0,sizeof(sumgrad));
; 656  :   memset((char*)sumhess,0,sizeof(sumhess));
; 657  :   for ( m = 0 ; m < gauss1D_num ; m++ )

	xor	ebx, ebx
	add	esp, 16					; 00000010H
	mov	DWORD PTR _mi$[ebp], edi
	mov	DWORD PTR _m$[ebp], ebx
	cmp	DWORD PTR _gauss1D_num, ebx
	jle	$LN54@edge_scala@3
	mov	ecx, DWORD PTR _web+616
	npad	3
$LL28@edge_scala@3:

; 658  :   { e_info->gauss_pt[m][2*SDIM] = m; /* kludge for attr interpolation. */

	mov	edx, DWORD PTR [esi+1268]
	fild	DWORD PTR _m$[ebp]
	mov	eax, DWORD PTR [edx+ebx*4]

; 659  :     eval_second(mi->expr[0],e_info->gauss_pt[m],SDIM,&val,
; 660  :                                                     derivs,second,e_info->id);

	mov	edx, DWORD PTR _second$[ebp]
	add	ecx, ecx
	fstp	QWORD PTR [eax+ecx*8]
	mov	ecx, DWORD PTR [esi]
	push	ecx
	push	edx
	mov	edx, DWORD PTR _web+616
	lea	eax, DWORD PTR _derivs$[ebp]
	push	eax
	mov	eax, DWORD PTR [esi+1268]
	lea	ecx, DWORD PTR _val$[ebp]
	push	ecx
	mov	ecx, DWORD PTR [eax+ebx*4]
	push	edx
	mov	edx, DWORD PTR [edi+232]
	push	ecx
	push	edx
	call	_eval_second

; 661  :     for ( j = 0 ; j < SDIM ; j ++ )

	mov	ecx, DWORD PTR _web+616
	add	esp, 28					; 0000001cH
	xor	eax, eax
	test	ecx, ecx
	jle	$LN63@edge_scala@3
	mov	edi, DWORD PTR _edge_ctrl
	fldz
$LN66@edge_scala@3:

; 663  :       for ( k = 0 ; k < edge_ctrl ; k++ )

	xor	ecx, ecx
	fst	QWORD PTR _tang$[ebp+eax*8]
	cmp	edi, 4
	jl	$LN59@edge_scala@3

; 662  :     { tang[j] = 0.0;

	mov	edx, DWORD PTR _gauss1polyd
	lea	ecx, DWORD PTR [esi+420]
	lea	esi, DWORD PTR [edi-4]
	shr	esi, 2
	inc	esi
	mov	DWORD PTR tv144[ebp], esi
	add	esi, esi
	add	edx, 8
	add	esi, esi
	mov	DWORD PTR _k$[ebp], esi

; 663  :       for ( k = 0 ; k < edge_ctrl ; k++ )

$LN53@edge_scala@3:

; 664  :           tang[j] += gauss1polyd[k][m]*e_info->x[k][j];

	mov	esi, DWORD PTR [edx-8]
	fld	QWORD PTR [esi+ebx*8]
	mov	edi, DWORD PTR [ecx-4]
	fmul	QWORD PTR [edi+eax*8]
	mov	edi, DWORD PTR [ecx]
	add	ecx, 16					; 00000010H
	add	edx, 16					; 00000010H
	dec	DWORD PTR tv144[ebp]
	fadd	QWORD PTR _tang$[ebp+eax*8]
	fst	QWORD PTR _tang$[ebp+eax*8]
	mov	esi, DWORD PTR [edx-20]
	fld	QWORD PTR [esi+ebx*8]
	mov	esi, DWORD PTR [ecx-12]
	fmul	QWORD PTR [edi+eax*8]
	faddp	ST(1), ST(0)
	fst	QWORD PTR _tang$[ebp+eax*8]
	mov	edi, DWORD PTR [edx-16]
	fld	QWORD PTR [esi+eax*8]
	fmul	QWORD PTR [edi+ebx*8]
	mov	edi, DWORD PTR [ecx-8]
	faddp	ST(1), ST(0)
	fst	QWORD PTR _tang$[ebp+eax*8]
	mov	esi, DWORD PTR [edx-12]
	fld	QWORD PTR [esi+ebx*8]
	fmul	QWORD PTR [edi+eax*8]
	faddp	ST(1), ST(0)
	fstp	QWORD PTR _tang$[ebp+eax*8]
	jne	SHORT $LN53@edge_scala@3

; 662  :     { tang[j] = 0.0;

	mov	ecx, DWORD PTR _k$[ebp]
	mov	edi, DWORD PTR _edge_ctrl
	mov	esi, DWORD PTR _e_info$GSCopy$[ebp]
$LN59@edge_scala@3:

; 663  :       for ( k = 0 ; k < edge_ctrl ; k++ )

	cmp	ecx, edi
	jge	SHORT $LN24@edge_scala@3
	lea	esi, DWORD PTR [esi+ecx*4+416]
$LN61@edge_scala@3:

; 664  :           tang[j] += gauss1polyd[k][m]*e_info->x[k][j];

	mov	edx, DWORD PTR _gauss1polyd
	mov	edx, DWORD PTR [edx+ecx*4]
	mov	edi, DWORD PTR [esi]
	fld	QWORD PTR [edx+ebx*8]
	fmul	QWORD PTR [edi+eax*8]
	mov	edi, DWORD PTR _edge_ctrl
	inc	ecx
	add	esi, 4
	fadd	QWORD PTR _tang$[ebp+eax*8]
	fstp	QWORD PTR _tang$[ebp+eax*8]
	cmp	ecx, edi
	jl	SHORT $LN61@edge_scala@3

; 663  :       for ( k = 0 ; k < edge_ctrl ; k++ )

	mov	esi, DWORD PTR _e_info$GSCopy$[ebp]
$LN24@edge_scala@3:

; 661  :     for ( j = 0 ; j < SDIM ; j ++ )

	mov	ecx, DWORD PTR _web+616
	inc	eax
	cmp	eax, ecx
	jl	$LN66@edge_scala@3
	mov	edi, DWORD PTR _mi$[ebp]
	fstp	ST(0)
$LN63@edge_scala@3:

; 665  :     }
; 666  :     len = sqrt(SDIM_dot(tang,tang));

	push	ecx
	lea	eax, DWORD PTR _tang$[ebp]
	push	eax
	mov	ecx, eax
	push	ecx
	call	_dot
	add	esp, 12					; 0000000cH
	call	__CIsqrt

; 667  :     if ( len == 0.0 ) continue;

	fld	ST(0)
	fldz

; 669  :     for ( k = 0 ; k < edge_ctrl ; k++ )

	mov	ecx, DWORD PTR _web+616
	fld	ST(0)
	fucomp	ST(2)
	fnstsw	ax
	fstp	ST(1)
	test	ah, 68					; 00000044H
	jnp	$LN127@edge_scala@3

; 668  :     value += gauss1Dwt[m]*val*len;

	mov	edx, DWORD PTR _gauss1Dwt
	fld	QWORD PTR _val$[ebp]

; 669  :     for ( k = 0 ; k < edge_ctrl ; k++ )

	mov	edi, DWORD PTR _edge_ctrl
	fld	ST(0)
	fmul	QWORD PTR [edx+ebx*8]
	lea	eax, DWORD PTR [edx+ebx*8]
	xor	edx, edx
	mov	DWORD PTR tv688[ebp], eax
	fmul	ST(0), ST(3)
	fadd	QWORD PTR _value$[ebp]
	fstp	QWORD PTR _value$[ebp]
	test	edi, edi
	jle	$LN16@edge_scala@3
	mov	esi, DWORD PTR _gauss1polyd
	sub	esi, DWORD PTR _gauss1poly
	mov	DWORD PTR tv1636[ebp], esi
$LN18@edge_scala@3:

; 670  :       for ( j = 0 ; j < SDIM ; j++ )

	xor	eax, eax
	test	ecx, ecx
	jle	SHORT $LN17@edge_scala@3

; 669  :     for ( k = 0 ; k < edge_ctrl ; k++ )

	mov	ecx, DWORD PTR _gauss1poly
	lea	ecx, DWORD PTR [ecx+edx*4]
	mov	esi, DWORD PTR [ecx+esi]
	mov	ecx, DWORD PTR [ecx]
	lea	ecx, DWORD PTR [ecx+ebx*8]
	lea	esi, DWORD PTR [esi+ebx*8]
	mov	DWORD PTR tv702[ebp], ecx
$LN55@edge_scala@3:

; 671  :          e_info->grad[k][j] += gauss1Dwt[m]*(gauss1poly[k][m]*derivs[j]*len
; 672  :                                       + val*tang[j]/len*gauss1polyd[k][m]);

	fmul	QWORD PTR _tang$[ebp+eax*8]
	mov	edi, DWORD PTR tv702[ebp]
	mov	ecx, DWORD PTR _e_info$GSCopy$[ebp]
	mov	ecx, DWORD PTR [ecx+1336]
	fdiv	ST(0), ST(2)
	mov	ecx, DWORD PTR [ecx+edx*4]
	lea	ecx, DWORD PTR [ecx+eax*8]
	inc	eax
	fmul	QWORD PTR [esi]
	fld	QWORD PTR _derivs$[ebp+eax*8-8]
	fmul	QWORD PTR [edi]
	mov	edi, DWORD PTR tv688[ebp]
	fmul	ST(0), ST(3)
	faddp	ST(1), ST(0)
	fmul	QWORD PTR [edi]
	fadd	QWORD PTR [ecx]
	fstp	QWORD PTR [ecx]
	mov	ecx, DWORD PTR _web+616
	fld	QWORD PTR _val$[ebp]
	cmp	eax, ecx
	jl	SHORT $LN55@edge_scala@3

; 670  :       for ( j = 0 ; j < SDIM ; j++ )

	mov	edi, DWORD PTR _edge_ctrl
	mov	esi, DWORD PTR tv1636[ebp]
$LN17@edge_scala@3:

; 669  :     for ( k = 0 ; k < edge_ctrl ; k++ )

	inc	edx
	cmp	edx, edi
	jl	SHORT $LN18@edge_scala@3
	mov	esi, DWORD PTR _e_info$GSCopy$[ebp]
$LN16@edge_scala@3:

; 673  :     for ( k = 0 ; k < edge_ctrl ; k++ )

	mov	DWORD PTR _k$[ebp], 0
	test	edi, edi
	jle	$LN101@edge_scala@3
	mov	eax, DWORD PTR _gauss1polyd
	mov	DWORD PTR tv2177[ebp], eax
$LN12@edge_scala@3:

; 674  :       for ( kk = 0 ; kk < edge_ctrl ; kk++ )

	mov	DWORD PTR _kk$[ebp], 0
	test	edi, edi
	jle	$LN11@edge_scala@3
	mov	edx, DWORD PTR _gauss1poly
	sub	edx, eax
	mov	DWORD PTR tv2025[ebp], eax
	mov	DWORD PTR tv2045[ebp], edx
$LN64@edge_scala@3:

; 675  :          for ( j = 0 ; j < SDIM ; j++ )

	xor	esi, esi
	test	ecx, ecx
	jle	$LN8@edge_scala@3
$LN67@edge_scala@3:

; 676  :             for ( jj = 0 ; jj < SDIM ; jj++ )

	xor	eax, eax
	test	ecx, ecx
	jle	$LN5@edge_scala@3

; 653  : 
; 654  :   /* derivatives of gaussian sum part */
; 655  :   memset((char*)sumgrad,0,sizeof(sumgrad));
; 656  :   memset((char*)sumhess,0,sizeof(sumhess));
; 657  :   for ( m = 0 ; m < gauss1D_num ; m++ )

	mov	ecx, DWORD PTR tv2177[ebp]
	mov	ecx, DWORD PTR [edx+ecx]
	lea	edi, DWORD PTR [ecx+ebx*8]
	mov	ecx, DWORD PTR tv2025[ebp]
	mov	edx, DWORD PTR [edx+ecx]
	mov	ecx, DWORD PTR [ecx]
	lea	edx, DWORD PTR [edx+ebx*8]
	mov	DWORD PTR tv2050[ebp], edx
	mov	edx, DWORD PTR tv2177[ebp]
	mov	edx, DWORD PTR [edx]
	lea	edx, DWORD PTR [edx+ebx*8]
	mov	DWORD PTR tv2192[ebp], edx
	lea	edx, DWORD PTR [ecx+ebx*8]

; 676  :             for ( jj = 0 ; jj < SDIM ; jj++ )

	mov	ecx, DWORD PTR _second$[ebp]
	mov	ecx, DWORD PTR [ecx+esi*4]
	mov	DWORD PTR tv2040[ebp], edx
	lea	edx, DWORD PTR _derivs$[ebp]
	sub	ecx, edx
	mov	DWORD PTR tv1793[ebp], ecx
$LN3@edge_scala@3:

; 677  :               e_info->hess[k][kk][j][jj] += gauss1Dwt[m]*
; 678  :      ( second[j][jj]*gauss1poly[k][m]*gauss1poly[kk][m]*len
; 679  :      + derivs[j]*gauss1poly[k][m]*tang[jj]*gauss1polyd[kk][m]/len
; 680  :      + derivs[jj]*gauss1poly[kk][m]*tang[j]*gauss1polyd[k][m]/len
; 681  :      - val*tang[j]*tang[jj]*gauss1polyd[k][m]*gauss1polyd[kk][m]/len/len/len
; 682  :      + ((j==jj)? val*gauss1polyd[k][m]*gauss1polyd[kk][m]/len : 0.0));

	cmp	esi, eax
	jne	SHORT $LN31@edge_scala@3
	mov	ecx, DWORD PTR tv2177[ebp]
	mov	edx, DWORD PTR [ecx]
	fld	QWORD PTR [edx+ebx*8]
	mov	ecx, DWORD PTR tv2025[ebp]
	mov	edx, DWORD PTR [ecx]
	fmul	ST(0), ST(1)
	fmul	QWORD PTR [edx+ebx*8]
	fdiv	ST(0), ST(3)
	jmp	SHORT $LN32@edge_scala@3
$LN31@edge_scala@3:
	fld	ST(1)
$LN32@edge_scala@3:

; 676  :             for ( jj = 0 ; jj < SDIM ; jj++ )

	mov	edx, DWORD PTR _e_info$GSCopy$[ebp]
	mov	edx, DWORD PTR [edx+1340]
	mov	ebx, DWORD PTR _k$[ebp]
	mov	edx, DWORD PTR [edx+ebx*4]
	mov	ebx, DWORD PTR _kk$[ebp]
	mov	edx, DWORD PTR [edx+ebx*4]

; 677  :               e_info->hess[k][kk][j][jj] += gauss1Dwt[m]*
; 678  :      ( second[j][jj]*gauss1poly[k][m]*gauss1poly[kk][m]*len
; 679  :      + derivs[j]*gauss1poly[k][m]*tang[jj]*gauss1polyd[kk][m]/len
; 680  :      + derivs[jj]*gauss1poly[kk][m]*tang[j]*gauss1polyd[k][m]/len
; 681  :      - val*tang[j]*tang[jj]*gauss1polyd[k][m]*gauss1polyd[kk][m]/len/len/len
; 682  :      + ((j==jj)? val*gauss1polyd[k][m]*gauss1polyd[kk][m]/len : 0.0));

	mov	ebx, DWORD PTR tv1793[ebp]
	lea	ecx, DWORD PTR _derivs$[ebp+eax*8]
	fld	QWORD PTR [ecx+ebx]
	mov	ebx, DWORD PTR tv2050[ebp]
	fmul	QWORD PTR [edi]
	mov	edx, DWORD PTR [edx+esi*4]
	lea	edx, DWORD PTR [edx+eax*8]
	inc	eax
	fmul	QWORD PTR [ebx]
	mov	ebx, DWORD PTR tv2040[ebp]
	fmul	ST(0), ST(4)
	fld	QWORD PTR [edi]
	fmul	QWORD PTR _derivs$[ebp+esi*8]
	fmul	QWORD PTR _tang$[ebp+eax*8-8]
	fmul	QWORD PTR [ebx]
	fdiv	ST(0), ST(5)
	faddp	ST(1), ST(0)
	fld	QWORD PTR [ecx]
	mov	ecx, DWORD PTR tv2050[ebp]
	fmul	QWORD PTR [ecx]
	mov	ecx, DWORD PTR tv2192[ebp]
	fmul	QWORD PTR _tang$[ebp+esi*8]
	fmul	QWORD PTR [ecx]
	fdiv	ST(0), ST(5)
	faddp	ST(1), ST(0)
	fld	QWORD PTR _tang$[ebp+esi*8]
	fmulp	ST(3), ST(0)
	fxch	ST(2)
	fmul	QWORD PTR _tang$[ebp+eax*8-8]
	fmul	QWORD PTR [ecx]
	mov	ecx, DWORD PTR tv688[ebp]
	fmul	QWORD PTR [ebx]
	mov	ebx, DWORD PTR _m$[ebp]
	fdiv	ST(0), ST(4)
	fdiv	ST(0), ST(4)
	fdiv	ST(0), ST(4)
	fsubp	ST(2), ST(0)
	faddp	ST(1), ST(0)
	fmul	QWORD PTR [ecx]
	fadd	QWORD PTR [edx]
	fstp	QWORD PTR [edx]
	mov	ecx, DWORD PTR _web+616
	fld	QWORD PTR _val$[ebp]
	cmp	eax, ecx
	jl	$LN3@edge_scala@3

; 676  :             for ( jj = 0 ; jj < SDIM ; jj++ )

	mov	edx, DWORD PTR tv2045[ebp]
$LN5@edge_scala@3:

; 675  :          for ( j = 0 ; j < SDIM ; j++ )

	inc	esi
	cmp	esi, ecx
	jl	$LN67@edge_scala@3
	mov	edi, DWORD PTR _edge_ctrl
$LN8@edge_scala@3:

; 674  :       for ( kk = 0 ; kk < edge_ctrl ; kk++ )

	mov	eax, DWORD PTR _kk$[ebp]
	add	DWORD PTR tv2025[ebp], 4
	inc	eax
	mov	DWORD PTR _kk$[ebp], eax
	cmp	eax, edi
	jl	$LN64@edge_scala@3
	mov	eax, DWORD PTR _gauss1polyd
	mov	esi, DWORD PTR _e_info$GSCopy$[ebp]
$LN11@edge_scala@3:

; 673  :     for ( k = 0 ; k < edge_ctrl ; k++ )

	inc	DWORD PTR _k$[ebp]
	add	DWORD PTR tv2177[ebp], 4
	cmp	DWORD PTR _k$[ebp], edi
	jl	$LN12@edge_scala@3
$LN101@edge_scala@3:
	mov	edi, DWORD PTR _mi$[ebp]
	fstp	ST(2)
$LN127@edge_scala@3:
	inc	ebx
	fstp	ST(1)
	fstp	ST(0)
	mov	DWORD PTR _m$[ebp], ebx
	cmp	ebx, DWORD PTR _gauss1D_num
	jl	$LL28@edge_scala@3
$LN54@edge_scala@3:

; 683  :   }
; 684  : 
; 685  :   return value;
; 686  : } // end edge_scalar_integral_q_hess()

	mov	ecx, DWORD PTR __$ArrayPad$[ebp]
	fld	QWORD PTR _value$[ebp]
	pop	edi
	pop	esi
	xor	ecx, ebp
	pop	ebx
	call	@__security_check_cookie@4
	mov	esp, ebp
	pop	ebp
	ret	0
_edge_scalar_integral_q_hess ENDP
_TEXT	ENDS
PUBLIC	_edge_scalar_integral_lagr
EXTRN	_gauss_lagrange:BYTE
; Function compile flags: /Ogtp
;	COMDAT _edge_scalar_integral_lagr
_TEXT	SEGMENT
tv89 = -20						; size = 8
_value$ = -12						; size = 8
_mi$ = -4						; size = 4
_m$ = 8							; size = 4
_e_info$ = 8						; size = 4
_edge_scalar_integral_lagr PROC				; COMDAT

; 704  : { int m;

	push	ebp
	mov	ebp, esp
	sub	esp, 20					; 00000014H

; 705  :   REAL value = 0.0;

	fldz
	push	ebx

; 706  :   struct gauss_lag *gl = &gauss_lagrange[1][web.gauss1D_order];

	mov	ebx, DWORD PTR _web+1592
	fst	QWORD PTR _value$[ebp]
	push	esi
	push	edi

; 707  :   struct method_instance *mi = METH_INSTANCE(e_info->method);

	mov	edi, DWORD PTR _e_info$[ebp]
	mov	eax, DWORD PTR [edi+8]
	cdq
	xor	eax, edx
	sub	eax, edx
	imul	eax, 2928				; 00000b70H
	add	eax, DWORD PTR _meth_inst_list
	shl	ebx, 5
	add	ebx, DWORD PTR _gauss_lagrange+4

; 708  : 
; 709  :   for ( m = 0 ; m < gl->gnumpts ; m++ )

	xor	esi, esi
	mov	DWORD PTR _mi$[ebp], eax
	mov	DWORD PTR _m$[ebp], esi
	cmp	DWORD PTR [ebx+4], esi
	jle	SHORT $LN1@edge_scala@4
$LN12@edge_scala@4:

; 710  :   { e_info->gauss_pt[m][2*SDIM] = m; /* kludge for attr interpolation. */

	mov	eax, DWORD PTR [edi+1268]
	fstp	ST(0)
	mov	ecx, DWORD PTR _web+616
	fild	DWORD PTR _m$[ebp]
	mov	edx, DWORD PTR [eax+esi*4]
	add	ecx, ecx
	fstp	QWORD PTR [edx+ecx*8]

; 711  :     value += gl->gausswt[m]
; 712  :          *eval(mi->expr[0],e_info->gauss_pt[m],e_info->id,NULL)
; 713  :          *sqrt(SDIM_dot(e_info->sides[m][0],e_info->sides[m][0]));

	mov	eax, DWORD PTR [edi+1276]
	mov	ecx, DWORD PTR [eax+esi*4]
	mov	edx, DWORD PTR _web+616
	mov	eax, DWORD PTR [ecx]
	push	edx
	push	eax
	push	eax
	call	_dot
	add	esp, 12					; 0000000cH
	call	__CIsqrt
	fstp	QWORD PTR tv89[ebp]
	mov	eax, DWORD PTR [edi]
	mov	ecx, DWORD PTR [edi+1268]
	mov	edx, DWORD PTR [ecx+esi*4]
	push	0
	push	eax
	mov	eax, DWORD PTR _mi$[ebp]
	mov	ecx, DWORD PTR [eax+232]
	push	edx
	push	ecx
	call	_eval
	mov	edx, DWORD PTR [ebx+12]
	fmul	QWORD PTR [edx+esi*8]
	inc	esi
	add	esp, 16					; 00000010H
	mov	DWORD PTR _m$[ebp], esi
	fmul	QWORD PTR tv89[ebp]
	fadd	QWORD PTR _value$[ebp]
	fst	QWORD PTR _value$[ebp]
	cmp	esi, DWORD PTR [ebx+4]
	jl	SHORT $LN12@edge_scala@4
$LN1@edge_scala@4:
	pop	edi
	pop	esi
	pop	ebx

; 714  :   }
; 715  :   return value;
; 716  : } // end edge_scalar_integral_lagr()

	mov	esp, ebp
	pop	ebp
	ret	0
_edge_scalar_integral_lagr ENDP
_TEXT	ENDS
PUBLIC	_e_info$GSCopy$
PUBLIC	__$ArrayPad$
PUBLIC	_edge_scalar_integral_lagr_grad
; Function compile flags: /Ogtp
;	COMDAT _edge_scalar_integral_lagr_grad
_TEXT	SEGMENT
_val$ = -88						; size = 8
tv320 = -80						; size = 4
_mi$ = -76						; size = 4
_value$ = -72						; size = 8
tv426 = -64						; size = 4
_e_info$GSCopy$ = -60					; size = 4
_tang$ = -56						; size = 4
_m$ = -56						; size = 4
_derivs$ = -52						; size = 48
__$ArrayPad$ = -4					; size = 4
_e_info$ = 8						; size = 4
_edge_scalar_integral_lagr_grad PROC			; COMDAT

; 727  : { int m,k,j;

	push	ebp
	mov	ebp, esp
	sub	esp, 88					; 00000058H
	mov	eax, DWORD PTR ___security_cookie
	xor	eax, ebp
	mov	DWORD PTR __$ArrayPad$[ebp], eax

; 728  :   REAL value = 0.0;

	fldz
	push	ebx
	mov	ebx, DWORD PTR _e_info$[ebp]
	fst	QWORD PTR _value$[ebp]

; 729  :   REAL len,val;
; 730  :   REAL derivs[MAXCOORD];
; 731  :   REAL *tang;
; 732  :   struct gauss_lag *gl = &gauss_lagrange[1][web.gauss1D_order];
; 733  :   struct method_instance *mi = METH_INSTANCE(e_info->method);

	mov	eax, DWORD PTR [ebx+8]
	cdq
	xor	eax, edx
	sub	eax, edx
	imul	eax, 2928				; 00000b70H
	add	eax, DWORD PTR _meth_inst_list
	push	esi
	mov	esi, DWORD PTR _web+1592
	shl	esi, 5
	add	esi, DWORD PTR _gauss_lagrange+4
	push	edi

; 734  : 
; 735  :   for ( m = 0 ; m < gl->gnumpts ; m++ )

	xor	edi, edi
	mov	DWORD PTR _e_info$GSCopy$[ebp], ebx
	mov	DWORD PTR _mi$[ebp], eax
	mov	DWORD PTR _m$[ebp], edi
	cmp	DWORD PTR [esi+4], edi
	jle	$LN8@edge_scala@5
	mov	edx, DWORD PTR _web+616
	fstp	ST(0)
	jmp	SHORT $LN10@edge_scala@5
	npad	4
$LL23@edge_scala@5:
	mov	eax, DWORD PTR _mi$[ebp]
$LN10@edge_scala@5:

; 736  :   { e_info->gauss_pt[m][2*SDIM] = m; /* kludge for attr interpolation. */

	mov	ecx, DWORD PTR [ebx+1268]
	fild	DWORD PTR _m$[ebp]
	mov	ecx, DWORD PTR [ecx+edi*4]
	add	edx, edx
	fstp	QWORD PTR [ecx+edx*8]

; 737  :     eval_all(mi->expr[0],e_info->gauss_pt[m],SDIM,&val,derivs,e_info->id);

	mov	edx, DWORD PTR [ebx]
	push	edx
	lea	ecx, DWORD PTR _derivs$[ebp]
	push	ecx
	mov	ecx, DWORD PTR _web+616
	lea	edx, DWORD PTR _val$[ebp]
	push	edx
	mov	edx, DWORD PTR [ebx+1268]
	push	ecx
	mov	ecx, DWORD PTR [edx+edi*4]
	mov	edx, DWORD PTR [eax+232]
	push	ecx
	push	edx
	call	_eval_all

; 738  :     tang = e_info->sides[m][0];

	mov	eax, DWORD PTR [ebx+1276]
	mov	ecx, DWORD PTR [eax+edi*4]
	mov	eax, DWORD PTR [ecx]

; 739  :     len = sqrt(SDIM_dot(tang,tang));

	mov	edx, DWORD PTR _web+616
	push	edx
	push	eax
	push	eax
	mov	DWORD PTR _tang$[ebp], eax
	call	_dot
	add	esp, 36					; 00000024H
	call	__CIsqrt

; 740  :     if ( len == 0.0 ) continue;

	fld	ST(0)
	fldz
	fucompp
	fnstsw	ax
	test	ah, 68					; 00000044H
	jnp	$LN31@edge_scala@5

; 741  :     value += gl->gausswt[m]*val*len;

	mov	eax, DWORD PTR [esi+12]
	fld	QWORD PTR [eax+edi*8]

; 742  :     for ( k = 0 ; k < gl->lagpts ; k++ )

	xor	ecx, ecx
	fmul	QWORD PTR _val$[ebp]
	fmul	ST(0), ST(1)
	fadd	QWORD PTR _value$[ebp]
	fstp	QWORD PTR _value$[ebp]
	cmp	DWORD PTR [esi+16], ecx
	jle	SHORT $LN31@edge_scala@5
	mov	edx, DWORD PTR _web+616
$LN6@edge_scala@5:

; 743  :       for ( j = 0 ; j < SDIM ; j++ )

	xor	eax, eax
	test	edx, edx
	jle	SHORT $LN5@edge_scala@5
	mov	edx, DWORD PTR _tang$[ebp]
	lea	ebx, DWORD PTR _derivs$[ebp]
	sub	edx, ebx
	mov	DWORD PTR tv426[ebp], edx
$LN20@edge_scala@5:
	mov	ebx, DWORD PTR _e_info$GSCopy$[ebp]
	mov	ebx, DWORD PTR [ebx+1336]
	mov	ebx, DWORD PTR [ebx+ecx*4]
	lea	ebx, DWORD PTR [ebx+eax*8]
	mov	DWORD PTR tv320[ebp], ebx

; 744  :          e_info->grad[k][j] += 
; 745  :           gl->gausswt[m]*(gl->gpoly[m][k]*derivs[j]*len
; 746  :               + val*tang[j]/len*gl->gpolypart[m][0][k]);

	mov	ebx, DWORD PTR tv426[ebp]
	lea	edx, DWORD PTR _derivs$[ebp+eax*8]
	fld	QWORD PTR [ebx+edx]
	mov	ebx, DWORD PTR [esi+24]
	fmul	QWORD PTR _val$[ebp]
	mov	ebx, DWORD PTR [ebx+edi*4]
	mov	ebx, DWORD PTR [ebx]
	inc	eax
	fdiv	ST(0), ST(1)
	fmul	QWORD PTR [ebx+ecx*8]
	mov	ebx, DWORD PTR [esi+20]
	mov	ebx, DWORD PTR [ebx+edi*4]
	fld	QWORD PTR [ebx+ecx*8]
	fmul	QWORD PTR [edx]
	mov	edx, DWORD PTR [esi+12]
	fmul	ST(0), ST(2)
	faddp	ST(1), ST(0)
	fmul	QWORD PTR [edx+edi*8]
	mov	edx, DWORD PTR tv320[ebp]
	fadd	QWORD PTR [edx]
	fstp	QWORD PTR [edx]
	mov	edx, DWORD PTR _web+616
	cmp	eax, edx
	jl	SHORT $LN20@edge_scala@5

; 743  :       for ( j = 0 ; j < SDIM ; j++ )

	mov	ebx, DWORD PTR _e_info$GSCopy$[ebp]
$LN5@edge_scala@5:

; 742  :     for ( k = 0 ; k < gl->lagpts ; k++ )

	inc	ecx
	cmp	ecx, DWORD PTR [esi+16]
	jl	SHORT $LN6@edge_scala@5
	jmp	SHORT $LN42@edge_scala@5
$LN31@edge_scala@5:
	mov	edx, DWORD PTR _web+616
$LN42@edge_scala@5:

; 734  : 
; 735  :   for ( m = 0 ; m < gl->gnumpts ; m++ )

	inc	edi

; 742  :     for ( k = 0 ; k < gl->lagpts ; k++ )

	fstp	ST(0)
	mov	DWORD PTR _m$[ebp], edi
	cmp	edi, DWORD PTR [esi+4]
	jl	$LL23@edge_scala@5

; 747  :   }
; 748  :   return value;

	fld	QWORD PTR _value$[ebp]
$LN8@edge_scala@5:

; 749  : } // end edge_scalar_integral_lagr_grad()

	mov	ecx, DWORD PTR __$ArrayPad$[ebp]
	pop	edi
	pop	esi
	xor	ecx, ebp
	pop	ebx
	call	@__security_check_cookie@4
	mov	esp, ebp
	pop	ebp
	ret	0
_edge_scalar_integral_lagr_grad ENDP
_TEXT	ENDS
PUBLIC	_e_info$GSCopy$
PUBLIC	__$ArrayPad$
PUBLIC	_edge_scalar_integral_lagr_hess
; Function compile flags: /Ogtp
;	COMDAT _edge_scalar_integral_lagr_hess
_TEXT	SEGMENT
_secondqXvS$ = -436					; size = 24
_gl$ = -412						; size = 4
tv649 = -408						; size = 4
tv1003 = -404						; size = 4
tv1624 = -400						; size = 4
_mi$ = -396						; size = 4
_value$ = -392						; size = 8
_second$ = -384						; size = 4
_val$ = -380						; size = 8
_tang$ = -372						; size = 4
_m$ = -368						; size = 4
_jj$ = -364						; size = 4
_e_info$GSCopy$ = -360					; size = 4
tv1488 = -356						; size = 4
tv766 = -356						; size = 4
tv937 = -352						; size = 4
_j$ = -348						; size = 4
tv1088 = -344						; size = 4
tv544 = -344						; size = 4
_secondxJ$ = -340					; size = 288
_derivs$ = -52						; size = 48
__$ArrayPad$ = -4					; size = 4
_e_info$ = 8						; size = 4
_edge_scalar_integral_lagr_hess PROC			; COMDAT

; 760  : { int m,j,jj,k,kk;

	push	ebp
	mov	ebp, esp
	sub	esp, 436				; 000001b4H
	mov	eax, DWORD PTR ___security_cookie
	xor	eax, ebp
	mov	DWORD PTR __$ArrayPad$[ebp], eax

; 761  :   REAL value = 0.0;

	fldz
	push	esi
	push	edi
	fstp	QWORD PTR _value$[ebp]
	mov	edi, DWORD PTR _e_info$[ebp]

; 762  :   REAL len,val;
; 763  :   REAL derivs[MAXCOORD];
; 764  :   REAL sumgrad[2][MAXCOORD];
; 765  :   REAL sumhess[2][2][MAXCOORD][MAXCOORD];
; 766  :   MAT2D(second,MAXCOORD,MAXCOORD);

	push	6
	push	6
	lea	eax, DWORD PTR _secondxJ$[ebp]
	push	eax
	lea	ecx, DWORD PTR _secondqXvS$[ebp]
	push	ecx
	mov	DWORD PTR _e_info$GSCopy$[ebp], edi
	call	_mat2d_setup

; 767  :   REAL *tang;
; 768  :   struct gauss_lag *gl = &gauss_lagrange[1][web.gauss1D_order];

	mov	esi, DWORD PTR _web+1592
	mov	DWORD PTR _second$[ebp], eax

; 769  :   struct method_instance *mi = METH_INSTANCE(e_info->method);

	mov	eax, DWORD PTR [edi+8]
	cdq
	xor	eax, edx
	sub	eax, edx
	imul	eax, 2928				; 00000b70H
	add	eax, DWORD PTR _meth_inst_list
	shl	esi, 5
	add	esi, DWORD PTR _gauss_lagrange+4

; 770  : 
; 771  :   /* derivatives of gaussian sum part */
; 772  :   memset((char*)sumgrad,0,sizeof(sumgrad));
; 773  :   memset((char*)sumhess,0,sizeof(sumhess));
; 774  :   for ( m = 0 ; m < gl->gnumpts ; m++ )

	xor	edi, edi
	add	esp, 16					; 00000010H
	mov	DWORD PTR _gl$[ebp], esi
	mov	DWORD PTR _mi$[ebp], eax
	mov	DWORD PTR _m$[ebp], edi
	cmp	DWORD PTR [esi+4], edi
	jle	$LN41@edge_scala@6
	push	ebx
	mov	ebx, DWORD PTR _web+616
	jmp	SHORT $LN22@edge_scala@6
	npad	1
$LL47@edge_scala@6:
	mov	eax, DWORD PTR _mi$[ebp]
$LN22@edge_scala@6:

; 775  :   { e_info->gauss_pt[m][2*SDIM] = m; /* kludge for attr interpolation. */

	mov	ecx, DWORD PTR _e_info$GSCopy$[ebp]
	fild	DWORD PTR _m$[ebp]
	mov	edx, DWORD PTR [ecx+1268]
	mov	edx, DWORD PTR [edx+edi*4]

; 776  :     eval_second(mi->expr[0],e_info->gauss_pt[m],SDIM,&val,
; 777  :                                                      derivs,second,e_info->id);

	mov	eax, DWORD PTR [eax+232]
	add	ebx, ebx
	fstp	QWORD PTR [edx+ebx*8]
	mov	edx, DWORD PTR [ecx]
	mov	ecx, DWORD PTR [ecx+1268]
	push	edx
	mov	edx, DWORD PTR _second$[ebp]
	push	edx
	lea	edx, DWORD PTR _derivs$[ebp]
	push	edx
	lea	edx, DWORD PTR _val$[ebp]
	push	edx
	mov	edx, DWORD PTR _web+616
	push	edx
	mov	edx, DWORD PTR [ecx+edi*4]
	push	edx
	push	eax
	call	_eval_second

; 778  :     tang = e_info->sides[m][0];

	mov	ecx, DWORD PTR _e_info$GSCopy$[ebp]
	mov	edx, DWORD PTR [ecx+1276]
	mov	eax, DWORD PTR [edx+edi*4]
	mov	eax, DWORD PTR [eax]

; 779  :     len = sqrt(SDIM_dot(tang,tang));

	mov	ecx, DWORD PTR _web+616
	push	ecx
	push	eax
	push	eax
	mov	DWORD PTR _tang$[ebp], eax
	call	_dot
	add	esp, 40					; 00000028H
	call	__CIsqrt

; 780  :     if ( len == 0.0 ) continue;

	fld	ST(0)
	fldz

; 782  :     for ( k = 0 ; k < gl->lagpts ; k++ )

	mov	ebx, DWORD PTR _web+616
	fld	ST(0)
	fucomp	ST(2)
	fnstsw	ax
	fstp	ST(1)
	test	ah, 68					; 00000044H
	jnp	$LN51@edge_scala@6

; 781  :     value += gl->gausswt[m]*val*len;

	mov	edx, DWORD PTR [esi+12]
	fld	QWORD PTR [edx+edi*8]

; 782  :     for ( k = 0 ; k < gl->lagpts ; k++ )

	xor	ecx, ecx
	fld	QWORD PTR _val$[ebp]
	fmul	ST(1), ST(0)
	fxch	ST(1)
	fmul	ST(0), ST(3)
	fadd	QWORD PTR _value$[ebp]
	fstp	QWORD PTR _value$[ebp]
	cmp	DWORD PTR [esi+16], ecx
	jle	$LN16@edge_scala@6
$LN49@edge_scala@6:

; 783  :       for ( j = 0 ; j < SDIM ; j++ )

	xor	eax, eax
	test	ebx, ebx
	jle	SHORT $LN17@edge_scala@6
	mov	edx, DWORD PTR _tang$[ebp]
	lea	ebx, DWORD PTR _derivs$[ebp]
	sub	edx, ebx
	mov	DWORD PTR tv766[ebp], edx
$LN42@edge_scala@6:
	mov	edx, DWORD PTR _e_info$GSCopy$[ebp]
	mov	edx, DWORD PTR [edx+1336]
	mov	edx, DWORD PTR [edx+ecx*4]
	lea	edx, DWORD PTR [edx+eax*8]
	mov	DWORD PTR tv544[ebp], edx

; 784  :          e_info->grad[k][j] += 
; 785  :              gl->gausswt[m]*(gl->gpoly[m][k]*derivs[j]*len
; 786  :                                   + val*tang[j]/len*gl->gpolypart[m][0][k]);

	mov	edx, DWORD PTR tv766[ebp]
	lea	ebx, DWORD PTR _derivs$[ebp+eax*8]
	fmul	QWORD PTR [edx+ebx]
	mov	edx, DWORD PTR [esi+24]
	mov	edx, DWORD PTR [edx+edi*4]
	mov	edx, DWORD PTR [edx]
	fdiv	ST(0), ST(2)
	inc	eax
	fmul	QWORD PTR [edx+ecx*8]
	mov	edx, DWORD PTR [esi+20]
	mov	edx, DWORD PTR [edx+edi*4]
	fld	QWORD PTR [edx+ecx*8]
	mov	edx, DWORD PTR [esi+12]
	fmul	QWORD PTR [ebx]
	fmul	ST(0), ST(3)
	faddp	ST(1), ST(0)
	fmul	QWORD PTR [edx+edi*8]
	mov	edx, DWORD PTR tv544[ebp]
	fadd	QWORD PTR [edx]
	fstp	QWORD PTR [edx]
	mov	ebx, DWORD PTR _web+616
	fld	QWORD PTR _val$[ebp]
	cmp	eax, ebx
	jl	SHORT $LN42@edge_scala@6
$LN17@edge_scala@6:

; 782  :     for ( k = 0 ; k < gl->lagpts ; k++ )

	inc	ecx
	cmp	ecx, DWORD PTR [esi+16]
	jl	SHORT $LN49@edge_scala@6
$LN16@edge_scala@6:

; 787  :     for ( k = 0 ; k < gl->lagpts ; k++ )

	mov	edx, DWORD PTR [esi+16]
	xor	ecx, ecx
	test	edx, edx
	jle	$LN67@edge_scala@6
$LN48@edge_scala@6:

; 788  :       for ( kk = 0 ; kk < gl->lagpts ; kk++ )

	xor	eax, eax
	test	edx, edx
	jle	$LN11@edge_scala@6
$LN9@edge_scala@6:

; 789  :          for ( j = 0 ; j < SDIM ; j++ )

	mov	DWORD PTR _j$[ebp], 0
	test	ebx, ebx
	jle	$LN8@edge_scala@6
	mov	edx, DWORD PTR _tang$[ebp]
	lea	ebx, DWORD PTR _derivs$[ebp]
	sub	ebx, edx
	mov	DWORD PTR tv1488[ebp], ebx
	mov	ebx, DWORD PTR _web+616
	mov	DWORD PTR tv1088[ebp], edx
	jmp	SHORT $LN6@edge_scala@6
$LN46@edge_scala@6:
	mov	edx, DWORD PTR _tang$[ebp]
$LN6@edge_scala@6:

; 790  :             for ( jj = 0 ; jj < SDIM ; jj++ )

	mov	DWORD PTR _jj$[ebp], 0
	test	ebx, ebx
	jle	$LN5@edge_scala@6
	mov	ebx, DWORD PTR _j$[ebp]
	mov	DWORD PTR tv937[ebp], edx
	mov	edx, DWORD PTR _second$[ebp]
	mov	edx, DWORD PTR [edx+ebx*4]
	lea	ebx, DWORD PTR _derivs$[ebp]
	sub	edx, ebx
	mov	DWORD PTR tv1003[ebp], edx
	mov	edx, DWORD PTR _jj$[ebp]
$LN3@edge_scala@6:

; 791  :               e_info->hess[k][kk][j][jj] += gl->gausswt[m]*
; 792  :      ( second[j][jj]*gl->gpoly[m][k]*gl->gpoly[m][kk]*len
; 793  :      + derivs[j]*gl->gpoly[m][k]*tang[jj]*gl->gpolypart[m][0][kk]/len
; 794  :      + derivs[jj]*gl->gpoly[m][kk]*tang[j]*gl->gpolypart[m][0][k]/len
; 795  :      - val*tang[j]*tang[jj]*gl->gpolypart[m][0][k]*gl->gpolypart[m][0][kk]/len/len/len
; 796  :      + ((j==jj)? val*gl->gpolypart[m][0][k]*gl->gpolypart[m][0][kk]/len : 0.0));

	cmp	DWORD PTR _j$[ebp], edx
	jne	SHORT $LN25@edge_scala@6
	mov	edx, DWORD PTR [esi+24]
	mov	edx, DWORD PTR [edx+edi*4]
	mov	edx, DWORD PTR [edx]
	fld	QWORD PTR [edx+ecx*8]
	fmul	ST(0), ST(1)
	fmul	QWORD PTR [edx+eax*8]
	fdiv	ST(0), ST(3)
	jmp	SHORT $LN26@edge_scala@6
$LN25@edge_scala@6:
	fld	ST(1)
$LN26@edge_scala@6:
	mov	edx, DWORD PTR [esi+20]
	mov	edx, DWORD PTR [edx+edi*4]
	mov	esi, DWORD PTR [esi+24]
	fld	QWORD PTR [edx+ecx*8]
	mov	esi, DWORD PTR [esi+edi*4]
	mov	edi, DWORD PTR tv937[ebp]
	add	edi, DWORD PTR tv1488[ebp]
	mov	ebx, DWORD PTR _j$[ebp]
	mov	esi, DWORD PTR [esi]
	mov	DWORD PTR tv1624[ebp], edi
	mov	edi, DWORD PTR _e_info$GSCopy$[ebp]
	mov	edi, DWORD PTR [edi+1340]
	mov	edi, DWORD PTR [edi+ecx*4]
	mov	edi, DWORD PTR [edi+eax*4]
	mov	edi, DWORD PTR [edi+ebx*4]
	mov	ebx, DWORD PTR _jj$[ebp]
	lea	edi, DWORD PTR [edi+ebx*8]
	mov	ebx, DWORD PTR tv1088[ebp]
	mov	DWORD PTR tv649[ebp], edi
	mov	edi, DWORD PTR tv1488[ebp]
	fmul	QWORD PTR [edi+ebx]
	mov	edi, DWORD PTR tv937[ebp]
	mov	ebx, DWORD PTR tv1003[ebp]
	fmul	QWORD PTR [edi]
	mov	edi, DWORD PTR tv1624[ebp]
	fmul	QWORD PTR [esi+eax*8]
	fdiv	ST(0), ST(4)
	fld	QWORD PTR [ebx+edi]
	fmul	QWORD PTR [edx+ecx*8]
	mov	ebx, DWORD PTR tv937[ebp]
	add	ebx, 8
	mov	DWORD PTR tv937[ebp], ebx
	fmul	QWORD PTR [edx+eax*8]
	fmul	ST(0), ST(5)
	faddp	ST(1), ST(0)
	fld	QWORD PTR [edx+eax*8]
	mov	edx, DWORD PTR tv1088[ebp]
	fmul	QWORD PTR [edi]
	mov	edi, DWORD PTR _m$[ebp]
	fmul	QWORD PTR [edx]
	fmul	QWORD PTR [esi+ecx*8]
	fdiv	ST(0), ST(5)
	faddp	ST(1), ST(0)
	fxch	ST(2)
	fmul	QWORD PTR [edx]
	fmul	QWORD PTR [ebx-8]
	fmul	QWORD PTR [esi+ecx*8]
	fmul	QWORD PTR [esi+eax*8]
	mov	esi, DWORD PTR _gl$[ebp]
	mov	edx, DWORD PTR [esi+12]
	fdiv	ST(0), ST(4)
	fdiv	ST(0), ST(4)
	fdiv	ST(0), ST(4)
	fsubp	ST(2), ST(0)
	faddp	ST(1), ST(0)
	fmul	QWORD PTR [edx+edi*8]
	mov	edx, DWORD PTR tv649[ebp]
	fadd	QWORD PTR [edx]
	fstp	QWORD PTR [edx]
	mov	edx, DWORD PTR _jj$[ebp]
	mov	ebx, DWORD PTR _web+616
	fld	QWORD PTR _val$[ebp]
	inc	edx
	mov	DWORD PTR _jj$[ebp], edx
	cmp	edx, ebx
	jl	$LN3@edge_scala@6
$LN5@edge_scala@6:

; 789  :          for ( j = 0 ; j < SDIM ; j++ )

	inc	DWORD PTR _j$[ebp]
	add	DWORD PTR tv1088[ebp], 8
	cmp	DWORD PTR _j$[ebp], ebx
	jl	$LN46@edge_scala@6
$LN8@edge_scala@6:

; 788  :       for ( kk = 0 ; kk < gl->lagpts ; kk++ )

	inc	eax
	cmp	eax, DWORD PTR [esi+16]
	jl	$LN9@edge_scala@6
$LN11@edge_scala@6:

; 787  :     for ( k = 0 ; k < gl->lagpts ; k++ )

	mov	edx, DWORD PTR [esi+16]
	inc	ecx
	cmp	ecx, edx
	jl	$LN48@edge_scala@6
$LN67@edge_scala@6:
	fstp	ST(2)
$LN51@edge_scala@6:

; 770  : 
; 771  :   /* derivatives of gaussian sum part */
; 772  :   memset((char*)sumgrad,0,sizeof(sumgrad));
; 773  :   memset((char*)sumhess,0,sizeof(sumhess));
; 774  :   for ( m = 0 ; m < gl->gnumpts ; m++ )

	inc	edi

; 787  :     for ( k = 0 ; k < gl->lagpts ; k++ )

	fstp	ST(1)
	fstp	ST(0)
	mov	DWORD PTR _m$[ebp], edi
	cmp	edi, DWORD PTR [esi+4]
	jl	$LL47@edge_scala@6
	pop	ebx
$LN41@edge_scala@6:

; 797  :   }
; 798  : 
; 799  :   return value;
; 800  : } // end edge_scalar_integral_lagr_hess()

	mov	ecx, DWORD PTR __$ArrayPad$[ebp]
	fld	QWORD PTR _value$[ebp]
	pop	edi
	xor	ecx, ebp
	pop	esi
	call	@__security_check_cookie@4
	mov	esp, ebp
	pop	ebp
	ret	0
_edge_scalar_integral_lagr_hess ENDP
_TEXT	ENDS
PUBLIC	__real@bff0000000000000
PUBLIC	_e_info$GSCopy$
PUBLIC	__$ArrayPad$
PUBLIC	_edge_vector_integral_q
;	COMDAT __real@bff0000000000000
CONST	SEGMENT
__real@bff0000000000000 DQ 0bff0000000000000r	; -1
; Function compile flags: /Ogtp
CONST	ENDS
;	COMDAT _edge_vector_integral_q
_TEXT	SEGMENT
_weight$89663 = -96					; size = 8
_sign$ = -88						; size = 8
_value$ = -80						; size = 8
_k$ = -72						; size = 4
_mi$ = -68						; size = 4
_e_info$GSCopy$ = -64					; size = 4
tv1287 = -60						; size = 4
tv981 = -56						; size = 4
_m$ = -56						; size = 4
_tang$ = -52						; size = 48
__$ArrayPad$ = -4					; size = 4
_e_info$ = 8						; size = 4
_edge_vector_integral_q PROC				; COMDAT

; 946  : { int m,j,k;

	push	ebp
	mov	ebp, esp
	sub	esp, 96					; 00000060H
	mov	eax, DWORD PTR ___security_cookie
	xor	eax, ebp
	mov	DWORD PTR __$ArrayPad$[ebp], eax

; 947  :   REAL value=0.0;
; 948  :   REAL tang[MAXCOORD];
; 949  :   REAL sign = (get_eattr(e_info->id) & NEGBOUNDARY) ? -1.0 : 1.0;

	mov	ecx, DWORD PTR _web+124
	fldz
	push	ebx
	fst	QWORD PTR _value$[ebp]
	mov	ebx, DWORD PTR _e_info$[ebp]
	mov	eax, DWORD PTR [ebx]
	and	eax, 134217727				; 07ffffffH
	mov	eax, DWORD PTR [ecx+eax*4]
	mov	eax, DWORD PTR [eax+8]
	and	eax, 256				; 00000100H
	xor	ecx, ecx
	or	eax, ecx
	push	edi

; 958  :           tang[j] += gauss1polyd[k][m]*e_info->x[k][j];

	mov	DWORD PTR _e_info$GSCopy$[ebp], ebx
	je	SHORT $LN12@edge_vecto

; 947  :   REAL value=0.0;
; 948  :   REAL tang[MAXCOORD];
; 949  :   REAL sign = (get_eattr(e_info->id) & NEGBOUNDARY) ? -1.0 : 1.0;

	fld	QWORD PTR __real@bff0000000000000
	jmp	SHORT $LN43@edge_vecto
$LN12@edge_vecto:
	fld1
$LN43@edge_vecto:

; 950  :   struct method_instance *mi = METH_INSTANCE(e_info->method);

	mov	eax, DWORD PTR [ebx+8]
	fstp	QWORD PTR _sign$[ebp]
	cdq
	xor	eax, edx
	sub	eax, edx
	imul	eax, 2928				; 00000b70H
	add	eax, DWORD PTR _meth_inst_list

; 951  : 
; 952  :   for ( m = 0 ; m < gauss1D_num ; m++ )

	xor	edi, edi
	mov	DWORD PTR _mi$[ebp], eax
	mov	DWORD PTR _m$[ebp], edi
	cmp	DWORD PTR _gauss1D_num, ecx
	jle	$LN7@edge_vecto
	mov	ecx, DWORD PTR _web+616
	push	esi
$LN25@edge_vecto:

; 953  :   { REAL weight = sign*gauss1Dwt[m];

	mov	edx, DWORD PTR _gauss1Dwt
	fld	QWORD PTR [edx+edi*8]

; 954  :     e_info->gauss_pt[m][2*SDIM] = m; /* kludge for attr interpolation. */

	mov	edx, DWORD PTR [ebx+1268]
	fmul	QWORD PTR _sign$[ebp]
	mov	edx, DWORD PTR [edx+edi*4]
	add	ecx, ecx

; 955  :      for ( j = 0 ; j < SDIM ; j++ )

	xor	esi, esi
	fstp	QWORD PTR _weight$89663[ebp]
	fild	DWORD PTR _m$[ebp]
	fstp	QWORD PTR [edx+ecx*8]
	mov	ecx, DWORD PTR _web+616
	test	ecx, ecx
	jle	$LN8@edge_vecto

; 953  :   { REAL weight = sign*gauss1Dwt[m];

	add	eax, 232				; 000000e8H
	mov	DWORD PTR tv1287[ebp], eax
	npad	1
$LL41@edge_vecto:

; 957  :         for ( k = 0 ; k < edge_ctrl ; k++ )

	mov	edx, DWORD PTR _edge_ctrl
	fstp	ST(0)
	fldz
	xor	eax, eax
	fstp	QWORD PTR _tang$[ebp+esi*8]
	cmp	edx, 4
	jl	SHORT $LC21@edge_vecto

; 956  :      { tang[j] = 0.0;

	mov	ecx, DWORD PTR _gauss1polyd
	add	edx, -4					; fffffffcH
	shr	edx, 2
	inc	edx
	mov	DWORD PTR tv981[ebp], edx
	add	edx, edx
	add	ecx, 8
	add	edx, edx
	lea	eax, DWORD PTR [ebx+420]
	mov	DWORD PTR _k$[ebp], edx

; 957  :         for ( k = 0 ; k < edge_ctrl ; k++ )

$LL22@edge_vecto:

; 958  :           tang[j] += gauss1polyd[k][m]*e_info->x[k][j];

	mov	edx, DWORD PTR [eax-4]
	fld	QWORD PTR [edx+esi*8]
	mov	ebx, DWORD PTR [ecx-8]
	fmul	QWORD PTR [ebx+edi*8]
	mov	edx, DWORD PTR [ecx-4]
	mov	ebx, DWORD PTR [eax]
	add	eax, 16					; 00000010H
	fadd	QWORD PTR _tang$[ebp+esi*8]
	add	ecx, 16					; 00000010H
	dec	DWORD PTR tv981[ebp]
	fld	QWORD PTR [edx+edi*8]
	fmul	QWORD PTR [ebx+esi*8]
	mov	edx, DWORD PTR [eax-12]
	mov	ebx, DWORD PTR [ecx-16]
	faddp	ST(1), ST(0)
	fld	QWORD PTR [edx+esi*8]
	mov	edx, DWORD PTR [eax-8]
	fmul	QWORD PTR [ebx+edi*8]
	mov	ebx, DWORD PTR [ecx-12]
	faddp	ST(1), ST(0)
	fld	QWORD PTR [edx+esi*8]
	fmul	QWORD PTR [ebx+edi*8]
	faddp	ST(1), ST(0)
	fstp	QWORD PTR _tang$[ebp+esi*8]
	jne	SHORT $LL22@edge_vecto

; 956  :      { tang[j] = 0.0;

	mov	edx, DWORD PTR _edge_ctrl
	mov	ebx, DWORD PTR _e_info$GSCopy$[ebp]
	mov	eax, DWORD PTR _k$[ebp]
$LC21@edge_vecto:

; 957  :         for ( k = 0 ; k < edge_ctrl ; k++ )

	cmp	eax, edx
	jge	SHORT $LN20@edge_vecto
	lea	edx, DWORD PTR [ebx+eax*4+416]
$LL26@edge_vecto:

; 958  :           tang[j] += gauss1polyd[k][m]*e_info->x[k][j];

	mov	ecx, DWORD PTR _gauss1polyd
	mov	ecx, DWORD PTR [ecx+eax*4]
	mov	ebx, DWORD PTR [edx]
	fld	QWORD PTR [ecx+edi*8]
	fmul	QWORD PTR [ebx+esi*8]
	inc	eax
	add	edx, 4
	fadd	QWORD PTR _tang$[ebp+esi*8]
	fstp	QWORD PTR _tang$[ebp+esi*8]
	cmp	eax, DWORD PTR _edge_ctrl
	jl	SHORT $LL26@edge_vecto

; 957  :         for ( k = 0 ; k < edge_ctrl ; k++ )

	mov	ebx, DWORD PTR _e_info$GSCopy$[ebp]
$LN20@edge_vecto:

; 959  :         value += weight*tang[j]*eval(mi->expr[j],
; 960  :                           e_info->gauss_pt[m],e_info->id,NULL);

	mov	edx, DWORD PTR [ebx]
	mov	eax, DWORD PTR [ebx+1268]
	mov	ecx, DWORD PTR [eax+edi*4]
	push	0
	push	edx
	mov	edx, DWORD PTR tv1287[ebp]
	mov	eax, DWORD PTR [edx]
	push	ecx
	push	eax
	call	_eval
	fld	QWORD PTR _tang$[ebp+esi*8]
	fmul	QWORD PTR _weight$89663[ebp]
	mov	ecx, DWORD PTR _web+616
	add	DWORD PTR tv1287[ebp], 4
	inc	esi
	fmulp	ST(1), ST(0)
	add	esp, 16					; 00000010H
	fadd	QWORD PTR _value$[ebp]
	fst	QWORD PTR _value$[ebp]
	cmp	esi, ecx
	jl	$LL41@edge_vecto

; 955  :      for ( j = 0 ; j < SDIM ; j++ )

	mov	eax, DWORD PTR _mi$[ebp]
$LN8@edge_vecto:

; 951  : 
; 952  :   for ( m = 0 ; m < gauss1D_num ; m++ )

	inc	edi
	mov	DWORD PTR _m$[ebp], edi
	cmp	edi, DWORD PTR _gauss1D_num
	jl	$LN25@edge_vecto
	pop	esi
$LN7@edge_vecto:

; 961  :      }
; 962  :   }
; 963  :   return value;
; 964  : } // end edge_vector_integral_q()

	mov	ecx, DWORD PTR __$ArrayPad$[ebp]
	pop	edi
	xor	ecx, ebp
	pop	ebx
	call	@__security_check_cookie@4
	mov	esp, ebp
	pop	ebp
	ret	0
_edge_vector_integral_q ENDP
_TEXT	ENDS
PUBLIC	_e_info$GSCopy$
PUBLIC	__$ArrayPad$
PUBLIC	_edge_vector_integral_q_grad
; Function compile flags: /Ogtp
;	COMDAT _edge_vector_integral_q_grad
_TEXT	SEGMENT
_weight$89690 = -428					; size = 8
_value$ = -420						; size = 8
_sign$ = -412						; size = 8
_mi$ = -404						; size = 4
_e_info$GSCopy$ = -400					; size = 4
tv246 = -396						; size = 4
_j$ = -396						; size = 4
_m$ = -396						; size = 4
tv1489 = -392						; size = 4
_k$ = -392						; size = 4
_derivs$ = -388						; size = 288
_val$ = -100						; size = 48
_tang$ = -52						; size = 48
__$ArrayPad$ = -4					; size = 4
_e_info$ = 8						; size = 4
_edge_vector_integral_q_grad PROC			; COMDAT

; 975  : { int m,j,k,i;

	push	ebp
	mov	ebp, esp
	sub	esp, 428				; 000001acH
	mov	eax, DWORD PTR ___security_cookie
	xor	eax, ebp
	mov	DWORD PTR __$ArrayPad$[ebp], eax

; 976  :   REAL value = 0.0;
; 977  :   REAL val[MAXCOORD];
; 978  :   REAL derivs[MAXCOORD][MAXCOORD];
; 979  :   REAL sum;
; 980  :   REAL tang[MAXCOORD];
; 981  :   REAL sign = (get_eattr(e_info->id) & NEGBOUNDARY) ? -1.0 : 1.0;

	mov	ecx, DWORD PTR _web+124
	fldz
	push	esi
	fld	ST(0)
	push	edi
	fst	QWORD PTR _value$[ebp]
	mov	edi, DWORD PTR _e_info$[ebp]
	mov	eax, DWORD PTR [edi]
	and	eax, 134217727				; 07ffffffH
	mov	eax, DWORD PTR [ecx+eax*4]
	mov	eax, DWORD PTR [eax+8]
	and	eax, 256				; 00000100H
	xor	ecx, ecx
	or	eax, ecx

; 990  :            tang[j] += gauss1polyd[k][m]*e_info->x[k][j];

	mov	DWORD PTR _e_info$GSCopy$[ebp], edi
	je	SHORT $LN24@edge_vecto@2

; 976  :   REAL value = 0.0;
; 977  :   REAL val[MAXCOORD];
; 978  :   REAL derivs[MAXCOORD][MAXCOORD];
; 979  :   REAL sum;
; 980  :   REAL tang[MAXCOORD];
; 981  :   REAL sign = (get_eattr(e_info->id) & NEGBOUNDARY) ? -1.0 : 1.0;

	fld	QWORD PTR __real@bff0000000000000
	jmp	SHORT $LN107@edge_vecto@2
$LN24@edge_vecto@2:
	fld1
$LN107@edge_vecto@2:

; 982  :   struct method_instance *mi = METH_INSTANCE(e_info->method);

	mov	eax, DWORD PTR [edi+8]
	fstp	QWORD PTR _sign$[ebp]
	cdq
	xor	eax, edx
	sub	eax, edx
	imul	eax, 2928				; 00000b70H
	add	eax, DWORD PTR _meth_inst_list

; 983  : 
; 984  :   for ( m = 0 ; m < gauss1D_num ; m++ )

	xor	esi, esi
	mov	DWORD PTR _mi$[ebp], eax
	mov	DWORD PTR _m$[ebp], esi
	cmp	DWORD PTR _gauss1D_num, ecx
	jle	$LN61@edge_vecto@2
	mov	edx, DWORD PTR _web+616
	push	ebx
	jmp	SHORT $LN108@edge_vecto@2
	npad	3
$LL105@edge_vecto@2:
	mov	edi, DWORD PTR _e_info$GSCopy$[ebp]
$LN108@edge_vecto@2:

; 985  :   { REAL weight = sign*gauss1Dwt[m];

	mov	eax, DWORD PTR _gauss1Dwt
	fstp	ST(0)
	fld	QWORD PTR [eax+esi*8]

; 986  :     e_info->gauss_pt[m][2*SDIM] = m; /* kludge for attr interpolation. */

	mov	ecx, DWORD PTR [edi+1268]
	fmul	QWORD PTR _sign$[ebp]
	mov	eax, DWORD PTR [ecx+esi*4]
	add	edx, edx
	fstp	QWORD PTR _weight$89690[ebp]
	fild	DWORD PTR _m$[ebp]
	fstp	QWORD PTR [eax+edx*8]

; 987  :     for ( j = 0 ; j < SDIM ; j++ ) 

	mov	edx, DWORD PTR _web+616
	xor	eax, eax
	test	edx, edx
	jle	$LN80@edge_vecto@2
	mov	ebx, DWORD PTR _edge_ctrl
$LN18@edge_vecto@2:

; 989  :       for ( k = 0 ; k < edge_ctrl ; k++ )

	xor	ecx, ecx
	fst	QWORD PTR _tang$[ebp+eax*8]
	cmp	ebx, 4
	jl	$LC41@edge_vecto@2

; 988  :     { tang[j] = 0.0;

	mov	edx, DWORD PTR _gauss1polyd
	lea	ecx, DWORD PTR [edi+420]
	lea	edi, DWORD PTR [ebx-4]
	shr	edi, 2
	inc	edi
	mov	DWORD PTR tv246[ebp], edi
	add	edi, edi
	add	edx, 8
	add	edi, edi
	mov	DWORD PTR _k$[ebp], edi

; 989  :       for ( k = 0 ; k < edge_ctrl ; k++ )

$LN42@edge_vecto@2:

; 990  :            tang[j] += gauss1polyd[k][m]*e_info->x[k][j];

	mov	ebx, DWORD PTR [edx-8]
	mov	edi, DWORD PTR [ecx-4]
	fld	QWORD PTR [edi+eax*8]
	add	ecx, 16					; 00000010H
	fmul	QWORD PTR [ebx+esi*8]
	mov	ebx, DWORD PTR [ecx-16]
	add	edx, 16					; 00000010H
	dec	DWORD PTR tv246[ebp]
	fadd	QWORD PTR _tang$[ebp+eax*8]
	fst	QWORD PTR _tang$[ebp+eax*8]
	mov	edi, DWORD PTR [edx-20]
	fld	QWORD PTR [edi+esi*8]
	mov	edi, DWORD PTR [ecx-12]
	fmul	QWORD PTR [ebx+eax*8]
	faddp	ST(1), ST(0)
	fst	QWORD PTR _tang$[ebp+eax*8]
	mov	ebx, DWORD PTR [edx-16]
	fld	QWORD PTR [edi+eax*8]
	mov	edi, DWORD PTR [ecx-8]
	fmul	QWORD PTR [ebx+esi*8]
	faddp	ST(1), ST(0)
	fst	QWORD PTR _tang$[ebp+eax*8]
	mov	ebx, DWORD PTR [edx-12]
	fld	QWORD PTR [edi+eax*8]
	fmul	QWORD PTR [ebx+esi*8]
	faddp	ST(1), ST(0)
	fstp	QWORD PTR _tang$[ebp+eax*8]
	jne	SHORT $LN42@edge_vecto@2

; 988  :     { tang[j] = 0.0;

	mov	ebx, DWORD PTR _edge_ctrl
	mov	edx, DWORD PTR _web+616
	mov	ecx, DWORD PTR _k$[ebp]
	mov	edi, DWORD PTR _e_info$GSCopy$[ebp]
$LC41@edge_vecto@2:

; 989  :       for ( k = 0 ; k < edge_ctrl ; k++ )

	cmp	ecx, ebx
	jge	SHORT $LN17@edge_vecto@2
	lea	edi, DWORD PTR [edi+ecx*4+416]
$LN50@edge_vecto@2:

; 990  :            tang[j] += gauss1polyd[k][m]*e_info->x[k][j];

	mov	edx, DWORD PTR _gauss1polyd
	mov	edx, DWORD PTR [edx+ecx*4]
	mov	ebx, DWORD PTR [edi]
	fld	QWORD PTR [edx+esi*8]
	fmul	QWORD PTR [ebx+eax*8]
	mov	ebx, DWORD PTR _edge_ctrl
	inc	ecx
	add	edi, 4
	fadd	QWORD PTR _tang$[ebp+eax*8]
	fstp	QWORD PTR _tang$[ebp+eax*8]
	cmp	ecx, ebx
	jl	SHORT $LN50@edge_vecto@2

; 989  :       for ( k = 0 ; k < edge_ctrl ; k++ )

	mov	edx, DWORD PTR _web+616
	mov	edi, DWORD PTR _e_info$GSCopy$[ebp]
$LN17@edge_vecto@2:

; 987  :     for ( j = 0 ; j < SDIM ; j++ ) 

	inc	eax
	cmp	eax, edx
	jl	$LN18@edge_vecto@2
$LN80@edge_vecto@2:

; 989  :       for ( k = 0 ; k < edge_ctrl ; k++ )

	fstp	ST(0)

; 991  :     }
; 992  :     for ( j = 0 ; j < SDIM ; j++ ) 

	mov	DWORD PTR _j$[ebp], 0
	test	edx, edx
	jle	SHORT $LN10@edge_vecto@2
	mov	ebx, DWORD PTR _mi$[ebp]
	lea	eax, DWORD PTR _val$[ebp]
	mov	DWORD PTR tv1489[ebp], eax
	lea	edi, DWORD PTR _derivs$[ebp]
	add	ebx, 232				; 000000e8H
	npad	3
$LL53@edge_vecto@2:

; 993  :       eval_all(mi->expr[j],e_info->gauss_pt[m],SDIM,val+j,
; 994  :                                                    derivs[j],e_info->id);

	mov	eax, DWORD PTR _e_info$GSCopy$[ebp]
	mov	ecx, DWORD PTR [eax]
	push	ecx
	mov	ecx, DWORD PTR tv1489[ebp]
	push	edi
	push	ecx
	mov	ecx, DWORD PTR [ebx]
	push	edx
	mov	edx, DWORD PTR [eax+1268]
	mov	eax, DWORD PTR [edx+esi*4]
	push	eax
	push	ecx
	call	_eval_all
	mov	eax, DWORD PTR _j$[ebp]
	mov	edx, DWORD PTR _web+616
	add	DWORD PTR tv1489[ebp], 8
	inc	eax
	add	esp, 24					; 00000018H
	add	ebx, 4
	add	edi, 48					; 00000030H
	mov	DWORD PTR _j$[ebp], eax
	cmp	eax, edx
	jl	SHORT $LL53@edge_vecto@2
$LN10@edge_vecto@2:

; 995  :     value += weight*SDIM_dot(val,tang);

	push	edx
	lea	edx, DWORD PTR _tang$[ebp]
	push	edx
	lea	eax, DWORD PTR _val$[ebp]
	push	eax
	call	_dot
	fld	QWORD PTR _weight$89690[ebp]

; 996  :     for ( k = 0 ; k < SDIM ; k++ )

	mov	edx, DWORD PTR _web+616
	fmul	ST(1), ST(0)
	fxch	ST(1)
	xor	edi, edi
	add	esp, 12					; 0000000cH
	fadd	QWORD PTR _value$[ebp]
	mov	DWORD PTR _k$[ebp], edi
	fst	QWORD PTR _value$[ebp]
	test	edx, edx
	jle	$LN82@edge_vecto@2
	fldz
$LN55@edge_vecto@2:

; 997  :     { for ( sum = 0.0, j = 0 ; j < SDIM ; j++ )

	xor	eax, eax
	fld	ST(0)
	cmp	edx, 4
	jl	SHORT $LC44@edge_vecto@2

; 996  :     for ( k = 0 ; k < SDIM ; k++ )

	lea	ebx, DWORD PTR [edx-3]
	lea	ecx, DWORD PTR _derivs$[ebp+edi*8+48]
$LN54@edge_vecto@2:

; 998  :         sum += derivs[j][k]*tang[j];

	fld	QWORD PTR _tang$[ebp+eax*8]
	add	eax, 4
	fmul	QWORD PTR [ecx-48]
	add	ecx, 192				; 000000c0H
	faddp	ST(1), ST(0)
	fld	QWORD PTR _tang$[ebp+eax*8-24]
	fmul	QWORD PTR [ecx-192]
	faddp	ST(1), ST(0)
	fld	QWORD PTR _tang$[ebp+eax*8-16]
	fmul	QWORD PTR [ecx-144]
	faddp	ST(1), ST(0)
	fld	QWORD PTR _tang$[ebp+eax*8-8]
	fmul	QWORD PTR [ecx-96]
	faddp	ST(1), ST(0)
	cmp	eax, ebx
	jl	SHORT $LN54@edge_vecto@2
$LC44@edge_vecto@2:

; 997  :     { for ( sum = 0.0, j = 0 ; j < SDIM ; j++ )

	cmp	eax, edx
	jge	SHORT $LN43@edge_vecto@2
	lea	ecx, DWORD PTR [eax+eax*2]
	lea	ecx, DWORD PTR [edi+ecx*2]
	lea	ecx, DWORD PTR _derivs$[ebp+ecx*8]
$LC6@edge_vecto@2:

; 998  :         sum += derivs[j][k]*tang[j];

	fld	QWORD PTR _tang$[ebp+eax*8]
	inc	eax
	fmul	QWORD PTR [ecx]
	add	ecx, 48					; 00000030H
	faddp	ST(1), ST(0)
	cmp	eax, edx
	jl	SHORT $LC6@edge_vecto@2
$LN43@edge_vecto@2:

; 999  :       for ( i = 0 ; i < edge_ctrl ; i++ )

	xor	eax, eax
	cmp	DWORD PTR _edge_ctrl, eax
	jle	SHORT $LN94@edge_vecto@2
	mov	ebx, DWORD PTR _gauss1polyd
	sub	ebx, DWORD PTR _gauss1poly
$LN3@edge_vecto@2:
	mov	edx, DWORD PTR _gauss1poly
	lea	ecx, DWORD PTR [edx+eax*4]
	mov	edx, DWORD PTR _e_info$GSCopy$[ebp]
	mov	edx, DWORD PTR [edx+1336]
	mov	edx, DWORD PTR [edx+eax*4]
	lea	edx, DWORD PTR [edx+edi*8]

; 1000 :         e_info->grad[i][k] += 
; 1001 :                   weight*(gauss1polyd[i][m]*val[k] + gauss1poly[i][m]*sum);

	mov	edi, DWORD PTR [ecx+ebx]
	fld	QWORD PTR [edi+esi*8]
	mov	edi, DWORD PTR _k$[ebp]
	fmul	QWORD PTR _val$[ebp+edi*8]
	mov	ecx, DWORD PTR [ecx]
	fld	QWORD PTR [ecx+esi*8]
	inc	eax
	fmul	ST(0), ST(2)
	faddp	ST(1), ST(0)
	fmul	ST(0), ST(4)
	fadd	QWORD PTR [edx]
	fstp	QWORD PTR [edx]
	cmp	eax, DWORD PTR _edge_ctrl
	jl	SHORT $LN3@edge_vecto@2

; 999  :       for ( i = 0 ; i < edge_ctrl ; i++ )

	mov	edx, DWORD PTR _web+616
$LN94@edge_vecto@2:

; 996  :     for ( k = 0 ; k < SDIM ; k++ )

	inc	edi

; 999  :       for ( i = 0 ; i < edge_ctrl ; i++ )

	fstp	ST(0)
	mov	DWORD PTR _k$[ebp], edi
	cmp	edi, edx
	jl	$LN55@edge_vecto@2

; 996  :     for ( k = 0 ; k < SDIM ; k++ )

	fstp	ST(2)
	jmp	SHORT $LN20@edge_vecto@2
$LN82@edge_vecto@2:
	fstp	ST(1)
	fldz
	fxch	ST(1)
$LN20@edge_vecto@2:

; 983  : 
; 984  :   for ( m = 0 ; m < gauss1D_num ; m++ )

	inc	esi
	mov	DWORD PTR _m$[ebp], esi
	cmp	esi, DWORD PTR _gauss1D_num
	jl	$LL105@edge_vecto@2
	pop	ebx
$LN61@edge_vecto@2:

; 1002 :     }
; 1003 :   }
; 1004 : 
; 1005 :   return value;
; 1006 : } // end edge_vector_integral_q_grad()

	mov	ecx, DWORD PTR __$ArrayPad$[ebp]
	fstp	ST(1)
	pop	edi
	xor	ecx, ebp
	pop	esi
	call	@__security_check_cookie@4
	mov	esp, ebp
	pop	ebp
	ret	0
_edge_vector_integral_q_grad ENDP
_TEXT	ENDS
PUBLIC	_e_info$GSCopy$
PUBLIC	__$ArrayPad$
PUBLIC	_edge_vector_integral_q_hess
EXTRN	_mat3d_setup:PROC
; Function compile flags: /Ogtp
;	COMDAT _edge_vector_integral_q_hess
_TEXT	SEGMENT
_secondqXvS$ = -2352					; size = 168
_sign$ = -2184						; size = 8
tv3414 = -2176						; size = 4
_weight$89734 = -2172					; size = 8
tv3717 = -2168						; size = 4
_value$ = -2164						; size = 8
tv2430 = -2156						; size = 4
_mi$ = -2152						; size = 4
_ii$ = -2148						; size = 4
_second$ = -2144					; size = 4
tv3540 = -2140						; size = 4
tv1100 = -2136						; size = 4
_m$ = -2136						; size = 4
_e_info$GSCopy$ = -2132					; size = 4
tv3627 = -2128						; size = 4
tv599 = -2128						; size = 4
tv1863 = -2124						; size = 4
_i$ = -2124						; size = 4
tv1865 = -2120						; size = 4
_k$ = -2120						; size = 4
_secondxJ$ = -2116					; size = 1728
_derivs$ = -388						; size = 288
_val$ = -100						; size = 48
_tang$ = -52						; size = 48
__$ArrayPad$ = -4					; size = 4
_e_info$ = 8						; size = 4
_edge_vector_integral_q_hess PROC			; COMDAT

; 1017 : { int m,i,j,k,ii,kk;

	push	ebp
	mov	ebp, esp
	sub	esp, 2352				; 00000930H
	mov	eax, DWORD PTR ___security_cookie
	xor	eax, ebp
	mov	DWORD PTR __$ArrayPad$[ebp], eax

; 1018 :   REAL value = 0.0;

	fldz
	push	ebx
	push	esi
	fstp	QWORD PTR _value$[ebp]
	mov	esi, DWORD PTR _e_info$[ebp]

; 1019 :   REAL val[MAXCOORD];
; 1020 :   REAL derivs[MAXCOORD][MAXCOORD];
; 1021 :   REAL sum;
; 1022 :   MAT3D(second,MAXCOORD,MAXCOORD,MAXCOORD);

	push	6
	push	6
	push	6
	lea	eax, DWORD PTR _secondxJ$[ebp]
	push	eax
	lea	ecx, DWORD PTR _secondqXvS$[ebp]
	push	ecx
	mov	DWORD PTR _e_info$GSCopy$[ebp], esi
	call	_mat3d_setup

; 1023 :   REAL tang[MAXCOORD];
; 1024 :   REAL sign = (get_eattr(e_info->id) & NEGBOUNDARY) ? -1.0 : 1.0;

	mov	edx, DWORD PTR [esi]
	mov	DWORD PTR _second$[ebp], eax
	mov	eax, DWORD PTR _web+124
	and	edx, 134217727				; 07ffffffH
	mov	eax, DWORD PTR [eax+edx*4]
	mov	eax, DWORD PTR [eax+8]
	and	eax, 256				; 00000100H
	xor	ecx, ecx
	add	esp, 20					; 00000014H
	or	eax, ecx
	je	SHORT $LN39@edge_vecto@3
	fld	QWORD PTR __real@bff0000000000000
	jmp	SHORT $LN165@edge_vecto@3
$LN39@edge_vecto@3:
	fld1
$LN165@edge_vecto@3:

; 1025 :   struct method_instance *mi = METH_INSTANCE(e_info->method);

	mov	eax, DWORD PTR [esi+8]
	fstp	QWORD PTR _sign$[ebp]
	cdq
	mov	ebx, eax
	xor	ebx, edx
	sub	ebx, edx
	imul	ebx, 2928				; 00000b70H
	add	ebx, DWORD PTR _meth_inst_list

; 1026 : 
; 1027 :   for ( m = 0 ; m < gauss1D_num ; m++ )

	xor	esi, esi
	mov	DWORD PTR _mi$[ebp], ebx
	mov	DWORD PTR _m$[ebp], esi
	cmp	DWORD PTR _gauss1D_num, ecx
	jle	$LN74@edge_vecto@3
	fldz
	push	edi
	mov	edi, DWORD PTR _web+616
	jmp	SHORT $LN36@edge_vecto@3
$LL164@edge_vecto@3:
	mov	ebx, DWORD PTR _mi$[ebp]
	fstp	ST(0)
$LN36@edge_vecto@3:

; 1028 :   { REAL weight = sign*gauss1Dwt[m];

	mov	ecx, DWORD PTR _gauss1Dwt
	fld	QWORD PTR [ecx+esi*8]

; 1029 :     e_info->gauss_pt[m][2*SDIM] = m; /* kludge for attr interpolation. */

	mov	edx, DWORD PTR _e_info$GSCopy$[ebp]
	fmul	QWORD PTR _sign$[ebp]
	mov	eax, DWORD PTR [edx+1268]
	mov	ecx, DWORD PTR [eax+esi*4]
	add	edi, edi
	fstp	QWORD PTR _weight$89734[ebp]

; 1030 :     for ( j = 0 ; j < SDIM ; j++ ) 

	xor	eax, eax
	fild	DWORD PTR _m$[ebp]
	fstp	QWORD PTR [ecx+edi*8]
	mov	edx, DWORD PTR _web+616
	test	edx, edx
	jle	$LN93@edge_vecto@3
	mov	ebx, DWORD PTR _edge_ctrl
$LN86@edge_vecto@3:

; 1032 :       for ( k = 0 ; k < edge_ctrl ; k++ )

	xor	ecx, ecx
	fst	QWORD PTR _tang$[ebp+eax*8]
	cmp	ebx, 4
	jl	$LN79@edge_vecto@3

; 1031 :     { tang[j] = 0.0;

	mov	edx, DWORD PTR _gauss1polyd
	mov	ecx, DWORD PTR _e_info$GSCopy$[ebp]
	lea	edi, DWORD PTR [ebx-4]
	shr	edi, 2
	inc	edi
	mov	DWORD PTR tv599[ebp], edi
	add	edi, edi
	add	edx, 8
	add	ecx, 420				; 000001a4H
	add	edi, edi
	mov	DWORD PTR _k$[ebp], edi

; 1032 :       for ( k = 0 ; k < edge_ctrl ; k++ )

$LN67@edge_vecto@3:

; 1033 :           tang[j] += gauss1polyd[k][m]*e_info->x[k][j];

	mov	ebx, DWORD PTR [edx-8]
	mov	edi, DWORD PTR [ecx-4]
	fld	QWORD PTR [edi+eax*8]
	add	ecx, 16					; 00000010H
	fmul	QWORD PTR [ebx+esi*8]
	mov	ebx, DWORD PTR [ecx-16]
	add	edx, 16					; 00000010H
	dec	DWORD PTR tv599[ebp]
	fadd	QWORD PTR _tang$[ebp+eax*8]
	fst	QWORD PTR _tang$[ebp+eax*8]
	mov	edi, DWORD PTR [edx-20]
	fld	QWORD PTR [edi+esi*8]
	mov	edi, DWORD PTR [ecx-12]
	fmul	QWORD PTR [ebx+eax*8]
	faddp	ST(1), ST(0)
	fst	QWORD PTR _tang$[ebp+eax*8]
	mov	ebx, DWORD PTR [edx-16]
	fld	QWORD PTR [edi+eax*8]
	mov	edi, DWORD PTR [ecx-8]
	fmul	QWORD PTR [ebx+esi*8]
	faddp	ST(1), ST(0)
	fst	QWORD PTR _tang$[ebp+eax*8]
	mov	ebx, DWORD PTR [edx-12]
	fld	QWORD PTR [edi+eax*8]
	fmul	QWORD PTR [ebx+esi*8]
	faddp	ST(1), ST(0)
	fstp	QWORD PTR _tang$[ebp+eax*8]
	jne	SHORT $LN67@edge_vecto@3

; 1031 :     { tang[j] = 0.0;

	mov	edx, DWORD PTR _web+616
	mov	ecx, DWORD PTR _k$[ebp]
	mov	ebx, DWORD PTR _edge_ctrl
$LN79@edge_vecto@3:

; 1032 :       for ( k = 0 ; k < edge_ctrl ; k++ )

	cmp	ecx, ebx
	jge	SHORT $LN32@edge_vecto@3
	mov	edx, DWORD PTR _e_info$GSCopy$[ebp]
	lea	edi, DWORD PTR [edx+ecx*4+416]
$LN84@edge_vecto@3:

; 1033 :           tang[j] += gauss1polyd[k][m]*e_info->x[k][j];

	mov	edx, DWORD PTR _gauss1polyd
	mov	edx, DWORD PTR [edx+ecx*4]
	mov	ebx, DWORD PTR [edi]
	fld	QWORD PTR [edx+esi*8]
	fmul	QWORD PTR [ebx+eax*8]
	mov	ebx, DWORD PTR _edge_ctrl
	inc	ecx
	add	edi, 4
	fadd	QWORD PTR _tang$[ebp+eax*8]
	fstp	QWORD PTR _tang$[ebp+eax*8]
	cmp	ecx, ebx
	jl	SHORT $LN84@edge_vecto@3

; 1032 :       for ( k = 0 ; k < edge_ctrl ; k++ )

	mov	edx, DWORD PTR _web+616
$LN32@edge_vecto@3:

; 1030 :     for ( j = 0 ; j < SDIM ; j++ ) 

	inc	eax
	cmp	eax, edx
	jl	$LN86@edge_vecto@3
	mov	ebx, DWORD PTR _mi$[ebp]
$LN93@edge_vecto@3:

; 1034 :     }
; 1035 :     for ( j = 0 ; j < SDIM ; j++ ) 

	xor	edi, edi
	fstp	ST(0)
	test	edx, edx
	jle	SHORT $LN25@edge_vecto@3
	lea	eax, DWORD PTR _val$[ebp]
	lea	ecx, DWORD PTR _derivs$[ebp]
	mov	DWORD PTR tv1863[ebp], eax
	mov	DWORD PTR tv1865[ebp], ecx
	add	ebx, 232				; 000000e8H
$LL85@edge_vecto@3:

; 1036 :       eval_second(mi->expr[j],e_info->gauss_pt[m],SDIM,
; 1037 :         val+j, derivs[j],second[j],e_info->id);

	mov	eax, DWORD PTR _e_info$GSCopy$[ebp]
	mov	ecx, DWORD PTR [eax]
	push	ecx
	mov	ecx, DWORD PTR _second$[ebp]
	mov	ecx, DWORD PTR [ecx+edi*4]
	push	ecx
	mov	ecx, DWORD PTR tv1865[ebp]
	push	ecx
	mov	ecx, DWORD PTR tv1863[ebp]
	push	ecx
	mov	ecx, DWORD PTR [ebx]
	push	edx
	mov	edx, DWORD PTR [eax+1268]
	mov	eax, DWORD PTR [edx+esi*4]
	push	eax
	push	ecx
	call	_eval_second
	mov	edx, DWORD PTR _web+616
	add	DWORD PTR tv1865[ebp], 48		; 00000030H
	add	DWORD PTR tv1863[ebp], 8
	inc	edi
	add	esp, 28					; 0000001cH
	add	ebx, 4
	cmp	edi, edx
	jl	SHORT $LL85@edge_vecto@3
$LN25@edge_vecto@3:

; 1038 :     value += weight*SDIM_dot(val,tang);

	push	edx
	lea	edx, DWORD PTR _tang$[ebp]
	push	edx
	lea	eax, DWORD PTR _val$[ebp]
	push	eax
	call	_dot
	fld	QWORD PTR _weight$89734[ebp]

; 1039 :     for ( k = 0 ; k < SDIM ; k++ )

	mov	edi, DWORD PTR _web+616
	fmul	ST(1), ST(0)
	fxch	ST(1)
	xor	edx, edx
	add	esp, 12					; 0000000cH
	fadd	QWORD PTR _value$[ebp]
	mov	DWORD PTR _k$[ebp], edx
	fst	QWORD PTR _value$[ebp]
	fldz
	test	edi, edi
	jle	$LN22@edge_vecto@3
$LN89@edge_vecto@3:

; 1040 :       { for ( sum = 0.0, j = 0 ; j < SDIM ; j++ )

	xor	eax, eax
	fld	ST(0)
	cmp	edi, 4
	jl	SHORT $LC69@edge_vecto@3

; 1039 :     for ( k = 0 ; k < SDIM ; k++ )

	lea	ebx, DWORD PTR [edi-3]
	lea	ecx, DWORD PTR _derivs$[ebp+edx*8+48]
$LN88@edge_vecto@3:

; 1041 :              sum += derivs[j][k]*tang[j];

	fld	QWORD PTR _tang$[ebp+eax*8]
	add	eax, 4
	fmul	QWORD PTR [ecx-48]
	add	ecx, 192				; 000000c0H
	faddp	ST(1), ST(0)
	fld	QWORD PTR _tang$[ebp+eax*8-24]
	fmul	QWORD PTR [ecx-192]
	faddp	ST(1), ST(0)
	fld	QWORD PTR _tang$[ebp+eax*8-16]
	fmul	QWORD PTR [ecx-144]
	faddp	ST(1), ST(0)
	fld	QWORD PTR _tang$[ebp+eax*8-8]
	fmul	QWORD PTR [ecx-96]
	faddp	ST(1), ST(0)
	cmp	eax, ebx
	jl	SHORT $LN88@edge_vecto@3
$LC69@edge_vecto@3:

; 1040 :       { for ( sum = 0.0, j = 0 ; j < SDIM ; j++ )

	cmp	eax, edi
	jge	SHORT $LN68@edge_vecto@3
	lea	ecx, DWORD PTR [eax+eax*2]
	lea	ecx, DWORD PTR [edx+ecx*2]
	lea	ecx, DWORD PTR _derivs$[ebp+ecx*8]
$LC21@edge_vecto@3:

; 1041 :              sum += derivs[j][k]*tang[j];

	fld	QWORD PTR _tang$[ebp+eax*8]
	inc	eax
	fmul	QWORD PTR [ecx]
	add	ecx, 48					; 00000030H
	faddp	ST(1), ST(0)
	cmp	eax, edi
	jl	SHORT $LC21@edge_vecto@3
$LN68@edge_vecto@3:

; 1042 :          for ( i = 0 ; i < edge_ctrl ; i++ )

	xor	eax, eax
	cmp	DWORD PTR _edge_ctrl, eax
	jle	SHORT $LN123@edge_vecto@3
	mov	edi, DWORD PTR _gauss1polyd
	sub	edi, DWORD PTR _gauss1poly
$LN18@edge_vecto@3:

; 1039 :     for ( k = 0 ; k < SDIM ; k++ )

	mov	ebx, DWORD PTR _e_info$GSCopy$[ebp]
	mov	ebx, DWORD PTR [ebx+1336]
	mov	ebx, DWORD PTR [ebx+eax*4]

; 1042 :          for ( i = 0 ; i < edge_ctrl ; i++ )

	mov	ecx, DWORD PTR _gauss1poly
	lea	edx, DWORD PTR [ebx+edx*8]
	lea	ecx, DWORD PTR [ecx+eax*4]

; 1043 :             e_info->grad[i][k] += 
; 1044 :               weight*(gauss1polyd[i][m]*val[k] + gauss1poly[i][m]*sum);

	mov	ebx, DWORD PTR [ecx+edi]
	fld	QWORD PTR [ebx+esi*8]
	mov	ebx, DWORD PTR _k$[ebp]
	fmul	QWORD PTR _val$[ebp+ebx*8]
	mov	ecx, DWORD PTR [ecx]
	fld	QWORD PTR [ecx+esi*8]
	inc	eax
	fmul	ST(0), ST(2)
	faddp	ST(1), ST(0)
	fmul	ST(0), ST(4)
	fadd	QWORD PTR [edx]
	fstp	QWORD PTR [edx]
	mov	edx, ebx
	cmp	eax, DWORD PTR _edge_ctrl
	jl	SHORT $LN18@edge_vecto@3

; 1042 :          for ( i = 0 ; i < edge_ctrl ; i++ )

	mov	edi, DWORD PTR _web+616
$LN123@edge_vecto@3:

; 1039 :     for ( k = 0 ; k < SDIM ; k++ )

	inc	edx

; 1042 :          for ( i = 0 ; i < edge_ctrl ; i++ )

	fstp	ST(0)
	mov	DWORD PTR _k$[ebp], edx
	cmp	edx, edi
	jl	$LN89@edge_vecto@3
$LN22@edge_vecto@3:

; 1045 :       }
; 1046 : 
; 1047 :     for ( ii = 0 ; ii < SDIM ; ii++ )

	xor	eax, eax
	mov	DWORD PTR _ii$[ebp], eax
	cmp	edi, eax
	jle	$LN161@edge_vecto@3
	mov	DWORD PTR tv3627[ebp], eax
$LN90@edge_vecto@3:

; 1048 :      for ( i = 0 ; i < SDIM ; i++ )

	xor	edx, edx
	mov	DWORD PTR _i$[ebp], edx
	test	edi, edi
	jle	$LN14@edge_vecto@3

; 1045 :       }
; 1046 : 
; 1047 :     for ( ii = 0 ; ii < SDIM ; ii++ )

	lea	ecx, DWORD PTR _derivs$[ebp+eax*8]
	mov	DWORD PTR tv3540[ebp], ecx
$LN82@edge_vecto@3:

; 1049 :       { for ( sum = 0.0, j = 0 ; j < SDIM ; j++ )

	xor	ecx, ecx
	fld	ST(0)
	cmp	edi, 4
	jl	SHORT $LC72@edge_vecto@3
	mov	ebx, DWORD PTR _second$[ebp]
	add	ebx, 8
$LN73@edge_vecto@3:

; 1050 :              sum += second[j][ii][i]*tang[j];

	mov	edi, DWORD PTR [ebx-8]
	mov	edi, DWORD PTR [edi+eax*4]
	fld	QWORD PTR [edi+edx*8]
	mov	edi, DWORD PTR [ebx-4]
	fmul	QWORD PTR _tang$[ebp+ecx*8]
	mov	edi, DWORD PTR [edi+eax*4]
	add	ecx, 4
	add	ebx, 16					; 00000010H
	faddp	ST(1), ST(0)
	fld	QWORD PTR [edi+edx*8]
	mov	edi, DWORD PTR [ebx-16]
	fmul	QWORD PTR _tang$[ebp+ecx*8-24]
	mov	edi, DWORD PTR [edi+eax*4]
	faddp	ST(1), ST(0)
	fld	QWORD PTR [edi+edx*8]
	mov	edi, DWORD PTR [ebx-12]
	fmul	QWORD PTR _tang$[ebp+ecx*8-16]
	mov	edi, DWORD PTR [edi+eax*4]
	faddp	ST(1), ST(0)
	fld	QWORD PTR [edi+edx*8]

; 1053 :               e_info->hess[k][kk][i][ii] += weight*
; 1054 :               ( sum*gauss1poly[k][m]*gauss1poly[kk][m]
; 1055 :                  + gauss1polyd[k][m]*derivs[i][ii]*gauss1poly[kk][m]
; 1056 :                  + gauss1polyd[kk][m]*derivs[ii][i]*gauss1poly[k][m]
; 1057 :               );

	mov	edi, DWORD PTR _web+616
	fmul	QWORD PTR _tang$[ebp+ecx*8-8]
	add	edi, -3					; fffffffdH
	faddp	ST(1), ST(0)
	cmp	ecx, edi
	jl	SHORT $LN73@edge_vecto@3

; 1050 :              sum += second[j][ii][i]*tang[j];

	mov	edi, DWORD PTR _web+616
$LC72@edge_vecto@3:

; 1049 :       { for ( sum = 0.0, j = 0 ; j < SDIM ; j++ )

	cmp	ecx, edi
	jge	SHORT $LN71@edge_vecto@3
$LN83@edge_vecto@3:

; 1050 :              sum += second[j][ii][i]*tang[j];

	mov	ebx, DWORD PTR _second$[ebp]
	mov	ebx, DWORD PTR [ebx+ecx*4]
	mov	ebx, DWORD PTR [ebx+eax*4]
	fld	QWORD PTR [ebx+edx*8]
	inc	ecx
	fmul	QWORD PTR _tang$[ebp+ecx*8-8]
	faddp	ST(1), ST(0)
	cmp	ecx, edi
	jl	SHORT $LN83@edge_vecto@3
$LN71@edge_vecto@3:

; 1051 :          for ( k = 0 ; k < edge_ctrl ; k++ )

	mov	ecx, DWORD PTR _edge_ctrl
	xor	ebx, ebx
	mov	DWORD PTR _k$[ebp], ebx
	test	ecx, ecx
	jle	$LN149@edge_vecto@3
	mov	edi, DWORD PTR _gauss1polyd
	sub	edi, DWORD PTR _gauss1poly
	mov	DWORD PTR tv2430[ebp], edi
$LN6@edge_vecto@3:

; 1052 :             for ( kk = 0 ; kk < edge_ctrl ; kk++ )

	xor	edi, edi
	test	ecx, ecx
	jle	$LN5@edge_vecto@3

; 1026 : 
; 1027 :   for ( m = 0 ; m < gauss1D_num ; m++ )

	mov	eax, DWORD PTR _gauss1poly
	mov	ecx, DWORD PTR tv2430[ebp]

; 1051 :          for ( k = 0 ; k < edge_ctrl ; k++ )

	lea	eax, DWORD PTR [eax+ebx*4]
	mov	ecx, DWORD PTR [ecx+eax]
	mov	eax, DWORD PTR [eax]
	lea	ecx, DWORD PTR [ecx+esi*8]
	mov	DWORD PTR tv3414[ebp], ecx
	mov	ecx, DWORD PTR tv3627[ebp]
	add	ecx, edx
	lea	edx, DWORD PTR _derivs$[ebp+ecx*8]
	lea	ecx, DWORD PTR [eax+esi*8]

; 1052 :             for ( kk = 0 ; kk < edge_ctrl ; kk++ )

	mov	eax, DWORD PTR _gauss1poly
	mov	DWORD PTR tv3717[ebp], edx
	mov	DWORD PTR tv1100[ebp], ecx
$LN3@edge_vecto@3:

; 1053 :               e_info->hess[k][kk][i][ii] += weight*
; 1054 :               ( sum*gauss1poly[k][m]*gauss1poly[kk][m]
; 1055 :                  + gauss1polyd[k][m]*derivs[i][ii]*gauss1poly[kk][m]
; 1056 :                  + gauss1polyd[kk][m]*derivs[ii][i]*gauss1poly[k][m]
; 1057 :               );

	mov	edx, DWORD PTR [eax]
	fld	ST(0)
	lea	ecx, DWORD PTR [edx+esi*8]
	mov	edx, DWORD PTR _e_info$GSCopy$[ebp]
	mov	edx, DWORD PTR [edx+1340]
	mov	edx, DWORD PTR [edx+ebx*4]
	mov	edx, DWORD PTR [edx+edi*4]
	mov	ebx, DWORD PTR _i$[ebp]
	mov	edx, DWORD PTR [edx+ebx*4]
	mov	ebx, DWORD PTR _ii$[ebp]
	lea	edx, DWORD PTR [edx+ebx*8]
	mov	ebx, DWORD PTR tv1100[ebp]
	fmul	QWORD PTR [ebx]
	mov	ebx, DWORD PTR tv3414[ebp]
	inc	edi
	add	eax, 4
	fmul	QWORD PTR [ecx]
	fld	QWORD PTR [ebx]
	mov	ebx, DWORD PTR tv3540[ebp]
	fmul	QWORD PTR [ebx]
	mov	ebx, DWORD PTR _k$[ebp]
	fmul	QWORD PTR [ecx]
	mov	ecx, DWORD PTR tv2430[ebp]
	mov	ecx, DWORD PTR [ecx+eax-4]
	faddp	ST(1), ST(0)
	fld	QWORD PTR [ecx+esi*8]
	mov	ecx, DWORD PTR tv3717[ebp]
	fmul	QWORD PTR [ecx]
	mov	ecx, DWORD PTR tv1100[ebp]
	fmul	QWORD PTR [ecx]
	faddp	ST(1), ST(0)
	fmul	ST(0), ST(4)
	fadd	QWORD PTR [edx]
	fstp	QWORD PTR [edx]
	cmp	edi, DWORD PTR _edge_ctrl
	jl	SHORT $LN3@edge_vecto@3

; 1052 :             for ( kk = 0 ; kk < edge_ctrl ; kk++ )

	mov	eax, DWORD PTR _ii$[ebp]
	mov	edx, DWORD PTR _i$[ebp]
	mov	ecx, DWORD PTR _edge_ctrl
$LN5@edge_vecto@3:

; 1051 :          for ( k = 0 ; k < edge_ctrl ; k++ )

	inc	ebx
	mov	DWORD PTR _k$[ebp], ebx
	cmp	ebx, ecx
	jl	$LN6@edge_vecto@3
	mov	edi, DWORD PTR _web+616
$LN149@edge_vecto@3:

; 1048 :      for ( i = 0 ; i < SDIM ; i++ )

	add	DWORD PTR tv3540[ebp], 48		; 00000030H

; 1051 :          for ( k = 0 ; k < edge_ctrl ; k++ )

	fstp	ST(0)
	inc	edx
	mov	DWORD PTR _i$[ebp], edx
	cmp	edx, edi
	jl	$LN82@edge_vecto@3
$LN14@edge_vecto@3:

; 1045 :       }
; 1046 : 
; 1047 :     for ( ii = 0 ; ii < SDIM ; ii++ )

	add	DWORD PTR tv3627[ebp], 6
	inc	eax
	mov	DWORD PTR _ii$[ebp], eax
	cmp	eax, edi
	jl	$LN90@edge_vecto@3
$LN161@edge_vecto@3:

; 1026 : 
; 1027 :   for ( m = 0 ; m < gauss1D_num ; m++ )

	inc	esi

; 1051 :          for ( k = 0 ; k < edge_ctrl ; k++ )

	fstp	ST(2)
	mov	DWORD PTR _m$[ebp], esi
	cmp	esi, DWORD PTR _gauss1D_num
	jl	$LL164@edge_vecto@3

; 1026 : 
; 1027 :   for ( m = 0 ; m < gauss1D_num ; m++ )

	pop	edi
	fstp	ST(1)
	pop	esi
	pop	ebx

; 1058 :       }
; 1059 :   }
; 1060 : 
; 1061 :   return value;
; 1062 : } // end edge_vector_integral_q_hess()

	mov	ecx, DWORD PTR __$ArrayPad$[ebp]
	xor	ecx, ebp
	call	@__security_check_cookie@4
	mov	esp, ebp
	pop	ebp
	ret	0
$LN74@edge_vecto@3:
	mov	ecx, DWORD PTR __$ArrayPad$[ebp]
	fld	QWORD PTR _value$[ebp]
	pop	esi
	xor	ecx, ebp
	pop	ebx
	call	@__security_check_cookie@4
	mov	esp, ebp
	pop	ebp
	ret	0
_edge_vector_integral_q_hess ENDP
_TEXT	ENDS
PUBLIC	_q_edge_area_q
EXTRN	_scoeff:BYTE
; Function compile flags: /Ogtp
;	COMDAT _q_edge_area_q
_TEXT	SEGMENT
tv1096 = -8						; size = 4
_i$ = -4						; size = 4
_e_info$ = 8						; size = 4
_q_edge_area_q PROC					; COMDAT

; 1194 : { REAL **x;

	push	ebp
	mov	ebp, esp
	sub	esp, 8

; 1195 :   REAL area;
; 1196 :   int i,j;
; 1197 : 
; 1198 :   x = e_info->x;

	mov	eax, DWORD PTR _e_info$[ebp]

; 1199 : 
; 1200 :   /* main integral over edge */
; 1201 :   area = 0.0;

	fldz
	push	esi

; 1202 :   for ( i = 0 ; i < edge_ctrl ; i++ )

	mov	esi, DWORD PTR _edge_ctrl
	xor	ecx, ecx
	mov	DWORD PTR _i$[ebp], ecx
	test	esi, esi
	jle	$LN4@q_edge_are

; 1195 :   REAL area;
; 1196 :   int i,j;
; 1197 : 
; 1198 :   x = e_info->x;

	push	ebx
	mov	DWORD PTR tv1096[ebp], OFFSET _scoeff+24
	push	edi
$LN17@q_edge_are:

; 1203 :      for ( j = 0 ; j < edge_ctrl ; j++ )

	xor	edi, edi
	cmp	esi, 4
	jl	SHORT $LC14@q_edge_are
	mov	edx, DWORD PTR [eax+ecx*4+416]
	mov	ecx, DWORD PTR tv1096[ebp]
	add	esi, -4					; fffffffcH
	shr	esi, 2
	add	eax, 424				; 000001a8H
	inc	esi
	lea	edi, DWORD PTR [esi*4]
$LN15@q_edge_are:

; 1204 :         { REAL v = scoeff[j][i];
; 1205 :           area += v*x[i][0]*x[j][1];

	fld	QWORD PTR [ecx-24]
	mov	ebx, DWORD PTR [eax-8]
	fmul	QWORD PTR [edx]
	add	eax, 16					; 00000010H
	add	ecx, 96					; 00000060H
	dec	esi
	fmul	QWORD PTR [ebx+8]
	mov	ebx, DWORD PTR [eax-20]
	faddp	ST(1), ST(0)
	fld	QWORD PTR [edx]
	fmul	QWORD PTR [ecx-96]
	fmul	QWORD PTR [ebx+8]
	mov	ebx, DWORD PTR [eax-16]
	faddp	ST(1), ST(0)
	fld	QWORD PTR [ecx-72]
	fmul	QWORD PTR [edx]
	fmul	QWORD PTR [ebx+8]
	mov	ebx, DWORD PTR [eax-12]
	faddp	ST(1), ST(0)
	fld	QWORD PTR [ecx-48]
	fmul	QWORD PTR [edx]
	fmul	QWORD PTR [ebx+8]
	faddp	ST(1), ST(0)
	jne	SHORT $LN15@q_edge_are

; 1203 :      for ( j = 0 ; j < edge_ctrl ; j++ )

	mov	esi, DWORD PTR _edge_ctrl
	mov	ecx, DWORD PTR _i$[ebp]
	mov	eax, DWORD PTR _e_info$[ebp]
$LC14@q_edge_are:
	cmp	edi, esi
	jge	SHORT $LN5@q_edge_are
	mov	edx, DWORD PTR [eax+ecx*4+416]
	lea	ecx, DWORD PTR [ecx+edi*2]
	add	ecx, edi
	lea	ecx, DWORD PTR _scoeff[ecx*8]
$LC3@q_edge_are:

; 1204 :         { REAL v = scoeff[j][i];
; 1205 :           area += v*x[i][0]*x[j][1];

	fld	QWORD PTR [ecx]
	mov	ebx, DWORD PTR [eax+edi*4+416]
	fmul	QWORD PTR [edx]
	inc	edi
	add	ecx, 24					; 00000018H
	fmul	QWORD PTR [ebx+8]
	faddp	ST(1), ST(0)
	cmp	edi, esi
	jl	SHORT $LC3@q_edge_are

; 1203 :      for ( j = 0 ; j < edge_ctrl ; j++ )

	mov	ecx, DWORD PTR _i$[ebp]
$LN5@q_edge_are:

; 1202 :   for ( i = 0 ; i < edge_ctrl ; i++ )

	add	DWORD PTR tv1096[ebp], 8
	inc	ecx
	mov	DWORD PTR _i$[ebp], ecx
	cmp	ecx, esi
	jl	$LN17@q_edge_are
	pop	edi
	pop	ebx
$LN4@q_edge_are:
	pop	esi

; 1206 :         }
; 1207 : 
; 1208 :   return area;
; 1209 : } // end q_edge_area_q()

	mov	esp, ebp
	pop	ebp
	ret	0
_q_edge_area_q ENDP
_TEXT	ENDS
PUBLIC	_q_edge_area_q_grad
; Function compile flags: /Ogtp
;	COMDAT _q_edge_area_q_grad
_TEXT	SEGMENT
tv482 = -28						; size = 4
_g$ = -24						; size = 4
_x$ = -20						; size = 4
tv416 = -16						; size = 4
_j$ = -12						; size = 4
tv467 = -8						; size = 4
_i$ = -4						; size = 4
tv465 = 8						; size = 4
_e_info$ = 8						; size = 4
_q_edge_area_q_grad PROC				; COMDAT

; 1219 : { REAL **x,**g;

	push	ebp
	mov	ebp, esp
	sub	esp, 28					; 0000001cH

; 1220 :   REAL area;
; 1221 :   int i,j,k;
; 1222 : 
; 1223 :   x = e_info->x;

	mov	eax, DWORD PTR _e_info$[ebp]

; 1224 :   g = e_info->grad;
; 1225 :   /* gradients */
; 1226 :   for ( k = 0 ; k < edge_ctrl ; k++ )

	fldz
	mov	ecx, DWORD PTR _edge_ctrl
	push	ebx
	push	esi
	lea	ebx, DWORD PTR [eax+416]
	mov	eax, DWORD PTR [eax+1336]
	push	edi
	xor	edi, edi
	mov	DWORD PTR _x$[ebp], ebx
	mov	DWORD PTR _g$[ebp], eax
	test	ecx, ecx
	jle	SHORT $LN10@q_edge_are@2
	mov	esi, DWORD PTR _web+616
$LN12@q_edge_are@2:

; 1227 :      for ( j = 0 ; j < SDIM ; j++ )

	xor	edx, edx
	test	esi, esi
	jle	SHORT $LN11@q_edge_are@2

; 1224 :   g = e_info->grad;
; 1225 :   /* gradients */
; 1226 :   for ( k = 0 ; k < edge_ctrl ; k++ )

	mov	ecx, DWORD PTR [eax+edi*4]
$LN9@q_edge_are@2:

; 1228 :         g[k][j] = 0.0;

	fst	QWORD PTR [ecx]
	mov	esi, DWORD PTR _web+616
	inc	edx
	add	ecx, 8
	cmp	edx, esi
	jl	SHORT $LN9@q_edge_are@2

; 1227 :      for ( j = 0 ; j < SDIM ; j++ )

	mov	ecx, DWORD PTR _edge_ctrl
$LN11@q_edge_are@2:

; 1224 :   g = e_info->grad;
; 1225 :   /* gradients */
; 1226 :   for ( k = 0 ; k < edge_ctrl ; k++ )

	inc	edi
	cmp	edi, ecx
	jl	SHORT $LN12@q_edge_are@2
$LN10@q_edge_are@2:

; 1229 : 
; 1230 :   /* main integral over edge */
; 1231 :   area = 0.0;
; 1232 :   for ( i = 0 ; i < edge_ctrl ; i++ )

	mov	DWORD PTR _i$[ebp], 0
	test	ecx, ecx
	jle	$LN4@q_edge_are@2
	mov	esi, eax
	mov	edx, ebx
	sub	esi, ebx
	mov	DWORD PTR tv465[ebp], OFFSET _scoeff
	mov	DWORD PTR tv467[ebp], edx
	mov	DWORD PTR tv482[ebp], esi
$LN6@q_edge_are@2:

; 1233 :      for ( j = 0 ; j < edge_ctrl ; j++ )

	mov	DWORD PTR _j$[ebp], 0
	test	ecx, ecx
	jle	SHORT $LN5@q_edge_are@2
	mov	esi, DWORD PTR [esi+edx]
	mov	edi, DWORD PTR [edx]
	mov	edx, DWORD PTR tv465[ebp]
	mov	ecx, ebx
	mov	ebx, DWORD PTR _j$[ebp]
	sub	ecx, eax
	mov	DWORD PTR tv416[ebp], ecx
	jmp	SHORT $LN3@q_edge_are@2
$LN24@q_edge_are@2:
	mov	ecx, DWORD PTR tv416[ebp]
$LN3@q_edge_are@2:

; 1234 :         { REAL v = scoeff[j][i];

	fld	QWORD PTR [edx]

; 1235 :           area += v*x[i][0]*x[j][1];

	mov	ecx, DWORD PTR [ecx+eax]
	fld	QWORD PTR [edi]
	inc	ebx
	fmul	ST(0), ST(1)
	add	edx, 24					; 00000018H
	add	eax, 4
	fmul	QWORD PTR [ecx+8]
	faddp	ST(2), ST(0)

; 1236 :           g[i][0] += v*x[j][1];

	fld	QWORD PTR [ecx+8]

; 1237 :           g[j][1] += v*x[i][0];

	mov	ecx, DWORD PTR [eax-4]
	fmul	ST(0), ST(1)
	fadd	QWORD PTR [esi]
	fstp	QWORD PTR [esi]
	fmul	QWORD PTR [edi]
	fadd	QWORD PTR [ecx+8]
	fstp	QWORD PTR [ecx+8]
	mov	ecx, DWORD PTR _edge_ctrl
	cmp	ebx, ecx
	jl	SHORT $LN24@q_edge_are@2

; 1233 :      for ( j = 0 ; j < edge_ctrl ; j++ )

	mov	ebx, DWORD PTR _x$[ebp]
	mov	eax, DWORD PTR _g$[ebp]
	mov	edx, DWORD PTR tv467[ebp]
	mov	esi, DWORD PTR tv482[ebp]
$LN5@q_edge_are@2:

; 1229 : 
; 1230 :   /* main integral over edge */
; 1231 :   area = 0.0;
; 1232 :   for ( i = 0 ; i < edge_ctrl ; i++ )

	inc	DWORD PTR _i$[ebp]
	add	DWORD PTR tv465[ebp], 8
	add	edx, 4
	mov	DWORD PTR tv467[ebp], edx
	cmp	DWORD PTR _i$[ebp], ecx
	jl	SHORT $LN6@q_edge_are@2
$LN4@q_edge_are@2:
	pop	edi
	pop	esi
	pop	ebx

; 1238 :         }
; 1239 : 
; 1240 :   return area;
; 1241 : } // end q_edge_area_q_grad()

	mov	esp, ebp
	pop	ebp
	ret	0
_q_edge_area_q_grad ENDP
_TEXT	ENDS
PUBLIC	_q_edge_area_q_hess
; Function compile flags: /Ogtp
;	COMDAT _q_edge_area_q_hess
_TEXT	SEGMENT
_x$ = -36						; size = 4
tv652 = -32						; size = 4
tv459 = -28						; size = 4
tv464 = -24						; size = 4
tv657 = -20						; size = 4
_h$ = -16						; size = 4
tv600 = -12						; size = 4
_g$ = -8						; size = 4
tv453 = -4						; size = 4
_i$ = 8							; size = 4
_e_info$ = 8						; size = 4
_q_edge_area_q_hess PROC				; COMDAT

; 1252 : { REAL **x,**g,****h;

	push	ebp
	mov	ebp, esp
	sub	esp, 36					; 00000024H

; 1253 :   REAL area;
; 1254 :   int i,j;
; 1255 : 
; 1256 :   x = e_info->x;

	mov	eax, DWORD PTR _e_info$[ebp]

; 1257 :   g = e_info->grad;
; 1258 :   h = e_info->hess;
; 1259 : 
; 1260 :   /* main integral over edge */
; 1261 :   area = 0.0;

	fldz
	mov	ecx, DWORD PTR [eax+1336]
	fld	ST(0)
	push	ebx
	mov	ebx, DWORD PTR [eax+1340]
	lea	edx, DWORD PTR [eax+416]

; 1262 :   for ( i = 0 ; i < edge_ctrl ; i++ )

	mov	eax, DWORD PTR _edge_ctrl
	mov	DWORD PTR _x$[ebp], edx
	mov	DWORD PTR _g$[ebp], ecx
	mov	DWORD PTR _h$[ebp], ebx
	mov	DWORD PTR _i$[ebp], 0
	test	eax, eax
	jle	$LN18@q_edge_are@3
	push	esi
	mov	esi, ecx
	sub	esi, edx
	sub	ebx, edx
	push	edi
	mov	edi, edx
	mov	DWORD PTR tv600[ebp], OFFSET _scoeff
	mov	DWORD PTR tv652[ebp], esi
	mov	DWORD PTR tv657[ebp], ebx
$LN15@q_edge_are@3:

; 1263 :      for ( j = 0 ; j < edge_ctrl ; j++ )

	xor	ebx, ebx
	test	eax, eax
	jle	$LN6@q_edge_are@3
	mov	eax, DWORD PTR tv600[ebp]
	sub	edx, DWORD PTR _g$[ebp]
	mov	DWORD PTR tv453[ebp], eax
	mov	eax, DWORD PTR _h$[ebp]
	sub	eax, DWORD PTR _g$[ebp]
	mov	DWORD PTR tv459[ebp], edx
	mov	DWORD PTR tv464[ebp], eax
$LN4@q_edge_are@3:

; 1264 :         { REAL v = scoeff[j][i];

	mov	eax, DWORD PTR tv453[ebp]
	fld	QWORD PTR [eax]

; 1265 :           if ( v == 0.0 ) continue;

	fld	ST(0)
	fld	ST(3)
	fucompp
	fnstsw	ax
	test	ah, 68					; 00000044H
	jnp	SHORT $LN26@q_edge_are@3

; 1266 :           area += v*x[i][0]*x[j][1];

	mov	edx, DWORD PTR [edx+ecx]
	fld	ST(0)
	mov	eax, DWORD PTR [edi]
	fmul	QWORD PTR [eax]

; 1267 :           g[i][0] += v*x[j][1];

	mov	esi, DWORD PTR [esi+edi]
	fmul	QWORD PTR [edx+8]
	faddp	ST(2), ST(0)
	fld	QWORD PTR [edx+8]

; 1268 :           g[j][1] += v*x[i][0];

	mov	edx, DWORD PTR [ecx]
	fmul	ST(0), ST(1)
	fadd	QWORD PTR [esi]
	fstp	QWORD PTR [esi]

; 1269 :           h[i][j][0][1] += v;
; 1270 :           h[j][i][1][0] += v;

	mov	esi, DWORD PTR tv652[ebp]
	fld	ST(0)
	fmul	QWORD PTR [eax]
	fadd	QWORD PTR [edx+8]
	fstp	QWORD PTR [edx+8]
	mov	edx, DWORD PTR tv657[ebp]
	mov	eax, DWORD PTR [edx+edi]
	mov	edx, DWORD PTR [eax+ebx*4]
	fld	ST(0)
	mov	eax, DWORD PTR [edx]
	fadd	QWORD PTR [eax+8]
	fstp	QWORD PTR [eax+8]
	mov	eax, DWORD PTR tv464[ebp]
	mov	edx, DWORD PTR [eax+ecx]
	mov	eax, DWORD PTR _i$[ebp]
	mov	edx, DWORD PTR [edx+eax*4]
	mov	eax, DWORD PTR [edx+4]
	fadd	QWORD PTR [eax]
	mov	edx, DWORD PTR tv459[ebp]
	fstp	QWORD PTR [eax]
	jmp	SHORT $LN3@q_edge_are@3
$LN26@q_edge_are@3:
	fstp	ST(0)
$LN3@q_edge_are@3:

; 1263 :      for ( j = 0 ; j < edge_ctrl ; j++ )

	add	DWORD PTR tv453[ebp], 24		; 00000018H
	inc	ebx
	add	ecx, 4
	cmp	ebx, DWORD PTR _edge_ctrl
	jl	SHORT $LN4@q_edge_are@3
	mov	edx, DWORD PTR _x$[ebp]
	mov	ecx, DWORD PTR _g$[ebp]
	mov	eax, DWORD PTR _edge_ctrl
$LN6@q_edge_are@3:

; 1262 :   for ( i = 0 ; i < edge_ctrl ; i++ )

	inc	DWORD PTR _i$[ebp]
	add	DWORD PTR tv600[ebp], 8
	add	edi, 4
	cmp	DWORD PTR _i$[ebp], eax
	jl	$LN15@q_edge_are@3
	pop	edi
	pop	esi
$LN18@q_edge_are@3:
	fstp	ST(1)
	pop	ebx

; 1271 :         }
; 1272 : 
; 1273 :   return area;
; 1274 : } // end q_edge_area_q_hess()

	mov	esp, ebp
	pop	ebp
	ret	0
_q_edge_area_q_hess ENDP
_TEXT	ENDS
PUBLIC	_q_edge_area_lagrange
; Function compile flags: /Ogtp
;	COMDAT _q_edge_area_lagrange
_TEXT	SEGMENT
$T92299 = -24						; size = 4
tv1405 = -20						; size = 4
_k$ = -20						; size = 4
_gl$ = -16						; size = 4
tv1118 = -12						; size = 4
tv1509 = -8						; size = 4
_m$ = -4						; size = 4
_e_info$ = 8						; size = 4
_q_edge_area_lagrange PROC				; COMDAT

; 1289 : { REAL **x;

	push	ebp
	mov	ebp, esp
	sub	esp, 24					; 00000018H

; 1290 :   REAL area;
; 1291 :   struct gauss_lag *gl = &gauss_lagrange[web.dimension][web.gauss1D_order];

	mov	eax, DWORD PTR _web+620

; 1292 :   int ctrl = web.skel[EDGE].ctrlpts;
; 1293 :   int m,k;
; 1294 : 
; 1295 :   x = e_info->x;
; 1296 : 
; 1297 :   /* main integral over edge */
; 1298 :   area = 0.0;

	fldz
	push	ebx
	fld	ST(0)
	mov	ebx, DWORD PTR _web+1592
	shl	ebx, 5
	add	ebx, DWORD PTR _gauss_lagrange[eax*4]

; 1299 :   for ( m = 0 ; m < gl->gnumpts ; m++ )

	xor	ecx, ecx
	mov	eax, DWORD PTR [ebx+4]
	push	esi
	mov	esi, DWORD PTR _web+120
	mov	DWORD PTR _gl$[ebp], ebx
	mov	DWORD PTR _m$[ebp], ecx

; 1302 :      { y += gl->gpoly[m][k]*x[k][1];

	mov	DWORD PTR $T92299[ebp], eax
	test	eax, eax
	jle	$LN21@q_edge_are@4

; 1290 :   REAL area;
; 1291 :   struct gauss_lag *gl = &gauss_lagrange[web.dimension][web.gauss1D_order];

	mov	edx, DWORD PTR [ebx+12]
	push	edi
	mov	DWORD PTR tv1509[ebp], edx
$LN18@q_edge_are@4:

; 1300 :   { REAL y,dx;
; 1301 :      for ( y = 0.0, dx = 0.0, k = 0 ; k < ctrl ; k++ )

	xor	eax, eax
	fld	ST(1)
	fld	ST(2)
	cmp	esi, 4
	jl	$LC14@q_edge_are@4
	mov	eax, DWORD PTR [ebx+20]
	mov	edi, DWORD PTR [eax+ecx*4]
	mov	edx, DWORD PTR [ebx+24]
	mov	eax, DWORD PTR [edx+ecx*4]
	mov	ebx, DWORD PTR [eax]
	mov	ecx, DWORD PTR _e_info$[ebp]
	add	esi, -4					; fffffffcH
	lea	edx, DWORD PTR [ebx+24]

; 1303 :         dx += gl->gpolypart[m][0][k]*x[k][0];

	sub	ebx, edi
	shr	esi, 2
	add	ecx, 424				; 000001a8H
	inc	esi
	lea	eax, DWORD PTR [edi+16]
	lea	edi, DWORD PTR [esi*4]
	mov	DWORD PTR tv1118[ebp], ebx
	mov	DWORD PTR _k$[ebp], edi
$LN15@q_edge_are@4:

; 1302 :      { y += gl->gpoly[m][k]*x[k][1];

	mov	edi, DWORD PTR [ecx-8]
	fld	QWORD PTR [eax-16]
	fmul	QWORD PTR [edi+8]
	mov	ebx, DWORD PTR [ecx-4]

; 1303 :         dx += gl->gpolypart[m][0][k]*x[k][0];

	add	eax, 32					; 00000020H
	add	edx, 32					; 00000020H
	faddp	ST(2), ST(0)
	add	ecx, 16					; 00000010H
	dec	esi
	fld	QWORD PTR [eax-40]
	fmul	QWORD PTR [ebx+8]
	mov	ebx, DWORD PTR [ecx-16]
	faddp	ST(2), ST(0)
	fld	QWORD PTR [ebx+8]
	mov	ebx, DWORD PTR [ecx-12]
	fmul	QWORD PTR [eax-32]
	faddp	ST(2), ST(0)
	fld	QWORD PTR [eax-24]
	fmul	QWORD PTR [ebx+8]
	faddp	ST(2), ST(0)
	fld	QWORD PTR [edx-56]
	fmul	QWORD PTR [edi]
	mov	edi, DWORD PTR [ecx-20]
	faddp	ST(1), ST(0)
	fld	QWORD PTR [edx-48]
	fmul	QWORD PTR [edi]
	mov	edi, DWORD PTR tv1118[ebp]
	faddp	ST(1), ST(0)
	fld	QWORD PTR [eax+edi-32]
	mov	edi, DWORD PTR [ecx-16]
	fmul	QWORD PTR [edi]
	faddp	ST(1), ST(0)
	fld	QWORD PTR [edx-32]
	fmul	QWORD PTR [ebx]
	faddp	ST(1), ST(0)
	jne	SHORT $LN15@q_edge_are@4

; 1300 :   { REAL y,dx;
; 1301 :      for ( y = 0.0, dx = 0.0, k = 0 ; k < ctrl ; k++ )

	mov	ebx, DWORD PTR _gl$[ebp]
	mov	ecx, DWORD PTR _m$[ebp]
	mov	eax, DWORD PTR _k$[ebp]
$LC14@q_edge_are@4:
	mov	esi, DWORD PTR _web+120
	cmp	eax, esi
	jge	SHORT $LN19@q_edge_are@4
	mov	edx, DWORD PTR [ebx+24]
	mov	edx, DWORD PTR [edx+ecx*4]
	mov	esi, DWORD PTR [ebx+20]
	mov	edi, DWORD PTR [edx]
	mov	esi, DWORD PTR [esi+ecx*4]
	sub	esi, edi
	lea	edx, DWORD PTR [edi+eax*8]
	mov	DWORD PTR tv1405[ebp], esi
	jmp	SHORT $LC3@q_edge_are@4
$LN17@q_edge_are@4:
	mov	esi, DWORD PTR tv1405[ebp]
$LC3@q_edge_are@4:

; 1302 :      { y += gl->gpoly[m][k]*x[k][1];

	mov	edi, DWORD PTR _e_info$[ebp]
	fld	QWORD PTR [esi+edx]
	mov	edi, DWORD PTR [edi+eax*4+416]
	fmul	QWORD PTR [edi+8]
	mov	esi, DWORD PTR _web+120
	inc	eax
	add	edx, 8
	faddp	ST(2), ST(0)

; 1303 :         dx += gl->gpolypart[m][0][k]*x[k][0];

	fld	QWORD PTR [edx-8]
	fmul	QWORD PTR [edi]
	faddp	ST(1), ST(0)
	cmp	eax, esi
	jl	SHORT $LN17@q_edge_are@4
$LN19@q_edge_are@4:

; 1304 :      }
; 1305 :      area -= gl->gausswt[m]*y*dx;

	mov	eax, DWORD PTR tv1509[ebp]
	fld	QWORD PTR [eax]
	inc	ecx
	fmulp	ST(2), ST(0)
	add	eax, 8
	mov	DWORD PTR _m$[ebp], ecx
	mov	DWORD PTR tv1509[ebp], eax
	fmulp	ST(1), ST(0)
	fsubp	ST(1), ST(0)
	cmp	ecx, DWORD PTR $T92299[ebp]
	jl	$LN18@q_edge_are@4
	pop	edi
$LN21@q_edge_are@4:
	pop	esi

; 1299 :   for ( m = 0 ; m < gl->gnumpts ; m++ )

	fstp	ST(1)
	pop	ebx

; 1306 :   }
; 1307 :      
; 1308 :   return area;
; 1309 : } // end q_edge_area_lagrange()

	mov	esp, ebp
	pop	ebp
	ret	0
_q_edge_area_lagrange ENDP
_TEXT	ENDS
PUBLIC	_q_edge_area_lagrange_grad
; Function compile flags: /Ogtp
;	COMDAT _q_edge_area_lagrange_grad
_TEXT	SEGMENT
tv2075 = -24						; size = 4
_k$ = -24						; size = 4
tv2106 = -20						; size = 4
tv1915 = -20						; size = 4
tv1806 = -16						; size = 4
_g$ = -12						; size = 4
tv533 = -8						; size = 4
_ctrl$ = -4						; size = 4
_e_info$ = 8						; size = 4
_q_edge_area_lagrange_grad PROC				; COMDAT

; 1319 : { REAL **x,**g;

	push	ebp
	mov	ebp, esp
	sub	esp, 24					; 00000018H

; 1320 :   REAL area;
; 1321 :   int m,k;
; 1322 :   struct gauss_lag *gl = &gauss_lagrange[web.dimension][web.gauss1D_order];

	mov	eax, DWORD PTR _web+1592

; 1323 :   int ctrl = web.skel[EDGE].ctrlpts;
; 1324 : 
; 1325 :   x = e_info->x;
; 1326 :   g = e_info->grad;
; 1327 : 
; 1328 :   /* main integral over edge */
; 1329 :   area = 0.0;

	fldz
	mov	ecx, DWORD PTR _web+620
	fld	ST(0)
	mov	edx, DWORD PTR _e_info$[ebp]
	shl	eax, 5
	add	eax, DWORD PTR _gauss_lagrange[ecx*4]
	mov	ecx, DWORD PTR [edx+1336]
	mov	DWORD PTR _g$[ebp], ecx
	push	ebx
	mov	ebx, DWORD PTR _web+120

; 1330 :   for ( m = 0 ; m < gl->gnumpts ; m++ )

	xor	ecx, ecx
	mov	DWORD PTR _ctrl$[ebp], ebx
	cmp	DWORD PTR [eax+4], ecx
	jle	$LN30@q_edge_are@5
	push	esi
	push	edi
$LN27@q_edge_are@5:

; 1331 :   { REAL y,dx;
; 1332 :      for ( y = 0.0, dx = 0.0, k = 0 ; k < ctrl ; k++ )

	xor	edx, edx
	fld	ST(1)
	fld	ST(2)
	cmp	ebx, 4
	jl	$LC19@q_edge_are@5
	mov	edx, DWORD PTR [eax+20]
	mov	edi, DWORD PTR [edx+ecx*4]
	mov	edx, DWORD PTR [eax+24]
	mov	edx, DWORD PTR [edx+ecx*4]
	mov	ebx, DWORD PTR [edx]
	mov	esi, DWORD PTR _e_info$[ebp]
	lea	edx, DWORD PTR [ebx+24]

; 1334 :         dx += gl->gpolypart[m][0][k]*x[k][0];

	sub	ebx, edi
	mov	DWORD PTR tv1806[ebp], edx
	lea	edx, DWORD PTR [edi+16]
	mov	edi, DWORD PTR _ctrl$[ebp]
	add	edi, -4					; fffffffcH
	shr	edi, 2
	inc	edi
	mov	DWORD PTR tv533[ebp], edi
	add	edi, edi
	add	esi, 424				; 000001a8H
	add	edi, edi
	mov	DWORD PTR _k$[ebp], edi
	mov	edi, DWORD PTR tv1806[ebp]
	mov	DWORD PTR tv1915[ebp], ebx
$LN20@q_edge_are@5:

; 1333 :      { y += gl->gpoly[m][k]*x[k][1];

	mov	ebx, DWORD PTR [esi-8]
	fld	QWORD PTR [ebx+8]
	mov	ebx, DWORD PTR [esi-4]
	fmul	QWORD PTR [edx-16]

; 1334 :         dx += gl->gpolypart[m][0][k]*x[k][0];

	add	edx, 32					; 00000020H
	add	edi, 32					; 00000020H
	add	esi, 16					; 00000010H
	dec	DWORD PTR tv533[ebp]
	faddp	ST(2), ST(0)
	fld	QWORD PTR [ebx+8]
	mov	ebx, DWORD PTR [esi-16]
	fmul	QWORD PTR [edx-40]
	faddp	ST(2), ST(0)
	fld	QWORD PTR [ebx+8]
	mov	ebx, DWORD PTR [esi-12]
	fmul	QWORD PTR [edx-32]
	faddp	ST(2), ST(0)
	fld	QWORD PTR [ebx+8]
	mov	ebx, DWORD PTR [esi-24]
	fmul	QWORD PTR [edx-24]
	faddp	ST(2), ST(0)
	fld	QWORD PTR [edi-56]
	fmul	QWORD PTR [ebx]
	mov	ebx, DWORD PTR [esi-20]
	faddp	ST(1), ST(0)
	fld	QWORD PTR [edi-48]
	fmul	QWORD PTR [ebx]
	mov	ebx, DWORD PTR tv1915[ebp]
	faddp	ST(1), ST(0)
	fld	QWORD PTR [ebx+edx-32]
	mov	ebx, DWORD PTR [esi-16]
	fmul	QWORD PTR [ebx]
	mov	ebx, DWORD PTR [esi-12]
	faddp	ST(1), ST(0)
	fld	QWORD PTR [edi-32]
	fmul	QWORD PTR [ebx]
	faddp	ST(1), ST(0)
	jne	SHORT $LN20@q_edge_are@5

; 1331 :   { REAL y,dx;
; 1332 :      for ( y = 0.0, dx = 0.0, k = 0 ; k < ctrl ; k++ )

	mov	ebx, DWORD PTR _ctrl$[ebp]
	mov	edx, DWORD PTR _k$[ebp]
$LC19@q_edge_are@5:
	cmp	edx, ebx
	jge	SHORT $LN18@q_edge_are@5
	mov	esi, DWORD PTR [eax+24]
	mov	esi, DWORD PTR [esi+ecx*4]
	mov	edi, DWORD PTR [esi]
	lea	esi, DWORD PTR [edi+edx*8]
	mov	DWORD PTR tv2075[ebp], esi
	mov	esi, DWORD PTR [eax+20]
	mov	esi, DWORD PTR [esi+ecx*4]
	sub	esi, edi
	mov	edi, DWORD PTR tv2075[ebp]
	mov	DWORD PTR tv2106[ebp], esi
	jmp	SHORT $LC6@q_edge_are@5
$LN26@q_edge_are@5:
	mov	esi, DWORD PTR tv2106[ebp]
$LC6@q_edge_are@5:

; 1333 :      { y += gl->gpoly[m][k]*x[k][1];

	fld	QWORD PTR [esi+edi]
	mov	esi, DWORD PTR _e_info$[ebp]
	mov	esi, DWORD PTR [esi+edx*4+416]
	fmul	QWORD PTR [esi+8]
	inc	edx
	add	edi, 8
	faddp	ST(2), ST(0)

; 1334 :         dx += gl->gpolypart[m][0][k]*x[k][0];

	fld	QWORD PTR [edi-8]
	fmul	QWORD PTR [esi]
	faddp	ST(1), ST(0)
	cmp	edx, ebx
	jl	SHORT $LN26@q_edge_are@5
$LN18@q_edge_are@5:

; 1335 :      }
; 1336 :      area -= gl->gausswt[m]*y*dx;

	mov	edx, DWORD PTR [eax+12]
	fld	QWORD PTR [edx+ecx*8]

; 1337 :      for ( k = 0 ; k < ctrl ; k++ )

	xor	edx, edx
	fmul	ST(0), ST(2)
	fmul	ST(0), ST(1)
	fsubp	ST(3), ST(0)
	cmp	ebx, 4
	jl	$LC22@q_edge_are@5

; 1335 :      }
; 1336 :      area -= gl->gausswt[m]*y*dx;

	mov	edi, DWORD PTR _g$[ebp]
	add	edi, 8

; 1337 :      for ( k = 0 ; k < ctrl ; k++ )

$LN23@q_edge_are@5:

; 1338 :      { g[k][0] -= gl->gausswt[m]*y*gl->gpolypart[m][0][k];

	mov	ebx, DWORD PTR [eax+12]
	fld	QWORD PTR [ebx+ecx*8]
	mov	esi, DWORD PTR [eax+24]
	mov	esi, DWORD PTR [esi+ecx*4]
	fmul	ST(0), ST(2)
	mov	esi, DWORD PTR [esi]

; 1339 :         g[k][1] -= gl->gausswt[m]*dx*gl->gpoly[m][k];

	add	edx, 4
	fmul	QWORD PTR [esi+edx*8-32]
	mov	esi, DWORD PTR [edi-8]
	add	edi, 16					; 00000010H
	fsubr	QWORD PTR [esi]
	fstp	QWORD PTR [esi]
	mov	ebx, DWORD PTR [eax+12]
	fld	QWORD PTR [ebx+ecx*8]
	mov	ebx, DWORD PTR [eax+20]
	mov	ebx, DWORD PTR [ebx+ecx*4]
	fmul	ST(0), ST(1)
	fmul	QWORD PTR [ebx+edx*8-32]
	fsubr	QWORD PTR [esi+8]
	fstp	QWORD PTR [esi+8]
	mov	ebx, DWORD PTR [eax+12]
	fld	QWORD PTR [ebx+ecx*8]
	mov	esi, DWORD PTR [eax+24]
	mov	esi, DWORD PTR [esi+ecx*4]
	fmul	ST(0), ST(2)
	mov	esi, DWORD PTR [esi]
	fmul	QWORD PTR [esi+edx*8-24]
	mov	esi, DWORD PTR [edi-20]
	fsubr	QWORD PTR [esi]
	fstp	QWORD PTR [esi]
	mov	ebx, DWORD PTR [eax+12]
	fld	QWORD PTR [ebx+ecx*8]
	mov	ebx, DWORD PTR [eax+20]
	mov	ebx, DWORD PTR [ebx+ecx*4]
	fmul	ST(0), ST(1)
	fmul	QWORD PTR [ebx+edx*8-24]
	fsubr	QWORD PTR [esi+8]
	fstp	QWORD PTR [esi+8]
	mov	ebx, DWORD PTR [eax+12]
	fld	QWORD PTR [ebx+ecx*8]
	mov	esi, DWORD PTR [eax+24]
	mov	esi, DWORD PTR [esi+ecx*4]
	fmul	ST(0), ST(2)
	mov	esi, DWORD PTR [esi]
	fmul	QWORD PTR [esi+edx*8-16]
	mov	esi, DWORD PTR [edi-16]
	fsubr	QWORD PTR [esi]
	fstp	QWORD PTR [esi]
	mov	ebx, DWORD PTR [eax+12]
	fld	QWORD PTR [ebx+ecx*8]
	mov	ebx, DWORD PTR [eax+20]
	mov	ebx, DWORD PTR [ebx+ecx*4]
	fmul	ST(0), ST(1)
	fmul	QWORD PTR [ebx+edx*8-16]
	fsubr	QWORD PTR [esi+8]
	fstp	QWORD PTR [esi+8]
	mov	ebx, DWORD PTR [eax+12]
	fld	QWORD PTR [ebx+ecx*8]
	mov	esi, DWORD PTR [eax+24]
	mov	esi, DWORD PTR [esi+ecx*4]
	fmul	ST(0), ST(2)
	mov	esi, DWORD PTR [esi]
	fmul	QWORD PTR [esi+edx*8-8]
	mov	esi, DWORD PTR [edi-12]
	fsubr	QWORD PTR [esi]
	fstp	QWORD PTR [esi]
	mov	ebx, DWORD PTR [eax+12]
	fld	QWORD PTR [ebx+ecx*8]
	mov	ebx, DWORD PTR [eax+20]
	mov	ebx, DWORD PTR [ebx+ecx*4]
	fmul	ST(0), ST(1)
	fmul	QWORD PTR [ebx+edx*8-8]
	mov	ebx, DWORD PTR _ctrl$[ebp]
	fsubr	QWORD PTR [esi+8]
	fstp	QWORD PTR [esi+8]
	lea	esi, DWORD PTR [ebx-3]
	cmp	edx, esi
	jl	$LN23@q_edge_are@5
$LC22@q_edge_are@5:

; 1337 :      for ( k = 0 ; k < ctrl ; k++ )

	cmp	edx, ebx
	jge	SHORT $LN50@q_edge_are@5
$LN25@q_edge_are@5:

; 1338 :      { g[k][0] -= gl->gausswt[m]*y*gl->gpolypart[m][0][k];

	mov	esi, DWORD PTR _g$[ebp]
	mov	ebx, DWORD PTR [esi+edx*4]
	mov	edi, DWORD PTR [eax+12]
	mov	esi, DWORD PTR [eax+24]
	fld	QWORD PTR [edi+ecx*8]
	mov	esi, DWORD PTR [esi+ecx*4]
	fmul	ST(0), ST(2)
	mov	esi, DWORD PTR [esi]
	inc	edx
	fmul	QWORD PTR [esi+edx*8-8]
	fsubr	QWORD PTR [ebx]
	fstp	QWORD PTR [ebx]

; 1339 :         g[k][1] -= gl->gausswt[m]*dx*gl->gpoly[m][k];

	mov	esi, DWORD PTR [eax+12]
	fld	QWORD PTR [esi+ecx*8]
	mov	esi, DWORD PTR [eax+20]
	mov	esi, DWORD PTR [esi+ecx*4]
	fmul	ST(0), ST(1)
	fmul	QWORD PTR [esi+edx*8-8]
	fsubr	QWORD PTR [ebx+8]
	fstp	QWORD PTR [ebx+8]
	mov	ebx, DWORD PTR _ctrl$[ebp]
	cmp	edx, ebx
	jl	SHORT $LN25@q_edge_are@5
$LN50@q_edge_are@5:

; 1330 :   for ( m = 0 ; m < gl->gnumpts ; m++ )

	inc	ecx

; 1337 :      for ( k = 0 ; k < ctrl ; k++ )

	fstp	ST(1)
	fstp	ST(0)
	cmp	ecx, DWORD PTR [eax+4]
	jl	$LN27@q_edge_are@5
	pop	edi
	pop	esi
$LN30@q_edge_are@5:

; 1330 :   for ( m = 0 ; m < gl->gnumpts ; m++ )

	fstp	ST(1)
	pop	ebx

; 1340 :      }
; 1341 :   }
; 1342 : 
; 1343 :   return area;
; 1344 : } // end q_edge_area_lagrange_grad()

	mov	esp, ebp
	pop	ebp
	ret	0
_q_edge_area_lagrange_grad ENDP
_TEXT	ENDS
PUBLIC	_q_edge_area_lagrange_hess
; Function compile flags: /Ogtp
;	COMDAT _q_edge_area_lagrange_hess
_TEXT	SEGMENT
tv4911 = -36						; size = 4
tv4757 = -36						; size = 4
tv4111 = -36						; size = 4
tv3914 = -36						; size = 4
_h$ = -32						; size = 4
tv4383 = -28						; size = 4
tv3293 = -28						; size = 4
tv3102 = -28						; size = 4
_kk$ = -24						; size = 4
_g$ = -20						; size = 4
_ctrl$ = -16						; size = 4
tv4348 = -12						; size = 4
tv1397 = -12						; size = 4
tv4090 = -8						; size = 4
tv3761 = -8						; size = 4
tv2993 = -8						; size = 4
_k$ = -4						; size = 4
_e_info$ = 8						; size = 4
_q_edge_area_lagrange_hess PROC				; COMDAT

; 1355 : { REAL **x,**g,****h;

	push	ebp
	mov	ebp, esp
	sub	esp, 36					; 00000024H

; 1356 :   REAL area;
; 1357 :   int m,k,kk;
; 1358 :   struct gauss_lag *gl = &gauss_lagrange[web.dimension][web.gauss1D_order];

	mov	eax, DWORD PTR _web+1592

; 1359 :   int ctrl = web.skel[EDGE].ctrlpts;
; 1360 : 
; 1361 :   x = e_info->x;
; 1362 :   g = e_info->grad;
; 1363 :   h = e_info->hess;
; 1364 : 
; 1365 :   /* main integral over edge */
; 1366 :   area = 0.0;

	fldz
	mov	ecx, DWORD PTR _web+620
	fld	ST(0)
	push	ebx
	mov	ebx, DWORD PTR _web+120
	shl	eax, 5
	add	eax, DWORD PTR _gauss_lagrange[ecx*4]
	push	esi
	mov	esi, DWORD PTR _e_info$[ebp]
	mov	ecx, DWORD PTR [esi+1340]
	mov	edx, DWORD PTR [esi+1336]
	mov	DWORD PTR _h$[ebp], ecx

; 1367 :   for ( m = 0 ; m < gl->gnumpts ; m++ )

	xor	ecx, ecx
	mov	DWORD PTR _ctrl$[ebp], ebx
	mov	DWORD PTR _g$[ebp], edx
	cmp	DWORD PTR [eax+4], ecx
	jle	$LN33@q_edge_are@6
	push	edi
	jmp	SHORT $LN12@q_edge_are@6
$LN31@q_edge_are@6:
	mov	esi, DWORD PTR _e_info$[ebp]
$LN12@q_edge_are@6:

; 1368 :   { REAL y,dx;
; 1369 :      for ( y = 0.0, dx = 0.0, k = 0 ; k < ctrl ; k++ )

	xor	edx, edx
	fld	ST(1)
	fld	ST(2)
	mov	DWORD PTR _k$[ebp], edx
	cmp	ebx, 4
	jl	$LC24@q_edge_are@6
	mov	edx, DWORD PTR [eax+20]
	mov	edi, DWORD PTR [edx+ecx*4]
	mov	edx, DWORD PTR [eax+24]
	mov	edx, DWORD PTR [edx+ecx*4]
	mov	ebx, DWORD PTR [edx]
	lea	edx, DWORD PTR [ebx+24]

; 1371 :         dx += gl->gpolypart[m][0][k]*x[k][0];

	sub	ebx, edi
	mov	DWORD PTR tv3102[ebp], ebx
	mov	ebx, DWORD PTR _ctrl$[ebp]
	mov	DWORD PTR tv2993[ebp], edx
	lea	edx, DWORD PTR [edi+16]
	lea	edi, DWORD PTR [ebx-4]
	shr	edi, 2
	inc	edi
	mov	DWORD PTR tv1397[ebp], edi
	add	edi, edi
	add	esi, 424				; 000001a8H
	add	edi, edi
	mov	DWORD PTR _k$[ebp], edi
$LN25@q_edge_are@6:

; 1370 :      { y += gl->gpoly[m][k]*x[k][1];

	mov	edi, DWORD PTR [esi-8]
	fld	QWORD PTR [edx-16]
	fmul	QWORD PTR [edi+8]
	mov	edi, DWORD PTR [esi-4]

; 1371 :         dx += gl->gpolypart[m][0][k]*x[k][0];

	add	edx, 32					; 00000020H
	add	esi, 16					; 00000010H
	faddp	ST(2), ST(0)
	fld	QWORD PTR [edx-40]
	fmul	QWORD PTR [edi+8]
	mov	edi, DWORD PTR [esi-16]
	faddp	ST(2), ST(0)
	fld	QWORD PTR [edi+8]
	mov	edi, DWORD PTR [esi-12]
	fmul	QWORD PTR [edx-32]
	faddp	ST(2), ST(0)
	fld	QWORD PTR [edx-24]
	fmul	QWORD PTR [edi+8]
	mov	edi, DWORD PTR tv2993[ebp]
	faddp	ST(2), ST(0)
	fld	QWORD PTR [edi-24]
	mov	edi, DWORD PTR [esi-24]
	fmul	QWORD PTR [edi]
	mov	edi, DWORD PTR tv2993[ebp]
	faddp	ST(1), ST(0)
	fld	QWORD PTR [edi-16]
	mov	edi, DWORD PTR [esi-20]
	fmul	QWORD PTR [edi]
	mov	edi, DWORD PTR tv3102[ebp]
	faddp	ST(1), ST(0)
	fld	QWORD PTR [edx+edi-32]
	mov	edi, DWORD PTR [esi-16]
	fmul	QWORD PTR [edi]
	mov	edi, DWORD PTR tv2993[ebp]
	add	DWORD PTR tv2993[ebp], 32		; 00000020H
	dec	DWORD PTR tv1397[ebp]
	faddp	ST(1), ST(0)
	fld	QWORD PTR [edi]
	mov	edi, DWORD PTR [esi-12]
	fmul	QWORD PTR [edi]
	faddp	ST(1), ST(0)
	jne	SHORT $LN25@q_edge_are@6

; 1368 :   { REAL y,dx;
; 1369 :      for ( y = 0.0, dx = 0.0, k = 0 ; k < ctrl ; k++ )

	mov	edx, DWORD PTR _k$[ebp]
$LC24@q_edge_are@6:
	cmp	edx, ebx
	jge	SHORT $LN23@q_edge_are@6
	mov	esi, DWORD PTR [eax+24]
	mov	esi, DWORD PTR [esi+ecx*4]
	mov	esi, DWORD PTR [esi]
	mov	edi, DWORD PTR [eax+20]
	mov	edi, DWORD PTR [edi+ecx*4]
	sub	edi, esi
	lea	edx, DWORD PTR [esi+edx*8]
	mov	esi, DWORD PTR _k$[ebp]
	mov	DWORD PTR tv3293[ebp], edi
$LC9@q_edge_are@6:

; 1370 :      { y += gl->gpoly[m][k]*x[k][1];

	mov	edi, DWORD PTR _e_info$[ebp]
	mov	esi, DWORD PTR [edi+esi*4+416]
	mov	edi, DWORD PTR tv3293[ebp]
	fld	QWORD PTR [edi+edx]
	add	edx, 8
	fmul	QWORD PTR [esi+8]
	faddp	ST(2), ST(0)

; 1371 :         dx += gl->gpolypart[m][0][k]*x[k][0];

	fld	QWORD PTR [edx-8]
	fmul	QWORD PTR [esi]
	mov	esi, DWORD PTR _k$[ebp]
	inc	esi
	mov	DWORD PTR _k$[ebp], esi
	faddp	ST(1), ST(0)
	cmp	esi, ebx
	jl	SHORT $LC9@q_edge_are@6
$LN23@q_edge_are@6:

; 1372 :      }
; 1373 :      area -= gl->gausswt[m]*y*dx;

	mov	edx, DWORD PTR [eax+12]
	fld	QWORD PTR [edx+ecx*8]

; 1374 :      for ( k = 0 ; k < ctrl ; k++ )

	xor	edi, edi
	fmul	ST(0), ST(2)
	mov	DWORD PTR _k$[ebp], edi
	fmul	ST(0), ST(1)
	fsubp	ST(3), ST(0)
	test	ebx, ebx
	jle	$LN60@q_edge_are@6

; 1372 :      }
; 1373 :      area -= gl->gausswt[m]*y*dx;

	mov	edx, DWORD PTR _g$[ebp]
	mov	DWORD PTR tv4348[ebp], edx

; 1374 :      for ( k = 0 ; k < ctrl ; k++ )

	mov	edx, DWORD PTR _h$[ebp]
	sub	edx, DWORD PTR _g$[ebp]
	mov	DWORD PTR tv4383[ebp], edx
$LN6@q_edge_are@6:

; 1375 :      { g[k][0] -= gl->gausswt[m]*y*gl->gpolypart[m][0][k];

	mov	esi, DWORD PTR [eax+12]
	fld	QWORD PTR [esi+ecx*8]
	mov	edx, DWORD PTR [eax+24]
	mov	edx, DWORD PTR [edx+ecx*4]
	fmul	ST(0), ST(2)
	mov	edx, DWORD PTR [edx]
	fmul	QWORD PTR [edx+edi*8]
	mov	edx, DWORD PTR tv4348[ebp]
	mov	edx, DWORD PTR [edx]
	fsubr	QWORD PTR [edx]
	fstp	QWORD PTR [edx]

; 1376 :         g[k][1] -= gl->gausswt[m]*dx*gl->gpoly[m][k];

	mov	esi, DWORD PTR [eax+12]
	fld	QWORD PTR [esi+ecx*8]
	mov	edx, DWORD PTR [eax+20]
	mov	edx, DWORD PTR [edx+ecx*4]
	fmul	ST(0), ST(1)
	mov	esi, DWORD PTR tv4348[ebp]
	fmul	QWORD PTR [edx+edi*8]
	mov	edx, DWORD PTR [esi]
	fsubr	QWORD PTR [edx+8]
	fstp	QWORD PTR [edx+8]

; 1377 :         for ( kk = 0 ; kk < ctrl ; kk++ )

	xor	edx, edx
	mov	DWORD PTR _kk$[ebp], edx
	cmp	ebx, 4
	jl	$LN30@q_edge_are@6

; 1375 :      { g[k][0] -= gl->gausswt[m]*y*gl->gpolypart[m][0][k];

	mov	edi, DWORD PTR tv4383[ebp]
	mov	esi, DWORD PTR [edi+esi]
	add	esi, 8
	mov	DWORD PTR tv3761[ebp], esi

; 1377 :         for ( kk = 0 ; kk < ctrl ; kk++ )

$LN28@q_edge_are@6:

; 1378 :         { h[k][kk][0][1] -= gl->gausswt[m]*gl->gpoly[m][kk]*gl->gpolypart[m][0][k];

	mov	edi, DWORD PTR [esi-8]
	mov	edi, DWORD PTR [edi]
	mov	DWORD PTR tv4757[ebp], edi
	mov	edi, DWORD PTR [eax+20]
	mov	edi, DWORD PTR [edi+ecx*4]
	fld	QWORD PTR [edi+edx*8]
	mov	ebx, DWORD PTR [eax+12]
	fmul	QWORD PTR [ebx+ecx*8]
	mov	edi, DWORD PTR [eax+24]
	mov	edi, DWORD PTR [edi+ecx*4]
	mov	edi, DWORD PTR [edi]
	mov	ebx, DWORD PTR _k$[ebp]
	fmul	QWORD PTR [edi+ebx*8]
	mov	edi, DWORD PTR tv4757[ebp]
	fsubr	QWORD PTR [edi+8]
	fstp	QWORD PTR [edi+8]

; 1379 :           h[k][kk][1][0] -= gl->gausswt[m]*gl->gpolypart[m][0][kk]*gl->gpoly[m][k];

	mov	edi, DWORD PTR [esi-8]
	mov	edi, DWORD PTR [edi+4]
	mov	ebx, DWORD PTR [eax+12]
	mov	DWORD PTR tv3914[ebp], edi
	mov	edi, DWORD PTR [eax+24]
	mov	edi, DWORD PTR [edi+ecx*4]
	mov	edi, DWORD PTR [edi]
	fld	QWORD PTR [edi+edx*8]
	mov	edi, DWORD PTR [eax+20]
	fmul	QWORD PTR [ebx+ecx*8]
	mov	edi, DWORD PTR [edi+ecx*4]
	mov	ebx, DWORD PTR _k$[ebp]
	mov	esi, DWORD PTR [esi-4]
	fmul	QWORD PTR [edi+ebx*8]
	mov	edi, DWORD PTR tv3914[ebp]
	mov	esi, DWORD PTR [esi]
	fsubr	QWORD PTR [edi]
	fstp	QWORD PTR [edi]
	mov	edi, DWORD PTR [eax+20]
	mov	edi, DWORD PTR [edi+ecx*4]
	fld	QWORD PTR [edi+edx*8+8]
	mov	ebx, DWORD PTR [eax+12]
	fmul	QWORD PTR [ebx+ecx*8]
	mov	edi, DWORD PTR [eax+24]
	mov	edi, DWORD PTR [edi+ecx*4]
	mov	edi, DWORD PTR [edi]
	mov	ebx, DWORD PTR _k$[ebp]
	fmul	QWORD PTR [edi+ebx*8]
	fsubr	QWORD PTR [esi+8]
	mov	esi, DWORD PTR tv3761[ebp]
	mov	esi, DWORD PTR [esi-4]
	mov	edi, DWORD PTR [esi]
	mov	esi, DWORD PTR [esi+4]
	fstp	QWORD PTR [edi+8]
	mov	edi, DWORD PTR [eax+24]
	mov	edi, DWORD PTR [edi+ecx*4]
	mov	edi, DWORD PTR [edi]
	fld	QWORD PTR [edi+edx*8+8]
	mov	ebx, DWORD PTR [eax+12]
	fmul	QWORD PTR [ebx+ecx*8]
	mov	edi, DWORD PTR [eax+20]
	mov	edi, DWORD PTR [edi+ecx*4]
	mov	ebx, DWORD PTR _k$[ebp]
	fmul	QWORD PTR [edi+ebx*8]
	mov	edi, DWORD PTR tv3761[ebp]
	lea	edx, DWORD PTR [edx*8+24]
	fsubr	QWORD PTR [esi]
	mov	esi, DWORD PTR [edi-4]
	mov	esi, DWORD PTR [esi+4]
	fstp	QWORD PTR [esi]
	mov	esi, DWORD PTR [edi]
	mov	edi, DWORD PTR [eax+20]
	mov	edi, DWORD PTR [edi+ecx*4]
	fld	QWORD PTR [edi+edx-8]
	mov	ebx, DWORD PTR [eax+12]
	fmul	QWORD PTR [ebx+ecx*8]
	mov	edi, DWORD PTR [eax+24]
	mov	edi, DWORD PTR [edi+ecx*4]
	mov	edi, DWORD PTR [edi]
	mov	ebx, DWORD PTR _k$[ebp]
	mov	esi, DWORD PTR [esi]
	fmul	QWORD PTR [edi+ebx*8]
	fsubr	QWORD PTR [esi+8]
	mov	esi, DWORD PTR tv3761[ebp]
	mov	esi, DWORD PTR [esi]

; 1378 :         { h[k][kk][0][1] -= gl->gausswt[m]*gl->gpoly[m][kk]*gl->gpolypart[m][0][k];

	mov	edi, DWORD PTR [esi]
	fstp	QWORD PTR [edi+8]

; 1379 :           h[k][kk][1][0] -= gl->gausswt[m]*gl->gpolypart[m][0][kk]*gl->gpoly[m][k];

	mov	edi, DWORD PTR [eax+24]
	mov	edi, DWORD PTR [edi+ecx*4]
	mov	edi, DWORD PTR [edi]
	fld	QWORD PTR [edi+edx-8]
	mov	ebx, DWORD PTR [eax+12]
	fmul	QWORD PTR [ebx+ecx*8]
	mov	esi, DWORD PTR [esi+4]
	mov	edi, DWORD PTR [eax+20]
	mov	edi, DWORD PTR [edi+ecx*4]
	mov	ebx, DWORD PTR _k$[ebp]
	fmul	QWORD PTR [edi+ebx*8]
	mov	edi, DWORD PTR tv3761[ebp]
	fsubr	QWORD PTR [esi]
	mov	esi, DWORD PTR [edi]
	mov	esi, DWORD PTR [esi+4]
	fstp	QWORD PTR [esi]
	mov	esi, DWORD PTR [edi+4]
	mov	edi, DWORD PTR [eax+20]
	mov	edi, DWORD PTR [edi+ecx*4]
	fld	QWORD PTR [edi+edx]
	mov	ebx, DWORD PTR [eax+12]
	fmul	QWORD PTR [ebx+ecx*8]
	mov	edi, DWORD PTR [eax+24]
	mov	edi, DWORD PTR [edi+ecx*4]
	mov	edi, DWORD PTR [edi]
	mov	esi, DWORD PTR [esi]
	mov	ebx, DWORD PTR _k$[ebp]
	fmul	QWORD PTR [edi+ebx*8]
	fsubr	QWORD PTR [esi+8]
	mov	esi, DWORD PTR tv3761[ebp]
	mov	esi, DWORD PTR [esi+4]
	mov	edi, DWORD PTR [esi]
	mov	esi, DWORD PTR [esi+4]
	fstp	QWORD PTR [edi+8]
	mov	edi, DWORD PTR [eax+24]
	mov	edi, DWORD PTR [edi+ecx*4]
	mov	edi, DWORD PTR [edi]
	fld	QWORD PTR [edi+edx]
	mov	ebx, DWORD PTR [eax+12]
	fmul	QWORD PTR [ebx+ecx*8]
	mov	edx, DWORD PTR [eax+20]
	mov	edx, DWORD PTR [edx+ecx*4]
	mov	edi, DWORD PTR _k$[ebp]
	fmul	QWORD PTR [edx+edi*8]
	mov	ebx, DWORD PTR _ctrl$[ebp]
	add	ebx, -3					; fffffffdH
	fsubr	QWORD PTR [esi]
	mov	esi, DWORD PTR tv3761[ebp]
	mov	edx, DWORD PTR [esi+4]
	mov	edx, DWORD PTR [edx+4]
	fstp	QWORD PTR [edx]
	mov	edx, DWORD PTR _kk$[ebp]
	add	edx, 4
	add	esi, 16					; 00000010H
	mov	DWORD PTR _kk$[ebp], edx
	mov	DWORD PTR tv3761[ebp], esi
	cmp	edx, ebx
	jl	$LN28@q_edge_are@6
	mov	ebx, DWORD PTR _ctrl$[ebp]
$LN30@q_edge_are@6:

; 1377 :         for ( kk = 0 ; kk < ctrl ; kk++ )

	cmp	edx, ebx
	jge	SHORT $LN5@q_edge_are@6
	mov	esi, DWORD PTR tv4383[ebp]
	mov	ebx, DWORD PTR tv4348[ebp]
	mov	esi, DWORD PTR [esi+ebx]
	lea	esi, DWORD PTR [esi+edx*4]
	mov	DWORD PTR tv4090[ebp], esi
$LC3@q_edge_are@6:

; 1378 :         { h[k][kk][0][1] -= gl->gausswt[m]*gl->gpoly[m][kk]*gl->gpolypart[m][0][k];

	mov	esi, DWORD PTR tv4090[ebp]
	mov	esi, DWORD PTR [esi]
	mov	esi, DWORD PTR [esi]
	mov	ebx, DWORD PTR [eax+12]
	mov	DWORD PTR tv4911[ebp], esi
	mov	esi, DWORD PTR [eax+20]
	mov	esi, DWORD PTR [esi+ecx*4]
	fld	QWORD PTR [esi+edx*8]
	mov	esi, DWORD PTR [eax+24]
	mov	esi, DWORD PTR [esi+ecx*4]
	fmul	QWORD PTR [ebx+ecx*8]
	mov	esi, DWORD PTR [esi]
	inc	edx
	fmul	QWORD PTR [esi+edi*8]
	mov	esi, DWORD PTR tv4911[ebp]
	fsubr	QWORD PTR [esi+8]
	fstp	QWORD PTR [esi+8]

; 1379 :           h[k][kk][1][0] -= gl->gausswt[m]*gl->gpolypart[m][0][kk]*gl->gpoly[m][k];

	mov	esi, DWORD PTR tv4090[ebp]
	mov	esi, DWORD PTR [esi]
	mov	esi, DWORD PTR [esi+4]
	mov	ebx, DWORD PTR [eax+12]
	add	DWORD PTR tv4090[ebp], 4
	mov	DWORD PTR tv4111[ebp], esi
	mov	esi, DWORD PTR [eax+24]
	mov	esi, DWORD PTR [esi+ecx*4]
	mov	esi, DWORD PTR [esi]
	fld	QWORD PTR [esi+edx*8-8]
	mov	esi, DWORD PTR [eax+20]
	fmul	QWORD PTR [ebx+ecx*8]
	mov	esi, DWORD PTR [esi+ecx*4]
	mov	ebx, DWORD PTR _ctrl$[ebp]
	fmul	QWORD PTR [esi+edi*8]
	mov	esi, DWORD PTR tv4111[ebp]
	fsubr	QWORD PTR [esi]
	fstp	QWORD PTR [esi]
	cmp	edx, ebx
	jl	SHORT $LC3@q_edge_are@6
$LN5@q_edge_are@6:

; 1374 :      for ( k = 0 ; k < ctrl ; k++ )

	add	DWORD PTR tv4348[ebp], 4
	inc	edi
	mov	DWORD PTR _k$[ebp], edi
	cmp	edi, ebx
	jl	$LN6@q_edge_are@6
$LN60@q_edge_are@6:

; 1367 :   for ( m = 0 ; m < gl->gnumpts ; m++ )

	inc	ecx

; 1377 :         for ( kk = 0 ; kk < ctrl ; kk++ )

	fstp	ST(1)
	fstp	ST(0)
	cmp	ecx, DWORD PTR [eax+4]
	jl	$LN31@q_edge_are@6
	pop	edi
$LN33@q_edge_are@6:
	pop	esi

; 1367 :   for ( m = 0 ; m < gl->gnumpts ; m++ )

	fstp	ST(1)
	pop	ebx

; 1380 :         }
; 1381 :      }
; 1382 :   }
; 1383 : 
; 1384 :   return area;
; 1385 : } // end q_edge_area_lagrange_hess()

	mov	esp, ebp
	pop	ebp
	ret	0
_q_edge_area_lagrange_hess ENDP
_TEXT	ENDS
PUBLIC	_e_info$GSCopy$
PUBLIC	__$ArrayPad$
PUBLIC	_q_edge_torus_area_q
EXTRN	_mat_mul_tr:PROC
; Function compile flags: /Ogtp
;	COMDAT _q_edge_torus_area_q
_TEXT	SEGMENT
_uqXvS$ = -180						; size = 12
_e_info$GSCopy$ = -168					; size = 4
tv958 = -164						; size = 4
_area$ = -160						; size = 8
tv903 = -156						; size = 4
tv132 = -156						; size = 4
tv620 = -152						; size = 4
_uxJ$ = -148						; size = 144
__$ArrayPad$ = -4					; size = 4
_e_info$ = 8						; size = 4
_q_edge_torus_area_q PROC				; COMDAT

; 1543 : { REAL **x;

	push	ebp
	mov	ebp, esp
	sub	esp, 180				; 000000b4H
	mov	eax, DWORD PTR ___security_cookie
	xor	eax, ebp
	mov	DWORD PTR __$ArrayPad$[ebp], eax
	push	ebx
	mov	ebx, DWORD PTR _e_info$[ebp]
	push	esi
	push	edi

; 1544 :   REAL area;
; 1545 :   REAL **dx = web.inverse_periods;

	mov	edi, DWORD PTR _web+1612

; 1546 :   MAT2D(u,EDGE_CTRL,MAXCOORD); /* affine coordinates of vertices */

	push	6
	push	3
	lea	eax, DWORD PTR _uxJ$[ebp]
	push	eax
	lea	ecx, DWORD PTR _uqXvS$[ebp]
	push	ecx

; 1557 :     for ( j = 0 ; j < edge_ctrl ; j++ )

	mov	DWORD PTR _e_info$GSCopy$[ebp], ebx
	call	_mat2d_setup
	mov	edx, DWORD PTR _edge_ctrl
	mov	esi, eax
	mov	eax, DWORD PTR _web+616
	push	eax
	push	eax
	push	edx
	push	esi
	lea	eax, DWORD PTR [ebx+416]
	push	edi
	push	eax
	call	_mat_mul_tr
	fldz
	mov	edx, DWORD PTR _edge_ctrl
	fld	ST(0)
	xor	edi, edi
	fst	QWORD PTR _area$[ebp]
	add	esp, 40					; 00000028H
	cmp	edx, edi
	jle	$LN30@q_edge_tor

; 1547 :   int i,j;
; 1548 :   int wrap;
; 1549 : 
; 1550 :   x = e_info->x;
; 1551 : 
; 1552 :   /* get affine coordinates of vertices */
; 1553 :   mat_mul_tr(x,dx,u,edge_ctrl,SDIM,SDIM);
; 1554 :   /* main integral over edge */
; 1555 :   area = 0.0;
; 1556 :   for ( i = 0 ; i < edge_ctrl ; i++ )

	mov	DWORD PTR tv903[ebp], edi
	mov	DWORD PTR tv958[ebp], OFFSET _scoeff+8
$LN28@q_edge_tor:

; 1557 :     for ( j = 0 ; j < edge_ctrl ; j++ )

	xor	ebx, ebx
	cmp	edx, 4
	jl	$LC21@q_edge_tor
	mov	eax, DWORD PTR tv958[ebp]
	add	edx, -4					; fffffffcH
	shr	edx, 2
	inc	edx
	lea	ecx, DWORD PTR [esi+8]
	mov	DWORD PTR tv620[ebp], eax
	lea	ebx, DWORD PTR [edx*4]
$LN27@q_edge_tor:

; 1558 :     { REAL v = scoeff[i][j];

	mov	eax, DWORD PTR tv620[ebp]
	fld	QWORD PTR [eax-8]

; 1559 :       if ( v == 0.0 ) continue;

	fld	ST(0)
	fld	ST(3)
	fucompp
	fnstsw	ax
	test	ah, 68					; 00000044H
	jnp	SHORT $LN38@q_edge_tor

; 1560 :       area += v*u[i][1]*u[j][0];

	mov	eax, DWORD PTR [esi+edi*4]
	fmul	QWORD PTR [eax+8]
	mov	eax, DWORD PTR [ecx-8]
	fmul	QWORD PTR [eax]
	faddp	ST(1), ST(0)
	jmp	SHORT $LN22@q_edge_tor
$LN38@q_edge_tor:
	fstp	ST(0)
$LN22@q_edge_tor:

; 1558 :     { REAL v = scoeff[i][j];

	mov	eax, DWORD PTR tv620[ebp]
	fld	QWORD PTR [eax]

; 1559 :       if ( v == 0.0 ) continue;

	fld	ST(0)
	fld	ST(3)
	fucompp
	fnstsw	ax
	test	ah, 68					; 00000044H
	jnp	SHORT $LN41@q_edge_tor

; 1560 :       area += v*u[i][1]*u[j][0];

	mov	eax, DWORD PTR [esi+edi*4]
	fmul	QWORD PTR [eax+8]
	mov	eax, DWORD PTR [ecx-4]
	fmul	QWORD PTR [eax]
	faddp	ST(1), ST(0)
	jmp	SHORT $LN23@q_edge_tor
$LN41@q_edge_tor:
	fstp	ST(0)
$LN23@q_edge_tor:

; 1558 :     { REAL v = scoeff[i][j];

	mov	eax, DWORD PTR tv620[ebp]
	fld	QWORD PTR [eax+8]

; 1559 :       if ( v == 0.0 ) continue;

	fld	ST(0)
	fld	ST(3)
	fucompp
	fnstsw	ax
	test	ah, 68					; 00000044H
	jnp	SHORT $LN44@q_edge_tor

; 1560 :       area += v*u[i][1]*u[j][0];

	mov	eax, DWORD PTR [esi+edi*4]
	fmul	QWORD PTR [eax+8]
	mov	eax, DWORD PTR [ecx]
	fmul	QWORD PTR [eax]
	faddp	ST(1), ST(0)
	jmp	SHORT $LN24@q_edge_tor
$LN44@q_edge_tor:
	fstp	ST(0)
$LN24@q_edge_tor:

; 1558 :     { REAL v = scoeff[i][j];

	mov	eax, DWORD PTR tv620[ebp]
	fld	QWORD PTR [eax+16]

; 1559 :       if ( v == 0.0 ) continue;

	fld	ST(0)
	fld	ST(3)
	fucompp
	fnstsw	ax
	test	ah, 68					; 00000044H
	jnp	SHORT $LN47@q_edge_tor

; 1560 :       area += v*u[i][1]*u[j][0];

	mov	eax, DWORD PTR [esi+edi*4]
	fmul	QWORD PTR [eax+8]
	mov	eax, DWORD PTR [ecx+4]
	fmul	QWORD PTR [eax]
	faddp	ST(1), ST(0)
	jmp	SHORT $LN25@q_edge_tor
$LN47@q_edge_tor:
	fstp	ST(0)
$LN25@q_edge_tor:

; 1557 :     for ( j = 0 ; j < edge_ctrl ; j++ )

	add	DWORD PTR tv620[ebp], 32		; 00000020H
	add	ecx, 16					; 00000010H
	dec	edx
	jne	$LN27@q_edge_tor
	mov	edx, DWORD PTR _edge_ctrl
$LC21@q_edge_tor:
	cmp	ebx, edx
	jge	SHORT $LN6@q_edge_tor
	mov	ecx, DWORD PTR tv903[ebp]
	add	ecx, ebx
	lea	ecx, DWORD PTR _scoeff[ecx*8]
$LC4@q_edge_tor:

; 1558 :     { REAL v = scoeff[i][j];

	fld	QWORD PTR [ecx]

; 1559 :       if ( v == 0.0 ) continue;

	fld	ST(0)
	fld	ST(3)
	fucompp
	fnstsw	ax
	test	ah, 68					; 00000044H
	jnp	SHORT $LN56@q_edge_tor

; 1560 :       area += v*u[i][1]*u[j][0];

	mov	edx, DWORD PTR [esi+edi*4]
	fmul	QWORD PTR [edx+8]
	mov	eax, DWORD PTR [esi+ebx*4]
	fmul	QWORD PTR [eax]
	faddp	ST(1), ST(0)
	jmp	SHORT $LN3@q_edge_tor
$LN56@q_edge_tor:
	fstp	ST(0)
$LN3@q_edge_tor:
	inc	ebx

; 1557 :     for ( j = 0 ; j < edge_ctrl ; j++ )

	add	ecx, 8
	cmp	ebx, DWORD PTR _edge_ctrl
	jl	SHORT $LC4@q_edge_tor
	mov	edx, DWORD PTR _edge_ctrl
$LN6@q_edge_tor:

; 1547 :   int i,j;
; 1548 :   int wrap;
; 1549 : 
; 1550 :   x = e_info->x;
; 1551 : 
; 1552 :   /* get affine coordinates of vertices */
; 1553 :   mat_mul_tr(x,dx,u,edge_ctrl,SDIM,SDIM);
; 1554 :   /* main integral over edge */
; 1555 :   area = 0.0;
; 1556 :   for ( i = 0 ; i < edge_ctrl ; i++ )

	add	DWORD PTR tv958[ebp], 24		; 00000018H
	add	DWORD PTR tv903[ebp], 3
	inc	edi
	cmp	edi, edx
	jl	$LN28@q_edge_tor
	mov	ebx, DWORD PTR _e_info$GSCopy$[ebp]
	fstp	ST(1)

; 1560 :       area += v*u[i][1]*u[j][0];

	fst	QWORD PTR _area$[ebp]
	jmp	SHORT $LN5@q_edge_tor
$LN30@q_edge_tor:

; 1547 :   int i,j;
; 1548 :   int wrap;
; 1549 : 
; 1550 :   x = e_info->x;
; 1551 : 
; 1552 :   /* get affine coordinates of vertices */
; 1553 :   mat_mul_tr(x,dx,u,edge_ctrl,SDIM,SDIM);
; 1554 :   /* main integral over edge */
; 1555 :   area = 0.0;
; 1556 :   for ( i = 0 ; i < edge_ctrl ; i++ )

	fstp	ST(1)
$LN5@q_edge_tor:

; 1561 :     }
; 1562 : 
; 1563 :   /* wrap correction */
; 1564 :   wrap = (get_edge_wrap(e_info->id)>>TWRAPBITS) & WRAPMASK;

	mov	ebx, DWORD PTR [ebx]
	mov	edx, DWORD PTR _web+124
	mov	ecx, ebx
	and	ecx, 134217727				; 07ffffffH
	mov	eax, DWORD PTR [edx+ecx*4]
	mov	ecx, DWORD PTR _web+216
	mov	edx, DWORD PTR _dymem
	mov	ecx, DWORD PTR [ecx+edx+784]
	mov	eax, DWORD PTR [eax+ecx]
	test	ebx, 134217728				; 08000000H
	je	SHORT $LN14@q_edge_tor
	push	eax
	fstp	ST(0)
	call	DWORD PTR _sym_inverse
	fld	QWORD PTR _area$[ebp]
	add	esp, 4
$LN14@q_edge_tor:
	sar	eax, 6
	and	eax, 31					; 0000001fH

; 1565 :   area += WRAPNUM(wrap)*u[2][0];

	cmp	eax, 16					; 00000010H
	jle	SHORT $LN10@q_edge_tor
	add	eax, -32				; ffffffe0H
$LN10@q_edge_tor:
	mov	edx, DWORD PTR [esi+8]

; 1566 : 
; 1567 :   return area*web.torusv;
; 1568 : } // end q_edge_torus_area_q()

	mov	ecx, DWORD PTR __$ArrayPad$[ebp]
	mov	DWORD PTR tv132[ebp], eax
	fild	DWORD PTR tv132[ebp]
	pop	edi
	pop	esi
	xor	ecx, ebp
	fmul	QWORD PTR [edx]
	pop	ebx
	faddp	ST(1), ST(0)
	fmul	QWORD PTR _web+1600
	call	@__security_check_cookie@4
	mov	esp, ebp
	pop	ebp
	ret	0
_q_edge_torus_area_q ENDP
_TEXT	ENDS
PUBLIC	_e_info$GSCopy$
PUBLIC	__$ArrayPad$
PUBLIC	_q_edge_torus_area_q_grad
EXTRN	_mat_mult:PROC
; Function compile flags: /Ogtp
;	COMDAT _q_edge_torus_area_q_grad
_TEXT	SEGMENT
_uqXvS$ = -356						; size = 12
_gqXvS$ = -344						; size = 12
_u$ = -332						; size = 4
_dx$ = -328						; size = 4
_area$ = -324						; size = 8
tv644 = -320						; size = 4
tv614 = -316						; size = 4
_g$ = -312						; size = 4
_j$ = -308						; size = 4
tv536 = -304						; size = 4
_e_info$GSCopy$ = -300					; size = 4
_wrapnum$ = -296					; size = 4
_i$ = -296						; size = 4
_uxJ$ = -292						; size = 144
_gxJ$ = -148						; size = 144
__$ArrayPad$ = -4					; size = 4
_e_info$ = 8						; size = 4
_q_edge_torus_area_q_grad PROC				; COMDAT

; 1578 : { REAL **x;

	push	ebp
	mov	ebp, esp
	sub	esp, 356				; 00000164H
	mov	eax, DWORD PTR ___security_cookie
	xor	eax, ebp
	mov	DWORD PTR __$ArrayPad$[ebp], eax

; 1579 :   REAL area;
; 1580 :   REAL **dx = web.inverse_periods;
; 1581 :   MAT2D(u,EDGE_CTRL,MAXCOORD); /* affine coordinates of vertices */
; 1582 :   MAT2D(g,EDGE_CTRL,MAXCOORD);
; 1583 :   int i,j,k;
; 1584 :   int wrap,wrapnum;
; 1585 : 
; 1586 :   x = e_info->x;
; 1587 :   for ( i = 0 ; i < edge_ctrl ; i++ )

	mov	eax, DWORD PTR _e_info$[ebp]
	mov	ecx, DWORD PTR _web+1612
	push	ebx
	push	esi
	push	edi
	push	6
	push	3
	lea	edx, DWORD PTR _uxJ$[ebp]
	mov	DWORD PTR _e_info$GSCopy$[ebp], eax
	push	edx
	lea	eax, DWORD PTR _uqXvS$[ebp]
	push	eax
	mov	DWORD PTR _dx$[ebp], ecx
	call	_mat2d_setup
	push	6
	push	3
	lea	ecx, DWORD PTR _gxJ$[ebp]
	push	ecx
	lea	edx, DWORD PTR _gqXvS$[ebp]
	mov	ebx, eax
	push	edx
	mov	DWORD PTR _u$[ebp], ebx
	call	_mat2d_setup
	fldz
	mov	edx, DWORD PTR _web+616
	mov	esi, eax
	mov	eax, DWORD PTR _edge_ctrl
	add	esp, 32					; 00000020H
	xor	edi, edi
	mov	DWORD PTR _g$[ebp], esi
	test	eax, eax
	jle	SHORT $LN44@q_edge_tor@2
$LN19@q_edge_tor@2:

; 1588 :      for ( j = 0 ; j < SDIM ; j++ ) g[i][j] = 0.0;

	xor	ecx, ecx
	test	edx, edx
	jle	SHORT $LN18@q_edge_tor@2

; 1579 :   REAL area;
; 1580 :   REAL **dx = web.inverse_periods;
; 1581 :   MAT2D(u,EDGE_CTRL,MAXCOORD); /* affine coordinates of vertices */
; 1582 :   MAT2D(g,EDGE_CTRL,MAXCOORD);
; 1583 :   int i,j,k;
; 1584 :   int wrap,wrapnum;
; 1585 : 
; 1586 :   x = e_info->x;
; 1587 :   for ( i = 0 ; i < edge_ctrl ; i++ )

	mov	eax, DWORD PTR [esi+edi*4]
$LN16@q_edge_tor@2:

; 1588 :      for ( j = 0 ; j < SDIM ; j++ ) g[i][j] = 0.0;

	fst	QWORD PTR [eax]
	mov	edx, DWORD PTR _web+616
	inc	ecx
	add	eax, 8
	cmp	ecx, edx
	jl	SHORT $LN16@q_edge_tor@2
	mov	eax, DWORD PTR _edge_ctrl
$LN18@q_edge_tor@2:

; 1579 :   REAL area;
; 1580 :   REAL **dx = web.inverse_periods;
; 1581 :   MAT2D(u,EDGE_CTRL,MAXCOORD); /* affine coordinates of vertices */
; 1582 :   MAT2D(g,EDGE_CTRL,MAXCOORD);
; 1583 :   int i,j,k;
; 1584 :   int wrap,wrapnum;
; 1585 : 
; 1586 :   x = e_info->x;
; 1587 :   for ( i = 0 ; i < edge_ctrl ; i++ )

	inc	edi
	cmp	edi, eax
	jl	SHORT $LN19@q_edge_tor@2
$LN44@q_edge_tor@2:

; 1589 : 
; 1590 :   /* get affine coordinates of vertices */
; 1591 :   mat_mul_tr(x,dx,u,edge_ctrl,SDIM,SDIM);

	push	edx
	fstp	ST(0)
	push	edx
	push	eax
	mov	eax, DWORD PTR _dx$[ebp]
	push	ebx
	push	eax
	mov	eax, DWORD PTR _e_info$GSCopy$[ebp]
	add	eax, 416				; 000001a0H
	push	eax
	call	_mat_mul_tr

; 1592 :   /* main integral over edge */
; 1593 :   area = 0.0;

	fldz

; 1594 :   for ( i = 0 ; i < edge_ctrl ; i++ )

	mov	edx, DWORD PTR _edge_ctrl
	fld	ST(0)
	add	esp, 24					; 00000018H
	fst	QWORD PTR _area$[ebp]
	mov	DWORD PTR _i$[ebp], 0
	test	edx, edx
	jle	$LN56@q_edge_tor@2
	sub	esi, ebx
	mov	edi, ebx
	mov	DWORD PTR tv614[ebp], OFFSET _scoeff
	mov	DWORD PTR tv644[ebp], esi
$LN42@q_edge_tor@2:

; 1595 :     for ( j = 0 ; j < edge_ctrl ; j++ )

	mov	DWORD PTR _j$[ebp], 0
	test	edx, edx
	jle	SHORT $LN12@q_edge_tor@2
	mov	ecx, DWORD PTR _g$[ebp]
	mov	eax, DWORD PTR tv614[ebp]
	mov	DWORD PTR tv536[ebp], eax
	sub	ebx, ecx
$LN10@q_edge_tor@2:

; 1596 :     { REAL v = scoeff[j][i];

	mov	eax, DWORD PTR tv536[ebp]
	fld	QWORD PTR [eax]

; 1597 :       if ( v == 0.0 ) continue;

	fld	ST(0)
	fld	ST(3)
	fucompp
	fnstsw	ax
	test	ah, 68					; 00000044H
	jnp	SHORT $LN64@q_edge_tor@2

; 1598 :       area += v*u[i][0]*u[j][1];

	mov	eax, DWORD PTR [edi]
	fld	QWORD PTR [eax]
	mov	edx, DWORD PTR [ebx+ecx]

; 1599 :       g[i][0] += v*u[j][1];

	mov	esi, DWORD PTR [esi+edi]
	fmul	ST(0), ST(1)
	fmul	QWORD PTR [edx+8]
	faddp	ST(2), ST(0)
	fld	QWORD PTR [edx+8]

; 1600 :       g[j][1] += v*u[i][0];

	mov	edx, DWORD PTR [ecx]
	fmul	ST(0), ST(1)
	fadd	QWORD PTR [esi]
	fstp	QWORD PTR [esi]
	mov	esi, DWORD PTR tv644[ebp]
	fmul	QWORD PTR [eax]
	fadd	QWORD PTR [edx+8]
	fstp	QWORD PTR [edx+8]
	mov	edx, DWORD PTR _edge_ctrl
	jmp	SHORT $LN9@q_edge_tor@2
$LN64@q_edge_tor@2:
	fstp	ST(0)
$LN9@q_edge_tor@2:

; 1595 :     for ( j = 0 ; j < edge_ctrl ; j++ )

	inc	DWORD PTR _j$[ebp]
	add	DWORD PTR tv536[ebp], 24		; 00000018H
	add	ecx, 4
	cmp	DWORD PTR _j$[ebp], edx
	jl	SHORT $LN10@q_edge_tor@2
	mov	ebx, DWORD PTR _u$[ebp]
$LN12@q_edge_tor@2:

; 1594 :   for ( i = 0 ; i < edge_ctrl ; i++ )

	mov	eax, DWORD PTR _i$[ebp]
	add	DWORD PTR tv614[ebp], 8
	inc	eax
	add	edi, 4
	mov	DWORD PTR _i$[ebp], eax
	cmp	eax, edx
	jl	$LN42@q_edge_tor@2
	mov	esi, DWORD PTR _g$[ebp]
	fstp	ST(1)

; 1598 :       area += v*u[i][0]*u[j][1];

	fst	QWORD PTR _area$[ebp]
	jmp	SHORT $LN11@q_edge_tor@2
$LN56@q_edge_tor@2:

; 1594 :   for ( i = 0 ; i < edge_ctrl ; i++ )

	fstp	ST(1)
$LN11@q_edge_tor@2:

; 1601 :     }
; 1602 : 
; 1603 :   /* wrap correction */
; 1604 :   wrap = (get_edge_wrap(e_info->id)>>TWRAPBITS) & WRAPMASK;

	mov	ecx, DWORD PTR _e_info$GSCopy$[ebp]
	mov	ecx, DWORD PTR [ecx]
	mov	eax, DWORD PTR _web+124
	mov	edi, DWORD PTR _dymem
	mov	edx, ecx
	and	edx, 134217727				; 07ffffffH
	mov	edx, DWORD PTR [eax+edx*4]
	mov	eax, DWORD PTR _web+216
	mov	eax, DWORD PTR [eax+edi+784]
	mov	eax, DWORD PTR [edx+eax]
	test	ecx, 134217728				; 08000000H
	je	SHORT $LN26@q_edge_tor@2
	push	eax
	fstp	ST(0)
	call	DWORD PTR _sym_inverse
	fld	QWORD PTR _area$[ebp]
	add	esp, 4
$LN26@q_edge_tor@2:
	sar	eax, 6
	and	eax, 31					; 0000001fH

; 1605 :   wrapnum = WRAPNUM(wrap);

	cmp	eax, 16					; 00000010H
	jle	SHORT $LN22@q_edge_tor@2
	add	eax, -32				; ffffffe0H
$LN22@q_edge_tor@2:

; 1606 :   area += wrapnum*u[2][0]; 

	mov	ecx, DWORD PTR [ebx+8]
	mov	DWORD PTR _wrapnum$[ebp], eax
	fild	DWORD PTR _wrapnum$[ebp]

; 1607 :   g[2][0] += wrapnum;

	mov	eax, DWORD PTR [esi+8]
	fld	QWORD PTR [ecx]

; 1608 : 
; 1609 :   for ( k = 0 ; k < edge_ctrl ; k++ )

	xor	edi, edi
	fmul	ST(0), ST(1)
	faddp	ST(2), ST(0)
	fxch	ST(1)
	fstp	QWORD PTR _area$[ebp]
	fadd	QWORD PTR [eax]
	fstp	QWORD PTR [eax]
	mov	eax, DWORD PTR _edge_ctrl
	mov	edx, DWORD PTR _web+616
	test	eax, eax
	jle	SHORT $LN4@q_edge_tor@2
	npad	3
$LL6@q_edge_tor@2:

; 1610 :      for ( j = 0 ; j < SDIM ; j++ )

	xor	ecx, ecx
	test	edx, edx
	jle	SHORT $LN5@q_edge_tor@2

; 1608 : 
; 1609 :   for ( k = 0 ; k < edge_ctrl ; k++ )

	mov	eax, DWORD PTR [esi+edi*4]
	npad	7
$LL3@q_edge_tor@2:

; 1611 :         g[k][j] *= web.torusv;

	fld	QWORD PTR [eax]
	inc	ecx
	fmul	QWORD PTR _web+1600
	add	eax, 8
	fstp	QWORD PTR [eax-8]
	mov	edx, DWORD PTR _web+616
	cmp	ecx, edx
	jl	SHORT $LL3@q_edge_tor@2

; 1610 :      for ( j = 0 ; j < SDIM ; j++ )

	mov	eax, DWORD PTR _edge_ctrl
$LN5@q_edge_tor@2:

; 1608 : 
; 1609 :   for ( k = 0 ; k < edge_ctrl ; k++ )

	inc	edi
	cmp	edi, eax
	jl	SHORT $LL6@q_edge_tor@2
$LN4@q_edge_tor@2:

; 1612 :   mat_mult(g,dx,e_info->grad,edge_ctrl,SDIM,SDIM);

	mov	ecx, DWORD PTR _dx$[ebp]
	push	edx
	push	edx
	mov	edx, DWORD PTR _e_info$GSCopy$[ebp]
	push	eax
	mov	eax, DWORD PTR [edx+1336]
	push	eax
	push	ecx
	push	esi
	call	_mat_mult

; 1613 : 
; 1614 :   return area*web.torusv;

	fld	QWORD PTR _web+1600

; 1615 : } // end q_edge_torus_area_q_grad()

	mov	ecx, DWORD PTR __$ArrayPad$[ebp]
	fmul	QWORD PTR _area$[ebp]
	add	esp, 24					; 00000018H
	pop	edi
	pop	esi
	xor	ecx, ebp
	pop	ebx
	call	@__security_check_cookie@4
	mov	esp, ebp
	pop	ebp
	ret	0
_q_edge_torus_area_q_grad ENDP
_TEXT	ENDS
PUBLIC	_e_info$GSCopy$
PUBLIC	__$ArrayPad$
PUBLIC	_q_edge_torus_area_q_hess
EXTRN	_tr_mat_mul:PROC
; Function compile flags: /Ogtp
;	COMDAT _q_edge_torus_area_q_hess
_TEXT	SEGMENT
_temphqXvS$ = -736					; size = 24
_gqXvS$ = -712						; size = 16
_uqXvS$ = -696						; size = 12
tv722 = -684						; size = 4
tv717 = -680						; size = 4
tv915 = -676						; size = 4
_temph$ = -672						; size = 4
_area$ = -668						; size = 8
tv910 = -664						; size = 4
_g$ = -660						; size = 4
_dx$ = -656						; size = 4
_i$ = -652						; size = 4
tv711 = -648						; size = 4
tv858 = -644						; size = 4
_h$ = -640						; size = 4
_e_info$GSCopy$ = -636					; size = 4
_wrapnum$ = -632					; size = 4
_u$ = -632						; size = 4
_temphxJ$ = -628					; size = 288
_gxJ$ = -340						; size = 192
_uxJ$ = -148						; size = 144
__$ArrayPad$ = -4					; size = 4
_e_info$ = 8						; size = 4
_q_edge_torus_area_q_hess PROC				; COMDAT

; 1626 : { REAL **x;

	push	ebp
	mov	ebp, esp
	sub	esp, 736				; 000002e0H
	mov	eax, DWORD PTR ___security_cookie
	xor	eax, ebp
	mov	DWORD PTR __$ArrayPad$[ebp], eax

; 1627 :   REAL area;
; 1628 :   REAL **dx = web.inverse_periods;

	mov	eax, DWORD PTR _web+1612
	push	ebx
	push	esi
	mov	esi, DWORD PTR _e_info$[ebp]
	push	edi

; 1629 :   MAT2D(u,EDGE_CTRL,MAXCOORD); /* affine coordinates of vertices */

	push	6
	push	3
	lea	ecx, DWORD PTR _uxJ$[ebp]
	push	ecx
	lea	edx, DWORD PTR _uqXvS$[ebp]
	push	edx
	mov	DWORD PTR _e_info$GSCopy$[ebp], esi
	mov	DWORD PTR _dx$[ebp], eax
	call	_mat2d_setup

; 1630 :   MAT2D(g,EDGE_CTRL+1,MAXCOORD);

	push	6
	mov	edi, eax
	push	4
	lea	eax, DWORD PTR _gxJ$[ebp]
	push	eax
	lea	ecx, DWORD PTR _gqXvS$[ebp]
	push	ecx
	mov	DWORD PTR _u$[ebp], edi
	call	_mat2d_setup

; 1631 :   REAL ****h;
; 1632 :   MAT2D(temph,MAXCOORD,MAXCOORD);

	push	6
	mov	ebx, eax
	push	6
	lea	edx, DWORD PTR _temphxJ$[ebp]
	push	edx
	lea	eax, DWORD PTR _temphqXvS$[ebp]
	push	eax
	mov	DWORD PTR _g$[ebp], ebx
	call	_mat2d_setup

; 1633 :   int i,ii,j,k;
; 1634 :   int wrap,wrapnum;
; 1635 : 
; 1636 :   x = e_info->x;
; 1637 :   h = e_info->hess;
; 1638 :   for ( i = 0 ; i < edge_ctrl ; i++ )

	fldz
	mov	ecx, DWORD PTR [esi+1340]
	mov	edx, DWORD PTR _web+616
	mov	DWORD PTR _temph$[ebp], eax
	mov	eax, DWORD PTR _edge_ctrl
	add	esp, 48					; 00000030H
	xor	esi, esi
	mov	DWORD PTR _h$[ebp], ecx
	test	eax, eax
	jle	SHORT $LN55@q_edge_tor@3
$LN25@q_edge_tor@3:

; 1639 :      for ( j = 0 ; j < SDIM ; j++ ) g[i][j] = 0.0;

	xor	ecx, ecx
	test	edx, edx
	jle	SHORT $LN24@q_edge_tor@3

; 1633 :   int i,ii,j,k;
; 1634 :   int wrap,wrapnum;
; 1635 : 
; 1636 :   x = e_info->x;
; 1637 :   h = e_info->hess;
; 1638 :   for ( i = 0 ; i < edge_ctrl ; i++ )

	mov	eax, DWORD PTR [ebx+esi*4]
$LN22@q_edge_tor@3:

; 1639 :      for ( j = 0 ; j < SDIM ; j++ ) g[i][j] = 0.0;

	fst	QWORD PTR [eax]
	mov	edx, DWORD PTR _web+616
	inc	ecx
	add	eax, 8
	cmp	ecx, edx
	jl	SHORT $LN22@q_edge_tor@3
	mov	eax, DWORD PTR _edge_ctrl
$LN24@q_edge_tor@3:

; 1633 :   int i,ii,j,k;
; 1634 :   int wrap,wrapnum;
; 1635 : 
; 1636 :   x = e_info->x;
; 1637 :   h = e_info->hess;
; 1638 :   for ( i = 0 ; i < edge_ctrl ; i++ )

	inc	esi
	cmp	esi, eax
	jl	SHORT $LN25@q_edge_tor@3
$LN55@q_edge_tor@3:

; 1640 : 
; 1641 :   /* get affine coordinates of vertices */
; 1642 :   mat_mul_tr(x,dx,u,edge_ctrl,SDIM,SDIM);

	push	edx
	fstp	ST(0)
	push	edx
	mov	edx, DWORD PTR _dx$[ebp]
	push	eax
	mov	eax, DWORD PTR _e_info$GSCopy$[ebp]
	push	edi
	push	edx
	add	eax, 416				; 000001a0H
	push	eax
	call	_mat_mul_tr

; 1643 :   /* main integral over edge */
; 1644 :   area = 0.0;

	fldz

; 1645 :   for ( i = 0 ; i < edge_ctrl ; i++ )

	mov	eax, DWORD PTR _edge_ctrl
	fld	ST(0)
	add	esp, 24					; 00000018H
	fst	QWORD PTR _area$[ebp]
	mov	DWORD PTR _i$[ebp], 0
	test	eax, eax
	jle	$LN67@q_edge_tor@3
	mov	ecx, DWORD PTR _h$[ebp]
	mov	esi, ebx
	sub	esi, edi
	sub	ecx, edi
	mov	DWORD PTR tv858[ebp], OFFSET _scoeff
	mov	DWORD PTR tv910[ebp], esi
	mov	DWORD PTR tv915[ebp], ecx
$LN53@q_edge_tor@3:

; 1646 :      for ( j = 0 ; j < edge_ctrl ; j++ )

	xor	ebx, ebx
	test	eax, eax
	jle	$LN18@q_edge_tor@3
	mov	eax, DWORD PTR tv858[ebp]
	mov	ecx, DWORD PTR _g$[ebp]
	mov	edx, DWORD PTR _u$[ebp]
	mov	DWORD PTR tv711[ebp], eax
	mov	eax, DWORD PTR _h$[ebp]
	sub	edx, ecx
	sub	eax, ecx
	mov	DWORD PTR tv717[ebp], edx
	mov	DWORD PTR tv722[ebp], eax
$LN16@q_edge_tor@3:

; 1647 :         { REAL v = scoeff[j][i];

	mov	eax, DWORD PTR tv711[ebp]
	fld	QWORD PTR [eax]

; 1648 :           if ( v == 0.0 ) continue;

	fld	ST(0)
	fld	ST(3)
	fucompp
	fnstsw	ax
	test	ah, 68					; 00000044H
	jnp	SHORT $LN75@q_edge_tor@3

; 1649 :           area += v*u[i][0]*u[j][1];

	mov	eax, DWORD PTR [edi]
	fld	QWORD PTR [eax]
	mov	edx, DWORD PTR [edx+ecx]

; 1650 :           g[i][0] += v*u[j][1];

	mov	esi, DWORD PTR [esi+edi]
	fmul	ST(0), ST(1)
	fmul	QWORD PTR [edx+8]
	faddp	ST(2), ST(0)
	fld	QWORD PTR [edx+8]

; 1651 :           g[j][1] += v*u[i][0];

	mov	edx, DWORD PTR [ecx]
	fmul	ST(0), ST(1)
	fadd	QWORD PTR [esi]
	fstp	QWORD PTR [esi]

; 1652 :           h[i][j][0][1] += v*web.torusv;
; 1653 :           h[j][i][1][0] += v*web.torusv;

	mov	esi, DWORD PTR tv910[ebp]
	fld	QWORD PTR [eax]
	fmul	ST(0), ST(1)
	fadd	QWORD PTR [edx+8]
	fstp	QWORD PTR [edx+8]
	mov	edx, DWORD PTR tv915[ebp]
	mov	eax, DWORD PTR [edx+edi]
	fld	QWORD PTR _web+1600
	mov	edx, DWORD PTR [eax+ebx*4]
	fmul	ST(0), ST(1)
	mov	eax, DWORD PTR [edx]
	fadd	QWORD PTR [eax+8]
	fstp	QWORD PTR [eax+8]
	mov	eax, DWORD PTR tv722[ebp]
	mov	edx, DWORD PTR [eax+ecx]
	mov	eax, DWORD PTR _i$[ebp]
	fmul	QWORD PTR _web+1600
	mov	edx, DWORD PTR [edx+eax*4]
	mov	eax, DWORD PTR [edx+4]
	fadd	QWORD PTR [eax]
	mov	edx, DWORD PTR tv717[ebp]
	fstp	QWORD PTR [eax]
	jmp	SHORT $LN15@q_edge_tor@3
$LN75@q_edge_tor@3:
	fstp	ST(0)
$LN15@q_edge_tor@3:

; 1646 :      for ( j = 0 ; j < edge_ctrl ; j++ )

	add	DWORD PTR tv711[ebp], 24		; 00000018H
	inc	ebx
	add	ecx, 4
	cmp	ebx, DWORD PTR _edge_ctrl
	jl	$LN16@q_edge_tor@3
	mov	eax, DWORD PTR _edge_ctrl
$LN18@q_edge_tor@3:

; 1645 :   for ( i = 0 ; i < edge_ctrl ; i++ )

	mov	ecx, DWORD PTR _i$[ebp]
	add	DWORD PTR tv858[ebp], 8
	inc	ecx
	add	edi, 4
	mov	DWORD PTR _i$[ebp], ecx
	cmp	ecx, eax
	jl	$LN53@q_edge_tor@3
	mov	ebx, DWORD PTR _g$[ebp]
	fstp	ST(1)
	mov	edi, DWORD PTR _u$[ebp]

; 1649 :           area += v*u[i][0]*u[j][1];

	fst	QWORD PTR _area$[ebp]
	jmp	SHORT $LN17@q_edge_tor@3
$LN67@q_edge_tor@3:

; 1645 :   for ( i = 0 ; i < edge_ctrl ; i++ )

	fstp	ST(1)
$LN17@q_edge_tor@3:

; 1654 :         }
; 1655 : 
; 1656 :   /* wrap correction */
; 1657 :   wrap = (get_edge_wrap(e_info->id)>>TWRAPBITS) & WRAPMASK;

	mov	eax, DWORD PTR _e_info$GSCopy$[ebp]
	mov	ecx, DWORD PTR [eax]
	mov	eax, DWORD PTR _web+124
	mov	esi, DWORD PTR _dymem
	mov	edx, ecx
	and	edx, 134217727				; 07ffffffH
	mov	edx, DWORD PTR [eax+edx*4]
	mov	eax, DWORD PTR _web+216
	mov	eax, DWORD PTR [eax+esi+784]
	mov	eax, DWORD PTR [edx+eax]
	test	ecx, 134217728				; 08000000H
	je	SHORT $LN32@q_edge_tor@3
	push	eax
	fstp	ST(0)
	call	DWORD PTR _sym_inverse
	fld	QWORD PTR _area$[ebp]
	add	esp, 4
$LN32@q_edge_tor@3:
	sar	eax, 6
	and	eax, 31					; 0000001fH

; 1658 :   wrapnum = WRAPNUM(wrap);

	cmp	eax, 16					; 00000010H
	jle	SHORT $LN28@q_edge_tor@3
	add	eax, -32				; ffffffe0H
$LN28@q_edge_tor@3:

; 1659 :   area += wrapnum*u[2][0]; 

	mov	ecx, DWORD PTR [edi+8]
	mov	DWORD PTR _wrapnum$[ebp], eax
	fild	DWORD PTR _wrapnum$[ebp]

; 1660 :   g[2][0] += wrapnum; 

	mov	eax, DWORD PTR [ebx+8]
	fld	QWORD PTR [ecx]

; 1661 : 
; 1662 :   for ( k = 0 ; k < edge_ctrl ; k++ )

	xor	esi, esi
	fmul	ST(0), ST(1)
	faddp	ST(2), ST(0)
	fxch	ST(1)
	fstp	QWORD PTR _area$[ebp]
	fadd	QWORD PTR [eax]
	fstp	QWORD PTR [eax]
	mov	eax, DWORD PTR _edge_ctrl
	mov	edx, DWORD PTR _web+616
	test	eax, eax
	jle	SHORT $LN10@q_edge_tor@3
	npad	7
$LL12@q_edge_tor@3:

; 1663 :      for ( j = 0 ; j < SDIM ; j++ )

	xor	ecx, ecx
	test	edx, edx
	jle	SHORT $LN11@q_edge_tor@3

; 1661 : 
; 1662 :   for ( k = 0 ; k < edge_ctrl ; k++ )

	mov	eax, DWORD PTR [ebx+esi*4]
	npad	7
$LL9@q_edge_tor@3:

; 1664 :         g[k][j] *= web.torusv;

	fld	QWORD PTR [eax]
	inc	ecx
	fmul	QWORD PTR _web+1600
	add	eax, 8
	fstp	QWORD PTR [eax-8]
	mov	edx, DWORD PTR _web+616
	cmp	ecx, edx
	jl	SHORT $LL9@q_edge_tor@3

; 1663 :      for ( j = 0 ; j < SDIM ; j++ )

	mov	eax, DWORD PTR _edge_ctrl
$LN11@q_edge_tor@3:

; 1661 : 
; 1662 :   for ( k = 0 ; k < edge_ctrl ; k++ )

	inc	esi
	cmp	esi, eax
	jl	SHORT $LL12@q_edge_tor@3
$LN10@q_edge_tor@3:

; 1665 : 
; 1666 :   /* form pullback */
; 1667 :   mat_mult(g,dx,e_info->grad,edge_ctrl,SDIM,SDIM);

	mov	ecx, DWORD PTR _dx$[ebp]
	push	edx
	push	edx
	mov	edx, DWORD PTR _e_info$GSCopy$[ebp]
	push	eax
	mov	eax, DWORD PTR [edx+1336]
	push	eax
	push	ecx
	push	ebx
	call	_mat_mult

; 1668 :   for ( i = 0 ; i < edge_ctrl ; i++ )

	mov	eax, DWORD PTR _edge_ctrl
	add	esp, 24					; 00000018H
	xor	edi, edi
	test	eax, eax
	jle	SHORT $LN4@q_edge_tor@3
	npad	2
$LL52@q_edge_tor@3:

; 1669 :     for ( ii = 0 ; ii < edge_ctrl ; ii++ )

	xor	esi, esi
	test	eax, eax
	jle	SHORT $LN5@q_edge_tor@3
	npad	10
$LL3@q_edge_tor@3:

; 1670 :     { mat_mult(h[i][ii],dx,temph,SDIM,SDIM,SDIM);

	mov	eax, DWORD PTR _web+616
	mov	edx, DWORD PTR _temph$[ebp]
	mov	ebx, DWORD PTR _dx$[ebp]
	push	eax
	push	eax
	push	eax
	mov	eax, DWORD PTR _h$[ebp]
	mov	ecx, DWORD PTR [eax+edi*4]
	push	edx
	mov	edx, DWORD PTR [ecx+esi*4]
	push	ebx
	push	edx
	call	_mat_mult

; 1671 :       tr_mat_mul(dx,temph,e_info->hess[i][ii],SDIM,SDIM,SDIM);

	mov	eax, DWORD PTR _web+616
	push	eax
	push	eax
	push	eax
	mov	eax, DWORD PTR _e_info$GSCopy$[ebp]
	mov	ecx, DWORD PTR [eax+1340]
	mov	edx, DWORD PTR [ecx+edi*4]
	mov	eax, DWORD PTR [edx+esi*4]
	mov	ecx, DWORD PTR _temph$[ebp]
	push	eax
	push	ecx
	push	ebx
	call	_tr_mat_mul
	mov	eax, DWORD PTR _edge_ctrl
	inc	esi
	add	esp, 48					; 00000030H
	cmp	esi, eax
	jl	SHORT $LL3@q_edge_tor@3
$LN5@q_edge_tor@3:

; 1668 :   for ( i = 0 ; i < edge_ctrl ; i++ )

	inc	edi
	cmp	edi, eax
	jl	SHORT $LL52@q_edge_tor@3
$LN4@q_edge_tor@3:

; 1672 :     }
; 1673 :   return area*web.torusv;
; 1674 : } // end q_edge_torus_area_q_hess()

	mov	ecx, DWORD PTR __$ArrayPad$[ebp]
	fld	QWORD PTR _web+1600
	fmul	QWORD PTR _area$[ebp]
	pop	edi
	pop	esi
	xor	ecx, ebp
	pop	ebx
	call	@__security_check_cookie@4
	mov	esp, ebp
	pop	ebp
	ret	0
_q_edge_torus_area_q_hess ENDP
_TEXT	ENDS
PUBLIC	_q_edge_torus_area_lagrange
; Function compile flags: /Ogtp
;	COMDAT _q_edge_torus_area_lagrange
_TEXT	SEGMENT
$T92639 = -36						; size = 4
_area$ = -32						; size = 8
_k$ = -28						; size = 4
_gl$ = -24						; size = 4
tv1229 = -20						; size = 4
tv1588 = -16						; size = 4
_m$ = -12						; size = 4
_u$ = -8						; size = 4
_ctrl$ = -4						; size = 4
tv148 = 8						; size = 4
_e_info$ = 8						; size = 4
_q_edge_torus_area_lagrange PROC			; COMDAT

; 1689 : { REAL **x;

	push	ebp
	mov	ebp, esp
	sub	esp, 36					; 00000024H

; 1690 :   REAL area;
; 1691 :   struct gauss_lag *gl = &gauss_lagrange[web.dimension][web.gauss1D_order];

	mov	eax, DWORD PTR _web+620

; 1692 :   int ctrl = web.skel[EDGE].ctrlpts;
; 1693 :   int m,k;
; 1694 :   REAL **u = e_info->u;

	mov	ecx, DWORD PTR _e_info$[ebp]
	mov	edx, DWORD PTR [ecx+1220]
	push	ebx
	push	esi
	mov	esi, DWORD PTR _web+120
	push	edi
	mov	edi, DWORD PTR _web+1592
	shl	edi, 5
	add	edi, DWORD PTR _gauss_lagrange[eax*4]

; 1695 :   int wrap;
; 1696 : 
; 1697 :   x = e_info->x;
; 1698 :   /* get affine coordinates of vertices */
; 1699 :   mat_mul_tr(x,web.inverse_periods,u,ctrl,SDIM,SDIM);

	mov	eax, DWORD PTR _web+616
	push	eax
	push	eax
	push	esi
	push	edx
	mov	DWORD PTR _u$[ebp], edx
	mov	edx, DWORD PTR _web+1612
	push	edx
	add	ecx, 416				; 000001a0H
	push	ecx
	mov	DWORD PTR _gl$[ebp], edi
	mov	DWORD PTR _ctrl$[ebp], esi
	call	_mat_mul_tr

; 1700 : 
; 1701 :   /* main integral over edge */
; 1702 :   area = 0.0;

	fldz
	mov	eax, DWORD PTR [edi+4]
	fld	ST(0)

; 1703 :   for ( m = 0 ; m < gl->gnumpts ; m++ )

	xor	ebx, ebx
	fst	QWORD PTR _area$[ebp]
	add	esp, 24					; 00000018H
	mov	DWORD PTR _m$[ebp], ebx

; 1706 :      { y += gl->gpoly[m][k]*u[k][1];

	mov	DWORD PTR $T92639[ebp], eax
	test	eax, eax
	jle	$LN25@q_edge_tor@4

; 1690 :   REAL area;
; 1691 :   struct gauss_lag *gl = &gauss_lagrange[web.dimension][web.gauss1D_order];

	mov	eax, DWORD PTR [edi+12]
	mov	DWORD PTR tv1588[ebp], eax
$LN22@q_edge_tor@4:

; 1704 :   { REAL y,dx;
; 1705 :      for ( y = 0.0, dx = 0.0, k = 0 ; k < ctrl ; k++ )

	xor	eax, eax
	fld	ST(1)
	fld	ST(2)
	cmp	esi, 4
	jl	$LC20@q_edge_tor@4
	mov	edx, DWORD PTR [edi+24]
	mov	ecx, DWORD PTR [edi+20]
	mov	eax, DWORD PTR [edx+ebx*4]
	mov	esi, DWORD PTR [ecx+ebx*4]
	mov	edi, DWORD PTR [eax]
	mov	ecx, DWORD PTR _u$[ebp]
	lea	eax, DWORD PTR [esi+16]
	lea	edx, DWORD PTR [edi+24]

; 1707 :         dx += gl->gpolypart[m][0][k]*u[k][0];

	sub	edi, esi
	mov	esi, DWORD PTR _ctrl$[ebp]
	add	esi, -4					; fffffffcH
	shr	esi, 2
	add	ecx, 8
	inc	esi
	mov	DWORD PTR tv1229[ebp], edi
	lea	edi, DWORD PTR [esi*4]
	mov	DWORD PTR _k$[ebp], edi
$LN21@q_edge_tor@4:

; 1706 :      { y += gl->gpoly[m][k]*u[k][1];

	mov	edi, DWORD PTR [ecx-8]
	fld	QWORD PTR [edi+8]
	mov	ebx, DWORD PTR [ecx-4]
	fmul	QWORD PTR [eax-16]

; 1707 :         dx += gl->gpolypart[m][0][k]*u[k][0];

	add	eax, 32					; 00000020H
	add	edx, 32					; 00000020H
	add	ecx, 16					; 00000010H
	dec	esi
	faddp	ST(2), ST(0)
	fld	QWORD PTR [ebx+8]
	mov	ebx, DWORD PTR [ecx-16]
	fmul	QWORD PTR [eax-40]
	faddp	ST(2), ST(0)
	fld	QWORD PTR [ebx+8]
	mov	ebx, DWORD PTR [ecx-12]
	fmul	QWORD PTR [eax-32]
	faddp	ST(2), ST(0)
	fld	QWORD PTR [ebx+8]
	fmul	QWORD PTR [eax-24]
	faddp	ST(2), ST(0)
	fld	QWORD PTR [edx-56]
	fmul	QWORD PTR [edi]
	mov	edi, DWORD PTR [ecx-20]
	faddp	ST(1), ST(0)
	fld	QWORD PTR [edx-48]
	fmul	QWORD PTR [edi]
	mov	edi, DWORD PTR tv1229[ebp]
	faddp	ST(1), ST(0)
	fld	QWORD PTR [edi+eax-32]
	mov	edi, DWORD PTR [ecx-16]
	fmul	QWORD PTR [edi]
	faddp	ST(1), ST(0)
	fld	QWORD PTR [edx-32]
	fmul	QWORD PTR [ebx]
	faddp	ST(1), ST(0)
	jne	SHORT $LN21@q_edge_tor@4

; 1704 :   { REAL y,dx;
; 1705 :      for ( y = 0.0, dx = 0.0, k = 0 ; k < ctrl ; k++ )

	mov	edi, DWORD PTR _gl$[ebp]
	mov	ebx, DWORD PTR _m$[ebp]
	mov	eax, DWORD PTR _k$[ebp]
	mov	esi, DWORD PTR _ctrl$[ebp]
$LC20@q_edge_tor@4:
	cmp	eax, esi
	jge	SHORT $LN23@q_edge_tor@4
	mov	ecx, DWORD PTR [edi+24]
	mov	edx, DWORD PTR [ecx+ebx*4]
	mov	esi, DWORD PTR [edi+20]
	mov	edx, DWORD PTR [edx]
	mov	esi, DWORD PTR [esi+ebx*4]
	lea	ecx, DWORD PTR [edx+eax*8]
	sub	esi, edx
$LC3@q_edge_tor@4:

; 1706 :      { y += gl->gpoly[m][k]*u[k][1];

	mov	edx, DWORD PTR _u$[ebp]
	fld	QWORD PTR [esi+ecx]
	mov	edx, DWORD PTR [edx+eax*4]
	fmul	QWORD PTR [edx+8]
	inc	eax
	add	ecx, 8
	faddp	ST(2), ST(0)

; 1707 :         dx += gl->gpolypart[m][0][k]*u[k][0];

	fld	QWORD PTR [ecx-8]
	fmul	QWORD PTR [edx]
	faddp	ST(1), ST(0)
	cmp	eax, DWORD PTR _ctrl$[ebp]
	jl	SHORT $LC3@q_edge_tor@4

; 1704 :   { REAL y,dx;
; 1705 :      for ( y = 0.0, dx = 0.0, k = 0 ; k < ctrl ; k++ )

	mov	esi, DWORD PTR _ctrl$[ebp]
$LN23@q_edge_tor@4:

; 1708 :      }
; 1709 :      area -= gl->gausswt[m]*y*dx;

	mov	eax, DWORD PTR tv1588[ebp]
	fxch	ST(1)
	fmul	QWORD PTR [eax]
	inc	ebx
	add	eax, 8
	mov	DWORD PTR _m$[ebp], ebx
	fmulp	ST(1), ST(0)
	mov	DWORD PTR tv1588[ebp], eax
	fsubp	ST(1), ST(0)
	cmp	ebx, DWORD PTR $T92639[ebp]
	jl	$LN22@q_edge_tor@4
	fstp	ST(1)
	fst	QWORD PTR _area$[ebp]
	jmp	SHORT $LN4@q_edge_tor@4
$LN25@q_edge_tor@4:
	fstp	ST(1)
$LN4@q_edge_tor@4:

; 1710 :   }
; 1711 :      
; 1712 :   /* wrap correction */
; 1713 :   wrap = (get_edge_wrap(e_info->id)>>TWRAPBITS) & WRAPMASK;

	mov	eax, DWORD PTR _e_info$[ebp]
	mov	ecx, DWORD PTR [eax]
	mov	eax, DWORD PTR _web+124
	mov	edi, DWORD PTR _dymem
	mov	edx, ecx
	and	edx, 134217727				; 07ffffffH
	mov	edx, DWORD PTR [eax+edx*4]
	mov	eax, DWORD PTR _web+216
	mov	eax, DWORD PTR [eax+edi+784]
	mov	eax, DWORD PTR [edx+eax]
	test	ecx, 134217728				; 08000000H
	je	SHORT $LN13@q_edge_tor@4
	push	eax
	fstp	ST(0)
	call	DWORD PTR _sym_inverse
	fld	QWORD PTR _area$[ebp]
	add	esp, 4
$LN13@q_edge_tor@4:
	sar	eax, 6
	and	eax, 31					; 0000001fH

; 1714 :   area += WRAPNUM(wrap)*u[ctrl-1][0];

	cmp	eax, 16					; 00000010H
	jle	SHORT $LN9@q_edge_tor@4
	add	eax, -32				; ffffffe0H
$LN9@q_edge_tor@4:
	mov	ecx, DWORD PTR _u$[ebp]
	mov	edx, DWORD PTR [ecx+esi*4-4]
	mov	DWORD PTR tv148[ebp], eax

; 1715 : 
; 1716 :   return area * web.torusv;

	fild	DWORD PTR tv148[ebp]
	pop	edi
	pop	esi
	pop	ebx
	fmul	QWORD PTR [edx]
	faddp	ST(1), ST(0)
	fmul	QWORD PTR _web+1600

; 1717 : } // end q_edge_torus_area_lagrange()

	mov	esp, ebp
	pop	ebp
	ret	0
_q_edge_torus_area_lagrange ENDP
_TEXT	ENDS
PUBLIC	_e_info$GSCopy$
PUBLIC	__$ArrayPad$
PUBLIC	_q_edge_torus_area_lagrange_grad
EXTRN	__chkstk:PROC
; Function compile flags: /Ogtp
;	COMDAT _q_edge_torus_area_lagrange_grad
_TEXT	SEGMENT
_gqXvS$ = -5240						; size = 400
tv2021 = -4840						; size = 4
_e_info$GSCopy$ = -4836					; size = 4
tv2321 = -4832						; size = 4
tv2130 = -4832						; size = 4
_ctrl$ = -4828						; size = 4
_area$ = -4824						; size = 8
tv2290 = -4820						; size = 4
_k$ = -4820						; size = 4
_u$ = -4816						; size = 4
_g$ = -4812						; size = 4
tv653 = -4808						; size = 4
_wrapnum$ = -4808					; size = 4
_gxJ$ = -4804						; size = 4800
__$ArrayPad$ = -4					; size = 4
_e_info$ = 8						; size = 4
_q_edge_torus_area_lagrange_grad PROC			; COMDAT

; 1727 : { REAL **x;

	push	ebp
	mov	ebp, esp
	mov	eax, 5240				; 00001478H
	call	__chkstk
	mov	eax, DWORD PTR ___security_cookie
	xor	eax, ebp
	mov	DWORD PTR __$ArrayPad$[ebp], eax
	mov	eax, DWORD PTR _e_info$[ebp]

; 1728 :   REAL area;
; 1729 :   int m,j,k,i;
; 1730 :   struct gauss_lag *gl = &gauss_lagrange[web.dimension][web.gauss1D_order];

	mov	ecx, DWORD PTR _web+620

; 1731 :   int ctrl = web.skel[EDGE].ctrlpts;
; 1732 :   REAL **u = e_info->u;

	mov	edx, DWORD PTR [eax+1220]
	push	ebx
	mov	ebx, DWORD PTR _web+120
	push	esi
	mov	esi, DWORD PTR _web+1592
	push	edi

; 1733 :   int wrap,wrapnum;
; 1734 :   MAT2D(g,MAXVCOUNT,MAXCOORD);

	push	6
	mov	DWORD PTR _e_info$GSCopy$[ebp], eax
	shl	esi, 5
	add	esi, DWORD PTR _gauss_lagrange[ecx*4]
	push	100					; 00000064H
	lea	eax, DWORD PTR _gxJ$[ebp]
	push	eax
	lea	ecx, DWORD PTR _gqXvS$[ebp]
	push	ecx
	mov	DWORD PTR _ctrl$[ebp], ebx
	mov	DWORD PTR _u$[ebp], edx
	call	_mat2d_setup

; 1735 : 
; 1736 :   x = e_info->x;
; 1737 :   for ( i = 0 ; i < ctrl ; i++ )

	fldz
	mov	edx, DWORD PTR _web+616
	add	esp, 16					; 00000010H
	xor	edi, edi
	mov	DWORD PTR _g$[ebp], eax
	test	ebx, ebx
	jle	SHORT $LN58@q_edge_tor@5
$LN54@q_edge_tor@5:

; 1738 :      for ( j = 0 ; j < SDIM ; j++ ) g[i][j] = 0.0;

	xor	ecx, ecx
	test	edx, edx
	jle	SHORT $LN20@q_edge_tor@5

; 1735 : 
; 1736 :   x = e_info->x;
; 1737 :   for ( i = 0 ; i < ctrl ; i++ )

	mov	edx, DWORD PTR _g$[ebp]
	mov	eax, DWORD PTR [edx+edi*4]
$LN18@q_edge_tor@5:

; 1738 :      for ( j = 0 ; j < SDIM ; j++ ) g[i][j] = 0.0;

	fst	QWORD PTR [eax]
	mov	edx, DWORD PTR _web+616
	inc	ecx
	add	eax, 8
	cmp	ecx, edx
	jl	SHORT $LN18@q_edge_tor@5
$LN20@q_edge_tor@5:

; 1735 : 
; 1736 :   x = e_info->x;
; 1737 :   for ( i = 0 ; i < ctrl ; i++ )

	inc	edi
	cmp	edi, ebx
	jl	SHORT $LN54@q_edge_tor@5
$LN58@q_edge_tor@5:

; 1739 : 
; 1740 :   /* get affine coordinates of vertices */
; 1741 :   mat_mul_tr(x,web.inverse_periods,u,edge_ctrl,SDIM,SDIM);

	mov	eax, DWORD PTR _edge_ctrl
	fstp	ST(0)
	mov	ecx, DWORD PTR _u$[ebp]
	push	edx
	push	edx
	mov	edx, DWORD PTR _web+1612
	push	eax
	mov	eax, DWORD PTR _e_info$GSCopy$[ebp]
	push	ecx
	push	edx
	add	eax, 416				; 000001a0H
	push	eax
	call	_mat_mul_tr

; 1742 : 
; 1743 :   /* main integral over edge */
; 1744 :   area = 0.0;

	fldz

; 1745 :   for ( m = 0 ; m < gl->gnumpts ; m++ )

	xor	eax, eax
	fld	ST(0)
	add	esp, 24					; 00000018H
	fst	QWORD PTR _area$[ebp]
	cmp	DWORD PTR [esi+4], eax
	jle	$LN67@q_edge_tor@5
$LN55@q_edge_tor@5:

; 1746 :   { REAL y,dx;
; 1747 :      for ( y = 0.0, dx = 0.0, k = 0 ; k < ctrl ; k++ )

	xor	ecx, ecx
	fld	ST(1)
	fld	ST(2)
	cmp	ebx, 4
	jl	$LC45@q_edge_tor@5
	mov	ecx, DWORD PTR [esi+20]
	mov	edi, DWORD PTR [ecx+eax*4]
	mov	edx, DWORD PTR [esi+24]
	mov	ecx, DWORD PTR [edx+eax*4]
	mov	ebx, DWORD PTR [ecx]
	lea	ecx, DWORD PTR [edi+16]
	lea	edx, DWORD PTR [ebx+24]

; 1749 :         dx += gl->gpolypart[m][0][k]*u[k][0];

	sub	ebx, edi
	mov	edi, DWORD PTR _ctrl$[ebp]
	add	edi, -4					; fffffffcH
	shr	edi, 2
	inc	edi
	mov	DWORD PTR tv2021[ebp], edx
	mov	edx, DWORD PTR _u$[ebp]
	mov	DWORD PTR tv653[ebp], edi
	add	edi, edi
	add	edx, 8
	add	edi, edi
	mov	DWORD PTR _k$[ebp], edi
	mov	edi, DWORD PTR tv2021[ebp]
	mov	DWORD PTR tv2130[ebp], ebx
$LN46@q_edge_tor@5:

; 1748 :      { y += gl->gpoly[m][k]*u[k][1];

	mov	ebx, DWORD PTR [edx-8]
	fld	QWORD PTR [ecx-16]
	fmul	QWORD PTR [ebx+8]
	mov	ebx, DWORD PTR [edx-4]

; 1749 :         dx += gl->gpolypart[m][0][k]*u[k][0];

	add	ecx, 32					; 00000020H
	add	edi, 32					; 00000020H
	faddp	ST(2), ST(0)
	add	edx, 16					; 00000010H
	dec	DWORD PTR tv653[ebp]
	fld	QWORD PTR [ecx-40]
	fmul	QWORD PTR [ebx+8]
	mov	ebx, DWORD PTR [edx-16]
	faddp	ST(2), ST(0)
	fld	QWORD PTR [ebx+8]
	mov	ebx, DWORD PTR [edx-12]
	fmul	QWORD PTR [ecx-32]
	faddp	ST(2), ST(0)
	fld	QWORD PTR [ecx-24]
	fmul	QWORD PTR [ebx+8]
	mov	ebx, DWORD PTR [edx-24]
	faddp	ST(2), ST(0)
	fld	QWORD PTR [edi-56]
	fmul	QWORD PTR [ebx]
	mov	ebx, DWORD PTR [edx-20]
	faddp	ST(1), ST(0)
	fld	QWORD PTR [edi-48]
	fmul	QWORD PTR [ebx]
	mov	ebx, DWORD PTR tv2130[ebp]
	faddp	ST(1), ST(0)
	fld	QWORD PTR [ecx+ebx-32]
	mov	ebx, DWORD PTR [edx-16]
	fmul	QWORD PTR [ebx]
	mov	ebx, DWORD PTR [edx-12]
	faddp	ST(1), ST(0)
	fld	QWORD PTR [edi-32]
	fmul	QWORD PTR [ebx]
	faddp	ST(1), ST(0)
	jne	SHORT $LN46@q_edge_tor@5

; 1746 :   { REAL y,dx;
; 1747 :      for ( y = 0.0, dx = 0.0, k = 0 ; k < ctrl ; k++ )

	mov	ebx, DWORD PTR _ctrl$[ebp]
	mov	ecx, DWORD PTR _k$[ebp]
$LC45@q_edge_tor@5:
	cmp	ecx, ebx
	jge	SHORT $LN53@q_edge_tor@5
	mov	edx, DWORD PTR [esi+24]
	mov	edx, DWORD PTR [edx+eax*4]
	mov	edi, DWORD PTR [edx]
	lea	edx, DWORD PTR [edi+ecx*8]
	mov	DWORD PTR tv2290[ebp], edx
	mov	edx, DWORD PTR [esi+20]
	mov	edx, DWORD PTR [edx+eax*4]
	sub	edx, edi
	mov	edi, DWORD PTR tv2290[ebp]
	mov	DWORD PTR tv2321[ebp], edx
	jmp	SHORT $LC12@q_edge_tor@5
$LN52@q_edge_tor@5:
	mov	edx, DWORD PTR tv2321[ebp]
$LC12@q_edge_tor@5:

; 1748 :      { y += gl->gpoly[m][k]*u[k][1];

	fld	QWORD PTR [edx+edi]
	mov	edx, DWORD PTR _u$[ebp]
	mov	edx, DWORD PTR [edx+ecx*4]
	fmul	QWORD PTR [edx+8]
	inc	ecx
	add	edi, 8
	faddp	ST(2), ST(0)

; 1749 :         dx += gl->gpolypart[m][0][k]*u[k][0];

	fld	QWORD PTR [edi-8]
	fmul	QWORD PTR [edx]
	faddp	ST(1), ST(0)
	cmp	ecx, ebx
	jl	SHORT $LN52@q_edge_tor@5
$LN53@q_edge_tor@5:

; 1750 :      }
; 1751 :      area -= gl->gausswt[m]*y*dx;

	mov	ecx, DWORD PTR [esi+12]
	fld	QWORD PTR [ecx+eax*8]

; 1752 : 
; 1753 :      for ( k = 0 ; k < ctrl ; k++ )

	xor	ecx, ecx
	fmul	ST(0), ST(2)
	fmul	ST(0), ST(1)
	fsubp	ST(3), ST(0)
	cmp	ebx, 4
	jl	$LC48@q_edge_tor@5

; 1750 :      }
; 1751 :      area -= gl->gausswt[m]*y*dx;

	mov	edx, DWORD PTR _g$[ebp]
	add	edx, 8

; 1752 : 
; 1753 :      for ( k = 0 ; k < ctrl ; k++ )

$LN49@q_edge_tor@5:

; 1754 :      { g[k][0] -= gl->gausswt[m]*y*gl->gpolypart[m][0][k];

	mov	ebx, DWORD PTR [esi+12]
	fld	QWORD PTR [ebx+eax*8]
	mov	edi, DWORD PTR [esi+24]
	mov	edi, DWORD PTR [edi+eax*4]
	fmul	ST(0), ST(2)
	mov	edi, DWORD PTR [edi]

; 1755 :         g[k][1] -= gl->gausswt[m]*dx*gl->gpoly[m][k];

	add	ecx, 4
	fmul	QWORD PTR [edi+ecx*8-32]
	mov	edi, DWORD PTR [edx-8]
	add	edx, 16					; 00000010H
	fsubr	QWORD PTR [edi]
	fstp	QWORD PTR [edi]
	mov	ebx, DWORD PTR [esi+12]
	fld	QWORD PTR [ebx+eax*8]
	mov	edi, DWORD PTR [esi+20]
	mov	edi, DWORD PTR [edi+eax*4]
	fmul	ST(0), ST(1)
	fmul	QWORD PTR [edi+ecx*8-32]
	mov	edi, DWORD PTR [edx-24]
	fsubr	QWORD PTR [edi+8]
	fstp	QWORD PTR [edi+8]
	mov	ebx, DWORD PTR [esi+12]
	fld	QWORD PTR [ebx+eax*8]
	mov	edi, DWORD PTR [esi+24]
	mov	edi, DWORD PTR [edi+eax*4]
	fmul	ST(0), ST(2)
	mov	edi, DWORD PTR [edi]
	fmul	QWORD PTR [edi+ecx*8-24]
	mov	edi, DWORD PTR [edx-20]
	fsubr	QWORD PTR [edi]
	fstp	QWORD PTR [edi]
	mov	ebx, DWORD PTR [esi+12]
	fld	QWORD PTR [ebx+eax*8]
	mov	edi, DWORD PTR [esi+20]
	mov	edi, DWORD PTR [edi+eax*4]
	fmul	ST(0), ST(1)
	fmul	QWORD PTR [edi+ecx*8-24]
	mov	edi, DWORD PTR [edx-20]
	fsubr	QWORD PTR [edi+8]
	fstp	QWORD PTR [edi+8]
	mov	ebx, DWORD PTR [esi+12]
	fld	QWORD PTR [ebx+eax*8]
	mov	edi, DWORD PTR [esi+24]
	mov	edi, DWORD PTR [edi+eax*4]
	fmul	ST(0), ST(2)
	mov	edi, DWORD PTR [edi]
	fmul	QWORD PTR [edi+ecx*8-16]
	mov	edi, DWORD PTR [edx-16]
	fsubr	QWORD PTR [edi]
	fstp	QWORD PTR [edi]
	mov	ebx, DWORD PTR [esi+12]
	fld	QWORD PTR [ebx+eax*8]
	mov	ebx, DWORD PTR [esi+20]
	mov	ebx, DWORD PTR [ebx+eax*4]
	fmul	ST(0), ST(1)
	fmul	QWORD PTR [ebx+ecx*8-16]
	fsubr	QWORD PTR [edi+8]
	fstp	QWORD PTR [edi+8]
	mov	ebx, DWORD PTR [esi+12]
	fld	QWORD PTR [ebx+eax*8]
	mov	edi, DWORD PTR [esi+24]
	mov	edi, DWORD PTR [edi+eax*4]
	fmul	ST(0), ST(2)
	mov	edi, DWORD PTR [edi]
	fmul	QWORD PTR [edi+ecx*8-8]
	mov	edi, DWORD PTR [edx-12]
	fsubr	QWORD PTR [edi]
	fstp	QWORD PTR [edi]
	mov	ebx, DWORD PTR [esi+12]
	fld	QWORD PTR [ebx+eax*8]
	mov	edi, DWORD PTR [esi+20]
	mov	edi, DWORD PTR [edi+eax*4]
	fmul	ST(0), ST(1)
	mov	ebx, DWORD PTR _ctrl$[ebp]
	fmul	QWORD PTR [edi+ecx*8-8]
	mov	edi, DWORD PTR [edx-12]
	fsubr	QWORD PTR [edi+8]
	fstp	QWORD PTR [edi+8]
	lea	edi, DWORD PTR [ebx-3]
	cmp	ecx, edi
	jl	$LN49@q_edge_tor@5
$LC48@q_edge_tor@5:

; 1752 : 
; 1753 :      for ( k = 0 ; k < ctrl ; k++ )

	cmp	ecx, ebx
	jge	SHORT $LN86@q_edge_tor@5
$LC9@q_edge_tor@5:

; 1754 :      { g[k][0] -= gl->gausswt[m]*y*gl->gpolypart[m][0][k];

	mov	edi, DWORD PTR [esi+12]
	fld	QWORD PTR [edi+eax*8]
	mov	edx, DWORD PTR [esi+24]
	mov	edx, DWORD PTR [edx+eax*4]
	fmul	ST(0), ST(2)
	mov	edx, DWORD PTR [edx]
	inc	ecx
	fmul	QWORD PTR [edx+ecx*8-8]
	mov	edx, DWORD PTR _g$[ebp]
	mov	edx, DWORD PTR [edx+ecx*4-4]
	fsubr	QWORD PTR [edx]
	fstp	QWORD PTR [edx]

; 1755 :         g[k][1] -= gl->gausswt[m]*dx*gl->gpoly[m][k];

	mov	edi, DWORD PTR [esi+12]
	fld	QWORD PTR [edi+eax*8]
	mov	edx, DWORD PTR [esi+20]
	mov	edx, DWORD PTR [edx+eax*4]
	fmul	ST(0), ST(1)
	fmul	QWORD PTR [edx+ecx*8-8]
	mov	edx, DWORD PTR _g$[ebp]
	mov	edx, DWORD PTR [edx+ecx*4-4]
	fsubr	QWORD PTR [edx+8]
	fstp	QWORD PTR [edx+8]
	cmp	ecx, ebx
	jl	SHORT $LC9@q_edge_tor@5
$LN86@q_edge_tor@5:

; 1745 :   for ( m = 0 ; m < gl->gnumpts ; m++ )

	inc	eax

; 1752 : 
; 1753 :      for ( k = 0 ; k < ctrl ; k++ )

	fstp	ST(1)
	fstp	ST(0)
	cmp	eax, DWORD PTR [esi+4]
	jl	$LN55@q_edge_tor@5

; 1750 :      }
; 1751 :      area -= gl->gausswt[m]*y*dx;

	fstp	ST(1)
	fst	QWORD PTR _area$[ebp]
	jmp	SHORT $LN13@q_edge_tor@5
$LN67@q_edge_tor@5:
	fstp	ST(1)
$LN13@q_edge_tor@5:

; 1756 :      }
; 1757 :   }
; 1758 : 
; 1759 :   /* wrap correction */
; 1760 :   wrap = (get_edge_wrap(e_info->id)>>TWRAPBITS) & WRAPMASK;

	mov	eax, DWORD PTR _e_info$GSCopy$[ebp]
	mov	ecx, DWORD PTR [eax]
	mov	eax, DWORD PTR _web+124
	mov	esi, DWORD PTR _dymem
	mov	edx, ecx
	and	edx, 134217727				; 07ffffffH
	mov	edx, DWORD PTR [eax+edx*4]
	mov	eax, DWORD PTR _web+216
	mov	eax, DWORD PTR [eax+esi+784]
	mov	eax, DWORD PTR [edx+eax]
	test	ecx, 134217728				; 08000000H
	je	SHORT $LN28@q_edge_tor@5
	push	eax
	fstp	ST(0)
	call	DWORD PTR _sym_inverse
	fld	QWORD PTR _area$[ebp]
	add	esp, 4
$LN28@q_edge_tor@5:
	sar	eax, 6
	and	eax, 31					; 0000001fH

; 1761 :   wrapnum = WRAPNUM(wrap);

	cmp	eax, 16					; 00000010H
	jle	SHORT $LN24@q_edge_tor@5
	add	eax, -32				; ffffffe0H
$LN24@q_edge_tor@5:

; 1762 :   area += wrapnum*u[ctrl-1][0]; 

	mov	ecx, DWORD PTR _u$[ebp]
	mov	edx, DWORD PTR [ecx+ebx*4-4]

; 1763 :   g[ctrl-1][0] += wrapnum;

	mov	edi, DWORD PTR _g$[ebp]
	mov	DWORD PTR _wrapnum$[ebp], eax
	fild	DWORD PTR _wrapnum$[ebp]
	mov	eax, DWORD PTR [edi+ebx*4-4]
	fld	QWORD PTR [edx]

; 1764 : 
; 1765 :   for ( k = 0 ; k < ctrl ; k++ )

	xor	esi, esi
	fmul	ST(0), ST(1)
	faddp	ST(2), ST(0)
	fxch	ST(1)
	fstp	QWORD PTR _area$[ebp]
	fadd	QWORD PTR [eax]
	fstp	QWORD PTR [eax]
	mov	edx, DWORD PTR _web+616
	test	ebx, ebx
	jle	SHORT $LN4@q_edge_tor@5
$LL56@q_edge_tor@5:

; 1766 :     for ( j = 0 ; j < SDIM ; j++ )

	xor	ecx, ecx
	test	edx, edx
	jle	SHORT $LN5@q_edge_tor@5

; 1764 : 
; 1765 :   for ( k = 0 ; k < ctrl ; k++ )

	mov	eax, DWORD PTR [edi+esi*4]
	npad	7
$LL3@q_edge_tor@5:

; 1767 :       g[k][j] *= web.torusv;

	fld	QWORD PTR _web+1600
	inc	ecx
	fmul	QWORD PTR [eax]
	add	eax, 8
	fstp	QWORD PTR [eax-8]
	mov	edx, DWORD PTR _web+616
	cmp	ecx, edx
	jl	SHORT $LL3@q_edge_tor@5
$LN5@q_edge_tor@5:

; 1764 : 
; 1765 :   for ( k = 0 ; k < ctrl ; k++ )

	inc	esi
	cmp	esi, ebx
	jl	SHORT $LL56@q_edge_tor@5
$LN4@q_edge_tor@5:

; 1768 :   mat_mult(g,web.inverse_periods,e_info->grad,ctrl,SDIM,SDIM);

	mov	eax, DWORD PTR _e_info$GSCopy$[ebp]
	mov	ecx, DWORD PTR [eax+1336]
	push	edx
	push	edx
	mov	edx, DWORD PTR _web+1612
	push	ebx
	push	ecx
	push	edx
	push	edi
	call	_mat_mult

; 1769 :   return area*web.torusv;

	fld	QWORD PTR _web+1600

; 1770 : } // end q_edge_torus_area_lagrange_grad()

	mov	ecx, DWORD PTR __$ArrayPad$[ebp]
	fmul	QWORD PTR _area$[ebp]
	add	esp, 24					; 00000018H
	pop	edi
	pop	esi
	xor	ecx, ebp
	pop	ebx
	call	@__security_check_cookie@4
	mov	esp, ebp
	pop	ebp
	ret	0
_q_edge_torus_area_lagrange_grad ENDP
_TEXT	ENDS
PUBLIC	_e_info$GSCopy$
PUBLIC	__$ArrayPad$
PUBLIC	_q_edge_torus_area_lagrange_hess
; Function compile flags: /Ogtp
;	COMDAT _q_edge_torus_area_lagrange_hess
_TEXT	SEGMENT
_gqXvS$ = -5568						; size = 400
_temphqXvS$ = -5168					; size = 24
_h$ = -5144						; size = 4
_temph$ = -5140						; size = 4
_kk$ = -5136						; size = 4
_u$ = -5132						; size = 4
_ctrl$ = -5128						; size = 4
_e_info$GSCopy$ = -5124					; size = 4
_g$ = -5120						; size = 4
_area$ = -5116						; size = 8
tv5132 = -5112						; size = 4
tv5084 = -5112						; size = 4
tv4375 = -5112						; size = 4
tv4178 = -5112						; size = 4
tv4612 = -5108						; size = 4
tv1561 = -5108						; size = 4
tv4647 = -5104						; size = 4
tv3557 = -5104						; size = 4
tv3366 = -5104						; size = 4
_wrapnum$ = -5104					; size = 4
_k$ = -5100						; size = 4
tv4354 = -5096						; size = 4
tv4025 = -5096						; size = 4
tv3257 = -5096						; size = 4
_gxJ$ = -5092						; size = 4800
_temphxJ$ = -292					; size = 288
__$ArrayPad$ = -4					; size = 4
_e_info$ = 8						; size = 4
_q_edge_torus_area_lagrange_hess PROC			; COMDAT

; 1781 : { REAL **x,****h;

	push	ebp
	mov	ebp, esp
	mov	eax, 5568				; 000015c0H
	call	__chkstk
	mov	eax, DWORD PTR ___security_cookie
	xor	eax, ebp
	mov	DWORD PTR __$ArrayPad$[ebp], eax

; 1782 :   REAL area;
; 1783 :   int i,ii,j;
; 1784 :   int m,k,kk;
; 1785 :   struct gauss_lag *gl = &gauss_lagrange[web.dimension][web.gauss1D_order];

	mov	eax, DWORD PTR _web+620
	push	ebx

; 1786 :   int ctrl = web.skel[EDGE].ctrlpts;

	mov	ebx, DWORD PTR _web+120
	push	esi
	mov	esi, DWORD PTR _web+1592
	push	edi
	mov	edi, DWORD PTR _e_info$[ebp]

; 1787 :   REAL **u = e_info->u;

	mov	ecx, DWORD PTR [edi+1220]

; 1788 :   int wrap,wrapnum;
; 1789 :   MAT2D(temph,MAXCOORD,MAXCOORD);

	push	6
	shl	esi, 5
	add	esi, DWORD PTR _gauss_lagrange[eax*4]
	push	6
	lea	edx, DWORD PTR _temphxJ$[ebp]
	push	edx
	lea	eax, DWORD PTR _temphqXvS$[ebp]
	push	eax
	mov	DWORD PTR _e_info$GSCopy$[ebp], edi
	mov	DWORD PTR _ctrl$[ebp], ebx
	mov	DWORD PTR _u$[ebp], ecx
	call	_mat2d_setup

; 1790 :   MAT2D(g,MAXVCOUNT,MAXCOORD);

	push	6
	push	100					; 00000064H
	lea	ecx, DWORD PTR _gxJ$[ebp]
	push	ecx
	lea	edx, DWORD PTR _gqXvS$[ebp]
	push	edx
	mov	DWORD PTR _temph$[ebp], eax
	call	_mat2d_setup

; 1791 : 
; 1792 :   x = e_info->x;
; 1793 :   h = e_info->hess;
; 1794 :   for ( i = 0 ; i < ctrl ; i++ )

	fldz
	mov	edx, DWORD PTR _web+616
	mov	DWORD PTR _g$[ebp], eax
	mov	eax, DWORD PTR [edi+1340]
	add	esp, 32					; 00000020H
	xor	edi, edi
	mov	DWORD PTR _h$[ebp], eax
	test	ebx, ebx
	jle	SHORT $LN75@q_edge_tor@6
$LN70@q_edge_tor@6:

; 1795 :      for ( j = 0 ; j < SDIM ; j++ ) g[i][j] = 0.0;

	xor	ecx, ecx
	test	edx, edx
	jle	SHORT $LN29@q_edge_tor@6

; 1791 : 
; 1792 :   x = e_info->x;
; 1793 :   h = e_info->hess;
; 1794 :   for ( i = 0 ; i < ctrl ; i++ )

	mov	edx, DWORD PTR _g$[ebp]
	mov	eax, DWORD PTR [edx+edi*4]
$LN27@q_edge_tor@6:

; 1795 :      for ( j = 0 ; j < SDIM ; j++ ) g[i][j] = 0.0;

	fst	QWORD PTR [eax]
	mov	edx, DWORD PTR _web+616
	inc	ecx
	add	eax, 8
	cmp	ecx, edx
	jl	SHORT $LN27@q_edge_tor@6
$LN29@q_edge_tor@6:

; 1791 : 
; 1792 :   x = e_info->x;
; 1793 :   h = e_info->hess;
; 1794 :   for ( i = 0 ; i < ctrl ; i++ )

	inc	edi
	cmp	edi, ebx
	jl	SHORT $LN70@q_edge_tor@6
$LN75@q_edge_tor@6:

; 1796 : 
; 1797 :   /* get affine coordinates of vertices */
; 1798 :   mat_mul_tr(x,web.inverse_periods,u,edge_ctrl,SDIM,SDIM);

	mov	eax, DWORD PTR _edge_ctrl
	fstp	ST(0)
	mov	ecx, DWORD PTR _u$[ebp]
	push	edx
	push	edx
	mov	edx, DWORD PTR _web+1612
	push	eax
	mov	eax, DWORD PTR _e_info$GSCopy$[ebp]
	push	ecx
	push	edx
	add	eax, 416				; 000001a0H
	push	eax
	call	_mat_mul_tr

; 1799 : 
; 1800 :   /* main integral over edge */
; 1801 :   area = 0.0;

	fldz

; 1802 :   for ( m = 0 ; m < gl->gnumpts ; m++ )

	xor	eax, eax
	fld	ST(0)
	add	esp, 24					; 00000018H
	fst	QWORD PTR _area$[ebp]
	cmp	DWORD PTR [esi+4], eax
	jle	$LN84@q_edge_tor@6
$LN67@q_edge_tor@6:

; 1803 :   { REAL y,dx;
; 1804 :      for ( y = 0.0, dx = 0.0, k = 0 ; k < ctrl ; k++ )

	xor	ecx, ecx
	fld	ST(1)
	fld	ST(2)
	mov	DWORD PTR _k$[ebp], ecx
	cmp	ebx, 4
	jl	$LC60@q_edge_tor@6
	mov	ecx, DWORD PTR [esi+20]
	mov	ebx, DWORD PTR [ecx+eax*4]
	mov	edx, DWORD PTR [esi+24]
	mov	ecx, DWORD PTR [edx+eax*4]
	mov	edi, DWORD PTR [ecx]
	lea	edx, DWORD PTR [edi+24]

; 1806 :         dx += gl->gpolypart[m][0][k]*u[k][0];

	sub	edi, ebx
	mov	DWORD PTR tv3366[ebp], edi
	lea	ecx, DWORD PTR [ebx+16]
	mov	ebx, DWORD PTR _ctrl$[ebp]
	lea	edi, DWORD PTR [ebx-4]
	shr	edi, 2
	inc	edi
	mov	DWORD PTR tv3257[ebp], edx
	mov	edx, DWORD PTR _u$[ebp]
	mov	DWORD PTR tv1561[ebp], edi
	add	edi, edi
	add	edx, 8
	add	edi, edi
	mov	DWORD PTR _k$[ebp], edi
$LN61@q_edge_tor@6:

; 1805 :      { y += gl->gpoly[m][k]*u[k][1];

	mov	edi, DWORD PTR [edx-8]
	fld	QWORD PTR [edi+8]
	mov	edi, DWORD PTR [edx-4]
	fmul	QWORD PTR [ecx-16]

; 1806 :         dx += gl->gpolypart[m][0][k]*u[k][0];

	add	ecx, 32					; 00000020H
	add	edx, 16					; 00000010H
	faddp	ST(2), ST(0)
	fld	QWORD PTR [edi+8]
	mov	edi, DWORD PTR [edx-16]
	fmul	QWORD PTR [ecx-40]
	faddp	ST(2), ST(0)
	fld	QWORD PTR [edi+8]
	mov	edi, DWORD PTR [edx-12]
	fmul	QWORD PTR [ecx-32]
	faddp	ST(2), ST(0)
	fld	QWORD PTR [edi+8]
	mov	edi, DWORD PTR tv3257[ebp]
	fmul	QWORD PTR [ecx-24]
	faddp	ST(2), ST(0)
	fld	QWORD PTR [edi-24]
	mov	edi, DWORD PTR [edx-24]
	fmul	QWORD PTR [edi]
	mov	edi, DWORD PTR tv3257[ebp]
	faddp	ST(1), ST(0)
	fld	QWORD PTR [edi-16]
	mov	edi, DWORD PTR [edx-20]
	fmul	QWORD PTR [edi]
	mov	edi, DWORD PTR tv3366[ebp]
	faddp	ST(1), ST(0)
	fld	QWORD PTR [edi+ecx-32]
	mov	edi, DWORD PTR [edx-16]
	fmul	QWORD PTR [edi]
	mov	edi, DWORD PTR tv3257[ebp]
	add	DWORD PTR tv3257[ebp], 32		; 00000020H
	dec	DWORD PTR tv1561[ebp]
	faddp	ST(1), ST(0)
	fld	QWORD PTR [edi]
	mov	edi, DWORD PTR [edx-12]
	fmul	QWORD PTR [edi]
	faddp	ST(1), ST(0)
	jne	$LN61@q_edge_tor@6

; 1803 :   { REAL y,dx;
; 1804 :      for ( y = 0.0, dx = 0.0, k = 0 ; k < ctrl ; k++ )

	mov	ecx, DWORD PTR _k$[ebp]
$LC60@q_edge_tor@6:
	cmp	ecx, ebx
	jge	SHORT $LN59@q_edge_tor@6
	mov	edx, DWORD PTR [esi+24]
	mov	edx, DWORD PTR [edx+eax*4]
	mov	edx, DWORD PTR [edx]
	mov	edi, DWORD PTR [esi+20]
	mov	edi, DWORD PTR [edi+eax*4]
	sub	edi, edx
	lea	ecx, DWORD PTR [edx+ecx*8]
	mov	edx, DWORD PTR _k$[ebp]
	mov	DWORD PTR tv3557[ebp], edi
$LC21@q_edge_tor@6:

; 1805 :      { y += gl->gpoly[m][k]*u[k][1];

	mov	edi, DWORD PTR _u$[ebp]
	mov	edx, DWORD PTR [edi+edx*4]
	mov	edi, DWORD PTR tv3557[ebp]
	fld	QWORD PTR [edi+ecx]
	add	ecx, 8
	fmul	QWORD PTR [edx+8]
	faddp	ST(2), ST(0)

; 1806 :         dx += gl->gpolypart[m][0][k]*u[k][0];

	fld	QWORD PTR [ecx-8]
	fmul	QWORD PTR [edx]
	mov	edx, DWORD PTR _k$[ebp]
	inc	edx
	mov	DWORD PTR _k$[ebp], edx
	faddp	ST(1), ST(0)
	cmp	edx, ebx
	jl	SHORT $LC21@q_edge_tor@6
$LN59@q_edge_tor@6:

; 1807 :      }
; 1808 :      area -= gl->gausswt[m]*y*dx;

	mov	ecx, DWORD PTR [esi+12]
	fld	QWORD PTR [ecx+eax*8]

; 1809 :      for ( k = 0 ; k < ctrl ; k++ )

	xor	edi, edi
	fmul	ST(0), ST(2)
	mov	DWORD PTR _k$[ebp], edi
	fmul	ST(0), ST(1)
	fsubp	ST(3), ST(0)
	test	ebx, ebx
	jle	$LN110@q_edge_tor@6
	mov	edx, DWORD PTR _g$[ebp]
	mov	ecx, DWORD PTR _h$[ebp]
	sub	ecx, edx
	mov	DWORD PTR tv4612[ebp], edx
	mov	DWORD PTR tv4647[ebp], ecx
$LN18@q_edge_tor@6:

; 1810 :      { g[k][0] -= gl->gausswt[m]*y*gl->gpolypart[m][0][k];

	mov	ecx, DWORD PTR [esi+24]
	mov	edx, DWORD PTR [ecx+eax*4]
	mov	ecx, DWORD PTR [edx]
	mov	edx, DWORD PTR [esi+12]
	fld	QWORD PTR [edx+eax*8]
	fmul	ST(0), ST(2)
	fmul	QWORD PTR [ecx+edi*8]
	mov	ecx, DWORD PTR tv4612[ebp]
	mov	ecx, DWORD PTR [ecx]
	fsubr	QWORD PTR [ecx]
	fstp	QWORD PTR [ecx]

; 1811 :         g[k][1] -= gl->gausswt[m]*dx*gl->gpoly[m][k];

	mov	edx, DWORD PTR [esi+12]
	fld	QWORD PTR [edx+eax*8]
	mov	edx, DWORD PTR [esi+20]
	mov	edx, DWORD PTR [edx+eax*4]
	fmul	ST(0), ST(1)
	fmul	QWORD PTR [edx+edi*8]
	fsubr	QWORD PTR [ecx+8]
	fstp	QWORD PTR [ecx+8]

; 1812 :         for ( kk = 0 ; kk < ctrl ; kk++ )

	xor	ecx, ecx
	mov	DWORD PTR _kk$[ebp], ecx
	cmp	ebx, 4
	jl	$LN68@q_edge_tor@6

; 1810 :      { g[k][0] -= gl->gausswt[m]*y*gl->gpolypart[m][0][k];

	mov	edx, DWORD PTR tv4647[ebp]
	mov	edi, DWORD PTR tv4612[ebp]
	mov	edx, DWORD PTR [edx+edi]
	add	edx, 8
	mov	DWORD PTR tv4025[ebp], edx

; 1812 :         for ( kk = 0 ; kk < ctrl ; kk++ )

$LN64@q_edge_tor@6:

; 1813 :         { h[k][kk][0][1] -= gl->gausswt[m]*gl->gpoly[m][kk]*gl->gpolypart[m][0][k];

	mov	edi, DWORD PTR [edx-8]
	mov	edi, DWORD PTR [edi]
	mov	DWORD PTR tv5084[ebp], edi
	mov	edi, DWORD PTR [esi+20]
	mov	edi, DWORD PTR [edi+eax*4]
	fld	QWORD PTR [edi+ecx*8]
	mov	ebx, DWORD PTR [esi+12]
	fmul	QWORD PTR [ebx+eax*8]
	mov	edi, DWORD PTR [esi+24]
	mov	edi, DWORD PTR [edi+eax*4]
	mov	edi, DWORD PTR [edi]
	mov	ebx, DWORD PTR _k$[ebp]
	fmul	QWORD PTR [edi+ebx*8]
	mov	edi, DWORD PTR tv5084[ebp]
	fsubr	QWORD PTR [edi+8]
	fstp	QWORD PTR [edi+8]

; 1814 :           h[k][kk][1][0] -= gl->gausswt[m]*gl->gpolypart[m][0][kk]*gl->gpoly[m][k];

	mov	edi, DWORD PTR [edx-8]
	mov	edi, DWORD PTR [edi+4]
	mov	ebx, DWORD PTR [esi+12]
	mov	DWORD PTR tv4178[ebp], edi
	mov	edi, DWORD PTR [esi+24]
	mov	edi, DWORD PTR [edi+eax*4]
	mov	edi, DWORD PTR [edi]
	fld	QWORD PTR [edi+ecx*8]
	mov	edi, DWORD PTR [esi+20]
	fmul	QWORD PTR [ebx+eax*8]
	mov	edi, DWORD PTR [edi+eax*4]
	mov	ebx, DWORD PTR _k$[ebp]
	mov	edx, DWORD PTR [edx-4]
	fmul	QWORD PTR [edi+ebx*8]
	mov	edi, DWORD PTR tv4178[ebp]
	mov	edx, DWORD PTR [edx]
	fsubr	QWORD PTR [edi]
	fstp	QWORD PTR [edi]
	mov	edi, DWORD PTR [esi+20]
	mov	edi, DWORD PTR [edi+eax*4]
	fld	QWORD PTR [edi+ecx*8+8]
	mov	ebx, DWORD PTR [esi+12]
	fmul	QWORD PTR [ebx+eax*8]
	mov	edi, DWORD PTR [esi+24]
	mov	edi, DWORD PTR [edi+eax*4]
	mov	edi, DWORD PTR [edi]
	mov	ebx, DWORD PTR _k$[ebp]
	fmul	QWORD PTR [edi+ebx*8]
	fsubr	QWORD PTR [edx+8]
	mov	edx, DWORD PTR tv4025[ebp]
	mov	edx, DWORD PTR [edx-4]
	mov	edi, DWORD PTR [edx]
	mov	edx, DWORD PTR [edx+4]
	fstp	QWORD PTR [edi+8]
	mov	edi, DWORD PTR [esi+24]
	mov	edi, DWORD PTR [edi+eax*4]
	mov	edi, DWORD PTR [edi]
	fld	QWORD PTR [edi+ecx*8+8]
	mov	ebx, DWORD PTR [esi+12]
	fmul	QWORD PTR [ebx+eax*8]
	mov	edi, DWORD PTR [esi+20]
	mov	edi, DWORD PTR [edi+eax*4]
	mov	ebx, DWORD PTR _k$[ebp]
	fmul	QWORD PTR [edi+ebx*8]
	mov	edi, DWORD PTR tv4025[ebp]
	lea	ecx, DWORD PTR [ecx*8+24]
	fsubr	QWORD PTR [edx]
	mov	edx, DWORD PTR [edi-4]
	mov	edx, DWORD PTR [edx+4]
	fstp	QWORD PTR [edx]
	mov	edx, DWORD PTR [edi]
	mov	edi, DWORD PTR [esi+20]
	mov	edi, DWORD PTR [edi+eax*4]
	fld	QWORD PTR [edi+ecx-8]
	mov	ebx, DWORD PTR [esi+12]
	fmul	QWORD PTR [ebx+eax*8]
	mov	edi, DWORD PTR [esi+24]
	mov	edi, DWORD PTR [edi+eax*4]
	mov	edi, DWORD PTR [edi]
	mov	ebx, DWORD PTR _k$[ebp]
	mov	edx, DWORD PTR [edx]
	fmul	QWORD PTR [edi+ebx*8]
	fsubr	QWORD PTR [edx+8]
	mov	edx, DWORD PTR tv4025[ebp]
	mov	edx, DWORD PTR [edx]

; 1813 :         { h[k][kk][0][1] -= gl->gausswt[m]*gl->gpoly[m][kk]*gl->gpolypart[m][0][k];

	mov	edi, DWORD PTR [edx]
	fstp	QWORD PTR [edi+8]

; 1814 :           h[k][kk][1][0] -= gl->gausswt[m]*gl->gpolypart[m][0][kk]*gl->gpoly[m][k];

	mov	edi, DWORD PTR [esi+24]
	mov	edi, DWORD PTR [edi+eax*4]
	mov	edi, DWORD PTR [edi]
	fld	QWORD PTR [edi+ecx-8]
	mov	ebx, DWORD PTR [esi+12]
	fmul	QWORD PTR [ebx+eax*8]
	mov	edx, DWORD PTR [edx+4]
	mov	edi, DWORD PTR [esi+20]
	mov	edi, DWORD PTR [edi+eax*4]
	mov	ebx, DWORD PTR _k$[ebp]
	fmul	QWORD PTR [edi+ebx*8]
	mov	edi, DWORD PTR tv4025[ebp]
	fsubr	QWORD PTR [edx]
	mov	edx, DWORD PTR [edi]
	mov	edx, DWORD PTR [edx+4]
	fstp	QWORD PTR [edx]
	mov	edx, DWORD PTR [edi+4]
	mov	edi, DWORD PTR [esi+20]
	mov	edi, DWORD PTR [edi+eax*4]
	fld	QWORD PTR [edi+ecx]
	mov	ebx, DWORD PTR [esi+12]
	fmul	QWORD PTR [ebx+eax*8]
	mov	edi, DWORD PTR [esi+24]
	mov	edi, DWORD PTR [edi+eax*4]
	mov	edi, DWORD PTR [edi]
	mov	edx, DWORD PTR [edx]
	mov	ebx, DWORD PTR _k$[ebp]
	fmul	QWORD PTR [edi+ebx*8]
	fsubr	QWORD PTR [edx+8]
	mov	edx, DWORD PTR tv4025[ebp]
	mov	edx, DWORD PTR [edx+4]
	mov	edi, DWORD PTR [edx]
	mov	edx, DWORD PTR [edx+4]
	fstp	QWORD PTR [edi+8]
	mov	edi, DWORD PTR [esi+24]
	mov	edi, DWORD PTR [edi+eax*4]
	mov	edi, DWORD PTR [edi]
	fld	QWORD PTR [edi+ecx]
	mov	ebx, DWORD PTR [esi+12]
	fmul	QWORD PTR [ebx+eax*8]
	mov	ecx, DWORD PTR [esi+20]
	mov	ecx, DWORD PTR [ecx+eax*4]
	mov	edi, DWORD PTR _k$[ebp]
	fmul	QWORD PTR [ecx+edi*8]

; 1831 :   for ( i = 0 ; i < ctrl ; i++ )

	mov	ebx, DWORD PTR _ctrl$[ebp]
	add	ebx, -3					; fffffffdH
	fsubr	QWORD PTR [edx]
	mov	edx, DWORD PTR tv4025[ebp]
	mov	ecx, DWORD PTR [edx+4]
	mov	ecx, DWORD PTR [ecx+4]
	fstp	QWORD PTR [ecx]
	mov	ecx, DWORD PTR _kk$[ebp]
	add	ecx, 4
	add	edx, 16					; 00000010H
	mov	DWORD PTR _kk$[ebp], ecx
	mov	DWORD PTR tv4025[ebp], edx
	cmp	ecx, ebx
	jl	$LN64@q_edge_tor@6

; 1814 :           h[k][kk][1][0] -= gl->gausswt[m]*gl->gpolypart[m][0][kk]*gl->gpoly[m][k];

	mov	ebx, DWORD PTR _ctrl$[ebp]
$LN68@q_edge_tor@6:

; 1812 :         for ( kk = 0 ; kk < ctrl ; kk++ )

	cmp	ecx, ebx
	jge	$LN17@q_edge_tor@6
	mov	edx, DWORD PTR tv4647[ebp]
	mov	ebx, DWORD PTR tv4612[ebp]
	mov	edx, DWORD PTR [edx+ebx]
	lea	edx, DWORD PTR [edx+ecx*4]
	mov	DWORD PTR tv4354[ebp], edx
$LC15@q_edge_tor@6:

; 1813 :         { h[k][kk][0][1] -= gl->gausswt[m]*gl->gpoly[m][kk]*gl->gpolypart[m][0][k];

	mov	edx, DWORD PTR tv4354[ebp]
	mov	edx, DWORD PTR [edx]
	mov	edx, DWORD PTR [edx]
	mov	ebx, DWORD PTR [esi+12]
	mov	DWORD PTR tv5132[ebp], edx
	mov	edx, DWORD PTR [esi+20]
	mov	edx, DWORD PTR [edx+eax*4]
	fld	QWORD PTR [edx+ecx*8]
	mov	edx, DWORD PTR [esi+24]
	mov	edx, DWORD PTR [edx+eax*4]
	fmul	QWORD PTR [ebx+eax*8]
	mov	edx, DWORD PTR [edx]
	inc	ecx
	fmul	QWORD PTR [edx+edi*8]
	mov	edx, DWORD PTR tv5132[ebp]
	fsubr	QWORD PTR [edx+8]
	fstp	QWORD PTR [edx+8]

; 1814 :           h[k][kk][1][0] -= gl->gausswt[m]*gl->gpolypart[m][0][kk]*gl->gpoly[m][k];

	mov	edx, DWORD PTR tv4354[ebp]
	mov	edx, DWORD PTR [edx]
	mov	edx, DWORD PTR [edx+4]
	mov	ebx, DWORD PTR [esi+12]
	add	DWORD PTR tv4354[ebp], 4
	mov	DWORD PTR tv4375[ebp], edx
	mov	edx, DWORD PTR [esi+24]
	mov	edx, DWORD PTR [edx+eax*4]
	mov	edx, DWORD PTR [edx]
	fld	QWORD PTR [edx+ecx*8-8]
	mov	edx, DWORD PTR [esi+20]
	fmul	QWORD PTR [ebx+eax*8]
	mov	edx, DWORD PTR [edx+eax*4]
	mov	ebx, DWORD PTR _ctrl$[ebp]
	fmul	QWORD PTR [edx+edi*8]
	mov	edx, DWORD PTR tv4375[ebp]
	fsubr	QWORD PTR [edx]
	fstp	QWORD PTR [edx]
	cmp	ecx, ebx
	jl	SHORT $LC15@q_edge_tor@6
$LN17@q_edge_tor@6:

; 1809 :      for ( k = 0 ; k < ctrl ; k++ )

	add	DWORD PTR tv4612[ebp], 4
	inc	edi
	mov	DWORD PTR _k$[ebp], edi
	cmp	edi, ebx
	jl	$LN18@q_edge_tor@6
$LN110@q_edge_tor@6:

; 1802 :   for ( m = 0 ; m < gl->gnumpts ; m++ )

	inc	eax

; 1812 :         for ( kk = 0 ; kk < ctrl ; kk++ )

	fstp	ST(1)
	fstp	ST(0)
	cmp	eax, DWORD PTR [esi+4]
	jl	$LN67@q_edge_tor@6

; 1807 :      }
; 1808 :      area -= gl->gausswt[m]*y*dx;

	fstp	ST(1)
	fst	QWORD PTR _area$[ebp]
	jmp	SHORT $LN22@q_edge_tor@6
$LN84@q_edge_tor@6:
	fstp	ST(1)
$LN22@q_edge_tor@6:

; 1815 :         }
; 1816 :      }
; 1817 :   }
; 1818 : 
; 1819 :   /* wrap correction */
; 1820 :   wrap = (get_edge_wrap(e_info->id)>>TWRAPBITS) & WRAPMASK;

	mov	eax, DWORD PTR _e_info$GSCopy$[ebp]
	mov	ecx, DWORD PTR [eax]
	mov	eax, DWORD PTR _web+124
	mov	esi, DWORD PTR _dymem
	mov	edx, ecx
	and	edx, 134217727				; 07ffffffH
	mov	edx, DWORD PTR [eax+edx*4]
	mov	eax, DWORD PTR _web+216
	mov	eax, DWORD PTR [eax+esi+784]
	mov	eax, DWORD PTR [edx+eax]
	test	ecx, 134217728				; 08000000H
	je	SHORT $LN37@q_edge_tor@6
	push	eax
	fstp	ST(0)
	call	DWORD PTR _sym_inverse
	fld	QWORD PTR _area$[ebp]
	add	esp, 4
$LN37@q_edge_tor@6:
	sar	eax, 6
	and	eax, 31					; 0000001fH

; 1821 :   wrapnum = WRAPNUM(wrap);

	cmp	eax, 16					; 00000010H
	jle	SHORT $LN33@q_edge_tor@6
	add	eax, -32				; ffffffe0H
$LN33@q_edge_tor@6:

; 1822 :   area += wrapnum*u[ctrl-1][0]; 

	mov	ecx, DWORD PTR _u$[ebp]
	mov	edx, DWORD PTR [ecx+ebx*4-4]

; 1823 :   g[ctrl-1][0] += wrapnum;

	mov	edi, DWORD PTR _g$[ebp]
	mov	DWORD PTR _wrapnum$[ebp], eax
	fild	DWORD PTR _wrapnum$[ebp]
	mov	eax, DWORD PTR [edi+ebx*4-4]
	fld	QWORD PTR [edx]

; 1824 : 
; 1825 :   for ( k = 0 ; k < ctrl ; k++ )

	xor	esi, esi
	fmul	ST(0), ST(1)
	faddp	ST(2), ST(0)
	fxch	ST(1)
	fstp	QWORD PTR _area$[ebp]
	fadd	QWORD PTR [eax]
	fstp	QWORD PTR [eax]
	mov	edx, DWORD PTR _web+616
	test	ebx, ebx
	jle	SHORT $LN10@q_edge_tor@6
	npad	2
$LL73@q_edge_tor@6:

; 1826 :      for ( j = 0 ; j < SDIM ; j++ )

	xor	ecx, ecx
	test	edx, edx
	jle	SHORT $LN11@q_edge_tor@6

; 1824 : 
; 1825 :   for ( k = 0 ; k < ctrl ; k++ )

	mov	eax, DWORD PTR [edi+esi*4]
	npad	7
$LL9@q_edge_tor@6:

; 1827 :         g[k][j] *= web.torusv;

	fld	QWORD PTR [eax]
	inc	ecx
	fmul	QWORD PTR _web+1600
	add	eax, 8
	fstp	QWORD PTR [eax-8]
	mov	edx, DWORD PTR _web+616
	cmp	ecx, edx
	jl	SHORT $LL9@q_edge_tor@6
$LN11@q_edge_tor@6:

; 1824 : 
; 1825 :   for ( k = 0 ; k < ctrl ; k++ )

	inc	esi
	cmp	esi, ebx
	jl	SHORT $LL73@q_edge_tor@6
$LN10@q_edge_tor@6:

; 1828 : 
; 1829 :   /* form pullback */
; 1830 :   mat_mult(g,web.inverse_periods,e_info->grad,ctrl,SDIM,SDIM);

	mov	eax, DWORD PTR _e_info$GSCopy$[ebp]
	mov	ecx, DWORD PTR [eax+1336]
	push	edx
	push	edx
	mov	edx, DWORD PTR _web+1612
	push	ebx
	push	ecx
	push	edx
	push	edi
	call	_mat_mult
	add	esp, 24					; 00000018H

; 1831 :   for ( i = 0 ; i < ctrl ; i++ )

	xor	edi, edi
	test	ebx, ebx
	jle	SHORT $LN4@q_edge_tor@6
	npad	12
$LL69@q_edge_tor@6:

; 1832 :      for ( ii = 0 ; ii < ctrl ; ii++ )

	xor	esi, esi
$LL3@q_edge_tor@6:

; 1833 :         { mat_mult(h[i][ii],web.inverse_periods,temph,SDIM,SDIM,SDIM);

	mov	eax, DWORD PTR _web+616
	mov	ecx, DWORD PTR _web+1612
	mov	edx, DWORD PTR _h$[ebp]
	push	eax
	push	eax
	push	eax
	mov	eax, DWORD PTR _temph$[ebp]
	push	eax
	mov	eax, DWORD PTR [edx+edi*4]
	push	ecx
	mov	ecx, DWORD PTR [eax+esi*4]
	push	ecx
	call	_mat_mult

; 1834 :           tr_mat_mul(web.inverse_periods,temph,e_info->hess[i][ii],SDIM,SDIM,SDIM);

	mov	eax, DWORD PTR _web+616
	mov	edx, DWORD PTR _e_info$GSCopy$[ebp]
	push	eax
	push	eax
	push	eax
	mov	eax, DWORD PTR [edx+1340]
	mov	ecx, DWORD PTR [eax+edi*4]
	mov	edx, DWORD PTR [ecx+esi*4]
	mov	eax, DWORD PTR _temph$[ebp]
	mov	ecx, DWORD PTR _web+1612
	push	edx
	push	eax
	push	ecx
	call	_tr_mat_mul
	inc	esi
	add	esp, 48					; 00000030H
	cmp	esi, ebx
	jl	SHORT $LL3@q_edge_tor@6

; 1831 :   for ( i = 0 ; i < ctrl ; i++ )

	inc	edi
	cmp	edi, ebx
	jl	SHORT $LL69@q_edge_tor@6
$LN4@q_edge_tor@6:

; 1835 :         }
; 1836 :   return area*web.torusv;
; 1837 : } // end q_edge_torus_area_lagrange_hess()

	mov	ecx, DWORD PTR __$ArrayPad$[ebp]
	fld	QWORD PTR _web+1600
	fmul	QWORD PTR _area$[ebp]
	pop	edi
	pop	esi
	xor	ecx, ebp
	pop	ebx
	call	@__security_check_cookie@4
	mov	esp, ebp
	pop	ebp
	ret	0
_q_edge_torus_area_lagrange_hess ENDP
_TEXT	ENDS
PUBLIC	__real@4002666666666666
PUBLIC	??_C@_0N@OEGEGEAC@hooke_length?$AA@		; `string'
PUBLIC	__real@4000000000000000
PUBLIC	??_C@_0M@GPKJFBFK@hooke_power?$AA@		; `string'
PUBLIC	??_C@_0CF@NFPBEIHL@hooke_energy?5only?5for?5LINEAR?5mod@ ; `string'
PUBLIC	_hooke_energy_init
EXTRN	_localbase:DWORD
EXTRN	_add_global:PROC
EXTRN	_lookup_global:PROC
EXTRN	_kb_error:PROC
_BSS	SEGMENT
_hooke_length DQ 01H DUP (?)
_length_param DD 01H DUP (?)
	ALIGN	8

_hooke_power DQ	01H DUP (?)
_exponent_param DD 01H DUP (?)
_BSS	ENDS
;	COMDAT __real@4002666666666666
CONST	SEGMENT
__real@4002666666666666 DQ 04002666666666666r	; 2.3
CONST	ENDS
;	COMDAT ??_C@_0N@OEGEGEAC@hooke_length?$AA@
CONST	SEGMENT
??_C@_0N@OEGEGEAC@hooke_length?$AA@ DB 'hooke_length', 00H ; `string'
CONST	ENDS
;	COMDAT __real@4000000000000000
CONST	SEGMENT
__real@4000000000000000 DQ 04000000000000000r	; 2
CONST	ENDS
;	COMDAT ??_C@_0M@GPKJFBFK@hooke_power?$AA@
CONST	SEGMENT
??_C@_0M@GPKJFBFK@hooke_power?$AA@ DB 'hooke_power', 00H ; `string'
CONST	ENDS
;	COMDAT ??_C@_0CF@NFPBEIHL@hooke_energy?5only?5for?5LINEAR?5mod@
CONST	SEGMENT
??_C@_0CF@NFPBEIHL@hooke_energy?5only?5for?5LINEAR?5mod@ DB 'hooke_energy'
	DB	' only for LINEAR model.', 0aH, 00H		; `string'
; Function compile flags: /Ogtp
CONST	ENDS
;	COMDAT _hooke_energy_init
_TEXT	SEGMENT
tv382 = -4						; size = 4
_mode$ = 8						; size = 4
_mi$ = 12						; size = 4
_hooke_energy_init PROC					; COMDAT

; 1867 : {

	push	ebp
	mov	ebp, esp
	push	ecx
	push	ebx

; 1868 :   if ( web.modeltype != LINEAR )

	mov	ebx, 1
	push	esi
	push	edi
	cmp	DWORD PTR _web+628, ebx
	je	SHORT $LN5@hooke_ener

; 1869 :      kb_error(1766,"hooke_energy only for LINEAR model.\n",RECOVERABLE);

	push	ebx
	push	OFFSET ??_C@_0CF@NFPBEIHL@hooke_energy?5only?5for?5LINEAR?5mod@
	push	1766					; 000006e6H
	call	_kb_error
	add	esp, 12					; 0000000cH
$LN5@hooke_ener:

; 1870 : 
; 1871 : 
; 1872 :   exponent_param = lookup_global(POWER_NAME);

	push	OFFSET ??_C@_0M@GPKJFBFK@hooke_power?$AA@
	call	_lookup_global
	add	esp, 4
	mov	DWORD PTR _exponent_param, eax

; 1873 :   if ( exponent_param < 0 ) /* missing, so add */

	test	eax, eax
	jns	$LN50@hooke_ener

; 1874 :   { exponent_param = add_global(POWER_NAME);

	push	OFFSET ??_C@_0M@GPKJFBFK@hooke_power?$AA@
	call	_add_global

; 1875 :     globals(exponent_param)->value.real = 2.0;  /* default */

	mov	esi, eax
	and	esi, -16777216				; ff000000H
	add	esp, 4
	mov	DWORD PTR _exponent_param, eax
	cmp	esi, 268435456				; 10000000H
	je	SHORT $LN8@hooke_ener
	cmp	esi, 805306368				; 30000000H
	jne	SHORT $LN10@hooke_ener
	mov	edi, DWORD PTR _localbase
	mov	ecx, eax
	and	ecx, 16777215				; 00ffffffH
	mov	edx, ecx
	imul	edx, 224				; 000000e0H
	add	edx, DWORD PTR [edi]
	jmp	SHORT $LN9@hooke_ener
$LN10@hooke_ener:
	cmp	esi, 536870912				; 20000000H
	jne	SHORT $LN8@hooke_ener
	mov	edx, DWORD PTR _web+5656
	mov	ecx, eax
	and	ecx, 16777215				; 00ffffffH
	mov	edx, DWORD PTR [edx+ecx*4]
	jmp	SHORT $LN9@hooke_ener
$LN8@hooke_ener:
	mov	edx, DWORD PTR _web+5652
	mov	edi, DWORD PTR _dymem
	mov	ecx, eax
	and	ecx, 16777215				; 00ffffffH
	lea	edx, DWORD PTR [edx+ecx*4]
	mov	edx, DWORD PTR [edx+edi]
$LN9@hooke_ener:
	fld	QWORD PTR __real@4000000000000000
	fstp	QWORD PTR [edx+64]

; 1876 :     globals(exponent_param)->flags |=  ORDINARY_PARAM;

	cmp	esi, 268435456				; 10000000H
	je	SHORT $LN14@hooke_ener
	cmp	esi, 805306368				; 30000000H
	jne	SHORT $LN16@hooke_ener
	mov	edx, DWORD PTR _localbase
	imul	ecx, 224				; 000000e0H
	add	ecx, DWORD PTR [edx]
	jmp	SHORT $LN15@hooke_ener
$LN16@hooke_ener:
	cmp	esi, 536870912				; 20000000H
	jne	SHORT $LN14@hooke_ener
	mov	edx, DWORD PTR _web+5656
	mov	ecx, DWORD PTR [edx+ecx*4]
	jmp	SHORT $LN15@hooke_ener
$LN14@hooke_ener:
	mov	edx, DWORD PTR _web+5652
	lea	ecx, DWORD PTR [edx+ecx*4]
	mov	edx, DWORD PTR _dymem
	mov	ecx, DWORD PTR [ecx+edx]
$LN15@hooke_ener:
	or	DWORD PTR [ecx+192], ebx
$LN50@hooke_ener:

; 1877 :   }
; 1878 :   hooke_power =  globals(exponent_param)->value.real; 

	mov	ecx, eax
	and	ecx, -16777216				; ff000000H
	cmp	ecx, 268435456				; 10000000H
	je	SHORT $LN20@hooke_ener
	cmp	ecx, 805306368				; 30000000H
	jne	SHORT $LN22@hooke_ener
	mov	ecx, DWORD PTR _localbase
	and	eax, 16777215				; 00ffffffH
	imul	eax, 224				; 000000e0H
	add	eax, DWORD PTR [ecx]
	jmp	SHORT $LN21@hooke_ener
$LN22@hooke_ener:
	cmp	ecx, 536870912				; 20000000H
	jne	SHORT $LN20@hooke_ener
	mov	edx, DWORD PTR _web+5656
	and	eax, 16777215				; 00ffffffH
	mov	eax, DWORD PTR [edx+eax*4]
	jmp	SHORT $LN21@hooke_ener
$LN20@hooke_ener:
	mov	ecx, DWORD PTR _web+5652
	and	eax, 16777215				; 00ffffffH
	lea	edx, DWORD PTR [ecx+eax*4]
	mov	eax, DWORD PTR _dymem
	mov	eax, DWORD PTR [edx+eax]
$LN21@hooke_ener:
	fld	QWORD PTR [eax+64]

; 1879 :   length_param = lookup_global(LENGTH_NAME);

	push	OFFSET ??_C@_0N@OEGEGEAC@hooke_length?$AA@
	fstp	QWORD PTR _hooke_power
	call	_lookup_global
	mov	edi, eax
	add	esp, 4
	mov	DWORD PTR _length_param, edi

; 1880 :   if ( length_param < 0 ) /* missing, so add */

	test	edi, edi
	jns	$LN51@hooke_ener

; 1881 :   { length_param = add_global(LENGTH_NAME);

	push	OFFSET ??_C@_0N@OEGEGEAC@hooke_length?$AA@
	call	_add_global
	add	esp, 4
	mov	edi, eax
	mov	DWORD PTR _length_param, edi

; 1882 :     if ( web.representation == STRING )

	cmp	DWORD PTR _web+624, ebx
	jne	$LN2@hooke_ener

; 1883 :        globals(length_param)->value.real 
; 1884 :           = web.total_area/web.skel[EDGE].count; /* default */

	mov	ecx, edi
	and	ecx, -16777216				; ff000000H
	cmp	ecx, 268435456				; 10000000H
	je	SHORT $LN26@hooke_ener
	cmp	ecx, 805306368				; 30000000H
	jne	SHORT $LN28@hooke_ener
	fild	DWORD PTR _web+176
	mov	edx, DWORD PTR _localbase
	mov	esi, edi
	and	esi, 16777215				; 00ffffffH
	fdivr	QWORD PTR _web+992
	mov	eax, esi
	imul	eax, 224				; 000000e0H
	add	eax, DWORD PTR [edx]
	fstp	QWORD PTR [eax+64]

; 1885 :     else globals(length_param)->value.real 

	jmp	$LN1@hooke_ener
$LN28@hooke_ener:

; 1883 :        globals(length_param)->value.real 
; 1884 :           = web.total_area/web.skel[EDGE].count; /* default */

	cmp	ecx, 536870912				; 20000000H
	jne	SHORT $LN26@hooke_ener
	fild	DWORD PTR _web+176
	mov	eax, DWORD PTR _web+5656
	mov	esi, edi
	and	esi, 16777215				; 00ffffffH
	fdivr	QWORD PTR _web+992
	mov	eax, DWORD PTR [eax+esi*4]
	fstp	QWORD PTR [eax+64]

; 1885 :     else globals(length_param)->value.real 

	jmp	$LN1@hooke_ener
$LN26@hooke_ener:

; 1883 :        globals(length_param)->value.real 
; 1884 :           = web.total_area/web.skel[EDGE].count; /* default */

	fild	DWORD PTR _web+176
	mov	edx, DWORD PTR _web+5652
	mov	esi, edi
	and	esi, 16777215				; 00ffffffH
	fdivr	QWORD PTR _web+992
	lea	eax, DWORD PTR [edx+esi*4]
	mov	edx, DWORD PTR _dymem
	mov	eax, DWORD PTR [eax+edx]
	fstp	QWORD PTR [eax+64]

; 1885 :     else globals(length_param)->value.real 

	jmp	$LN1@hooke_ener
$LN2@hooke_ener:

; 1886 :           = sqrt(2.3*web.total_area/web.skel[FACET].count); /* default */

	mov	eax, edi
	and	eax, -16777216				; ff000000H
	mov	esi, edi
	and	esi, 16777215				; 00ffffffH
	mov	DWORD PTR tv382[ebp], eax
	cmp	eax, 268435456				; 10000000H
	jne	SHORT $LN36@hooke_ener
	mov	eax, DWORD PTR _web+5652
	mov	edx, DWORD PTR _dymem
	lea	ecx, DWORD PTR [eax+esi*4]
	mov	ebx, DWORD PTR [ecx+edx]
	jmp	SHORT $LN33@hooke_ener
$LN36@hooke_ener:
	cmp	eax, 805306368				; 30000000H
	jne	SHORT $LN34@hooke_ener
	mov	eax, DWORD PTR _localbase
	mov	ebx, esi
	imul	ebx, 224				; 000000e0H
	add	ebx, DWORD PTR [eax]
	jmp	SHORT $LN33@hooke_ener
$LN34@hooke_ener:
	cmp	eax, 536870912				; 20000000H
	jne	SHORT $LN32@hooke_ener
	mov	ecx, DWORD PTR _web+5656
	mov	ebx, DWORD PTR [ecx+esi*4]
	jmp	SHORT $LN33@hooke_ener
$LN32@hooke_ener:
	mov	edx, DWORD PTR _web+5652
	mov	ecx, DWORD PTR _dymem
	lea	eax, DWORD PTR [edx+esi*4]
	mov	ebx, DWORD PTR [eax+ecx]
$LN33@hooke_ener:
	fld	QWORD PTR _web+992
	fmul	QWORD PTR __real@4002666666666666
	fidiv	DWORD PTR _web+288
	call	__CIsqrt
	fstp	QWORD PTR [ebx+64]
	mov	ecx, DWORD PTR tv382[ebp]
	mov	ebx, 1
$LN1@hooke_ener:

; 1887 :     globals(length_param)->flags |=  ORDINARY_PARAM;

	cmp	ecx, 268435456				; 10000000H
	jne	SHORT $LN42@hooke_ener
	mov	edx, DWORD PTR _web+5652
	mov	ecx, DWORD PTR _dymem
	lea	eax, DWORD PTR [edx+esi*4]
	mov	esi, DWORD PTR [eax+ecx]
	jmp	SHORT $LN39@hooke_ener
$LN42@hooke_ener:
	cmp	ecx, 805306368				; 30000000H
	jne	SHORT $LN40@hooke_ener
	mov	edx, DWORD PTR _localbase
	imul	esi, 224				; 000000e0H
	add	esi, DWORD PTR [edx]
	jmp	SHORT $LN39@hooke_ener
$LN40@hooke_ener:
	cmp	ecx, 536870912				; 20000000H
	jne	SHORT $LN38@hooke_ener
	mov	eax, DWORD PTR _web+5656
	mov	esi, DWORD PTR [eax+esi*4]
	jmp	SHORT $LN39@hooke_ener
$LN38@hooke_ener:
	mov	ecx, DWORD PTR _web+5652
	mov	eax, DWORD PTR _dymem
	lea	edx, DWORD PTR [ecx+esi*4]
	mov	esi, DWORD PTR [edx+eax]
$LN39@hooke_ener:
	or	DWORD PTR [esi+192], ebx
$LN51@hooke_ener:

; 1888 :   }
; 1889 :   hooke_length =  globals(length_param)->value.real; 

	mov	eax, edi
	and	eax, -16777216				; ff000000H
	and	edi, 16777215				; 00ffffffH
	cmp	eax, 268435456				; 10000000H
	jne	SHORT $LN48@hooke_ener
	mov	ecx, DWORD PTR _web+5652
	mov	eax, DWORD PTR _dymem
	lea	edx, DWORD PTR [ecx+edi*4]
	mov	eax, DWORD PTR [edx+eax]
	fld	QWORD PTR [eax+64]
	pop	edi
	pop	esi
	fstp	QWORD PTR _hooke_length
	pop	ebx

; 1890 : } // end hooke_energy_init()

	mov	esp, ebp
	pop	ebp
	ret	0
$LN48@hooke_ener:

; 1888 :   }
; 1889 :   hooke_length =  globals(length_param)->value.real; 

	cmp	eax, 805306368				; 30000000H
	jne	SHORT $LN46@hooke_ener
	mov	ecx, DWORD PTR _localbase
	imul	edi, 224				; 000000e0H
	add	edi, DWORD PTR [ecx]
	fld	QWORD PTR [edi+64]
	pop	edi
	pop	esi
	fstp	QWORD PTR _hooke_length
	pop	ebx

; 1890 : } // end hooke_energy_init()

	mov	esp, ebp
	pop	ebp
	ret	0
$LN46@hooke_ener:

; 1888 :   }
; 1889 :   hooke_length =  globals(length_param)->value.real; 

	cmp	eax, 536870912				; 20000000H
	jne	SHORT $LN44@hooke_ener
	mov	edx, DWORD PTR _web+5656
	mov	edi, DWORD PTR [edx+edi*4]
	fld	QWORD PTR [edi+64]
	pop	edi
	pop	esi
	fstp	QWORD PTR _hooke_length
	pop	ebx

; 1890 : } // end hooke_energy_init()

	mov	esp, ebp
	pop	ebp
	ret	0
$LN44@hooke_ener:

; 1888 :   }
; 1889 :   hooke_length =  globals(length_param)->value.real; 

	mov	eax, DWORD PTR _web+5652
	mov	edx, DWORD PTR _dymem
	lea	ecx, DWORD PTR [eax+edi*4]
	mov	eax, DWORD PTR [ecx+edx]
	fld	QWORD PTR [eax+64]
	pop	edi
	pop	esi
	fstp	QWORD PTR _hooke_length
	pop	ebx

; 1890 : } // end hooke_energy_init()

	mov	esp, ebp
	pop	ebp
	ret	0
_hooke_energy_init ENDP
_TEXT	ENDS
PUBLIC	_hooke_energy
EXTRN	__CIpow:PROC
EXTRN	__CIlog:PROC
; Function compile flags: /Ogtp
;	COMDAT _hooke_energy
_TEXT	SEGMENT
_e_info$ = 8						; size = 4
_hooke_energy PROC					; COMDAT

; 1901 : {

	push	ebp
	mov	ebp, esp

; 1902 :   REAL d,diff;
; 1903 : 
; 1904 :   d = sqrt(SDIM_dot(e_info->sides[0][0],e_info->sides[0][0]));

	mov	eax, DWORD PTR _e_info$[ebp]
	mov	ecx, DWORD PTR [eax+1276]
	mov	edx, DWORD PTR [ecx]
	mov	ecx, DWORD PTR _web+616
	mov	eax, DWORD PTR [edx]
	push	ecx
	push	eax
	push	eax
	call	_dot
	add	esp, 12					; 0000000cH
	call	__CIsqrt

; 1905 :   diff = fabs(d - hooke_length);

	fsub	QWORD PTR _hooke_length
	fabs

; 1906 :   if ( hooke_power == 0.0 ) return -log(diff);

	fld	QWORD PTR _hooke_power
	fld	ST(0)
	fldz
	fucompp
	fnstsw	ax
	test	ah, 68					; 00000044H
	jp	SHORT $LN1@hooke_ener@2
	fstp	ST(0)
	call	__CIlog
	fchs

; 1908 : } // end hooke_energy()

	pop	ebp
	ret	0
$LN1@hooke_ener@2:
	pop	ebp

; 1907 :   return pow(diff,hooke_power);

	jmp	__CIpow
_hooke_energy ENDP
_TEXT	ENDS
PUBLIC	_hooke_energy_gradient
; Function compile flags: /Ogtp
;	COMDAT _hooke_energy_gradient
_TEXT	SEGMENT
_d$ = -16						; size = 8
_diff$ = -8						; size = 8
_e_info$ = 8						; size = 4
_hooke_energy_gradient PROC				; COMDAT

; 1921 : {

	push	ebp
	mov	ebp, esp
	sub	esp, 16					; 00000010H

; 1922 :   REAL d,diff,coeff;
; 1923 :   REAL energy;
; 1924 :   int j;
; 1925 : 
; 1926 :   d = sqrt(SDIM_dot(e_info->sides[0][0],e_info->sides[0][0]));

	mov	edx, DWORD PTR _web+616
	push	edi
	mov	edi, DWORD PTR _e_info$[ebp]
	mov	eax, DWORD PTR [edi+1276]
	mov	ecx, DWORD PTR [eax]
	mov	eax, DWORD PTR [ecx]
	push	edx
	push	eax
	push	eax
	call	_dot
	add	esp, 12					; 0000000cH
	call	__CIsqrt
	fst	QWORD PTR _d$[ebp]

; 1927 :   diff = d - hooke_length;

	fsub	QWORD PTR _hooke_length
	fst	QWORD PTR _diff$[ebp]

; 1928 :   if ( diff == 0.0 ) return 0.0;

	fld	ST(0)
	fldz
	fld	ST(0)
	fucomp	ST(2)
	fnstsw	ax
	fstp	ST(1)
	test	ah, 68					; 00000044H
	jp	SHORT $LN6@hooke_ener@3
	fstp	ST(1)
	pop	edi

; 1941 :      }
; 1942 :   return energy;
; 1943 : } // end hooke_energy_gradient()

	mov	esp, ebp
	pop	ebp
	ret	0
$LN6@hooke_ener@3:

; 1929 :   if ( hooke_power == 0.0 )

	fld	QWORD PTR _hooke_power
	fld	ST(0)
	fucomp	ST(2)
	fnstsw	ax
	fstp	ST(1)
	test	ah, 68					; 00000044H
	jp	SHORT $LN5@hooke_ener@3
	fstp	ST(0)

; 1930 :   { energy = -log(fabs(diff));

	fabs
	call	__CIlog
	fchs

; 1931 :      coeff = -1/diff/d;

	fld	QWORD PTR __real@bff0000000000000

; 1932 :   }
; 1933 :   else

	jmp	SHORT $LN24@hooke_ener@3
$LN5@hooke_ener@3:

; 1934 :   { energy =  pow(fabs(diff),hooke_power);

	fxch	ST(1)
	fabs
	fxch	ST(1)
	call	__CIpow

; 1935 :      coeff = hooke_power*energy/diff/d;

	fld	QWORD PTR _hooke_power
	fmul	ST(0), ST(1)
$LN24@hooke_ener@3:
	fdiv	QWORD PTR _diff$[ebp]

; 1936 :   }
; 1937 :   for ( j = 0 ; j < SDIM ; j++ )

	xor	ecx, ecx
	fdiv	QWORD PTR _d$[ebp]
	cmp	DWORD PTR _web+616, ecx
	jle	SHORT $LN19@hooke_ener@3
	mov	eax, DWORD PTR [edi+1276]
	mov	edx, DWORD PTR [eax]
	mov	eax, DWORD PTR [edx]
	push	esi
	mov	esi, DWORD PTR [edi+1336]
	mov	edx, DWORD PTR [esi]
	mov	esi, DWORD PTR [esi+4]
	sub	edx, eax
	sub	esi, eax
$LN3@hooke_ener@3:

; 1938 :      {
; 1939 :         e_info->grad[0][j] = -coeff*e_info->sides[0][0][j];

	fld	QWORD PTR [eax]
	inc	ecx
	fmul	ST(0), ST(1)
	add	eax, 8
	fchs
	fstp	QWORD PTR [edx+eax-8]

; 1940 :         e_info->grad[1][j] = coeff*e_info->sides[0][0][j];

	fld	QWORD PTR [eax-8]
	fmul	ST(0), ST(1)
	fstp	QWORD PTR [esi+eax-8]
	cmp	ecx, DWORD PTR _web+616
	jl	SHORT $LN3@hooke_ener@3
	pop	esi
$LN19@hooke_ener@3:

; 1936 :   }
; 1937 :   for ( j = 0 ; j < SDIM ; j++ )

	fstp	ST(0)
	pop	edi

; 1941 :      }
; 1942 :   return energy;
; 1943 : } // end hooke_energy_gradient()

	mov	esp, ebp
	pop	ebp
	ret	0
_hooke_energy_gradient ENDP
_TEXT	ENDS
PUBLIC	_hooke_energy_hessian
; Function compile flags: /Ogtp
;	COMDAT _hooke_energy_hessian
_TEXT	SEGMENT
tv709 = -64						; size = 8
_energy$ = -56						; size = 8
_diff$ = -48						; size = 8
tv1641 = -44						; size = 4
tv1245 = -44						; size = 4
_d$ = -40						; size = 8
tv1646 = -36						; size = 4
tv1009 = -36						; size = 4
_ehess$ = -32						; size = 8
tv761 = -28						; size = 4
tv655 = -28						; size = 4
tv1400 = -24						; size = 4
tv1255 = -24						; size = 4
tv1636 = -20						; size = 4
tv1250 = -20						; size = 4
_h$ = -16						; size = 4
tv1536 = -12						; size = 4
tv1145 = -12						; size = 4
tv624 = -8						; size = 4
_jj$ = -4						; size = 4
_e_info$ = 8						; size = 4
_hooke_energy_hessian PROC				; COMDAT

; 1957 : {

	push	ebp
	mov	ebp, esp
	sub	esp, 64					; 00000040H

; 1958 :   REAL d,diff,coeff,egrad,ehess;
; 1959 :   REAL energy;
; 1960 :   int j,jj; 
; 1961 :   REAL ****h = e_info->hess;
; 1962 : 
; 1963 :   d = sqrt(SDIM_dot(e_info->sides[0][0],e_info->sides[0][0]));

	mov	edx, DWORD PTR _web+616
	push	ebx
	mov	ebx, DWORD PTR _e_info$[ebp]
	mov	eax, DWORD PTR [ebx+1276]
	mov	ecx, DWORD PTR [eax]
	mov	eax, DWORD PTR [ecx]
	push	edi
	mov	edi, DWORD PTR [ebx+1340]
	push	edx
	push	eax
	push	eax
	mov	DWORD PTR _h$[ebp], edi
	call	_dot
	add	esp, 12					; 0000000cH
	call	__CIsqrt
	fst	QWORD PTR _d$[ebp]

; 1964 :   if ( d == 0.0 )

	fld	ST(0)
	fldz
	fld	ST(0)
	fucomp	ST(2)
	fnstsw	ax
	fstp	ST(1)
	test	ah, 68					; 00000044H
	jp	SHORT $LN23@hooke_ener@4
	pop	edi
	fstp	ST(1)
	pop	ebx

; 2029 : } // end hooke_energy_hessian()

	mov	esp, ebp
	pop	ebp
	ret	0
$LN23@hooke_ener@4:

; 1965 :     return 0.0;
; 1966 :   diff = d - hooke_length;

	fld	ST(1)
	push	esi
	fsub	QWORD PTR _hooke_length
	fst	QWORD PTR _diff$[ebp]

; 1967 :   if ( diff == 0.0 )

	fld	ST(0)
	fld	ST(2)
	fucompp
	fnstsw	ax
	fld1
	test	ah, 68					; 00000044H
	jp	SHORT $LN48@hooke_ener@4

; 1968 :   { energy = 0.0;

	fxch	ST(2)
	fst	QWORD PTR _energy$[ebp]

; 1969 :     egrad = hooke_power == 1 ? 1.0 : 0.0;

	fld	QWORD PTR _hooke_power
	fld	ST(0)
	fld	ST(4)
	fucompp
	fnstsw	ax
	test	ah, 68					; 00000044H
	jp	SHORT $LN26@hooke_ener@4
	fld	ST(3)
	jmp	SHORT $LN27@hooke_ener@4
$LN26@hooke_ener@4:
	fld	ST(1)
$LN27@hooke_ener@4:

; 1970 :     ehess = hooke_power == 2 ? 1.0 : 0.0;

	fld	ST(1)
	fld	QWORD PTR __real@4000000000000000
	fucompp
	fnstsw	ax
	test	ah, 68					; 00000044H
	jp	SHORT $LN28@hooke_ener@4
	fxch	ST(4)
	fst	QWORD PTR _ehess$[ebp]
	jmp	$LN21@hooke_ener@4
$LN28@hooke_ener@4:
	fxch	ST(2)
	fst	QWORD PTR _ehess$[ebp]

; 1971 :   }
; 1972 :   else

	fxch	ST(2)
	fxch	ST(4)
	jmp	$LN21@hooke_ener@4
$LN48@hooke_ener@4:

; 1967 :   if ( diff == 0.0 )

	fstp	ST(3)
	fstp	ST(2)

; 1973 :   {
; 1974 :     if ( hooke_power == 0.0 )

	fld	QWORD PTR _hooke_power
	fld	ST(0)
	fucomp	ST(2)
	fnstsw	ax
	fstp	ST(1)
	test	ah, 68					; 00000044H
	jp	SHORT $LN20@hooke_ener@4
	fstp	ST(0)

; 1975 :     { energy = -log(fabs(diff));

	fabs
	call	__CIlog
	fchs
	fst	QWORD PTR _energy$[ebp]

; 1976 :       coeff = -1/diff/d;

	fld	QWORD PTR __real@bff0000000000000
	fld	QWORD PTR _diff$[ebp]
	fdiv	ST(1), ST(0)
	fld	QWORD PTR _d$[ebp]
	fdiv	ST(2), ST(0)

; 1977 :     }
; 1978 :     else

	fld	QWORD PTR _hooke_power
	jmp	SHORT $LN19@hooke_ener@4
$LN20@hooke_ener@4:

; 1979 :     { energy =  pow(fabs(diff),hooke_power);

	fxch	ST(1)
	fabs
	fxch	ST(1)
	call	__CIpow
	fst	QWORD PTR _energy$[ebp]

; 1980 :       coeff = hooke_power*energy/diff/d;

	fld	QWORD PTR _hooke_power
	fld	ST(0)
	fmul	ST(0), ST(2)
	fld	QWORD PTR _diff$[ebp]
	fdiv	ST(1), ST(0)
	fld	QWORD PTR _d$[ebp]
	fdiv	ST(2), ST(0)
	fxch	ST(2)
	fxch	ST(3)
	fxch	ST(1)
	fxch	ST(2)
	fxch	ST(1)
$LN19@hooke_ener@4:

; 1981 :     }
; 1982 :     for ( j = 0 ; j < SDIM ; j++ )

	xor	ecx, ecx
	cmp	DWORD PTR _web+616, ecx
	jle	SHORT $LN100@hooke_ener@4
	mov	eax, DWORD PTR [ebx+1276]
	mov	edx, DWORD PTR [eax]
	mov	esi, DWORD PTR [ebx+1336]
	mov	eax, DWORD PTR [edx]
	mov	edx, DWORD PTR [esi]
	mov	esi, DWORD PTR [esi+4]
	sub	edx, eax
	sub	esi, eax
$LN18@hooke_ener@4:

; 1983 :     {
; 1984 :        e_info->grad[0][j] = -coeff*e_info->sides[0][0][j];

	fld	QWORD PTR [eax]
	inc	ecx
	fmul	ST(0), ST(4)
	add	eax, 8
	fchs
	fstp	QWORD PTR [edx+eax-8]

; 1985 :        e_info->grad[1][j] = coeff*e_info->sides[0][0][j];

	fld	QWORD PTR [eax-8]
	fmul	ST(0), ST(4)
	fstp	QWORD PTR [esi+eax-8]
	cmp	ecx, DWORD PTR _web+616
	jl	SHORT $LN18@hooke_ener@4
$LN100@hooke_ener@4:

; 1981 :     }
; 1982 :     for ( j = 0 ; j < SDIM ; j++ )

	fstp	ST(3)

; 1986 :     }
; 1987 :     egrad = energy/diff;

	fxch	ST(3)
	fdiv	ST(0), ST(1)
	fld	ST(0)

; 1988 :     ehess = energy/diff/diff;

	fxch	ST(1)
	fdiv	ST(0), ST(2)
	fstp	QWORD PTR _ehess$[ebp]
	fld1
	fldz
	fxch	ST(2)
	fxch	ST(4)
	fxch	ST(1)
$LN21@hooke_ener@4:

; 1989 :   }
; 1990 : 
; 1991 :   if ( hooke_power == 0.0 )

	fld	ST(1)
	fld	ST(3)
	fucompp
	fnstsw	ax
	test	ah, 68					; 00000044H
	jp	$LN59@hooke_ener@4
	fstp	ST(1)
	fstp	ST(3)

; 1992 :   {  if ( diff )

	fld	ST(1)
	fucompp
	fnstsw	ax
	test	ah, 68					; 00000044H
	jnp	$LN62@hooke_ener@4

; 1993 :      for ( j = 0 ; j < SDIM ; j++ )

	xor	ecx, ecx
	cmp	DWORD PTR _web+616, ecx
	jle	$LN62@hooke_ener@4
	fld	QWORD PTR __real@bff0000000000000
	mov	edx, DWORD PTR [edi+4]
	mov	eax, DWORD PTR [edx]
	fdiv	ST(0), ST(1)
	mov	edi, DWORD PTR [edi]
	mov	esi, DWORD PTR [edx+4]
	mov	ebx, DWORD PTR [edi+4]
	mov	edx, DWORD PTR [edi]
	sub	esi, eax
	sub	ebx, eax
	sub	edx, eax
	mov	DWORD PTR tv624[ebp], edi
	mov	DWORD PTR tv1145[ebp], eax
	mov	DWORD PTR tv1245[ebp], esi
	mov	DWORD PTR tv1250[ebp], ebx
	mov	DWORD PTR tv1255[ebp], edx
	fdiv	ST(0), ST(3)
	jmp	SHORT $LN13@hooke_ener@4
$LN43@hooke_ener@4:
	mov	ebx, DWORD PTR tv1250[ebp]
$LN13@hooke_ener@4:
	mov	edx, DWORD PTR [esi+eax]

; 1994 :      { REAL f;
; 1995 :         f = -1/diff/d;

	fld	ST(0)

; 1996 :         h[1][1][j][j] += f;

	fld	ST(0)
	lea	edx, DWORD PTR [edx+ecx*8]
	fadd	QWORD PTR [edx]

; 1997 :         h[1][0][j][j] -= f;
; 1998 :         h[0][1][j][j] -= f;
; 1999 :         h[0][0][j][j] += f;
; 2000 :         for ( jj = 0 ; jj < SDIM ; jj++ )

	mov	DWORD PTR _jj$[ebp], 0
	fstp	QWORD PTR [edx]
	mov	edx, DWORD PTR [eax]
	fld	QWORD PTR [edx+ecx*8]
	lea	edx, DWORD PTR [edx+ecx*8]
	fsub	ST(0), ST(1)
	fstp	QWORD PTR [edx]
	mov	edx, DWORD PTR [ebx+eax]
	fld	QWORD PTR [edx+ecx*8]
	lea	edx, DWORD PTR [edx+ecx*8]
	fsub	ST(0), ST(1)
	fstp	QWORD PTR [edx]
	mov	edx, DWORD PTR tv1255[ebp]
	mov	edx, DWORD PTR [edx+eax]
	fadd	QWORD PTR [edx+ecx*8]
	lea	edx, DWORD PTR [edx+ecx*8]
	fstp	QWORD PTR [edx]
	mov	ebx, DWORD PTR _web+616
	test	ebx, ebx
	jle	$LN12@hooke_ener@4
	mov	eax, DWORD PTR _e_info$[ebp]
	fld	ST(2)
	mov	edx, DWORD PTR [eax+1276]
	fdiv	ST(0), ST(2)
	mov	eax, DWORD PTR [edx]
	mov	ebx, DWORD PTR [eax]
	mov	edx, DWORD PTR _h$[ebp]
	mov	edx, DWORD PTR [edx+4]
	mov	eax, DWORD PTR [edx+4]
	mov	eax, DWORD PTR [eax+ecx*4]
	mov	edx, DWORD PTR [edx]
	mov	edx, DWORD PTR [edx+ecx*4]
	mov	esi, ebx
	sub	esi, eax
	mov	DWORD PTR tv1009[ebp], esi
	mov	esi, DWORD PTR [edi+4]
	mov	edi, DWORD PTR [edi]
	mov	esi, DWORD PTR [esi+ecx*4]
	mov	edi, DWORD PTR [edi+ecx*4]
	sub	edx, eax
	sub	esi, eax
	mov	DWORD PTR tv655[ebp], ebx
	sub	edi, eax
	fld	ST(3)
	fdiv	ST(0), ST(5)
	faddp	ST(1), ST(0)
	fdiv	ST(0), ST(2)
	jmp	SHORT $LN10@hooke_ener@4
$LN42@hooke_ener@4:
	mov	ebx, DWORD PTR tv655[ebp]
$LN10@hooke_ener@4:

; 2001 :         { f = (1/diff + 1/d)/diff*e_info->sides[0][0][j]*e_info->sides[0][0][jj]/d/d;

	fld	ST(0)
	inc	DWORD PTR _jj$[ebp]
	fmul	QWORD PTR [ebx+ecx*8]
	mov	ebx, DWORD PTR tv1009[ebp]
	add	eax, 8
	fmul	QWORD PTR [ebx+eax-8]
	fdiv	ST(0), ST(5)
	fdiv	ST(0), ST(5)

; 2002 :           h[1][1][j][jj] += f;

	fld	QWORD PTR [eax-8]
	fadd	ST(0), ST(1)
	fstp	QWORD PTR [eax-8]

; 2003 :           h[1][0][j][jj] -= f;

	fld	QWORD PTR [edx+eax-8]
	fsub	ST(0), ST(1)
	fstp	QWORD PTR [edx+eax-8]

; 2004 :           h[0][1][j][jj] -= f;

	fld	QWORD PTR [esi+eax-8]
	fsub	ST(0), ST(1)
	fstp	QWORD PTR [esi+eax-8]

; 2005 :           h[0][0][j][jj] += f;

	fadd	QWORD PTR [eax+edi-8]
	fstp	QWORD PTR [eax+edi-8]
	mov	ebx, DWORD PTR _web+616
	cmp	DWORD PTR _jj$[ebp], ebx
	jl	SHORT $LN42@hooke_ener@4

; 1997 :         h[1][0][j][j] -= f;
; 1998 :         h[0][1][j][j] -= f;
; 1999 :         h[0][0][j][j] += f;
; 2000 :         for ( jj = 0 ; jj < SDIM ; jj++ )

	mov	edi, DWORD PTR tv624[ebp]
	fstp	ST(0)
	mov	esi, DWORD PTR tv1245[ebp]
	mov	eax, DWORD PTR tv1145[ebp]
$LN12@hooke_ener@4:

; 1993 :      for ( j = 0 ; j < SDIM ; j++ )

	inc	ecx
	add	eax, 4
	mov	DWORD PTR tv1145[ebp], eax
	cmp	ecx, ebx
	jl	$LN43@hooke_ener@4
	fstp	ST(3)
	pop	esi
	fstp	ST(0)
	pop	edi
	fstp	ST(1)
	pop	ebx

; 2015 :         h[1][0][j][j] -= f;
; 2016 :         h[0][1][j][j] -= f;
; 2017 :         h[0][0][j][j] += f;
; 2018 :         for ( jj = 0 ; jj < SDIM ; jj++ )

	fstp	ST(0)

; 2025 :         }
; 2026 :      }
; 2027 :   } 
; 2028 :   return energy;

	fld	QWORD PTR _energy$[ebp]

; 2029 : } // end hooke_energy_hessian()

	mov	esp, ebp
	pop	ebp
	ret	0
$LN59@hooke_ener@4:

; 2006 :         }
; 2007 :      }
; 2008 :   }
; 2009 :   else
; 2010 :   {
; 2011 :      for ( j = 0 ; j < SDIM ; j++ )

	xor	ecx, ecx
	fstp	ST(2)
	fstp	ST(2)
	cmp	DWORD PTR _web+616, ecx
	jle	$LN79@hooke_ener@4
	fld	ST(1)
	mov	edx, DWORD PTR [edi+4]
	fmul	ST(0), ST(3)
	mov	eax, DWORD PTR [edx]
	mov	edi, DWORD PTR [edi]
	mov	esi, DWORD PTR [edx+4]
	fdiv	ST(0), ST(4)
	mov	ebx, DWORD PTR [edi+4]
	mov	edx, DWORD PTR [edi]
	sub	esi, eax
	sub	ebx, eax
	sub	edx, eax
	mov	DWORD PTR tv624[ebp], edi
	mov	DWORD PTR tv1536[ebp], eax
	mov	DWORD PTR tv1636[ebp], esi
	mov	DWORD PTR tv1641[ebp], ebx
	mov	DWORD PTR tv1646[ebp], edx
	fstp	QWORD PTR tv709[ebp]
	fld	QWORD PTR _ehess$[ebp]
	jmp	SHORT $LN6@hooke_ener@4
$LN40@hooke_ener@4:
	mov	ebx, DWORD PTR tv1641[ebp]
$LN6@hooke_ener@4:
	mov	edx, DWORD PTR [esi+eax]

; 2012 :      { REAL f;
; 2013 :         f = hooke_power*egrad/d;

	fld	QWORD PTR tv709[ebp]

; 2014 :         h[1][1][j][j] += f;

	fld	QWORD PTR [edx+ecx*8]
	lea	edx, DWORD PTR [edx+ecx*8]
	fadd	ST(0), ST(1)

; 2015 :         h[1][0][j][j] -= f;
; 2016 :         h[0][1][j][j] -= f;
; 2017 :         h[0][0][j][j] += f;
; 2018 :         for ( jj = 0 ; jj < SDIM ; jj++ )

	mov	DWORD PTR _jj$[ebp], 0
	fstp	QWORD PTR [edx]
	mov	edx, DWORD PTR [eax]
	fld	QWORD PTR [edx+ecx*8]
	lea	edx, DWORD PTR [edx+ecx*8]
	fsub	ST(0), ST(1)
	fstp	QWORD PTR [edx]
	mov	edx, DWORD PTR [ebx+eax]
	fld	QWORD PTR [edx+ecx*8]
	lea	edx, DWORD PTR [edx+ecx*8]
	fsub	ST(0), ST(1)
	fstp	QWORD PTR [edx]
	mov	edx, DWORD PTR tv1646[ebp]
	mov	edx, DWORD PTR [edx+eax]
	fadd	QWORD PTR [edx+ecx*8]
	lea	edx, DWORD PTR [edx+ecx*8]
	fstp	QWORD PTR [edx]
	mov	ebx, DWORD PTR _web+616
	test	ebx, ebx
	jle	$LN5@hooke_ener@4
	mov	eax, DWORD PTR _e_info$[ebp]
	fld	ST(2)
	fsub	ST(0), ST(2)
	mov	edx, DWORD PTR [eax+1276]
	mov	eax, DWORD PTR [edx]
	mov	ebx, DWORD PTR [eax]
	fmul	ST(0), ST(1)
	mov	edx, DWORD PTR _h$[ebp]
	mov	edx, DWORD PTR [edx+4]
	fld	ST(4)
	mov	eax, DWORD PTR [edx+4]
	fdiv	ST(0), ST(6)
	mov	eax, DWORD PTR [eax+ecx*4]
	mov	edx, DWORD PTR [edx]
	mov	edx, DWORD PTR [edx+ecx*4]
	mov	esi, ebx
	sub	esi, eax
	mov	DWORD PTR tv1400[ebp], esi
	mov	esi, DWORD PTR [edi+4]
	mov	edi, DWORD PTR [edi]
	mov	esi, DWORD PTR [esi+ecx*4]
	mov	edi, DWORD PTR [edi+ecx*4]
	sub	edx, eax
	sub	esi, eax
	mov	DWORD PTR tv761[ebp], ebx
	sub	edi, eax
	fsubp	ST(1), ST(0)
	fmul	ST(0), ST(3)
	jmp	SHORT $LN3@hooke_ener@4
$LN41@hooke_ener@4:
	mov	ebx, DWORD PTR tv761[ebp]
$LN3@hooke_ener@4:

; 2019 :         { f = hooke_power*(ehess*(hooke_power-1) - egrad/d)
; 2020 :                      *e_info->sides[0][0][j]*e_info->sides[0][0][jj]/d/d;

	fld	ST(0)
	inc	DWORD PTR _jj$[ebp]
	fmul	QWORD PTR [ebx+ecx*8]
	mov	ebx, DWORD PTR tv1400[ebp]
	add	eax, 8
	fmul	QWORD PTR [ebx+eax-8]
	fdiv	ST(0), ST(6)
	fdiv	ST(0), ST(6)

; 2021 :           h[1][1][j][jj] += f;

	fld	QWORD PTR [eax-8]
	fadd	ST(0), ST(1)
	fstp	QWORD PTR [eax-8]

; 2022 :           h[1][0][j][jj] -= f;

	fld	QWORD PTR [edx+eax-8]
	fsub	ST(0), ST(1)
	fstp	QWORD PTR [edx+eax-8]

; 2023 :           h[0][1][j][jj] -= f;

	fld	QWORD PTR [esi+eax-8]
	fsub	ST(0), ST(1)
	fstp	QWORD PTR [esi+eax-8]

; 2024 :           h[0][0][j][jj] += f;

	fadd	QWORD PTR [edi+eax-8]
	fstp	QWORD PTR [edi+eax-8]
	mov	ebx, DWORD PTR _web+616
	cmp	DWORD PTR _jj$[ebp], ebx
	jl	SHORT $LN41@hooke_ener@4

; 2015 :         h[1][0][j][j] -= f;
; 2016 :         h[0][1][j][j] -= f;
; 2017 :         h[0][0][j][j] += f;
; 2018 :         for ( jj = 0 ; jj < SDIM ; jj++ )

	mov	eax, DWORD PTR tv1536[ebp]
	fstp	ST(0)
	mov	esi, DWORD PTR tv1636[ebp]
	mov	edi, DWORD PTR tv624[ebp]
$LN5@hooke_ener@4:

; 2006 :         }
; 2007 :      }
; 2008 :   }
; 2009 :   else
; 2010 :   {
; 2011 :      for ( j = 0 ; j < SDIM ; j++ )

	inc	ecx
	add	eax, 4
	mov	DWORD PTR tv1536[ebp], eax
	cmp	ecx, ebx
	jl	$LN40@hooke_ener@4

; 2015 :         h[1][0][j][j] -= f;
; 2016 :         h[0][1][j][j] -= f;
; 2017 :         h[0][0][j][j] += f;
; 2018 :         for ( jj = 0 ; jj < SDIM ; jj++ )

	fstp	ST(4)
	pop	esi
	fstp	ST(1)
	pop	edi
	fstp	ST(1)
	pop	ebx
	fstp	ST(0)
	fstp	ST(0)

; 2025 :         }
; 2026 :      }
; 2027 :   } 
; 2028 :   return energy;

	fld	QWORD PTR _energy$[ebp]

; 2029 : } // end hooke_energy_hessian()

	mov	esp, ebp
	pop	ebp
	ret	0
$LN62@hooke_ener@4:

; 2006 :         }
; 2007 :      }
; 2008 :   }
; 2009 :   else
; 2010 :   {
; 2011 :      for ( j = 0 ; j < SDIM ; j++ )

	fstp	ST(2)
	pop	esi
	fstp	ST(1)
	pop	edi

; 2015 :         h[1][0][j][j] -= f;
; 2016 :         h[0][1][j][j] -= f;
; 2017 :         h[0][0][j][j] += f;
; 2018 :         for ( jj = 0 ; jj < SDIM ; jj++ )

	fstp	ST(0)
	pop	ebx

; 2025 :         }
; 2026 :      }
; 2027 :   } 
; 2028 :   return energy;

	fld	QWORD PTR _energy$[ebp]

; 2029 : } // end hooke_energy_hessian()

	mov	esp, ebp
	pop	ebp
	ret	0
$LN79@hooke_ener@4:

; 2006 :         }
; 2007 :      }
; 2008 :   }
; 2009 :   else
; 2010 :   {
; 2011 :      for ( j = 0 ; j < SDIM ; j++ )

	fstp	ST(3)
	pop	esi
	fstp	ST(0)
	pop	edi

; 2015 :         h[1][0][j][j] -= f;
; 2016 :         h[0][1][j][j] -= f;
; 2017 :         h[0][0][j][j] += f;
; 2018 :         for ( jj = 0 ; jj < SDIM ; jj++ )

	fstp	ST(0)
	pop	ebx
	fstp	ST(0)

; 2025 :         }
; 2026 :      }
; 2027 :   } 
; 2028 :   return energy;

	fld	QWORD PTR _energy$[ebp]

; 2029 : } // end hooke_energy_hessian()

	mov	esp, ebp
	pop	ebp
	ret	0
_hooke_energy_hessian ENDP
_TEXT	ENDS
PUBLIC	??_C@_0L@MNDOBNJJ@hooke_size?$AA@		; `string'
PUBLIC	??_C@_0N@KFKKLADM@hooke2_power?$AA@		; `string'
PUBLIC	??_C@_0CG@MFOKNBMP@hooke2_energy?5only?5for?5LINEAR?5mo@ ; `string'
PUBLIC	_hooke2_energy_init
EXTRN	_get_edge_length:PROC
EXTRN	_calc_edge:PROC
EXTRN	_add_attribute:PROC
EXTRN	_find_attribute:PROC
_BSS	SEGMENT
_hooke2_attr DD	01H DUP (?)
_hooke2_power DQ 01H DUP (?)
_BSS	ENDS
;	COMDAT ??_C@_0L@MNDOBNJJ@hooke_size?$AA@
; File c:\levolver\yonkang-sefit\levolver\ev_ogl\inline.h
CONST	SEGMENT
??_C@_0L@MNDOBNJJ@hooke_size?$AA@ DB 'hooke_size', 00H	; `string'
CONST	ENDS
;	COMDAT ??_C@_0N@KFKKLADM@hooke2_power?$AA@
CONST	SEGMENT
??_C@_0N@KFKKLADM@hooke2_power?$AA@ DB 'hooke2_power', 00H ; `string'
CONST	ENDS
;	COMDAT ??_C@_0CG@MFOKNBMP@hooke2_energy?5only?5for?5LINEAR?5mo@
CONST	SEGMENT
??_C@_0CG@MFOKNBMP@hooke2_energy?5only?5for?5LINEAR?5mo@ DB 'hooke2_energ'
	DB	'y only for LINEAR model.', 0aH, 00H		; `string'
; Function compile flags: /Ogtp
; File c:\levolver\yonkang-sefit\levolver\ev_ogl\method1.c
CONST	ENDS
;	COMDAT _hooke2_energy_init
_TEXT	SEGMENT
_one$90348 = -4						; size = 4
_mode$ = 8						; size = 4
_mi$ = 12						; size = 4
_hooke2_energy_init PROC				; COMDAT

; 2059 : { edge_id e_id;

	push	ebp
	mov	ebp, esp
	push	ecx
	push	ebx
	push	esi
	push	edi

; 2060 : 
; 2061 :   if ( web.modeltype != LINEAR )

	mov	edi, 1
	cmp	DWORD PTR _web+628, edi
	je	SHORT $LN8@hooke2_ene

; 2062 :      kb_error(1451,"hooke2_energy only for LINEAR model.\n",RECOVERABLE);

	push	edi
	push	OFFSET ??_C@_0CG@MFOKNBMP@hooke2_energy?5only?5for?5LINEAR?5mo@
	push	1451					; 000005abH
	call	_kb_error
	add	esp, 12					; 0000000cH
$LN8@hooke2_ene:

; 2063 : 
; 2064 : 
; 2065 :   exponent_param = lookup_global(POWER2_NAME);

	push	OFFSET ??_C@_0N@KFKKLADM@hooke2_power?$AA@
	call	_lookup_global
	add	esp, 4
	mov	DWORD PTR _exponent_param, eax

; 2066 :   if ( exponent_param < 0 ) /* missing, so add */

	test	eax, eax
	jns	$LN33@hooke2_ene

; 2067 :   { exponent_param = add_global(POWER2_NAME);

	push	OFFSET ??_C@_0N@KFKKLADM@hooke2_power?$AA@
	call	_add_global

; 2068 :     globals(exponent_param)->value.real = 2.0;  /* default */

	mov	esi, eax
	and	esi, -16777216				; ff000000H
	add	esp, 4
	mov	DWORD PTR _exponent_param, eax
	cmp	esi, 268435456				; 10000000H
	je	SHORT $LN11@hooke2_ene
	cmp	esi, 805306368				; 30000000H
	jne	SHORT $LN13@hooke2_ene
	mov	ebx, DWORD PTR _localbase
	mov	ecx, eax
	and	ecx, 16777215				; 00ffffffH
	mov	edx, ecx
	imul	edx, 224				; 000000e0H
	add	edx, DWORD PTR [ebx]
	jmp	SHORT $LN12@hooke2_ene
$LN13@hooke2_ene:
	cmp	esi, 536870912				; 20000000H
	jne	SHORT $LN11@hooke2_ene
	mov	edx, DWORD PTR _web+5656
	mov	ecx, eax
	and	ecx, 16777215				; 00ffffffH
	mov	edx, DWORD PTR [edx+ecx*4]
	jmp	SHORT $LN12@hooke2_ene
$LN11@hooke2_ene:
	mov	edx, DWORD PTR _web+5652
	mov	ebx, DWORD PTR _dymem
	mov	ecx, eax
	and	ecx, 16777215				; 00ffffffH
	lea	edx, DWORD PTR [edx+ecx*4]
	mov	edx, DWORD PTR [edx+ebx]
$LN12@hooke2_ene:
	fld	QWORD PTR __real@4000000000000000
	fstp	QWORD PTR [edx+64]

; 2069 :     globals(exponent_param)->flags |=  ORDINARY_PARAM;

	cmp	esi, 268435456				; 10000000H
	je	SHORT $LN17@hooke2_ene
	cmp	esi, 805306368				; 30000000H
	jne	SHORT $LN19@hooke2_ene
	mov	edx, DWORD PTR _localbase
	imul	ecx, 224				; 000000e0H
	add	ecx, DWORD PTR [edx]
	jmp	SHORT $LN18@hooke2_ene
$LN19@hooke2_ene:
	cmp	esi, 536870912				; 20000000H
	jne	SHORT $LN17@hooke2_ene
	mov	edx, DWORD PTR _web+5656
	mov	ecx, DWORD PTR [edx+ecx*4]
	jmp	SHORT $LN18@hooke2_ene
$LN17@hooke2_ene:
	mov	edx, DWORD PTR _web+5652
	lea	ecx, DWORD PTR [edx+ecx*4]
	mov	edx, DWORD PTR _dymem
	mov	ecx, DWORD PTR [ecx+edx]
$LN18@hooke2_ene:
	or	DWORD PTR [ecx+192], edi
$LN33@hooke2_ene:

; 2070 :   }
; 2071 :   hooke2_power =  globals(exponent_param)->value.real; 

	mov	ecx, eax
	and	ecx, -16777216				; ff000000H
	cmp	ecx, 268435456				; 10000000H
	je	SHORT $LN23@hooke2_ene
	cmp	ecx, 805306368				; 30000000H
	jne	SHORT $LN25@hooke2_ene
	mov	ecx, DWORD PTR _localbase
	and	eax, 16777215				; 00ffffffH
	imul	eax, 224				; 000000e0H
	add	eax, DWORD PTR [ecx]
	jmp	SHORT $LN24@hooke2_ene
$LN25@hooke2_ene:
	cmp	ecx, 536870912				; 20000000H
	jne	SHORT $LN23@hooke2_ene
	mov	edx, DWORD PTR _web+5656
	and	eax, 16777215				; 00ffffffH
	mov	eax, DWORD PTR [edx+eax*4]
	jmp	SHORT $LN24@hooke2_ene
$LN23@hooke2_ene:
	mov	ecx, DWORD PTR _web+5652
	and	eax, 16777215				; 00ffffffH
	lea	edx, DWORD PTR [ecx+eax*4]
	mov	eax, DWORD PTR _dymem
	mov	eax, DWORD PTR [edx+eax]
$LN24@hooke2_ene:
	fld	QWORD PTR [eax+64]

; 2072 : 
; 2073 :   /* extra edge atribute */
; 2074 :   hooke2_attr = find_attribute(EDGE,HOOKE2_ATTR_NAME);

	push	OFFSET ??_C@_0L@MNDOBNJJ@hooke_size?$AA@
	push	edi
	fstp	QWORD PTR _hooke2_power
	call	_find_attribute
	add	esp, 8
	mov	DWORD PTR _hooke2_attr, eax

; 2075 :   if ( hooke2_attr < 0 ) /* not found */

	test	eax, eax
	jns	$LN3@hooke2_ene

; 2076 :   { int one = 1;
; 2077 :     hooke2_attr = add_attribute(EDGE,HOOKE2_ATTR_NAME,REAL_TYPE,0,&one /*dim*/,
; 2078 :           DUMP_ATTR,NULL,MPI_NO_PROPAGATE);

	push	0
	push	0
	push	edi
	lea	ecx, DWORD PTR _one$90348[ebp]
	push	ecx
	push	0
	push	edi
	push	OFFSET ??_C@_0L@MNDOBNJJ@hooke_size?$AA@
	push	edi
	mov	DWORD PTR _one$90348[ebp], edi
	call	_add_attribute

; 2079 :      FOR_ALL_EDGES(e_id)  /* initialize to current length */

	mov	edi, DWORD PTR _web+160
	add	esp, 32					; 00000020H
	mov	DWORD PTR _hooke2_attr, eax
	test	edi, 268435456				; 10000000H
	je	SHORT $LN3@hooke2_ene
	mov	edx, DWORD PTR _web+124
$LL34@hooke2_ene:
	mov	esi, edi
	and	esi, 134217727				; 07ffffffH
	add	esi, esi
	add	esi, esi
	mov	eax, DWORD PTR [esi+edx]
	mov	eax, DWORD PTR [eax+8]
