; Listing generated by Microsoft (R) Optimizing Compiler Version 16.00.40219.01 

	TITLE	C:\levolver\yonkang-sefit\levolver\ev_ogl\MODIFY.C
	.686P
	.XMM
	include listing.inc
	.model	flat

INCLUDELIB LIBCMT
INCLUDELIB OLDNAMES

PUBLIC	_set_attr
EXTRN	_web:BYTE
; Function compile flags: /Ogtp
; File c:\levolver\yonkang-sefit\levolver\ev_ogl\inline.h
;	COMDAT _set_attr
_TEXT	SEGMENT
_id$ = 8						; size = 4
_attrib$ = 12						; size = 8
_set_attr PROC						; COMDAT

; 21   : {

	push	ebp
	mov	ebp, esp

; 22   :   elptr(id)->attr |= attrib;

	mov	eax, DWORD PTR _id$[ebp]
	mov	ecx, eax
	shr	ecx, 29					; 0000001dH
	imul	ecx, 112				; 00000070H
	mov	edx, DWORD PTR _web[ecx+12]
	mov	ecx, DWORD PTR _attrib$[ebp]
	and	eax, 134217727				; 07ffffffH
	mov	eax, DWORD PTR [edx+eax*4]
	mov	edx, DWORD PTR _attrib$[ebp+4]
	or	DWORD PTR [eax+8], ecx
	or	DWORD PTR [eax+12], edx

; 23   : }

	pop	ebp
	ret	0
_set_attr ENDP
_TEXT	ENDS
PUBLIC	_unset_attr
; Function compile flags: /Ogtp
;	COMDAT _unset_attr
_TEXT	SEGMENT
_id$ = 8						; size = 4
_attrib$ = 12						; size = 8
_unset_attr PROC					; COMDAT

; 28   : {

	push	ebp
	mov	ebp, esp

; 29   :   elptr(id)->attr &= ~attrib;

	mov	eax, DWORD PTR _id$[ebp]
	mov	ecx, eax
	shr	ecx, 29					; 0000001dH
	imul	ecx, 112				; 00000070H
	mov	edx, DWORD PTR _web[ecx+12]
	mov	ecx, DWORD PTR _attrib$[ebp]
	and	eax, 134217727				; 07ffffffH
	mov	eax, DWORD PTR [edx+eax*4]
	mov	edx, DWORD PTR _attrib$[ebp+4]
	not	ecx
	and	DWORD PTR [eax+8], ecx
	not	edx
	and	DWORD PTR [eax+12], edx

; 30   : }

	pop	ebp
	ret	0
_unset_attr ENDP
_TEXT	ENDS
PUBLIC	_set_fe_edge
EXTRN	_top_timestamp:DWORD
EXTRN	_global_timestamp:DWORD
; Function compile flags: /Ogtp
;	COMDAT _set_fe_edge
_TEXT	SEGMENT
_fe_id$ = 8						; size = 4
_e_id$ = 12						; size = 4
_set_fe_edge PROC					; COMDAT

; 35   : {

	push	ebp
	mov	ebp, esp

; 36   :   if ( inverted(fe_id) ) invert(e_id);

	mov	eax, DWORD PTR _fe_id$[ebp]
	test	eax, 134217728				; 08000000H
	je	SHORT $LN1@set_fe_edg
	xor	DWORD PTR _e_id$[ebp], 134217728	; 08000000H
$LN1@set_fe_edg:

; 37   :   feptr(fe_id)->fe_edge_id = e_id;

	mov	ecx, DWORD PTR _web+460
	and	eax, 134217727				; 07ffffffH
	mov	edx, DWORD PTR [ecx+eax*4]
	mov	eax, DWORD PTR _e_id$[ebp]
	mov	DWORD PTR [edx+20], eax

; 38   :   top_timestamp = ++global_timestamp;

	mov	eax, DWORD PTR _global_timestamp
	inc	eax
	mov	DWORD PTR _global_timestamp, eax
	mov	DWORD PTR _top_timestamp, eax

; 39   : }

	pop	ebp
	ret	0
_set_fe_edge ENDP
_TEXT	ENDS
PUBLIC	_get_fe_edge
; Function compile flags: /Ogtp
;	COMDAT _get_fe_edge
_TEXT	SEGMENT
_fe_id$ = 8						; size = 4
_get_fe_edge PROC					; COMDAT

; 43   : {

	push	ebp
	mov	ebp, esp

; 44   :   edge_id e_id;
; 45   :     
; 46   :   e_id = feptr(fe_id)->fe_edge_id;

	mov	eax, DWORD PTR _fe_id$[ebp]

; 47   : 
; 48   :   /*
; 49   :   if ( inverted(fe_id) ) invert(e_id);
; 50   :   return e_id;
; 51   :   */
; 52   :   
; 53   :   return same_sign(e_id,fe_id);

	mov	edx, DWORD PTR _web+460
	mov	ecx, eax
	and	ecx, 134217727				; 07ffffffH
	mov	ecx, DWORD PTR [edx+ecx*4]
	and	eax, 134217728				; 08000000H
	xor	eax, DWORD PTR [ecx+20]

; 54   : }

	pop	ebp
	ret	0
_get_fe_edge ENDP
_TEXT	ENDS
PUBLIC	_get_fe_facet
EXTRN	_NULLFACET:DWORD
; Function compile flags: /Ogtp
;	COMDAT _get_fe_facet
_TEXT	SEGMENT
_fe_id$ = 8						; size = 4
_get_fe_facet PROC					; COMDAT

; 58   : {

	push	ebp
	mov	ebp, esp

; 59   :   facet_id f_id;
; 60   :   
; 61   :   if ( !valid_id(fe_id) ) return NULLFACET;

	mov	ecx, DWORD PTR _fe_id$[ebp]
	test	ecx, 268435456				; 10000000H
	jne	SHORT $LN2@get_fe_fac
	mov	eax, DWORD PTR _NULLFACET

; 64   :   return f_id;
; 65   : }

	pop	ebp
	ret	0
$LN2@get_fe_fac:

; 62   :   f_id = feptr(fe_id)->fe_facet_id;

	mov	edx, DWORD PTR _web+460
	mov	eax, ecx
	and	eax, 134217727				; 07ffffffH
	mov	eax, DWORD PTR [edx+eax*4]
	mov	eax, DWORD PTR [eax+24]

; 63   :   if ( inverted(fe_id) ) invert(f_id);

	test	ecx, 134217728				; 08000000H
	je	SHORT $LN3@get_fe_fac
	xor	eax, 134217728				; 08000000H
$LN3@get_fe_fac:

; 64   :   return f_id;
; 65   : }

	pop	ebp
	ret	0
_get_fe_facet ENDP
_TEXT	ENDS
PUBLIC	_get_prev_edge
; Function compile flags: /Ogtp
;	COMDAT _get_prev_edge
_TEXT	SEGMENT
_fe_id$ = 8						; size = 4
_get_prev_edge PROC					; COMDAT

; 69   : {

	push	ebp
	mov	ebp, esp

; 70   :   if ( inverted(fe_id) ) return inverse_id(feptr(fe_id)->nextedge[1]);

	mov	eax, DWORD PTR _fe_id$[ebp]
	mov	ecx, DWORD PTR _web+460
	test	eax, 134217728				; 08000000H
	je	SHORT $LN2@get_prev_e
	and	eax, 134217727				; 07ffffffH
	mov	edx, DWORD PTR [ecx+eax*4]
	mov	eax, DWORD PTR [edx+32]
	xor	eax, 134217728				; 08000000H

; 72   : }

	pop	ebp
	ret	0
$LN2@get_prev_e:

; 71   :   else return feptr(fe_id)->nextedge[0];

	and	eax, 134217727				; 07ffffffH
	mov	edx, DWORD PTR [ecx+eax*4]
	mov	eax, DWORD PTR [edx+28]

; 72   : }

	pop	ebp
	ret	0
_get_prev_edge ENDP
_TEXT	ENDS
PUBLIC	_get_next_edge
; Function compile flags: /Ogtp
;	COMDAT _get_next_edge
_TEXT	SEGMENT
_fe_id$ = 8						; size = 4
_get_next_edge PROC					; COMDAT

; 76   : {

	push	ebp
	mov	ebp, esp

; 77   :   if ( inverted(fe_id) ) return inverse_id(feptr(fe_id)->nextedge[0]);

	mov	eax, DWORD PTR _fe_id$[ebp]
	mov	ecx, DWORD PTR _web+460
	test	eax, 134217728				; 08000000H
	je	SHORT $LN2@get_next_e
	and	eax, 134217727				; 07ffffffH
	mov	edx, DWORD PTR [ecx+eax*4]
	mov	eax, DWORD PTR [edx+28]
	xor	eax, 134217728				; 08000000H

; 79   : }

	pop	ebp
	ret	0
$LN2@get_next_e:

; 78   :   else return feptr(fe_id)->nextedge[1];

	and	eax, 134217727				; 07ffffffH
	mov	edx, DWORD PTR [ecx+eax*4]
	mov	eax, DWORD PTR [edx+32]

; 79   : }

	pop	ebp
	ret	0
_get_next_edge ENDP
_TEXT	ENDS
PUBLIC	_get_prev_facet
; Function compile flags: /Ogtp
;	COMDAT _get_prev_facet
_TEXT	SEGMENT
_fe_id$ = 8						; size = 4
_get_prev_facet PROC					; COMDAT

; 83   : {

	push	ebp
	mov	ebp, esp

; 84   :   if ( inverted(fe_id) ) 

	mov	eax, DWORD PTR _fe_id$[ebp]

; 85   :     return inverse_id(feptr(fe_id)->nextfacet[1]);

	mov	ecx, DWORD PTR _web+460
	test	eax, 134217728				; 08000000H
	je	SHORT $LN2@get_prev_f
	and	eax, 134217727				; 07ffffffH
	mov	edx, DWORD PTR [ecx+eax*4]
	mov	eax, DWORD PTR [edx+40]
	xor	eax, 134217728				; 08000000H

; 88   : }

	pop	ebp
	ret	0
$LN2@get_prev_f:

; 86   :   else 
; 87   :     return feptr(fe_id)->nextfacet[0];

	and	eax, 134217727				; 07ffffffH
	mov	edx, DWORD PTR [ecx+eax*4]
	mov	eax, DWORD PTR [edx+36]

; 88   : }

	pop	ebp
	ret	0
_get_prev_facet ENDP
_TEXT	ENDS
PUBLIC	_get_next_facet
; Function compile flags: /Ogtp
;	COMDAT _get_next_facet
_TEXT	SEGMENT
_fe_id$ = 8						; size = 4
_get_next_facet PROC					; COMDAT

; 92   : {

	push	ebp
	mov	ebp, esp

; 93   :   if ( inverted(fe_id) ) 

	mov	eax, DWORD PTR _fe_id$[ebp]

; 94   :     return inverse_id(feptr(fe_id)->nextfacet[0]);

	mov	ecx, DWORD PTR _web+460
	test	eax, 134217728				; 08000000H
	je	SHORT $LN2@get_next_f
	and	eax, 134217727				; 07ffffffH
	mov	edx, DWORD PTR [ecx+eax*4]
	mov	eax, DWORD PTR [edx+36]
	xor	eax, 134217728				; 08000000H

; 97   : }

	pop	ebp
	ret	0
$LN2@get_next_f:

; 95   :   else 
; 96   :     return feptr(fe_id)->nextfacet[1];

	and	eax, 134217727				; 07ffffffH
	mov	edx, DWORD PTR [ecx+eax*4]
	mov	eax, DWORD PTR [edx+40]

; 97   : }

	pop	ebp
	ret	0
_get_next_facet ENDP
_TEXT	ENDS
PUBLIC	_set_prev_edge
; Function compile flags: /Ogtp
;	COMDAT _set_prev_edge
_TEXT	SEGMENT
_fe_id$ = 8						; size = 4
_fe$ = 12						; size = 4
_set_prev_edge PROC					; COMDAT

; 102  : {

	push	ebp
	mov	ebp, esp

; 103  :   if ( !valid_id(fe_id) ) return;

	mov	eax, DWORD PTR _fe_id$[ebp]
	test	eax, 268435456				; 10000000H
	je	SHORT $LN4@set_prev_e

; 104  :   if ( inverted(fe_id) )

	test	eax, 134217728				; 08000000H
	je	SHORT $LN2@set_prev_e

; 105  :     { invert(fe);
; 106  :       feptr(fe_id)->nextedge[1] = fe;

	mov	edx, DWORD PTR _web+460
	mov	ecx, DWORD PTR _fe$[ebp]
	and	eax, 134217727				; 07ffffffH
	mov	eax, DWORD PTR [edx+eax*4]
	xor	ecx, 134217728				; 08000000H
	mov	DWORD PTR [eax+32], ecx

; 110  :   top_timestamp = ++global_timestamp;

	mov	eax, DWORD PTR _global_timestamp
	inc	eax
	mov	DWORD PTR _global_timestamp, eax
	mov	DWORD PTR _top_timestamp, eax

; 111  : }

	pop	ebp
	ret	0
$LN2@set_prev_e:

; 107  :     }
; 108  :   else
; 109  :       feptr(fe_id)->nextedge[0] = fe;

	mov	ecx, DWORD PTR _web+460
	and	eax, 134217727				; 07ffffffH
	mov	edx, DWORD PTR [ecx+eax*4]
	mov	eax, DWORD PTR _fe$[ebp]
	mov	DWORD PTR [edx+28], eax

; 110  :   top_timestamp = ++global_timestamp;

	mov	eax, DWORD PTR _global_timestamp
	inc	eax
	mov	DWORD PTR _global_timestamp, eax
	mov	DWORD PTR _top_timestamp, eax
$LN4@set_prev_e:

; 111  : }

	pop	ebp
	ret	0
_set_prev_edge ENDP
_TEXT	ENDS
PUBLIC	_set_next_edge
; Function compile flags: /Ogtp
;	COMDAT _set_next_edge
_TEXT	SEGMENT
_fe_id$ = 8						; size = 4
_fe$ = 12						; size = 4
_set_next_edge PROC					; COMDAT

; 116  : {

	push	ebp
	mov	ebp, esp

; 117  :   if ( !valid_id(fe_id) ) return;

	mov	eax, DWORD PTR _fe_id$[ebp]
	test	eax, 268435456				; 10000000H
	je	SHORT $LN1@set_next_e

; 118  :   if ( inverted(fe_id) )

	test	eax, 134217728				; 08000000H
	je	SHORT $LN2@set_next_e

; 119  :     { invert(fe);

	mov	ecx, DWORD PTR _fe$[ebp]

; 120  :       feptr(fe_id)->nextedge[0] = fe;

	mov	edx, DWORD PTR _web+460
	xor	ecx, 134217728				; 08000000H
	and	eax, 134217727				; 07ffffffH
	mov	eax, DWORD PTR [edx+eax*4]
	mov	DWORD PTR [eax+28], ecx

; 124  : }

	pop	ebp
	ret	0
$LN2@set_next_e:

; 121  :     }
; 122  :   else
; 123  :       feptr(fe_id)->nextedge[1] = fe;

	mov	ecx, DWORD PTR _web+460
	and	eax, 134217727				; 07ffffffH
	mov	edx, DWORD PTR [ecx+eax*4]
	mov	eax, DWORD PTR _fe$[ebp]
	mov	DWORD PTR [edx+32], eax
$LN1@set_next_e:

; 124  : }

	pop	ebp
	ret	0
_set_next_edge ENDP
_TEXT	ENDS
PUBLIC	_set_prev_facet
; Function compile flags: /Ogtp
;	COMDAT _set_prev_facet
_TEXT	SEGMENT
_fe_id$ = 8						; size = 4
_fe$ = 12						; size = 4
_set_prev_facet PROC					; COMDAT

; 129  : {

	push	ebp
	mov	ebp, esp

; 130  :   if ( !valid_id(fe_id) ) return;

	mov	eax, DWORD PTR _fe_id$[ebp]
	test	eax, 268435456				; 10000000H
	je	SHORT $LN4@set_prev_f

; 131  :   if ( inverted(fe_id) )

	test	eax, 134217728				; 08000000H
	je	SHORT $LN2@set_prev_f

; 132  :   { invert(fe);
; 133  :     feptr(fe_id)->nextfacet[1] = fe;

	mov	edx, DWORD PTR _web+460
	mov	ecx, DWORD PTR _fe$[ebp]
	and	eax, 134217727				; 07ffffffH
	mov	eax, DWORD PTR [edx+eax*4]
	xor	ecx, 134217728				; 08000000H
	mov	DWORD PTR [eax+40], ecx

; 137  :   top_timestamp = ++global_timestamp;

	mov	eax, DWORD PTR _global_timestamp
	inc	eax
	mov	DWORD PTR _global_timestamp, eax
	mov	DWORD PTR _top_timestamp, eax

; 138  : }

	pop	ebp
	ret	0
$LN2@set_prev_f:

; 134  :   }
; 135  :   else
; 136  :     feptr(fe_id)->nextfacet[0] = fe;

	mov	ecx, DWORD PTR _web+460
	and	eax, 134217727				; 07ffffffH
	mov	edx, DWORD PTR [ecx+eax*4]
	mov	eax, DWORD PTR _fe$[ebp]
	mov	DWORD PTR [edx+36], eax

; 137  :   top_timestamp = ++global_timestamp;

	mov	eax, DWORD PTR _global_timestamp
	inc	eax
	mov	DWORD PTR _global_timestamp, eax
	mov	DWORD PTR _top_timestamp, eax
$LN4@set_prev_f:

; 138  : }

	pop	ebp
	ret	0
_set_prev_facet ENDP
_TEXT	ENDS
PUBLIC	_set_next_facet
; Function compile flags: /Ogtp
;	COMDAT _set_next_facet
_TEXT	SEGMENT
_fe_id$ = 8						; size = 4
_fe$ = 12						; size = 4
_set_next_facet PROC					; COMDAT

; 143  : {

	push	ebp
	mov	ebp, esp

; 144  :   if ( !valid_id(fe_id) ) return;

	mov	eax, DWORD PTR _fe_id$[ebp]
	test	eax, 268435456				; 10000000H
	je	SHORT $LN1@set_next_f

; 145  :   if ( inverted(fe_id) )

	test	eax, 134217728				; 08000000H
	je	SHORT $LN2@set_next_f

; 146  :   { invert(fe);

	mov	ecx, DWORD PTR _fe$[ebp]

; 147  :     feptr(fe_id)->nextfacet[0] = fe;

	mov	edx, DWORD PTR _web+460
	xor	ecx, 134217728				; 08000000H
	and	eax, 134217727				; 07ffffffH
	mov	eax, DWORD PTR [edx+eax*4]
	mov	DWORD PTR [eax+36], ecx

; 151  : }

	pop	ebp
	ret	0
$LN2@set_next_f:

; 148  :   }
; 149  :   else
; 150  :     feptr(fe_id)->nextfacet[1] = fe;

	mov	ecx, DWORD PTR _web+460
	and	eax, 134217727				; 07ffffffH
	mov	edx, DWORD PTR [ecx+eax*4]
	mov	eax, DWORD PTR _fe$[ebp]
	mov	DWORD PTR [edx+40], eax
$LN1@set_next_f:

; 151  : }

	pop	ebp
	ret	0
_set_next_facet ENDP
_TEXT	ENDS
PUBLIC	_set_edge_wrap
EXTRN	_dymem:DWORD
EXTRN	_sym_inverse:DWORD
; Function compile flags: /Ogtp
;	COMDAT _set_edge_wrap
_TEXT	SEGMENT
_e_id$ = 8						; size = 4
_wrap$ = 12						; size = 4
_set_edge_wrap PROC					; COMDAT

; 157  : {

	push	ebp
	mov	ebp, esp

; 158  :  *EINT(e_id,E_WRAP_ATTR) =  inverted(e_id)  ? (*sym_inverse)(wrap) : wrap ;

	mov	eax, DWORD PTR _wrap$[ebp]
	push	esi
	mov	esi, DWORD PTR _e_id$[ebp]
	test	esi, 134217728				; 08000000H
	je	SHORT $LN4@set_edge_w
	push	eax
	call	DWORD PTR _sym_inverse
	add	esp, 4
$LN4@set_edge_w:
	mov	ecx, DWORD PTR _web+124
	and	esi, 134217727				; 07ffffffH
	mov	edx, DWORD PTR [ecx+esi*4]
	mov	esi, DWORD PTR _dymem
	mov	ecx, DWORD PTR _web+216
	mov	ecx, DWORD PTR [ecx+esi+784]
	mov	DWORD PTR [edx+ecx], eax
	pop	esi

; 159  : }

	pop	ebp
	ret	0
_set_edge_wrap ENDP
_TEXT	ENDS
PUBLIC	_get_edge_wrap
; Function compile flags: /Ogtp
;	COMDAT _get_edge_wrap
_TEXT	SEGMENT
_e_id$ = 8						; size = 4
_get_edge_wrap PROC					; COMDAT

; 163  : {

	push	ebp
	mov	ebp, esp

; 164  :   WRAPTYPE wrap = *EINT(e_id,E_WRAP_ATTR) ;

	mov	ecx, DWORD PTR _e_id$[ebp]
	mov	edx, DWORD PTR _web+124
	mov	eax, ecx
	and	eax, 134217727				; 07ffffffH
	mov	eax, DWORD PTR [edx+eax*4]
	mov	edx, DWORD PTR _web+216
	push	esi
	mov	esi, DWORD PTR _dymem
	mov	edx, DWORD PTR [edx+esi+784]
	mov	eax, DWORD PTR [eax+edx]
	pop	esi

; 165  :   return    ( inverted(e_id) ? (*sym_inverse)(wrap) : wrap );

	test	ecx, 134217728				; 08000000H
	je	SHORT $LN4@get_edge_w
	push	eax
	call	DWORD PTR _sym_inverse
	add	esp, 4
$LN4@get_edge_w:

; 166  : }

	pop	ebp
	ret	0
_get_edge_wrap ENDP
_TEXT	ENDS
PUBLIC	_set_edge_fe
; Function compile flags: /Ogtp
;	COMDAT _set_edge_fe
_TEXT	SEGMENT
_e_id$ = 8						; size = 4
_fe$ = 12						; size = 4
_set_edge_fe PROC					; COMDAT

; 171  : {

	push	ebp
	mov	ebp, esp

; 172  :   if ( inverted(e_id) ) invert(fe);

	mov	eax, DWORD PTR _e_id$[ebp]
	test	eax, 134217728				; 08000000H
	je	SHORT $LN1@set_edge_f
	xor	DWORD PTR _fe$[ebp], 134217728		; 08000000H
$LN1@set_edge_f:

; 173  :   eptr(e_id)->fe_id = fe;

	mov	ecx, DWORD PTR _web+124
	and	eax, 134217727				; 07ffffffH
	mov	edx, DWORD PTR [ecx+eax*4]
	mov	eax, DWORD PTR _fe$[ebp]
	mov	DWORD PTR [edx+28], eax

; 174  :   top_timestamp = ++global_timestamp;

	mov	eax, DWORD PTR _global_timestamp
	inc	eax
	mov	DWORD PTR _global_timestamp, eax
	mov	DWORD PTR _top_timestamp, eax

; 175  : }

	pop	ebp
	ret	0
_set_edge_fe ENDP
_TEXT	ENDS
PUBLIC	_get_edge_fe
; Function compile flags: /Ogtp
;	COMDAT _get_edge_fe
_TEXT	SEGMENT
_e_id$ = 8						; size = 4
_get_edge_fe PROC					; COMDAT

; 179  : {   struct edge *ep;

	push	ebp
	mov	ebp, esp

; 180  :     facetedge_id fe;
; 181  : 
; 182  :  	ep = eptr(e_id);

	mov	ecx, DWORD PTR _e_id$[ebp]
	mov	edx, DWORD PTR _web+124
	mov	eax, ecx
	and	eax, 134217727				; 07ffffffH
	mov	eax, DWORD PTR [edx+eax*4]

; 183  :     if ( !ep ) return NULLID;

	test	eax, eax
	jne	SHORT $LN2@get_edge_f

; 186  :     return fe;
; 187  : }

	pop	ebp
	ret	0
$LN2@get_edge_f:

; 184  :     fe = ep->fe_id; 

	mov	eax, DWORD PTR [eax+28]

; 185  :     if ( inverted(e_id) ) invert(fe);

	test	ecx, 134217728				; 08000000H
	je	SHORT $LN3@get_edge_f
	xor	eax, 134217728				; 08000000H
$LN3@get_edge_f:

; 186  :     return fe;
; 187  : }

	pop	ebp
	ret	0
_get_edge_fe ENDP
_TEXT	ENDS
PUBLIC	_get_edge_tailv
; Function compile flags: /Ogtp
;	COMDAT _get_edge_tailv
_TEXT	SEGMENT
_e_id$ = 8						; size = 4
_get_edge_tailv PROC					; COMDAT

; 191  : {

	push	ebp
	mov	ebp, esp

; 192  :   if ( inverted(e_id) )

	mov	eax, DWORD PTR _e_id$[ebp]

; 193  :      return get_edge_vertices(e_id)[web.headvnum];

	mov	ecx, DWORD PTR _web+124
	test	eax, 134217728				; 08000000H
	je	SHORT $LN2@get_edge_t
	and	eax, 134217727				; 07ffffffH
	mov	edx, DWORD PTR [ecx+eax*4]
	mov	eax, DWORD PTR _web+216
	mov	ecx, DWORD PTR _dymem
	add	edx, DWORD PTR [eax+ecx+304]
	mov	eax, DWORD PTR _web+636
	mov	eax, DWORD PTR [edx+eax*4]

; 196  : }

	pop	ebp
	ret	0
$LN2@get_edge_t:

; 194  :   else
; 195  :      return get_edge_vertices(e_id)[0];

	and	eax, 134217727				; 07ffffffH
	mov	edx, DWORD PTR [ecx+eax*4]
	mov	eax, DWORD PTR _web+216
	mov	ecx, DWORD PTR _dymem
	mov	eax, DWORD PTR [eax+ecx+304]
	mov	eax, DWORD PTR [edx+eax]

; 196  : }

	pop	ebp
	ret	0
_get_edge_tailv ENDP
_TEXT	ENDS
PUBLIC	_get_edge_headv
; Function compile flags: /Ogtp
;	COMDAT _get_edge_headv
_TEXT	SEGMENT
_e_id$ = 8						; size = 4
_get_edge_headv PROC					; COMDAT

; 200  : {

	push	ebp
	mov	ebp, esp

; 201  :   if ( inverted(e_id) )

	mov	eax, DWORD PTR _e_id$[ebp]

; 202  :      return get_edge_vertices(e_id)[0];

	mov	ecx, DWORD PTR _web+124
	test	eax, 134217728				; 08000000H
	je	SHORT $LN2@get_edge_h
	and	eax, 134217727				; 07ffffffH
	mov	edx, DWORD PTR [ecx+eax*4]
	mov	eax, DWORD PTR _web+216
	mov	ecx, DWORD PTR _dymem
	mov	eax, DWORD PTR [eax+ecx+304]
	mov	eax, DWORD PTR [edx+eax]

; 205  : }

	pop	ebp
	ret	0
$LN2@get_edge_h:

; 203  :   else
; 204  :      return get_edge_vertices(e_id)[web.headvnum];

	and	eax, 134217727				; 07ffffffH
	mov	edx, DWORD PTR [ecx+eax*4]
	mov	eax, DWORD PTR _web+216
	mov	ecx, DWORD PTR _dymem
	add	edx, DWORD PTR [eax+ecx+304]
	mov	eax, DWORD PTR _web+636
	mov	eax, DWORD PTR [edx+eax*4]

; 205  : }

	pop	ebp
	ret	0
_get_edge_headv ENDP
_TEXT	ENDS
PUBLIC	_set_edge_tailv
EXTRN	_insert_vertex_edge:PROC
EXTRN	_remove_vertex_edge:PROC
; Function compile flags: /Ogtp
;	COMDAT _set_edge_tailv
_TEXT	SEGMENT
tv225 = -4						; size = 4
_e_id$ = 8						; size = 4
_v_id$ = 12						; size = 4
_set_edge_tailv PROC					; COMDAT

; 210  : { vertex_id oldv;

	push	ebp
	mov	ebp, esp
	push	ecx

; 211  : 
; 212  :   /* make sure edge not in loop of old vertex */
; 213  :   oldv = get_edge_tailv(e_id);

	mov	edx, DWORD PTR _web+124
	mov	ecx, DWORD PTR _web+216
	push	ebx
	push	esi
	mov	esi, DWORD PTR _e_id$[ebp]
	mov	eax, esi
	shr	eax, 27					; 0000001bH
	and	eax, 1
	push	edi
	mov	edi, DWORD PTR _dymem
	mov	DWORD PTR tv225[ebp], eax
	je	SHORT $LN7@set_edge_t
	mov	ebx, DWORD PTR _web+636
	and	esi, 134217727				; 07ffffffH
	add	esi, esi
	add	esi, esi
	mov	eax, DWORD PTR [esi+edx]
	add	eax, DWORD PTR [ecx+edi+304]
	mov	eax, DWORD PTR [eax+ebx*4]
	jmp	SHORT $LN6@set_edge_t
$LN7@set_edge_t:
	mov	ebx, DWORD PTR [ecx+edi+304]
	and	esi, 134217727				; 07ffffffH
	add	esi, esi
	add	esi, esi
	mov	eax, DWORD PTR [esi+edx]
	mov	eax, DWORD PTR [eax+ebx]
$LN6@set_edge_t:

; 214  :   if ( valid_id(oldv) && !equal_id(oldv,v_id) )

	mov	ebx, DWORD PTR _v_id$[ebp]
	test	eax, 268435456				; 10000000H
	je	SHORT $LN10@set_edge_t
	cmp	eax, ebx
	je	SHORT $LN10@set_edge_t

; 215  :     remove_vertex_edge(oldv,e_id);

	mov	ecx, DWORD PTR _e_id$[ebp]
	push	ecx
	push	eax
	call	_remove_vertex_edge
	mov	ecx, DWORD PTR _web+216
	mov	edx, DWORD PTR _web+124
	mov	edi, DWORD PTR _dymem
	add	esp, 8
$LN10@set_edge_t:

; 216  : 
; 217  :   if ( inverted(e_id) )

	cmp	DWORD PTR tv225[ebp], 0

; 218  :      get_edge_vertices(e_id)[web.headvnum] = v_id;

	mov	edx, DWORD PTR [esi+edx]
	je	SHORT $LN2@set_edge_t
	add	edx, DWORD PTR [ecx+edi+304]
	mov	eax, DWORD PTR _web+636
	mov	DWORD PTR [edx+eax*4], ebx

; 219  :   else

	jmp	SHORT $LN1@set_edge_t
$LN2@set_edge_t:

; 220  :      get_edge_vertices(e_id)[0] = v_id;

	mov	eax, DWORD PTR [ecx+edi+304]
	mov	DWORD PTR [edx+eax], ebx
$LN1@set_edge_t:

; 221  :   insert_vertex_edge(v_id,e_id);

	mov	ecx, DWORD PTR _e_id$[ebp]
	push	ecx
	push	ebx
	call	_insert_vertex_edge

; 222  :   top_timestamp = ++global_timestamp;

	mov	eax, DWORD PTR _global_timestamp
	add	esp, 8
	pop	edi
	inc	eax
	pop	esi
	mov	DWORD PTR _global_timestamp, eax
	mov	DWORD PTR _top_timestamp, eax
	pop	ebx

; 223  : }

	mov	esp, ebp
	pop	ebp
	ret	0
_set_edge_tailv ENDP
_TEXT	ENDS
PUBLIC	_set_edge_headv
; Function compile flags: /Ogtp
;	COMDAT _set_edge_headv
_TEXT	SEGMENT
_e_id$ = 8						; size = 4
_v_id$ = 12						; size = 4
_set_edge_headv PROC					; COMDAT

; 229  : {

	push	ebp
	mov	ebp, esp

; 230  :   if ( inverted(e_id) )

	mov	eax, DWORD PTR _e_id$[ebp]
	push	esi

; 231  :      get_edge_vertices(e_id)[0] = v_id;

	mov	esi, DWORD PTR _dymem
	test	eax, 134217728				; 08000000H
	je	SHORT $LN2@set_edge_h
	mov	edx, DWORD PTR _web+124
	mov	ecx, eax
	and	ecx, 134217727				; 07ffffffH
	mov	edx, DWORD PTR [edx+ecx*4]
	mov	ecx, DWORD PTR _web+216
	mov	esi, DWORD PTR [ecx+esi+304]
	mov	ecx, DWORD PTR _v_id$[ebp]
	mov	DWORD PTR [edx+esi], ecx

; 232  :   else

	jmp	SHORT $LN1@set_edge_h
$LN2@set_edge_h:

; 233  :      get_edge_vertices(e_id)[web.headvnum] = v_id;

	mov	ecx, DWORD PTR _web+124
	mov	edx, eax
	and	edx, 134217727				; 07ffffffH
	mov	edx, DWORD PTR [ecx+edx*4]
	mov	ecx, DWORD PTR _web+216
	add	edx, DWORD PTR [ecx+esi+304]
	mov	ecx, DWORD PTR _v_id$[ebp]
	mov	esi, DWORD PTR _web+636
	mov	DWORD PTR [edx+esi*4], ecx
$LN1@set_edge_h:

; 234  :   insert_vertex_edge(v_id,inverse_id(e_id));

	xor	eax, 134217728				; 08000000H
	push	eax
	push	ecx
	call	_insert_vertex_edge

; 235  :   top_timestamp = ++global_timestamp;

	mov	eax, DWORD PTR _global_timestamp
	add	esp, 8
	inc	eax
	mov	DWORD PTR _global_timestamp, eax
	mov	DWORD PTR _top_timestamp, eax
	pop	esi

; 236  : }

	pop	ebp
	ret	0
_set_edge_headv ENDP
_TEXT	ENDS
PUBLIC	_set_edge_midv
; Function compile flags: /Ogtp
;	COMDAT _set_edge_midv
_TEXT	SEGMENT
_e_id$ = 8						; size = 4
_v_id$ = 12						; size = 4
_set_edge_midv PROC					; COMDAT

; 241  : { get_edge_vertices(e_id)[2] = v_id;

	push	ebp
	mov	ebp, esp
	mov	edx, DWORD PTR _e_id$[ebp]
	mov	ecx, DWORD PTR _web+124
	mov	eax, edx
	and	eax, 134217727				; 07ffffffH
	mov	ecx, DWORD PTR [ecx+eax*4]
	mov	eax, DWORD PTR _web+216
	push	esi
	mov	esi, DWORD PTR _dymem
	mov	esi, DWORD PTR [eax+esi+304]
	mov	eax, DWORD PTR _v_id$[ebp]
	mov	DWORD PTR [ecx+esi+8], eax

; 242  :   set_vertex_edge(v_id,e_id);

	mov	esi, DWORD PTR _web+12
	mov	ecx, eax

; 243  :   set_attr(v_id,Q_MIDPOINT);

	shr	eax, 29					; 0000001dH
	imul	eax, 112				; 00000070H
	and	ecx, 134217727				; 07ffffffH
	add	ecx, ecx
	add	ecx, ecx
	mov	esi, DWORD PTR [ecx+esi]
	mov	DWORD PTR [esi+28], edx
	mov	edx, DWORD PTR _web[eax+12]
	mov	ecx, DWORD PTR [edx+ecx]
	mov	eax, DWORD PTR [ecx+12]
	or	DWORD PTR [ecx+8], 131072		; 00020000H
	mov	DWORD PTR [ecx+12], eax

; 244  :   top_timestamp = ++global_timestamp;

	mov	eax, DWORD PTR _global_timestamp
	inc	eax
	mov	DWORD PTR _global_timestamp, eax
	mov	DWORD PTR _top_timestamp, eax
	pop	esi

; 245  : }

	pop	ebp
	ret	0
_set_edge_midv ENDP
_TEXT	ENDS
PUBLIC	_get_facet_body
; Function compile flags: /Ogtp
;	COMDAT _get_facet_body
_TEXT	SEGMENT
_f_id$ = 8						; size = 4
_get_facet_body PROC					; COMDAT

; 250  : {

	push	ebp
	mov	ebp, esp

; 251  :   if ( web.skel[BODY].count == 0 ) return NULLID;

	cmp	DWORD PTR _web+400, 0
	jne	SHORT $LN4@get_facet_
$LN7@get_facet_:
	xor	eax, eax

; 255  : }

	pop	ebp
	ret	0
$LN4@get_facet_:

; 252  :   if ( !valid_id(f_id) ) return NULLID;

	mov	eax, DWORD PTR _f_id$[ebp]
	test	eax, 268435456				; 10000000H
	je	SHORT $LN7@get_facet_

; 253  :   if ( inverted(f_id) ) return F_ELID(f_id,F_BODY_LIST_ATTR)[1];

	mov	ecx, DWORD PTR _web+236
	test	eax, 134217728				; 08000000H
	je	SHORT $LN2@get_facet_
	and	eax, 134217727				; 07ffffffH
	mov	edx, DWORD PTR [ecx+eax*4]
	mov	eax, DWORD PTR _web+328
	mov	ecx, DWORD PTR _dymem
	mov	eax, DWORD PTR [eax+ecx+784]
	mov	eax, DWORD PTR [edx+eax+4]

; 255  : }

	pop	ebp
	ret	0
$LN2@get_facet_:

; 254  :   else  return F_ELID(f_id,F_BODY_LIST_ATTR)[0];

	and	eax, 134217727				; 07ffffffH
	mov	edx, DWORD PTR [ecx+eax*4]
	mov	eax, DWORD PTR _web+328
	mov	ecx, DWORD PTR _dymem
	mov	eax, DWORD PTR [eax+ecx+784]
	mov	eax, DWORD PTR [edx+eax]

; 255  : }

	pop	ebp
	ret	0
_get_facet_body ENDP
_TEXT	ENDS
PUBLIC	_get_facet_fe
; Function compile flags: /Ogtp
;	COMDAT _get_facet_fe
_TEXT	SEGMENT
_f_id$ = 8						; size = 4
_get_facet_fe PROC					; COMDAT

; 260  : {

	push	ebp
	mov	ebp, esp

; 261  :   facetedge_id fe;
; 262  :   
; 263  :   if ( !valid_id(f_id) ) return NULLID;

	mov	ecx, DWORD PTR _f_id$[ebp]
	test	ecx, 268435456				; 10000000H
	jne	SHORT $LN2@get_facet_@2
	xor	eax, eax

; 266  :   return fe;
; 267  : }

	pop	ebp
	ret	0
$LN2@get_facet_@2:

; 264  :   fe = fptr(f_id)->fe_id;

	mov	edx, DWORD PTR _web+236
	mov	eax, ecx
	and	eax, 134217727				; 07ffffffH
	mov	eax, DWORD PTR [edx+eax*4]
	mov	eax, DWORD PTR [eax+28]

; 265  :   if ( inverted(f_id) ) invert(fe);

	test	ecx, 134217728				; 08000000H
	je	SHORT $LN3@get_facet_@2
	xor	eax, 134217728				; 08000000H
$LN3@get_facet_@2:

; 266  :   return fe;
; 267  : }

	pop	ebp
	ret	0
_get_facet_fe ENDP
_TEXT	ENDS
PUBLIC	_get_next_tail_edge
; Function compile flags: /Ogtp
;	COMDAT _get_next_tail_edge
_TEXT	SEGMENT
_e_id$ = 8						; size = 4
_get_next_tail_edge PROC				; COMDAT

; 270  : { return eptr(e_id)->next_vedge[inverted(e_id) ?1: 0] ; }

	push	ebp
	mov	ebp, esp
	mov	eax, DWORD PTR _e_id$[ebp]
	mov	edx, DWORD PTR _web+124
	mov	ecx, eax
	shr	ecx, 27					; 0000001bH
	and	ecx, 1
	and	eax, 134217727				; 07ffffffH
	mov	eax, DWORD PTR [edx+eax*4]
	mov	eax, DWORD PTR [eax+ecx*4+32]
	pop	ebp
	ret	0
_get_next_tail_edge ENDP
_TEXT	ENDS
PUBLIC	_get_next_head_edge
; Function compile flags: /Ogtp
;	COMDAT _get_next_head_edge
_TEXT	SEGMENT
_e_id$ = 8						; size = 4
_get_next_head_edge PROC				; COMDAT

; 273  : { return inverse_id(eptr(e_id)->next_vedge[inverted(e_id) ?0: 1]); }

	push	ebp
	mov	ebp, esp
	mov	eax, DWORD PTR _e_id$[ebp]
	mov	edx, DWORD PTR _web+124
	mov	ecx, eax
	shr	ecx, 27					; 0000001bH
	and	eax, 134217727				; 07ffffffH
	mov	eax, DWORD PTR [edx+eax*4]
	not	ecx
	and	ecx, 1
	mov	eax, DWORD PTR [eax+ecx*4+32]
	xor	eax, 134217728				; 08000000H
	pop	ebp
	ret	0
_get_next_head_edge ENDP
_TEXT	ENDS
PUBLIC	_get_body_facet
; Function compile flags: /Ogtp
;	COMDAT _get_body_facet
_TEXT	SEGMENT
_b_id$ = 8						; size = 4
_get_body_facet PROC					; COMDAT

; 279  : { return ( valid_id(b_id) ? bptr(b_id)->f_id : NULLID ); }

	push	ebp
	mov	ebp, esp
	mov	eax, DWORD PTR _b_id$[ebp]
	test	eax, 268435456				; 10000000H
	je	SHORT $LN3@get_body_f
	mov	ecx, DWORD PTR _web+348
	and	eax, 134217727				; 07ffffffH
	mov	edx, DWORD PTR [ecx+eax*4]
	mov	eax, DWORD PTR [edx+400]
	pop	ebp
	ret	0
$LN3@get_body_f:
	xor	eax, eax
	pop	ebp
	ret	0
_get_body_facet ENDP
_TEXT	ENDS
PUBLIC	_get_body_fe
; Function compile flags: /Ogtp
;	COMDAT _get_body_fe
_TEXT	SEGMENT
_b_id$ = 8						; size = 4
_get_body_fe PROC					; COMDAT

; 282  : { facet_id f_id =  valid_id(b_id) ? bptr(b_id)->f_id : NULLID ;

	push	ebp
	mov	ebp, esp
	mov	eax, DWORD PTR _b_id$[ebp]
	test	eax, 268435456				; 10000000H
	je	SHORT $LN3@get_body_f@2
	mov	ecx, DWORD PTR _web+348
	and	eax, 134217727				; 07ffffffH
	mov	edx, DWORD PTR [ecx+eax*4]
	mov	ecx, DWORD PTR [edx+400]
	jmp	SHORT $LN4@get_body_f@2
$LN3@get_body_f@2:
	xor	ecx, ecx
$LN4@get_body_f@2:

; 283  :   return valid_id(f_id) ? get_facet_fe(f_id) : NULLID;

	test	ecx, 268435456				; 10000000H
	je	SHORT $LN5@get_body_f@2
	mov	edx, DWORD PTR _web+236
	mov	eax, ecx
	and	eax, 134217727				; 07ffffffH
	mov	eax, DWORD PTR [edx+eax*4]
	mov	eax, DWORD PTR [eax+28]
	test	ecx, 134217728				; 08000000H
	je	SHORT $LN6@get_body_f@2
	xor	eax, 134217728				; 08000000H

; 284  : }

	pop	ebp
	ret	0
$LN5@get_body_f@2:

; 283  :   return valid_id(f_id) ? get_facet_fe(f_id) : NULLID;

	xor	eax, eax
$LN6@get_body_f@2:

; 284  : }

	pop	ebp
	ret	0
_get_body_fe ENDP
_TEXT	ENDS
PUBLIC	_set_body_facet
; Function compile flags: /Ogtp
;	COMDAT _set_body_facet
_TEXT	SEGMENT
_b_id$ = 8						; size = 4
_f_id$ = 12						; size = 4
_set_body_facet PROC					; COMDAT

; 302  : {  if ( valid_id(b_id) )  bptr(b_id)->f_id = (f_id); }

	push	ebp
	mov	ebp, esp
	mov	eax, DWORD PTR _b_id$[ebp]
	test	eax, 268435456				; 10000000H
	je	SHORT $LN1@set_body_f
	mov	ecx, DWORD PTR _web+348
	and	eax, 134217727				; 07ffffffH
	mov	edx, DWORD PTR [ecx+eax*4]
	mov	eax, DWORD PTR _f_id$[ebp]
	mov	DWORD PTR [edx+400], eax
$LN1@set_body_f:
	pop	ebp
	ret	0
_set_body_facet ENDP
_TEXT	ENDS
PUBLIC	__real@0000000000000000
PUBLIC	_get_body_volconst
EXTRN	__fltused:DWORD
;	COMDAT __real@0000000000000000
CONST	SEGMENT
__real@0000000000000000 DQ 00000000000000000r	; 0
; Function compile flags: /Ogtp
CONST	ENDS
;	COMDAT _get_body_volconst
_TEXT	SEGMENT
_b_id$ = 8						; size = 4
_get_body_volconst PROC					; COMDAT

; 320  :   { return    ( valid_id(b_id) ?  bptr(b_id)->volconst : 0.0 ) ; }

	push	ebp
	mov	ebp, esp
	mov	eax, DWORD PTR _b_id$[ebp]
	test	eax, 268435456				; 10000000H
	je	SHORT $LN3@get_body_v
	mov	ecx, DWORD PTR _web+348
	and	eax, 134217727				; 07ffffffH
	mov	edx, DWORD PTR [ecx+eax*4]
	fld	QWORD PTR [edx+328]
	pop	ebp
	ret	0
$LN3@get_body_v:
	fldz
	pop	ebp
	ret	0
_get_body_volconst ENDP
_TEXT	ENDS
PUBLIC	_get_extra
; Function compile flags: /Ogtp
;	COMDAT _get_extra
_TEXT	SEGMENT
_id$ = 8						; size = 4
_n$ = 12						; size = 4
_get_extra PROC						; COMDAT

; 348  : { int type = id_type(id);

	push	ebp
	mov	ebp, esp

; 349  : 
; 350  :   return ( (char*)elptr(id) + EXTRAS(type)[n].offset);

	mov	ecx, DWORD PTR _id$[ebp]
	mov	eax, ecx
	push	esi
	mov	esi, DWORD PTR _n$[ebp]
	shr	eax, 29					; 0000001dH
	imul	esi, 240				; 000000f0H
	imul	eax, 112				; 00000070H
	mov	edx, DWORD PTR _web[eax+12]
	push	edi
	mov	edi, DWORD PTR _web[eax+104]
	and	ecx, 134217727				; 07ffffffH
	mov	eax, DWORD PTR [edx+ecx*4]
	mov	ecx, DWORD PTR _dymem
	add	edi, esi
	add	eax, DWORD PTR [edi+ecx+64]
	pop	edi
	pop	esi

; 351  : }

	pop	ebp
	ret	0
_get_extra ENDP
_TEXT	ENDS
PUBLIC	??_C@_0CP@JOHCIHEB@Can?8t?5unstar?5at?5vertex?5?$CFs?5due?5to@ ; `string'
PUBLIC	??_C@_0CL@JIOENPHF@Unstarring?5failed?0?5triple?5valenc@ ; `string'
PUBLIC	??_C@_0CN@LBAIDHJO@Unstarring?5failed?0?5vertex?5?$CFs?5has@ ; `string'
PUBLIC	??_C@_0CI@PBJACFDO@Unstarring?5failed?0?5vertex?5?$CFs?5is?5@ ; `string'
PUBLIC	??_C@_0BG@NFDNLGJK@Unstarring?5vertex?5?$CFs?6?$AA@ ; `string'
PUBLIC	??_C@_00CNPNBAHC@?$AA@				; `string'
PUBLIC	??_C@_02DPKJAMEF@?$CFd?$AA@			; `string'
PUBLIC	_unstar
EXTRN	_free_element:PROC
EXTRN	_set_facet_fe:PROC
EXTRN	_set_fe_facet:PROC
EXTRN	_compare_edge_facet_attr:PROC
EXTRN	_get_vertex_evalence:PROC
EXTRN	_outstring:PROC
EXTRN	_msg:DWORD
EXTRN	_sprintf:PROC
EXTRN	_elnames:BYTE
EXTRN	_verbose_flag:DWORD
;	COMDAT ??_C@_0CP@JOHCIHEB@Can?8t?5unstar?5at?5vertex?5?$CFs?5due?5to@
CONST	SEGMENT
??_C@_0CP@JOHCIHEB@Can?8t?5unstar?5at?5vertex?5?$CFs?5due?5to@ DB 'Can''t'
	DB	' unstar at vertex %s due to constraints.', 0aH, 00H ; `string'
CONST	ENDS
;	COMDAT ??_C@_0CL@JIOENPHF@Unstarring?5failed?0?5triple?5valenc@
CONST	SEGMENT
??_C@_0CL@JIOENPHF@Unstarring?5failed?0?5triple?5valenc@ DB 'Unstarring f'
	DB	'ailed, triple valence edge %s', 0aH, 00H	; `string'
CONST	ENDS
;	COMDAT ??_C@_0CN@LBAIDHJO@Unstarring?5failed?0?5vertex?5?$CFs?5has@
CONST	SEGMENT
??_C@_0CN@LBAIDHJO@Unstarring?5failed?0?5vertex?5?$CFs?5has@ DB 'Unstarri'
	DB	'ng failed, vertex %s has valence %d', 0aH, 00H ; `string'
CONST	ENDS
;	COMDAT ??_C@_0CI@PBJACFDO@Unstarring?5failed?0?5vertex?5?$CFs?5is?5@
CONST	SEGMENT
??_C@_0CI@PBJACFDO@Unstarring?5failed?0?5vertex?5?$CFs?5is?5@ DB 'Unstarr'
	DB	'ing failed, vertex %s is fixed.', 0aH, 00H	; `string'
CONST	ENDS
;	COMDAT ??_C@_0BG@NFDNLGJK@Unstarring?5vertex?5?$CFs?6?$AA@
CONST	SEGMENT
??_C@_0BG@NFDNLGJK@Unstarring?5vertex?5?$CFs?6?$AA@ DB 'Unstarring vertex'
	DB	' %s', 0aH, 00H				; `string'
CONST	ENDS
;	COMDAT ??_C@_00CNPNBAHC@?$AA@
CONST	SEGMENT
??_C@_00CNPNBAHC@?$AA@ DB 00H				; `string'
CONST	ENDS
;	COMDAT ??_C@_02DPKJAMEF@?$CFd?$AA@
CONST	SEGMENT
??_C@_02DPKJAMEF@?$CFd?$AA@ DB '%d', 00H		; `string'
; Function compile flags: /Ogtp
; File c:\levolver\yonkang-sefit\levolver\ev_ogl\modify.c
CONST	ENDS
;	COMDAT _unstar
_TEXT	SEGMENT
tv909 = -44						; size = 4
_ccomp$ = -44						; size = 4
_fe_d$ = -40						; size = 4
tv897 = -36						; size = 4
_acomp$ = -36						; size = 4
_fe_g$ = -32						; size = 4
_fkeep$ = -28						; size = 4
tv979 = -24						; size = 4
_fe_i$ = -20						; size = 4
_fe_c$ = -16						; size = 4
_fe_b$ = -12						; size = 4
_fe_f$ = -8						; size = 4
_v_id$ = -4						; size = 4
_fe_a$ = 8						; size = 4
_unstar	PROC						; COMDAT

; 221  : { vertex_id v_id = get_fe_tailv(fe_a);

	push	ebp
	mov	ebp, esp
	mov	ecx, DWORD PTR _web+460
	mov	edx, DWORD PTR _web+124
	sub	esp, 44					; 0000002cH
	push	ebx
	mov	ebx, DWORD PTR _dymem
	push	esi
	mov	esi, DWORD PTR _fe_a$[ebp]
	mov	eax, esi
	and	eax, 134217727				; 07ffffffH
	push	edi
	mov	edi, DWORD PTR [ecx+eax*4]
	mov	eax, esi
	and	eax, 134217728				; 08000000H
	xor	eax, DWORD PTR [edi+20]
	test	eax, 134217728				; 08000000H
	je	SHORT $LN42@unstar
	and	eax, 134217727				; 07ffffffH
	mov	eax, DWORD PTR [edx+eax*4]
	mov	edx, DWORD PTR _web+216
	add	eax, DWORD PTR [edx+ebx+304]
	mov	edx, DWORD PTR _web+636
	mov	eax, DWORD PTR [eax+edx*4]
	jmp	SHORT $LN87@unstar
$LN42@unstar:
	and	eax, 134217727				; 07ffffffH
	mov	eax, DWORD PTR [edx+eax*4]
	mov	edx, DWORD PTR _web+216
	mov	edx, DWORD PTR [edx+ebx+304]
	mov	eax, DWORD PTR [eax+edx]
$LN87@unstar:
	mov	DWORD PTR _v_id$[ebp], eax

; 222  :   facet_id fkeep = get_fe_facet(fe_a);

	test	esi, 268435456				; 10000000H
	jne	SHORT $LN46@unstar
	mov	edx, DWORD PTR _NULLFACET
	mov	DWORD PTR _fkeep$[ebp], edx
	jmp	SHORT $LN47@unstar
$LN46@unstar:
	mov	eax, DWORD PTR [edi+24]
	test	esi, 134217728				; 08000000H
	je	SHORT $LN45@unstar
	xor	eax, 134217728				; 08000000H
$LN45@unstar:
	mov	DWORD PTR _fkeep$[ebp], eax
$LN47@unstar:

; 223  :   facetedge_id fe_b = get_next_edge(fe_a);

	test	esi, 134217728				; 08000000H
	je	SHORT $LN50@unstar
	mov	eax, DWORD PTR [edi+28]
	xor	eax, 134217728				; 08000000H
	jmp	SHORT $LN88@unstar
$LN50@unstar:
	mov	eax, DWORD PTR [edi+32]
$LN88@unstar:
	mov	DWORD PTR _fe_b$[ebp], eax

; 224  :   facetedge_id fe_c = get_next_edge(fe_b);

	test	eax, 134217728				; 08000000H
	je	SHORT $LN54@unstar
	and	eax, 134217727				; 07ffffffH
	mov	eax, DWORD PTR [ecx+eax*4]
	mov	eax, DWORD PTR [eax+28]
	xor	eax, 134217728				; 08000000H
	jmp	SHORT $LN89@unstar
$LN54@unstar:
	and	eax, 134217727				; 07ffffffH
	mov	edx, DWORD PTR [ecx+eax*4]
	mov	eax, DWORD PTR [edx+32]
$LN89@unstar:
	mov	DWORD PTR _fe_c$[ebp], eax

; 225  :   facetedge_id fe_d = get_next_facet(fe_c);

	test	eax, 134217728				; 08000000H
	je	SHORT $LN58@unstar
	and	eax, 134217727				; 07ffffffH
	add	eax, eax
	add	eax, eax
	mov	DWORD PTR tv897[ebp], eax
	mov	eax, DWORD PTR [eax+ecx]
	mov	eax, DWORD PTR [eax+36]
	xor	eax, 134217728				; 08000000H
	jmp	SHORT $LN90@unstar
$LN58@unstar:
	and	eax, 134217727				; 07ffffffH
	add	eax, eax
	add	eax, eax
	mov	edx, DWORD PTR [eax+ecx]
	mov	DWORD PTR tv897[ebp], eax
	mov	eax, DWORD PTR [edx+40]
$LN90@unstar:

; 226  :   facetedge_id fe_e = get_next_edge(fe_d);

	mov	esi, eax
	shr	esi, 27					; 0000001bH
	and	esi, 1
	mov	DWORD PTR _fe_d$[ebp], eax
	mov	DWORD PTR tv909[ebp], esi
	mov	edi, eax
	je	SHORT $LN62@unstar
	and	edi, 134217727				; 07ffffffH
	add	edi, edi
	add	edi, edi
	mov	eax, DWORD PTR [edi+ecx]
	mov	ebx, DWORD PTR [eax+28]
	xor	ebx, 134217728				; 08000000H
	jmp	SHORT $LN61@unstar
$LN62@unstar:
	and	edi, 134217727				; 07ffffffH
	add	edi, edi
	add	edi, edi
	mov	edx, DWORD PTR [edi+ecx]
	mov	ebx, DWORD PTR [edx+32]
$LN61@unstar:

; 227  :   facetedge_id fe_f = get_next_edge(fe_e);

	mov	edx, ebx
	mov	eax, ebx
	shr	edx, 27					; 0000001bH
	and	eax, 134217727				; 07ffffffH
	and	edx, 1
	mov	eax, DWORD PTR [ecx+eax*4]
	je	SHORT $LN66@unstar
	mov	esi, DWORD PTR [eax+28]
	xor	esi, 134217728				; 08000000H
	jmp	SHORT $LN91@unstar
$LN66@unstar:
	mov	esi, DWORD PTR [eax+32]
$LN91@unstar:
	mov	DWORD PTR _fe_f$[ebp], esi

; 228  :   facetedge_id fe_g = get_next_facet(fe_e);

	test	edx, edx
	je	SHORT $LN70@unstar
	mov	eax, DWORD PTR [eax+36]
	xor	eax, 134217728				; 08000000H
	jmp	SHORT $LN92@unstar
$LN70@unstar:
	mov	eax, DWORD PTR [eax+40]
$LN92@unstar:
	mov	DWORD PTR _fe_g$[ebp], eax

; 229  :   facetedge_id fe_h = get_next_edge(fe_g);

	test	eax, 134217728				; 08000000H
	je	SHORT $LN74@unstar
	and	eax, 134217727				; 07ffffffH
	mov	edx, DWORD PTR [ecx+eax*4]
	mov	esi, DWORD PTR [edx+28]
	xor	esi, 134217728				; 08000000H
	jmp	SHORT $LN73@unstar
$LN74@unstar:
	and	eax, 134217727				; 07ffffffH
	mov	eax, DWORD PTR [ecx+eax*4]
	mov	esi, DWORD PTR [eax+32]
$LN73@unstar:

; 230  :   facetedge_id fe_i = get_next_edge(fe_h);

	mov	edx, esi
	and	edx, 134217727				; 07ffffffH
	mov	eax, DWORD PTR [ecx+edx*4]
	test	esi, 134217728				; 08000000H
	je	SHORT $LN78@unstar
	mov	eax, DWORD PTR [eax+28]
	xor	eax, 134217728				; 08000000H
	mov	DWORD PTR _fe_i$[ebp], eax
	jmp	SHORT $LN77@unstar
$LN78@unstar:
	mov	ecx, DWORD PTR [eax+32]
	mov	DWORD PTR _fe_i$[ebp], ecx
$LN77@unstar:

; 231  :   facet_id f_id;
; 232  :   body_id b_id;
; 233  :   int acomp,ccomp,ecomp;
; 234  : 
; 235  :   if ( verbose_flag )

	cmp	DWORD PTR _verbose_flag, 0
	je	SHORT $LN20@unstar

; 236  :   { sprintf(msg,"Unstarring vertex %s\n",ELNAME(v_id));

	test	DWORD PTR _v_id$[ebp], 268435456	; 10000000H
	je	SHORT $LN23@unstar
	mov	edx, DWORD PTR _v_id$[ebp]
	and	edx, 134217727				; 07ffffffH
	inc	edx
	push	edx
	push	OFFSET ??_C@_02DPKJAMEF@?$CFd?$AA@
	push	OFFSET _elnames
	call	_sprintf
	add	esp, 12					; 0000000cH
	mov	eax, OFFSET _elnames
	jmp	SHORT $LN24@unstar
$LN23@unstar:
	mov	eax, OFFSET ??_C@_00CNPNBAHC@?$AA@
$LN24@unstar:
	push	eax
	mov	eax, DWORD PTR _msg
	push	OFFSET ??_C@_0BG@NFDNLGJK@Unstarring?5vertex?5?$CFs?6?$AA@
	push	eax
	call	_sprintf

; 237  :     outstring(msg);

	mov	ecx, DWORD PTR _msg
	push	ecx
	call	_outstring
	add	esp, 16					; 00000010H
$LN20@unstar:

; 238  :   }
; 239  : 
; 240  :   /* some checks on legality */
; 241  :   if ( get_vattr(v_id) & FIXED )  /* fixed vertex */

	mov	edx, DWORD PTR _v_id$[ebp]
	mov	ecx, DWORD PTR _web+12
	mov	eax, edx
	and	eax, 134217727				; 07ffffffH
	mov	DWORD PTR tv979[ebp], eax
	mov	eax, DWORD PTR [ecx+eax*4]
	mov	eax, DWORD PTR [eax+8]
	and	eax, 64					; 00000040H
	xor	ecx, ecx
	or	eax, ecx
	je	SHORT $LN19@unstar

; 242  :   { if ( verbose_flag )

	cmp	DWORD PTR _verbose_flag, ecx
	je	SHORT $LN18@unstar

; 243  :     { sprintf(msg,"Unstarring failed, vertex %s is fixed.\n",
; 244  :                 ELNAME(v_id));

	test	edx, 268435456				; 10000000H
	je	SHORT $LN25@unstar
	mov	edx, DWORD PTR tv979[ebp]
	inc	edx
	push	edx
	push	OFFSET ??_C@_02DPKJAMEF@?$CFd?$AA@
	push	OFFSET _elnames
	call	_sprintf
	add	esp, 12					; 0000000cH
	mov	eax, OFFSET _elnames
	jmp	SHORT $LN26@unstar
$LN25@unstar:
	mov	eax, OFFSET ??_C@_00CNPNBAHC@?$AA@
$LN26@unstar:
	push	eax
	push	OFFSET ??_C@_0CI@PBJACFDO@Unstarring?5failed?0?5vertex?5?$CFs?5is?5@
$LN93@unstar:
	mov	eax, DWORD PTR _msg
	push	eax
	call	_sprintf

; 245  :       outstring(msg);

	mov	ecx, DWORD PTR _msg
	push	ecx
	call	_outstring
	add	esp, 16					; 00000010H
$LN18@unstar:

; 246  :     }
; 247  :     return -1;

	pop	edi
	pop	esi
	or	eax, -1
	pop	ebx

; 338  : } /* end unstar() */

	mov	esp, ebp
	pop	ebp
	ret	0
$LN19@unstar:

; 248  :   }
; 249  :   if ( get_vertex_evalence(v_id) != 3 )  /* not lonesome star */

	mov	edx, DWORD PTR _v_id$[ebp]
	push	edx
	call	_get_vertex_evalence
	add	esp, 4
	cmp	eax, 3
	je	SHORT $LN17@unstar

; 250  :   { if ( verbose_flag )

	cmp	DWORD PTR _verbose_flag, 0
	je	SHORT $LN16@unstar

; 251  :     { sprintf(msg,"Unstarring failed, vertex %s has valence %d\n",
; 252  :                 ELNAME(v_id),get_vertex_evalence(v_id));

	mov	edi, DWORD PTR _v_id$[ebp]
	test	edi, 268435456				; 10000000H
	je	SHORT $LN27@unstar
	mov	eax, DWORD PTR tv979[ebp]
	inc	eax
	push	eax
	push	OFFSET ??_C@_02DPKJAMEF@?$CFd?$AA@
	push	OFFSET _elnames
	call	_sprintf
	add	esp, 12					; 0000000cH
	mov	esi, OFFSET _elnames
	jmp	SHORT $LN28@unstar
$LN27@unstar:
	mov	esi, OFFSET ??_C@_00CNPNBAHC@?$AA@
$LN28@unstar:
	push	edi
	call	_get_vertex_evalence
	mov	ecx, DWORD PTR _msg
	push	eax
	push	esi
	push	OFFSET ??_C@_0CN@LBAIDHJO@Unstarring?5failed?0?5vertex?5?$CFs?5has@
	push	ecx
	call	_sprintf

; 253  :       outstring(msg);

	mov	edx, DWORD PTR _msg
	push	edx
	call	_outstring
	add	esp, 24					; 00000018H
$LN16@unstar:

; 254  :     }
; 255  :     return -1;

	pop	edi
	pop	esi
	or	eax, -1
	pop	ebx

; 338  : } /* end unstar() */

	mov	esp, ebp
	pop	ebp
	ret	0
$LN17@unstar:

; 256  :   }
; 257  :   if ( !equal_id(fe_c,get_next_facet(fe_d)) ) 

	cmp	DWORD PTR tv909[ebp], 0
	mov	ecx, DWORD PTR _web+460
	je	SHORT $LN82@unstar
	mov	eax, DWORD PTR [edi+ecx]
	mov	eax, DWORD PTR [eax+36]
	xor	eax, 134217728				; 08000000H
	jmp	SHORT $LN81@unstar
$LN82@unstar:
	mov	edx, DWORD PTR [edi+ecx]
	mov	eax, DWORD PTR [edx+40]
$LN81@unstar:
	cmp	DWORD PTR _fe_c$[ebp], eax
	je	SHORT $LN15@unstar

; 258  :   { if ( verbose_flag )

	cmp	DWORD PTR _verbose_flag, 0
	je	$LN18@unstar

; 259  :     { sprintf(msg,"Unstarring failed, triple valence edge %s\n",
; 260  :                 ELNAME(get_fe_edge(fe_c)));

	mov	eax, DWORD PTR tv897[ebp]
	mov	ecx, DWORD PTR [eax+ecx]
	test	DWORD PTR [ecx+20], 268435456		; 10000000H
	je	SHORT $LN29@unstar
	mov	edx, DWORD PTR _fe_c$[ebp]
	push	edx
$LN95@unstar:
	call	_get_fe_edge
	and	eax, 134217727				; 07ffffffH
	inc	eax
	push	eax
	push	OFFSET ??_C@_02DPKJAMEF@?$CFd?$AA@
	push	OFFSET _elnames
	call	_sprintf
	add	esp, 16					; 00000010H
	mov	eax, OFFSET _elnames
	push	eax
	push	OFFSET ??_C@_0CL@JIOENPHF@Unstarring?5failed?0?5triple?5valenc@

; 261  :       outstring(msg);
; 262  :     }
; 263  :     return -1;

	jmp	$LN93@unstar
$LN29@unstar:

; 259  :     { sprintf(msg,"Unstarring failed, triple valence edge %s\n",
; 260  :                 ELNAME(get_fe_edge(fe_c)));

	mov	eax, OFFSET ??_C@_00CNPNBAHC@?$AA@
	push	eax
	push	OFFSET ??_C@_0CL@JIOENPHF@Unstarring?5failed?0?5triple?5valenc@

; 261  :       outstring(msg);
; 262  :     }
; 263  :     return -1;

	jmp	$LN93@unstar
$LN15@unstar:

; 264  :   }
; 265  :   if ( !equal_id(fe_e,get_next_facet(fe_g))  )

	mov	edx, DWORD PTR _fe_g$[ebp]
	push	edx
	call	_get_next_facet
	add	esp, 4
	cmp	ebx, eax
	je	SHORT $LN13@unstar

; 266  :   { if ( verbose_flag )

	cmp	DWORD PTR _verbose_flag, 0
	je	$LN18@unstar

; 267  :     { sprintf(msg,"Unstarring failed, triple valence edge %s\n",
; 268  :              ELNAME(get_fe_edge(fe_e)));

	push	ebx
	call	_get_fe_edge
	add	esp, 4
	test	eax, 268435456				; 10000000H
	je	SHORT $LN29@unstar
	push	ebx
	jmp	SHORT $LN95@unstar
$LN13@unstar:

; 269  :       outstring(msg);
; 270  :     }
; 271  :     return -1;
; 272  :   }
; 273  :   if ( !equal_id(inverse_id(fe_a),get_next_facet(fe_i)) ) 

	mov	edx, DWORD PTR _fe_i$[ebp]
	mov	edi, DWORD PTR _fe_a$[ebp]
	push	edx
	xor	edi, 134217728				; 08000000H
	call	_get_next_facet
	add	esp, 4
	cmp	edi, eax
	je	SHORT $LN11@unstar
$LN96@unstar:

; 274  :   { if ( verbose_flag )

	cmp	DWORD PTR _verbose_flag, 0
	je	$LN18@unstar

; 275  :     { sprintf(msg,"Unstarring failed, triple valence edge %s\n",
; 276  :               ELNAME(get_fe_edge(fe_a)));

	mov	esi, DWORD PTR _fe_a$[ebp]
	push	esi
	call	_get_fe_edge
	add	esp, 4
	test	eax, 268435456				; 10000000H
	je	SHORT $LN29@unstar
	push	esi
	jmp	$LN95@unstar
$LN11@unstar:

; 277  :       outstring(msg);
; 278  :     }
; 279  :     return -1;
; 280  :   }
; 281  :   if ( !equal_id(inverse_id(fe_a),get_prev_facet(fe_i)) )

	mov	edx, DWORD PTR _fe_i$[ebp]
	push	edx
	call	_get_prev_facet
	add	esp, 4
	cmp	edi, eax

; 282  :   { if ( verbose_flag )
; 283  :     { sprintf(msg,"Unstarring failed, triple valence edge %s\n",
; 284  :             ELNAME(get_fe_edge(fe_a)));

	jne	SHORT $LN96@unstar

; 285  :       outstring(msg);
; 286  :     }
; 287  :     return -1;
; 288  :   }
; 289  : 
; 290  :   // Check compatibility of constraints
; 291  :   acomp = compare_edge_facet_attr(get_fe_edge(fe_a),fkeep);

	mov	edi, DWORD PTR _fkeep$[ebp]
	mov	edx, DWORD PTR _fe_a$[ebp]
	push	edi
	push	edx
	call	_get_fe_edge
	add	esp, 4
	push	eax
	call	_compare_edge_facet_attr
	add	esp, 8
	mov	DWORD PTR _acomp$[ebp], eax

; 292  :   ccomp = compare_edge_facet_attr(get_fe_edge(fe_c),fkeep);

	mov	eax, DWORD PTR _fe_c$[ebp]
	push	edi
	push	eax
	call	_get_fe_edge
	add	esp, 4
	push	eax
	call	_compare_edge_facet_attr
	add	esp, 8

; 293  :   ecomp = compare_edge_facet_attr(get_fe_edge(fe_e),fkeep);

	push	edi
	push	ebx
	mov	DWORD PTR _ccomp$[ebp], eax
	call	_get_fe_edge
	add	esp, 4
	push	eax
	call	_compare_edge_facet_attr
	add	esp, 8

; 294  :   if ( !(acomp==A_SUB_B || acomp==A_EQ_B) || !(ccomp==A_SUB_B || ccomp==A_EQ_B) 
; 295  :        || !(ecomp==A_SUB_B || ecomp==A_EQ_B) )

	cmp	DWORD PTR _acomp$[ebp], 1
	je	SHORT $LN5@unstar
	cmp	DWORD PTR _acomp$[ebp], 2
	jne	SHORT $LN6@unstar
$LN5@unstar:
	mov	ecx, DWORD PTR _ccomp$[ebp]
	cmp	ecx, 1
	je	SHORT $LN4@unstar
	cmp	ecx, 2
	jne	SHORT $LN6@unstar
$LN4@unstar:
	cmp	eax, 1
	je	SHORT $LN7@unstar
	cmp	eax, 2
	je	SHORT $LN7@unstar
$LN6@unstar:

; 296  :           { if ( verbose_flag )

	cmp	DWORD PTR _verbose_flag, 0
	je	$LN18@unstar

; 297  :             { sprintf(msg,
; 298  :              "Can't unstar at vertex %s due to constraints.\n",ELNAME(v_id));

	test	DWORD PTR _v_id$[ebp], 268435456	; 10000000H
	je	SHORT $LN37@unstar
	mov	ecx, DWORD PTR tv979[ebp]
	inc	ecx
	push	ecx
	push	OFFSET ??_C@_02DPKJAMEF@?$CFd?$AA@
	push	OFFSET _elnames
	call	_sprintf
	add	esp, 12					; 0000000cH
	mov	eax, OFFSET _elnames
	jmp	SHORT $LN38@unstar
$LN37@unstar:
	mov	eax, OFFSET ??_C@_00CNPNBAHC@?$AA@
$LN38@unstar:
	mov	edx, DWORD PTR _msg
	push	eax
	push	OFFSET ??_C@_0CP@JOHCIHEB@Can?8t?5unstar?5at?5vertex?5?$CFs?5due?5to@
	push	edx
	call	_sprintf

; 299  :                outstring(msg);

	mov	eax, DWORD PTR _msg
	push	eax
	call	_outstring
	add	esp, 16					; 00000010H
	pop	edi
	pop	esi
	or	eax, -1
	pop	ebx

; 338  : } /* end unstar() */

	mov	esp, ebp
	pop	ebp
	ret	0
$LN7@unstar:

; 300  :             }
; 301  :             return -1; 
; 302  :           }
; 303  : 
; 304  :   /* fix up body links */
; 305  :   f_id = get_fe_facet(fe_e);

	push	ebx
	call	_get_fe_facet
	mov	edi, eax

; 306  :   b_id = get_facet_body(f_id);

	push	edi
	call	_get_facet_body
	add	esp, 8

; 307  :   if ( valid_id(b_id) ) set_body_facet(b_id,f_id);

	test	eax, 268435456				; 10000000H
	je	SHORT $LN2@unstar
	push	edi
	push	eax
	call	_set_body_facet
	add	esp, 8
$LN2@unstar:

; 308  :   b_id = get_facet_body(inverse_id(f_id));

	xor	edi, 134217728				; 08000000H
	push	edi
	call	_get_facet_body
	add	esp, 4

; 309  :   if ( valid_id(b_id) ) set_body_facet(b_id,inverse_id(f_id));

	test	eax, 268435456				; 10000000H
	je	SHORT $LN1@unstar
	push	edi
	push	eax
	call	_set_body_facet
	add	esp, 8
$LN1@unstar:

; 310  : 
; 311  :   /* fix up fe's around edges of new big facet */
; 312  :   set_fe_facet(fe_f,inverse_id(fkeep));

	mov	edi, DWORD PTR _fkeep$[ebp]
	mov	edx, DWORD PTR _fe_f$[ebp]
	mov	ecx, edi
	xor	ecx, 134217728				; 08000000H
	push	ecx
	push	edx
	call	_set_fe_facet

; 313  :   set_fe_facet(fe_h,fkeep);

	push	edi
	push	esi
	call	_set_fe_facet

; 314  :   set_facet_fe(fkeep,fe_b);

	mov	eax, DWORD PTR _fe_b$[ebp]
	push	eax
	push	edi
	call	_set_facet_fe

; 315  :   set_next_edge(fe_b,inverse_id(fe_f));

	mov	edi, DWORD PTR _fe_f$[ebp]
	mov	ecx, DWORD PTR _fe_b$[ebp]
	xor	edi, 134217728				; 08000000H
	push	edi
	push	ecx
	call	_set_next_edge

; 316  :   set_next_edge(fe_f,inverse_id(fe_b));

	mov	edx, DWORD PTR _fe_b$[ebp]
	mov	eax, DWORD PTR _fe_f$[ebp]
	xor	edx, 134217728				; 08000000H
	push	edx
	push	eax
	call	_set_next_edge

; 317  :   set_prev_edge(fe_f,inverse_id(fe_h));

	mov	edx, DWORD PTR _fe_f$[ebp]
	mov	ecx, esi
	xor	ecx, 134217728				; 08000000H
	push	ecx
	push	edx
	call	_set_prev_edge

; 318  :   set_prev_edge(fe_h,inverse_id(fe_f));

	push	edi
	push	esi
	call	_set_prev_edge

; 319  :   set_next_edge(fe_h,fe_b);

	mov	edi, DWORD PTR _fe_b$[ebp]
	push	edi
	push	esi
	call	_set_next_edge
	add	esp, 64					; 00000040H

; 320  :   set_prev_edge(fe_b,fe_h);

	push	esi
	push	edi
	call	_set_prev_edge

; 321  : 
; 322  :   /* discard */
; 323  :   free_element(get_fe_facet(fe_e));

	push	ebx
	call	_get_fe_facet
	push	eax
	call	_free_element

; 324  :   free_element(get_fe_facet(fe_i));

	mov	esi, DWORD PTR _fe_i$[ebp]
	push	esi
	call	_get_fe_facet
	push	eax
	call	_free_element

; 325  :   free_element(get_fe_edge(fe_a));

	mov	eax, DWORD PTR _fe_a$[ebp]
	push	eax
	call	_get_fe_edge
	push	eax
	call	_free_element

; 326  :   free_element(get_fe_edge(fe_d));

	mov	edi, DWORD PTR _fe_d$[ebp]
	push	edi
	call	_get_fe_edge
	push	eax
	call	_free_element

; 327  :   free_element(get_fe_edge(fe_e));

	push	ebx
	call	_get_fe_edge
	push	eax
	call	_free_element

; 328  :   free_element(fe_a);

	mov	ecx, DWORD PTR _fe_a$[ebp]
	push	ecx
	call	_free_element

; 329  :   free_element(fe_c);

	mov	edx, DWORD PTR _fe_c$[ebp]
	push	edx
	call	_free_element

; 330  :   free_element(fe_d);

	push	edi
	call	_free_element

; 331  :   free_element(fe_e);

	push	ebx
	call	_free_element

; 332  :   free_element(fe_g);

	mov	eax, DWORD PTR _fe_g$[ebp]
	add	esp, 64					; 00000040H
	push	eax
	call	_free_element

; 333  :   free_element(fe_i);

	push	esi
	call	_free_element

; 334  :   free_element(v_id);

	mov	ecx, DWORD PTR _v_id$[ebp]
	push	ecx
	call	_free_element

; 335  : 
; 336  :   top_timestamp = ++global_timestamp;

	mov	eax, DWORD PTR _global_timestamp
	add	esp, 12					; 0000000cH
	inc	eax
	pop	edi
	pop	esi
	mov	DWORD PTR _global_timestamp, eax
	mov	DWORD PTR _top_timestamp, eax

; 337  :   return 1;

	mov	eax, 1
	pop	ebx

; 338  : } /* end unstar() */

	mov	esp, ebp
	pop	ebp
	ret	0
_unstar	ENDP
_TEXT	ENDS
PUBLIC	??_C@_0EH@DAGLDMDM@Edge?5?$CFs?5not?5deleted?5due?5to?5adjac@ ; `string'
PUBLIC	_simple_unstar
EXTRN	_kb_error:PROC
EXTRN	_errmsg:BYTE
;	COMDAT ??_C@_0EH@DAGLDMDM@Edge?5?$CFs?5not?5deleted?5due?5to?5adjac@
; File c:\levolver\yonkang-sefit\levolver\ev_ogl\inline.h
CONST	SEGMENT
??_C@_0EH@DAGLDMDM@Edge?5?$CFs?5not?5deleted?5due?5to?5adjac@ DB 'Edge %s'
	DB	' not deleted due to adjacent configuration involving facet %s'
	DB	'.', 0aH, 00H				; `string'
; Function compile flags: /Ogtp
; File c:\levolver\yonkang-sefit\levolver\ev_ogl\modify.c
CONST	ENDS
;	COMDAT _simple_unstar
_TEXT	SEGMENT
tv502 = -8						; size = 4
_facet$ = -4						; size = 4
_base_fe$ = 8						; size = 4
_simple_unstar PROC					; COMDAT

; 351  : {

	push	ebp
	mov	ebp, esp

; 352  :       facetedge_id aa,bb;   
; 353  :       facetedge_id a=0;  /* for edge to be merged */
; 354  :       facetedge_id b=0;  /* for edge to be merged with */
; 355  :       facetedge_id a_next=0,b_next=0;
; 356  :                  /* facet chain links around edges a,b */
; 357  :       edge_id  a_edge=0; /* edge of side a */
; 358  :       edge_id  b_edge=0; /* edge of side b */
; 359  :       facet_id  facet;  /* facet to be eliminated */ 
; 360  :       int retval = 1;
; 361  : 
; 362  :       /* check we really have a facet */
; 363  :       facet = get_fe_facet(base_fe);

	mov	eax, DWORD PTR _base_fe$[ebp]
	sub	esp, 8
	push	ebx
	mov	ebx, DWORD PTR _web+460
	test	eax, 268435456				; 10000000H
	jne	SHORT $LN15@simple_uns
	mov	ecx, DWORD PTR _NULLFACET
	jmp	SHORT $LN14@simple_uns
$LN15@simple_uns:
	mov	edx, eax
	and	edx, 134217727				; 07ffffffH
	mov	ecx, DWORD PTR [ebx+edx*4]
	mov	ecx, DWORD PTR [ecx+24]
	test	eax, 134217728				; 08000000H
	je	SHORT $LN14@simple_uns
	xor	ecx, 134217728				; 08000000H
$LN14@simple_uns:
	mov	DWORD PTR _facet$[ebp], ecx

; 364  :       if ( !valid_id(facet) ) return 1;

	test	ecx, 268435456				; 10000000H
	jne	SHORT $LN57@simple_uns
	mov	eax, 1
	pop	ebx

; 398  :      
; 399  : } /* end simple_unstar() */

	mov	esp, ebp
	pop	ebp
	ret	0
$LN57@simple_uns:
	push	esi
	push	edi
$LL6@simple_uns:

; 365  : 
; 366  :       /* label relevant edges and */
; 367  :       /* see if we have an adjacent starred triangle which will give
; 368  :           trouble if we don't unstar it */
; 369  :       for(;;)  /* may take multiple passes for total unstarring */
; 370  :       { 
; 371  :         int unstar_count = 0;
; 372  : 
; 373  :           a = get_next_edge(base_fe);

	push	eax
	call	_get_next_edge

; 374  :           a_edge = get_fe_edge(a);
; 375  :           if ( get_vattr(get_edge_headv(a_edge)) & AXIAL_POINT ) return 1;

	mov	edi, DWORD PTR _dymem
	mov	edx, eax
	and	edx, 134217727				; 07ffffffH
	mov	ecx, DWORD PTR [ebx+edx*4]
	mov	edx, DWORD PTR _web+124
	mov	esi, eax
	and	esi, 134217728				; 08000000H
	xor	esi, DWORD PTR [ecx+20]
	mov	DWORD PTR tv502[ebp], ecx
	mov	ecx, esi
	and	ecx, 134217727				; 07ffffffH
	mov	ecx, DWORD PTR [edx+ecx*4]
	mov	edx, DWORD PTR _web+216
	add	esp, 4
	test	esi, 134217728				; 08000000H
	je	SHORT $LN21@simple_uns
	mov	edx, DWORD PTR [edx+edi+304]
	mov	ecx, DWORD PTR [ecx+edx]
	jmp	SHORT $LN20@simple_uns
$LN21@simple_uns:
	add	ecx, DWORD PTR [edx+edi+304]
	mov	edx, DWORD PTR _web+636
	mov	ecx, DWORD PTR [ecx+edx*4]
$LN20@simple_uns:
	mov	edx, DWORD PTR _web+12
	and	ecx, 134217727				; 07ffffffH
	mov	ecx, DWORD PTR [edx+ecx*4]
	mov	ecx, DWORD PTR [ecx+8]
	and	ecx, 8388608				; 00800000H
	xor	edx, edx
	or	ecx, edx
	jne	$LN54@simple_uns

; 376  :           a_next = get_next_facet(a);

	test	eax, 134217728				; 08000000H
	je	SHORT $LN25@simple_uns
	mov	eax, DWORD PTR tv502[ebp]
	mov	edi, DWORD PTR [eax+36]
	xor	edi, 134217728				; 08000000H
	jmp	SHORT $LN24@simple_uns
$LN25@simple_uns:
	mov	ecx, DWORD PTR tv502[ebp]
	mov	edi, DWORD PTR [ecx+40]
$LN24@simple_uns:

; 377  :           b = get_prev_edge(base_fe);

	mov	edx, DWORD PTR _base_fe$[ebp]
	push	edx
	call	_get_prev_edge

; 378  :           b_edge = get_fe_edge(b);

	mov	ecx, eax
	and	ecx, 134217727				; 07ffffffH
	mov	edx, DWORD PTR [ebx+ecx*4]
	mov	ecx, eax
	and	ecx, 134217728				; 08000000H
	xor	ecx, DWORD PTR [edx+20]
	add	esp, 4

; 379  :           b_next = get_next_facet(b);

	test	eax, 134217728				; 08000000H
	je	SHORT $LN31@simple_uns
	mov	eax, DWORD PTR [edx+36]
	xor	eax, 134217728				; 08000000H
	jmp	SHORT $LN30@simple_uns
$LN31@simple_uns:
	mov	eax, DWORD PTR [edx+40]
$LN30@simple_uns:

; 380  :           if ( equal_element(a_edge,b_edge) ) return 1;

	or	ecx, 134217728				; 08000000H
	or	esi, 134217728				; 08000000H
	cmp	esi, ecx
	je	$LN54@simple_uns

; 381  :           aa = get_next_edge(a_next);

	test	edi, 134217728				; 08000000H
	je	SHORT $LN35@simple_uns
	and	edi, 134217727				; 07ffffffH
	mov	edx, DWORD PTR [ebx+edi*4]
	mov	ecx, DWORD PTR [edx+28]
	xor	ecx, 134217728				; 08000000H
	jmp	SHORT $LN34@simple_uns
$LN35@simple_uns:
	and	edi, 134217727				; 07ffffffH
	mov	ecx, DWORD PTR [ebx+edi*4]
	mov	ecx, DWORD PTR [ecx+32]
$LN34@simple_uns:

; 382  :           bb = get_prev_edge(b_next);

	test	eax, 134217728				; 08000000H
	je	SHORT $LN39@simple_uns
	and	eax, 134217727				; 07ffffffH
	mov	edx, DWORD PTR [ebx+eax*4]
	mov	eax, DWORD PTR [edx+32]
	xor	eax, 134217728				; 08000000H
	jmp	SHORT $LN38@simple_uns
$LN39@simple_uns:
	and	eax, 134217727				; 07ffffffH
	mov	eax, DWORD PTR [ebx+eax*4]
	mov	eax, DWORD PTR [eax+28]
$LN38@simple_uns:

; 383  : 
; 384  :           if ( !equal_id(get_next_facet(aa),inverse_id(bb)) )

	mov	edx, ecx
	and	edx, 134217727				; 07ffffffH
	mov	edx, DWORD PTR [ebx+edx*4]
	test	ecx, 134217728				; 08000000H
	je	SHORT $LN43@simple_uns
	mov	edx, DWORD PTR [edx+36]
	xor	edx, 134217728				; 08000000H
	jmp	SHORT $LN42@simple_uns
$LN43@simple_uns:
	mov	edx, DWORD PTR [edx+40]
$LN42@simple_uns:
	xor	eax, 134217728				; 08000000H
	cmp	edx, eax
	jne	SHORT $LN54@simple_uns

; 386  :          
; 387  :           retval  = unstar(aa); 

	push	ecx
	call	_unstar
	add	esp, 4

; 388  :           if ( retval < 0 )

	test	eax, eax
	js	SHORT $LN55@simple_uns

; 394  :           }
; 395  :             unstar_count++;
; 396  :   
; 397  :         } /* end for loop */

	mov	ebx, DWORD PTR _web+460
	mov	eax, DWORD PTR _base_fe$[ebp]
	jmp	$LL6@simple_uns
$LN54@simple_uns:
	pop	edi
	pop	esi

; 385  :             return 1; /* no star */

	mov	eax, 1
	pop	ebx

; 398  :      
; 399  : } /* end simple_unstar() */

	mov	esp, ebp
	pop	ebp
	ret	0
$LN55@simple_uns:

; 389  :           { sprintf(errmsg,
; 390  :             "Edge %s not deleted due to adjacent configuration involving facet %s.\n",
; 391  :                                  ELNAME(get_fe_edge(base_fe)),ELNAME1(facet));

	mov	eax, DWORD PTR _facet$[ebp]
	and	eax, 134217727				; 07ffffffH
	inc	eax
	push	eax
	push	OFFSET ??_C@_02DPKJAMEF@?$CFd?$AA@
	push	OFFSET _elnames+30
	call	_sprintf
	mov	eax, DWORD PTR _base_fe$[ebp]
	mov	ecx, DWORD PTR _web+460
	and	eax, 134217727				; 07ffffffH
	mov	edx, DWORD PTR [ecx+eax*4]
	mov	eax, DWORD PTR [edx+20]
	add	esp, 12					; 0000000cH
	test	eax, 268435456				; 10000000H
	je	SHORT $LN12@simple_uns
	and	eax, 134217727				; 07ffffffH
	inc	eax
	push	eax
	push	OFFSET ??_C@_02DPKJAMEF@?$CFd?$AA@
	push	OFFSET _elnames
	call	_sprintf
	add	esp, 12					; 0000000cH
	mov	eax, OFFSET _elnames
	jmp	SHORT $LN13@simple_uns
$LN12@simple_uns:
	mov	eax, OFFSET ??_C@_00CNPNBAHC@?$AA@
$LN13@simple_uns:
	push	OFFSET _elnames+30
	push	eax
	push	OFFSET ??_C@_0EH@DAGLDMDM@Edge?5?$CFs?5not?5deleted?5due?5to?5adjac@
	push	OFFSET _errmsg
	call	_sprintf

; 392  :               kb_error(1903,errmsg,WARNING);

	push	2
	push	OFFSET _errmsg
	push	1903					; 0000076fH
	call	_kb_error
	add	esp, 28					; 0000001cH
	pop	edi
	pop	esi

; 393  :               return -1;

	or	eax, -1
	pop	ebx

; 398  :      
; 399  : } /* end simple_unstar() */

	mov	esp, ebp
	pop	ebp
	ret	0
_simple_unstar ENDP
_TEXT	ENDS
PUBLIC	_finagle_comp
; Function compile flags: /Ogtp
;	COMDAT _finagle_comp
_TEXT	SEGMENT
_a$ = 8							; size = 4
_b$ = 12						; size = 4
_finagle_comp PROC					; COMDAT

; 418  : { if ( a->v_id < b->v_id ) return -1;

	push	ebp
	mov	ebp, esp
	mov	edx, DWORD PTR _a$[ebp]
	mov	eax, DWORD PTR [edx+4]
	push	esi
	mov	esi, DWORD PTR _b$[ebp]
	mov	ecx, DWORD PTR [esi+4]
	cmp	eax, ecx
	jae	SHORT $LN7@finagle_co
$LN9@finagle_co:
	or	eax, -1
	pop	esi

; 422  :   return 0;
; 423  : }

	pop	ebp
	ret	0
$LN7@finagle_co:

; 419  :   if ( a->v_id > b->v_id ) return  1;

	jbe	SHORT $LN3@finagle_co
	mov	eax, 1
	pop	esi

; 422  :   return 0;
; 423  : }

	pop	ebp
	ret	0
$LN3@finagle_co:

; 420  :   if ( a->e_id < b->e_id ) return -1;

	mov	eax, DWORD PTR [edx]
	mov	ecx, DWORD PTR [esi]
	cmp	ecx, eax
	ja	SHORT $LN9@finagle_co

; 421  :   if ( a->e_id > b->e_id ) return  1;

	sbb	eax, eax
	neg	eax
	pop	esi

; 422  :   return 0;
; 423  : }

	pop	ebp
	ret	0
_finagle_comp ENDP
_TEXT	ENDS
PUBLIC	__real@3fe999999999999a
PUBLIC	??_C@_0EM@PDLKAJMH@Internal?5error?3?5star_finagle?$CI?$CJ?5e@ ; `string'
PUBLIC	__$ArrayPad$
PUBLIC	_star_finagle
EXTRN	_edge_refine:PROC
EXTRN	_dot:PROC
EXTRN	_get_edge_side:PROC
EXTRN	_sym_compose:DWORD
EXTRN	_qsort:PROC
EXTRN	___security_cookie:DWORD
EXTRN	@__security_check_cookie@4:PROC
EXTRN	__CIsqrt:PROC
;	COMDAT __real@3fe999999999999a
; File c:\levolver\yonkang-sefit\levolver\ev_ogl\inline.h
CONST	SEGMENT
__real@3fe999999999999a DQ 03fe999999999999ar	; 0.8
CONST	ENDS
;	COMDAT ??_C@_0EM@PDLKAJMH@Internal?5error?3?5star_finagle?$CI?$CJ?5e@
CONST	SEGMENT
??_C@_0EM@PDLKAJMH@Internal?5error?3?5star_finagle?$CI?$CJ?5e@ DB 'Intern'
	DB	'al error: star_finagle() edge %s: head_valence %d != tail_val'
	DB	'ence %d', 0aH, 00H				; `string'
; Function compile flags: /Ogtp
; File c:\levolver\yonkang-sefit\levolver\ev_ogl\modify.c
CONST	ENDS
;	COMDAT _star_finagle
_TEXT	SEGMENT
_aa$ = -1832						; size = 8
tv1165 = -1824						; size = 8
_ab$ = -1816						; size = 8
tv1355 = -1808						; size = 8
_bc$ = -1808						; size = 8
_bb$ = -1800						; size = 8
_flatflag$89424 = -1792					; size = 4
tv1357 = -1788						; size = 8
_ac$ = -1788						; size = 8
tv1397 = -1784						; size = 4
_start_fe$ = -1780					; size = 4
tv1532 = -1776						; size = 4
tv1057 = -1776						; size = 4
tv1536 = -1772						; size = 4
tv1016 = -1772						; size = 4
_w1$89399 = -1768					; size = 4
_i$ = -1768						; size = 4
tv1534 = -1764						; size = 4
tv1484 = -1764						; size = 4
_w2$89400 = -1764					; size = 4
tv1530 = -1760						; size = 4
tv1486 = -1760						; size = 4
_keeps$ = -1760						; size = 4
_head_valence$ = -1756					; size = 4
_tail_valence$ = -1752					; size = 4
_tail_edges$ = -1748					; size = 800
_head_edges$ = -948					; size = 800
_side1$ = -148						; size = 48
_side2$ = -100						; size = 48
_side3$ = -52						; size = 48
__$ArrayPad$ = -4					; size = 4
_e_id$ = 8						; size = 4
_star_finagle PROC					; COMDAT

; 426  : { struct finagle tail_edges[100];  /* tails into e_id tail */

	push	ebp
	mov	ebp, esp
	sub	esp, 1832				; 00000728H
	mov	eax, DWORD PTR ___security_cookie
	xor	eax, ebp
	mov	DWORD PTR __$ArrayPad$[ebp], eax

; 428  :   struct finagle head_edges[100];  /* heads into e_id head */
; 429  :   int head_valence = 0;
; 430  :   int i,j;
; 431  :   edge_id ee_id;
; 432  :   int keeps;
; 433  :   facetedge_id start_fe,fe_id;
; 434  :   REAL side1[MAXCOORD],side2[MAXCOORD],side3[MAXCOORD];
; 435  :   REAL aa,bb,cc,ab,ac,bc;
; 436  : 
; 437  :   /* get edge lists from the two vertices */
; 438  :   ee_id = e_id;

	mov	eax, DWORD PTR _e_id$[ebp]
	mov	ecx, DWORD PTR _web+124
	push	ebx
	push	esi
	mov	esi, DWORD PTR _web+216
	xor	ebx, ebx
	push	edi
	mov	edi, DWORD PTR _dymem
	mov	DWORD PTR _head_valence$[ebp], ebx
$LN159@star_finag:

; 427  :   int tail_valence = 0;

	mov	DWORD PTR _tail_valence$[ebp], ebx
	npad	7
$LL50@star_finag:

; 439  :   do
; 440  :   { ee_id = get_next_tail_edge(ee_id); 

	mov	edx, eax
	shr	edx, 27					; 0000001bH
	and	eax, 134217727				; 07ffffffH
	mov	eax, DWORD PTR [ecx+eax*4]
	and	edx, 1
	mov	eax, DWORD PTR [eax+edx*4+32]

; 441  :     if ( !equal_id(e_id,ee_id) && tail_valence < 99 )

	mov	edx, DWORD PTR _e_id$[ebp]
	cmp	edx, eax
	je	SHORT $LN143@star_finag
	cmp	ebx, 99					; 00000063H
	jge	SHORT $LL50@star_finag

; 442  :     { tail_edges[tail_valence].e_id = ee_id;
; 443  :       tail_edges[tail_valence++].v_id = get_edge_headv(ee_id);

	mov	edx, eax
	and	edx, 134217727				; 07ffffffH
	mov	DWORD PTR _tail_edges$[ebp+ebx*8], eax
	mov	edx, DWORD PTR [ecx+edx*4]
	test	eax, 134217728				; 08000000H
	je	SHORT $LN58@star_finag
	mov	ebx, DWORD PTR [esi+edi+304]
	mov	edx, DWORD PTR [edx+ebx]
	mov	ebx, DWORD PTR _tail_valence$[ebp]
	mov	DWORD PTR _tail_edges$[ebp+ebx*8+4], edx
	inc	ebx

; 444  :     }
; 445  :   } while ( !equal_id(e_id,ee_id) );

	jmp	SHORT $LN159@star_finag

; 442  :     { tail_edges[tail_valence].e_id = ee_id;
; 443  :       tail_edges[tail_valence++].v_id = get_edge_headv(ee_id);

$LN58@star_finag:
	add	edx, DWORD PTR [esi+edi+304]
	mov	ebx, DWORD PTR _web+636
	mov	edx, DWORD PTR [edx+ebx*4]
	mov	ebx, DWORD PTR _tail_valence$[ebp]
	mov	DWORD PTR _tail_edges$[ebp+ebx*8+4], edx
	inc	ebx

; 444  :     }
; 445  :   } while ( !equal_id(e_id,ee_id) );

	jmp	SHORT $LN159@star_finag
$LN143@star_finag:

; 446  : 
; 447  :   ee_id = e_id;

	mov	eax, edx
$LL46@star_finag:

; 448  :   do
; 449  :   { ee_id = get_next_head_edge(ee_id); 

	mov	edx, eax
	shr	edx, 27					; 0000001bH
	and	eax, 134217727				; 07ffffffH
	mov	eax, DWORD PTR [ecx+eax*4]
	not	edx
	and	edx, 1
	mov	eax, DWORD PTR [eax+edx*4+32]
	xor	eax, 134217728				; 08000000H

; 450  :     if ( !equal_id(e_id,ee_id) && head_valence < 99 )

	cmp	DWORD PTR _e_id$[ebp], eax
	je	SHORT $LN142@star_finag
	mov	edx, DWORD PTR _head_valence$[ebp]
	cmp	edx, 99					; 00000063H
	jge	SHORT $LL46@star_finag

; 451  :     { head_edges[head_valence].e_id = ee_id;

	mov	DWORD PTR _head_edges$[ebp+edx*8], eax

; 452  :       head_edges[head_valence++].v_id = get_edge_tailv(ee_id);

	mov	edx, eax
	and	edx, 134217727				; 07ffffffH
	mov	edx, DWORD PTR [ecx+edx*4]
	test	eax, 134217728				; 08000000H
	je	SHORT $LN64@star_finag
	add	edx, DWORD PTR [esi+edi+304]
	mov	ebx, DWORD PTR _web+636
	mov	edx, DWORD PTR [edx+ebx*4]
	mov	ebx, DWORD PTR _head_valence$[ebp]
	mov	DWORD PTR _head_edges$[ebp+ebx*8+4], edx
	inc	ebx
	mov	DWORD PTR _head_valence$[ebp], ebx

; 453  :     }
; 454  :   } while ( !equal_id(e_id,ee_id) );

	mov	ebx, DWORD PTR _tail_valence$[ebp]
	jmp	SHORT $LL46@star_finag

; 452  :       head_edges[head_valence++].v_id = get_edge_tailv(ee_id);

$LN64@star_finag:
	mov	ebx, DWORD PTR [esi+edi+304]
	mov	edx, DWORD PTR [edx+ebx]
	mov	ebx, DWORD PTR _head_valence$[ebp]
	mov	DWORD PTR _head_edges$[ebp+ebx*8+4], edx
	inc	ebx
	mov	DWORD PTR _head_valence$[ebp], ebx

; 453  :     }
; 454  :   } while ( !equal_id(e_id,ee_id) );

	mov	ebx, DWORD PTR _tail_valence$[ebp]
	jmp	$LL46@star_finag
$LN142@star_finag:

; 455  : 
; 456  :   /* sort by other endpoint */
; 457  :   qsort(tail_edges,tail_valence,sizeof(struct finagle),FCAST finagle_comp);

	push	OFFSET _finagle_comp
	push	8
	lea	eax, DWORD PTR _tail_edges$[ebp]
	push	ebx
	push	eax
	call	_qsort

; 458  :   qsort(head_edges,head_valence,sizeof(struct finagle),FCAST finagle_comp);

	mov	ecx, DWORD PTR _head_valence$[ebp]
	push	OFFSET _finagle_comp
	push	8
	push	ecx
	lea	edx, DWORD PTR _head_edges$[ebp]
	push	edx
	call	_qsort

; 459  : 
; 460  :   /* keep only pairs of edges with same endpoints */
; 461  :   for ( i = j = keeps = 0 ; i < tail_valence && j < head_valence ;  )

	xor	ecx, ecx
	add	esp, 32					; 00000020H
	xor	edi, edi
	xor	esi, esi
	mov	DWORD PTR _keeps$[ebp], ecx
	test	ebx, ebx
	jle	$LN131@star_finag
$LL42@star_finag:
	cmp	edi, DWORD PTR _head_valence$[ebp]
	jge	$LN131@star_finag

; 462  :   { if ( tail_edges[i].v_id < head_edges[j].v_id )

	mov	eax, DWORD PTR _head_edges$[ebp+edi*8+4]
	mov	edx, DWORD PTR _tail_edges$[ebp+esi*8+4]
	cmp	edx, eax
	jae	SHORT $LN160@star_finag
$LL39@star_finag:

; 463  :       while ( tail_edges[i].v_id < head_edges[j].v_id ) i++;

	inc	esi
	cmp	DWORD PTR _tail_edges$[ebp+esi*8+4], eax
	jb	SHORT $LL39@star_finag

; 464  :     else

	jmp	SHORT $LN35@star_finag
$LN160@star_finag:

; 465  :       while ( tail_edges[i].v_id > head_edges[j].v_id ) j++;

	jbe	SHORT $LN35@star_finag
	mov	eax, edx
$LL36@star_finag:
	inc	edi
	cmp	eax, DWORD PTR _head_edges$[ebp+edi*8+4]
	ja	SHORT $LL36@star_finag
$LN35@star_finag:

; 466  :     if ( (i >= tail_valence) || (j >= head_valence) )

	cmp	esi, ebx
	jge	$LN131@star_finag
	cmp	edi, DWORD PTR _head_valence$[ebp]
	jge	$LN131@star_finag

; 467  :       break;
; 468  :     if ( tail_edges[i].v_id == head_edges[j].v_id ) 

	mov	eax, DWORD PTR _tail_edges$[ebp+esi*8+4]
	cmp	eax, DWORD PTR _head_edges$[ebp+edi*8+4]
	jne	$LN32@star_finag

; 469  :     { /* skip if nonzero wrap */
; 470  :       if ( web.symmetry_flag )

	cmp	DWORD PTR _web+856, 0
	je	$LN30@star_finag

; 471  :       { WRAPTYPE w1 = get_edge_wrap(inverse_id(tail_edges[i].e_id));

	mov	eax, DWORD PTR _tail_edges$[ebp+esi*8]
	mov	edx, DWORD PTR _web+124
	mov	ebx, DWORD PTR _dymem
	xor	eax, 134217728				; 08000000H
	mov	ecx, eax
	and	ecx, 134217727				; 07ffffffH
	mov	ecx, DWORD PTR [edx+ecx*4]
	mov	edx, DWORD PTR _web+216
	mov	edx, DWORD PTR [edx+ebx+784]
	mov	ecx, DWORD PTR [ecx+edx]
	test	eax, 134217728				; 08000000H
	je	SHORT $LN69@star_finag
	push	ecx
	call	DWORD PTR _sym_inverse
	add	esp, 4
	mov	DWORD PTR _w1$89399[ebp], eax
	jmp	SHORT $LN70@star_finag
$LN69@star_finag:
	mov	DWORD PTR _w1$89399[ebp], ecx
$LN70@star_finag:

; 472  :         WRAPTYPE w2 = get_edge_wrap(e_id);

	mov	ecx, DWORD PTR _e_id$[ebp]
	mov	edx, DWORD PTR _web+124
	mov	ebx, DWORD PTR _dymem
	mov	eax, ecx
	and	eax, 134217727				; 07ffffffH
	mov	eax, DWORD PTR [edx+eax*4]
	mov	edx, DWORD PTR _web+216
	mov	edx, DWORD PTR [edx+ebx+784]
	mov	eax, DWORD PTR [eax+edx]
	test	ecx, 134217728				; 08000000H
	je	SHORT $LN73@star_finag
	push	eax
	call	DWORD PTR _sym_inverse
	add	esp, 4
$LN73@star_finag:

; 473  :         WRAPTYPE w3 = get_edge_wrap(head_edges[j].e_id);

	mov	edx, DWORD PTR _web+124
	mov	ebx, DWORD PTR _dymem
	mov	DWORD PTR _w2$89400[ebp], eax
	mov	eax, DWORD PTR _head_edges$[ebp+edi*8]
	mov	ecx, eax
	and	ecx, 134217727				; 07ffffffH
	mov	ecx, DWORD PTR [edx+ecx*4]
	mov	edx, DWORD PTR _web+216
	mov	edx, DWORD PTR [edx+ebx+784]
	mov	ecx, DWORD PTR [ecx+edx]
	test	eax, 134217728				; 08000000H
	je	SHORT $LN77@star_finag
	push	ecx
	call	DWORD PTR _sym_inverse
	add	esp, 4
	mov	ebx, eax
	jmp	SHORT $LN78@star_finag
$LN77@star_finag:
	mov	ebx, ecx
$LN78@star_finag:

; 474  :         WRAPTYPE netwrap = (sym_compose)(w1,w2);

	mov	eax, DWORD PTR _w2$89400[ebp]
	mov	ecx, DWORD PTR _w1$89399[ebp]
	push	eax
	push	ecx
	call	DWORD PTR _sym_compose

; 475  :         netwrap = (*sym_compose)(netwrap,w3);

	push	ebx
	push	eax
	call	DWORD PTR _sym_compose

; 476  :         if ( netwrap != 0 )
; 477  :         { i++; j++;  continue;

	mov	ecx, DWORD PTR _keeps$[ebp]
	mov	ebx, DWORD PTR _tail_valence$[ebp]
	add	esp, 16					; 00000010H
	test	eax, eax
	je	SHORT $LN30@star_finag
	inc	esi
	inc	edi
	jmp	SHORT $LN32@star_finag
$LN30@star_finag:

; 478  :         }
; 479  :       }
; 480  :       tail_edges[keeps] = tail_edges[i]; i++;

	mov	edx, DWORD PTR _tail_edges$[ebp+esi*8]
	mov	DWORD PTR _tail_edges$[ebp+ecx*8], edx
	mov	eax, DWORD PTR _tail_edges$[ebp+esi*8+4]

; 481  :       head_edges[keeps] = head_edges[j]; j++;

	mov	edx, DWORD PTR _head_edges$[ebp+edi*8]
	mov	DWORD PTR _tail_edges$[ebp+ecx*8+4], eax
	mov	DWORD PTR _head_edges$[ebp+ecx*8], edx
	mov	eax, DWORD PTR _head_edges$[ebp+edi*8+4]
	inc	esi
	mov	DWORD PTR _head_edges$[ebp+ecx*8+4], eax
	inc	edi

; 482  :       keeps++;

	inc	ecx
	mov	DWORD PTR _keeps$[ebp], ecx
$LN32@star_finag:

; 459  : 
; 460  :   /* keep only pairs of edges with same endpoints */
; 461  :   for ( i = j = keeps = 0 ; i < tail_valence && j < head_valence ;  )

	cmp	esi, ebx
	jl	$LL42@star_finag
$LN131@star_finag:

; 483  :     }
; 484  :   }
; 485  :   tail_valence = head_valence = keeps;
; 486  : 
; 487  :   /* remove edges that are facet-adjacent to elim edge */
; 488  :   start_fe = fe_id = get_edge_fe(e_id);

	mov	edx, DWORD PTR _e_id$[ebp]
	mov	esi, DWORD PTR _web+124
	mov	eax, edx
	and	eax, 134217727				; 07ffffffH
	mov	DWORD PTR tv1016[ebp], eax
	mov	eax, DWORD PTR [esi+eax*4]
	mov	DWORD PTR _head_valence$[ebp], ecx
	mov	DWORD PTR _tail_valence$[ebp], ecx
	test	eax, eax
	je	SHORT $LN79@star_finag
$LN80@star_finag:
	mov	eax, DWORD PTR [eax+28]
	test	edx, 134217728				; 08000000H
	je	SHORT $LN79@star_finag
	xor	eax, 134217728				; 08000000H
$LN79@star_finag:
	mov	edi, DWORD PTR _web+460
	lea	edx, DWORD PTR _head_edges$[ebp+ecx*8]
	lea	ecx, DWORD PTR _tail_edges$[ebp+ecx*8]
	mov	DWORD PTR _start_fe$[ebp], eax
	mov	DWORD PTR tv1484[ebp], edx
	mov	DWORD PTR tv1486[ebp], ecx
$LL29@star_finag:

; 489  :   do
; 490  :   { edge_id e_a = get_fe_edge(get_prev_edge(fe_id));

	mov	edx, eax
	shr	edx, 27					; 0000001bH
	and	edx, 1
	mov	DWORD PTR tv1057[ebp], edx
	je	SHORT $LN84@star_finag
	and	eax, 134217727				; 07ffffffH
	mov	ecx, DWORD PTR [edi+eax*4]
	lea	esi, DWORD PTR [edi+eax*4]
	mov	eax, DWORD PTR [ecx+32]
	xor	eax, 134217728				; 08000000H
	jmp	SHORT $LN83@star_finag
$LN84@star_finag:
	and	eax, 134217727				; 07ffffffH
	mov	ecx, DWORD PTR [edi+eax*4]
	lea	esi, DWORD PTR [edi+eax*4]
	mov	eax, DWORD PTR [ecx+28]
$LN83@star_finag:
	mov	ebx, eax
	and	ebx, 134217727				; 07ffffffH
	mov	ebx, DWORD PTR [edi+ebx*4]
	and	eax, 134217728				; 08000000H
	xor	eax, DWORD PTR [ebx+20]

; 491  :     edge_id e_b = get_fe_edge(get_next_edge(fe_id));

	test	edx, edx
	je	SHORT $LN90@star_finag
	mov	ecx, DWORD PTR [ecx+28]
	xor	ecx, 134217728				; 08000000H
	jmp	SHORT $LN89@star_finag
$LN90@star_finag:
	mov	ecx, DWORD PTR [ecx+32]
$LN89@star_finag:
	mov	edx, ecx
	and	edx, 134217727				; 07ffffffH
	mov	edx, DWORD PTR [edi+edx*4]
	and	ecx, 134217728				; 08000000H
	xor	ecx, DWORD PTR [edx+20]

; 492  :     for ( i = 0 ; i < tail_valence ; i++ )

	xor	edx, edx
	cmp	DWORD PTR _tail_valence$[ebp], edx
	jle	SHORT $LN146@star_finag
	or	eax, 134217728				; 08000000H
	npad	2
$LL26@star_finag:

; 493  :     { if ( equal_element(e_a,tail_edges[i].e_id) )

	mov	ebx, DWORD PTR _tail_edges$[ebp+edx*8]
	or	ebx, 134217728				; 08000000H
	cmp	eax, ebx
	je	SHORT $LN132@star_finag

; 492  :     for ( i = 0 ; i < tail_valence ; i++ )

	inc	edx
	cmp	edx, DWORD PTR _tail_valence$[ebp]
	jl	SHORT $LL26@star_finag

; 499  :     { if ( equal_element(e_b,head_edges[i].e_id) )

	jmp	SHORT $LN146@star_finag
$LN132@star_finag:

; 494  :       { tail_edges[i] = tail_edges[--tail_valence];

	mov	eax, DWORD PTR tv1486[ebp]
	dec	DWORD PTR _tail_valence$[ebp]
	mov	ebx, DWORD PTR [eax-8]
	sub	eax, 8
	mov	DWORD PTR tv1486[ebp], eax
	mov	DWORD PTR _tail_edges$[ebp+edx*8], ebx
	mov	eax, DWORD PTR [eax+4]
	mov	DWORD PTR _tail_edges$[ebp+edx*8+4], eax
$LN146@star_finag:

; 495  :         break;
; 496  :       }
; 497  :     }
; 498  :     for ( i = 0 ; i < head_valence ; i++ )

	mov	ebx, DWORD PTR _head_valence$[ebp]
	xor	eax, eax
	test	ebx, ebx
	jle	SHORT $LN150@star_finag
	or	ecx, 134217728				; 08000000H
	npad	9
$LL22@star_finag:

; 499  :     { if ( equal_element(e_b,head_edges[i].e_id) )

	mov	edx, DWORD PTR _head_edges$[ebp+eax*8]
	or	edx, 134217728				; 08000000H
	cmp	ecx, edx
	je	SHORT $LN133@star_finag

; 495  :         break;
; 496  :       }
; 497  :     }
; 498  :     for ( i = 0 ; i < head_valence ; i++ )

	inc	eax
	cmp	eax, ebx
	jl	SHORT $LL22@star_finag

; 499  :     { if ( equal_element(e_b,head_edges[i].e_id) )

	jmp	SHORT $LN150@star_finag
$LN133@star_finag:

; 500  :       { head_edges[i] = head_edges[--head_valence];

	mov	ecx, DWORD PTR tv1484[ebp]
	mov	edx, DWORD PTR [ecx-8]
	dec	ebx
	sub	ecx, 8
	mov	DWORD PTR tv1484[ebp], ecx
	mov	DWORD PTR _head_edges$[ebp+eax*8], edx
	mov	ecx, DWORD PTR [ecx+4]
	mov	DWORD PTR _head_valence$[ebp], ebx
	mov	DWORD PTR _head_edges$[ebp+eax*8+4], ecx
$LN150@star_finag:

; 501  :         break;
; 502  :       }
; 503  :     }
; 504  :     fe_id = get_next_facet(fe_id);

	cmp	DWORD PTR tv1057[ebp], 0
	je	SHORT $LN96@star_finag
	mov	edx, DWORD PTR [esi]
	mov	eax, DWORD PTR [edx+36]
	xor	eax, 134217728				; 08000000H
	jmp	SHORT $LN28@star_finag
$LN96@star_finag:
	mov	eax, DWORD PTR [esi]
	mov	eax, DWORD PTR [eax+40]
$LN28@star_finag:

; 505  :   } while ( !equal_id(fe_id,start_fe) );

	cmp	eax, DWORD PTR _start_fe$[ebp]
	jne	$LL29@star_finag

; 506  : 
; 507  :   if ( head_valence != tail_valence )

	mov	esi, DWORD PTR _tail_valence$[ebp]
	cmp	ebx, esi
	je	SHORT $LN147@star_finag

; 508  :   { sprintf(errmsg,"Internal error: star_finagle() edge %s: head_valence %d != tail_valence %d\n",
; 509  :        ELNAME(e_id),head_valence,tail_valence);

	test	DWORD PTR _e_id$[ebp], 268435456	; 10000000H
	je	SHORT $LN53@star_finag
	mov	ecx, DWORD PTR tv1016[ebp]
	inc	ecx
	push	ecx
	push	OFFSET ??_C@_02DPKJAMEF@?$CFd?$AA@
	push	OFFSET _elnames
	call	_sprintf
	add	esp, 12					; 0000000cH
	mov	eax, OFFSET _elnames
	jmp	SHORT $LN54@star_finag
$LN53@star_finag:
	mov	eax, OFFSET ??_C@_00CNPNBAHC@?$AA@
$LN54@star_finag:
	push	esi
	push	ebx
	push	eax
	push	OFFSET ??_C@_0EM@PDLKAJMH@Internal?5error?3?5star_finagle?$CI?$CJ?5e@
	push	OFFSET _errmsg
	call	_sprintf

; 510  :     kb_error(3982,errmsg,RECOVERABLE);

	push	1
	push	OFFSET _errmsg
	push	3982					; 00000f8eH
	call	_kb_error
	add	esp, 32					; 00000020H
$LN147@star_finag:

; 511  :   }
; 512  :   /* Remove edges that have facets at large angle from */
; 513  :   /*  triangle plane, indicating neck pinch */
; 514  :   get_edge_side(e_id,side1);

	mov	eax, DWORD PTR _e_id$[ebp]
	lea	edx, DWORD PTR _side1$[ebp]
	push	edx
	push	eax
	call	_get_edge_side

; 515  :   aa = dot(side1,side1,SDIM);

	mov	ecx, DWORD PTR _web+616
	push	ecx
	lea	edx, DWORD PTR _side1$[ebp]
	push	edx
	mov	eax, edx
	push	eax
	call	_dot
	fstp	QWORD PTR _aa$[ebp]
	add	esp, 20					; 00000014H

; 516  :   for ( i = 0 ; i < head_valence ; i++ )

	mov	DWORD PTR _i$[ebp], 0
	test	ebx, ebx
	jle	$LN15@star_finag

; 511  :   }
; 512  :   /* Remove edges that have facets at large angle from */
; 513  :   /*  triangle plane, indicating neck pinch */
; 514  :   get_edge_side(e_id,side1);

	mov	edx, DWORD PTR _tail_valence$[ebp]
	lea	eax, DWORD PTR _tail_edges$[ebp+edx*8]
	mov	edx, DWORD PTR _head_valence$[ebp]
	lea	ecx, DWORD PTR _tail_edges$[ebp]
	mov	DWORD PTR tv1530[ebp], ecx
	mov	DWORD PTR tv1532[ebp], eax
	lea	ecx, DWORD PTR _head_edges$[ebp]
	lea	eax, DWORD PTR _head_edges$[ebp+edx*8]
	mov	DWORD PTR tv1534[ebp], ecx
	mov	DWORD PTR tv1536[ebp], eax
	npad	10
$LL17@star_finag:

; 517  :   { int flatflag = 0;
; 518  :     /* calculate triangle normal */
; 519  :     get_edge_side(tail_edges[i].e_id,side2);

	mov	esi, DWORD PTR tv1530[ebp]
	mov	edx, DWORD PTR [esi]
	lea	ecx, DWORD PTR _side2$[ebp]
	push	ecx
	xor	ebx, ebx
	push	edx
	mov	DWORD PTR _flatflag$89424[ebp], ebx
	call	_get_edge_side

; 520  :     ab = dot(side1,side2,SDIM);

	mov	eax, DWORD PTR _web+616
	push	eax
	lea	ecx, DWORD PTR _side2$[ebp]
	push	ecx
	lea	edx, DWORD PTR _side1$[ebp]
	push	edx
	call	_dot
	fst	QWORD PTR _ab$[ebp]

; 521  :  
; 522  :     start_fe = fe_id = get_edge_fe(tail_edges[i].e_id);

	mov	ecx, DWORD PTR [esi]
	mov	edx, DWORD PTR _web+124
	mov	eax, ecx
	and	eax, 134217727				; 07ffffffH
	mov	eax, DWORD PTR [edx+eax*4]
	add	esp, 20					; 00000014H
	cmp	eax, ebx
	jne	SHORT $LN100@star_finag
	xor	eax, eax
	jmp	SHORT $LN99@star_finag
$LN100@star_finag:
	mov	eax, DWORD PTR [eax+28]
	test	ecx, 134217728				; 08000000H
	je	SHORT $LN99@star_finag
	xor	eax, 134217728				; 08000000H
$LN99@star_finag:

; 523  :     for ( j = 0 ; j < 2 ; j++ ) /* check both head and tail edges */

	mov	edx, DWORD PTR _web+460
	fmul	ST(0), ST(0)
	mov	DWORD PTR _start_fe$[ebp], eax
	fstp	QWORD PTR tv1165[ebp]
	npad	9
$LL11@star_finag:

; 524  :     {
; 525  :       do
; 526  :       { REAL numer,denom;
; 527  :         facetedge_id ffe = inverse_id(get_prev_edge(fe_id));

	mov	edi, eax
	and	eax, 134217727				; 07ffffffH
	shr	edi, 27					; 0000001bH
	add	eax, eax
	and	edi, 1
	lea	esi, DWORD PTR [eax+eax]
	je	SHORT $LN104@star_finag
	mov	eax, DWORD PTR [esi+edx]
	mov	eax, DWORD PTR [eax+32]
	xor	eax, 134217728				; 08000000H
	jmp	SHORT $LN103@star_finag
$LN104@star_finag:
	mov	ecx, DWORD PTR [esi+edx]
	mov	eax, DWORD PTR [ecx+28]
$LN103@star_finag:
	xor	eax, 134217728				; 08000000H

; 528  :         edge_id ee_id = get_fe_edge(ffe);
; 529  :         get_edge_side(ee_id,side3);

	lea	ecx, DWORD PTR _side3$[ebp]
	push	ecx
	mov	ecx, eax
	and	ecx, 134217727				; 07ffffffH
	mov	edx, DWORD PTR [edx+ecx*4]
	and	eax, 134217728				; 08000000H
	xor	eax, DWORD PTR [edx+20]
	push	eax
	call	_get_edge_side

; 530  :         ac = dot(side1,side3,SDIM);

	mov	eax, DWORD PTR _web+616
	push	eax
	lea	ecx, DWORD PTR _side3$[ebp]
	push	ecx
	lea	edx, DWORD PTR _side1$[ebp]
	push	edx
	call	_dot
	fstp	QWORD PTR _ac$[ebp]

; 531  :         bb = dot(side2,side2,SDIM);

	mov	eax, DWORD PTR _web+616
	push	eax
	lea	ecx, DWORD PTR _side2$[ebp]
	push	ecx
	mov	edx, ecx
	push	edx
	call	_dot
	fstp	QWORD PTR _bb$[ebp]

; 532  :         bc = dot(side2,side3,SDIM);

	mov	eax, DWORD PTR _web+616
	push	eax
	lea	ecx, DWORD PTR _side3$[ebp]
	push	ecx
	lea	edx, DWORD PTR _side2$[ebp]
	push	edx
	call	_dot
	fst	QWORD PTR _bc$[ebp]

; 533  :         cc = dot(side3,side3,SDIM);
; 534  :         numer = (j?-1:1)*(ac*bb - ab*bc);

	fld	QWORD PTR _bb$[ebp]
	mov	ecx, DWORD PTR _web+616
	fmul	QWORD PTR _ac$[ebp]
	xor	eax, eax
	test	ebx, ebx
	fxch	ST(1)
	fmul	QWORD PTR _ab$[ebp]
	sete	al
	push	ecx
	lea	edx, DWORD PTR _side3$[ebp]
	fsubp	ST(1), ST(0)
	push	edx
	lea	eax, DWORD PTR [eax+eax-1]

; 535  :         denom = sqrt(aa*bb-ab*ab)*sqrt(bb*cc-bc*bc);
; 536  :         if ( numer > .8*denom ) 

	mov	DWORD PTR tv1397[ebp], eax
	fild	DWORD PTR tv1397[ebp]
	mov	eax, edx
	push	eax
	fmulp	ST(1), ST(0)
	fstp	QWORD PTR tv1357[ebp]
	call	_dot
	fmul	QWORD PTR _bb$[ebp]
	add	esp, 56					; 00000038H
	fld	QWORD PTR _bc$[ebp]
	fmul	ST(0), ST(0)
	fsubp	ST(1), ST(0)
	call	__CIsqrt
	fstp	QWORD PTR tv1355[ebp]
	fld	QWORD PTR _bb$[ebp]
	fmul	QWORD PTR _aa$[ebp]
	fsub	QWORD PTR tv1165[ebp]
	call	__CIsqrt
	fmul	QWORD PTR tv1355[ebp]
	fmul	QWORD PTR __real@3fe999999999999a
	fcomp	QWORD PTR tv1357[ebp]
	fnstsw	ax
	test	ah, 5
	jp	SHORT $LN8@star_finag

; 537  :           flatflag = 1;

	mov	DWORD PTR _flatflag$89424[ebp], 1
$LN8@star_finag:

; 538  :         fe_id = get_next_facet(fe_id);

	mov	edx, DWORD PTR _web+460
	test	edi, edi
	je	SHORT $LN110@star_finag
	mov	ecx, DWORD PTR [esi+edx]
	mov	eax, DWORD PTR [ecx+36]
	xor	eax, 134217728				; 08000000H
	jmp	SHORT $LN10@star_finag
$LN110@star_finag:
	mov	eax, DWORD PTR [esi+edx]
	mov	eax, DWORD PTR [eax+40]
$LN10@star_finag:

; 539  :       } while ( !equal_id(fe_id,start_fe) );

	cmp	eax, DWORD PTR _start_fe$[ebp]
	jne	$LL11@star_finag

; 540  :       /* set up to try the head side */
; 541  :       start_fe = fe_id = inverse_id(get_edge_fe(head_edges[i].e_id));

	mov	ecx, DWORD PTR tv1534[ebp]
	mov	ecx, DWORD PTR [ecx]
	mov	esi, DWORD PTR _web+124
	mov	eax, ecx
	and	eax, 134217727				; 07ffffffH
	mov	eax, DWORD PTR [esi+eax*4]
	test	eax, eax
	je	SHORT $LN113@star_finag
$LN114@star_finag:
	mov	eax, DWORD PTR [eax+28]
	test	ecx, 134217728				; 08000000H
	je	SHORT $LN113@star_finag
	xor	eax, 134217728				; 08000000H
$LN113@star_finag:
	xor	eax, 134217728				; 08000000H
	inc	ebx
	mov	DWORD PTR _start_fe$[ebp], eax
	cmp	ebx, 2
	jl	$LL11@star_finag

; 542  :     }
; 543  : 
; 544  :     if ( !flatflag )

	cmp	DWORD PTR _flatflag$89424[ebp], 0

; 545  :     { /* probably a neck, so let it be deleted */
; 546  :       head_edges[i] = head_edges[--head_valence];

	mov	eax, DWORD PTR tv1534[ebp]
	mov	esi, 1
	jne	SHORT $LN148@star_finag
	mov	ecx, DWORD PTR tv1536[ebp]
	mov	edx, DWORD PTR [ecx-8]
	sub	DWORD PTR _head_valence$[ebp], esi

; 547  :       tail_edges[i] = tail_edges[--tail_valence];

	sub	DWORD PTR _tail_valence$[ebp], esi

; 548  :       i--;

	sub	DWORD PTR _i$[ebp], esi
	sub	ecx, 8
	mov	DWORD PTR [eax], edx
	mov	edx, DWORD PTR tv1532[ebp]
	mov	edi, DWORD PTR [edx-8]
	mov	DWORD PTR tv1536[ebp], ecx
	mov	ecx, DWORD PTR [ecx+4]
	sub	edx, 8
	mov	DWORD PTR [eax+4], ecx
	mov	ecx, DWORD PTR tv1530[ebp]
	mov	DWORD PTR [ecx], edi
	mov	DWORD PTR tv1532[ebp], edx
	mov	edx, DWORD PTR [edx+4]
	mov	DWORD PTR [ecx+4], edx
	sub	eax, 8
	sub	ecx, 8
	jmp	SHORT $LN16@star_finag
$LN148@star_finag:
	mov	ecx, DWORD PTR tv1530[ebp]
$LN16@star_finag:

; 516  :   for ( i = 0 ; i < head_valence ; i++ )

	mov	edx, DWORD PTR _i$[ebp]
	add	edx, esi
	add	eax, 8
	add	ecx, 8
	mov	DWORD PTR _i$[ebp], edx
	mov	DWORD PTR tv1534[ebp], eax
	mov	DWORD PTR tv1530[ebp], ecx
	cmp	edx, DWORD PTR _head_valence$[ebp]
	jl	$LL17@star_finag
$LN15@star_finag:

; 549  :     }
; 550  :     
; 551  :   }
; 552  :   
; 553  :   /* refine remaining edges */
; 554  :   for ( i = 0 ; i < tail_valence ; i++ )

	mov	ebx, DWORD PTR _tail_valence$[ebp]
	xor	esi, esi
	test	ebx, ebx
	jle	SHORT $LN149@star_finag
	npad	10
$LL6@star_finag:

; 555  :     edge_refine(tail_edges[i].e_id);

	mov	eax, DWORD PTR _tail_edges$[ebp+esi*8]
	push	eax
	call	_edge_refine
	inc	esi
	add	esp, 4
	cmp	esi, ebx
	jl	SHORT $LL6@star_finag
$LN149@star_finag:

; 556  :   for ( i = 0 ; i < head_valence ; i++ )

	mov	edi, DWORD PTR _head_valence$[ebp]
	xor	esi, esi
	test	edi, edi
	jle	SHORT $LN144@star_finag
$LL3@star_finag:

; 557  :     edge_refine(head_edges[i].e_id);

	mov	ecx, DWORD PTR _head_edges$[ebp+esi*8]
	push	ecx
	call	_edge_refine
	inc	esi
	add	esp, 4
	cmp	esi, edi
	jl	SHORT $LL3@star_finag
$LN144@star_finag:

; 558  : 
; 559  :   return tail_valence;
; 560  : 
; 561  : } /* end star_finagle */

	mov	ecx, DWORD PTR __$ArrayPad$[ebp]
	pop	edi
	pop	esi
	mov	eax, ebx
	xor	ecx, ebp
	pop	ebx
	call	@__security_check_cookie@4
	mov	esp, ebp
	pop	ebp
	ret	0
_star_finagle ENDP
_TEXT	ENDS
PUBLIC	__real@3fb999999999999a
PUBLIC	??_C@_0DP@KEJAHAKK@Vertices?5?$CFs?5and?5?$CFs?5are?5on?5differ@ ; `string'
PUBLIC	__real@3ff3333333333333
PUBLIC	__real@3fc0000000000000
PUBLIC	__real@3fd8000000000000
PUBLIC	__real@3fe8000000000000
PUBLIC	__real@4010000000000000
PUBLIC	__real@4000000000000000
PUBLIC	__real@c000000000000000
PUBLIC	__real@40f86a0000000000
PUBLIC	__real@3fd0000000000000
PUBLIC	__real@3ff0000000000000
PUBLIC	__real@3fe0000000000000
PUBLIC	??_C@_0BC@EHDAIHOF@Refining?5edge?5?$CFs?6?$AA@	; `string'
PUBLIC	??_C@_0DJ@JPKFJHHP@Edge?5divide?5not?5implemented?5for?5@ ; `string'
PUBLIC	??_C@_0EA@EJNIPAFM@extra_boundary_param?5attribute?5d@ ; `string'
PUBLIC	??_C@_0EA@DOFMKFEH@extra_boundary?5attribute?5defined@ ; `string'
PUBLIC	_e_id$GSCopy$
PUBLIC	__$ArrayPad$
PUBLIC	_edge_divide
EXTRN	_check_edge_vol_methods:PROC
EXTRN	_everything_quantities_flag:DWORD
EXTRN	_new_facetedge:PROC
EXTRN	_clear_v_conmap:PROC
EXTRN	_project_v_constr:PROC
EXTRN	_set_v_conmap:PROC
EXTRN	_set_e_conmap:PROC
EXTRN	_nullcon:QWORD
EXTRN	_eval:PROC
EXTRN	_b_extrapolate:PROC
EXTRN	_interp_bdry_param:DWORD
EXTRN	_mat_mult:PROC
EXTRN	_bezier_refine_1d:BYTE
EXTRN	_mat2d_setup:PROC
EXTRN	_bezier_flag:DWORD
EXTRN	_V_BOUNDARY_ATTR:DWORD
EXTRN	_E_BOUNDARY_ATTR:DWORD
EXTRN	_get_edge_length:PROC
EXTRN	_calc_edge:PROC
EXTRN	_dup_edge:PROC
EXTRN	_circular_arc_flag:DWORD
EXTRN	_new_vertex:PROC
EXTRN	_sym_wrap:DWORD
EXTRN	_valid_element:PROC
EXTRN	_extra_bdry_param_attr:DWORD
EXTRN	_extra_bdry_attr:DWORD
;	COMDAT __real@3fb999999999999a
; File c:\levolver\yonkang-sefit\levolver\ev_ogl\inline.h
CONST	SEGMENT
__real@3fb999999999999a DQ 03fb999999999999ar	; 0.1
CONST	ENDS
;	COMDAT ??_C@_0DP@KEJAHAKK@Vertices?5?$CFs?5and?5?$CFs?5are?5on?5differ@
CONST	SEGMENT
??_C@_0DP@KEJAHAKK@Vertices?5?$CFs?5and?5?$CFs?5are?5on?5differ@ DB 'Vert'
	DB	'ices %s and %s are on different boundaries from edge %s .', 0aH
	DB	00H						; `string'
CONST	ENDS
;	COMDAT __real@3ff3333333333333
CONST	SEGMENT
__real@3ff3333333333333 DQ 03ff3333333333333r	; 1.2
CONST	ENDS
;	COMDAT __real@3fc0000000000000
CONST	SEGMENT
__real@3fc0000000000000 DQ 03fc0000000000000r	; 0.125
CONST	ENDS
;	COMDAT __real@3fd8000000000000
CONST	SEGMENT
__real@3fd8000000000000 DQ 03fd8000000000000r	; 0.375
CONST	ENDS
;	COMDAT __real@3fe8000000000000
CONST	SEGMENT
__real@3fe8000000000000 DQ 03fe8000000000000r	; 0.75
CONST	ENDS
;	COMDAT __real@4010000000000000
CONST	SEGMENT
__real@4010000000000000 DQ 04010000000000000r	; 4
CONST	ENDS
;	COMDAT __real@4000000000000000
CONST	SEGMENT
__real@4000000000000000 DQ 04000000000000000r	; 2
CONST	ENDS
;	COMDAT __real@c000000000000000
CONST	SEGMENT
__real@c000000000000000 DQ 0c000000000000000r	; -2
CONST	ENDS
;	COMDAT __real@40f86a0000000000
CONST	SEGMENT
__real@40f86a0000000000 DQ 040f86a0000000000r	; 100000
CONST	ENDS
;	COMDAT __real@3fd0000000000000
CONST	SEGMENT
__real@3fd0000000000000 DQ 03fd0000000000000r	; 0.25
CONST	ENDS
;	COMDAT __real@3ff0000000000000
CONST	SEGMENT
__real@3ff0000000000000 DQ 03ff0000000000000r	; 1
CONST	ENDS
;	COMDAT __real@3fe0000000000000
CONST	SEGMENT
__real@3fe0000000000000 DQ 03fe0000000000000r	; 0.5
CONST	ENDS
;	COMDAT ??_C@_0BC@EHDAIHOF@Refining?5edge?5?$CFs?6?$AA@
CONST	SEGMENT
??_C@_0BC@EHDAIHOF@Refining?5edge?5?$CFs?6?$AA@ DB 'Refining edge %s', 0aH
	DB	00H						; `string'
CONST	ENDS
;	COMDAT ??_C@_0DJ@JPKFJHHP@Edge?5divide?5not?5implemented?5for?5@
CONST	SEGMENT
??_C@_0DJ@JPKFJHHP@Edge?5divide?5not?5implemented?5for?5@ DB 'Edge divide'
	DB	' not implemented for simplex representation.', 0aH, 00H ; `string'
CONST	ENDS
;	COMDAT ??_C@_0EA@EJNIPAFM@extra_boundary_param?5attribute?5d@
CONST	SEGMENT
??_C@_0EA@EJNIPAFM@extra_boundary_param?5attribute?5d@ DB 'extra_boundary'
	DB	'_param attribute defined but not extra_boundary.', 0aH, 00H ; `string'
CONST	ENDS
;	COMDAT ??_C@_0EA@DOFMKFEH@extra_boundary?5attribute?5defined@
CONST	SEGMENT
??_C@_0EA@DOFMKFEH@extra_boundary?5attribute?5defined@ DB 'extra_boundary'
	DB	' attribute defined but not extra_boundary_param.', 0aH, 00H ; `string'
; Function compile flags: /Ogtp
; File c:\levolver\yonkang-sefit\levolver\ev_ogl\modify.c
CONST	ENDS
;	COMDAT _edge_divide
_TEXT	SEGMENT
_e_id$GSCopy$ = -1864					; size = 4
_tailv$ = -1860						; size = 4
_new_mid$ = -1856					; size = 4
_old_mid$ = -1852					; size = 4
_headv$ = -1848						; size = 4
tv4076 = -1844						; size = 4
_y1$89526 = -1840					; size = 8
tv5741 = -1836						; size = 4
tv4133 = -1836						; size = 4
tv4086 = -1832						; size = 4
_yp$89531 = -1828					; size = 8
tv6121 = -1824						; size = 4
tv6043 = -1824						; size = 4
tv6022 = -1824						; size = 4
tv4809 = -1824						; size = 4
_b$89537 = -1820					; size = 8
tv4928 = -1816						; size = 4
tv4354 = -1816						; size = 4
tv4340 = -1816						; size = 4
_x1$89525 = -1812					; size = 8
tv4425 = -1808						; size = 4
tv4129 = -1808						; size = 4
tv4093 = -1808						; size = 4
_old_fe$ = -1808					; size = 4
_new_e$ = -1804						; size = 4
tv5810 = -1800						; size = 4
tv4074 = -1800						; size = 4
_wrap2$ = -1796						; size = 4
_wrap$ = -1796						; size = 4
tv6925 = -1792						; size = 4
_mv$ = -1792						; size = 4
_mu$ = -1792						; size = 4
tv6136 = -1788						; size = 8
tv6134 = -1788						; size = 8
tv6132 = -1788						; size = 8
tv6130 = -1788						; size = 8
tv6128 = -1788						; size = 8
tv6126 = -1788						; size = 8
tv6124 = -1788						; size = 8
tv6122 = -1788						; size = 8
tv5784 = -1784						; size = 4
tv4344 = -1784						; size = 4
_pa$89860 = -1780					; size = 4
_n$ = -1780						; size = 4
_oldv$ = -1780						; size = 4
tv4142 = -1776						; size = 8
_attr$89905 = -1776					; size = 8
_rear$89584 = -1776					; size = 8
_xp$89530 = -1776					; size = 8
tv6235 = -1772						; size = 4
tv6105 = -1772						; size = 4
tv6046 = -1772						; size = 4
tv5951 = -1772						; size = 4
tv4812 = -1772						; size = 4
tv4746 = -1772						; size = 4
tv4708 = -1772						; size = 4
tv4632 = -1772						; size = 4
tv4623 = -1772						; size = 4
tv1791 = -1768						; size = 4
_parama$89687 = -1768					; size = 4
_xm$89587 = -1768					; size = 4
tv4917 = -1764						; size = 4
_paramb$89689 = -1764					; size = 4
_divider$ = -1764					; size = 4
tv4927 = -1760						; size = 4
tv4905 = -1760						; size = 4
tv4629 = -1760						; size = 4
tv4620 = -1760						; size = 4
tv4528 = -1760						; size = 4
tv1088 = -1760						; size = 4
_oldc$89642 = -1760					; size = 4
_newv$ = -1760						; size = 4
_j$ = -1760						; size = 4
_t$ = -1760						; size = 4
_first_fe$ = -1756					; size = 4
_parammid$89685 = -1756					; size = 4
_i$ = -1756						; size = 4
_h$ = -1756						; size = 4
_oldcxJ$89641 = -1752					; size = 1008
_prod1$ = -744						; size = 168
_newx$89644 = -740					; size = 164
_oldcqXvS$89640 = -576					; size = 84
_hh$89586 = -540					; size = 48
_s$ = -492						; size = 48
_tt$89585 = -444					; size = 48
_w$ = -396						; size = 48
_q1$ = -348						; size = 48
_allv$ = -300						; size = 164
_m$ = -136						; size = 48
_oldx$ = -88						; size = 84
_defaultp$89686 = -52					; size = 48
_q3$ = -52						; size = 48
__$ArrayPad$ = -4					; size = 4
_e_id$ = 8						; size = 4
_edge_divide PROC					; COMDAT

; 584  : {

	push	ebp
	mov	ebp, esp
	sub	esp, 1864				; 00000748H
	mov	eax, DWORD PTR ___security_cookie
	xor	eax, ebp
	mov	DWORD PTR __$ArrayPad$[ebp], eax
	push	esi

; 585  :   REAL s[MAXCOORD],*t,*mu=NULL,*mv,*h,m[MAXCOORD],q1[MAXCOORD],q3[MAXCOORD];

	xor	esi, esi
	push	edi
	mov	edi, DWORD PTR _e_id$[ebp]

; 995  :         { REAL *pa = get_param(allv[i-1]);
; 996  :           REAL *p  = get_param(allv[i]);
; 997  :           mu = get_coord(allv[i-1]);             
; 998  :           mv = get_coord(allv[i]);

	mov	DWORD PTR _e_id$GSCopy$[ebp], edi
	mov	DWORD PTR _mu$[ebp], esi
	mov	DWORD PTR _divider$[ebp], esi
	mov	DWORD PTR _old_mid$[ebp], esi
	mov	DWORD PTR _new_mid$[ebp], esi
	mov	DWORD PTR _wrap2$[ebp], esi
	mov	DWORD PTR _oldv$[ebp], esi
	cmp	DWORD PTR _extra_bdry_attr, esi
	je	SHORT $LN463@edge_divid

; 586  :   edge_id  new_e;
; 587  :   vertex_id divider=NULLID,old_mid=0,new_mid=0,headv,tailv;
; 588  :   int i,j,k,n;
; 589  :   facetedge_id new_fe,old_fe;
; 590  :   int wrap = 0,wrap1=0,wrap2=0;
; 591  :   REAL w[MAXCOORD];
; 592  :   vertex_id *oldv=NULL,*newv;
; 593  :   REAL *oldx[MAXLAGRANGE+1];
; 594  :   REAL prod1[MAXLAGRANGE+1],prod2;
; 595  :   facetedge_id first_fe;
; 596  :   vertex_id allv[2*MAXLAGRANGE+1];
; 597  :   
; 598  : 
; 599  :   if ( extra_bdry_attr && !extra_bdry_param_attr )

	cmp	DWORD PTR _extra_bdry_param_attr, esi
	jne	SHORT $LN163@edge_divid

; 600  :     kb_error(2841,
; 601  :      "extra_boundary attribute defined but not extra_boundary_param.\n",
; 602  :         RECOVERABLE); 

	push	1
	push	OFFSET ??_C@_0EA@DOFMKFEH@extra_boundary?5attribute?5defined@
	push	2841					; 00000b19H
	call	_kb_error
	add	esp, 12					; 0000000cH
$LN163@edge_divid:

; 603  : 
; 604  :   if ( !extra_bdry_attr && extra_bdry_param_attr )

	cmp	DWORD PTR _extra_bdry_attr, esi
	jne	SHORT $LN162@edge_divid
$LN463@edge_divid:
	cmp	DWORD PTR _extra_bdry_param_attr, esi
	je	SHORT $LN162@edge_divid

; 605  :     kb_error(3367,
; 606  :      "extra_boundary_param attribute defined but not extra_boundary.\n",
; 607  :         RECOVERABLE);

	push	1
	push	OFFSET ??_C@_0EA@EJNIPAFM@extra_boundary_param?5attribute?5d@
	push	3367					; 00000d27H
	call	_kb_error
	add	esp, 12					; 0000000cH
$LN162@edge_divid:

; 608  : 
; 609  :   if ( !valid_element(e_id) ) 

	push	edi
	call	_valid_element
	add	esp, 4
	test	eax, eax
	jne	SHORT $LN161@edge_divid
	pop	edi
	pop	esi

; 1086 : 
; 1087 :  return new_e;
; 1088 : 
; 1089 : } /* end edge_divide() */

	mov	ecx, DWORD PTR __$ArrayPad$[ebp]
	xor	ecx, ebp
	call	@__security_check_cookie@4
	mov	esp, ebp
	pop	ebp
	ret	0
$LN161@edge_divid:

; 610  :      return NULLID;
; 611  : 
; 612  :   if ( web.representation == SIMPLEX )

	cmp	DWORD PTR _web+624, 3
	jne	SHORT $LN160@edge_divid

; 613  :      kb_error(1239,"Edge divide not implemented for simplex representation.\n",
; 614  :         COMMAND_ERROR);

	push	5
	push	OFFSET ??_C@_0DJ@JPKFJHHP@Edge?5divide?5not?5implemented?5for?5@
	push	1239					; 000004d7H
	call	_kb_error
	add	esp, 12					; 0000000cH
$LN160@edge_divid:

; 615  : 
; 616  :   if ( verbose_flag )

	cmp	DWORD PTR _verbose_flag, esi
	je	SHORT $LN159@edge_divid

; 617  :   { sprintf(msg,"Refining edge %s\n",ELNAME(e_id));

	test	edi, 268435456				; 10000000H
	je	SHORT $LN166@edge_divid
	mov	eax, edi
	and	eax, 134217727				; 07ffffffH
	inc	eax
	push	eax
	push	OFFSET ??_C@_02DPKJAMEF@?$CFd?$AA@
	push	OFFSET _elnames
	call	_sprintf
	add	esp, 12					; 0000000cH
	mov	eax, OFFSET _elnames
	jmp	SHORT $LN167@edge_divid
$LN166@edge_divid:
	mov	eax, OFFSET ??_C@_00CNPNBAHC@?$AA@
$LN167@edge_divid:
	mov	ecx, DWORD PTR _msg
	push	eax
	push	OFFSET ??_C@_0BC@EHDAIHOF@Refining?5edge?5?$CFs?6?$AA@
	push	ecx
	call	_sprintf

; 618  :     outstring(msg);

	mov	edx, DWORD PTR _msg
	push	edx
	call	_outstring
	add	esp, 16					; 00000010H
$LN159@edge_divid:

; 619  :   }
; 620  : 
; 621  :   headv = get_edge_headv(e_id);

	push	ebx
	push	edi
	call	_get_edge_headv
	mov	ebx, eax

; 622  :   tailv = get_edge_tailv(e_id);

	push	edi
	mov	DWORD PTR _headv$[ebp], ebx
	call	_get_edge_tailv

; 623  :   t = get_coord(tailv);

	mov	edx, DWORD PTR _web+104
	mov	ecx, DWORD PTR _dymem
	mov	ecx, DWORD PTR [edx+ecx+64]
	mov	edx, DWORD PTR _web+12
	mov	DWORD PTR _tailv$[ebp], eax
	and	eax, 134217727				; 07ffffffH
	mov	esi, DWORD PTR [edx+eax*4]
	mov	DWORD PTR tv4076[ebp], eax

; 624  :   h = get_coord(headv);

	and	ebx, 134217727				; 07ffffffH
	mov	eax, edx
	mov	eax, DWORD PTR [eax+ebx*4]
	add	esi, ecx
	add	eax, ecx
	add	esp, 8

; 625  :   if ( web.symmetry_flag )

	cmp	DWORD PTR _web+856, 0
	mov	DWORD PTR _t$[ebp], esi
	mov	DWORD PTR tv4086[ebp], ebx
	mov	DWORD PTR _h$[ebp], eax
	je	$LN464@edge_divid

; 626  :   { wrap = get_edge_wrap(e_id);

	mov	edx, DWORD PTR _web+124
	mov	ecx, edi
	and	ecx, 134217727				; 07ffffffH
	mov	eax, DWORD PTR [edx+ecx*4]
	mov	ecx, DWORD PTR _dymem
	mov	edx, DWORD PTR _web+216
	mov	ecx, DWORD PTR [edx+ecx+784]
	mov	eax, DWORD PTR [eax+ecx]
	test	edi, 134217728				; 08000000H
	je	SHORT $LN220@edge_divid
	push	eax
	call	DWORD PTR _sym_inverse
	add	esp, 4
$LN220@edge_divid:
	mov	DWORD PTR _wrap$[ebp], eax

; 627  :     /* always use tail as base, for predictability */
; 628  :     if ( wrap ) /* see which endpoint closer to origin, to use as base */

	test	eax, eax
	je	SHORT $LN157@edge_divid

; 629  :     { /* use tail as base */
; 630  :       (*sym_wrap)(get_coord(headv),w,wrap);

	mov	ecx, DWORD PTR _web+104
	mov	edx, eax
	push	edx
	mov	edx, DWORD PTR _dymem
	lea	eax, DWORD PTR _w$[ebp]
	push	eax
	mov	eax, DWORD PTR [ecx+edx+64]
	mov	ecx, DWORD PTR _web+12
	add	eax, DWORD PTR [ecx+ebx*4]
	push	eax
	call	DWORD PTR _sym_wrap

; 631  :       h = w;
; 632  :       wrap1 = 0; wrap2 = wrap;

	mov	eax, DWORD PTR _wrap$[ebp]
	lea	edx, DWORD PTR _w$[ebp]
	add	esp, 12					; 0000000cH
	mov	DWORD PTR _h$[ebp], edx
	mov	DWORD PTR _wrap2$[ebp], eax
	jmp	SHORT $LN464@edge_divid
$LN157@edge_divid:

; 633  :     }
; 634  :     else wrap1 = wrap2 = 0;

	mov	DWORD PTR _wrap2$[ebp], 0
$LN464@edge_divid:

; 635  :   }
; 636  :   if ( web.modeltype == LINEAR )

	mov	eax, DWORD PTR _web+628
	fldz
	fld	QWORD PTR __real@3fe0000000000000
	fld1
	cmp	eax, 1
	jne	$LN155@edge_divid

; 637  :   { 
; 638  :     for ( k = 0 ; k < SDIM ; k++ ) m[k] = (t[k] + h[k])/2;

	mov	edx, DWORD PTR _web+616
	fstp	ST(0)
	fstp	ST(1)
	test	edx, edx
	jle	SHORT $LN517@edge_divid
	mov	eax, DWORD PTR _h$[ebp]
	lea	ecx, DWORD PTR _m$[ebp]
	sub	eax, esi
	sub	ecx, esi
$LN154@edge_divid:
	fld	QWORD PTR [eax+esi]
	add	esi, 8
	dec	edx
	fadd	QWORD PTR [esi-8]
	fmul	ST(0), ST(1)
	fstp	QWORD PTR [ecx+esi-8]
	jne	SHORT $LN154@edge_divid
$LN517@edge_divid:

; 639  :     divider = new_vertex(m,e_id);

	lea	ecx, DWORD PTR _m$[ebp]
	fstp	ST(0)
	push	edi
	push	ecx
	call	_new_vertex

; 640  :     set_attr(divider,get_eattr(e_id) & (FIXED|BARE_NAKED));

	mov	edx, eax
	shr	edx, 29					; 0000001dH
	imul	edx, 112				; 00000070H
	mov	ecx, DWORD PTR _web[edx+12]
	mov	DWORD PTR _divider$[ebp], eax
	and	eax, 134217727				; 07ffffffH
	mov	eax, DWORD PTR [ecx+eax*4]
	mov	ecx, DWORD PTR _web+124
	mov	edx, edi
	and	edx, 134217727				; 07ffffffH
	mov	ecx, DWORD PTR [ecx+edx*4]
	mov	edx, DWORD PTR [ecx+8]
	and	edx, 65600				; 00010040H
	add	esp, 8
	or	DWORD PTR [eax+8], edx
	jmp	$LN125@edge_divid
$LN155@edge_divid:

; 641  :   }
; 642  :   else if ( web.modeltype == QUADRATIC )

	cmp	eax, 2
	jne	$LN519@edge_divid

; 643  :   { 
; 644  :     divider = get_edge_midv(e_id);  /* use old midpoint */

	mov	ecx, DWORD PTR _web+124
	fstp	ST(1)
	mov	eax, edi
	fstp	ST(0)
	and	eax, 134217727				; 07ffffffH
	mov	edx, DWORD PTR [ecx+eax*4]
	mov	ecx, DWORD PTR _web+216
	mov	eax, DWORD PTR _dymem
	mov	eax, DWORD PTR [ecx+eax+304]
	mov	ecx, DWORD PTR [edx+eax+8]

; 645  :     unset_attr(divider,Q_MIDPOINT);

	mov	eax, ecx
	mov	DWORD PTR _divider$[ebp], ecx
	shr	ecx, 29					; 0000001dH
	imul	ecx, 112				; 00000070H
	mov	ecx, DWORD PTR _web[ecx+12]
	and	eax, 134217727				; 07ffffffH
	add	eax, eax
	add	eax, eax
	mov	ecx, DWORD PTR [ecx+eax]
	and	DWORD PTR [ecx+8], -131073		; fffdffffH
	mov	edx, DWORD PTR [ecx+12]
	mov	DWORD PTR [ecx+12], edx

; 646  :     set_vertex_edge(divider,NULLID); /* so set_vertex_edge works */

	mov	ecx, DWORD PTR _web+12
	mov	edx, DWORD PTR [eax+ecx]
	mov	DWORD PTR [edx+28], 0

; 647  :     /* get coordinates of new midpoint(s) */
; 648  :     mu = get_coord(divider);

	mov	ecx, DWORD PTR _web+12
	mov	ebx, DWORD PTR [eax+ecx]
	mov	edx, DWORD PTR _web+104
	mov	eax, DWORD PTR _dymem
	add	ebx, DWORD PTR [edx+eax+64]

; 649  :     if ( circular_arc_flag  && (SDIM == 2))

	cmp	DWORD PTR _circular_arc_flag, 0
	mov	edx, DWORD PTR _web+616
	mov	DWORD PTR _mu$[ebp], ebx
	je	$LN525@edge_divid
	cmp	edx, 2
	jne	$LN525@edge_divid

; 650  :     { /* using facts that midpoint is on perpendicular bisector and
; 651  :          inversions with tail center lie on a straight line */
; 652  :       REAL x1 = mu[0] - t[0];

	fld	QWORD PTR [ebx]

; 653  :       REAL y1 = mu[1] - t[1];
; 654  :       REAL x2 = h[0] - t[0];

	mov	eax, DWORD PTR _h$[ebp]
	fsub	QWORD PTR [esi]
	fst	QWORD PTR _x1$89525[ebp]
	fld	QWORD PTR [ebx+8]
	fsub	QWORD PTR [esi+8]
	fst	QWORD PTR _y1$89526[ebp]
	fld	QWORD PTR [eax]
	fsub	QWORD PTR [esi]

; 655  :       REAL y2 = h[1] - t[1];

	fld	QWORD PTR [eax+8]
	fsub	QWORD PTR [esi+8]

; 656  :       REAL det = x2*y1 - y2*x1;

	fld	ST(1)
	fmul	ST(0), ST(3)
	fld	ST(1)
	fmul	ST(0), ST(5)
	fsubp	ST(1), ST(0)

; 657  :       REAL xp = det > 0 ? -y1 : y1;

	fcom	ST(5)
	fnstsw	ax
	test	ah, 65					; 00000041H
	jne	SHORT $LN168@edge_divid
	fld	ST(3)
	fchs
	fstp	QWORD PTR _xp$89530[ebp]
	jmp	SHORT $LN169@edge_divid
$LN168@edge_divid:
	fxch	ST(3)
	fst	QWORD PTR _xp$89530[ebp]
	fxch	ST(3)
$LN169@edge_divid:

; 658  :       REAL yp = det > 0 ?  x1 : -x1;

	fcomp	ST(5)
	fnstsw	ax
	fstp	ST(4)
	fld	ST(2)
	test	ah, 65					; 00000041H
	je	SHORT $LN757@edge_divid
	fchs
$LN757@edge_divid:
	fst	QWORD PTR _yp$89531[ebp]

; 659  :       REAL rr1 = x1*x1 + y1*y1;

	fld	ST(2)
	fmul	ST(0), ST(3)
	fld	ST(4)
	fmul	ST(0), ST(5)
	faddp	ST(1), ST(0)

; 660  :       REAL rr2 = x2*x2 + y2*y2;

	fld	ST(5)
	fmul	ST(0), ST(6)
	fld	ST(3)
	fmul	ST(0), ST(4)
	faddp	ST(1), ST(0)

; 661  :       REAL xx = x2/rr2 - x1/rr1;

	fdiv	ST(3), ST(0)
	fld	ST(5)
	fdiv	ST(0), ST(2)
	fsubp	ST(4), ST(0)

; 662  :       REAL yy = y2/rr2 - y1/rr1;

	fdivp	ST(6), ST(0)
	fdivr	ST(0), ST(3)
	fsubp	ST(5), ST(0)

; 663  :       REAL a = -x1*yy + y1*xx;  /* lambda^2 coeff */

	fld	ST(1)
	fmul	ST(0), ST(3)
	fld	ST(5)
	fmul	ST(0), ST(5)
	fsubp	ST(1), ST(0)

; 664  :       REAL b = xp*yy - yp*xx;  /* lambda coeff */

	fld	ST(5)
	fmul	QWORD PTR _xp$89530[ebp]
	fld	ST(3)
	fmulp	ST(3), ST(0)
	fsubrp	ST(2), ST(0)
	fxch	ST(1)
	fst	QWORD PTR _b$89537[ebp]

; 665  :       REAL c = x1/4*yy - y1/4*xx;  /* const coeff */

	fld	QWORD PTR __real@3fd0000000000000
	fmul	ST(5), ST(0)
	fxch	ST(5)
	fmulp	ST(6), ST(0)
	fxch	ST(3)
	fmulp	ST(4), ST(0)
	fxch	ST(3)
	fmulp	ST(1), ST(0)
	fsubp	ST(3), ST(0)

; 666  :       REAL lambda = (fabs(c) < fabs(b)/100000) ?
; 667  :       ( (b > 0.0) ? (-2*c/(b + sqrt(b*b-4*a*c))) : (2*c/(-b + sqrt(b*b-4*a*c))) )
; 668  :       : (( c > 0 ) ? (2*c/(-b + sqrt(b*b-4*a*c))) : 
; 669  :                                (-2*c/(b + sqrt(b*b-4*a*c)))) ;

	fld	ST(2)
	fabs
	fld	ST(1)
	fabs
	fdiv	QWORD PTR __real@40f86a0000000000
	fcompp
	fnstsw	ax
	fld	QWORD PTR __real@c000000000000000
	fld	QWORD PTR __real@4000000000000000
	fldz
	test	ah, 65					; 00000041H
	jne	SHORT $LN176@edge_divid
	fcomp	ST(3)
	fnstsw	ax
	test	ah, 5
	jp	SHORT $LN539@edge_divid
	fstp	ST(0)
	fmul	ST(0), ST(3)
	fstp	QWORD PTR tv6122[ebp]
	fmul	ST(0), ST(0)
	fxch	ST(1)
	fmul	QWORD PTR __real@4010000000000000
	fmulp	ST(2), ST(0)
	fsubrp	ST(1), ST(0)
	call	__CIsqrt
	fadd	QWORD PTR _b$89537[ebp]
	fdivr	QWORD PTR tv6122[ebp]
	jmp	$LN175@edge_divid
$LN539@edge_divid:
	fstp	ST(1)
	fmul	ST(0), ST(3)
	fstp	QWORD PTR tv6124[ebp]
	fmul	ST(0), ST(0)
	fxch	ST(1)
	fmul	QWORD PTR __real@4010000000000000
	fmulp	ST(2), ST(0)
	fsubrp	ST(1), ST(0)
	call	__CIsqrt
	fsub	QWORD PTR _b$89537[ebp]
	fdivr	QWORD PTR tv6124[ebp]
	jmp	SHORT $LN175@edge_divid
$LN176@edge_divid:
	fcomp	ST(5)
	fnstsw	ax
	test	ah, 5
	jp	SHORT $LN562@edge_divid
	fstp	ST(1)
	fmul	ST(0), ST(3)
	fstp	QWORD PTR tv6126[ebp]
	fmul	ST(0), ST(0)
	fxch	ST(1)
	fmul	QWORD PTR __real@4010000000000000
	fmulp	ST(2), ST(0)
	fsubrp	ST(1), ST(0)
	call	__CIsqrt
	fsub	QWORD PTR _b$89537[ebp]
	fdivr	QWORD PTR tv6126[ebp]
	jmp	SHORT $LN175@edge_divid
$LN562@edge_divid:
	fstp	ST(0)
	fmul	ST(0), ST(3)
	fstp	QWORD PTR tv6128[ebp]
	fmul	ST(0), ST(0)
	fxch	ST(1)
	fmul	QWORD PTR __real@4010000000000000
	fmulp	ST(2), ST(0)
	fsubrp	ST(1), ST(0)
	call	__CIsqrt
	fadd	QWORD PTR _b$89537[ebp]
	fdivr	QWORD PTR tv6128[ebp]
$LN175@edge_divid:

; 670  :       q1[0] = t[0] + x1/2 + lambda*xp;

	fld	QWORD PTR _x1$89525[ebp]

; 671  :       q1[1] = t[1] + y1/2 + lambda*yp;
; 672  : 
; 673  :       /* turn it all around for other midpoint */
; 674  :       x1 = mu[0] - h[0];

	mov	eax, DWORD PTR _h$[ebp]
	fld	QWORD PTR __real@3fe0000000000000
	fmul	ST(1), ST(0)
	fxch	ST(1)
	fadd	QWORD PTR [esi]
	fld	ST(2)
	fmul	QWORD PTR _xp$89530[ebp]
	faddp	ST(1), ST(0)
	fstp	QWORD PTR _q1$[ebp]
	fmul	QWORD PTR _y1$89526[ebp]
	fadd	QWORD PTR [esi+8]
	fxch	ST(1)
	fmul	QWORD PTR _yp$89531[ebp]
	faddp	ST(1), ST(0)
	fstp	QWORD PTR _q1$[ebp+8]
	fld	QWORD PTR [ebx]
	fsub	QWORD PTR [eax]
	fst	QWORD PTR _x1$89525[ebp]

; 675  :       y1 = mu[1] - h[1];

	fld	QWORD PTR [ebx+8]
	fsub	QWORD PTR [eax+8]
	fst	QWORD PTR _y1$89526[ebp]

; 676  :       x2 = t[0] - h[0];

	fld	QWORD PTR [esi]
	fsub	QWORD PTR [eax]

; 677  :       y2 = t[1] - h[1];

	fld	QWORD PTR [esi+8]
	fsub	QWORD PTR [eax+8]

; 678  :       det = x2*y1 - y2*x1;

	fld	ST(1)
	fmul	ST(0), ST(3)
	fld	ST(1)
	fmul	ST(0), ST(5)
	fsubp	ST(1), ST(0)

; 679  :       xp = det > 0 ? -y1 : y1;

	fldz
	fcom	ST(1)
	fnstsw	ax
	test	ah, 5
	jp	SHORT $LN178@edge_divid
	fld	ST(4)
	fchs
	fstp	QWORD PTR _xp$89530[ebp]
	jmp	SHORT $LN179@edge_divid
$LN178@edge_divid:
	fxch	ST(4)
	fst	QWORD PTR _xp$89530[ebp]
	fxch	ST(4)
$LN179@edge_divid:

; 680  :       yp = det > 0 ?  x1 : -x1;

	fcompp
	fnstsw	ax
	fld	ST(3)
	test	ah, 5
	jnp	SHORT $LN758@edge_divid
	fchs
$LN758@edge_divid:
	fst	QWORD PTR _yp$89531[ebp]

; 681  :       rr1 = x1*x1 + y1*y1;

	fld	ST(3)
	fmul	ST(0), ST(4)
	fld	ST(5)
	fmul	ST(0), ST(6)
	faddp	ST(1), ST(0)

; 682  :       rr2 = x2*x2 + y2*y2;

	fld	ST(2)
	fmul	ST(0), ST(3)
	fld	ST(4)
	fmul	ST(0), ST(5)
	faddp	ST(1), ST(0)

; 683  :       xx = x2/rr2 - x1/rr1;

	fdiv	ST(4), ST(0)
	fld	ST(6)
	fdiv	ST(0), ST(2)
	fsubp	ST(5), ST(0)

; 684  :       yy = y2/rr2 - y1/rr1;

	fdivp	ST(3), ST(0)
	fdivr	ST(0), ST(4)
	fsubp	ST(2), ST(0)

; 685  :       a = -x1*yy + y1*xx;  /* lambda^2 coeff */

	fld	ST(2)
	fmul	ST(0), ST(4)
	fld	ST(2)
	fmul	ST(0), ST(6)
	fsubp	ST(1), ST(0)

; 686  :       b = xp*yy - yp*xx;  /* lambda coeff */

	fld	ST(2)
	fmul	QWORD PTR _xp$89530[ebp]
	fld	ST(4)
	fmulp	ST(3), ST(0)
	fsubrp	ST(2), ST(0)
	fxch	ST(1)
	fst	QWORD PTR _b$89537[ebp]

; 687  :       c = x1/4*yy - y1/4*xx;  /* const coeff */

	fld	QWORD PTR __real@3fd0000000000000
	fmul	ST(6), ST(0)
	fxch	ST(6)
	fmulp	ST(3), ST(0)
	fxch	ST(4)
	fmulp	ST(5), ST(0)
	fxch	ST(4)
	fmulp	ST(2), ST(0)
	fsubrp	ST(1), ST(0)

; 688  :       lambda = (fabs(c) < fabs(b)/100000) ?
; 689  :       ( (b > 0.0) ? (-2*c/(b + sqrt(b*b-4*a*c))) : (2*c/(-b + sqrt(b*b-4*a*c))) )
; 690  :       : (( c > 0 ) ? (2*c/(-b + sqrt(b*b-4*a*c))) : 
; 691  :                                (-2*c/(b + sqrt(b*b-4*a*c)))) ;

	fld	ST(0)
	fabs
	fld	ST(2)
	fabs
	fdiv	QWORD PTR __real@40f86a0000000000
	fcompp
	fnstsw	ax
	fldz
	test	ah, 65					; 00000041H
	jne	SHORT $LN186@edge_divid
	fcomp	ST(2)
	fnstsw	ax
	test	ah, 5
	jp	SHORT $LN182@edge_divid
	fld	QWORD PTR __real@c000000000000000
	fmul	ST(0), ST(1)
	fstp	QWORD PTR tv6130[ebp]
	fld	ST(1)
	fmulp	ST(2), ST(0)
	fxch	ST(2)
	fmul	QWORD PTR __real@4010000000000000
	fmulp	ST(2), ST(0)
	fsubrp	ST(1), ST(0)
	call	__CIsqrt
	fadd	QWORD PTR _b$89537[ebp]
	fdivr	QWORD PTR tv6130[ebp]
	jmp	$LN185@edge_divid
$LN182@edge_divid:
	fld	ST(0)
	fadd	ST(0), ST(1)
	fstp	QWORD PTR tv6132[ebp]
	fld	ST(1)
	fmulp	ST(2), ST(0)
	fxch	ST(2)
	fmul	QWORD PTR __real@4010000000000000
	fmulp	ST(2), ST(0)
	fsubrp	ST(1), ST(0)
	call	__CIsqrt
	fsub	QWORD PTR _b$89537[ebp]
	fdivr	QWORD PTR tv6132[ebp]
	jmp	SHORT $LN185@edge_divid
$LN186@edge_divid:
	fcomp	ST(1)
	fnstsw	ax
	test	ah, 5
	jp	SHORT $LN184@edge_divid
	fld	ST(0)
	fadd	ST(0), ST(1)
	fstp	QWORD PTR tv6134[ebp]
	fld	ST(1)
	fmulp	ST(2), ST(0)
	fxch	ST(2)
	fmul	QWORD PTR __real@4010000000000000
	fmulp	ST(2), ST(0)
	fsubrp	ST(1), ST(0)
	call	__CIsqrt
	fsub	QWORD PTR _b$89537[ebp]
	fdivr	QWORD PTR tv6134[ebp]
	jmp	SHORT $LN185@edge_divid
$LN184@edge_divid:
	fld	QWORD PTR __real@c000000000000000
	fmul	ST(0), ST(1)
	fstp	QWORD PTR tv6136[ebp]
	fld	ST(1)
	fmulp	ST(2), ST(0)
	fxch	ST(2)
	fmul	QWORD PTR __real@4010000000000000
	fmulp	ST(2), ST(0)
	fsubrp	ST(1), ST(0)
	call	__CIsqrt
	fadd	QWORD PTR _b$89537[ebp]
	fdivr	QWORD PTR tv6136[ebp]
$LN185@edge_divid:

; 692  :       q3[0] = h[0] + x1/2 + lambda*xp;

	fld	QWORD PTR _x1$89525[ebp]
	mov	eax, DWORD PTR _h$[ebp]
	fld	QWORD PTR __real@3fe0000000000000
	fmul	ST(1), ST(0)
	fxch	ST(1)
	fadd	QWORD PTR [eax]
	fld	ST(2)
	fmul	QWORD PTR _xp$89530[ebp]
	faddp	ST(1), ST(0)
	fstp	QWORD PTR _q3$[ebp]

; 693  :       q3[1] = h[1] + y1/2 + lambda*yp;

	fmul	QWORD PTR _y1$89526[ebp]
	fadd	QWORD PTR [eax+8]
	fxch	ST(1)
	fmul	QWORD PTR _yp$89531[ebp]
	faddp	ST(1), ST(0)
	fstp	QWORD PTR _q3$[ebp+8]

; 694  :     }
; 695  :     else

	jmp	SHORT $LN125@edge_divid
$LN525@edge_divid:

; 696  :     { for ( k = 0 ; k < SDIM ; k++ ) 

	xor	eax, eax
	fstp	ST(0)
	test	edx, edx
	jle	SHORT $LN125@edge_divid
	fld	QWORD PTR __real@3fe8000000000000
	mov	ecx, DWORD PTR _h$[ebp]
	fld	QWORD PTR __real@3fd8000000000000
	fld	QWORD PTR __real@3fc0000000000000
$LN147@edge_divid:

; 697  :       { q1[k] = 0.375*t[k] + 0.75*mu[k] - 0.125*h[k];

	fld	QWORD PTR [ebx+eax*8]
	inc	eax
	fmul	ST(0), ST(3)
	fld	QWORD PTR [esi+eax*8-8]
	fmul	ST(0), ST(3)
	faddp	ST(1), ST(0)
	fld	QWORD PTR [ecx+eax*8-8]
	fmul	ST(0), ST(2)
	fsubp	ST(1), ST(0)
	fstp	QWORD PTR _q1$[ebp+eax*8-8]

; 698  :         m[k] = mu[k];

	fld	QWORD PTR [ebx+eax*8-8]
	fstp	QWORD PTR _m$[ebp+eax*8-8]

; 699  :         q3[k] = 0.375*h[k] + 0.75*mu[k] - 0.125*t[k];

	fld	QWORD PTR [ebx+eax*8-8]
	fmul	ST(0), ST(3)
	fld	QWORD PTR [ecx+eax*8-8]
	fmul	ST(0), ST(3)
	faddp	ST(1), ST(0)
	fld	QWORD PTR [esi+eax*8-8]
	fmul	ST(0), ST(2)
	fsubp	ST(1), ST(0)
	fstp	QWORD PTR _q3$[ebp+eax*8-8]
	cmp	eax, edx
	jl	SHORT $LN147@edge_divid

; 696  :     { for ( k = 0 ; k < SDIM ; k++ ) 

	fstp	ST(2)
$LN566@edge_divid:

; 728  :       oldv[web.lagrange_order/2] = new_vertex(NULL,e_id);

	fstp	ST(0)
	fstp	ST(0)
$LN125@edge_divid:

; 729  :     }
; 730  : 
; 731  :   }
; 732  : 
; 733  :   /* make refine() work properly */
; 734  :   set_attr(divider,NEWVERTEX);

	mov	ebx, DWORD PTR _divider$[ebp]
	mov	edx, ebx
	shr	edx, 29					; 0000001dH
	imul	edx, 112				; 00000070H
	lea	eax, DWORD PTR _web[edx+12]
	and	ebx, 134217727				; 07ffffffH
	mov	DWORD PTR tv4129[ebp], eax
	mov	eax, DWORD PTR [eax]
	add	ebx, ebx
	add	ebx, ebx
	mov	eax, DWORD PTR [eax+ebx]
	mov	ecx, DWORD PTR [eax+12]
	or	DWORD PTR [eax+8], 4

; 735  : 
; 736  :   remove_vertex_edge(headv,inverse_id(e_id));

	mov	edx, edi
	xor	edx, 134217728				; 08000000H
	mov	DWORD PTR [eax+12], ecx
	mov	eax, DWORD PTR _headv$[ebp]
	push	edx
	push	eax
	mov	DWORD PTR tv4133[ebp], ebx
	call	_remove_vertex_edge

; 737  :   new_e = dup_edge(e_id);

	push	edi
	call	_dup_edge

; 738  :   insert_vertex_edge(headv,inverse_id(new_e));

	mov	edx, DWORD PTR _headv$[ebp]
	mov	esi, eax
	mov	ecx, esi
	xor	ecx, 134217728				; 08000000H
	push	ecx
	push	edx
	mov	DWORD PTR _new_e$[ebp], esi
	call	_insert_vertex_edge

; 739  :   set_edge_tailv(new_e,divider);

	mov	eax, DWORD PTR _divider$[ebp]
	push	eax
	push	esi
	call	_set_edge_tailv

; 740  :   set_edge_headv(e_id,divider);

	mov	ecx, DWORD PTR _divider$[ebp]
	push	ecx
	push	edi
	call	_set_edge_headv

; 741  :   set_attr(new_e,NEWEDGE | get_eattr(e_id));

	mov	ecx, DWORD PTR _web+124
	mov	edx, esi
	shr	edx, 29					; 0000001dH
	imul	edx, 112				; 00000070H
	and	esi, 134217727				; 07ffffffH
	lea	eax, DWORD PTR _web[edx+12]
	add	esi, esi
	add	esi, esi
	mov	DWORD PTR tv4340[ebp], eax
	mov	eax, DWORD PTR [eax]
	mov	eax, DWORD PTR [esi+eax]
	mov	DWORD PTR tv4344[ebp], esi
	mov	esi, edi
	and	esi, 134217727				; 07ffffffH
	mov	ecx, DWORD PTR [ecx+esi*4]
	mov	edx, DWORD PTR [ecx+8]
	mov	ecx, DWORD PTR [ecx+12]
	or	DWORD PTR [eax+12], ecx
	or	edx, 4
	or	DWORD PTR [eax+8], edx
	add	esp, 36					; 00000024H

; 742  :   if ( web.symmetry_flag )

	cmp	DWORD PTR _web+856, 0
	mov	DWORD PTR tv4074[ebp], esi
	je	$LN238@edge_divid

; 743  :   { set_edge_wrap(e_id,wrap1);  /* new vertex in same unit cell as tail */

	test	edi, 134217728				; 08000000H
	je	$LN236@edge_divid
	push	0
	call	DWORD PTR _sym_inverse
	add	esp, 4
	jmp	$LN237@edge_divid
$LN519@edge_divid:

; 641  :   }
; 642  :   else if ( web.modeltype == QUADRATIC )

	fstp	ST(2)

; 700  :       }
; 701  :     }
; 702  :     if ( wrap1 )
; 703  :     { (*sym_wrap)(q1,w,wrap1);
; 704  :       for ( k = 0 ; k < SDIM ; k++ ) q1[k] = w[k];
; 705  :     }
; 706  :   }
; 707  :   else if ( web.modeltype == LAGRANGE )

	cmp	eax, 3
	jne	$LN566@edge_divid

; 708  :   { oldv = get_edge_vertices(e_id);

	mov	ecx, DWORD PTR _dymem
	mov	edx, DWORD PTR _web+216
	mov	edx, DWORD PTR [edx+ecx+304]
	mov	eax, DWORD PTR _web+124
	mov	ebx, edi
	and	ebx, 134217727				; 07ffffffH
	add	ebx, ebx
	add	ebx, ebx
	add	edx, DWORD PTR [ebx+eax]

; 709  : 
; 710  :     /* get old vertex coordinates */
; 711  :     for ( i = 0 ; i <= web.lagrange_order ; i++ )

	mov	eax, DWORD PTR _web+632
	xor	ecx, ecx
	mov	DWORD PTR tv4093[ebp], ebx
	mov	DWORD PTR _oldv$[ebp], edx
	test	eax, eax
	js	$LN569@edge_divid

; 708  :   { oldv = get_edge_vertices(e_id);

	lea	ebx, DWORD PTR _prod1$[ebp]
	mov	DWORD PTR tv5784[ebp], ebx

; 713  :       else oldx[i] = h;  /* in case of unwrapping */

	lea	ebx, DWORD PTR _oldx$[ebp]
	sub	edx, ebx
	mov	DWORD PTR tv5810[ebp], edx
	jmp	SHORT $LN138@edge_divid
$LN496@edge_divid:
	mov	edx, DWORD PTR tv5810[ebp]
	fxch	ST(1)
$LN138@edge_divid:

; 712  :     { if ( i < web.lagrange_order ) oldx[i] = get_coord(oldv[i]);

	cmp	ecx, eax
	jge	SHORT $LN135@edge_divid
	mov	ebx, DWORD PTR _web+104
	lea	edx, DWORD PTR [edx+ecx*4]
	mov	eax, DWORD PTR _oldx$[ebp+edx]
	mov	edx, DWORD PTR _web+12
	and	eax, 134217727				; 07ffffffH
	mov	eax, DWORD PTR [edx+eax*4]
	mov	edx, DWORD PTR _dymem
	add	eax, DWORD PTR [ebx+edx+64]
	mov	DWORD PTR _oldx$[ebp+ecx*4], eax
	mov	eax, DWORD PTR _web+632
	jmp	SHORT $LN134@edge_divid
$LN135@edge_divid:

; 713  :       else oldx[i] = h;  /* in case of unwrapping */

	mov	edx, DWORD PTR _h$[ebp]
	mov	DWORD PTR _oldx$[ebp+ecx*4], edx
$LN134@edge_divid:

; 714  :       for ( j = 0, prod1[i] = 1.0 ; j <= web.lagrange_order ; j++ )

	mov	ebx, DWORD PTR tv5784[ebp]
	fxch	ST(1)
	fst	QWORD PTR [ebx]
	xor	edx, edx
	mov	DWORD PTR tv5741[ebp], ecx
$LN133@edge_divid:

; 715  :         if ( i != j )  prod1[i] *= i-j;

	cmp	ecx, edx
	je	SHORT $LN132@edge_divid
	fild	DWORD PTR tv5741[ebp]
	mov	ebx, DWORD PTR tv5784[ebp]
	fmul	QWORD PTR [ebx]
	fstp	QWORD PTR [ebx]
$LN132@edge_divid:

; 714  :       for ( j = 0, prod1[i] = 1.0 ; j <= web.lagrange_order ; j++ )

	dec	DWORD PTR tv5741[ebp]
	inc	edx
	cmp	edx, eax
	jle	SHORT $LN133@edge_divid

; 709  : 
; 710  :     /* get old vertex coordinates */
; 711  :     for ( i = 0 ; i <= web.lagrange_order ; i++ )

	add	DWORD PTR tv5784[ebp], 8
	inc	ecx
	cmp	ecx, eax
	jle	$LN496@edge_divid
	mov	ebx, DWORD PTR tv4093[ebp]
	fstp	ST(0)
	jmp	SHORT $LN491@edge_divid
$LN569@edge_divid:
	fstp	ST(1)
$LN491@edge_divid:

; 716  :     }
; 717  : 
; 718  :     /* figure out divider vertex */
; 719  :     for ( k = 0 ; k < SDIM ; k++ ) m[k] = (t[k] + h[k])/2;

	cmp	DWORD PTR _web+616, 0
	jle	SHORT $LN587@edge_divid
	mov	ecx, DWORD PTR _h$[ebp]
	mov	ebx, DWORD PTR _web+616
	lea	edx, DWORD PTR _m$[ebp]
	sub	ecx, esi
	sub	edx, esi
$LN129@edge_divid:
	fld	QWORD PTR [esi+ecx]
	add	esi, 8
	dec	ebx
	fadd	QWORD PTR [esi-8]
	fmul	ST(0), ST(1)
	fstp	QWORD PTR [esi+edx-8]
	jne	SHORT $LN129@edge_divid
	mov	ebx, DWORD PTR tv4093[ebp]
$LN587@edge_divid:
	fstp	ST(0)

; 720  :     if ( web.lagrange_order & 1 )  /* odd order */
; 721  :     { divider = new_vertex(m,e_id);

	push	edi
	test	al, 1
	je	SHORT $LN126@edge_divid
	lea	eax, DWORD PTR _m$[ebp]
	push	eax
	call	_new_vertex

; 722  :       set_attr(divider,get_eattr(e_id) & (FIXED|BARE_NAKED));

	mov	ecx, eax
	shr	ecx, 29					; 0000001dH
	imul	ecx, 112				; 00000070H
	mov	edx, DWORD PTR _web[ecx+12]
	mov	ecx, DWORD PTR _web+124
	mov	ebx, DWORD PTR [ebx+ecx]
	mov	DWORD PTR _divider$[ebp], eax
	and	eax, 134217727				; 07ffffffH
	mov	eax, DWORD PTR [edx+eax*4]
	mov	edx, DWORD PTR [ebx+8]
	and	edx, 65600				; 00010040H
	add	esp, 8
	or	DWORD PTR [eax+8], edx

; 723  :     }
; 724  :     else  /* even order */

	jmp	$LN125@edge_divid
$LN126@edge_divid:

; 725  :     { divider = oldv[web.lagrange_order/2];

	mov	esi, DWORD PTR _oldv$[ebp]
	cdq
	sub	eax, edx
	sar	eax, 1
	mov	ecx, DWORD PTR [esi+eax*4]

; 726  :       unset_attr(divider,Q_MIDEDGE);

	mov	eax, ecx
	mov	DWORD PTR _divider$[ebp], ecx
	shr	ecx, 29					; 0000001dH
	imul	ecx, 112				; 00000070H
	mov	ecx, DWORD PTR _web[ecx+12]
	and	eax, 134217727				; 07ffffffH
	add	eax, eax
	add	eax, eax
	mov	ecx, DWORD PTR [ecx+eax]
	mov	edx, DWORD PTR [ecx+12]
	and	DWORD PTR [ecx+8], -4194305		; ffbfffffH
	mov	DWORD PTR [ecx+12], edx

; 727  :       set_vertex_edge(divider,NULLID); /* so set_vertex_edge works */

	mov	ecx, DWORD PTR _web+12
	mov	edx, DWORD PTR [eax+ecx]

; 728  :       oldv[web.lagrange_order/2] = new_vertex(NULL,e_id);

	push	0
	mov	DWORD PTR [edx+28], 0
	call	_new_vertex
	mov	ecx, eax
	mov	eax, DWORD PTR _web+632
	cdq
	sub	eax, edx
	add	esp, 8
	sar	eax, 1
	mov	DWORD PTR [esi+eax*4], ecx
	jmp	$LN125@edge_divid

; 743  :   { set_edge_wrap(e_id,wrap1);  /* new vertex in same unit cell as tail */

$LN236@edge_divid:
	xor	eax, eax
$LN237@edge_divid:

; 744  :     set_edge_wrap(new_e,wrap2); 

	test	DWORD PTR _new_e$[ebp], 134217728	; 08000000H
	mov	ecx, DWORD PTR _dymem
	mov	edx, DWORD PTR _web+216
	mov	edx, DWORD PTR [edx+ecx+784]
	mov	ecx, DWORD PTR _web+124
	mov	ecx, DWORD PTR [ecx+esi*4]
	mov	DWORD PTR [edx+ecx], eax
	je	SHORT $LN240@edge_divid
	mov	edx, DWORD PTR _wrap2$[ebp]
	push	edx
	call	DWORD PTR _sym_inverse
	add	esp, 4
	jmp	SHORT $LN759@edge_divid
$LN240@edge_divid:
	mov	eax, DWORD PTR _wrap2$[ebp]
$LN759@edge_divid:
	mov	ecx, DWORD PTR _web+124
	mov	edx, DWORD PTR tv4344[ebp]
	mov	DWORD PTR tv1791[ebp], eax
	mov	eax, DWORD PTR [edx+ecx]
	mov	edx, DWORD PTR _dymem
	mov	ecx, DWORD PTR _web+216
	mov	ecx, DWORD PTR [ecx+edx+784]
	mov	edx, DWORD PTR tv1791[ebp]
	mov	DWORD PTR [eax+ecx], edx
$LN238@edge_divid:

; 745  :   }
; 746  :   if ( (web.modeltype == LINEAR) && web.metric_flag )

	mov	eax, DWORD PTR _web+628
	cmp	eax, 1
	jne	$LN482@edge_divid
	cmp	DWORD PTR _web+1676, 0
	je	$LN468@edge_divid

; 747  :   { /* get midpoint in metric middle */
; 748  :     REAL front,rear;  /* edge lengths */
; 749  :     REAL tt[MAXCOORD],hh[MAXCOORD];
; 750  :     REAL *xm = get_coord(divider);

	mov	eax, DWORD PTR _web+12
	mov	ebx, DWORD PTR [ebx+eax]
	mov	ecx, DWORD PTR _web+104
	mov	edx, DWORD PTR _dymem
	add	ebx, DWORD PTR [ecx+edx+64]
	mov	DWORD PTR _xm$89587[ebp], ebx
$LL122@edge_divid:

; 751  :     for(;;)  /* binary search for reasonable endpoint */ 
; 752  :     {
; 753  :       calc_edge(e_id);

	push	edi
	call	_calc_edge

; 754  :       rear = get_edge_length(e_id);

	push	edi
	call	_get_edge_length
	fstp	QWORD PTR _rear$89584[ebp]

; 755  :       calc_edge(new_e);

	mov	eax, DWORD PTR _new_e$[ebp]
	push	eax
	call	_calc_edge

; 756  :       front = get_edge_length(new_e);

	mov	ecx, DWORD PTR _new_e$[ebp]
	push	ecx
	call	_get_edge_length

; 757  :       if ( rear < 0.8*front )

	fld	QWORD PTR __real@3fe999999999999a
	fmul	ST(0), ST(1)
	add	esp, 16					; 00000010H
	fld	QWORD PTR _rear$89584[ebp]
	fcom	ST(1)
	fnstsw	ax
	fstp	ST(1)
	test	ah, 5
	jp	SHORT $LN120@edge_divid

; 758  :       { /* bisect high end */
; 759  :         t = tt;

	lea	edx, DWORD PTR _tt$89585[ebp]
	fstp	ST(1)
	mov	DWORD PTR _t$[ebp], edx
	fstp	ST(0)

; 760  :         for ( i = 0 ; i < SDIM ; i++ )

	xor	edx, edx
	cmp	DWORD PTR _web+616, edx
	jle	SHORT $LL122@edge_divid
	fld	QWORD PTR __real@3fe0000000000000
	mov	eax, ebx
	mov	ebx, DWORD PTR _h$[ebp]
	lea	ecx, DWORD PTR _tt$89585[ebp]
	sub	ecx, ebx
	mov	DWORD PTR tv6043[ebp], ecx
	mov	ecx, ebx
	sub	ecx, DWORD PTR _xm$89587[ebp]
	mov	ebx, DWORD PTR tv6043[ebp]
	mov	DWORD PTR tv5951[ebp], ecx
	jmp	SHORT $LN119@edge_divid
$LN485@edge_divid:
	mov	ecx, DWORD PTR tv5951[ebp]
$LN119@edge_divid:

; 761  :         { t[i] = xm[i];

	fld	QWORD PTR [eax]
	add	ecx, eax
	fst	QWORD PTR [ebx+ecx]
	inc	edx

; 762  :           xm[i] = (t[i] + h[i])/2;

	fadd	QWORD PTR [ecx]
	add	eax, 8
	fmul	ST(0), ST(1)
	fstp	QWORD PTR [eax-8]
	cmp	edx, DWORD PTR _web+616
	jl	SHORT $LN485@edge_divid

; 763  :         }
; 764  :       }
; 765  :       else if ( rear > 1.2*front )

	mov	ebx, DWORD PTR _xm$89587[ebp]
	fstp	ST(0)
	jmp	$LL122@edge_divid
$LN120@edge_divid:
	fxch	ST(1)
	fmul	QWORD PTR __real@3ff3333333333333
	fcompp
	fnstsw	ax
	test	ah, 5
	jp	SHORT $LN465@edge_divid

; 766  :       { /* bisect low end */
; 767  :         h = hh;
; 768  :         for ( i = 0 ; i < SDIM ; i++ )

	xor	edx, edx
	lea	eax, DWORD PTR _hh$89586[ebp]
	mov	DWORD PTR _h$[ebp], eax
	cmp	DWORD PTR _web+616, edx
	jle	$LL122@edge_divid
	fld	QWORD PTR __real@3fe0000000000000
	mov	eax, ebx
	mov	ebx, DWORD PTR _t$[ebp]
	lea	ecx, DWORD PTR _hh$89586[ebp]
	sub	ecx, ebx
	mov	DWORD PTR tv6046[ebp], ecx
	mov	ecx, ebx
	sub	ecx, DWORD PTR _xm$89587[ebp]
	mov	ebx, DWORD PTR tv6046[ebp]
	mov	DWORD PTR tv6022[ebp], ecx
	jmp	SHORT $LN114@edge_divid
$LN484@edge_divid:
	mov	ecx, DWORD PTR tv6022[ebp]
$LN114@edge_divid:

; 769  :         { h[i] = xm[i];

	fld	QWORD PTR [eax]
	add	ecx, eax
	fst	QWORD PTR [ebx+ecx]
	inc	edx

; 770  :           xm[i] = (t[i] + h[i])/2;

	fadd	QWORD PTR [ecx]
	add	eax, 8
	fmul	ST(0), ST(1)
	fstp	QWORD PTR [eax-8]
	cmp	edx, DWORD PTR _web+616
	jl	SHORT $LN484@edge_divid

; 771  :         }
; 772  :       }
; 773  :       else break;
; 774  :     } 

	mov	ebx, DWORD PTR _xm$89587[ebp]
	fstp	ST(0)
	jmp	$LL122@edge_divid
$LN465@edge_divid:
	mov	eax, DWORD PTR _web+628
$LN482@edge_divid:

; 775  :   }
; 776  : 
; 777  :      
; 778  :   if ( web.modeltype == QUADRATIC )

	cmp	eax, 2
	jne	$LN110@edge_divid

; 779  :   { /* new midpoint for old edge */
; 780  :     old_mid = new_vertex(q1,e_id);

	lea	ecx, DWORD PTR _q1$[ebp]
	push	edi
	push	ecx
	call	_new_vertex

; 781  :     set_edge_midv(e_id,old_mid);

	mov	edx, DWORD PTR _web+216
	mov	ecx, eax
	mov	eax, DWORD PTR _dymem
	mov	edx, DWORD PTR [edx+eax+304]
	mov	eax, DWORD PTR _web+124
	mov	eax, DWORD PTR [eax+esi*4]
	mov	DWORD PTR [edx+eax+8], ecx
	mov	edx, DWORD PTR _web+12
	mov	eax, ecx
	mov	DWORD PTR _old_mid$[ebp], ecx
	shr	ecx, 29					; 0000001dH
	imul	ecx, 112				; 00000070H
	and	eax, 134217727				; 07ffffffH
	add	eax, eax
	add	eax, eax
	mov	edx, DWORD PTR [eax+edx]
	mov	DWORD PTR [edx+28], edi
	lea	edx, DWORD PTR _web[ecx+12]
	mov	ecx, DWORD PTR [edx]
	mov	ecx, DWORD PTR [ecx+eax]
	or	DWORD PTR [ecx+8], 131072		; 00020000H
	mov	edi, DWORD PTR [ecx+12]
	mov	DWORD PTR [ecx+12], edi

; 782  :     set_attr(old_mid,get_eattr(e_id) & (FIXED|BARE_NAKED));

	mov	edx, DWORD PTR [edx]
	mov	ecx, DWORD PTR _global_timestamp
	inc	ecx
	mov	DWORD PTR _global_timestamp, ecx
	mov	DWORD PTR _top_timestamp, ecx
	mov	eax, DWORD PTR [edx+eax]
	mov	ecx, DWORD PTR _web+124
	mov	ecx, DWORD PTR [ecx+esi*4]
	mov	edx, DWORD PTR [ecx+8]
	and	edx, 65600				; 00010040H
	or	DWORD PTR [eax+8], edx
	xor	edi, edi
	or	DWORD PTR [eax+12], edi

; 783  : 
; 784  :     /* set up midpoint of new edge */
; 785  :     new_mid = get_edge_midv(new_e);

	mov	edx, DWORD PTR _web+124
	mov	eax, DWORD PTR tv4344[ebp]
	mov	ecx, DWORD PTR [eax+edx]
	mov	eax, DWORD PTR _dymem
	mov	ebx, DWORD PTR _web+216
	mov	eax, DWORD PTR [ebx+eax+304]
	mov	ecx, DWORD PTR [ecx+eax+8]

; 786  :     set_attr(new_mid,get_eattr(e_id) & (FIXED|BARE_NAKED));

	mov	edx, DWORD PTR [edx+esi*4]
	mov	edx, DWORD PTR [edx+8]
	mov	eax, ecx
	mov	DWORD PTR _new_mid$[ebp], ecx
	shr	ecx, 29					; 0000001dH
	imul	ecx, 112				; 00000070H
	mov	ecx, DWORD PTR _web[ecx+12]
	and	eax, 134217727				; 07ffffffH
	add	eax, eax
	add	eax, eax
	mov	ecx, DWORD PTR [ecx+eax]
	or	DWORD PTR [ecx+12], edi
	and	edx, 65600				; 00010040H
	or	DWORD PTR [ecx+8], edx

; 787  :     mv = get_coord(new_mid);

	mov	ecx, DWORD PTR _web+12
	mov	eax, DWORD PTR [eax+ecx]
	mov	edx, DWORD PTR _web+104
	mov	ecx, DWORD PTR _dymem
	add	eax, DWORD PTR [edx+ecx+64]
	add	esp, 8

; 788  :     for ( k = 0 ; k < SDIM ; k++ ) mv[k] = q3[k];

	xor	edx, edx
	cmp	DWORD PTR _web+616, edi
	jle	SHORT $LN469@edge_divid
	lea	ecx, DWORD PTR _q3$[ebp]
	sub	ecx, eax
	npad	7
$LL109@edge_divid:
	fld	QWORD PTR [ecx+eax]
	inc	edx
	fstp	QWORD PTR [eax]
	add	eax, 8
	cmp	edx, DWORD PTR _web+616
	jl	SHORT $LL109@edge_divid
$LN468@edge_divid:

; 829  :     }
; 830  :     else

	mov	ecx, DWORD PTR _dymem
$LN469@edge_divid:

; 789  : 
; 790  :   }
; 791  :   else if ( web.modeltype == LAGRANGE )

	mov	ebx, DWORD PTR _web+632
$LN760@edge_divid:
	fld	QWORD PTR __real@3fe0000000000000
$LN85@edge_divid:

; 843  :       }
; 844  :     }
; 845  :   }
; 846  : 
; 847  :   /* for free boundary edges, cannot just interpolate parameters
; 848  :      due to wrap-around of periodic parameters. So tangent extrapolate
; 849  :      from one endpoint.
; 850  :    */
; 851  :   if ( get_eattr(e_id) & BOUNDARY )

	mov	eax, DWORD PTR _web+124
	mov	esi, DWORD PTR [eax+esi*4]
	mov	edi, DWORD PTR [esi+8]
	mov	edx, DWORD PTR [esi+12]
	mov	eax, edi
	mov	DWORD PTR tv4142[ebp+4], edx
	and	eax, 128				; 00000080H
	xor	edx, edx
	or	eax, edx
	je	$LN608@edge_divid

; 852  :   { struct boundary *bdry;
; 853  :     REAL *parammid;
; 854  :     REAL  defaultp[MAXCOORD];
; 855  :     REAL *parama=NULL; /* tail */
; 856  :     REAL *paramb=NULL; /* head */
; 857  : 
; 858  :     bdry = get_edge_boundary(e_id);

	mov	eax, DWORD PTR _E_BOUNDARY_ATTR
	mov	DWORD PTR _parama$89687[ebp], edx
	mov	DWORD PTR _paramb$89689[ebp], edx
	cmp	eax, edx
	je	$LN188@edge_divid
	mov	edx, DWORD PTR tv4074[ebp]
	imul	eax, 240				; 000000f0H
	add	eax, DWORD PTR _web+216
	mov	ecx, DWORD PTR [eax+ecx+64]
	mov	eax, DWORD PTR _web+124
	mov	edx, DWORD PTR [eax+edx*4]
	mov	edi, DWORD PTR [edx+ecx]

; 859  :     set_edge_boundary_num(new_e,bdry->num);

	mov	edx, DWORD PTR tv4344[ebp]
	imul	edi, 136				; 00000088H
	add	edi, DWORD PTR _web+776
	mov	eax, DWORD PTR [edx+eax]
	mov	edx, DWORD PTR [edi+44]
	mov	DWORD PTR [ecx+eax], edx
	mov	ebx, DWORD PTR _web+632
	mov	ecx, DWORD PTR _dymem
$LN190@edge_divid:

; 860  : 
; 861  : 
; 862  :     if ( get_boundary(tailv) == bdry )

	mov	eax, DWORD PTR _V_BOUNDARY_ATTR
	test	eax, eax
	je	$LN192@edge_divid
	mov	edx, DWORD PTR tv4076[ebp]
	imul	eax, 240				; 000000f0H
	add	eax, DWORD PTR _web+104
	mov	esi, DWORD PTR _web+12
	mov	edx, DWORD PTR [esi+edx*4]
	mov	eax, DWORD PTR [eax+ecx+64]
	mov	edx, DWORD PTR [eax+edx]
	mov	eax, DWORD PTR _V_BOUNDARY_ATTR
	imul	edx, 136				; 00000088H
	add	edx, DWORD PTR _web+776
	jmp	$LN193@edge_divid
$LN110@edge_divid:

; 789  : 
; 790  :   }
; 791  :   else if ( web.modeltype == LAGRANGE )

	cmp	eax, 3
	jne	$LN468@edge_divid

; 792  :   { /* calculate new vertex coordinates */
; 793  : 
; 794  :     /* get vertices in right order */
; 795  :     newv = get_edge_vertices(new_e);

	mov	eax, DWORD PTR tv4344[ebp]
	mov	ecx, DWORD PTR _web+124
	mov	edx, DWORD PTR [eax+ecx]
	mov	eax, DWORD PTR _web+216
	mov	ecx, DWORD PTR _dymem
	add	edx, DWORD PTR [eax+ecx+304]

; 796  :     for ( n = 0 ; n < web.lagrange_order ; n++ )

	mov	ebx, DWORD PTR _web+632
	xor	eax, eax
	mov	DWORD PTR _newv$[ebp], edx
	test	ebx, ebx
	jle	SHORT $LN102@edge_divid

; 797  :     { allv[2*n] = oldv[n];

	mov	esi, DWORD PTR _oldv$[ebp]
	sub	esi, edx
	mov	DWORD PTR tv6105[ebp], edx
	mov	DWORD PTR tv6121[ebp], esi
	jmp	SHORT $LN104@edge_divid
$LL480@edge_divid:
	mov	esi, DWORD PTR tv6121[ebp]
$LN104@edge_divid:
	mov	esi, DWORD PTR [esi+edx]
	mov	DWORD PTR _allv$[ebp+eax*8], esi

; 798  :       allv[2*n+1] = newv[n];

	mov	esi, DWORD PTR [edx]
	mov	DWORD PTR _allv$[ebp+eax*8+4], esi
	inc	eax
	add	edx, 4
	cmp	eax, ebx
	jl	SHORT $LL480@edge_divid

; 796  :     for ( n = 0 ; n < web.lagrange_order ; n++ )

	mov	edx, DWORD PTR _newv$[ebp]
$LN102@edge_divid:

; 799  :     }
; 800  :     allv[2*n] = newv[n]; /* last one */

	mov	esi, DWORD PTR [edx+eax*4]
	mov	DWORD PTR _allv$[ebp+eax*8], esi

; 801  : 
; 802  :     /* get divider back into order */
; 803  :     allv[1] = allv[web.lagrange_order];

	mov	eax, DWORD PTR _allv$[ebp+ebx*4]
	mov	DWORD PTR _allv$[ebp+4], eax

; 804  :     allv[web.lagrange_order] = divider;

	mov	eax, DWORD PTR _divider$[ebp]

; 805  :      
; 806  :     for ( n = 1 ; n < web.lagrange_order ; n++ )

	mov	esi, 1
	mov	DWORD PTR _allv$[ebp+ebx*4], eax
	cmp	ebx, esi
	jle	$LN99@edge_divid
	mov	ecx, DWORD PTR _oldv$[ebp]
	lea	ebx, DWORD PTR _allv$[ebp]
	sub	ebx, ecx
	lea	eax, DWORD PTR [ecx+4]
	mov	DWORD PTR tv6235[ebp], ebx
	sub	edx, ecx
$LL101@edge_divid:

; 807  :     {
; 808  :       oldv[n] = allv[n];

	mov	ecx, DWORD PTR tv6235[ebp]
	mov	ecx, DWORD PTR [ecx+eax]
	mov	DWORD PTR [eax], ecx

; 809  :       newv[n] = allv[web.lagrange_order + n];

	mov	ecx, DWORD PTR _web+632
	add	ecx, esi
	mov	ecx, DWORD PTR _allv$[ebp+ecx*4]
	mov	DWORD PTR [edx+eax], ecx

; 810  :       set_vertex_edge(oldv[n],e_id);

	mov	ecx, DWORD PTR [eax]
	mov	ebx, DWORD PTR _web+12
	and	ecx, 134217727				; 07ffffffH
	mov	ecx, DWORD PTR [ebx+ecx*4]
	mov	DWORD PTR [ecx+28], edi

; 811  :       set_vertex_edge(newv[n],new_e);

	mov	ecx, DWORD PTR [edx+eax]
	mov	ebx, DWORD PTR _web+12
	and	ecx, 134217727				; 07ffffffH
	mov	ecx, DWORD PTR [ebx+ecx*4]
	mov	ebx, DWORD PTR _new_e$[ebp]
	mov	DWORD PTR [ecx+28], ebx

; 812  :       set_attr(oldv[n],Q_MIDEDGE);

	mov	ecx, DWORD PTR [eax]
	mov	ebx, ecx
	shr	ebx, 29					; 0000001dH
	imul	ebx, 112				; 00000070H
	mov	ebx, DWORD PTR _web[ebx+12]
	and	ecx, 134217727				; 07ffffffH
	mov	ecx, DWORD PTR [ebx+ecx*4]
	or	DWORD PTR [ecx+8], 4194304		; 00400000H
	mov	ebx, DWORD PTR [ecx+12]
	mov	DWORD PTR [ecx+12], ebx

; 813  :       set_attr(newv[n],Q_MIDEDGE);

	mov	ecx, DWORD PTR [edx+eax]
	mov	ebx, ecx
	shr	ebx, 29					; 0000001dH
	imul	ebx, 112				; 00000070H
	mov	ebx, DWORD PTR _web[ebx+12]
	and	ecx, 134217727				; 07ffffffH
	mov	ecx, DWORD PTR [ebx+ecx*4]
	mov	ebx, DWORD PTR [ecx+12]
	or	DWORD PTR [ecx+8], 4194304		; 00400000H
	mov	DWORD PTR [ecx+12], ebx
	mov	ebx, DWORD PTR _web+632
	inc	esi
	add	eax, 4
	cmp	esi, ebx
	jl	$LL101@edge_divid

; 805  :      
; 806  :     for ( n = 1 ; n < web.lagrange_order ; n++ )

	mov	ecx, DWORD PTR _dymem
$LN99@edge_divid:

; 814  :     }
; 815  : 
; 816  :     /* set coordinates of new vertices */
; 817  :     if ( bezier_flag )

	cmp	DWORD PTR _bezier_flag, 0
	je	$LN98@edge_divid

; 818  :     { 
; 819  :       /* have to change all control points */
; 820  :       MAT2D(oldc,MAXLAGRANGE+1,MAXCOORD);

	push	6
	push	21					; 00000015H
	lea	edx, DWORD PTR _oldcxJ$89641[ebp]
	push	edx
	lea	eax, DWORD PTR _oldcqXvS$89640[ebp]
	push	eax
	call	_mat2d_setup

; 821  :       REAL *newx[2*MAXLAGRANGE+1];
; 822  :       for ( i = 0 ; i <= web.lagrange_order ; i++ )

	mov	esi, DWORD PTR _web+632
	add	esp, 16					; 00000010H
	xor	ebx, ebx
	mov	DWORD PTR _oldc$89642[ebp], eax
	test	esi, esi
	js	SHORT $LN466@edge_divid
	mov	edi, eax
	lea	eax, DWORD PTR _oldx$[ebp]
	sub	eax, edi
$LL97@edge_divid:

; 823  :         for ( j = 0 ; j < SDIM ; j++ )

	xor	edx, edx
	cmp	DWORD PTR _web+616, edx
	jle	SHORT $LN96@edge_divid
	mov	ecx, DWORD PTR [edi]
	mov	esi, DWORD PTR [eax+edi]
	sub	esi, ecx
$LL502@edge_divid:

; 824  :           oldc[i][j] = oldx[i][j]; 

	fld	QWORD PTR [esi+ecx]
	inc	edx
	fstp	QWORD PTR [ecx]
	add	ecx, 8
	cmp	edx, DWORD PTR _web+616
	jl	SHORT $LL502@edge_divid

; 823  :         for ( j = 0 ; j < SDIM ; j++ )

	mov	esi, DWORD PTR _web+632
$LN96@edge_divid:

; 821  :       REAL *newx[2*MAXLAGRANGE+1];
; 822  :       for ( i = 0 ; i <= web.lagrange_order ; i++ )

	inc	ebx
	add	edi, 4
	cmp	ebx, esi
	jle	SHORT $LL97@edge_divid
$LN466@edge_divid:

; 825  :       for ( i = 0 ; i <= 2*web.lagrange_order ; i++ )

	lea	edx, DWORD PTR [esi+esi]
	xor	ecx, ecx
	test	edx, edx
	js	SHORT $LN504@edge_divid
	mov	eax, DWORD PTR _web+104
$LL495@edge_divid:

; 826  :         newx[i] = get_coord(allv[i]);

	mov	edi, DWORD PTR _allv$[ebp+ecx*4]
	mov	ebx, DWORD PTR _web+12
	and	edi, 134217727				; 07ffffffH
	mov	edi, DWORD PTR [ebx+edi*4]
	mov	ebx, DWORD PTR _dymem
	add	edi, DWORD PTR [eax+ebx+64]
	inc	ecx
	mov	DWORD PTR _newx$89644[ebp+ecx*4-4], edi
	cmp	ecx, edx
	jle	SHORT $LL495@edge_divid
$LN504@edge_divid:

; 827  :       mat_mult(bezier_refine_1d[web.lagrange_order],oldc,newx,
; 828  :          2*web.lagrange_order+1,web.lagrange_order+1,SDIM); 

	mov	ecx, DWORD PTR _web+616
	push	ecx
	lea	eax, DWORD PTR [esi+1]
	push	eax
	mov	eax, DWORD PTR _bezier_refine_1d[esi*4]
	inc	edx
	push	edx
	mov	edx, DWORD PTR _oldc$89642[ebp]
	lea	ecx, DWORD PTR _newx$89644[ebp]
	push	ecx
	push	edx
	push	eax
	call	_mat_mult

; 829  :     }
; 830  :     else

	mov	esi, DWORD PTR tv4074[ebp]
	add	esp, 24					; 00000018H
	jmp	$LN468@edge_divid
$LN98@edge_divid:

; 831  :     for ( n = 0 ; n < web.lagrange_order ; n++ )

	mov	DWORD PTR _n$[ebp], 0
	test	ebx, ebx
	jle	$LN467@edge_divid
	fld1
	mov	esi, DWORD PTR _web+616
	fldz
	fld	QWORD PTR __real@3fe0000000000000
$LN87@edge_divid:

; 832  :     { REAL coeff;
; 833  :       REAL x;
; 834  :       REAL *newx = get_coord(allv[2*n+1]);

	mov	edx, DWORD PTR _n$[ebp]

; 835  :       x = n + 0.5;

	fild	DWORD PTR _n$[ebp]
	mov	eax, DWORD PTR _allv$[ebp+edx*8+4]
	mov	edx, DWORD PTR _web+12
	and	eax, 134217727				; 07ffffffH
	fadd	ST(0), ST(1)
	mov	edi, DWORD PTR [edx+eax*4]

; 836  :       for ( j = 0, prod2 = 1.0 ; j <= web.lagrange_order ; j++ )

	fld	ST(3)
	mov	eax, DWORD PTR _web+104
	add	edi, DWORD PTR [eax+ecx+64]
	xor	eax, eax
	mov	DWORD PTR _j$[ebp], eax
	test	ebx, ebx
	js	SHORT $LN489@edge_divid
$LN84@edge_divid:

; 837  :          prod2 *= x - j;

	fild	DWORD PTR _j$[ebp]
	inc	eax
	mov	DWORD PTR _j$[ebp], eax
	fsubr	ST(0), ST(2)
	fmulp	ST(1), ST(0)
	cmp	eax, ebx
	jle	SHORT $LN84@edge_divid
$LN489@edge_divid:

; 838  :       for ( k = 0 ; k < SDIM ; k++ ) newx[k] = 0.0;

	xor	eax, eax
	test	esi, esi
	jle	SHORT $LN79@edge_divid
$LN81@edge_divid:
	fxch	ST(3)
	inc	eax
	fst	QWORD PTR [edi+eax*8-8]
	mov	esi, DWORD PTR _web+616
	fxch	ST(3)
	cmp	eax, esi
	jl	SHORT $LN81@edge_divid
	mov	ebx, DWORD PTR _web+632
	mov	ecx, DWORD PTR _dymem
$LN79@edge_divid:

; 839  :       for ( i = 0 ; i <= web.lagrange_order ; i++ )

	mov	DWORD PTR _i$[ebp], 0
	test	ebx, ebx
	js	SHORT $LN745@edge_divid
$LN78@edge_divid:

; 840  :       { coeff = prod2/(x-i)/prod1[i];

	fild	DWORD PTR _i$[ebp]
	mov	ecx, DWORD PTR _i$[ebp]
	fsubr	ST(0), ST(2)
	fdivr	ST(0), ST(1)
	fdiv	QWORD PTR _prod1$[ebp+ecx*8]

; 841  :         for ( k = 0 ; k < SDIM ; k++ )

	xor	ecx, ecx
	test	esi, esi
	jle	SHORT $LN748@edge_divid
	mov	edx, DWORD PTR _i$[ebp]
	mov	edx, DWORD PTR _oldx$[ebp+edx*4]
	mov	eax, edi
	sub	edx, edi
$LN75@edge_divid:

; 842  :            newx[k] += coeff*oldx[i][k];

	fld	QWORD PTR [edx+eax]
	inc	ecx
	fmul	ST(0), ST(1)
	add	eax, 8
	fadd	QWORD PTR [eax-8]
	fstp	QWORD PTR [eax-8]
	mov	esi, DWORD PTR _web+616
	cmp	ecx, esi
	jl	SHORT $LN75@edge_divid

; 841  :         for ( k = 0 ; k < SDIM ; k++ )

	mov	ebx, DWORD PTR _web+632
$LN748@edge_divid:

; 839  :       for ( i = 0 ; i <= web.lagrange_order ; i++ )

	mov	eax, DWORD PTR _i$[ebp]

; 841  :         for ( k = 0 ; k < SDIM ; k++ )

	fstp	ST(0)
	inc	eax
	mov	DWORD PTR _i$[ebp], eax
	cmp	eax, ebx
	jle	SHORT $LN78@edge_divid

; 839  :       for ( i = 0 ; i <= web.lagrange_order ; i++ )

	mov	ecx, DWORD PTR _dymem
$LN745@edge_divid:

; 831  :     for ( n = 0 ; n < web.lagrange_order ; n++ )

	mov	eax, DWORD PTR _n$[ebp]

; 839  :       for ( i = 0 ; i <= web.lagrange_order ; i++ )

	fstp	ST(0)
	inc	eax
	fstp	ST(0)
	mov	DWORD PTR _n$[ebp], eax
	cmp	eax, ebx
	jl	$LN87@edge_divid

; 831  :     for ( n = 0 ; n < web.lagrange_order ; n++ )

	mov	esi, DWORD PTR tv4074[ebp]
	fstp	ST(2)
	fstp	ST(0)
	jmp	$LN85@edge_divid
$LN467@edge_divid:
	mov	esi, DWORD PTR tv4074[ebp]
	jmp	$LN760@edge_divid
$LN188@edge_divid:

; 852  :   { struct boundary *bdry;
; 853  :     REAL *parammid;
; 854  :     REAL  defaultp[MAXCOORD];
; 855  :     REAL *parama=NULL; /* tail */
; 856  :     REAL *paramb=NULL; /* head */
; 857  : 
; 858  :     bdry = get_edge_boundary(e_id);

	xor	edi, edi

; 859  :     set_edge_boundary_num(new_e,bdry->num);

	jmp	$LN190@edge_divid
$LN192@edge_divid:

; 860  : 
; 861  : 
; 862  :     if ( get_boundary(tailv) == bdry )

	xor	edx, edx
$LN193@edge_divid:
	cmp	edx, edi
	jne	SHORT $LN71@edge_divid

; 863  :       parama = get_param(tailv);

	mov	eax, DWORD PTR _web+104
	mov	eax, DWORD PTR [eax+ecx+544]
	mov	edx, DWORD PTR tv4076[ebp]
	mov	esi, DWORD PTR _web+12
	add	eax, DWORD PTR [esi+edx*4]
	mov	DWORD PTR _parama$89687[ebp], eax
	mov	eax, DWORD PTR _V_BOUNDARY_ATTR
	jmp	$LN474@edge_divid
$LN71@edge_divid:

; 864  :     else if ( extra_bdry_attr && extra_bdry_param_attr)

	cmp	DWORD PTR _extra_bdry_attr, 0
	je	$LN474@edge_divid
	cmp	DWORD PTR _extra_bdry_param_attr, 0
	je	$LN474@edge_divid

; 865  :     { int bnum = *(int*)get_extra(tailv,extra_bdry_attr);

	mov	edx, DWORD PTR _tailv$[ebp]
	mov	esi, DWORD PTR tv4076[ebp]
	shr	edx, 29					; 0000001dH
	imul	edx, 112				; 00000070H
	mov	DWORD PTR tv4623[ebp], edx
	mov	edx, DWORD PTR _web[edx+12]
	mov	edx, DWORD PTR [edx+esi*4]
	mov	esi, DWORD PTR _extra_bdry_attr
	imul	esi, 240				; 000000f0H
	mov	DWORD PTR tv4629[ebp], edx
	mov	edx, DWORD PTR tv4623[ebp]
	mov	edx, DWORD PTR _web[edx+104]
	add	esi, edx
	mov	DWORD PTR tv4632[ebp], edx

; 866  :       if ( bnum == bdry->num )

	mov	edx, DWORD PTR [esi+ecx+64]
	mov	esi, DWORD PTR tv4629[ebp]
	mov	edx, DWORD PTR [esi+edx]
	cmp	edx, DWORD PTR [edi+44]
	jne	SHORT $LN474@edge_divid

; 867  :          parama = (REAL*)get_extra(tailv,extra_bdry_param_attr);

	mov	edx, DWORD PTR _extra_bdry_param_attr
	imul	edx, 240				; 000000f0H
	add	edx, DWORD PTR tv4632[ebp]
	mov	edx, DWORD PTR [edx+ecx+64]
	add	edx, esi
	mov	DWORD PTR _parama$89687[ebp], edx
$LN474@edge_divid:

; 868  :     }
; 869  :     
; 870  :     if ( get_boundary(headv) == bdry )

	test	eax, eax
	je	SHORT $LN194@edge_divid
	mov	edx, DWORD PTR tv4086[ebp]
	imul	eax, 240				; 000000f0H
	add	eax, DWORD PTR _web+104
	mov	esi, DWORD PTR _web+12
	mov	eax, DWORD PTR [eax+ecx+64]
	mov	edx, DWORD PTR [esi+edx*4]
	mov	eax, DWORD PTR [eax+edx]
	imul	eax, 136				; 00000088H
	add	eax, DWORD PTR _web+776
	jmp	SHORT $LN195@edge_divid
$LN194@edge_divid:
	xor	eax, eax
$LN195@edge_divid:
	cmp	eax, edi
	jne	SHORT $LN67@edge_divid

; 871  :         paramb = get_param(headv);

	mov	eax, DWORD PTR _web+104
	mov	ecx, DWORD PTR [eax+ecx+544]
	mov	edx, DWORD PTR tv4086[ebp]
	mov	eax, DWORD PTR _web+12
	add	ecx, DWORD PTR [eax+edx*4]

; 872  :     else if ( extra_bdry_attr && extra_bdry_param_attr &&

	jmp	SHORT $LN761@edge_divid
$LN67@edge_divid:

; 873  :            (*(int*)get_extra(headv,extra_bdry_attr) == bdry->num) )

	cmp	DWORD PTR _extra_bdry_attr, 0
	je	SHORT $LN475@edge_divid
	cmp	DWORD PTR _extra_bdry_param_attr, 0
	je	SHORT $LN475@edge_divid
	mov	eax, DWORD PTR _headv$[ebp]
	mov	esi, DWORD PTR tv4086[ebp]
	shr	eax, 29					; 0000001dH
	imul	eax, 112				; 00000070H
	mov	edx, DWORD PTR _web[eax+12]
	mov	esi, DWORD PTR [edx+esi*4]
	mov	edx, DWORD PTR _extra_bdry_attr
	mov	eax, DWORD PTR _web[eax+104]
	imul	edx, 240				; 000000f0H
	add	edx, eax
	mov	edx, DWORD PTR [edx+ecx+64]
	mov	edx, DWORD PTR [esi+edx]
	cmp	edx, DWORD PTR [edi+44]
	jne	SHORT $LN475@edge_divid

; 874  :         paramb = (REAL*)get_extra(headv,extra_bdry_param_attr);

	mov	edx, DWORD PTR _extra_bdry_param_attr
	imul	edx, 240				; 000000f0H
	add	edx, eax
	mov	ecx, DWORD PTR [edx+ecx+64]
	add	ecx, esi
$LN761@edge_divid:
	mov	DWORD PTR _paramb$89689[ebp], ecx
$LN475@edge_divid:

; 875  : 
; 876  : 
; 877  :     if ( (web.modeltype == LINEAR) || 
; 878  :          ((web.modeltype==LAGRANGE) && (web.lagrange_order == 1)) )

	mov	eax, DWORD PTR _web+628
	cmp	eax, 1
	je	$LN63@edge_divid
	cmp	eax, 3
	jne	$LN64@edge_divid
	cmp	ebx, 1
	je	$LN63@edge_divid

; 973  :     }
; 974  :     else if ( web.modeltype == LAGRANGE )
; 975  :     { set_attr(divider,BOUNDARY);

	mov	eax, DWORD PTR tv4129[ebp]
	mov	ecx, DWORD PTR [eax]
	mov	edx, DWORD PTR tv4133[ebp]
	mov	ecx, DWORD PTR [ecx+edx]
	mov	eax, DWORD PTR [ecx+12]
	or	DWORD PTR [ecx+8], 128			; 00000080H
	mov	DWORD PTR [ecx+12], eax

; 976  :       set_boundary_num(divider,bdry->num);

	mov	eax, DWORD PTR _V_BOUNDARY_ATTR
	test	eax, eax
	je	SHORT $LN210@edge_divid
	mov	ecx, DWORD PTR _dymem
	imul	eax, 240				; 000000f0H
	add	eax, DWORD PTR _web+104
	mov	eax, DWORD PTR [eax+ecx+64]
	mov	ecx, DWORD PTR _web+12
	mov	edx, DWORD PTR [edx+ecx]
	mov	ecx, DWORD PTR [edi+44]
	mov	DWORD PTR [eax+edx], ecx
$LN210@edge_divid:

; 977  :       oldv = get_edge_vertices(e_id);
; 978  :       newv = get_edge_vertices(new_e);
; 979  : 
; 980  :       /* calculate new parameter values */
; 981  :       if ( interp_bdry_param && parama && paramb )

	cmp	DWORD PTR _interp_bdry_param, 0
	je	$LN650@edge_divid
	cmp	DWORD PTR _parama$89687[ebp], 0
	je	$LN650@edge_divid
	cmp	DWORD PTR _paramb$89689[ebp], 0
	je	$LN650@edge_divid

; 982  :       { 
; 983  :          for ( i = 1; i < 2*web.lagrange_order ; i += 2 ) /* tail half */

	mov	edx, DWORD PTR _web+632
	mov	ecx, 1
	add	edx, edx
	mov	DWORD PTR _i$[ebp], ecx
	mov	DWORD PTR tv4528[ebp], edx
	cmp	edx, ecx
	jle	$LN719@edge_divid
	mov	esi, DWORD PTR [edi+40]
	mov	eax, DWORD PTR _web+104
$LN35@edge_divid:

; 984  :          { REAL *pa = (i==1) ? parama : get_param(allv[i-1]);

	cmp	ecx, 1
	jne	$LN212@edge_divid
	mov	ebx, DWORD PTR _parama$89687[ebp]
	mov	DWORD PTR _pa$89860[ebp], ebx
	jmp	$LN213@edge_divid
$LN64@edge_divid:

; 933  :       }
; 934  :     }  /* end linear */
; 935  :     else if ( web.modeltype == QUADRATIC )

	cmp	eax, 2
	jne	$LN719@edge_divid

; 936  :     { REAL *paramc; 
; 937  :       set_attr(old_mid,BOUNDARY);

	mov	ecx, DWORD PTR _old_mid$[ebp]
	mov	eax, ecx
	shr	ecx, 29					; 0000001dH
	imul	ecx, 112				; 00000070H
	mov	ecx, DWORD PTR _web[ecx+12]
	and	eax, 134217727				; 07ffffffH
	add	eax, eax
	add	eax, eax
	mov	ecx, DWORD PTR [ecx+eax]
	mov	edx, DWORD PTR [ecx+12]
	mov	esi, 128				; 00000080H
	or	DWORD PTR [ecx+8], esi
	mov	DWORD PTR [ecx+12], edx

; 938  :       set_boundary_num(old_mid,bdry->num);

	mov	ecx, DWORD PTR _V_BOUNDARY_ATTR
	test	ecx, ecx
	je	SHORT $LN206@edge_divid
	mov	edx, DWORD PTR _dymem
	imul	ecx, 240				; 000000f0H
	add	ecx, DWORD PTR _web+104
	mov	ebx, DWORD PTR [edi+44]
	mov	ecx, DWORD PTR [ecx+edx+64]
	mov	edx, DWORD PTR _web+12
	mov	edx, DWORD PTR [eax+edx]
	mov	DWORD PTR [ecx+edx], ebx
$LN206@edge_divid:

; 939  :       set_attr(new_mid,BOUNDARY);

	mov	edx, DWORD PTR _new_mid$[ebp]
	mov	ecx, edx
	shr	edx, 29					; 0000001dH
	imul	edx, 112				; 00000070H
	mov	edx, DWORD PTR _web[edx+12]
	and	ecx, 134217727				; 07ffffffH
	add	ecx, ecx
	add	ecx, ecx
	mov	edx, DWORD PTR [edx+ecx]
	or	DWORD PTR [edx+8], esi
	mov	esi, DWORD PTR [edx+12]
	mov	DWORD PTR [edx+12], esi

; 940  :       set_boundary_num(new_mid,bdry->num);

	mov	edx, DWORD PTR _V_BOUNDARY_ATTR
	mov	DWORD PTR tv4425[ebp], ecx
	test	edx, edx
	je	SHORT $LN208@edge_divid
	mov	esi, DWORD PTR _dymem
	imul	edx, 240				; 000000f0H
	add	edx, DWORD PTR _web+104
	mov	edx, DWORD PTR [edx+esi+64]
	mov	esi, DWORD PTR _web+12
	mov	ecx, DWORD PTR [ecx+esi]
	mov	esi, DWORD PTR [edi+44]
	mov	DWORD PTR [edx+ecx], esi
$LN208@edge_divid:

; 941  : 
; 942  :       paramc = get_param(divider);

	mov	edx, DWORD PTR tv4133[ebp]
	mov	ecx, DWORD PTR _web+12
	mov	ebx, DWORD PTR [edx+ecx]
	mov	ecx, DWORD PTR _web+104
	mov	edx, DWORD PTR _dymem
	mov	esi, DWORD PTR [ecx+edx+544]
	mov	DWORD PTR tv4708[ebp], ebx
	add	ebx, esi

; 943  : 
; 944  :       if ( interp_bdry_param && parama )

	cmp	DWORD PTR _interp_bdry_param, 0
	mov	DWORD PTR tv4620[ebp], esi
	je	SHORT $LN686@edge_divid
	cmp	DWORD PTR _parama$89687[ebp], 0
	je	SHORT $LN686@edge_divid

; 945  :       { 
; 946  :         parammid = get_param(old_mid);             

	mov	esi, DWORD PTR _web+12
	mov	eax, DWORD PTR [eax+esi]
	add	eax, DWORD PTR tv4620[ebp]

; 947  :         for ( i = 0 ; i < bdry->pcount ; i++ )

	xor	esi, esi
	mov	DWORD PTR _parammid$89685[ebp], eax
	cmp	DWORD PTR [edi+40], esi
	jle	SHORT $LN476@edge_divid
	mov	ecx, DWORD PTR _parama$89687[ebp]
	mov	edx, DWORD PTR _parammid$89685[ebp]
	sub	ecx, ebx
	mov	eax, ebx
	sub	edx, ebx
$LN47@edge_divid:

; 948  :           parammid[i] = (parama[i] + paramc[i])/2;

	fld	QWORD PTR [ecx+eax]
	inc	esi
	fadd	QWORD PTR [eax]
	add	eax, 8
	fmul	ST(0), ST(1)
	fstp	QWORD PTR [edx+eax-8]
	cmp	esi, DWORD PTR [edi+40]
	jl	SHORT $LN47@edge_divid

; 949  :       }
; 950  :       else

	jmp	SHORT $LN762@edge_divid
$LN686@edge_divid:

; 951  :       { mu = get_coord(divider);

	mov	ecx, DWORD PTR [ecx+edx+64]
	fstp	ST(0)

; 952  : 
; 953  :         /* find new parameters of old edge midpoint */
; 954  :         /* projecting on tangent */
; 955  :         parammid = get_param(old_mid);             
; 956  :         mv = get_coord(old_mid);

	mov	esi, DWORD PTR _web+12
	mov	eax, DWORD PTR [eax+esi]
	mov	edx, DWORD PTR tv4708[ebp]

; 957  :         b_extrapolate(bdry,mu,mv,mv,paramc,parammid,old_mid);

	mov	esi, DWORD PTR _old_mid$[ebp]
	add	edx, ecx
	add	ecx, eax
	add	eax, DWORD PTR tv4620[ebp]
	push	esi
	push	eax
	push	ebx
	push	ecx
	push	ecx
	push	edx
	push	edi
	mov	DWORD PTR _mu$[ebp], edx
	call	_b_extrapolate
	fld	QWORD PTR __real@3fe0000000000000
	add	esp, 28					; 0000001cH
$LN762@edge_divid:
	mov	edx, DWORD PTR _dymem
	mov	ecx, DWORD PTR _web+104
$LN476@edge_divid:

; 958  :       }
; 959  :       if ( interp_bdry_param && paramb )

	cmp	DWORD PTR _interp_bdry_param, 0
	je	SHORT $LN698@edge_divid
	cmp	DWORD PTR _paramb$89689[ebp], 0
	je	SHORT $LN698@edge_divid

; 960  :       {
; 961  :         parammid = get_param(new_mid);             

	mov	eax, DWORD PTR tv4425[ebp]
	mov	esi, DWORD PTR _web+12
	mov	esi, DWORD PTR [eax+esi]
	add	esi, DWORD PTR [ecx+edx+544]

; 962  :         for ( i = 0 ; i < bdry->pcount ; i++ )

	xor	ecx, ecx
	cmp	DWORD PTR [edi+40], ecx
	jle	SHORT $LN719@edge_divid
	mov	edx, DWORD PTR _paramb$89689[ebp]
	sub	edx, ebx
	mov	eax, ebx
	sub	esi, ebx
$LN42@edge_divid:

; 963  :           parammid[i] = (paramb[i] + paramc[i])/2;

	fld	QWORD PTR [edx+eax]
	inc	ecx
	fadd	QWORD PTR [eax]
	add	eax, 8
	fmul	ST(0), ST(1)
	fstp	QWORD PTR [eax+esi-8]
	cmp	ecx, DWORD PTR [edi+40]
	jl	SHORT $LN42@edge_divid
$LN719@edge_divid:

; 886  :       { for (  i = 0 ; i < bdry->pcount ; i++ )

	fstp	ST(0)
$LN470@edge_divid:

; 1024 :       }
; 1025 :       /* this should have been taken care of for Lagrange in dup_edge */
; 1026 :     }
; 1027 :   }
; 1028 : 
; 1029 :   old_fe = first_fe = get_edge_fe(e_id);

	mov	eax, DWORD PTR tv4074[ebp]
	mov	ecx, DWORD PTR _web+124
	mov	eax, DWORD PTR [ecx+eax*4]
	test	eax, eax
	jne	$LN279@edge_divid
	mov	DWORD PTR _first_fe$[ebp], eax
	jmp	$LN280@edge_divid
$LN698@edge_divid:

; 964  :       }
; 965  :       else
; 966  :       {
; 967  :         /* find parameters of new edge midpoint */
; 968  :         /* projecting on tangent */
; 969  :         parammid = get_param(new_mid);             
; 970  :         mv = get_coord(new_mid);

	mov	eax, DWORD PTR tv4425[ebp]
	fstp	ST(0)
	mov	esi, DWORD PTR _web+12
	mov	esi, DWORD PTR [eax+esi]
	mov	eax, DWORD PTR [ecx+edx+64]
	mov	ecx, DWORD PTR [ecx+edx+544]

; 971  :         b_extrapolate(bdry,mu,mv,mv,paramc,parammid,new_mid);

	mov	edx, DWORD PTR _mu$[ebp]
	add	eax, esi
	mov	DWORD PTR tv4746[ebp], esi
	mov	esi, DWORD PTR _new_mid$[ebp]
	add	ecx, DWORD PTR tv4746[ebp]
	push	esi
	push	ecx
	push	ebx
	push	eax
	push	eax
	push	edx
	push	edi
	call	_b_extrapolate
	add	esp, 28					; 0000001cH

; 972  :       }

	jmp	SHORT $LN470@edge_divid
$LN212@edge_divid:

; 984  :          { REAL *pa = (i==1) ? parama : get_param(allv[i-1]);

	mov	edx, DWORD PTR _allv$[ebp+ecx*4-4]
	mov	ebx, DWORD PTR _web+12
	and	edx, 134217727				; 07ffffffH
	mov	edx, DWORD PTR [ebx+edx*4]
	mov	ebx, DWORD PTR _dymem
	add	edx, DWORD PTR [eax+ebx+544]
	mov	DWORD PTR _pa$89860[ebp], edx
	mov	edx, DWORD PTR tv4528[ebp]
$LN213@edge_divid:

; 985  :            REAL *pb = (i==2*web.lagrange_order-1)? get_param(allv[1])
; 986  :                               : paramb;

	dec	edx
	cmp	ecx, edx
	jne	SHORT $LN214@edge_divid
	mov	edx, DWORD PTR _allv$[ebp+4]
	mov	ebx, DWORD PTR _web+12
	and	edx, 134217727				; 07ffffffH
	mov	ebx, DWORD PTR [ebx+edx*4]
	mov	edx, DWORD PTR _dymem
	add	ebx, DWORD PTR [eax+edx+544]
	jmp	SHORT $LN215@edge_divid
$LN214@edge_divid:
	mov	ebx, DWORD PTR _paramb$89689[ebp]
$LN215@edge_divid:

; 987  :            REAL *p  = get_param(allv[i]);

	mov	ecx, DWORD PTR _allv$[ebp+ecx*4]
	mov	edx, DWORD PTR _web+12
	and	ecx, 134217727				; 07ffffffH
	mov	edx, DWORD PTR [edx+ecx*4]
	mov	ecx, DWORD PTR _dymem
	add	edx, DWORD PTR [eax+ecx+544]

; 988  :            for (  k = 0 ; k < bdry->pcount ; k++ )

	xor	ecx, ecx
	test	esi, esi
	jle	SHORT $LN490@edge_divid
	mov	eax, DWORD PTR _pa$89860[ebp]
	sub	ebx, eax
	sub	edx, eax
$LN486@edge_divid:

; 989  :                p[k] = (pa[k] + pb[k])/2;

	fld	QWORD PTR [ebx+eax]
	inc	ecx
	fadd	QWORD PTR [eax]
	add	eax, 8
	fmul	ST(0), ST(1)
	fstp	QWORD PTR [edx+eax-8]
	mov	esi, DWORD PTR [edi+40]
	cmp	ecx, esi
	jl	SHORT $LN486@edge_divid

; 988  :            for (  k = 0 ; k < bdry->pcount ; k++ )

	mov	eax, DWORD PTR _web+104
$LN490@edge_divid:
	mov	ecx, DWORD PTR _i$[ebp]
	mov	edx, DWORD PTR _web+632
	add	ecx, 2
	add	edx, edx
	mov	DWORD PTR _i$[ebp], ecx
	mov	DWORD PTR tv4528[ebp], edx
	cmp	ecx, edx
	jl	$LN35@edge_divid

; 990  :          }
; 991  :       }
; 992  :       else /* interpolate */

	jmp	$LN719@edge_divid
$LN650@edge_divid:

; 993  :       { oldv = get_edge_vertices(e_id);
; 994  :         for ( i = 1; i < 2*web.lagrange_order ; i += 2 )

	mov	edx, DWORD PTR _web+632
	fstp	ST(0)
	mov	esi, 1
	lea	eax, DWORD PTR [edx+edx]
	cmp	eax, esi
	jle	$LN470@edge_divid
	npad	9
$LL473@edge_divid:

; 995  :         { REAL *pa = get_param(allv[i-1]);
; 996  :           REAL *p  = get_param(allv[i]);
; 997  :           mu = get_coord(allv[i-1]);             
; 998  :           mv = get_coord(allv[i]);

	mov	eax, DWORD PTR _allv$[ebp+esi*4]
	mov	edx, DWORD PTR _web+12
	mov	ebx, DWORD PTR _web+104
	mov	ecx, eax
	and	ecx, 134217727				; 07ffffffH
	mov	ecx, DWORD PTR [edx+ecx*4]
	mov	edx, DWORD PTR _dymem
	mov	ebx, DWORD PTR [ebx+edx+64]
	mov	DWORD PTR tv4809[ebp], ebx
	add	ebx, ecx
	mov	DWORD PTR _mv$[ebp], ebx
	mov	ebx, DWORD PTR _web+104
	mov	edx, DWORD PTR [ebx+edx+544]
	mov	ebx, DWORD PTR _web+12

; 999  :           b_extrapolate(bdry,mu,mv,mv,pa,p,allv[i]);

	push	eax
	mov	DWORD PTR tv4812[ebp], edx
	mov	edx, DWORD PTR _allv$[ebp+esi*4-4]
	mov	eax, DWORD PTR tv4812[ebp]
	and	edx, 134217727				; 07ffffffH
	mov	edx, DWORD PTR [ebx+edx*4]
	add	ecx, eax
	push	ecx
	add	eax, edx
	add	edx, DWORD PTR tv4809[ebp]
	push	eax
	mov	eax, DWORD PTR _mv$[ebp]
	push	eax
	push	eax
	push	edx
	push	edi
	call	_b_extrapolate
	mov	edx, DWORD PTR _web+632
	add	esi, 2
	lea	eax, DWORD PTR [edx+edx]
	add	esp, 28					; 0000001cH
	cmp	esi, eax
	jl	$LL473@edge_divid

; 637  :   { 
; 638  :     for ( k = 0 ; k < SDIM ; k++ ) m[k] = (t[k] + h[k])/2;

	jmp	$LN470@edge_divid
$LN63@edge_divid:

; 879  :     { set_attr(divider,BOUNDARY);

	mov	ecx, DWORD PTR tv4129[ebp]
	mov	edx, DWORD PTR [ecx]
	mov	eax, DWORD PTR tv4133[ebp]
	mov	ecx, DWORD PTR [edx+eax]
	mov	edx, DWORD PTR [ecx+12]
	or	DWORD PTR [ecx+8], 128			; 00000080H
	mov	DWORD PTR [ecx+12], edx

; 880  :       set_boundary_num(divider,bdry->num);

	mov	ecx, DWORD PTR _V_BOUNDARY_ATTR
	test	ecx, ecx
	je	SHORT $LN196@edge_divid
	mov	edx, DWORD PTR _dymem
	imul	ecx, 240				; 000000f0H
	add	ecx, DWORD PTR _web+104
	mov	esi, DWORD PTR [edi+44]
	mov	ecx, DWORD PTR [ecx+edx+64]
	mov	edx, DWORD PTR _web+12
	mov	edx, DWORD PTR [eax+edx]
	mov	DWORD PTR [ecx+edx], esi
$LN196@edge_divid:

; 881  : 
; 882  :       /* find parameters of new midpoint */
; 883  :       mv = get_coord(divider);

	mov	ecx, DWORD PTR _web+12
	mov	ecx, DWORD PTR [eax+ecx]
	mov	esi, DWORD PTR _web+104
	mov	eax, DWORD PTR _dymem
	mov	edx, DWORD PTR [esi+eax+64]

; 884  :       parammid = get_param(divider);

	mov	esi, DWORD PTR [esi+eax+544]
	lea	ebx, DWORD PTR [ecx+edx]
	add	ecx, esi

; 885  :       if ( interp_bdry_param && parama && paramb )

	cmp	DWORD PTR _interp_bdry_param, 0
	mov	DWORD PTR _mv$[ebp], ebx
	mov	DWORD PTR _parammid$89685[ebp], ecx
	je	SHORT $LN716@edge_divid
	cmp	DWORD PTR _parama$89687[ebp], 0
	je	$LN713@edge_divid
	cmp	DWORD PTR _paramb$89689[ebp], 0
	je	SHORT $LN716@edge_divid

; 886  :       { for (  i = 0 ; i < bdry->pcount ; i++ )

	xor	ecx, ecx
	cmp	DWORD PTR [edi+40], ecx
	jle	$LN719@edge_divid
	mov	eax, DWORD PTR _parama$89687[ebp]
	mov	edx, DWORD PTR _paramb$89689[ebp]
	mov	esi, DWORD PTR _parammid$89685[ebp]
	sub	edx, eax
	sub	esi, eax
$LN61@edge_divid:

; 887  :           parammid[i] = (parama[i] + paramb[i])/2;

	fld	QWORD PTR [edx+eax]
	inc	ecx
	fadd	QWORD PTR [eax]
	add	eax, 8
	fmul	ST(0), ST(1)
	fstp	QWORD PTR [esi+eax-8]
	cmp	ecx, DWORD PTR [edi+40]
	jl	SHORT $LN61@edge_divid

; 888  :       }
; 889  :       else

	jmp	$LN719@edge_divid
$LN716@edge_divid:

; 890  :       if ( !parama && !paramb )

	cmp	DWORD PTR _parama$89687[ebp], 0
	fstp	ST(0)
	je	SHORT $LN494@edge_divid
$LN57@edge_divid:

; 904  : #ifdef PARAMAVG
; 905  :          if ( (get_boundary(headv) == bdry) && (get_boundary(tailv) == bdry) )
; 906  :               {
; 907  :                  mu = get_coord(tailv);
; 908  :                  parama = get_param(tailv);
; 909  :                  paramb = get_param(headv);
; 910  :                  /* projecting on tangent */
; 911  :                  b_extrapolate(bdry,mu,mv,mv,parama,parammid,tailv);
; 912  :                  /* if not wrapped, take average parameter */
; 913  :                  for (  i = 0 ; i < bdry->pcount ; i++ )
; 914  :                     { if ( ((parama[i] < parammid[i]) && (parammid[i] < paramb[i]))
; 915  :                       || ((parama[i] > parammid[i]) && (parammid[i] > paramb[i])))
; 916  :                       parammid[i] = (parama[i] + paramb[i])/2;
; 917  :                     }
; 918  : 
; 919  :               }
; 920  :              else
; 921  : #endif
; 922  :       if ( (get_boundary(headv) == bdry) && !wrap2 )

	mov	ecx, DWORD PTR _V_BOUNDARY_ATTR
	test	ecx, ecx
	je	$LN204@edge_divid
	mov	ebx, DWORD PTR _web+12
	imul	ecx, 240				; 000000f0H
	add	ecx, DWORD PTR _web+104
	mov	ecx, DWORD PTR [ecx+eax+64]
	mov	eax, DWORD PTR tv4086[ebp]
	mov	eax, DWORD PTR [ebx+eax*4]
	mov	eax, DWORD PTR [ecx+eax]
	mov	ebx, DWORD PTR _mv$[ebp]
	imul	eax, 136				; 00000088H
	add	eax, DWORD PTR _web+776
	jmp	$LN205@edge_divid
$LN713@edge_divid:

; 890  :       if ( !parama && !paramb )

	fstp	ST(0)
$LN494@edge_divid:
	cmp	DWORD PTR _paramb$89689[ebp], 0
	jne	SHORT $LN57@edge_divid

; 891  :       { sprintf(errmsg,
; 892  :           "Vertices %s and %s are on different boundaries from edge %s .\n",
; 893  :                    ELNAME(headv),ELNAME1(tailv),ELNAME2(e_id));

	test	DWORD PTR _e_id$GSCopy$[ebp], 268435456	; 10000000H
	je	SHORT $LN198@edge_divid
	mov	edx, DWORD PTR tv4074[ebp]
	inc	edx
	push	edx
	push	OFFSET ??_C@_02DPKJAMEF@?$CFd?$AA@
	push	OFFSET _elnames+60
	call	_sprintf
	add	esp, 12					; 0000000cH
	mov	DWORD PTR tv1088[ebp], OFFSET _elnames+60
	jmp	SHORT $LN199@edge_divid
$LN198@edge_divid:
	mov	DWORD PTR tv1088[ebp], OFFSET ??_C@_00CNPNBAHC@?$AA@
$LN199@edge_divid:
	test	DWORD PTR _tailv$[ebp], 268435456	; 10000000H
	je	SHORT $LN200@edge_divid
	mov	eax, DWORD PTR tv4076[ebp]
	inc	eax
	push	eax
	push	OFFSET ??_C@_02DPKJAMEF@?$CFd?$AA@
	push	OFFSET _elnames+30
	call	_sprintf
	add	esp, 12					; 0000000cH
	mov	esi, OFFSET _elnames+30
	jmp	SHORT $LN201@edge_divid
$LN200@edge_divid:
	mov	esi, OFFSET ??_C@_00CNPNBAHC@?$AA@
$LN201@edge_divid:
	test	DWORD PTR _headv$[ebp], 268435456	; 10000000H
	je	SHORT $LN202@edge_divid
	mov	ecx, DWORD PTR tv4086[ebp]
	inc	ecx
	push	ecx
	push	OFFSET ??_C@_02DPKJAMEF@?$CFd?$AA@
	push	OFFSET _elnames
	call	_sprintf
	add	esp, 12					; 0000000cH
	mov	eax, OFFSET _elnames
	jmp	SHORT $LN203@edge_divid
$LN202@edge_divid:
	mov	eax, OFFSET ??_C@_00CNPNBAHC@?$AA@
$LN203@edge_divid:
	mov	edx, DWORD PTR tv1088[ebp]
	push	edx
	push	esi
	push	eax
	push	OFFSET ??_C@_0DP@KEJAHAKK@Vertices?5?$CFs?5and?5?$CFs?5are?5on?5differ@
	push	OFFSET _errmsg
	call	_sprintf

; 894  :         kb_error(1240,errmsg,WARNING);

	push	2
	push	OFFSET _errmsg
	push	1240					; 000004d8H
	call	_kb_error

; 895  :         paramb = defaultp;
; 896  :         defaultp[0] = defaultp[1] = defaultp[2] = 0.1;

	fld	QWORD PTR __real@3fb999999999999a
	fst	QWORD PTR _defaultp$89686[ebp+16]

; 897  :         for ( i = 0 ; i < SDIM ; i++ )

	xor	esi, esi
	add	esp, 32					; 00000020H
	fst	QWORD PTR _defaultp$89686[ebp+8]
	fstp	QWORD PTR _defaultp$89686[ebp]
	cmp	DWORD PTR _web+616, esi
	jle	SHORT $LN54@edge_divid

; 891  :       { sprintf(errmsg,
; 892  :           "Vertices %s and %s are on different boundaries from edge %s .\n",
; 893  :                    ELNAME(headv),ELNAME1(tailv),ELNAME2(e_id));

	lea	eax, DWORD PTR [edi+48]
	mov	DWORD PTR tv6925[ebp], eax
	npad	2
$LL56@edge_divid:

; 898  :           s[i] = eval(bdry->coordf[i],defaultp,NULLID,NULL);

	mov	edx, DWORD PTR tv6925[ebp]
	mov	eax, DWORD PTR [edx]
	push	0
	push	0
	lea	ecx, DWORD PTR _defaultp$89686[ebp]
	push	ecx
	push	eax
	call	_eval
	fstp	QWORD PTR _s$[ebp+esi*8]
	add	DWORD PTR tv6925[ebp], 4
	inc	esi
	add	esp, 16					; 00000010H
	cmp	esi, DWORD PTR _web+616
	jl	SHORT $LL56@edge_divid
$LN54@edge_divid:

; 899  :         mu = s;
; 900  :         /* projecting on tangent */
; 901  :         b_extrapolate(bdry,mu,mv,mv,paramb,parammid,NULLID);

	mov	ecx, DWORD PTR _parammid$89685[ebp]
	push	0
	push	ecx
	lea	edx, DWORD PTR _defaultp$89686[ebp]
	push	edx
	push	ebx
	push	ebx
	lea	eax, DWORD PTR _s$[ebp]
	push	eax
	push	edi
	call	_b_extrapolate
	add	esp, 28					; 0000001cH

; 902  :       }
; 903  :       else

	jmp	$LN470@edge_divid
$LN204@edge_divid:

; 904  : #ifdef PARAMAVG
; 905  :          if ( (get_boundary(headv) == bdry) && (get_boundary(tailv) == bdry) )
; 906  :               {
; 907  :                  mu = get_coord(tailv);
; 908  :                  parama = get_param(tailv);
; 909  :                  paramb = get_param(headv);
; 910  :                  /* projecting on tangent */
; 911  :                  b_extrapolate(bdry,mu,mv,mv,parama,parammid,tailv);
; 912  :                  /* if not wrapped, take average parameter */
; 913  :                  for (  i = 0 ; i < bdry->pcount ; i++ )
; 914  :                     { if ( ((parama[i] < parammid[i]) && (parammid[i] < paramb[i]))
; 915  :                       || ((parama[i] > parammid[i]) && (parammid[i] > paramb[i])))
; 916  :                       parammid[i] = (parama[i] + paramb[i])/2;
; 917  :                     }
; 918  : 
; 919  :               }
; 920  :              else
; 921  : #endif
; 922  :       if ( (get_boundary(headv) == bdry) && !wrap2 )

	xor	eax, eax
$LN205@edge_divid:
	cmp	eax, edi
	jne	SHORT $LN52@edge_divid
	cmp	DWORD PTR _wrap2$[ebp], 0
	jne	SHORT $LN52@edge_divid

; 923  :       { mu = get_coord(headv);
; 924  :         paramb = get_param(headv);

	mov	ecx, DWORD PTR tv4086[ebp]
	mov	eax, DWORD PTR _web+12
	mov	eax, DWORD PTR [eax+ecx*4]

; 925  :         /* projecting on tangent */
; 926  :         b_extrapolate(bdry,mu,mv,mv,paramb,parammid,headv);

	mov	ecx, DWORD PTR _headv$[ebp]
	push	ecx
	mov	ecx, DWORD PTR _parammid$89685[ebp]
	push	ecx
	lea	ecx, DWORD PTR [eax+esi]
	push	ecx
	push	ebx
	push	ebx
	add	eax, edx
	push	eax
	push	edi
	call	_b_extrapolate
	add	esp, 28					; 0000001cH

; 927  :       }
; 928  :       else

	jmp	$LN470@edge_divid
$LN52@edge_divid:

; 929  :       { mu = get_coord(tailv);
; 930  :         paramb = get_param(tailv);

	mov	ecx, DWORD PTR _web+12
	mov	eax, DWORD PTR tv4076[ebp]
	mov	eax, DWORD PTR [ecx+eax*4]

; 931  :         /* projecting on tangent */
; 932  :         b_extrapolate(bdry,mu,mv,mv,paramb,parammid,tailv);

	mov	ecx, DWORD PTR _tailv$[ebp]
	push	ecx
	mov	ecx, DWORD PTR _parammid$89685[ebp]
	push	ecx
	lea	ecx, DWORD PTR [eax+esi]
	push	ecx
	push	ebx
	push	ebx
	add	eax, edx
	push	eax
	push	edi
	call	_b_extrapolate
	add	esp, 28					; 0000001cH

; 1000 :         }
; 1001 :       }
; 1002 : 
; 1003 :     }
; 1004 :   }
; 1005 :   else

	jmp	$LN470@edge_divid
$LN608@edge_divid:

; 1006 :   { ATTR attr = get_eattr(e_id) & (BDRY_ENERGY | BDRY_CONTENT | CONSTRAINT );
; 1007 :     conmap_t * conmap = get_e_constraint_map(e_id);

	mov	eax, DWORD PTR _web+216
	fstp	ST(0)
	and	edi, 5632				; 00001600H
	xor	edx, edx
	mov	DWORD PTR _attr$89905[ebp], edi
	cmp	DWORD PTR [eax+ecx+1048], edx
	je	SHORT $LN216@edge_divid
	mov	ebx, DWORD PTR [eax+ecx+1024]
	add	ebx, esi
	jmp	SHORT $LN217@edge_divid
$LN216@edge_divid:
	mov	ebx, OFFSET _nullcon
$LN217@edge_divid:

; 1008 : 
; 1009 :     set_attr(new_e,attr);

	mov	eax, DWORD PTR tv4340[ebp]
	mov	ecx, DWORD PTR [eax]
	mov	eax, DWORD PTR tv4344[ebp]
	mov	eax, DWORD PTR [eax+ecx]
	or	DWORD PTR [eax+8], edi
	or	DWORD PTR [eax+12], edx

; 1010 :     set_attr(divider,attr);

	mov	ecx, DWORD PTR tv4129[ebp]
	mov	eax, DWORD PTR [ecx]
	mov	ecx, DWORD PTR tv4133[ebp]
	mov	eax, DWORD PTR [eax+ecx]
	or	DWORD PTR [eax+8], edi
	or	DWORD PTR [eax+12], edx

; 1011 :     if ( conmap || attr )

	test	ebx, ebx
	jne	SHORT $LN483@edge_divid
	mov	eax, edi
	or	eax, edx
	je	$LN470@edge_divid
$LN483@edge_divid:

; 1012 :     { set_e_conmap(new_e,conmap);

	mov	ecx, DWORD PTR _new_e$[ebp]
	push	ebx
	push	ecx
	call	_set_e_conmap

; 1013 :       set_v_conmap(divider,conmap);

	mov	esi, DWORD PTR _divider$[ebp]
	push	ebx
	push	esi
	call	_set_v_conmap

; 1014 :       project_v_constr(divider,ACTUAL_MOVE,RESET_ONESIDEDNESS);

	push	1
	push	1
	push	esi
	call	_project_v_constr
	add	esp, 28					; 0000001cH

; 1015 :       if ( web.modeltype == QUADRATIC )

	cmp	DWORD PTR _web+628, 2
	jne	$LN470@edge_divid

; 1016 :       { set_attr(old_mid,attr);

	mov	esi, DWORD PTR _old_mid$[ebp]
	mov	edx, esi
	shr	edx, 29					; 0000001dH
	imul	edx, 112				; 00000070H
	mov	ecx, DWORD PTR _web[edx+12]
	mov	eax, esi
	and	eax, 134217727				; 07ffffffH
	mov	eax, DWORD PTR [ecx+eax*4]
	or	DWORD PTR [eax+8], edi

; 1017 :         set_attr(new_mid,attr);

	mov	edi, DWORD PTR _new_mid$[ebp]
	mov	edx, edi
	shr	edx, 29					; 0000001dH
	imul	edx, 112				; 00000070H
	xor	ecx, ecx
	or	DWORD PTR [eax+12], ecx
	mov	ecx, DWORD PTR _web[edx+12]
	mov	edx, DWORD PTR _attr$89905[ebp]
	mov	eax, edi
	and	eax, 134217727				; 07ffffffH
	mov	eax, DWORD PTR [ecx+eax*4]
	or	DWORD PTR [eax+8], edx
	xor	ecx, ecx
	or	DWORD PTR [eax+12], ecx

; 1018 :         clear_v_conmap(old_mid);

	push	esi
	call	_clear_v_conmap

; 1019 :         clear_v_conmap(new_mid);

	push	edi
	call	_clear_v_conmap

; 1020 :         set_v_conmap(old_mid,conmap);

	push	ebx
	push	esi
	call	_set_v_conmap

; 1021 :         set_v_conmap(new_mid,conmap);

	push	ebx
	push	edi
	call	_set_v_conmap

; 1022 :         project_v_constr(old_mid,ACTUAL_MOVE,RESET_ONESIDEDNESS);

	push	1
	push	1
	push	esi
	call	_project_v_constr

; 1023 :         project_v_constr(new_mid,ACTUAL_MOVE,RESET_ONESIDEDNESS);

	push	1
	push	1
	push	edi
	call	_project_v_constr
	add	esp, 48					; 00000030H
	jmp	$LN470@edge_divid

; 1024 :       }
; 1025 :       /* this should have been taken care of for Lagrange in dup_edge */
; 1026 :     }
; 1027 :   }
; 1028 : 
; 1029 :   old_fe = first_fe = get_edge_fe(e_id);

$LN279@edge_divid:
	test	DWORD PTR _e_id$GSCopy$[ebp], 134217728	; 08000000H
	mov	eax, DWORD PTR [eax+28]
	je	SHORT $LN278@edge_divid
	xor	eax, 134217728				; 08000000H
$LN278@edge_divid:
	mov	DWORD PTR _first_fe$[ebp], eax
$LN280@edge_divid:
	mov	ebx, eax

; 1030 :   new_fe = NULLID;
; 1031 :   if ( valid_id(old_fe) ) do

	shr	eax, 28					; 0000001cH
	xor	edi, edi
	mov	DWORD PTR _old_fe$[ebp], ebx
	test	al, 1
	je	$LN18@edge_divid
	mov	ecx, DWORD PTR _web+460
$LL20@edge_divid:

; 1032 :   { /* create new facetedge and splice into edge net */
; 1033 :     facetedge_id next;
; 1034 :     new_fe = new_facetedge(get_fe_facet(old_fe),new_e);

	and	eax, 1
	mov	DWORD PTR tv4905[ebp], eax
	jne	SHORT $LN283@edge_divid
	mov	eax, DWORD PTR _NULLFACET
	jmp	SHORT $LN282@edge_divid
$LN283@edge_divid:
	mov	edx, ebx
	and	edx, 134217727				; 07ffffffH
	mov	eax, DWORD PTR [ecx+edx*4]
	mov	eax, DWORD PTR [eax+24]
	test	ebx, 134217728				; 08000000H
	je	SHORT $LN282@edge_divid
	xor	eax, 134217728				; 08000000H
$LN282@edge_divid:
	mov	ecx, DWORD PTR _new_e$[ebp]
	push	ecx
	push	eax
	call	_new_facetedge

; 1035 :     set_next_edge(new_fe,get_next_edge(old_fe));

	mov	ecx, DWORD PTR _web+460
	mov	edi, eax
	mov	eax, ebx
	shr	eax, 27					; 0000001bH
	add	esp, 8
	and	eax, 1
	mov	DWORD PTR tv4917[ebp], eax
	mov	esi, ebx
	je	SHORT $LN287@edge_divid
	and	esi, 134217727				; 07ffffffH
	add	esi, esi
	add	esi, esi
	mov	edx, DWORD PTR [esi+ecx]
	mov	eax, DWORD PTR [edx+28]
	xor	eax, 134217728				; 08000000H
	jmp	SHORT $LN286@edge_divid
$LN287@edge_divid:
	and	esi, 134217727				; 07ffffffH
	add	esi, esi
	add	esi, esi
	mov	eax, DWORD PTR [esi+ecx]
	mov	eax, DWORD PTR [eax+32]
$LN286@edge_divid:
	mov	edx, edi
	shr	edx, 28					; 0000001cH
	and	edx, 1
	mov	DWORD PTR tv4928[ebp], edx
	je	SHORT $LN290@edge_divid
	mov	edx, edi
	test	edi, 134217728				; 08000000H
	je	SHORT $LN291@edge_divid
	xor	eax, 134217728				; 08000000H
	and	edx, 134217727				; 07ffffffH
	mov	ecx, DWORD PTR [ecx+edx*4]
	mov	DWORD PTR [ecx+28], eax
	jmp	SHORT $LN764@edge_divid
$LN291@edge_divid:
	and	edx, 134217727				; 07ffffffH
	mov	ecx, DWORD PTR [ecx+edx*4]
	mov	DWORD PTR [ecx+32], eax
$LN764@edge_divid:
	mov	ecx, DWORD PTR _web+460
$LN290@edge_divid:

; 1036 :     next = get_next_edge(old_fe);

	cmp	DWORD PTR tv4917[ebp], 0
	mov	eax, DWORD PTR [esi+ecx]
	je	SHORT $LN296@edge_divid
	mov	edx, DWORD PTR [eax+28]
	xor	edx, 134217728				; 08000000H
	jmp	SHORT $LN295@edge_divid
$LN296@edge_divid:
	mov	edx, DWORD PTR [eax+32]
$LN295@edge_divid:

; 1037 :     if ( valid_id(next) )

	test	edx, 268435456				; 10000000H
	je	SHORT $LN500@edge_divid

; 1038 :       set_prev_edge(get_next_edge(old_fe),new_fe);

	cmp	DWORD PTR tv4917[ebp], 0
	je	SHORT $LN300@edge_divid
	mov	eax, DWORD PTR [eax+28]
	xor	eax, 134217728				; 08000000H
	jmp	SHORT $LN299@edge_divid
$LN300@edge_divid:
	mov	eax, DWORD PTR [eax+32]
$LN299@edge_divid:
	test	eax, 268435456				; 10000000H
	je	SHORT $LN500@edge_divid
	test	eax, 134217728				; 08000000H
	je	SHORT $LN304@edge_divid
	mov	edx, edi
	xor	edx, 134217728				; 08000000H
	and	eax, 134217727				; 07ffffffH
	mov	eax, DWORD PTR [ecx+eax*4]
	mov	DWORD PTR [eax+32], edx
	jmp	SHORT $LN303@edge_divid
$LN304@edge_divid:
	and	eax, 134217727				; 07ffffffH
	mov	ecx, DWORD PTR [ecx+eax*4]
	mov	DWORD PTR [ecx+28], edi
$LN303@edge_divid:
	mov	eax, DWORD PTR _global_timestamp
	mov	ecx, DWORD PTR _web+460
	inc	eax
	mov	DWORD PTR _global_timestamp, eax
	mov	DWORD PTR _top_timestamp, eax
$LN500@edge_divid:

; 1039 :     set_next_edge(old_fe,new_fe);

	cmp	DWORD PTR tv4905[ebp], 0
	je	SHORT $LN507@edge_divid
	cmp	DWORD PTR tv4917[ebp], 0
	je	SHORT $LN309@edge_divid
	mov	eax, DWORD PTR [esi+ecx]
	mov	edx, edi
	xor	edx, 134217728				; 08000000H
	mov	DWORD PTR [eax+28], edx
	jmp	SHORT $LN765@edge_divid
$LN309@edge_divid:
	mov	ecx, DWORD PTR [esi+ecx]
	mov	DWORD PTR [ecx+32], edi
$LN765@edge_divid:
	mov	ecx, DWORD PTR _web+460
$LN507@edge_divid:

; 1040 :     set_prev_edge(new_fe,old_fe);

	cmp	DWORD PTR tv4928[ebp], 0
	je	SHORT $LN508@edge_divid
	test	edi, 134217728				; 08000000H
	je	SHORT $LN314@edge_divid
	mov	edx, ebx
	xor	edx, 134217728				; 08000000H
	mov	eax, edi
	and	eax, 134217727				; 07ffffffH
	mov	ecx, DWORD PTR [ecx+eax*4]
	mov	DWORD PTR [ecx+32], edx
	jmp	SHORT $LN313@edge_divid
$LN314@edge_divid:
	mov	edx, edi
	and	edx, 134217727				; 07ffffffH
	mov	eax, DWORD PTR [ecx+edx*4]
	mov	DWORD PTR [eax+28], ebx
$LN313@edge_divid:
	mov	eax, DWORD PTR _global_timestamp
	mov	ecx, DWORD PTR _web+460
	inc	eax
	mov	DWORD PTR _global_timestamp, eax
	mov	DWORD PTR _top_timestamp, eax
$LN508@edge_divid:

; 1041 :     if ( web.representation == STRING ) /* keep facet fe at start of arc */

	cmp	DWORD PTR _web+624, 1
	jne	SHORT $LN471@edge_divid

; 1042 :     { facet_id ff_id = get_fe_facet(old_fe);

	cmp	DWORD PTR tv4905[ebp], 0
	jne	SHORT $LN319@edge_divid
	mov	edx, DWORD PTR _NULLFACET
	jmp	SHORT $LN318@edge_divid
$LN319@edge_divid:
	cmp	DWORD PTR tv4917[ebp], 0
	mov	edx, DWORD PTR [esi+ecx]
	mov	edx, DWORD PTR [edx+24]
	je	SHORT $LN318@edge_divid
	xor	edx, 134217728				; 08000000H
$LN318@edge_divid:

; 1043 :       if ( inverted(ff_id) && equal_id(old_fe,get_facet_fe(ff_id)) )

	test	edx, 134217728				; 08000000H
	je	SHORT $LN471@edge_divid
	test	edx, 268435456				; 10000000H
	jne	SHORT $LN323@edge_divid
	xor	eax, eax
	jmp	SHORT $LN324@edge_divid
$LN323@edge_divid:
	mov	ebx, DWORD PTR _web+236
	mov	eax, edx
	and	eax, 134217727				; 07ffffffH
	mov	eax, DWORD PTR [ebx+eax*4]
	mov	eax, DWORD PTR [eax+28]
	mov	ebx, DWORD PTR _old_fe$[ebp]
	xor	eax, 134217728				; 08000000H
$LN324@edge_divid:
	cmp	ebx, eax
	jne	SHORT $LN471@edge_divid

; 1044 :          set_facet_fe(ff_id,new_fe);

	push	edi
	push	edx
	call	_set_facet_fe
	mov	ecx, DWORD PTR _web+460
	add	esp, 8
$LN471@edge_divid:

; 1045 :     }
; 1046 :     old_fe = get_next_facet(old_fe);

	cmp	DWORD PTR tv4917[ebp], 0
	je	SHORT $LN327@edge_divid
	mov	edx, DWORD PTR [esi+ecx]
	mov	ebx, DWORD PTR [edx+36]
	xor	ebx, 134217728				; 08000000H
	jmp	SHORT $LN766@edge_divid
$LN327@edge_divid:
	mov	eax, DWORD PTR [esi+ecx]
	mov	ebx, DWORD PTR [eax+40]
$LN766@edge_divid:

; 1047 :   } while ( valid_id(old_fe) && !equal_id(old_fe,first_fe) );

	mov	eax, ebx
	shr	eax, 28					; 0000001cH
	mov	DWORD PTR _old_fe$[ebp], ebx
	test	al, 1
	je	SHORT $LN18@edge_divid
	cmp	ebx, DWORD PTR _first_fe$[ebp]
	jne	$LL20@edge_divid
$LN18@edge_divid:

; 1048 :   set_edge_fe(new_e,new_fe);

	mov	edx, DWORD PTR _new_e$[ebp]
	shr	edx, 27					; 0000001bH
	and	edx, 1
	mov	DWORD PTR tv4354[ebp], edx
	je	SHORT $LN509@edge_divid
	xor	edi, 134217728				; 08000000H
$LN509@edge_divid:
	mov	ecx, DWORD PTR _web+124
	mov	eax, DWORD PTR tv4344[ebp]
	mov	ecx, DWORD PTR [eax+ecx]
	mov	DWORD PTR [ecx+28], edi
	mov	eax, DWORD PTR _global_timestamp

; 1049 : 
; 1050 :   old_fe = first_fe = get_edge_fe(e_id);

	mov	ecx, DWORD PTR _web+124
	inc	eax
	mov	DWORD PTR _global_timestamp, eax
	mov	DWORD PTR _top_timestamp, eax
	mov	eax, DWORD PTR tv4074[ebp]
	mov	eax, DWORD PTR [ecx+eax*4]
	test	eax, eax
	je	SHORT $LN333@edge_divid
$LN334@edge_divid:
	test	DWORD PTR _e_id$GSCopy$[ebp], 134217728	; 08000000H
	mov	eax, DWORD PTR [eax+28]
	je	SHORT $LN333@edge_divid
	xor	eax, 134217728				; 08000000H
$LN333@edge_divid:

; 1051 :   if ( valid_id(old_fe) )  do

	mov	ecx, DWORD PTR _web+460
	mov	DWORD PTR _first_fe$[ebp], eax
	test	eax, 268435456				; 10000000H
	je	$LN10@edge_divid
	npad	1
$LL12@edge_divid:

; 1052 :     { /* copy over facet chain */
; 1053 :       facetedge_id fe,nfe;
; 1054 : 
; 1055 :       fe = get_next_edge(old_fe);

	mov	ebx, eax
	shr	ebx, 27					; 0000001bH
	and	ebx, 1
	mov	DWORD PTR tv4917[ebp], ebx
	je	SHORT $LN338@edge_divid
	and	eax, 134217727				; 07ffffffH
	add	eax, eax
	add	eax, eax
	mov	esi, DWORD PTR [eax+ecx]
	mov	edx, DWORD PTR [esi+28]
	xor	edx, 134217728				; 08000000H
	jmp	SHORT $LN337@edge_divid
$LN338@edge_divid:
	and	eax, 134217727				; 07ffffffH
	add	eax, eax
	add	eax, eax
	mov	esi, DWORD PTR [eax+ecx]
	mov	edx, DWORD PTR [esi+32]
$LN337@edge_divid:

; 1056 :       nfe = get_next_facet(old_fe);

	test	ebx, ebx
	je	SHORT $LN342@edge_divid
	mov	esi, DWORD PTR [esi+36]
	xor	esi, 134217728				; 08000000H
	jmp	SHORT $LN341@edge_divid
$LN342@edge_divid:
	mov	esi, DWORD PTR [esi+40]
$LN341@edge_divid:

; 1057 :       set_next_facet(fe,get_next_edge(nfe));

	test	esi, 134217728				; 08000000H
	je	SHORT $LN346@edge_divid
	and	esi, 134217727				; 07ffffffH
	mov	esi, DWORD PTR [ecx+esi*4]
	mov	esi, DWORD PTR [esi+28]
	xor	esi, 134217728				; 08000000H
	jmp	SHORT $LN345@edge_divid
$LN346@edge_divid:
	and	esi, 134217727				; 07ffffffH
	mov	esi, DWORD PTR [ecx+esi*4]
	mov	esi, DWORD PTR [esi+32]
$LN345@edge_divid:
	mov	edi, edx
	shr	edi, 28					; 0000001cH
	and	edi, 1
	je	SHORT $LN349@edge_divid
	mov	ebx, edx
	test	edx, 134217728				; 08000000H
	je	SHORT $LN350@edge_divid
	xor	esi, 134217728				; 08000000H
	and	ebx, 134217727				; 07ffffffH
	mov	ecx, DWORD PTR [ecx+ebx*4]
	mov	DWORD PTR [ecx+36], esi
	jmp	SHORT $LN767@edge_divid
$LN350@edge_divid:
	and	ebx, 134217727				; 07ffffffH
	mov	ecx, DWORD PTR [ecx+ebx*4]
	mov	DWORD PTR [ecx+40], esi
$LN767@edge_divid:
	mov	ebx, DWORD PTR tv4917[ebp]
	mov	ecx, DWORD PTR _web+460
$LN349@edge_divid:

; 1058 :       nfe = get_prev_facet(old_fe);

	mov	esi, DWORD PTR [eax+ecx]
	test	ebx, ebx
	je	SHORT $LN355@edge_divid
	mov	esi, DWORD PTR [esi+40]
	xor	esi, 134217728				; 08000000H
	jmp	SHORT $LN354@edge_divid
$LN355@edge_divid:
	mov	esi, DWORD PTR [esi+36]
$LN354@edge_divid:

; 1059 :         set_prev_facet(fe,get_next_edge(nfe));

	test	esi, 134217728				; 08000000H
	je	SHORT $LN359@edge_divid
	and	esi, 134217727				; 07ffffffH
	mov	esi, DWORD PTR [ecx+esi*4]
	mov	esi, DWORD PTR [esi+28]
	xor	esi, 134217728				; 08000000H
	jmp	SHORT $LN358@edge_divid
$LN359@edge_divid:
	and	esi, 134217727				; 07ffffffH
	mov	esi, DWORD PTR [ecx+esi*4]
	mov	esi, DWORD PTR [esi+32]
$LN358@edge_divid:
	test	edi, edi
	je	SHORT $LN506@edge_divid
	test	edx, 134217728				; 08000000H
	je	SHORT $LN363@edge_divid
	xor	esi, 134217728				; 08000000H
	and	edx, 134217727				; 07ffffffH
	mov	edx, DWORD PTR [ecx+edx*4]
	mov	DWORD PTR [edx+40], esi
	jmp	SHORT $LN362@edge_divid
$LN363@edge_divid:
	and	edx, 134217727				; 07ffffffH
	mov	ecx, DWORD PTR [ecx+edx*4]
	mov	DWORD PTR [ecx+36], esi
$LN362@edge_divid:
	mov	ecx, DWORD PTR _global_timestamp
	inc	ecx
	mov	DWORD PTR _global_timestamp, ecx
	mov	DWORD PTR _top_timestamp, ecx
	mov	ecx, DWORD PTR _web+460
$LN506@edge_divid:

; 1060 :       old_fe = get_next_facet(old_fe);

	test	ebx, ebx
	je	SHORT $LN368@edge_divid
	mov	edx, DWORD PTR [eax+ecx]
	mov	eax, DWORD PTR [edx+36]
	xor	eax, 134217728				; 08000000H
	jmp	SHORT $LN11@edge_divid
$LN368@edge_divid:
	mov	eax, DWORD PTR [eax+ecx]
	mov	eax, DWORD PTR [eax+40]
$LN11@edge_divid:

; 1061 :     } while ( valid_id(old_fe) && !equal_id(old_fe,first_fe) );

	test	eax, 268435456				; 10000000H
	je	SHORT $LN9@edge_divid
	cmp	eax, DWORD PTR _first_fe$[ebp]
	jne	$LL12@edge_divid
$LN9@edge_divid:
	mov	edx, DWORD PTR tv4354[ebp]
$LN10@edge_divid:

; 1062 : 
; 1063 :   /* check for dangling ends with loopback fe */
; 1064 :   new_fe = first_fe = get_edge_fe(new_e);

	mov	eax, DWORD PTR tv4344[ebp]
	mov	esi, DWORD PTR _web+124
	mov	eax, DWORD PTR [eax+esi]
	test	eax, eax
	jne	SHORT $LN372@edge_divid
	mov	DWORD PTR _first_fe$[ebp], eax
	jmp	SHORT $LN373@edge_divid
$LN372@edge_divid:
	mov	eax, DWORD PTR [eax+28]
	test	edx, edx
	je	SHORT $LN371@edge_divid
	xor	eax, 134217728				; 08000000H
$LN371@edge_divid:
	mov	DWORD PTR _first_fe$[ebp], eax
$LN373@edge_divid:
	mov	esi, eax

; 1065 :   if ( valid_id(new_fe) )  do

	shr	eax, 28					; 0000001cH
	mov	DWORD PTR tv4927[ebp], eax
	test	al, 1
	je	$LN5@edge_divid
$LL7@edge_divid:

; 1066 :   { if ( valid_id(get_next_edge(new_fe)) )

	mov	eax, esi
	and	eax, 134217727				; 07ffffffH
	mov	ebx, esi
	add	eax, eax
	shr	ebx, 27					; 0000001bH
	add	eax, eax
	and	ebx, 1
	mov	edi, DWORD PTR [eax+ecx]
	je	SHORT $LN376@edge_divid
	mov	edx, DWORD PTR [edi+28]
	xor	edx, 134217728				; 08000000H
	jmp	SHORT $LN375@edge_divid
$LN376@edge_divid:
	mov	edx, DWORD PTR [edi+32]
$LN375@edge_divid:
	test	edx, 268435456				; 10000000H
	je	$LN505@edge_divid

; 1067 :       if ( !equal_id(get_prev_edge(get_next_edge(new_fe)),new_fe ) )

	test	ebx, ebx
	je	SHORT $LN380@edge_divid
	mov	edx, DWORD PTR [edi+28]
	xor	edx, 134217728				; 08000000H
	jmp	SHORT $LN379@edge_divid
$LN380@edge_divid:
	mov	edx, DWORD PTR [edi+32]
$LN379@edge_divid:
	test	edx, 134217728				; 08000000H
	je	SHORT $LN384@edge_divid
	and	edx, 134217727				; 07ffffffH
	mov	edx, DWORD PTR [ecx+edx*4]
	mov	edx, DWORD PTR [edx+32]
	xor	edx, 134217728				; 08000000H
	jmp	SHORT $LN383@edge_divid
$LN384@edge_divid:
	and	edx, 134217727				; 07ffffffH
	mov	edx, DWORD PTR [ecx+edx*4]
	mov	edx, DWORD PTR [edx+28]
$LN383@edge_divid:
	cmp	edx, esi
	je	SHORT $LN505@edge_divid

; 1068 :          set_next_edge(new_fe,get_prev_edge(get_next_edge(new_fe)));

	test	ebx, ebx
	je	SHORT $LN388@edge_divid
	mov	edx, DWORD PTR [edi+28]
	xor	edx, 134217728				; 08000000H
	jmp	SHORT $LN387@edge_divid
$LN388@edge_divid:
	mov	edx, DWORD PTR [edi+32]
$LN387@edge_divid:
	test	edx, 134217728				; 08000000H
	je	SHORT $LN392@edge_divid
	and	edx, 134217727				; 07ffffffH
	mov	edx, DWORD PTR [ecx+edx*4]
	mov	esi, DWORD PTR [edx+32]
	xor	esi, 134217728				; 08000000H
	jmp	SHORT $LN391@edge_divid
$LN392@edge_divid:
	and	edx, 134217727				; 07ffffffH
	mov	edx, DWORD PTR [ecx+edx*4]
	mov	esi, DWORD PTR [edx+28]
$LN391@edge_divid:
	test	BYTE PTR tv4927[ebp], 1
	je	SHORT $LN505@edge_divid
	test	ebx, ebx
	je	SHORT $LN396@edge_divid
	xor	esi, 134217728				; 08000000H
	mov	DWORD PTR [edi+28], esi
	jmp	SHORT $LN768@edge_divid
$LN396@edge_divid:
	mov	DWORD PTR [edi+32], esi
$LN768@edge_divid:
	mov	ecx, DWORD PTR _web+460
$LN505@edge_divid:

; 1069 :     new_fe = get_next_facet(new_fe);

	test	ebx, ebx
	je	SHORT $LN401@edge_divid
	mov	eax, DWORD PTR [eax+ecx]
	mov	esi, DWORD PTR [eax+36]
	xor	esi, 134217728				; 08000000H
	jmp	SHORT $LN6@edge_divid
$LN401@edge_divid:
	mov	edx, DWORD PTR [eax+ecx]
	mov	esi, DWORD PTR [edx+40]
$LN6@edge_divid:

; 1070 :   } while (  valid_id(new_fe) &&!equal_id(new_fe,first_fe) );

	mov	eax, esi
	shr	eax, 28					; 0000001cH
	mov	DWORD PTR tv4927[ebp], eax
	test	al, 1
	je	SHORT $LN5@edge_divid
	cmp	esi, DWORD PTR _first_fe$[ebp]
	jne	$LL7@edge_divid
$LN5@edge_divid:

; 1071 : 
; 1072 :  #ifdef MPI_EVOLVER
; 1073 :  { unsigned short *nbr = mpi_export_eattr_ptr(e_id);
; 1074 :    for (i = 0 ; i < MPI_EXPORT_MAX ; i++ )
; 1075 :    { if ( nbr[i] == 0 ) break;
; 1076 :      if ( nbr[i] != this_task )
; 1077 :         mpi_refine_edge(e_id,divider,new_e,(int)nbr[i]);
; 1078 :     }
; 1079 :  }
; 1080 :  #endif
; 1081 : 
; 1082 :  if ( (web.representation==STRING) && everything_quantities_flag )

	cmp	DWORD PTR _web+624, 1
	pop	ebx
	jne	SHORT $LN479@edge_divid
	cmp	DWORD PTR _everything_quantities_flag, 0
	je	SHORT $LN479@edge_divid

; 1083 :     check_edge_vol_methods(new_e);

	mov	eax, DWORD PTR _new_e$[ebp]
	push	eax
	call	_check_edge_vol_methods
	add	esp, 4
$LN479@edge_divid:

; 1084 : 
; 1085 :  top_timestamp = ++global_timestamp;

	mov	eax, DWORD PTR _global_timestamp

; 1086 : 
; 1087 :  return new_e;
; 1088 : 
; 1089 : } /* end edge_divide() */

	mov	ecx, DWORD PTR __$ArrayPad$[ebp]
	inc	eax
	pop	edi
	mov	DWORD PTR _global_timestamp, eax
	mov	DWORD PTR _top_timestamp, eax
	mov	eax, DWORD PTR _new_e$[ebp]
	xor	ecx, ebp
	pop	esi
	call	@__security_check_cookie@4
	mov	esp, ebp
	pop	ebp
	ret	0
_edge_divide ENDP
_TEXT	ENDS
PUBLIC	??_C@_0DO@FKBHOCNE@Vertices?5?$CFs?5and?5?$CFs?5are?5on?5differ@ ; `string'
PUBLIC	__$ArrayPad$
PUBLIC	_cross_cut
EXTRN	_F_BOUNDARY_ATTR:DWORD
EXTRN	_set_f_phase_density:PROC
EXTRN	_phase_flag:DWORD
EXTRN	_set_facet_body:PROC
EXTRN	_dup_facet:PROC
EXTRN	_new_edge:PROC
;	COMDAT ??_C@_0DO@FKBHOCNE@Vertices?5?$CFs?5and?5?$CFs?5are?5on?5differ@
; File c:\levolver\yonkang-sefit\levolver\ev_ogl\inline.h
CONST	SEGMENT
??_C@_0DO@FKBHOCNE@Vertices?5?$CFs?5and?5?$CFs?5are?5on?5differ@ DB 'Vert'
	DB	'ices %s and %s are on different boundaries from edge %s.', 0aH
	DB	00H						; `string'
; Function compile flags: /Ogtp
; File c:\levolver\yonkang-sefit\levolver\ev_ogl\modify.c
CONST	ENDS
;	COMDAT _cross_cut
_TEXT	SEGMENT
tv2000 = -112						; size = 4
_headv$ = -108						; size = 4
_attr$ = -104						; size = 8
_new_e$ = -96						; size = 4
tv2299 = -92						; size = 4
tv1985 = -92						; size = 4
tv1826 = -92						; size = 4
tv2055 = -88						; size = 4
tv2307 = -84						; size = 4
tv2148 = -84						; size = 4
tv1996 = -84						; size = 4
tv2008 = -80						; size = 4
_parammid$90038 = -80					; size = 4
tv2071 = -76						; size = 4
_tailv$ = -72						; size = 4
tv2406 = -68						; size = 4
tv1988 = -68						; size = 4
tv2402 = -64						; size = 4
tv2278 = -64						; size = 4
_wrap$ = -64						; size = 4
tv2262 = -60						; size = 4
_mv$90040 = -60						; size = 4
_new_fe_old$ = -60					; size = 4
_bdry$90032 = -56					; size = 4
_new_fe_new$ = -56					; size = 4
_temp$90007 = -52					; size = 48
__$ArrayPad$ = -4					; size = 4
_first_fe$ = 8						; size = 4
_last_fe$ = 12						; size = 4
_cross_cut PROC						; COMDAT

; 1112 : {

	push	ebp
	mov	ebp, esp
	sub	esp, 112				; 00000070H
	mov	eax, DWORD PTR ___security_cookie
	xor	eax, ebp
	mov	DWORD PTR __$ArrayPad$[ebp], eax
	push	ebx

; 1113 :   facet_id old_f,new_f;
; 1114 :   edge_id  new_e;
; 1115 :   facetedge_id fe,new_fe_new,new_fe_old;
; 1116 :   int wrap;
; 1117 :   ATTR attr;
; 1118 :   vertex_id headv,tailv;
; 1119 :   int i,k;
; 1120 : 
; 1121 :   old_f = get_fe_facet(first_fe);

	mov	ebx, DWORD PTR _web+460
	push	esi
	push	edi
	mov	edi, DWORD PTR _first_fe$[ebp]
	mov	eax, edi
	shr	eax, 28					; 0000001cH
	and	eax, 1
	mov	DWORD PTR tv1985[ebp], eax
	jne	SHORT $LN52@cross_cut
	mov	esi, DWORD PTR _NULLFACET
	jmp	SHORT $LN51@cross_cut
$LN52@cross_cut:
	mov	eax, edi
	and	eax, 134217727				; 07ffffffH
	mov	ecx, DWORD PTR [ebx+eax*4]
	mov	esi, DWORD PTR [ecx+24]
	test	edi, 134217728				; 08000000H
	je	SHORT $LN51@cross_cut
	xor	esi, 134217728				; 08000000H
$LN51@cross_cut:

; 1122 :   attr = get_fattr(old_f);

	mov	edx, DWORD PTR _web+236
	mov	eax, esi
	and	eax, 134217727				; 07ffffffH
	add	eax, eax
	add	eax, eax
	mov	DWORD PTR tv2000[ebp], eax
	mov	eax, DWORD PTR [eax+edx]
	mov	ecx, DWORD PTR [eax+8]
	mov	edx, DWORD PTR [eax+12]
	mov	DWORD PTR _attr$[ebp], ecx

; 1123 : 
; 1124 :   tailv = get_fe_headv(last_fe);

	mov	ecx, DWORD PTR _last_fe$[ebp]
	mov	eax, ecx
	and	eax, 134217727				; 07ffffffH
	add	eax, eax
	add	eax, eax
	mov	DWORD PTR _attr$[ebp+4], edx
	mov	edx, DWORD PTR [eax+ebx]
	mov	DWORD PTR tv2008[ebp], eax
	mov	eax, ecx
	mov	ecx, DWORD PTR _web+216
	and	eax, 134217728				; 08000000H
	xor	eax, DWORD PTR [edx+20]
	mov	edx, DWORD PTR _dymem
	mov	ecx, DWORD PTR [ecx+edx+304]
	mov	edx, DWORD PTR _web+124
	test	eax, 134217728				; 08000000H
	je	SHORT $LN58@cross_cut
	and	eax, 134217727				; 07ffffffH
	mov	eax, DWORD PTR [edx+eax*4]
	mov	eax, DWORD PTR [ecx+eax]
	jmp	SHORT $LN201@cross_cut
$LN58@cross_cut:
	mov	ebx, DWORD PTR _web+636
	and	eax, 134217727				; 07ffffffH
	mov	eax, DWORD PTR [edx+eax*4]
	lea	eax, DWORD PTR [eax+ebx*4]
	mov	eax, DWORD PTR [eax+ecx]
	mov	ebx, DWORD PTR _web+460
$LN201@cross_cut:
	mov	DWORD PTR _tailv$[ebp], eax

; 1125 :   headv = get_fe_tailv(first_fe);

	mov	eax, edi
	and	eax, 134217727				; 07ffffffH
	add	eax, eax
	add	eax, eax
	mov	ebx, DWORD PTR [eax+ebx]
	mov	DWORD PTR tv1988[ebp], eax
	mov	eax, edi
	and	eax, 134217728				; 08000000H
	xor	eax, DWORD PTR [ebx+20]
	test	eax, 134217728				; 08000000H
	je	SHORT $LN64@cross_cut
	and	eax, 134217727				; 07ffffffH
	mov	edx, DWORD PTR [edx+eax*4]
	mov	eax, DWORD PTR _web+636
	lea	edx, DWORD PTR [edx+eax*4]
	mov	ecx, DWORD PTR [edx+ecx]
	jmp	SHORT $LN202@cross_cut
$LN64@cross_cut:
	and	eax, 134217727				; 07ffffffH
	mov	eax, DWORD PTR [edx+eax*4]
	mov	ecx, DWORD PTR [ecx+eax]
$LN202@cross_cut:

; 1126 :   if ( get_vattr(headv) & AXIAL_POINT )

	mov	edx, DWORD PTR _web+12
	mov	eax, ecx
	and	eax, 134217727				; 07ffffffH
	mov	DWORD PTR tv2055[ebp], eax
	mov	eax, DWORD PTR [edx+eax*4]
	mov	eax, DWORD PTR [eax+8]
	and	eax, 8388608				; 00800000H
	xor	edx, edx
	or	eax, edx
	mov	DWORD PTR _headv$[ebp], ecx

; 1127 :      new_e = inverse_id(new_edge(headv,tailv,old_f));

	push	esi
	je	SHORT $LN28@cross_cut
	mov	eax, DWORD PTR _tailv$[ebp]
	push	eax
	push	ecx
	call	_new_edge
	mov	edi, eax
	add	esp, 12					; 0000000cH
	xor	edi, 134217728				; 08000000H
	mov	DWORD PTR _new_e$[ebp], edi
	jmp	SHORT $LN27@cross_cut
$LN28@cross_cut:

; 1128 :   else new_e = new_edge(tailv,headv,old_f);

	push	ecx
	mov	ecx, DWORD PTR _tailv$[ebp]
	push	ecx
	call	_new_edge
	add	esp, 12					; 0000000cH
	mov	edi, eax
	mov	DWORD PTR _new_e$[ebp], eax
$LN27@cross_cut:

; 1129 :   if ( attr & FIXED )

	mov	eax, DWORD PTR _attr$[ebp]
	mov	edx, 64					; 00000040H
	and	eax, edx
	xor	ecx, ecx
	or	eax, ecx
	je	$LN194@cross_cut

; 1130 :   { set_attr(new_e,FIXED);

	mov	ecx, edi
	shr	ecx, 29					; 0000001dH
	imul	ecx, 112				; 00000070H
	mov	ecx, DWORD PTR _web[ecx+12]
	mov	eax, edi
	and	eax, 134217727				; 07ffffffH
	add	eax, eax
	add	eax, eax
	mov	ecx, DWORD PTR [ecx+eax]
	mov	ebx, DWORD PTR [ecx+12]
	or	DWORD PTR [ecx+8], edx
	mov	DWORD PTR [ecx+12], ebx

; 1131 :      if ( web.modeltype == QUADRATIC ) 

	mov	ecx, DWORD PTR _web+628
	cmp	ecx, 2
	jne	SHORT $LN25@cross_cut

; 1132 :         set_attr(get_edge_midv(new_e),FIXED);

	mov	ebx, DWORD PTR _dymem
	mov	ecx, DWORD PTR _web+216
	mov	ecx, DWORD PTR [ecx+ebx+304]
	mov	ebx, DWORD PTR _web+124
	mov	eax, DWORD PTR [eax+ebx]
	mov	eax, DWORD PTR [ecx+eax+8]
	mov	ecx, eax
	shr	ecx, 29					; 0000001dH
	imul	ecx, 112				; 00000070H
	mov	ecx, DWORD PTR _web[ecx+12]
	and	eax, 134217727				; 07ffffffH
	mov	eax, DWORD PTR [ecx+eax*4]
	or	DWORD PTR [eax+8], edx
	mov	edx, DWORD PTR [eax+12]
	mov	DWORD PTR [eax+12], edx
	jmp	SHORT $LN194@cross_cut
$LN25@cross_cut:

; 1133 :      else if ( web.modeltype == LAGRANGE ) 

	cmp	ecx, 3
	jne	SHORT $LN194@cross_cut

; 1134 :      { vertex_id *v = get_edge_vertices(new_e);

	mov	ecx, DWORD PTR _web+216
	mov	edx, DWORD PTR _dymem
	mov	edx, DWORD PTR [ecx+edx+304]
	mov	ecx, DWORD PTR _web+124
	add	edx, DWORD PTR [eax+ecx]

; 1135 :         for ( i = 1 ; i < web.lagrange_order ; i++ )

	mov	ecx, 1
	cmp	DWORD PTR _web+632, ecx
	jle	SHORT $LN194@cross_cut
	npad	3
$LL22@cross_cut:

; 1136 :           set_attr(v[i],FIXED);

	mov	eax, DWORD PTR [edx+ecx*4]
	mov	ebx, eax
	shr	ebx, 29					; 0000001dH
	imul	ebx, 112				; 00000070H
	mov	ebx, DWORD PTR _web[ebx+12]
	and	eax, 134217727				; 07ffffffH
	mov	eax, DWORD PTR [ebx+eax*4]
	mov	ebx, DWORD PTR [eax+12]
	or	DWORD PTR [eax+8], 64			; 00000040H
	inc	ecx
	mov	DWORD PTR [eax+12], ebx
	cmp	ecx, DWORD PTR _web+632
	jl	SHORT $LL22@cross_cut
$LN194@cross_cut:

; 1137 :      }
; 1138 :   }
; 1139 :   if ( attr & NO_REFINE ) set_attr(new_e,NO_REFINE);

	mov	eax, DWORD PTR _attr$[ebp]
	and	eax, 16777216				; 01000000H
	xor	ecx, ecx
	or	eax, ecx
	je	SHORT $LN73@cross_cut
	mov	edx, edi
	shr	edx, 29					; 0000001dH
	imul	edx, 112				; 00000070H
	mov	ecx, DWORD PTR _web[edx+12]
	mov	eax, edi
	and	eax, 134217727				; 07ffffffH
	mov	eax, DWORD PTR [ecx+eax*4]
	mov	edx, DWORD PTR [eax+12]
	or	DWORD PTR [eax+8], 16777216		; 01000000H
	mov	DWORD PTR [eax+12], edx
$LN73@cross_cut:

; 1140 : 
; 1141 :   /* for QUADRATIC model, midpoint of new edge is left as the 
; 1142 :       linear interpolation given by new_edge() since triangular
; 1143 :       facets may not yet be established yet */
; 1144 : 
; 1145 :   new_f = dup_facet(old_f); /* copy facet data */

	push	esi
	call	_dup_facet

; 1146 :   /* if ( inverted(old_f) ) invert(new_f);*/    /* same orientation */
; 1147 :   set_attr(old_f,NEWFACET);

	mov	edx, DWORD PTR tv2000[ebp]
	mov	ebx, eax
	mov	eax, esi
	shr	eax, 29					; 0000001dH
	imul	eax, 112				; 00000070H
	mov	ecx, DWORD PTR _web[eax+12]
	mov	eax, DWORD PTR [ecx+edx]
	mov	ecx, DWORD PTR [eax+12]
	or	DWORD PTR [eax+8], 4

; 1148 : 
; 1149 : 
; 1150 :   new_fe_new = new_facetedge(new_f,new_e);

	push	edi
	push	ebx
	mov	DWORD PTR [eax+12], ecx
	call	_new_facetedge

; 1151 :   new_fe_old = new_facetedge(old_f,edge_inverse(new_e));

	mov	edx, edi
	xor	edx, 134217728				; 08000000H
	push	edx
	push	esi
	mov	DWORD PTR _new_fe_new$[ebp], eax
	call	_new_facetedge

; 1152 :   set_edge_fe(new_e,new_fe_new);

	mov	ecx, DWORD PTR _new_fe_new$[ebp]
	mov	DWORD PTR _new_fe_old$[ebp], eax
	mov	eax, edi
	shr	eax, 27					; 0000001bH
	add	esp, 20					; 00000014H
	and	eax, 1
	mov	DWORD PTR tv2148[ebp], eax
	je	SHORT $LN77@cross_cut
	xor	ecx, 134217728				; 08000000H
$LN77@cross_cut:
	mov	eax, DWORD PTR _web+124
	and	edi, 134217727				; 07ffffffH
	mov	edx, DWORD PTR [eax+edi*4]
	mov	DWORD PTR [edx+28], ecx
	mov	eax, DWORD PTR _global_timestamp
	inc	eax

; 1153 :   set_facet_body(new_f,get_facet_body(old_f));

	push	esi
	mov	DWORD PTR tv2071[ebp], edi
	mov	DWORD PTR _global_timestamp, eax
	mov	DWORD PTR _top_timestamp, eax
	call	_get_facet_body
	push	eax
	push	ebx
	call	_set_facet_body

; 1154 :   set_facet_body(facet_inverse(new_f),get_facet_body(facet_inverse(old_f)));

	mov	eax, esi
	xor	eax, 134217728				; 08000000H
	push	eax
	call	_get_facet_body
	mov	ecx, ebx
	push	eax
	xor	ecx, 134217728				; 08000000H
	push	ecx
	call	_set_facet_body
	add	esp, 24					; 00000018H

; 1155 :   if ( phase_flag ) set_f_phase_density(new_f);

	cmp	DWORD PTR _phase_flag, 0
	je	SHORT $LN18@cross_cut
	push	ebx
	call	_set_f_phase_density
	add	esp, 4
$LN18@cross_cut:

; 1156 :   set_facet_fe(new_f,last_fe); /* preserves starting point of a facet */

	mov	edx, DWORD PTR _last_fe$[ebp]
	push	edx
	push	ebx
	call	_set_facet_fe

; 1157 : 
; 1158 :   set_facet_fe(old_f,new_fe_old);

	mov	eax, DWORD PTR _new_fe_old$[ebp]
	push	eax
	push	esi
	call	_set_facet_fe

; 1159 : 
; 1160 :   /* install new facet into its facet-edges */
; 1161 :   /* and set torus wrap flags if needed */
; 1162 :   fe = first_fe;

	mov	esi, DWORD PTR _first_fe$[ebp]
	add	esp, 16					; 00000010H

; 1163 :   wrap = 0;

	xor	edi, edi
	mov	DWORD PTR _wrap$[ebp], edi
	npad	5
$LL17@cross_cut:

; 1164 :   for(;;)
; 1165 :   { set_fe_facet(fe,new_f);

	push	ebx
	push	esi
	call	_set_fe_facet
	add	esp, 8

; 1166 :     if ( web.symmetry_flag )

	cmp	DWORD PTR _web+856, 0
	je	SHORT $LN15@cross_cut

; 1167 :        wrap = (*sym_compose)(wrap,get_fe_wrap(fe));

	mov	edx, DWORD PTR _web+460
	mov	edi, DWORD PTR _dymem
	mov	ecx, esi
	and	ecx, 134217727				; 07ffffffH
	mov	ecx, DWORD PTR [edx+ecx*4]
	mov	eax, esi
	and	eax, 134217728				; 08000000H
	xor	eax, DWORD PTR [ecx+20]
	mov	ecx, DWORD PTR _web+124
	mov	edx, eax
	and	edx, 134217727				; 07ffffffH
	mov	edx, DWORD PTR [ecx+edx*4]
	mov	ecx, DWORD PTR _web+216
	mov	ecx, DWORD PTR [ecx+edi+784]
	mov	ecx, DWORD PTR [edx+ecx]
	test	eax, 134217728				; 08000000H
	je	SHORT $LN84@cross_cut
	push	ecx
	call	DWORD PTR _sym_inverse
	add	esp, 4
	jmp	SHORT $LN85@cross_cut
$LN84@cross_cut:
	mov	eax, ecx
$LN85@cross_cut:
	mov	edx, DWORD PTR _wrap$[ebp]
	push	eax
	push	edx
	call	DWORD PTR _sym_compose
	mov	edi, eax
	add	esp, 8
	mov	DWORD PTR _wrap$[ebp], edi
$LN15@cross_cut:

; 1168 :     if ( equal_id(fe,last_fe) ) break;

	cmp	esi, DWORD PTR _last_fe$[ebp]
	je	SHORT $LN182@cross_cut

; 1169 :     fe = get_next_edge(fe);

	test	esi, 134217728				; 08000000H
	je	SHORT $LN87@cross_cut
	mov	eax, DWORD PTR _web+460
	and	esi, 134217727				; 07ffffffH
	mov	ecx, DWORD PTR [eax+esi*4]
	mov	esi, DWORD PTR [ecx+28]
	xor	esi, 134217728				; 08000000H
	jmp	$LL17@cross_cut
$LN87@cross_cut:
	mov	edx, DWORD PTR _web+460
	and	esi, 134217727				; 07ffffffH
	mov	eax, DWORD PTR [edx+esi*4]
	mov	esi, DWORD PTR [eax+32]

; 1170 :   }

	jmp	$LL17@cross_cut
$LN182@cross_cut:

; 1171 :   if ( wrap )

	test	edi, edi
	je	$LN9@cross_cut

; 1172 :   { set_edge_wrap(new_e,(*sym_inverse)(wrap));

	mov	ecx, DWORD PTR _wrap$[ebp]
	push	ecx
	call	DWORD PTR _sym_inverse
	add	esp, 4
	cmp	DWORD PTR tv2148[ebp], 0
	je	SHORT $LN92@cross_cut
	push	eax
	call	DWORD PTR _sym_inverse
	add	esp, 4
$LN92@cross_cut:
	mov	ecx, DWORD PTR _dymem
	mov	edx, DWORD PTR _web+216
	mov	edx, DWORD PTR [edx+ecx+784]
	mov	ecx, DWORD PTR _web+124
	mov	esi, DWORD PTR tv2071[ebp]
	mov	ecx, DWORD PTR [ecx+esi*4]
	mov	DWORD PTR [edx+ecx], eax

; 1173 :     if ( web.modeltype == QUADRATIC )

	cmp	DWORD PTR _web+628, 2
	jne	$LN9@cross_cut

; 1174 :     { /* have to adjust coordinates of midpoint */
; 1175 :       REAL temp[MAXCOORD];
; 1176 :       REAL *mv,*tv,*hv;
; 1177 :       tv = get_coord(tailv);

	mov	ecx, DWORD PTR _web+12
	mov	esi, DWORD PTR _tailv$[ebp]
	mov	edx, DWORD PTR _dymem
	mov	eax, DWORD PTR _web+104
	mov	eax, DWORD PTR [eax+edx+64]

; 1178 :       mv = get_coord(get_edge_midv(new_e));

	mov	ebx, DWORD PTR tv2071[ebp]
	and	esi, 134217727				; 07ffffffH
	mov	edi, DWORD PTR [ecx+esi*4]
	mov	esi, DWORD PTR _web+216
	mov	edx, DWORD PTR [esi+edx+304]
	mov	esi, DWORD PTR _web+124
	mov	esi, DWORD PTR [esi+ebx*4]
	mov	edx, DWORD PTR [edx+esi+8]
	and	edx, 134217727				; 07ffffffH
	mov	ebx, DWORD PTR [ecx+edx*4]

; 1179 :       hv = get_coord(headv);

	mov	edx, DWORD PTR tv2055[ebp]
	mov	esi, DWORD PTR [ecx+edx*4]
	add	edi, eax
	add	ebx, eax
	add	esi, eax

; 1180 :       (*sym_wrap)(hv,temp,(*sym_inverse)(wrap));

	mov	eax, DWORD PTR _wrap$[ebp]
	push	eax
	call	DWORD PTR _sym_inverse
	push	eax
	lea	ecx, DWORD PTR _temp$90007[ebp]
	push	ecx
	push	esi
	call	DWORD PTR _sym_wrap

; 1181 :       for ( k = 0 ; k < SDIM ; k++ )

	xor	eax, eax
	add	esp, 16					; 00000010H
	cmp	DWORD PTR _web+616, eax
	jle	SHORT $LN9@cross_cut
	fld	QWORD PTR __real@3fe0000000000000
	lea	edx, DWORD PTR _temp$90007[ebp]
	mov	ecx, edx
	sub	edi, edx
	sub	ebx, ecx
$LN11@cross_cut:
	lea	edx, DWORD PTR [edi+eax*8]

; 1182 :         mv[k] = (tv[k] + temp[k])/2;

	fld	QWORD PTR _temp$90007[ebp+edx]
	lea	ecx, DWORD PTR [ebx+eax*8]
	fadd	QWORD PTR _temp$90007[ebp+eax*8]
	inc	eax
	fmul	ST(0), ST(1)
	fstp	QWORD PTR _temp$90007[ebp+ecx]
	cmp	eax, DWORD PTR _web+616
	jl	SHORT $LN11@cross_cut

; 1181 :       for ( k = 0 ; k < SDIM ; k++ )

	fstp	ST(0)
$LN9@cross_cut:

; 1183 :     }
; 1184 :   }
; 1185 : 
; 1186 :   /* link up facet-edges */
; 1187 :   set_next_edge(get_prev_edge(first_fe),new_fe_old);

	mov	ebx, DWORD PTR _first_fe$[ebp]
	mov	eax, DWORD PTR _web+460
	mov	edi, DWORD PTR tv1988[ebp]
	shr	ebx, 27					; 0000001bH
	and	ebx, 1
	mov	DWORD PTR tv1996[ebp], ebx
	je	SHORT $LN95@cross_cut
	mov	edx, DWORD PTR [edi+eax]
	mov	ecx, DWORD PTR [edx+32]
	xor	ecx, 134217728				; 08000000H
	jmp	SHORT $LN94@cross_cut
$LN95@cross_cut:
	mov	ecx, DWORD PTR [edi+eax]
	mov	ecx, DWORD PTR [ecx+28]
$LN94@cross_cut:
	mov	esi, DWORD PTR _new_fe_old$[ebp]
	test	ecx, 268435456				; 10000000H
	je	SHORT $LN98@cross_cut
	test	ecx, 134217728				; 08000000H
	je	SHORT $LN99@cross_cut
	mov	edx, esi
	xor	edx, 134217728				; 08000000H
	and	ecx, 134217727				; 07ffffffH
	mov	eax, DWORD PTR [eax+ecx*4]
	mov	DWORD PTR [eax+28], edx
	jmp	SHORT $LN213@cross_cut
$LN99@cross_cut:
	and	ecx, 134217727				; 07ffffffH
	mov	ecx, DWORD PTR [eax+ecx*4]
	mov	DWORD PTR [ecx+32], esi
$LN213@cross_cut:
	mov	eax, DWORD PTR _web+460
$LN98@cross_cut:

; 1188 :   set_prev_edge(new_fe_old,get_prev_edge(first_fe));

	test	ebx, ebx
	je	SHORT $LN104@cross_cut
	mov	edx, DWORD PTR [edi+eax]
	mov	ecx, DWORD PTR [edx+32]
	xor	ecx, 134217728				; 08000000H
	jmp	SHORT $LN103@cross_cut
$LN104@cross_cut:
	mov	ecx, DWORD PTR [edi+eax]
	mov	ecx, DWORD PTR [ecx+28]
$LN103@cross_cut:
	mov	edx, esi
	shr	edx, 28					; 0000001cH
	and	edx, 1
	mov	DWORD PTR tv2262[ebp], edx
	je	SHORT $LN187@cross_cut
	mov	edx, esi
	test	esi, 134217728				; 08000000H
	je	SHORT $LN108@cross_cut
	xor	ecx, 134217728				; 08000000H
	and	edx, 134217727				; 07ffffffH
	mov	eax, DWORD PTR [eax+edx*4]
	mov	DWORD PTR [eax+32], ecx
	jmp	SHORT $LN107@cross_cut
$LN108@cross_cut:
	and	edx, 134217727				; 07ffffffH
	mov	eax, DWORD PTR [eax+edx*4]
	mov	DWORD PTR [eax+28], ecx
$LN107@cross_cut:
	mov	eax, DWORD PTR _global_timestamp
	inc	eax
	mov	DWORD PTR _global_timestamp, eax
	mov	DWORD PTR _top_timestamp, eax
	mov	eax, DWORD PTR _web+460
$LN187@cross_cut:

; 1189 :   set_prev_edge(get_next_edge(last_fe),new_fe_old);

	mov	edi, DWORD PTR _last_fe$[ebp]
	mov	ebx, DWORD PTR tv2008[ebp]
	shr	edi, 27					; 0000001bH
	and	edi, 1
	mov	DWORD PTR tv2278[ebp], edi
	je	SHORT $LN113@cross_cut
	mov	ecx, DWORD PTR [ebx+eax]
	mov	ecx, DWORD PTR [ecx+28]
	xor	ecx, 134217728				; 08000000H
	jmp	SHORT $LN112@cross_cut
$LN113@cross_cut:
	mov	edx, DWORD PTR [ebx+eax]
	mov	ecx, DWORD PTR [edx+32]
$LN112@cross_cut:
	test	ecx, 268435456				; 10000000H
	je	SHORT $LN197@cross_cut
	test	ecx, 134217728				; 08000000H
	je	SHORT $LN117@cross_cut
	mov	edx, esi
	xor	edx, 134217728				; 08000000H
	and	ecx, 134217727				; 07ffffffH
	mov	eax, DWORD PTR [eax+ecx*4]
	mov	DWORD PTR [eax+32], edx
	jmp	SHORT $LN116@cross_cut
$LN117@cross_cut:
	and	ecx, 134217727				; 07ffffffH
	mov	ecx, DWORD PTR [eax+ecx*4]
	mov	DWORD PTR [ecx+28], esi
$LN116@cross_cut:
	mov	eax, DWORD PTR _global_timestamp
	inc	eax
	mov	DWORD PTR _global_timestamp, eax
	mov	DWORD PTR _top_timestamp, eax
	mov	eax, DWORD PTR _web+460
$LN197@cross_cut:

; 1190 :   set_next_edge(new_fe_old,get_next_edge(last_fe));

	test	edi, edi
	je	SHORT $LN122@cross_cut
	mov	edx, DWORD PTR [ebx+eax]
	mov	ecx, DWORD PTR [edx+28]
	xor	ecx, 134217728				; 08000000H
	jmp	SHORT $LN121@cross_cut
$LN122@cross_cut:
	mov	ecx, DWORD PTR [ebx+eax]
	mov	ecx, DWORD PTR [ecx+32]
$LN121@cross_cut:
	cmp	DWORD PTR tv2262[ebp], 0
	je	SHORT $LN125@cross_cut
	mov	edx, esi
	test	esi, 134217728				; 08000000H
	je	SHORT $LN126@cross_cut
	xor	ecx, 134217728				; 08000000H
	and	edx, 134217727				; 07ffffffH
	mov	eax, DWORD PTR [eax+edx*4]
	mov	DWORD PTR [eax+28], ecx
	jmp	SHORT $LN203@cross_cut
$LN126@cross_cut:
	and	edx, 134217727				; 07ffffffH
	mov	eax, DWORD PTR [eax+edx*4]
	mov	DWORD PTR [eax+32], ecx
$LN203@cross_cut:
	mov	eax, DWORD PTR _web+460
$LN125@cross_cut:

; 1191 :   set_prev_edge(first_fe,new_fe_new);

	cmp	DWORD PTR tv1985[ebp], 0
	je	SHORT $LN190@cross_cut
	cmp	DWORD PTR tv1996[ebp], 0
	je	SHORT $LN131@cross_cut
	mov	ecx, DWORD PTR _new_fe_new$[ebp]
	mov	edi, DWORD PTR tv1988[ebp]
	mov	eax, DWORD PTR [edi+eax]
	mov	edx, ecx
	xor	edx, 134217728				; 08000000H
	mov	DWORD PTR [eax+32], edx
	jmp	SHORT $LN130@cross_cut
$LN131@cross_cut:
	mov	ecx, DWORD PTR tv1988[ebp]
	mov	edx, DWORD PTR [ecx+eax]
	mov	ecx, DWORD PTR _new_fe_new$[ebp]
	mov	DWORD PTR [edx+28], ecx
$LN130@cross_cut:
	mov	eax, DWORD PTR _global_timestamp
	inc	eax
	mov	DWORD PTR _global_timestamp, eax
	mov	DWORD PTR _top_timestamp, eax
	mov	eax, DWORD PTR _web+460
	jmp	SHORT $LN133@cross_cut
$LN190@cross_cut:
	mov	ecx, DWORD PTR _new_fe_new$[ebp]
$LN133@cross_cut:

; 1192 :   set_next_edge(new_fe_new,first_fe);

	mov	edi, ecx
	shr	edi, 28					; 0000001cH
	and	edi, 1
	mov	DWORD PTR tv2307[ebp], edi
	je	SHORT $LN135@cross_cut
	test	ecx, 134217728				; 08000000H
	je	SHORT $LN136@cross_cut
	mov	edx, DWORD PTR _first_fe$[ebp]
	xor	edx, 134217728				; 08000000H
	mov	DWORD PTR tv1826[ebp], edx
	mov	edx, ecx
	and	edx, 134217727				; 07ffffffH
	mov	eax, DWORD PTR [eax+edx*4]
	mov	edx, DWORD PTR tv1826[ebp]
	mov	DWORD PTR [eax+28], edx
	jmp	SHORT $LN204@cross_cut
$LN136@cross_cut:
	mov	edx, ecx
	and	edx, 134217727				; 07ffffffH
	mov	eax, DWORD PTR [eax+edx*4]
	mov	edx, DWORD PTR _first_fe$[ebp]
	mov	DWORD PTR [eax+32], edx
$LN204@cross_cut:
	mov	eax, DWORD PTR _web+460
$LN135@cross_cut:

; 1193 :   set_next_edge(last_fe,new_fe_new);

	mov	edx, DWORD PTR _last_fe$[ebp]
	test	edx, 268435456				; 10000000H
	je	SHORT $LN140@cross_cut
	cmp	DWORD PTR tv2278[ebp], 0
	je	SHORT $LN141@cross_cut
	mov	eax, DWORD PTR [ebx+eax]
	mov	edx, ecx
	xor	edx, 134217728				; 08000000H
	mov	DWORD PTR [eax+28], edx
	jmp	SHORT $LN205@cross_cut
$LN141@cross_cut:
	mov	edx, DWORD PTR [ebx+eax]
	mov	DWORD PTR [edx+32], ecx
$LN205@cross_cut:
	mov	edx, DWORD PTR _last_fe$[ebp]
	mov	eax, DWORD PTR _web+460
$LN140@cross_cut:

; 1194 :   set_prev_edge(new_fe_new,last_fe);

	test	edi, edi
	je	SHORT $LN148@cross_cut
	mov	ebx, ecx
	test	ecx, 134217728				; 08000000H
	je	SHORT $LN146@cross_cut
	xor	edx, 134217728				; 08000000H
	and	ebx, 134217727				; 07ffffffH
	mov	eax, DWORD PTR [eax+ebx*4]
	mov	DWORD PTR [eax+32], edx
	jmp	SHORT $LN145@cross_cut
$LN146@cross_cut:
	and	ebx, 134217727				; 07ffffffH
	mov	eax, DWORD PTR [eax+ebx*4]
	mov	DWORD PTR [eax+28], edx
$LN145@cross_cut:
	mov	eax, DWORD PTR _global_timestamp
	inc	eax
	mov	DWORD PTR _global_timestamp, eax
	mov	DWORD PTR _top_timestamp, eax
	mov	eax, DWORD PTR _web+460
$LN148@cross_cut:

; 1195 :   set_next_facet(new_fe_new,fe_inverse(new_fe_old));

	mov	edx, esi
	xor	edx, 134217728				; 08000000H
	test	edi, edi
	je	SHORT $LN198@cross_cut
	mov	ebx, ecx
	test	ecx, 134217728				; 08000000H
	je	SHORT $LN151@cross_cut
	mov	edi, edx
	xor	edi, 134217728				; 08000000H
	and	ebx, 134217727				; 07ffffffH
	mov	eax, DWORD PTR [eax+ebx*4]
	mov	DWORD PTR [eax+36], edi
	mov	edi, DWORD PTR tv2307[ebp]
	jmp	SHORT $LN207@cross_cut
$LN151@cross_cut:
	and	ebx, 134217727				; 07ffffffH
	mov	eax, DWORD PTR [eax+ebx*4]
	mov	DWORD PTR [eax+40], edx
$LN207@cross_cut:
	mov	eax, DWORD PTR _web+460

; 1196 :   set_prev_facet(new_fe_new,fe_inverse(new_fe_old));

	test	edi, edi
	je	SHORT $LN198@cross_cut
	mov	edi, ecx
	test	ecx, 134217728				; 08000000H
	je	SHORT $LN156@cross_cut
	xor	edx, 134217728				; 08000000H
	and	edi, 134217727				; 07ffffffH
	mov	eax, DWORD PTR [eax+edi*4]
	mov	DWORD PTR [eax+40], edx
	jmp	SHORT $LN155@cross_cut
$LN156@cross_cut:
	and	edi, 134217727				; 07ffffffH
	mov	eax, DWORD PTR [eax+edi*4]
	mov	DWORD PTR [eax+36], edx
$LN155@cross_cut:
	mov	eax, DWORD PTR _global_timestamp
	inc	eax
	mov	DWORD PTR _global_timestamp, eax
	mov	DWORD PTR _top_timestamp, eax
	mov	eax, DWORD PTR _web+460
$LN198@cross_cut:

; 1197 :   set_next_facet(new_fe_old,fe_inverse(new_fe_new));

	mov	edx, DWORD PTR tv2262[ebp]
	xor	ecx, 134217728				; 08000000H
	test	edx, edx
	je	SHORT $LN168@cross_cut
	test	esi, 134217728				; 08000000H
	je	SHORT $LN161@cross_cut
	mov	edi, ecx
	xor	edi, 134217728				; 08000000H
	mov	ebx, esi
	and	ebx, 134217727				; 07ffffffH
	mov	eax, DWORD PTR [eax+ebx*4]
	mov	DWORD PTR [eax+36], edi
	jmp	SHORT $LN209@cross_cut
$LN161@cross_cut:
	mov	edi, esi
	and	edi, 134217727				; 07ffffffH
	mov	eax, DWORD PTR [eax+edi*4]
	mov	DWORD PTR [eax+40], ecx
$LN209@cross_cut:
	mov	eax, DWORD PTR _web+460

; 1198 :   set_prev_facet(new_fe_old,fe_inverse(new_fe_new));

	test	edx, edx
	je	SHORT $LN168@cross_cut
	test	esi, 134217728				; 08000000H
	je	SHORT $LN166@cross_cut
	xor	ecx, 134217728				; 08000000H
	and	esi, 134217727				; 07ffffffH
	mov	edx, DWORD PTR [eax+esi*4]
	mov	DWORD PTR [edx+40], ecx
	jmp	SHORT $LN165@cross_cut
$LN166@cross_cut:
	and	esi, 134217727				; 07ffffffH
	mov	eax, DWORD PTR [eax+esi*4]
	mov	DWORD PTR [eax+36], ecx
$LN165@cross_cut:
	mov	eax, DWORD PTR _global_timestamp
	inc	eax
	mov	DWORD PTR _global_timestamp, eax
	mov	DWORD PTR _top_timestamp, eax
$LN168@cross_cut:

; 1199 : 
; 1200 :   if ( attr & BOUNDARY )

	mov	ebx, DWORD PTR _attr$[ebp]
	mov	eax, ebx
	mov	esi, 128				; 00000080H
	and	eax, esi
	xor	ecx, ecx
	or	eax, ecx
	je	$LN188@cross_cut

; 1201 :   { struct boundary *bdry = get_facet_boundary(old_f);

	mov	eax, DWORD PTR _F_BOUNDARY_ATTR
	test	eax, eax
	je	SHORT $LN31@cross_cut
	mov	ecx, DWORD PTR _dymem
	imul	eax, 240				; 000000f0H
	add	eax, DWORD PTR _web+328
	mov	edx, DWORD PTR [eax+ecx+64]
	mov	eax, DWORD PTR _web+236
	mov	ecx, DWORD PTR tv2000[ebp]
	mov	eax, DWORD PTR [ecx+eax]
	mov	edx, DWORD PTR [edx+eax]
	imul	edx, 136				; 00000088H
	add	edx, DWORD PTR _web+776
	jmp	SHORT $LN210@cross_cut
$LN31@cross_cut:
	xor	edx, edx
$LN210@cross_cut:

; 1202 :     REAL *paramb,*parammid;
; 1203 :     REAL *mu,*mv;
; 1204 : 
; 1205 :     set_attr(new_e,BOUNDARY);

	mov	ecx, DWORD PTR _new_e$[ebp]
	shr	ecx, 29					; 0000001dH
	imul	ecx, 112				; 00000070H
	mov	eax, DWORD PTR _web[ecx+12]
	mov	ecx, DWORD PTR tv2071[ebp]
	mov	eax, DWORD PTR [eax+ecx*4]
	mov	edi, DWORD PTR [eax+12]
	or	DWORD PTR [eax+8], esi
	mov	DWORD PTR [eax+12], edi

; 1206 :     set_edge_boundary_num(new_e,bdry->num);

	mov	eax, DWORD PTR _E_BOUNDARY_ATTR
	mov	DWORD PTR _bdry$90032[ebp], edx
	test	eax, eax
	je	SHORT $LN195@cross_cut
	mov	edi, DWORD PTR _dymem
	imul	eax, 240				; 000000f0H
	add	eax, DWORD PTR _web+216
	mov	eax, DWORD PTR [eax+edi+64]
	mov	edi, DWORD PTR _web+124
	mov	ecx, DWORD PTR [edi+ecx*4]
	mov	edi, DWORD PTR [edx+44]
	mov	DWORD PTR [eax+ecx], edi
	mov	ecx, DWORD PTR tv2071[ebp]
$LN195@cross_cut:

; 1207 :     if ( web.modeltype == QUADRATIC )

	cmp	DWORD PTR _web+628, 2
	jne	$LN188@cross_cut

; 1208 :     { vertex_id divider = get_edge_midv(new_e); 

	mov	edi, DWORD PTR _dymem
	mov	eax, DWORD PTR _web+216
	mov	eax, DWORD PTR [eax+edi+304]
	mov	edi, DWORD PTR _web+124
	mov	ecx, DWORD PTR [edi+ecx*4]
	mov	eax, DWORD PTR [eax+ecx+8]

; 1209 :       set_attr(divider,BOUNDARY);

	mov	ecx, eax
	shr	eax, 29					; 0000001dH
	imul	eax, 112				; 00000070H
	mov	eax, DWORD PTR _web[eax+12]
	and	ecx, 134217727				; 07ffffffH
	add	ecx, ecx
	add	ecx, ecx
	mov	eax, DWORD PTR [eax+ecx]
	or	DWORD PTR [eax+8], esi
	mov	esi, DWORD PTR [eax+12]
	mov	DWORD PTR [eax+12], esi

; 1210 :       set_boundary_num(divider,bdry->num);

	mov	eax, DWORD PTR _V_BOUNDARY_ATTR
	test	eax, eax
	je	SHORT $LN35@cross_cut
	mov	esi, DWORD PTR _dymem
	imul	eax, 240				; 000000f0H
	add	eax, DWORD PTR _web+104
	mov	edx, DWORD PTR [edx+44]
	mov	eax, DWORD PTR [eax+esi+64]
	mov	esi, DWORD PTR _web+12
	mov	esi, DWORD PTR [ecx+esi]
	mov	DWORD PTR [eax+esi], edx
	mov	eax, DWORD PTR _V_BOUNDARY_ATTR
$LN35@cross_cut:

; 1211 : 
; 1212 :       /* find parameters of new midpoint */
; 1213 :       mv = get_coord(divider);

	mov	edi, DWORD PTR _web+104
	mov	ebx, DWORD PTR _dymem
	mov	edx, DWORD PTR _web+12
	mov	esi, DWORD PTR [edi+ebx+64]
	mov	ecx, DWORD PTR [ecx+edx]
	mov	DWORD PTR tv2402[ebp], esi
	add	esi, ecx
	mov	DWORD PTR _mv$90040[ebp], esi

; 1214 :       parammid = get_param(divider);

	mov	esi, DWORD PTR [edi+ebx+544]
	mov	DWORD PTR tv2406[ebp], esi
	add	esi, ecx
	mov	DWORD PTR _parammid$90038[ebp], esi

; 1215 :       if ( (get_boundary(headv) != bdry) && (get_boundary(tailv) != bdry) )

	test	eax, eax
	je	SHORT $LN37@cross_cut
	mov	esi, DWORD PTR tv2055[ebp]
	mov	esi, DWORD PTR [edx+esi*4]
	mov	ecx, eax
	imul	ecx, 240				; 000000f0H
	add	ecx, edi
	mov	ecx, DWORD PTR [ecx+ebx+64]
	mov	ecx, DWORD PTR [ecx+esi]
	imul	ecx, 136				; 00000088H
	add	ecx, DWORD PTR _web+776
	jmp	SHORT $LN38@cross_cut
$LN37@cross_cut:
	xor	ecx, ecx
$LN38@cross_cut:
	mov	esi, DWORD PTR _tailv$[ebp]
	cmp	ecx, DWORD PTR _bdry$90032[ebp]
	je	$LN193@cross_cut
	test	eax, eax
	je	SHORT $LN39@cross_cut
	mov	ebx, eax
	imul	ebx, 240				; 000000f0H
	add	ebx, edi
	mov	edi, ebx
	mov	ebx, DWORD PTR _dymem
	mov	edi, DWORD PTR [edi+ebx+64]
	mov	ecx, esi
	and	ecx, 134217727				; 07ffffffH
	mov	ecx, DWORD PTR [edx+ecx*4]
	mov	ecx, DWORD PTR [ecx+edi]
	mov	edi, DWORD PTR _web+104
	imul	ecx, 136				; 00000088H
	add	ecx, DWORD PTR _web+776
	jmp	SHORT $LN40@cross_cut
$LN39@cross_cut:
	xor	ecx, ecx
$LN40@cross_cut:
	cmp	ecx, DWORD PTR _bdry$90032[ebp]
	je	$LN193@cross_cut

; 1216 :       { sprintf(errmsg,
; 1217 :            "Vertices %s and %s are on different boundaries from edge %s.\n",
; 1218 :               ELNAME(headv),ELNAME1(tailv),ELNAME2(new_e));

	mov	ebx, 268435456				; 10000000H
	test	DWORD PTR _new_e$[ebp], ebx
	je	SHORT $LN41@cross_cut
	mov	edx, DWORD PTR tv2071[ebp]
	inc	edx
	push	edx
	push	OFFSET ??_C@_02DPKJAMEF@?$CFd?$AA@
	push	OFFSET _elnames+60
	call	_sprintf
	add	esp, 12					; 0000000cH
	mov	edi, OFFSET _elnames+60
	jmp	SHORT $LN42@cross_cut
$LN41@cross_cut:
	mov	edi, OFFSET ??_C@_00CNPNBAHC@?$AA@
$LN42@cross_cut:
	test	esi, ebx
	je	SHORT $LN43@cross_cut
	and	esi, 134217727				; 07ffffffH
	inc	esi
	push	esi
	push	OFFSET ??_C@_02DPKJAMEF@?$CFd?$AA@
	push	OFFSET _elnames+30
	call	_sprintf
	add	esp, 12					; 0000000cH
	mov	esi, OFFSET _elnames+30
	jmp	SHORT $LN44@cross_cut
$LN43@cross_cut:
	mov	esi, OFFSET ??_C@_00CNPNBAHC@?$AA@
$LN44@cross_cut:
	test	DWORD PTR _headv$[ebp], ebx
	je	SHORT $LN45@cross_cut
	mov	eax, DWORD PTR tv2055[ebp]
	inc	eax
	push	eax
	push	OFFSET ??_C@_02DPKJAMEF@?$CFd?$AA@
	push	OFFSET _elnames
	call	_sprintf
	add	esp, 12					; 0000000cH
	mov	eax, OFFSET _elnames
	jmp	SHORT $LN46@cross_cut
$LN45@cross_cut:
	mov	eax, OFFSET ??_C@_00CNPNBAHC@?$AA@
$LN46@cross_cut:
	push	edi
	push	esi
	push	eax
	push	OFFSET ??_C@_0DO@FKBHOCNE@Vertices?5?$CFs?5and?5?$CFs?5are?5on?5differ@
	push	OFFSET _errmsg
	call	_sprintf

; 1219 :         kb_error(1939,errmsg,RECOVERABLE);

	push	1
	push	OFFSET _errmsg
	push	1939					; 00000793H
	call	_kb_error
	add	esp, 32					; 00000020H

; 1220 :       }
; 1221 :       else

	jmp	SHORT $LN211@cross_cut
$LN193@cross_cut:

; 1222 : #ifdef PARAMAVG
; 1223 :       if ( (get_boundary(headv) == bdry) && (get_boundary(tailv) == bdry) )
; 1224 :       { mu = get_coord(tailv);
; 1225 :         parama = get_param(tailv);
; 1226 :         paramb = get_param(headv);
; 1227 :         /* projecting on tangent */
; 1228 :         b_extrapolate(bdry,mu,mv,mv,parama,parammid,tailv);
; 1229 :         /* if not wrapped, take average parameter */
; 1230 :         for (  i = 0 ; i < bdry->pcount ; i++ )
; 1231 :         { if ( ((parama[i] < parammid[i]) && (parammid[i] < paramb[i]))
; 1232 :              || ((parama[i] > parammid[i]) && (parammid[i] > paramb[i])))
; 1233 :              parammid[i] = (parama[i] + paramb[i])/2;
; 1234 :         }
; 1235 :       }
; 1236 :       else
; 1237 : #endif
; 1238 :       if ( get_boundary(headv) == bdry )

	test	eax, eax
	je	SHORT $LN47@cross_cut
	imul	eax, 240				; 000000f0H
	add	eax, edi
	mov	ecx, DWORD PTR [eax+ebx+64]
	mov	eax, DWORD PTR tv2055[ebp]
	mov	eax, DWORD PTR [edx+eax*4]
	mov	eax, DWORD PTR [ecx+eax]
	imul	eax, 136				; 00000088H
	add	eax, DWORD PTR _web+776
	jmp	SHORT $LN48@cross_cut
$LN47@cross_cut:
	xor	eax, eax
$LN48@cross_cut:
	cmp	eax, DWORD PTR _bdry$90032[ebp]
	jne	SHORT $LN4@cross_cut

; 1239 :       { mu = get_coord(headv);
; 1240 :         paramb = get_param(headv);

	mov	ecx, DWORD PTR tv2055[ebp]

; 1241 :         /* projecting on tangent */
; 1242 :         b_extrapolate(bdry,mu,mv,mv,paramb,parammid,headv);

	mov	eax, DWORD PTR _headv$[ebp]
	mov	edx, DWORD PTR [edx+ecx*4]
	push	eax

; 1243 :       }
; 1244 :       else

	jmp	SHORT $LN212@cross_cut
$LN4@cross_cut:

; 1245 :       { mu = get_coord(tailv);
; 1246 :         paramb = get_param(tailv);

	mov	eax, esi
	and	eax, 134217727				; 07ffffffH
	mov	edx, DWORD PTR [edx+eax*4]

; 1247 :         /* projecting on tangent */
; 1248 :         b_extrapolate(bdry,mu,mv,mv,paramb,parammid,tailv);

	push	esi
$LN212@cross_cut:
	mov	ecx, DWORD PTR _parammid$90038[ebp]
	mov	eax, DWORD PTR tv2406[ebp]
	push	ecx
	lea	ecx, DWORD PTR [edx+eax]
	mov	eax, DWORD PTR _mv$90040[ebp]
	add	edx, DWORD PTR tv2402[ebp]
	push	ecx
	mov	ecx, DWORD PTR _bdry$90032[ebp]
	push	eax
	push	eax
	push	edx
	push	ecx
	call	_b_extrapolate
	add	esp, 28					; 0000001cH
$LN211@cross_cut:
	mov	ebx, DWORD PTR _attr$[ebp]
$LN188@cross_cut:

; 1249 :       }
; 1250 :     }
; 1251 :   }
; 1252 :   if ( attr & CONSTRAINT )    

	mov	eax, ebx
	and	eax, 1024				; 00000400H
	xor	ecx, ecx
	or	eax, ecx
	je	$LN186@cross_cut

; 1253 :   { ATTR cattr = attr & (BDRY_ENERGY | BDRY_CONTENT | CONSTRAINT );
; 1254 :     conmap_t * conmap = get_f_constraint_map(old_f);

	mov	eax, DWORD PTR _web+328
	mov	edx, DWORD PTR _dymem
	and	ebx, 5632				; 00001600H
	cmp	DWORD PTR [eax+edx+88], ecx
	je	SHORT $LN49@cross_cut
	mov	esi, DWORD PTR _web+236
	mov	edi, DWORD PTR tv2000[ebp]
	mov	edi, DWORD PTR [edi+esi]
	add	edi, DWORD PTR [eax+edx+64]
	jmp	SHORT $LN50@cross_cut
$LN49@cross_cut:
	mov	edi, OFFSET _nullcon
$LN50@cross_cut:

; 1255 : 
; 1256 :     set_attr(new_e,cattr);

	mov	edx, DWORD PTR _new_e$[ebp]
	mov	esi, DWORD PTR tv2071[ebp]
	mov	eax, edx
	shr	eax, 29					; 0000001dH
	imul	eax, 112				; 00000070H
	mov	eax, DWORD PTR _web[eax+12]
	mov	eax, DWORD PTR [eax+esi*4]
	or	DWORD PTR [eax+8], ebx
	or	DWORD PTR [eax+12], ecx

; 1257 :     set_e_conmap(new_e,conmap);

	push	edi
	push	edx
	call	_set_e_conmap
	add	esp, 8

; 1258 :     if ( web.modeltype == QUADRATIC )

	cmp	DWORD PTR _web+628, 2
	jne	SHORT $LN186@cross_cut

; 1259 :     { vertex_id mid = get_edge_midv(new_e);

	mov	ecx, DWORD PTR _web+216
	mov	edx, DWORD PTR _dymem
	mov	eax, DWORD PTR [ecx+edx+304]
	mov	ecx, DWORD PTR _web+124
	mov	edx, esi
	mov	ecx, DWORD PTR [ecx+edx*4]
	mov	esi, DWORD PTR [eax+ecx+8]

; 1260 :       set_attr(mid,cattr);

	mov	edx, esi
	shr	edx, 29					; 0000001dH
	imul	edx, 112				; 00000070H
	mov	ecx, DWORD PTR _web[edx+12]
	mov	eax, esi
	and	eax, 134217727				; 07ffffffH
	mov	eax, DWORD PTR [ecx+eax*4]
	or	DWORD PTR [eax+8], ebx
	xor	ecx, ecx
	or	DWORD PTR [eax+12], ecx

; 1261 :       set_v_conmap(mid,conmap);

	push	edi
	push	esi
	call	_set_v_conmap

; 1262 :       project_v_constr(mid,ACTUAL_MOVE,RESET_ONESIDEDNESS);

	push	1
	push	1
	push	esi
	call	_project_v_constr
	add	esp, 20					; 00000014H
$LN186@cross_cut:

; 1263 :     }
; 1264 :   }
; 1265 :  top_timestamp = ++global_timestamp;

	mov	eax, DWORD PTR _global_timestamp

; 1266 : 
; 1267 : } /* end cross_cut() */

	mov	ecx, DWORD PTR __$ArrayPad$[ebp]
	pop	edi
	inc	eax
	pop	esi
	xor	ecx, ebp
	mov	DWORD PTR _global_timestamp, eax
	mov	DWORD PTR _top_timestamp, eax
	pop	ebx
	call	@__security_check_cookie@4
	mov	esp, ebp
	pop	ebp
	ret	0
_cross_cut ENDP
_TEXT	ENDS
PUBLIC	??_C@_0DA@IDMKIDAH@facet_crosscut?3?5vertices?5?$CFs?0?$CFs?5n@ ; `string'
PUBLIC	_old_f$GSCopy$
PUBLIC	_headv$GSCopy$
PUBLIC	_tailv$GSCopy$
PUBLIC	__$ArrayPad$
PUBLIC	_facet_crosscut
;	COMDAT ??_C@_0DA@IDMKIDAH@facet_crosscut?3?5vertices?5?$CFs?0?$CFs?5n@
; File c:\levolver\yonkang-sefit\levolver\ev_ogl\inline.h
CONST	SEGMENT
??_C@_0DA@IDMKIDAH@facet_crosscut?3?5vertices?5?$CFs?0?$CFs?5n@ DB 'facet'
	DB	'_crosscut: vertices %s,%s not on facet %s', 0aH, 00H ; `string'
; Function compile flags: /Ogtp
; File c:\levolver\yonkang-sefit\levolver\ev_ogl\modify.c
CONST	ENDS
;	COMDAT _facet_crosscut
_TEXT	SEGMENT
_attr$ = -120						; size = 8
tv2600 = -112						; size = 4
_tailv$GSCopy$ = -108					; size = 4
tv2432 = -104						; size = 4
_headv$GSCopy$ = -100					; size = 4
tv2486 = -96						; size = 4
_bdry$90300 = -92					; size = 4
_new_fe_old$ = -92					; size = 4
tv2718 = -88						; size = 4
tv2517 = -88						; size = 4
_parammid$90306 = -88					; size = 4
_head_fe_neg$ = -84					; size = 4
_tail_fe_neg$ = -80					; size = 4
tv2612 = -76						; size = 4
_tail_fe$ = -76						; size = 4
tv2886 = -72						; size = 4
_new_f$ = -72						; size = 4
_new_e$ = -68						; size = 4
_start_fe$ = -68					; size = 4
_head_fe$ = -64						; size = 4
tv2890 = -60						; size = 4
tv2702 = -60						; size = 4
tv2559 = -60						; size = 4
_start_e$ = -60						; size = 4
_old_f$GSCopy$ = -56					; size = 4
_mv$90308 = -56						; size = 4
_wrap$ = -56						; size = 4
_temp$90274 = -52					; size = 48
__$ArrayPad$ = -4					; size = 4
_old_f$ = 8						; size = 4
_tailv$ = 12						; size = 4
_headv$ = 16						; size = 4
_facet_crosscut PROC					; COMDAT

; 1283 : { facetedge_id tail_fe,tail_fe_neg,head_fe,head_fe_neg;

	push	ebp
	mov	ebp, esp
	sub	esp, 120				; 00000078H
	mov	eax, DWORD PTR ___security_cookie
	xor	eax, ebp
	mov	DWORD PTR __$ArrayPad$[ebp], eax
	mov	eax, DWORD PTR _tailv$[ebp]

; 1284 :   edge_id start_e,e_id,new_e;
; 1285 :   facetedge_id fe,start_fe;
; 1286 :   facet_id new_f;
; 1287 :   facet_id new_fe_old,new_fe_new;
; 1288 :   ATTR attr;
; 1289 :   int wrap;
; 1290 : 
; 1291 :   // find appropriate fe so cross_cut can be used.
; 1292 :   // tail
; 1293 :   start_e = get_vertex_edge(tailv);

	mov	edx, DWORD PTR _headv$[ebp]
	mov	ecx, DWORD PTR _old_f$[ebp]
	mov	DWORD PTR _tailv$GSCopy$[ebp], eax
	and	eax, 134217727				; 07ffffffH
	mov	DWORD PTR _headv$GSCopy$[ebp], edx
	mov	edx, DWORD PTR _web+12
	push	ebx

; 1294 :   e_id = start_e;
; 1295 :   tail_fe = NULLID;

	mov	ebx, DWORD PTR _web+460
	push	esi
	mov	DWORD PTR tv2432[ebp], eax
	mov	eax, DWORD PTR [edx+eax*4]
	mov	edx, DWORD PTR [eax+28]
	mov	esi, ecx
	push	edi

; 1434 :       set_facet_fe(new_f,new_fe_new);

	mov	DWORD PTR _old_f$GSCopy$[ebp], ecx
	mov	DWORD PTR _start_e$[ebp], edx
	mov	DWORD PTR _tail_fe$[ebp], 0
	or	esi, 134217728				; 08000000H
$LL84@facet_cros:

; 1296 :   do
; 1297 :   { fe = start_fe = get_edge_fe(e_id);

	mov	eax, DWORD PTR _web+124
	mov	ecx, edx
	and	ecx, 134217727				; 07ffffffH
	mov	edi, DWORD PTR [eax+ecx*4]
	test	edi, edi
	jne	SHORT $LN114@facet_cros
	xor	eax, eax
	jmp	SHORT $LN113@facet_cros
$LN114@facet_cros:
	mov	eax, DWORD PTR [edi+28]
	test	edx, 134217728				; 08000000H
	je	SHORT $LN113@facet_cros
	xor	eax, 134217728				; 08000000H
$LN113@facet_cros:
	mov	DWORD PTR _start_fe$[ebp], eax
	npad	4
$LL115@facet_cros:

; 1298 :     do
; 1299 :     { if ( equal_element(get_fe_facet(fe),old_f) )

	test	eax, 268435456				; 10000000H
	jne	SHORT $LN118@facet_cros
	mov	ecx, DWORD PTR _NULLFACET
	jmp	SHORT $LN117@facet_cros
$LN118@facet_cros:
	mov	ecx, eax
	and	ecx, 134217727				; 07ffffffH
	mov	ecx, DWORD PTR [ebx+ecx*4]
	mov	ecx, DWORD PTR [ecx+24]
	test	eax, 134217728				; 08000000H
	je	SHORT $LN117@facet_cros
	xor	ecx, 134217728				; 08000000H
$LN117@facet_cros:
	or	ecx, 134217728				; 08000000H
	cmp	ecx, esi
	je	SHORT $LN266@facet_cros

; 1301 :         break;
; 1302 :       }
; 1303 :       fe = get_next_facet(fe);

	test	eax, 134217728				; 08000000H
	je	SHORT $LN122@facet_cros
	and	eax, 134217727				; 07ffffffH
	mov	eax, DWORD PTR [ebx+eax*4]
	mov	eax, DWORD PTR [eax+36]
	xor	eax, 134217728				; 08000000H
	jmp	SHORT $LN80@facet_cros
$LN122@facet_cros:
	and	eax, 134217727				; 07ffffffH
	mov	ecx, DWORD PTR [ebx+eax*4]
	mov	eax, DWORD PTR [ecx+40]
$LN80@facet_cros:

; 1304 :     } while ( !equal_id(fe,start_fe));

	cmp	eax, DWORD PTR _start_fe$[ebp]
	jne	SHORT $LL115@facet_cros
	jmp	SHORT $LN79@facet_cros
$LN266@facet_cros:

; 1300 :       { tail_fe = fe;

	mov	DWORD PTR _tail_fe$[ebp], eax
$LN79@facet_cros:

; 1305 :     e_id = get_next_tail_edge(e_id);

	shr	edx, 27					; 0000001bH
	and	edx, 1

; 1306 :   } while ( (tail_fe == NULLID ) && !equal_id(e_id,start_e));

	cmp	DWORD PTR _tail_fe$[ebp], 0
	mov	edx, DWORD PTR [edi+edx*4+32]
	jne	SHORT $LN77@facet_cros
	cmp	edx, DWORD PTR _start_e$[ebp]
	jne	$LL84@facet_cros
$LN77@facet_cros:

; 1307 : 
; 1308 :   // head
; 1309 :   start_e = get_vertex_edge(headv);

	mov	eax, DWORD PTR _headv$GSCopy$[ebp]
	mov	edx, DWORD PTR _web+12
	and	eax, 134217727				; 07ffffffH
	mov	DWORD PTR tv2486[ebp], eax
	mov	eax, DWORD PTR [edx+eax*4]
	mov	edx, DWORD PTR [eax+28]
	mov	DWORD PTR _start_e$[ebp], edx

; 1310 :   e_id = start_e;
; 1311 :   head_fe = NULLID;

	mov	DWORD PTR _head_fe$[ebp], 0
	npad	4
$LL76@facet_cros:

; 1312 :   do
; 1313 :   { fe = start_fe = get_edge_fe(e_id);

	mov	eax, DWORD PTR _web+124
	mov	ecx, edx
	and	ecx, 134217727				; 07ffffffH
	mov	edi, DWORD PTR [eax+ecx*4]
	test	edi, edi
	jne	SHORT $LN128@facet_cros
	xor	eax, eax
	jmp	SHORT $LN127@facet_cros
$LN128@facet_cros:
	mov	eax, DWORD PTR [edi+28]
	test	edx, 134217728				; 08000000H
	je	SHORT $LN127@facet_cros
	xor	eax, 134217728				; 08000000H
$LN127@facet_cros:
	mov	DWORD PTR _start_fe$[ebp], eax
	npad	5
$LL129@facet_cros:

; 1314 :     do
; 1315 :     { if ( equal_element(get_fe_facet(fe),old_f) )

	test	eax, 268435456				; 10000000H
	jne	SHORT $LN132@facet_cros
	mov	ecx, DWORD PTR _NULLFACET
	jmp	SHORT $LN131@facet_cros
$LN132@facet_cros:
	mov	ecx, eax
	and	ecx, 134217727				; 07ffffffH
	mov	ecx, DWORD PTR [ebx+ecx*4]
	mov	ecx, DWORD PTR [ecx+24]
	test	eax, 134217728				; 08000000H
	je	SHORT $LN131@facet_cros
	xor	ecx, 134217728				; 08000000H
$LN131@facet_cros:
	or	ecx, 134217728				; 08000000H
	cmp	ecx, esi
	je	SHORT $LN267@facet_cros

; 1317 :         break;
; 1318 :       }
; 1319 :       fe = get_next_facet(fe);

	test	eax, 134217728				; 08000000H
	je	SHORT $LN136@facet_cros
	and	eax, 134217727				; 07ffffffH
	mov	eax, DWORD PTR [ebx+eax*4]
	mov	eax, DWORD PTR [eax+36]
	xor	eax, 134217728				; 08000000H
	jmp	SHORT $LN72@facet_cros
$LN136@facet_cros:
	and	eax, 134217727				; 07ffffffH
	mov	ecx, DWORD PTR [ebx+eax*4]
	mov	eax, DWORD PTR [ecx+40]
$LN72@facet_cros:

; 1320 :     } while ( !equal_id(fe,start_fe));

	cmp	eax, DWORD PTR _start_fe$[ebp]
	jne	SHORT $LL129@facet_cros
	jmp	SHORT $LN71@facet_cros
$LN267@facet_cros:

; 1316 :       { head_fe = fe;

	mov	DWORD PTR _head_fe$[ebp], eax
$LN71@facet_cros:

; 1321 :     e_id = get_next_tail_edge(e_id);

	shr	edx, 27					; 0000001bH
	and	edx, 1

; 1322 :   } while ( (head_fe == NULLID ) && !equal_id(e_id,start_e));

	cmp	DWORD PTR _head_fe$[ebp], 0
	mov	edx, DWORD PTR [edi+edx*4+32]
	jne	SHORT $LN69@facet_cros
	cmp	edx, DWORD PTR _start_e$[ebp]
	jne	$LL76@facet_cros
$LN69@facet_cros:

; 1323 : 
; 1324 :   // see what we found
; 1325 :   if ( (tail_fe == NULLID) && (head_fe == NULLID) )

	mov	esi, DWORD PTR _tail_fe$[ebp]
	test	esi, esi
	jne	$LN284@facet_cros
	cmp	DWORD PTR _head_fe$[ebp], esi
	jne	$LN284@facet_cros

; 1326 :   { sprintf(errmsg,"facet_crosscut: vertices %s,%s not on facet %s\n",
; 1327 :        ELNAME(tailv),ELNAME2(headv),ELNAME3(old_f));

	test	DWORD PTR _old_f$GSCopy$[ebp], 268435456 ; 10000000H
	je	SHORT $LN87@facet_cros
	mov	edx, DWORD PTR _old_f$GSCopy$[ebp]
	and	edx, 134217727				; 07ffffffH
	inc	edx
	push	edx
	push	OFFSET ??_C@_02DPKJAMEF@?$CFd?$AA@
	push	OFFSET _elnames+90
	call	_sprintf
	add	esp, 12					; 0000000cH
	mov	edi, OFFSET _elnames+90
	jmp	SHORT $LN88@facet_cros
$LN87@facet_cros:
	mov	edi, OFFSET ??_C@_00CNPNBAHC@?$AA@
$LN88@facet_cros:
	test	DWORD PTR _headv$GSCopy$[ebp], 268435456 ; 10000000H
	je	SHORT $LN89@facet_cros
	mov	eax, DWORD PTR tv2486[ebp]
	inc	eax
	push	eax
	push	OFFSET ??_C@_02DPKJAMEF@?$CFd?$AA@
	push	OFFSET _elnames+60
	call	_sprintf
	add	esp, 12					; 0000000cH
	mov	ebx, OFFSET _elnames+60
	jmp	SHORT $LN90@facet_cros
$LN89@facet_cros:
	mov	ebx, OFFSET ??_C@_00CNPNBAHC@?$AA@
$LN90@facet_cros:
	test	DWORD PTR _tailv$GSCopy$[ebp], 268435456 ; 10000000H
	je	SHORT $LN91@facet_cros
	mov	ecx, DWORD PTR tv2432[ebp]
	inc	ecx
	push	ecx
	push	OFFSET ??_C@_02DPKJAMEF@?$CFd?$AA@
	push	OFFSET _elnames
	call	_sprintf
	add	esp, 12					; 0000000cH
	mov	eax, OFFSET _elnames
	jmp	SHORT $LN92@facet_cros
$LN91@facet_cros:
	mov	eax, OFFSET ??_C@_00CNPNBAHC@?$AA@
$LN92@facet_cros:
	push	edi
	push	ebx
	push	eax
	push	OFFSET ??_C@_0DA@IDMKIDAH@facet_crosscut?3?5vertices?5?$CFs?0?$CFs?5n@
	push	OFFSET _errmsg
	call	_sprintf

; 1328 :     kb_error(5678,errmsg,RECOVERABLE);

	push	1
	push	OFFSET _errmsg
	push	5678					; 0000162eH
	call	_kb_error
	mov	ebx, DWORD PTR _web+460
	add	esp, 32					; 00000020H
$LN284@facet_cros:

; 1329 :   }
; 1330 :   if ( valid_id(tail_fe) )

	test	esi, 268435456				; 10000000H
	je	SHORT $LN67@facet_cros

; 1331 :   { facet_id tailfpos = get_fe_facet(tail_fe);

	mov	edx, esi
	and	edx, 134217727				; 07ffffffH
	mov	ecx, DWORD PTR [ebx+edx*4]
	mov	edx, DWORD PTR [ecx+24]
	mov	eax, esi
	shr	eax, 27					; 0000001bH
	and	eax, 1
	je	SHORT $LN285@facet_cros
	xor	edx, 134217728				; 08000000H
$LN285@facet_cros:

; 1332 :     tail_fe_neg = get_prev_edge(tail_fe);
; 1333 :     if ( inverted(tailfpos) )

	test	edx, 134217728				; 08000000H
	je	SHORT $LN66@facet_cros

; 1334 :     { tail_fe_neg = inverse_id(tail_fe);

	xor	esi, 134217728				; 08000000H
	mov	eax, esi
	mov	DWORD PTR _tail_fe_neg$[ebp], eax

; 1335 :       tail_fe = get_next_edge(tail_fe_neg);

	test	eax, 134217728				; 08000000H
	je	SHORT $LN150@facet_cros
	and	eax, 134217727				; 07ffffffH
	mov	eax, DWORD PTR [ebx+eax*4]
	mov	eax, DWORD PTR [eax+28]
	xor	eax, 134217728				; 08000000H
	mov	DWORD PTR _tail_fe$[ebp], eax
	jmp	SHORT $LN64@facet_cros
$LN150@facet_cros:
	and	eax, 134217727				; 07ffffffH
	mov	ecx, DWORD PTR [ebx+eax*4]
	mov	edx, DWORD PTR [ecx+32]
	mov	DWORD PTR _tail_fe$[ebp], edx

; 1336 :     }
; 1337 :     else

	jmp	SHORT $LN64@facet_cros
$LN66@facet_cros:

; 1338 :       tail_fe_neg = get_prev_edge(tail_fe);

	test	eax, eax
	je	SHORT $LN154@facet_cros
	mov	ecx, DWORD PTR [ecx+32]
	xor	ecx, 134217728				; 08000000H
	mov	DWORD PTR _tail_fe_neg$[ebp], ecx
	jmp	SHORT $LN64@facet_cros
$LN154@facet_cros:
	mov	eax, DWORD PTR [ecx+28]
	mov	DWORD PTR _tail_fe_neg$[ebp], eax

; 1339 :   }
; 1340 :   else

	jmp	SHORT $LN64@facet_cros
$LN67@facet_cros:

; 1341 :   { tail_fe_neg = NULLID;

	mov	DWORD PTR _tail_fe_neg$[ebp], 0
$LN64@facet_cros:

; 1342 :   }
; 1343 :   if ( valid_id(head_fe) )

	mov	eax, DWORD PTR _head_fe$[ebp]
	test	eax, 268435456				; 10000000H
	je	SHORT $LN63@facet_cros

; 1344 :   { facet_id headfpos = get_fe_facet(head_fe);

	mov	ecx, eax
	and	ecx, 134217727				; 07ffffffH
	mov	ecx, DWORD PTR [ebx+ecx*4]
	mov	edx, DWORD PTR [ecx+24]
	shr	eax, 27					; 0000001bH
	and	eax, 1
	je	SHORT $LN289@facet_cros
	xor	edx, 134217728				; 08000000H
$LN289@facet_cros:

; 1345 :     head_fe_neg = get_prev_edge(head_fe);
; 1346 :     if ( inverted(headfpos) )

	test	edx, 134217728				; 08000000H
	je	SHORT $LN62@facet_cros

; 1347 :     { head_fe_neg = inverse_id(head_fe);

	mov	edi, DWORD PTR _head_fe$[ebp]
	xor	edi, 134217728				; 08000000H
	mov	DWORD PTR _head_fe_neg$[ebp], edi

; 1348 :       head_fe = get_next_edge(head_fe_neg);

	test	edi, 134217728				; 08000000H
	je	SHORT $LN166@facet_cros
	mov	edx, edi
	and	edx, 134217727				; 07ffffffH
	mov	eax, DWORD PTR [ebx+edx*4]
	mov	eax, DWORD PTR [eax+28]
	xor	eax, 134217728				; 08000000H
	mov	DWORD PTR _head_fe$[ebp], eax
	jmp	SHORT $LN60@facet_cros
$LN166@facet_cros:
	mov	ecx, edi
	and	ecx, 134217727				; 07ffffffH
	mov	edx, DWORD PTR [ebx+ecx*4]
	mov	eax, DWORD PTR [edx+32]
	mov	DWORD PTR _head_fe$[ebp], eax

; 1349 :     }
; 1350 :     else

	jmp	SHORT $LN60@facet_cros
$LN62@facet_cros:

; 1351 :       head_fe_neg = get_prev_edge(head_fe);

	test	eax, eax
	je	SHORT $LN170@facet_cros
	mov	edi, DWORD PTR [ecx+32]
	xor	edi, 134217728				; 08000000H
	jmp	SHORT $LN294@facet_cros
$LN170@facet_cros:
	mov	edi, DWORD PTR [ecx+28]

; 1352 :   }
; 1353 :   else

	jmp	SHORT $LN294@facet_cros
$LN63@facet_cros:

; 1354 :   { head_fe_neg = NULLID;

	xor	edi, edi
$LN294@facet_cros:
	mov	DWORD PTR _head_fe_neg$[ebp], edi
$LN60@facet_cros:

; 1355 :   }
; 1356 : 
; 1357 :   // stuff modified from cross_cut()
; 1358 :   attr = get_fattr(old_f);

	mov	ecx, DWORD PTR _old_f$GSCopy$[ebp]
	mov	edx, DWORD PTR _web+236
	mov	eax, ecx
	and	eax, 134217727				; 07ffffffH
	add	eax, eax
	add	eax, eax

; 1359 :   new_e = new_edge(tailv,headv,old_f);

	push	ecx
	mov	ecx, DWORD PTR _headv$GSCopy$[ebp]
	mov	DWORD PTR tv2600[ebp], eax
	mov	eax, DWORD PTR [eax+edx]
	mov	ebx, DWORD PTR [eax+8]
	mov	edx, DWORD PTR _tailv$GSCopy$[ebp]
	mov	eax, DWORD PTR [eax+12]
	push	ecx
	push	edx
	mov	DWORD PTR _attr$[ebp], ebx
	mov	DWORD PTR _attr$[ebp+4], eax
	call	_new_edge
	mov	esi, eax

; 1360 :   if ( attr & FIXED )

	mov	eax, ebx
	and	eax, 64					; 00000040H
	xor	ecx, ecx
	add	esp, 12					; 0000000cH
	or	eax, ecx
	mov	DWORD PTR _new_e$[ebp], esi
	je	$LN281@facet_cros

; 1361 :   { set_attr(new_e,FIXED);

	mov	ecx, esi
	shr	ecx, 29					; 0000001dH
	imul	ecx, 112				; 00000070H
	mov	edx, DWORD PTR _web[ecx+12]
	mov	eax, esi
	and	eax, 134217727				; 07ffffffH
	add	eax, eax
	add	eax, eax
	mov	ecx, DWORD PTR [edx+eax]
	mov	edx, DWORD PTR [ecx+12]
	or	DWORD PTR [ecx+8], 64			; 00000040H
	mov	DWORD PTR [ecx+12], edx

; 1362 :     if ( web.modeltype == QUADRATIC )

	mov	ecx, DWORD PTR _web+628
	cmp	ecx, 2
	jne	SHORT $LN58@facet_cros

; 1363 :         set_attr(get_edge_midv(new_e),FIXED);

	mov	ecx, DWORD PTR _web+124
	mov	edx, DWORD PTR [eax+ecx]
	mov	ecx, DWORD PTR _dymem
	mov	eax, DWORD PTR _web+216
	mov	eax, DWORD PTR [eax+ecx+304]
	mov	eax, DWORD PTR [edx+eax+8]
	mov	ecx, eax
	shr	ecx, 29					; 0000001dH
	imul	ecx, 112				; 00000070H
	mov	edx, DWORD PTR _web[ecx+12]
	and	eax, 134217727				; 07ffffffH
	mov	eax, DWORD PTR [edx+eax*4]
	mov	ecx, DWORD PTR [eax+12]
	or	DWORD PTR [eax+8], 64			; 00000040H
	mov	DWORD PTR [eax+12], ecx
	jmp	SHORT $LN281@facet_cros
$LN58@facet_cros:

; 1364 :     else if ( web.modeltype == LAGRANGE )

	cmp	ecx, 3
	jne	SHORT $LN281@facet_cros

; 1365 :     { int i;
; 1366 :       vertex_id *v = get_edge_vertices(new_e);

	mov	edx, DWORD PTR _web+124
	mov	edx, DWORD PTR [eax+edx]
	mov	ecx, DWORD PTR _dymem
	mov	eax, DWORD PTR _web+216
	add	edx, DWORD PTR [eax+ecx+304]

; 1367 :       for ( i = 1 ; i < web.lagrange_order ; i++ )

	mov	ecx, 1
	cmp	DWORD PTR _web+632, ecx
	jle	SHORT $LN281@facet_cros
	npad	5
$LL55@facet_cros:

; 1368 :           set_attr(v[i],FIXED);

	mov	eax, DWORD PTR [edx+ecx*4]
	mov	edi, eax
	shr	edi, 29					; 0000001dH
	imul	edi, 112				; 00000070H
	mov	edi, DWORD PTR _web[edi+12]
	and	eax, 134217727				; 07ffffffH
	mov	eax, DWORD PTR [edi+eax*4]
	mov	edi, DWORD PTR [eax+12]
	or	DWORD PTR [eax+8], 64			; 00000040H
	inc	ecx
	mov	DWORD PTR [eax+12], edi
	cmp	ecx, DWORD PTR _web+632
	jl	SHORT $LL55@facet_cros

; 1367 :       for ( i = 1 ; i < web.lagrange_order ; i++ )

	mov	edi, DWORD PTR _head_fe_neg$[ebp]
$LN281@facet_cros:

; 1369 :     }
; 1370 :   }
; 1371 :   if ( attr & NO_REFINE ) set_attr(new_e,NO_REFINE);

	mov	eax, ebx
	and	eax, 16777216				; 01000000H
	xor	ecx, ecx
	xor	ebx, ebx
	or	eax, ecx
	je	SHORT $LN179@facet_cros
	mov	edx, esi
	shr	edx, 29					; 0000001dH
	imul	edx, 112				; 00000070H
	mov	ecx, DWORD PTR _web[edx+12]
	mov	eax, esi
	and	eax, 134217727				; 07ffffffH
	mov	eax, DWORD PTR [ecx+eax*4]
	mov	edx, DWORD PTR [eax+12]
	or	DWORD PTR [eax+8], 16777216		; 01000000H
	mov	DWORD PTR [eax+12], edx
$LN179@facet_cros:

; 1372 : 
; 1373 :   // see if we need a new facet
; 1374 :   if ( (valid_id(tail_fe) || valid_id(head_fe_neg))
; 1375 :     && (valid_id(head_fe) || valid_id(tail_fe_neg)) )

	mov	eax, DWORD PTR _tail_fe$[ebp]
	shr	eax, 28					; 0000001cH
	and	eax, 1
	mov	DWORD PTR tv2517[ebp], eax
	jne	SHORT $LN290@facet_cros
	test	edi, 268435456				; 10000000H
	je	SHORT $LN288@facet_cros
$LN290@facet_cros:
	mov	eax, DWORD PTR _head_fe$[ebp]
	shr	eax, 28					; 0000001cH
	and	eax, 1
	mov	DWORD PTR tv2559[ebp], eax
	jne	SHORT $LN49@facet_cros
	test	DWORD PTR _tail_fe_neg$[ebp], 268435456	; 10000000H
	jne	SHORT $LN49@facet_cros
$LN288@facet_cros:

; 1383 : 
; 1384 :   }
; 1385 :   else
; 1386 :   { new_f = NULLID;
; 1387 :     new_fe_new = NULLID;
; 1388 :     if ( !valid_id(head_fe) && !valid_id(tail_fe_neg) )

	mov	eax, DWORD PTR _head_fe$[ebp]
	shr	eax, 28					; 0000001cH
	and	eax, 1
	mov	DWORD PTR _new_f$[ebp], ebx
	mov	DWORD PTR tv2559[ebp], eax
	jne	SHORT $LN46@facet_cros
	test	DWORD PTR _tail_fe_neg$[ebp], 268435456	; 10000000H
	jne	SHORT $LN46@facet_cros

; 1389 :     { // reverse order of head and tail
; 1390 :       new_fe_old = new_facetedge(inverse_id(old_f),new_e);

	mov	eax, DWORD PTR _old_f$GSCopy$[ebp]
	xor	eax, 134217728				; 08000000H
	push	esi
	push	eax
	call	_new_facetedge
	mov	edi, eax

; 1391 :       set_edge_fe(new_e,new_fe_old);

	push	edi
	push	esi
	mov	DWORD PTR _new_fe_old$[ebp], edi
	call	_set_edge_fe
	add	esp, 16					; 00000010H

; 1392 :     }
; 1393 :     else

	jmp	$LN185@facet_cros
$LN46@facet_cros:

; 1394 :     { new_fe_old = new_facetedge(old_f,new_e);

	mov	ecx, DWORD PTR _old_f$GSCopy$[ebp]
	push	esi
	push	ecx
	call	_new_facetedge
	add	esp, 8
	mov	edi, eax
	mov	DWORD PTR _new_fe_old$[ebp], edi

; 1395 :       set_edge_fe(new_e,new_fe_old);

	test	esi, 134217728				; 08000000H
	je	SHORT $LN274@facet_cros
	xor	eax, 134217728				; 08000000H
$LN274@facet_cros:
	mov	edx, DWORD PTR _web+124
	and	esi, 134217727				; 07ffffffH
	mov	ecx, DWORD PTR [edx+esi*4]
	mov	DWORD PTR [ecx+28], eax
	jmp	SHORT $LN295@facet_cros
$LN49@facet_cros:

; 1376 :   { new_fe_old = new_facetedge(old_f,new_e); 

	mov	ebx, DWORD PTR _old_f$GSCopy$[ebp]
	push	esi
	push	ebx
	call	_new_facetedge
	mov	edi, eax

; 1377 :     new_f = dup_facet(old_f); /* copy facet data */

	push	ebx
	mov	DWORD PTR _new_fe_old$[ebp], edi
	call	_dup_facet

; 1378 :     new_fe_new = new_facetedge(new_f,inverse_id(new_e));

	mov	edx, esi
	xor	edx, 134217728				; 08000000H
	push	edx
	push	eax
	mov	DWORD PTR _new_f$[ebp], eax
	call	_new_facetedge
	add	esp, 20					; 00000014H

; 1379 : //    set_facet_body(new_f,get_facet_body(old_f));
; 1380 : //    set_facet_body(facet_inverse(new_f),get_facet_body(facet_inverse(old_f)));
; 1381 :     if ( phase_flag ) set_f_phase_density(new_f);

	cmp	DWORD PTR _phase_flag, 0
	mov	ebx, eax
	je	SHORT $LN48@facet_cros
	mov	eax, DWORD PTR _new_f$[ebp]
	push	eax
	call	_set_f_phase_density
	add	esp, 4
$LN48@facet_cros:

; 1382 :     set_edge_fe(new_e,new_fe_old);

	mov	eax, edi
	test	esi, 134217728				; 08000000H
	je	SHORT $LN181@facet_cros
	xor	eax, 134217728				; 08000000H
$LN181@facet_cros:
	mov	ecx, DWORD PTR _web+124
	and	esi, 134217727				; 07ffffffH
	mov	edx, DWORD PTR [ecx+esi*4]
	mov	DWORD PTR [edx+28], eax
$LN295@facet_cros:
	mov	eax, DWORD PTR _global_timestamp
	inc	eax
	mov	DWORD PTR _top_timestamp, eax
	mov	DWORD PTR _global_timestamp, eax

; 1395 :       set_edge_fe(new_e,new_fe_old);

$LN185@facet_cros:

; 1396 :     }
; 1397 :   }
; 1398 : 
; 1399 :   /* install new facet into its facet-edges */
; 1400 :   /* link up facet-edges */
; 1401 :   if ( valid_id(new_f) )

	mov	edx, 268435456				; 10000000H
	test	DWORD PTR _new_f$[ebp], edx
	je	$LN44@facet_cros

; 1402 :   {
; 1403 :     if ( valid_id(tail_fe_neg) )

	mov	ecx, DWORD PTR _tail_fe_neg$[ebp]
	test	ecx, edx
	je	SHORT $LN187@facet_cros

; 1404 :       set_next_edge(tail_fe_neg,new_fe_old);

	mov	edx, DWORD PTR _web+460
	test	ecx, 134217728				; 08000000H
	je	SHORT $LN188@facet_cros
	mov	eax, edi
	xor	eax, 134217728				; 08000000H
	and	ecx, 134217727				; 07ffffffH
	mov	ecx, DWORD PTR [edx+ecx*4]
	mov	DWORD PTR [ecx+28], eax
	jmp	SHORT $LN187@facet_cros
$LN188@facet_cros:
	and	ecx, 134217727				; 07ffffffH
	mov	eax, DWORD PTR [edx+ecx*4]
	mov	DWORD PTR [eax+32], edi
$LN187@facet_cros:

; 1405 :     set_prev_edge(new_fe_old,tail_fe_neg);

	mov	ecx, DWORD PTR _tail_fe_neg$[ebp]
	push	ecx
	push	edi
	call	_set_prev_edge

; 1406 :     if ( valid_id(head_fe) )
; 1407 :       set_prev_edge(head_fe,new_fe_old);

	mov	esi, DWORD PTR _head_fe$[ebp]
	add	esp, 8
	cmp	DWORD PTR tv2559[ebp], 0
	je	SHORT $LN42@facet_cros
	push	edi
	push	esi
	call	_set_prev_edge
	add	esp, 8
$LN42@facet_cros:

; 1408 :     set_next_edge(new_fe_old,head_fe);

	mov	eax, edi
	shr	eax, 28					; 0000001cH
	and	eax, 1
	mov	DWORD PTR tv2702[ebp], eax
	je	SHORT $LN276@facet_cros
	mov	eax, DWORD PTR _web+460
	mov	edx, edi
	test	edi, 134217728				; 08000000H
	je	SHORT $LN193@facet_cros
	xor	esi, 134217728				; 08000000H
	and	edx, 134217727				; 07ffffffH
	mov	ecx, DWORD PTR [eax+edx*4]
	mov	DWORD PTR [ecx+28], esi
	jmp	SHORT $LN276@facet_cros
$LN193@facet_cros:
	and	edx, 134217727				; 07ffffffH
	mov	ecx, DWORD PTR [eax+edx*4]
	mov	DWORD PTR [ecx+32], esi
$LN276@facet_cros:

; 1409 :     if ( valid_id(tail_fe) )

	cmp	DWORD PTR tv2517[ebp], 0

; 1410 :       set_prev_edge(tail_fe,new_fe_new);

	mov	esi, DWORD PTR _tail_fe$[ebp]
	je	SHORT $LN41@facet_cros
	push	ebx
	push	esi
	call	_set_prev_edge
	add	esp, 8
$LN41@facet_cros:

; 1411 :     set_next_edge(new_fe_new,tail_fe);

	mov	eax, ebx
	shr	eax, 28					; 0000001cH
	and	eax, 1
	mov	DWORD PTR tv2718[ebp], eax
	je	SHORT $LN291@facet_cros
	mov	eax, DWORD PTR _web+460
	mov	edx, ebx
	test	ebx, 134217728				; 08000000H
	je	SHORT $LN198@facet_cros
	xor	esi, 134217728				; 08000000H
	and	edx, 134217727				; 07ffffffH
	mov	ecx, DWORD PTR [eax+edx*4]
	mov	DWORD PTR [ecx+28], esi
	jmp	SHORT $LN291@facet_cros
$LN198@facet_cros:
	and	edx, 134217727				; 07ffffffH
	mov	ecx, DWORD PTR [eax+edx*4]
	mov	DWORD PTR [ecx+32], esi
$LN291@facet_cros:

; 1412 :     if ( valid_id(head_fe_neg) )

	mov	eax, DWORD PTR _head_fe_neg$[ebp]
	test	eax, 268435456				; 10000000H
	je	SHORT $LN202@facet_cros

; 1413 :       set_next_edge(head_fe_neg,new_fe_new);

	test	eax, 134217728				; 08000000H
	je	SHORT $LN203@facet_cros
	mov	esi, DWORD PTR _web+460
	mov	ecx, ebx
	xor	ecx, 134217728				; 08000000H
	mov	edx, eax
	and	edx, 134217727				; 07ffffffH
	mov	edx, DWORD PTR [esi+edx*4]
	mov	DWORD PTR [edx+28], ecx
	jmp	SHORT $LN202@facet_cros
$LN203@facet_cros:
	mov	edx, DWORD PTR _web+460
	mov	ecx, eax
	and	ecx, 134217727				; 07ffffffH
	mov	ecx, DWORD PTR [edx+ecx*4]
	mov	DWORD PTR [ecx+32], ebx
$LN202@facet_cros:

; 1414 :     set_prev_edge(new_fe_new,head_fe_neg);

	push	eax
	push	ebx
	call	_set_prev_edge

; 1415 :     set_next_facet(new_fe_new,fe_inverse(new_fe_old));

	mov	eax, edi
	add	esp, 8
	xor	eax, 134217728				; 08000000H
	cmp	DWORD PTR tv2718[ebp], 0
	je	SHORT $LN280@facet_cros
	test	ebx, 134217728				; 08000000H
	je	SHORT $LN208@facet_cros
	mov	esi, DWORD PTR _web+460
	mov	edx, eax
	xor	edx, 134217728				; 08000000H
	mov	ecx, ebx
	and	ecx, 134217727				; 07ffffffH
	mov	ecx, DWORD PTR [esi+ecx*4]
	mov	DWORD PTR [ecx+36], edx
	jmp	SHORT $LN280@facet_cros
$LN208@facet_cros:
	mov	ecx, DWORD PTR _web+460
	mov	edx, ebx
	and	edx, 134217727				; 07ffffffH
	mov	edx, DWORD PTR [ecx+edx*4]
	mov	DWORD PTR [edx+40], eax
$LN280@facet_cros:

; 1416 :     set_prev_facet(new_fe_new,fe_inverse(new_fe_old));

	push	eax
	push	ebx
	call	_set_prev_facet

; 1417 :     set_next_facet(new_fe_old,fe_inverse(new_fe_new));

	mov	eax, ebx
	add	esp, 8
	xor	eax, 134217728				; 08000000H
	cmp	DWORD PTR tv2702[ebp], 0
	je	SHORT $LN212@facet_cros
	test	edi, 134217728				; 08000000H
	je	SHORT $LN213@facet_cros
	mov	esi, DWORD PTR _web+460
	mov	ecx, eax
	xor	ecx, 134217728				; 08000000H
	mov	edx, edi
	and	edx, 134217727				; 07ffffffH
	mov	edx, DWORD PTR [esi+edx*4]
	mov	DWORD PTR [edx+36], ecx
	jmp	SHORT $LN212@facet_cros
$LN213@facet_cros:
	mov	edx, DWORD PTR _web+460
	mov	ecx, edi
	and	ecx, 134217727				; 07ffffffH
	mov	ecx, DWORD PTR [edx+ecx*4]
	mov	DWORD PTR [ecx+40], eax
$LN212@facet_cros:

; 1418 :     set_prev_facet(new_fe_old,fe_inverse(new_fe_new));

	push	eax
	push	edi
	call	_set_prev_facet
	add	esp, 8

; 1419 :     // fix up loop of facet edges on new facet
; 1420 :     fe = new_fe_new;

	mov	esi, ebx
$LL39@facet_cros:

; 1421 :     do
; 1422 :     { set_fe_facet(fe,new_f);

	mov	edx, DWORD PTR _new_f$[ebp]
	push	edx
	push	esi
	call	_set_fe_facet
	add	esp, 8

; 1423 :       fe = get_next_edge(fe);

	test	esi, 134217728				; 08000000H
	je	SHORT $LN218@facet_cros
	mov	eax, DWORD PTR _web+460
	and	esi, 134217727				; 07ffffffH
	mov	ecx, DWORD PTR [eax+esi*4]
	mov	esi, DWORD PTR [ecx+28]
	xor	esi, 134217728				; 08000000H
	jmp	SHORT $LN38@facet_cros
$LN218@facet_cros:
	mov	edx, DWORD PTR _web+460
	and	esi, 134217727				; 07ffffffH
	mov	eax, DWORD PTR [edx+esi*4]
	mov	esi, DWORD PTR [eax+32]
$LN38@facet_cros:

; 1424 :     } while ( valid_id(fe) && !equal_id(fe,new_fe_new));

	test	esi, 268435456				; 10000000H
	je	SHORT $LN297@facet_cros
	cmp	esi, ebx
	jne	SHORT $LL39@facet_cros

; 1425 :     if ( !valid_id(fe) )

	test	esi, 268435456				; 10000000H
	jne	SHORT $LN35@facet_cros
$LN297@facet_cros:

; 1426 :     { fe = new_fe_new;

	mov	esi, ebx
$LL34@facet_cros:

; 1427 :       do // go the other way
; 1428 :       { set_fe_facet(fe,new_f);

	mov	ecx, DWORD PTR _new_f$[ebp]
	push	ecx
	push	esi
	call	_set_fe_facet

; 1429 :         set_facet_fe(new_f,fe);

	mov	edx, DWORD PTR _new_f$[ebp]
	push	esi
	push	edx
	call	_set_facet_fe
	add	esp, 16					; 00000010H

; 1430 :         fe = get_prev_edge(fe);

	test	esi, 134217728				; 08000000H
	je	SHORT $LN222@facet_cros
	mov	eax, DWORD PTR _web+460
	and	esi, 134217727				; 07ffffffH
	mov	ecx, DWORD PTR [eax+esi*4]
	mov	esi, DWORD PTR [ecx+32]
	xor	esi, 134217728				; 08000000H
	jmp	SHORT $LN33@facet_cros
$LN222@facet_cros:
	mov	edx, DWORD PTR _web+460
	and	esi, 134217727				; 07ffffffH
	mov	eax, DWORD PTR [edx+esi*4]
	mov	esi, DWORD PTR [eax+28]
$LN33@facet_cros:

; 1431 :       } while ( valid_id(fe) && !equal_id(fe,new_fe_new));

	test	esi, 268435456				; 10000000H
	je	SHORT $LN30@facet_cros
	cmp	esi, ebx
	jne	SHORT $LL34@facet_cros

; 1432 :     }
; 1433 :     else

	jmp	SHORT $LN30@facet_cros
$LN35@facet_cros:

; 1434 :       set_facet_fe(new_f,new_fe_new);

	mov	ecx, DWORD PTR _new_f$[ebp]
	push	ebx
	push	ecx
	call	_set_facet_fe
	add	esp, 8
$LN30@facet_cros:

; 1435 :     set_facet_fe(old_f,new_fe_old);

	mov	esi, DWORD PTR _old_f$GSCopy$[ebp]
	push	edi
	push	esi
	call	_set_facet_fe

; 1436 :     set_facet_body(new_f,get_facet_body(old_f));

	push	esi
	call	_get_facet_body
	mov	ebx, DWORD PTR _new_f$[ebp]
	push	eax
	push	ebx
	call	_set_facet_body

; 1437 :     set_facet_body(facet_inverse(new_f),get_facet_body(facet_inverse(old_f)));

	xor	esi, 134217728				; 08000000H
	push	esi
	call	_get_facet_body
	push	eax
	xor	ebx, 134217728				; 08000000H
	push	ebx
	call	_set_facet_body
	add	esp, 32					; 00000020H

; 1438 :   }
; 1439 :   else // no new facet, just adding edge to old

	jmp	$LN29@facet_cros
$LN44@facet_cros:

; 1440 :   { if ( valid_id(tail_fe) || valid_id(head_fe_neg) )

	cmp	DWORD PTR tv2517[ebp], 0
	mov	eax, DWORD PTR _head_fe_neg$[ebp]
	jne	SHORT $LN27@facet_cros
	test	eax, edx
	jne	SHORT $LN299@facet_cros

; 1447 :     }
; 1448 :     else if ( valid_id(head_fe) || valid_id(tail_fe_neg) )

	cmp	DWORD PTR tv2559[ebp], 0
	jne	SHORT $LN301@facet_cros
	test	DWORD PTR _tail_fe_neg$[ebp], edx
	je	$LN25@facet_cros

; 1449 :     { if ( valid_id(head_fe) )

	cmp	DWORD PTR tv2559[ebp], 0
	je	SHORT $LN278@facet_cros
$LN301@facet_cros:

; 1450 :          set_prev_edge(head_fe,new_fe_old);

	mov	edx, DWORD PTR _head_fe$[ebp]
	push	edi
	push	edx
	call	_set_prev_edge
	add	esp, 8
$LN278@facet_cros:

; 1451 :       set_next_edge(new_fe_old,head_fe);

	mov	eax, DWORD PTR _head_fe$[ebp]
	push	eax
	push	edi
	call	_set_next_edge

; 1452 :       set_prev_edge(new_fe_old,tail_fe_neg);

	mov	esi, DWORD PTR _tail_fe_neg$[ebp]
	push	esi
	push	edi
	call	_set_prev_edge
	add	esp, 16					; 00000010H

; 1453 :       if ( valid_id(tail_fe_neg) )

	test	esi, 268435456				; 10000000H
	je	$LN25@facet_cros

; 1454 :         set_next_edge(tail_fe_neg,new_fe_old);

	mov	ecx, esi
	push	edi
	push	ecx
	call	_set_next_edge
	jmp	$LN302@facet_cros
$LN27@facet_cros:

; 1441 :     { if ( valid_id(head_fe_neg) )

	test	eax, edx
	je	SHORT $LN26@facet_cros
$LN299@facet_cros:

; 1442 :         set_next_edge(head_fe_neg,inverse_id(new_fe_old));

	mov	edx, DWORD PTR _head_fe_neg$[ebp]
	mov	eax, edi
	xor	eax, 134217728				; 08000000H
	push	eax
	push	edx
	call	_set_next_edge
	mov	eax, DWORD PTR _head_fe_neg$[ebp]
	add	esp, 8
$LN26@facet_cros:

; 1443 :       set_next_edge(new_fe_old,inverse_id(head_fe_neg));

	xor	eax, 134217728				; 08000000H
	test	edi, 268435456				; 10000000H
	je	SHORT $LN225@facet_cros
	test	edi, 134217728				; 08000000H
	je	SHORT $LN226@facet_cros
	mov	edx, DWORD PTR _web+460
	xor	eax, 134217728				; 08000000H
	mov	ecx, edi
	and	ecx, 134217727				; 07ffffffH
	mov	ecx, DWORD PTR [edx+ecx*4]
	mov	DWORD PTR [ecx+28], eax
	jmp	SHORT $LN225@facet_cros
$LN226@facet_cros:
	mov	ecx, DWORD PTR _web+460
	mov	edx, edi
	and	edx, 134217727				; 07ffffffH
	mov	edx, DWORD PTR [ecx+edx*4]
	mov	DWORD PTR [edx+32], eax
$LN225@facet_cros:

; 1444 :       set_prev_edge(new_fe_old,inverse_id(tail_fe));

	mov	esi, DWORD PTR _tail_fe$[ebp]
	mov	eax, esi
	xor	eax, 134217728				; 08000000H
	push	eax
	push	edi
	call	_set_prev_edge
	add	esp, 8

; 1445 :       if ( valid_id(tail_fe) )

	cmp	DWORD PTR tv2517[ebp], 0
	je	SHORT $LN25@facet_cros

; 1446 :         set_prev_edge(tail_fe,inverse_id(new_fe_old));

	mov	eax, edi
	xor	eax, 134217728				; 08000000H
	push	eax
	push	esi
	call	_set_prev_edge
$LN302@facet_cros:
	add	esp, 8
$LN25@facet_cros:

; 1455 :     }
; 1456 :     set_next_facet(new_fe_old,new_fe_old);

	test	edi, 268435456				; 10000000H
	je	SHORT $LN230@facet_cros
	test	edi, 134217728				; 08000000H
	je	SHORT $LN231@facet_cros
	mov	edx, DWORD PTR _web+460
	mov	eax, edi
	xor	eax, 134217728				; 08000000H
	mov	ecx, edi
	and	ecx, 134217727				; 07ffffffH
	mov	ecx, DWORD PTR [edx+ecx*4]
	mov	DWORD PTR [ecx+36], eax
	jmp	SHORT $LN230@facet_cros
$LN231@facet_cros:
	mov	eax, DWORD PTR _web+460
	mov	edx, edi
	and	edx, 134217727				; 07ffffffH
	mov	ecx, DWORD PTR [eax+edx*4]
	mov	DWORD PTR [ecx+40], edi
$LN230@facet_cros:

; 1457 :     set_prev_facet(new_fe_old,new_fe_old);

	push	edi
	push	edi
	call	_set_prev_facet
	add	esp, 8
$LN29@facet_cros:

; 1458 :   }
; 1459 : 
; 1460 :   if ( everything_quantities_flag )

	cmp	DWORD PTR _everything_quantities_flag, 0
	je	SHORT $LN19@facet_cros

; 1461 :      check_edge_vol_methods(new_e);

	mov	edx, DWORD PTR _new_e$[ebp]
	push	edx
	call	_check_edge_vol_methods
	add	esp, 4
$LN19@facet_cros:

; 1462 : 
; 1463 :   /* and set torus wrap flags if needed */
; 1464 :   if ( web.symmetry_flag )

	cmp	DWORD PTR _web+856, 0
	je	$LN15@facet_cros

; 1465 :   { fe = new_fe_old;
; 1466 :     wrap = 0;

	mov	eax, DWORD PTR _web+460
	mov	DWORD PTR _wrap$[ebp], 0
	npad	6
$LL17@facet_cros:

; 1467 :     do
; 1468 :     {
; 1469 :        wrap = (*sym_compose)(wrap,get_fe_wrap(fe));

	mov	ebx, DWORD PTR _dymem
	mov	esi, edi
	and	esi, 134217727				; 07ffffffH
	add	esi, esi
	add	esi, esi
	mov	ecx, DWORD PTR [esi+eax]
	mov	eax, edi
	and	eax, 134217728				; 08000000H
	xor	eax, DWORD PTR [ecx+20]
	mov	ecx, DWORD PTR _web+124
	mov	edx, eax
	and	edx, 134217727				; 07ffffffH
	mov	edx, DWORD PTR [ecx+edx*4]
	mov	ecx, DWORD PTR _web+216
	mov	ecx, DWORD PTR [ecx+ebx+784]
	mov	ecx, DWORD PTR [edx+ecx]
	test	eax, 134217728				; 08000000H
	je	SHORT $LN239@facet_cros
	push	ecx
	call	DWORD PTR _sym_inverse
	add	esp, 4
	jmp	SHORT $LN240@facet_cros
$LN239@facet_cros:
	mov	eax, ecx
$LN240@facet_cros:
	mov	edx, DWORD PTR _wrap$[ebp]
	push	eax
	push	edx
	call	DWORD PTR _sym_compose
	add	esp, 8
	mov	DWORD PTR _wrap$[ebp], eax

; 1470 :        fe = get_next_edge(fe);

	mov	eax, DWORD PTR _web+460
	test	edi, 134217728				; 08000000H
	je	SHORT $LN242@facet_cros
	mov	ecx, DWORD PTR [esi+eax]
	mov	edi, DWORD PTR [ecx+28]
	xor	edi, 134217728				; 08000000H
	jmp	SHORT $LN16@facet_cros
$LN242@facet_cros:
	mov	edx, DWORD PTR [esi+eax]
	mov	edi, DWORD PTR [edx+32]
$LN16@facet_cros:

; 1471 :     } while ( valid_id(fe) && !equal_id(fe,new_fe_old) );

	test	edi, 268435456				; 10000000H
	je	SHORT $LN15@facet_cros
	cmp	edi, DWORD PTR _new_fe_old$[ebp]
	jne	$LL17@facet_cros
$LN15@facet_cros:

; 1472 :   }
; 1473 :   if ( wrap )

	cmp	DWORD PTR _wrap$[ebp], 0
	je	$LN9@facet_cros

; 1474 :   { set_edge_wrap(new_e,(*sym_inverse)(wrap));

	mov	eax, DWORD PTR _wrap$[ebp]
	push	eax
	call	DWORD PTR _sym_inverse
	mov	esi, DWORD PTR _new_e$[ebp]
	add	esp, 4
	test	esi, 134217728				; 08000000H
	je	SHORT $LN247@facet_cros
	push	eax
	call	DWORD PTR _sym_inverse
	add	esp, 4
$LN247@facet_cros:
	mov	ecx, DWORD PTR _web+124
	mov	edi, DWORD PTR _dymem
	mov	edx, esi
	mov	esi, DWORD PTR _web+216
	mov	esi, DWORD PTR [esi+edi+784]
	and	edx, 134217727				; 07ffffffH
	add	edx, edx
	add	edx, edx
	mov	ecx, DWORD PTR [edx+ecx]
	mov	DWORD PTR [ecx+esi], eax

; 1475 :     if ( web.modeltype == QUADRATIC )

	cmp	DWORD PTR _web+628, 2
	jne	$LN9@facet_cros

; 1476 :     { /* have to adjust coordinates of midpoint */
; 1477 :       REAL temp[MAXCOORD];
; 1478 :       REAL *mv,*tv,*hv;
; 1479 :       int k;
; 1480 :       tv = get_coord(tailv);
; 1481 :       mv = get_coord(get_edge_midv(new_e));

	mov	ebx, DWORD PTR _web+124
	mov	edx, DWORD PTR [edx+ebx]
	mov	esi, DWORD PTR _dymem
	mov	eax, DWORD PTR _web+104
	mov	eax, DWORD PTR [eax+esi+64]
	mov	ebx, DWORD PTR _web+216
	mov	esi, DWORD PTR [ebx+esi+304]
	mov	edx, DWORD PTR [edx+esi+8]
	mov	ecx, DWORD PTR _web+12
	mov	edi, DWORD PTR tv2432[ebp]
	mov	edi, DWORD PTR [ecx+edi*4]
	and	edx, 134217727				; 07ffffffH
	mov	ebx, DWORD PTR [ecx+edx*4]

; 1482 :       hv = get_coord(headv);

	mov	edx, DWORD PTR tv2486[ebp]
	mov	esi, DWORD PTR [ecx+edx*4]
	add	edi, eax
	add	ebx, eax
	add	esi, eax

; 1483 :       (*sym_wrap)(hv,temp,(*sym_inverse)(wrap));

	mov	eax, DWORD PTR _wrap$[ebp]
	push	eax
	call	DWORD PTR _sym_inverse
	push	eax
	lea	ecx, DWORD PTR _temp$90274[ebp]
	push	ecx
	push	esi
	call	DWORD PTR _sym_wrap

; 1484 :       for ( k = 0 ; k < SDIM ; k++ )

	xor	eax, eax
	add	esp, 16					; 00000010H
	cmp	DWORD PTR _web+616, eax
	jle	SHORT $LN9@facet_cros
	fld	QWORD PTR __real@3fe0000000000000
	lea	edx, DWORD PTR _temp$90274[ebp]
	mov	ecx, edx
	sub	edi, edx
	sub	ebx, ecx
$LN11@facet_cros:
	lea	edx, DWORD PTR [edi+eax*8]

; 1485 :         mv[k] = (tv[k] + temp[k])/2;

	fld	QWORD PTR _temp$90274[ebp+edx]
	lea	ecx, DWORD PTR [ebx+eax*8]
	fadd	QWORD PTR _temp$90274[ebp+eax*8]
	inc	eax
	fmul	ST(0), ST(1)
	fstp	QWORD PTR _temp$90274[ebp+ecx]
	cmp	eax, DWORD PTR _web+616
	jl	SHORT $LN11@facet_cros

; 1484 :       for ( k = 0 ; k < SDIM ; k++ )

	fstp	ST(0)
$LN9@facet_cros:

; 1486 :     }
; 1487 :   }
; 1488 : 
; 1489 :   if ( attr & BOUNDARY )

	mov	eax, DWORD PTR _attr$[ebp]
	mov	esi, 128				; 00000080H
	and	eax, esi
	xor	ecx, ecx
	or	eax, ecx
	je	$LN3@facet_cros

; 1490 :   { struct boundary *bdry = get_facet_boundary(old_f);

	mov	eax, DWORD PTR _F_BOUNDARY_ATTR
	test	eax, eax
	je	SHORT $LN93@facet_cros
	mov	edx, DWORD PTR _dymem
	imul	eax, 240				; 000000f0H
	add	eax, DWORD PTR _web+328
	mov	ecx, DWORD PTR _web+236
	mov	eax, DWORD PTR [eax+edx+64]
	mov	edx, DWORD PTR tv2600[ebp]
	mov	ecx, DWORD PTR [edx+ecx]
	mov	edx, DWORD PTR [eax+ecx]
	imul	edx, 136				; 00000088H
	add	edx, DWORD PTR _web+776
	jmp	SHORT $LN303@facet_cros
$LN93@facet_cros:
	xor	edx, edx
$LN303@facet_cros:

; 1491 :     REAL *paramb,*parammid;
; 1492 :     REAL *mu,*mv;
; 1493 : 
; 1494 :     set_attr(new_e,BOUNDARY);

	mov	eax, DWORD PTR _new_e$[ebp]
	mov	ecx, eax
	shr	eax, 29					; 0000001dH
	imul	eax, 112				; 00000070H
	mov	eax, DWORD PTR _web[eax+12]
	and	ecx, 134217727				; 07ffffffH
	mov	eax, DWORD PTR [eax+ecx*4]
	mov	edi, DWORD PTR [eax+12]
	or	DWORD PTR [eax+8], esi
	mov	DWORD PTR [eax+12], edi

; 1495 :     set_edge_boundary_num(new_e,bdry->num);

	mov	eax, DWORD PTR _E_BOUNDARY_ATTR
	mov	DWORD PTR _bdry$90300[ebp], edx
	mov	DWORD PTR tv2612[ebp], ecx
	test	eax, eax
	je	SHORT $LN95@facet_cros
	mov	edi, DWORD PTR _dymem
	imul	eax, 240				; 000000f0H
	add	eax, DWORD PTR _web+216
	mov	ebx, DWORD PTR [edx+44]
	mov	eax, DWORD PTR [eax+edi+64]
	mov	edi, DWORD PTR _web+124
	mov	edi, DWORD PTR [edi+ecx*4]
	mov	DWORD PTR [eax+edi], ebx
$LN95@facet_cros:

; 1496 :     if ( web.modeltype == QUADRATIC )

	cmp	DWORD PTR _web+628, 2
	jne	$LN3@facet_cros

; 1497 :     { vertex_id divider = get_edge_midv(new_e); 

