; Listing generated by Microsoft (R) Optimizing Compiler Version 16.00.40219.01 

	TITLE	C:\levolver\yonkang-sefit\levolver\ev_ogl\PAINTER.C
	.686P
	.XMM
	include listing.inc
	.model	flat

INCLUDELIB LIBCMT
INCLUDELIB OLDNAMES

PUBLIC	_debug_k
PUBLIC	_maxquaddepth
PUBLIC	_veps
PUBLIC	_vis_va
PUBLIC	_vis_vb
PUBLIC	_debug_seq
PUBLIC	_vis_eps
_DATA	SEGMENT
COMM	_swaps:QWORD
COMM	_loopbailouts:QWORD
COMM	_check_list_count:DWORD
COMM	_vis_conedge_max:DWORD
COMM	_vis_heap_count:DWORD
COMM	_sentinelv:BYTE:080H
COMM	_sep_line_calls:QWORD
COMM	_vis_crossing_count:DWORD
COMM	_tlist:DWORD
COMM	_vertex_event_spot:DWORD
COMM	_trilist:DWORD
COMM	_vis_conedges:DWORD
COMM	_vecount:DWORD
COMM	_vis_list:DWORD
COMM	_crossings:QWORD
COMM	_visdebuglevel:DWORD
COMM	_edgeedge:QWORD
COMM	_vis_count:DWORD
COMM	_facetedge:QWORD
COMM	_wrong_middles:DWORD
COMM	_check_list_max:DWORD
COMM	_vis_heap_max:DWORD
COMM	_sep_plane_calls:QWORD
COMM	_vis_vertices:DWORD
COMM	_active_edge_first:DWORD
COMM	_vis_heap:DWORD
COMM	_vis_max:DWORD
COMM	_sweep_u:QWORD
COMM	_in_back_calls:QWORD
COMM	_box_overlaps:QWORD
COMM	_vis_conedge_count:DWORD
COMM	_qtree:DWORD
COMM	_vis_vertex_count:DWORD
COMM	_done:QWORD
COMM	_vis_rawedges:DWORD
COMM	_tableau:QWORD:015H
COMM	_facetfacet:QWORD
COMM	_backstamp:DWORD
COMM	_vis_vertex_max:DWORD
COMM	_check_list:DWORD
COMM	_rawplist:DWORD
COMM	_sentinel:BYTE:048H
_DATA	ENDS
_BSS	SEGMENT
_debug_seq DD	01H DUP (?)
?this_seq@?1??handle_vertex_event@@9@9 DD 01H DUP (?)	; `handle_vertex_event'::`2'::this_seq
_BSS	ENDS
_DATA	SEGMENT
_gdim	DD	03H
_debug_k DD	07fffffffH
_sweep_low DQ	0c024000000000000r		; -10
_sweep_high DQ	04024000000000000r		; 10
_maxquaddepth DD 08H
	ORG $+4
_veps	DQ	03d06849b86a12b9br		; 1e-014
_vis_va	DQ	03fefff972474538fr		; 0.99995
_vis_vb	DQ	03f847ae147ae147br		; 0.01
_vis_eps DQ	03d3c25c268497682r		; 1e-013
_DATA	ENDS
PUBLIC	_get_fe_edge
EXTRN	_web:BYTE
; Function compile flags: /Ogtp
; File c:\levolver\yonkang-sefit\levolver\ev_ogl\inline.h
;	COMDAT _get_fe_edge
_TEXT	SEGMENT
_fe_id$ = 8						; size = 4
_get_fe_edge PROC					; COMDAT

; 43   : {

	push	ebp
	mov	ebp, esp

; 44   :   edge_id e_id;
; 45   :     
; 46   :   e_id = feptr(fe_id)->fe_edge_id;

	mov	eax, DWORD PTR _fe_id$[ebp]

; 47   : 
; 48   :   /*
; 49   :   if ( inverted(fe_id) ) invert(e_id);
; 50   :   return e_id;
; 51   :   */
; 52   :   
; 53   :   return same_sign(e_id,fe_id);

	mov	edx, DWORD PTR _web+460
	mov	ecx, eax
	and	ecx, 134217727				; 07ffffffH
	mov	ecx, DWORD PTR [edx+ecx*4]
	and	eax, 134217728				; 08000000H
	xor	eax, DWORD PTR [ecx+20]

; 54   : }

	pop	ebp
	ret	0
_get_fe_edge ENDP
_TEXT	ENDS
PUBLIC	_get_next_edge
; Function compile flags: /Ogtp
;	COMDAT _get_next_edge
_TEXT	SEGMENT
_fe_id$ = 8						; size = 4
_get_next_edge PROC					; COMDAT

; 76   : {

	push	ebp
	mov	ebp, esp

; 77   :   if ( inverted(fe_id) ) return inverse_id(feptr(fe_id)->nextedge[0]);

	mov	eax, DWORD PTR _fe_id$[ebp]
	mov	ecx, DWORD PTR _web+460
	test	eax, 134217728				; 08000000H
	je	SHORT $LN2@get_next_e
	and	eax, 134217727				; 07ffffffH
	mov	edx, DWORD PTR [ecx+eax*4]
	mov	eax, DWORD PTR [edx+28]
	xor	eax, 134217728				; 08000000H

; 79   : }

	pop	ebp
	ret	0
$LN2@get_next_e:

; 78   :   else return feptr(fe_id)->nextedge[1];

	and	eax, 134217727				; 07ffffffH
	mov	edx, DWORD PTR [ecx+eax*4]
	mov	eax, DWORD PTR [edx+32]

; 79   : }

	pop	ebp
	ret	0
_get_next_edge ENDP
_TEXT	ENDS
PUBLIC	_get_facet_fe
; Function compile flags: /Ogtp
;	COMDAT _get_facet_fe
_TEXT	SEGMENT
_f_id$ = 8						; size = 4
_get_facet_fe PROC					; COMDAT

; 260  : {

	push	ebp
	mov	ebp, esp

; 261  :   facetedge_id fe;
; 262  :   
; 263  :   if ( !valid_id(f_id) ) return NULLID;

	mov	ecx, DWORD PTR _f_id$[ebp]
	test	ecx, 268435456				; 10000000H
	jne	SHORT $LN2@get_facet_
	xor	eax, eax

; 266  :   return fe;
; 267  : }

	pop	ebp
	ret	0
$LN2@get_facet_:

; 264  :   fe = fptr(f_id)->fe_id;

	mov	edx, DWORD PTR _web+236
	mov	eax, ecx
	and	eax, 134217727				; 07ffffffH
	mov	eax, DWORD PTR [edx+eax*4]
	mov	eax, DWORD PTR [eax+28]

; 265  :   if ( inverted(f_id) ) invert(fe);

	test	ecx, 134217728				; 08000000H
	je	SHORT $LN3@get_facet_
	xor	eax, 134217728				; 08000000H
$LN3@get_facet_:

; 266  :   return fe;
; 267  : }

	pop	ebp
	ret	0
_get_facet_fe ENDP
_TEXT	ENDS
EXTRN	__fltused:DWORD
; Function compile flags: /Ogtp
; File c:\levolver\yonkang-sefit\levolver\ev_ogl\painter.c
;	COMDAT _ttcompare
_TEXT	SEGMENT
_t1$ = 8						; size = 4
_t2$ = 12						; size = 4
_ttcompare PROC						; COMDAT

; 89   : {

	push	ebp
	mov	ebp, esp

; 90   :   /* First, compare back z */
; 91   :   if ( t1[0]->mins[2] > t2[0]->mins[2] ) return 1;

	mov	eax, DWORD PTR _t1$[ebp]
	mov	ecx, DWORD PTR [eax]
	mov	edx, DWORD PTR _t2$[ebp]
	fld	DWORD PTR [ecx+88]
	mov	edx, DWORD PTR [edx]
	fld	DWORD PTR [edx+88]
	fcompp
	fnstsw	ax
	test	ah, 5
	jp	SHORT $LN6@ttcompare
$LN10@ttcompare:
	mov	eax, 1

; 100  :   return 0;
; 101  : 
; 102  : } // end ttcompare()

	pop	ebp
	ret	0
$LN6@ttcompare:

; 92   :   if ( t1[0]->mins[2] < t2[0]->mins[2] ) return -1;

	fld	DWORD PTR [ecx+88]
	fld	DWORD PTR [edx+88]
	fcompp
	fnstsw	ax
	test	ah, 65					; 00000041H
	jne	SHORT $LN5@ttcompare
$LN11@ttcompare:
	or	eax, -1

; 100  :   return 0;
; 101  : 
; 102  : } // end ttcompare()

	pop	ebp
	ret	0
$LN5@ttcompare:

; 93   :   /* Break ties with front z */
; 94   :   if ( t1[0]->maxs[2] > t2[0]->maxs[2] ) return 1;

	fld	DWORD PTR [ecx+100]
	fld	DWORD PTR [edx+100]
	fcompp
	fnstsw	ax
	test	ah, 5
	jnp	SHORT $LN10@ttcompare

; 95   :   if ( t1[0]->maxs[2] < t2[0]->maxs[2] ) return -1;

	fld	DWORD PTR [ecx+100]
	fld	DWORD PTR [edx+100]
	fcompp
	fnstsw	ax
	test	ah, 65					; 00000041H
	je	SHORT $LN11@ttcompare

; 96   :   /* Finally, break ties with id to get consistent ordering,
; 97   :      independent of how many elements are being sorted */
; 98   :   if ( t1[0]->f_id > t2[0]->f_id ) return 1;

	mov	ecx, DWORD PTR [ecx]
	mov	edx, DWORD PTR [edx]
	cmp	ecx, edx
	ja	SHORT $LN10@ttcompare

; 99   :   if ( t1[0]->f_id < t2[0]->f_id ) return -1;

	sbb	eax, eax

; 100  :   return 0;
; 101  : 
; 102  : } // end ttcompare()

	pop	ebp
	ret	0
_ttcompare ENDP
_TEXT	ENDS
PUBLIC	__real@4012d97c7f3321d2
PUBLIC	__real@bff921fb54442d18
PUBLIC	__real@401f6a7a2955385e
PUBLIC	__real@3ff921fb54442d18
PUBLIC	__real@4022d97c7f3321d2
PUBLIC	__real@400921fb54442d18
PUBLIC	__real@401921fb54442d18
PUBLIC	__real@0000000000000000
PUBLIC	__real@3fd0000000000000
PUBLIC	__real@3fe0000000000000
PUBLIC	__real@40af400000000000
PUBLIC	__$ArrayPad$
PUBLIC	_find_bbox
EXTRN	_dot:PROC
EXTRN	___security_cookie:DWORD
EXTRN	@__security_check_cookie@4:PROC
EXTRN	__CIatan2:PROC
EXTRN	__CIsqrt:PROC
;	COMDAT __real@4012d97c7f3321d2
CONST	SEGMENT
__real@4012d97c7f3321d2 DQ 04012d97c7f3321d2r	; 4.71239
CONST	ENDS
;	COMDAT __real@bff921fb54442d18
CONST	SEGMENT
__real@bff921fb54442d18 DQ 0bff921fb54442d18r	; -1.5708
CONST	ENDS
;	COMDAT __real@401f6a7a2955385e
CONST	SEGMENT
__real@401f6a7a2955385e DQ 0401f6a7a2955385er	; 7.85398
CONST	ENDS
;	COMDAT __real@3ff921fb54442d18
CONST	SEGMENT
__real@3ff921fb54442d18 DQ 03ff921fb54442d18r	; 1.5708
CONST	ENDS
;	COMDAT __real@4022d97c7f3321d2
CONST	SEGMENT
__real@4022d97c7f3321d2 DQ 04022d97c7f3321d2r	; 9.42478
CONST	ENDS
;	COMDAT __real@400921fb54442d18
CONST	SEGMENT
__real@400921fb54442d18 DQ 0400921fb54442d18r	; 3.14159
CONST	ENDS
;	COMDAT __real@401921fb54442d18
CONST	SEGMENT
__real@401921fb54442d18 DQ 0401921fb54442d18r	; 6.28319
CONST	ENDS
;	COMDAT __real@0000000000000000
CONST	SEGMENT
__real@0000000000000000 DQ 00000000000000000r	; 0
CONST	ENDS
;	COMDAT __real@3fd0000000000000
CONST	SEGMENT
__real@3fd0000000000000 DQ 03fd0000000000000r	; 0.25
CONST	ENDS
;	COMDAT __real@3fe0000000000000
CONST	SEGMENT
__real@3fe0000000000000 DQ 03fe0000000000000r	; 0.5
CONST	ENDS
;	COMDAT __real@40af400000000000
CONST	SEGMENT
__real@40af400000000000 DQ 040af400000000000r	; 4000
; Function compile flags: /Ogtp
CONST	ENDS
;	COMDAT _find_bbox
_TEXT	SEGMENT
_center$89113 = -140					; size = 16
_dx$ = -124						; size = 8
_angle1$89116 = -124					; size = 8
_det$89115 = -116					; size = 8
tv3173 = -112						; size = 4
tv3159 = -112						; size = 4
_dy$ = -108						; size = 8
_radius$89114 = -108					; size = 8
_mag1$89110 = -108					; size = 8
_w2$89109 = -100					; size = 48
_w1$89108 = -52						; size = 48
__$ArrayPad$ = -4					; size = 4
_t$ = 8							; size = 4
_find_bbox PROC						; COMDAT

; 130  : { int n;

	push	ebp
	mov	ebp, esp
	sub	esp, 140				; 0000008cH
	mov	eax, DWORD PTR ___security_cookie
	xor	eax, ebp
	mov	DWORD PTR __$ArrayPad$[ebp], eax
	push	ebx
	mov	ebx, DWORD PTR _t$[ebp]

; 131  :   REAL dx,dy,len;
; 132  : 
; 133  :   if ( (t->flag & 0xF) == EDGE )

	mov	eax, DWORD PTR [ebx+28]
	mov	ecx, eax
	and	cl, 15					; 0000000fH
	push	esi
	push	edi
	cmp	cl, 1
	jne	$LN45@find_bbox

; 134  :   {
; 135  :     if ( t->flag & EDGE_ARC )

	test	eax, 32768				; 00008000H
	je	$LN44@find_bbox

; 136  :     { REAL w1[MAXCOORD],w2[MAXCOORD],mag1,mag2,w1w2,center[2],radius;
; 137  :       REAL det,angle1,angle2;
; 138  :       int i;
; 139  :       for (i = 0 ; i < SDIM ; i++ )

	mov	edx, DWORD PTR _web+616
	xor	ecx, ecx
	cmp	edx, 4
	jl	SHORT $LC57@find_bbox
	lea	esi, DWORD PTR [edx-3]
	lea	eax, DWORD PTR [ebx+32]
$LL58@find_bbox:

; 140  :       { w1[i] = t->x[1][i] - t->x[0][i];

	fld	DWORD PTR [eax+12]

; 141  :         w2[i] = t->x[2][i] - t->x[0][i];

	add	ecx, 4
	fsub	DWORD PTR [eax]
	add	eax, 16					; 00000010H
	fstp	QWORD PTR _w1$89108[ebp+ecx*8-32]
	fld	DWORD PTR [eax+8]
	fsub	DWORD PTR [eax-16]
	fstp	QWORD PTR _w2$89109[ebp+ecx*8-32]
	fld	DWORD PTR [eax]
	fsub	DWORD PTR [eax-12]
	fstp	QWORD PTR _w1$89108[ebp+ecx*8-24]
	fld	DWORD PTR [eax+12]
	fsub	DWORD PTR [eax-12]
	fstp	QWORD PTR _w2$89109[ebp+ecx*8-24]
	fld	DWORD PTR [eax+4]
	fsub	DWORD PTR [eax-8]
	fstp	QWORD PTR _w1$89108[ebp+ecx*8-16]
	fld	DWORD PTR [eax+16]
	fsub	DWORD PTR [eax-8]
	fstp	QWORD PTR _w2$89109[ebp+ecx*8-16]
	fld	DWORD PTR [eax+8]
	fsub	DWORD PTR [eax-4]
	fstp	QWORD PTR _w1$89108[ebp+ecx*8-8]
	fld	DWORD PTR [eax+20]
	fsub	DWORD PTR [eax-4]
	fstp	QWORD PTR _w2$89109[ebp+ecx*8-8]
	cmp	ecx, esi
	jl	SHORT $LL58@find_bbox
$LC57@find_bbox:

; 136  :     { REAL w1[MAXCOORD],w2[MAXCOORD],mag1,mag2,w1w2,center[2],radius;
; 137  :       REAL det,angle1,angle2;
; 138  :       int i;
; 139  :       for (i = 0 ; i < SDIM ; i++ )

	cmp	ecx, edx
	jge	SHORT $LN56@find_bbox
	lea	eax, DWORD PTR [ebx+ecx*4+32]
	npad	5
$LC43@find_bbox:

; 140  :       { w1[i] = t->x[1][i] - t->x[0][i];

	fld	DWORD PTR [eax+12]
	inc	ecx
	fsub	DWORD PTR [eax]
	add	eax, 4
	fstp	QWORD PTR _w1$89108[ebp+ecx*8-8]

; 141  :         w2[i] = t->x[2][i] - t->x[0][i];

	fld	DWORD PTR [eax+20]
	fsub	DWORD PTR [eax-4]
	fstp	QWORD PTR _w2$89109[ebp+ecx*8-8]
	cmp	ecx, edx
	jl	SHORT $LC43@find_bbox
$LN56@find_bbox:

; 142  :       }
; 143  :       det = w1[0]*w2[1] - w1[1]*w2[0];

	fld	QWORD PTR _w2$89109[ebp+8]

; 144  :       mag1 = SDIM_dot(w1,w1); mag2 = SDIM_dot(w2,w2);

	push	edx
	fmul	QWORD PTR _w1$89108[ebp]
	lea	edx, DWORD PTR _w1$89108[ebp]
	fld	QWORD PTR _w2$89109[ebp]
	push	edx
	fmul	QWORD PTR _w1$89108[ebp+8]
	mov	eax, edx
	push	eax
	fsubp	ST(1), ST(0)
	fstp	QWORD PTR _det$89115[ebp]
	call	_dot
	mov	ecx, DWORD PTR _web+616
	fstp	QWORD PTR _mag1$89110[ebp]
	push	ecx
	lea	edx, DWORD PTR _w2$89109[ebp]
	push	edx
	mov	eax, edx
	push	eax
	call	_dot

; 145  :       w1w2 = w1[0]*w2[0] + w1[1]*w2[1];

	fld	QWORD PTR _w1$89108[ebp+8]

; 146  :       for ( n = 0 ; n < gdim ; n++ )

	mov	esi, DWORD PTR _gdim
	fld	ST(0)
	fld	QWORD PTR _w2$89109[ebp+8]
	add	esp, 24					; 00000018H
	fmul	ST(1), ST(0)
	xor	edi, edi
	fld	QWORD PTR _w2$89109[ebp]
	fld	QWORD PTR _w1$89108[ebp]
	fmul	ST(0), ST(1)
	faddp	ST(3), ST(0)
	cmp	esi, 4
	jl	$LC60@find_bbox

; 142  :       }
; 143  :       det = w1[0]*w2[1] - w1[1]*w2[0];

	lea	edx, DWORD PTR [esi-4]
	shr	edx, 2
	inc	edx
	lea	ecx, DWORD PTR [ebx+56]
	lea	edi, DWORD PTR [edx*4]

; 146  :       for ( n = 0 ; n < gdim ; n++ )

$LN69@find_bbox:

; 147  :       { /* endpoints first */
; 148  :         if ( t->x[0][n] < t->x[2][n] )

	fld	DWORD PTR [ecx-24]
	fld	DWORD PTR [ecx]
	fcompp
	fnstsw	ax
	test	ah, 65					; 00000041H
	jne	SHORT $LN61@find_bbox

; 149  :          { t->maxs[n] = t->x[2][n];

	fld	DWORD PTR [ecx]
	fstp	DWORD PTR [ecx+36]

; 150  :            t->mins[n] = t->x[0][n];

	fld	DWORD PTR [ecx-24]

; 151  :          }
; 152  :          else

	jmp	SHORT $LN160@find_bbox
$LN61@find_bbox:

; 153  :          { t->maxs[n] = t->x[0][n];

	fld	DWORD PTR [ecx-24]
	fstp	DWORD PTR [ecx+36]

; 154  :            t->mins[n] = t->x[2][n];

	fld	DWORD PTR [ecx]
$LN160@find_bbox:
	fstp	DWORD PTR [ecx+24]
	fld	DWORD PTR [ecx-20]
	fld	DWORD PTR [ecx+4]
	fcompp
	fnstsw	ax
	test	ah, 65					; 00000041H
	jne	SHORT $LN63@find_bbox

; 149  :          { t->maxs[n] = t->x[2][n];

	fld	DWORD PTR [ecx+4]
	fstp	DWORD PTR [ecx+40]

; 150  :            t->mins[n] = t->x[0][n];

	fld	DWORD PTR [ecx-20]

; 151  :          }
; 152  :          else

	jmp	SHORT $LN161@find_bbox
$LN63@find_bbox:

; 153  :          { t->maxs[n] = t->x[0][n];

	fld	DWORD PTR [ecx-20]
	fstp	DWORD PTR [ecx+40]

; 154  :            t->mins[n] = t->x[2][n];

	fld	DWORD PTR [ecx+4]
$LN161@find_bbox:
	fstp	DWORD PTR [ecx+28]
	fld	DWORD PTR [ecx-16]
	fld	DWORD PTR [ecx+8]
	fcompp
	fnstsw	ax
	test	ah, 65					; 00000041H
	jne	SHORT $LN65@find_bbox

; 149  :          { t->maxs[n] = t->x[2][n];

	fld	DWORD PTR [ecx+8]
	fstp	DWORD PTR [ecx+44]

; 150  :            t->mins[n] = t->x[0][n];

	fld	DWORD PTR [ecx-16]

; 151  :          }
; 152  :          else

	jmp	SHORT $LN162@find_bbox
$LN65@find_bbox:

; 153  :          { t->maxs[n] = t->x[0][n];

	fld	DWORD PTR [ecx-16]
	fstp	DWORD PTR [ecx+44]

; 154  :            t->mins[n] = t->x[2][n];

	fld	DWORD PTR [ecx+8]
$LN162@find_bbox:
	fstp	DWORD PTR [ecx+32]
	fld	DWORD PTR [ecx-12]
	fld	DWORD PTR [ecx+12]
	fcompp
	fnstsw	ax
	test	ah, 65					; 00000041H
	jne	SHORT $LN67@find_bbox

; 149  :          { t->maxs[n] = t->x[2][n];

	fld	DWORD PTR [ecx+12]
	fstp	DWORD PTR [ecx+48]

; 150  :            t->mins[n] = t->x[0][n];

	fld	DWORD PTR [ecx-12]

; 151  :          }
; 152  :          else

	jmp	SHORT $LN163@find_bbox
$LN67@find_bbox:

; 153  :          { t->maxs[n] = t->x[0][n];

	fld	DWORD PTR [ecx-12]
	fstp	DWORD PTR [ecx+48]

; 154  :            t->mins[n] = t->x[2][n];

	fld	DWORD PTR [ecx+12]
$LN163@find_bbox:
	fstp	DWORD PTR [ecx+36]
	add	ecx, 16					; 00000010H
	dec	edx
	jne	$LN69@find_bbox
$LC60@find_bbox:

; 146  :       for ( n = 0 ; n < gdim ; n++ )

	cmp	edi, esi
	jge	SHORT $LN59@find_bbox
	lea	ecx, DWORD PTR [ebx+edi*4+32]
	sub	esi, edi
$LC40@find_bbox:

; 147  :       { /* endpoints first */
; 148  :         if ( t->x[0][n] < t->x[2][n] )

	fld	DWORD PTR [ecx]
	fld	DWORD PTR [ecx+24]
	fcompp
	fnstsw	ax
	test	ah, 65					; 00000041H
	jne	SHORT $LN37@find_bbox

; 149  :          { t->maxs[n] = t->x[2][n];

	fld	DWORD PTR [ecx+24]
	fstp	DWORD PTR [ecx+60]

; 150  :            t->mins[n] = t->x[0][n];

	fld	DWORD PTR [ecx]

; 151  :          }
; 152  :          else

	jmp	SHORT $LN164@find_bbox
$LN37@find_bbox:

; 153  :          { t->maxs[n] = t->x[0][n];

	fld	DWORD PTR [ecx]
	fstp	DWORD PTR [ecx+60]

; 154  :            t->mins[n] = t->x[2][n];

	fld	DWORD PTR [ecx+24]
$LN164@find_bbox:
	fstp	DWORD PTR [ecx+48]
	add	ecx, 4
	dec	esi
	jne	SHORT $LC40@find_bbox
$LN59@find_bbox:

; 155  :          }
; 156  :        }
; 157  :       if ( 4000*det*det > mag1*mag1*mag2 + mag1*mag2*mag2 - 2*mag1*w1w2*mag2 )

	fld	ST(4)
	fld	QWORD PTR _mag1$89110[ebp]
	fmul	ST(1), ST(0)
	fxch	ST(1)
	fmul	ST(0), ST(6)
	fld	ST(1)
	fmul	ST(0), ST(2)
	fmul	ST(0), ST(7)
	faddp	ST(1), ST(0)
	fld	ST(1)
	fadd	ST(0), ST(0)
	fmulp	ST(5), ST(0)
	fxch	ST(4)
	fmul	ST(0), ST(6)
	fsubp	ST(4), ST(0)
	fld	QWORD PTR _det$89115[ebp]
	fld	QWORD PTR __real@40af400000000000
	fmul	ST(0), ST(1)
	fmul	ST(0), ST(1)
	fcomp	ST(5)
	fnstsw	ax
	test	ah, 65					; 00000041H
	jne	$LN113@find_bbox

; 158  :       { /* circle rather that straight line */
; 159  :         center[0] = t->x[0][0] + 0.5*(w2[1]*mag1 - w1[1]*mag2)/det;

	fld	ST(1)
	fmulp	ST(4), ST(0)
	fld	ST(6)
	fmulp	ST(6), ST(0)
	fxch	ST(3)
	fsubrp	ST(5), ST(0)
	fld	QWORD PTR __real@3fe0000000000000
	fmul	ST(5), ST(0)
	fxch	ST(5)
	fdiv	ST(0), ST(3)
	fadd	DWORD PTR [ebx+32]
	fstp	QWORD PTR _center$89113[ebp]

; 160  :         center[1] = t->x[0][1] + 0.5*(-w2[0]*mag1 + w1[0]*mag2)/det;

	fxch	ST(5)
	fmul	QWORD PTR _w1$89108[ebp]
	fxch	ST(5)
	fmulp	ST(1), ST(0)
	fsubp	ST(4), ST(0)
	fxch	ST(3)
	fmulp	ST(2), ST(0)
	fxch	ST(1)
	fdiv	ST(0), ST(2)
	fadd	DWORD PTR [ebx+36]
	fstp	QWORD PTR _center$89113[ebp+8]

; 161  :         radius =  sqrt((mag1*mag1*mag2+mag1*mag2*mag2-2*mag1*w1w2*mag2)
; 162  :                          /4/det/det);

	fmul	QWORD PTR __real@3fd0000000000000
	fdiv	ST(0), ST(1)
	fdivrp	ST(1), ST(0)
	call	__CIsqrt
	fstp	QWORD PTR _radius$89114[ebp]

; 163  :         angle1 = atan2(t->x[0][1]-center[1],t->x[0][0]-center[0]);

	fld	DWORD PTR [ebx+36]
	fsub	QWORD PTR _center$89113[ebp+8]
	fld	DWORD PTR [ebx+32]
	fsub	QWORD PTR _center$89113[ebp]
	call	__CIatan2
	fstp	QWORD PTR _angle1$89116[ebp]

; 164  :         angle2 = atan2(t->x[2][1]-center[1],t->x[2][0]-center[0]);

	fld	DWORD PTR [ebx+60]
	fsub	QWORD PTR _center$89113[ebp+8]
	fld	DWORD PTR [ebx+56]
	fsub	QWORD PTR _center$89113[ebp]
	call	__CIatan2

; 165  :         if ( det < 0 )

	fldz
	fcom	QWORD PTR _det$89115[ebp]
	fnstsw	ax

; 166  :         { REAL temp = angle1; angle1 = angle2; angle2 = temp; }

	fld	QWORD PTR _angle1$89116[ebp]
	test	ah, 65					; 00000041H
	je	SHORT $LN34@find_bbox
	fxch	ST(2)
$LN34@find_bbox:

; 167  :         if ( angle2 < angle1 ) angle2 += 2*M_PI;

	fcom	ST(2)
	fnstsw	ax
	fld	QWORD PTR __real@401921fb54442d18
	test	ah, 5
	jp	SHORT $LN33@find_bbox
	fadd	ST(1), ST(0)
$LN33@find_bbox:

; 168  :         if ( (angle1 < 0.0 && angle2 > 0.0 ) || 
; 169  :              (angle1 < 2*M_PI && angle2 > 2*M_PI) )

	fxch	ST(3)
	fcom	ST(2)
	fnstsw	ax
	test	ah, 5
	jp	SHORT $LN123@find_bbox
	fxch	ST(2)
	fcomp	ST(1)
	fnstsw	ax
	test	ah, 5
	jp	SHORT $LN30@find_bbox
	fstp	ST(2)

; 170  :           t->maxs[0] = (float)(center[0] + radius);

	fld	QWORD PTR _radius$89114[ebp]
	fld	QWORD PTR _center$89113[ebp]
	fadd	ST(0), ST(1)
	fstp	DWORD PTR [ebx+92]
	jmp	SHORT $LN32@find_bbox
$LN123@find_bbox:

; 168  :         if ( (angle1 < 0.0 && angle2 > 0.0 ) || 
; 169  :              (angle1 < 2*M_PI && angle2 > 2*M_PI) )

	fstp	ST(2)
$LN30@find_bbox:
	fxch	ST(1)
	fcom	ST(2)
	fnstsw	ax
	test	ah, 5
	jp	SHORT $LN152@find_bbox
	fxch	ST(2)
	fcomp	ST(1)
	fnstsw	ax
	test	ah, 5
	jp	SHORT $LN82@find_bbox
	fxch	ST(1)

; 170  :           t->maxs[0] = (float)(center[0] + radius);

	fld	QWORD PTR _radius$89114[ebp]
	fld	QWORD PTR _center$89113[ebp]
	fadd	ST(0), ST(1)
	fstp	DWORD PTR [ebx+92]
	jmp	SHORT $LN32@find_bbox
$LN152@find_bbox:

; 168  :         if ( (angle1 < 0.0 && angle2 > 0.0 ) || 
; 169  :              (angle1 < 2*M_PI && angle2 > 2*M_PI) )

	fstp	ST(2)
$LN82@find_bbox:

; 170  :           t->maxs[0] = (float)(center[0] + radius);

	fld	QWORD PTR _radius$89114[ebp]
	fxch	ST(1)
	fxch	ST(2)
	fxch	ST(1)
$LN32@find_bbox:

; 171  :         if ( (angle1 < M_PI && angle2 > M_PI ) || 
; 172  :              (angle1 < 3*M_PI && angle2 > 3*M_PI) )

	fld	QWORD PTR __real@400921fb54442d18
	fcom	ST(2)
	fnstsw	ax
	test	ah, 65					; 00000041H
	jne	SHORT $LN128@find_bbox
	fcomp	ST(3)
	fnstsw	ax
	test	ah, 5
	jnp	SHORT $LN28@find_bbox
	jmp	SHORT $LN27@find_bbox
$LN128@find_bbox:
	fstp	ST(0)
$LN27@find_bbox:
	fld	QWORD PTR __real@4022d97c7f3321d2
	fcom	ST(2)
	fnstsw	ax
	test	ah, 65					; 00000041H
	jne	SHORT $LN149@find_bbox
	fcomp	ST(3)
	fnstsw	ax
	test	ah, 5
	jp	SHORT $LN29@find_bbox
$LN28@find_bbox:

; 173  :           t->mins[0] = (float)(center[0] - radius);

	fld	QWORD PTR _center$89113[ebp]
	fsub	ST(0), ST(1)
	fstp	DWORD PTR [ebx+80]
	jmp	SHORT $LN29@find_bbox
$LN149@find_bbox:

; 171  :         if ( (angle1 < M_PI && angle2 > M_PI ) || 
; 172  :              (angle1 < 3*M_PI && angle2 > 3*M_PI) )

	fstp	ST(0)
$LN29@find_bbox:

; 174  :         if ( (angle1 < M_PI/2 && angle2 > M_PI/2 ) || 
; 175  :              (angle1 < 5*M_PI/2 && angle2 > 5*M_PI/2) )

	fld	QWORD PTR __real@3ff921fb54442d18
	fcom	ST(2)
	fnstsw	ax
	test	ah, 65					; 00000041H
	jne	SHORT $LN133@find_bbox
	fcomp	ST(3)
	fnstsw	ax
	test	ah, 5
	jnp	SHORT $LN25@find_bbox
	jmp	SHORT $LN24@find_bbox
$LN133@find_bbox:
	fstp	ST(0)
$LN24@find_bbox:
	fld	QWORD PTR __real@401f6a7a2955385e
	fcom	ST(2)
	fnstsw	ax
	test	ah, 65					; 00000041H
	jne	SHORT $LN146@find_bbox
	fcomp	ST(3)
	fnstsw	ax
	test	ah, 5
	jp	SHORT $LN83@find_bbox
$LN25@find_bbox:

; 176  :           t->maxs[1] = (float)(center[1] + radius);

	fld	QWORD PTR _center$89113[ebp+8]
	fadd	ST(0), ST(1)
	fstp	DWORD PTR [ebx+96]
	jmp	SHORT $LN83@find_bbox
$LN146@find_bbox:

; 174  :         if ( (angle1 < M_PI/2 && angle2 > M_PI/2 ) || 
; 175  :              (angle1 < 5*M_PI/2 && angle2 > 5*M_PI/2) )

	fstp	ST(0)
$LN83@find_bbox:

; 177  :         if ( (angle1 < -M_PI/2 && angle2 > -M_PI/2 ) || 
; 178  :              (angle1 < 3*M_PI/2 && angle2 > 3*M_PI/2) )

	fld	QWORD PTR __real@bff921fb54442d18
	fcom	ST(2)
	fnstsw	ax
	test	ah, 65					; 00000041H
	jne	SHORT $LN138@find_bbox
	fcomp	ST(3)
	fnstsw	ax
	test	ah, 5
	jp	SHORT $LN21@find_bbox
	fstp	ST(2)
	fstp	ST(0)
$LN22@find_bbox:

; 179  :           t->mins[1] = (float)(center[1] - radius);

	fsubr	QWORD PTR _center$89113[ebp+8]
	pop	edi
	pop	esi
	fstp	DWORD PTR [ebx+84]
	pop	ebx

; 235  :       }
; 236  :     }
; 237  :   }
; 238  : } // end find_bbox()

	mov	ecx, DWORD PTR __$ArrayPad$[ebp]
	xor	ecx, ebp
	call	@__security_check_cookie@4
	mov	esp, ebp
	pop	ebp
	ret	0
$LN138@find_bbox:

; 177  :         if ( (angle1 < -M_PI/2 && angle2 > -M_PI/2 ) || 
; 178  :              (angle1 < 3*M_PI/2 && angle2 > 3*M_PI/2) )

	fstp	ST(0)
$LN21@find_bbox:
	fld	QWORD PTR __real@4012d97c7f3321d2
	fcom	ST(2)
	fnstsw	ax
	fstp	ST(2)
	test	ah, 65					; 00000041H
	jne	$LN142@find_bbox
	fxch	ST(2)
	fcompp
	fnstsw	ax
	test	ah, 65					; 00000041H
	jne	$LN158@find_bbox
	jmp	SHORT $LN22@find_bbox
$LN44@find_bbox:

; 180  :         return;
; 181  :       } 
; 182  :     } /* end EDGE_ARC */
; 183  :     else /* just a straight segment */
; 184  :     for ( n = 0 ; n < gdim ; n++ )

	mov	esi, DWORD PTR _gdim
	xor	edi, edi
	cmp	esi, 4
	jl	$LC71@find_bbox
	lea	edx, DWORD PTR [esi-4]
	shr	edx, 2
	inc	edx
	lea	ecx, DWORD PTR [ebx+32]
	lea	edi, DWORD PTR [edx*4]
$LL80@find_bbox:

; 185  :     { if ( t->x[0][n] < t->x[1][n] )

	fld	DWORD PTR [ecx]
	fld	DWORD PTR [ecx+12]
	fcompp
	fnstsw	ax
	test	ah, 65					; 00000041H
	jne	SHORT $LN72@find_bbox

; 186  :       { t->maxs[n] = t->x[1][n];

	fld	DWORD PTR [ecx+12]
	fstp	DWORD PTR [ecx+60]

; 187  :         t->mins[n] = t->x[0][n];

	fld	DWORD PTR [ecx]

; 188  :       }
; 189  :       else

	jmp	SHORT $LN165@find_bbox
$LN72@find_bbox:

; 190  :       { t->maxs[n] = t->x[0][n];

	fld	DWORD PTR [ecx]
	fstp	DWORD PTR [ecx+60]

; 191  :         t->mins[n] = t->x[1][n];

	fld	DWORD PTR [ecx+12]
$LN165@find_bbox:
	fstp	DWORD PTR [ecx+48]
	fld	DWORD PTR [ecx+4]
	fld	DWORD PTR [ecx+16]
	fcompp
	fnstsw	ax
	test	ah, 65					; 00000041H
	jne	SHORT $LN74@find_bbox

; 186  :       { t->maxs[n] = t->x[1][n];

	fld	DWORD PTR [ecx+16]
	fstp	DWORD PTR [ecx+64]

; 187  :         t->mins[n] = t->x[0][n];

	fld	DWORD PTR [ecx+4]

; 188  :       }
; 189  :       else

	jmp	SHORT $LN166@find_bbox
$LN74@find_bbox:

; 190  :       { t->maxs[n] = t->x[0][n];

	fld	DWORD PTR [ecx+4]
	fstp	DWORD PTR [ecx+64]

; 191  :         t->mins[n] = t->x[1][n];

	fld	DWORD PTR [ecx+16]
$LN166@find_bbox:
	fstp	DWORD PTR [ecx+52]
	fld	DWORD PTR [ecx+8]
	fld	DWORD PTR [ecx+20]
	fcompp
	fnstsw	ax
	test	ah, 65					; 00000041H
	jne	SHORT $LN76@find_bbox

; 186  :       { t->maxs[n] = t->x[1][n];

	fld	DWORD PTR [ecx+20]
	fstp	DWORD PTR [ecx+68]

; 187  :         t->mins[n] = t->x[0][n];

	fld	DWORD PTR [ecx+8]

; 188  :       }
; 189  :       else

	jmp	SHORT $LN167@find_bbox
$LN76@find_bbox:

; 190  :       { t->maxs[n] = t->x[0][n];

	fld	DWORD PTR [ecx+8]
	fstp	DWORD PTR [ecx+68]

; 191  :         t->mins[n] = t->x[1][n];

	fld	DWORD PTR [ecx+20]
$LN167@find_bbox:
	fstp	DWORD PTR [ecx+56]
	fld	DWORD PTR [ecx+12]
	fld	DWORD PTR [ecx+24]
	fcompp
	fnstsw	ax
	test	ah, 65					; 00000041H
	jne	SHORT $LN78@find_bbox

; 186  :       { t->maxs[n] = t->x[1][n];

	fld	DWORD PTR [ecx+24]
	fstp	DWORD PTR [ecx+72]

; 187  :         t->mins[n] = t->x[0][n];

	fld	DWORD PTR [ecx+12]

; 188  :       }
; 189  :       else

	jmp	SHORT $LN168@find_bbox
$LN78@find_bbox:

; 190  :       { t->maxs[n] = t->x[0][n];

	fld	DWORD PTR [ecx+12]
	fstp	DWORD PTR [ecx+72]

; 191  :         t->mins[n] = t->x[1][n];

	fld	DWORD PTR [ecx+24]
$LN168@find_bbox:
	fstp	DWORD PTR [ecx+60]
	add	ecx, 16					; 00000010H
	dec	edx
	jne	$LL80@find_bbox
$LC71@find_bbox:

; 180  :         return;
; 181  :       } 
; 182  :     } /* end EDGE_ARC */
; 183  :     else /* just a straight segment */
; 184  :     for ( n = 0 ; n < gdim ; n++ )

	cmp	edi, esi
	jge	SHORT $LN70@find_bbox
	lea	ecx, DWORD PTR [ebx+edi*4+32]
	sub	esi, edi
$LC19@find_bbox:

; 185  :     { if ( t->x[0][n] < t->x[1][n] )

	fld	DWORD PTR [ecx]
	fld	DWORD PTR [ecx+12]
	fcompp
	fnstsw	ax
	test	ah, 65					; 00000041H
	jne	SHORT $LN16@find_bbox

; 186  :       { t->maxs[n] = t->x[1][n];

	fld	DWORD PTR [ecx+12]
	fstp	DWORD PTR [ecx+60]

; 187  :         t->mins[n] = t->x[0][n];

	fld	DWORD PTR [ecx]

; 188  :       }
; 189  :       else

	jmp	SHORT $LN169@find_bbox
$LN16@find_bbox:

; 190  :       { t->maxs[n] = t->x[0][n];

	fld	DWORD PTR [ecx]
	fstp	DWORD PTR [ecx+60]

; 191  :         t->mins[n] = t->x[1][n];

	fld	DWORD PTR [ecx+12]
$LN169@find_bbox:
	fstp	DWORD PTR [ecx+48]
	add	ecx, 4
	dec	esi
	jne	SHORT $LC19@find_bbox

; 180  :         return;
; 181  :       } 
; 182  :     } /* end EDGE_ARC */
; 183  :     else /* just a straight segment */
; 184  :     for ( n = 0 ; n < gdim ; n++ )

	jmp	SHORT $LN70@find_bbox
$LN113@find_bbox:
	fstp	ST(0)
	fstp	ST(0)
	fstp	ST(4)
	fstp	ST(2)
	fstp	ST(0)
	fstp	ST(0)
	fstp	ST(0)
$LN70@find_bbox:

; 192  :       }
; 193  :     }
; 194  :     /* adjust extents for thickness */
; 195  :     dx = fabs(t->x[1][0] - t->x[0][0]);

	fld	DWORD PTR [ebx+44]
	fsub	DWORD PTR [ebx+32]
	fabs
	fst	QWORD PTR _dx$[ebp]

; 196  :     dy = fabs(t->x[1][1] - t->x[0][1]);

	fld	DWORD PTR [ebx+48]
	fsub	DWORD PTR [ebx+36]
	fabs
	fst	QWORD PTR _dy$[ebp]

; 197  :     len = sqrt(dx*dx+dy*dy);

	fmul	ST(0), ST(0)
	fld	ST(1)
	fmulp	ST(2), ST(0)
	faddp	ST(1), ST(0)
	call	__CIsqrt

; 198  :     if ( len > 0.0 )

	fldz
	fcomp	ST(1)
	fnstsw	ax
	test	ah, 5
	jp	$LN158@find_bbox

; 199  :     { t->maxs[0] += (float)(dy/len*t->width/2);

	fld	QWORD PTR _dy$[ebp]
	pop	edi
	fdiv	ST(0), ST(1)
	pop	esi
	fmul	DWORD PTR [ebx+104]
	fld	QWORD PTR __real@3fe0000000000000
	fmul	ST(1), ST(0)
	fxch	ST(1)
	fstp	DWORD PTR tv3159[ebp]
	fld	DWORD PTR [ebx+92]
	fld	DWORD PTR tv3159[ebp]
	fld	ST(0)
	faddp	ST(2), ST(0)
	fxch	ST(1)
	fstp	DWORD PTR [ebx+92]

; 200  :       t->mins[0] -= (float)(dy/len*t->width/2);

	fsubr	DWORD PTR [ebx+80]
	fstp	DWORD PTR [ebx+80]

; 201  :       t->maxs[1] += (float)(dx/len*t->width/2);

	fld	QWORD PTR _dx$[ebp]
	fdivrp	ST(2), ST(0)
	fld	DWORD PTR [ebx+104]
	fmulp	ST(2), ST(0)
	fmulp	ST(1), ST(0)
	fstp	DWORD PTR tv3173[ebp]
	fld	DWORD PTR tv3173[ebp]
	fld	ST(0)
	fadd	DWORD PTR [ebx+96]
	fstp	DWORD PTR [ebx+96]

; 202  :       t->mins[1] -= (float)(dx/len*t->width/2);

	fsubr	DWORD PTR [ebx+84]
	fstp	DWORD PTR [ebx+84]
	pop	ebx

; 235  :       }
; 236  :     }
; 237  :   }
; 238  : } // end find_bbox()

	mov	ecx, DWORD PTR __$ArrayPad$[ebp]
	xor	ecx, ebp
	call	@__security_check_cookie@4
	mov	esp, ebp
	pop	ebp
	ret	0
$LN45@find_bbox:

; 203  :     }
; 204  :     return;
; 205  :   } /* end EDGE */
; 206  : 
; 207  :   /* facet */
; 208  :   for ( n = 0 ; n < gdim ; n++ )

	mov	eax, DWORD PTR _gdim
	test	eax, eax
	jle	$LN11@find_bbox
	lea	ecx, DWORD PTR [ebx+56]
	mov	edx, eax
	npad	7
$LL13@find_bbox:

; 209  :   { if ( t->x[0][n] < t->x[1][n] )

	fld	DWORD PTR [ecx-24]
	fld	DWORD PTR [ecx-12]
	fcompp
	fnstsw	ax

; 210  :     { if  ( t->x[2][n] < t->x[0][n] )

	fld	DWORD PTR [ecx]
	test	ah, 65					; 00000041H
	jne	SHORT $LN10@find_bbox
	fld	DWORD PTR [ecx-24]
	fcompp
	fnstsw	ax
	test	ah, 65					; 00000041H
	jne	SHORT $LN9@find_bbox

; 211  :       { t->maxs[n] = t->x[1][n];

	fld	DWORD PTR [ecx-12]
	fstp	DWORD PTR [ecx+36]

; 212  :         t->mins[n] = t->x[2][n];

	fld	DWORD PTR [ecx]
	jmp	SHORT $LN170@find_bbox
$LN9@find_bbox:

; 213  :       }
; 214  :       else if ( t->x[1][n] < t->x[2][n] )

	fld	DWORD PTR [ecx-12]
	fld	DWORD PTR [ecx]
	fcompp
	fnstsw	ax
	test	ah, 65					; 00000041H
	jne	SHORT $LN7@find_bbox

; 215  :       { t->maxs[n] = t->x[2][n];

	fld	DWORD PTR [ecx]
	fstp	DWORD PTR [ecx+36]

; 216  :         t->mins[n] = t->x[0][n];

	fld	DWORD PTR [ecx-24]

; 217  :       }
; 218  :       else

	jmp	SHORT $LN170@find_bbox
$LN7@find_bbox:

; 219  :       { t->maxs[n] = t->x[1][n];

	fld	DWORD PTR [ecx-12]
	fstp	DWORD PTR [ecx+36]

; 220  :         t->mins[n] = t->x[0][n];

	fld	DWORD PTR [ecx-24]

; 221  :       }
; 222  :     }
; 223  :     else

	jmp	SHORT $LN170@find_bbox
$LN10@find_bbox:

; 224  :     { if  ( t->x[2][n] < t->x[1][n] )

	fld	DWORD PTR [ecx-12]
	fcompp
	fnstsw	ax
	test	ah, 65					; 00000041H
	jne	SHORT $LN4@find_bbox

; 225  :       { t->maxs[n] = t->x[0][n];

	fld	DWORD PTR [ecx-24]
	fstp	DWORD PTR [ecx+36]

; 226  :         t->mins[n] = t->x[2][n];

	fld	DWORD PTR [ecx]
	jmp	SHORT $LN170@find_bbox
$LN4@find_bbox:

; 227  :       }
; 228  :       else if ( t->x[0][n] < t->x[2][n] )

	fld	DWORD PTR [ecx-24]
	fld	DWORD PTR [ecx]
	fcompp
	fnstsw	ax
	test	ah, 65					; 00000041H
	jne	SHORT $LN2@find_bbox

; 229  :       { t->maxs[n] = t->x[2][n];

	fld	DWORD PTR [ecx]

; 230  :         t->mins[n] = t->x[1][n];
; 231  :       }
; 232  :       else

	jmp	SHORT $LN171@find_bbox
$LN2@find_bbox:

; 233  :       { t->maxs[n] = t->x[0][n];

	fld	DWORD PTR [ecx-24]
$LN171@find_bbox:
	fstp	DWORD PTR [ecx+36]

; 234  :         t->mins[n] = t->x[1][n];

	fld	DWORD PTR [ecx-12]
$LN170@find_bbox:
	fstp	DWORD PTR [ecx+24]
	add	ecx, 4
	dec	edx
	jne	$LL13@find_bbox
	pop	edi
	pop	esi
	pop	ebx

; 235  :       }
; 236  :     }
; 237  :   }
; 238  : } // end find_bbox()

	mov	ecx, DWORD PTR __$ArrayPad$[ebp]
	xor	ecx, ebp
	call	@__security_check_cookie@4
	mov	esp, ebp
	pop	ebp
	ret	0
$LN142@find_bbox:

; 203  :     }
; 204  :     return;
; 205  :   } /* end EDGE */
; 206  : 
; 207  :   /* facet */
; 208  :   for ( n = 0 ; n < gdim ; n++ )

	fstp	ST(2)
	fstp	ST(0)
$LN158@find_bbox:

; 198  :     if ( len > 0.0 )

	fstp	ST(0)
$LN11@find_bbox:

; 235  :       }
; 236  :     }
; 237  :   }
; 238  : } // end find_bbox()

	mov	ecx, DWORD PTR __$ArrayPad$[ebp]
	pop	edi
	pop	esi
	xor	ecx, ebp
	pop	ebx
	call	@__security_check_cookie@4
	mov	esp, ebp
	pop	ebp
	ret	0
_find_bbox ENDP
_TEXT	ENDS
PUBLIC	_setquadcode
EXTRN	_minclipy:QWORD
EXTRN	_maxclipy:QWORD
EXTRN	_minclipx:QWORD
EXTRN	_maxclipx:QWORD
; Function compile flags: /Ogtp
;	COMDAT _setquadcode
_TEXT	SEGMENT
_t$ = 8							; size = 4
_setquadcode PROC					; COMDAT

; 249  : { unsigned int q = 0;  /* the quadcode */

	push	ebp
	mov	ebp, esp

; 250  :   unsigned int bit = 1;  /* for shifting to quad bit position */
; 251  :   int n;
; 252  :   REAL midx = (minclipx+maxclipx)/2;

	fld	QWORD PTR _maxclipx
	push	esi
	fld	ST(0)

; 253  :   REAL midy = (minclipy+maxclipy)/2;
; 254  :   REAL deltax = (maxclipx-minclipx)/4;
; 255  :   REAL deltay = (maxclipy-minclipy)/4;
; 256  : 
; 257  :   if ( t->maxs[0] < minclipx || t->mins[0] > maxclipx || t->maxs[1] < minclipy
; 258  :        || t->mins[1] > maxclipy ) return OUTOFBOX;

	mov	esi, DWORD PTR _t$[ebp]
	fld	QWORD PTR _minclipx
	xor	edx, edx
	fadd	ST(1), ST(0)
	lea	ecx, DWORD PTR [edx+1]
	fld	QWORD PTR __real@3fe0000000000000
	fmul	ST(2), ST(0)
	fld	QWORD PTR _maxclipy
	fld	ST(0)
	fld	QWORD PTR _minclipy
	fadd	ST(1), ST(0)
	fxch	ST(1)
	fmul	ST(0), ST(3)
	fld	ST(6)
	fsub	ST(0), ST(5)
	fmul	QWORD PTR __real@3fd0000000000000
	fxch	ST(3)
	fsubrp	ST(2), ST(0)
	fxch	ST(1)
	fmul	QWORD PTR __real@3fd0000000000000
	fld	DWORD PTR [esi+92]
	fcomp	ST(5)
	fnstsw	ax
	fstp	ST(4)
	test	ah, 5
	jnp	$LN37@setquadcod
	fld	DWORD PTR [esi+80]
	fcomp	ST(6)
	fnstsw	ax
	fstp	ST(5)
	test	ah, 65					; 00000041H
	je	$LN46@setquadcod
	fld	DWORD PTR [esi+96]
	fcomp	QWORD PTR _minclipy
	fnstsw	ax
	test	ah, 5
	jnp	$LN46@setquadcod
	fld	DWORD PTR [esi+84]
	fcomp	QWORD PTR _maxclipy
	fnstsw	ax
	test	ah, 65					; 00000041H
	je	$LN46@setquadcod

; 259  : 
; 260  :   for ( n = 0  ; n < 8 ; n++, deltax /= 2, deltay /= 2 )

	push	edi
	xor	edi, edi
	jmp	SHORT $LN11@setquadcod
$LN82@setquadcod:
	fxch	ST(2)
$LN11@setquadcod:

; 261  :   {
; 262  :     if ( t->maxs[0] <= midx ) 

	fld	DWORD PTR [esi+92]
	fcomp	ST(4)
	fnstsw	ax
	test	ah, 65					; 00000041H
	jp	SHORT $LN8@setquadcod

; 263  :     { q |= bit; midx -= deltax; }

	or	edx, ecx
	fsub	ST(3), ST(0)
	jmp	SHORT $LN5@setquadcod
$LN8@setquadcod:

; 264  :     else if ( t->mins[0] >= midx )

	fld	DWORD PTR [esi+80]
	fcomp	ST(4)
	fnstsw	ax
	test	ah, 1
	jne	$LN112@setquadcod

; 265  :     { q |= bit<<1; midx += deltax; }

	lea	eax, DWORD PTR [ecx+ecx]
	fld	ST(0)
	or	edx, eax
	faddp	ST(4), ST(0)
$LN5@setquadcod:

; 266  :     else break;
; 267  :     bit <<= 2;
; 268  :     if ( t->maxs[1] <= midy ) 

	fld	DWORD PTR [esi+96]
	add	ecx, ecx
	fcomp	ST(5)
	add	ecx, ecx
	fnstsw	ax
	test	ah, 65					; 00000041H
	jp	SHORT $LN4@setquadcod

; 269  :     { q |= bit; midy -= deltay; }

	fxch	ST(4)
	or	edx, ecx
	fsub	ST(0), ST(2)
	jmp	SHORT $LN1@setquadcod
$LN4@setquadcod:

; 270  :     else if ( t->mins[1] >= midy )

	fld	DWORD PTR [esi+84]
	fcomp	ST(5)
	fnstsw	ax
	test	ah, 1
	jne	$LN100@setquadcod

; 271  :     { q |= bit<<1; midy += deltay; }

	fld	ST(2)
	lea	eax, DWORD PTR [ecx+ecx]
	faddp	ST(5), ST(0)
	or	edx, eax
	fxch	ST(4)
$LN1@setquadcod:

; 272  :     else break;
; 273  :     bit <<= 2;

	fxch	ST(4)
	add	ecx, ecx
	fmul	ST(0), ST(1)
	add	ecx, ecx
	fxch	ST(2)
	fmul	ST(0), ST(1)
	fld	DWORD PTR [esi+92]
	fcomp	ST(4)
	fnstsw	ax
	test	ah, 65					; 00000041H
	jp	SHORT $LN18@setquadcod

; 263  :     { q |= bit; midx -= deltax; }

	fxch	ST(3)
	or	edx, ecx
	fsub	ST(0), ST(2)
	jmp	SHORT $LN19@setquadcod
$LN18@setquadcod:

; 264  :     else if ( t->mins[0] >= midx )

	fld	DWORD PTR [esi+80]
	fcomp	ST(4)
	fnstsw	ax
	test	ah, 1
	jne	$LN104@setquadcod

; 265  :     { q |= bit<<1; midx += deltax; }

	fld	ST(2)
	lea	eax, DWORD PTR [ecx+ecx]
	faddp	ST(4), ST(0)
	or	edx, eax
	fxch	ST(3)
$LN19@setquadcod:

; 266  :     else break;
; 267  :     bit <<= 2;
; 268  :     if ( t->maxs[1] <= midy ) 

	fld	DWORD PTR [esi+96]
	add	ecx, ecx
	fcomp	ST(5)
	add	ecx, ecx
	fnstsw	ax
	test	ah, 65					; 00000041H
	jp	SHORT $LN20@setquadcod

; 269  :     { q |= bit; midy -= deltay; }

	fxch	ST(4)
	or	edx, ecx
	fsub	ST(0), ST(3)
	jmp	SHORT $LN21@setquadcod
$LN20@setquadcod:

; 270  :     else if ( t->mins[1] >= midy )

	fld	DWORD PTR [esi+84]
	fcomp	ST(5)
	fnstsw	ax
	test	ah, 1
	jne	$LN100@setquadcod

; 271  :     { q |= bit<<1; midy += deltay; }

	fld	ST(3)
	lea	eax, DWORD PTR [ecx+ecx]
	faddp	ST(5), ST(0)
	or	edx, eax
	fxch	ST(4)
$LN21@setquadcod:

; 272  :     else break;
; 273  :     bit <<= 2;

	fxch	ST(2)
	add	ecx, ecx
	fmul	ST(0), ST(1)
	add	ecx, ecx
	fxch	ST(3)
	fmul	ST(0), ST(1)
	fld	DWORD PTR [esi+92]
	fcomp	ST(5)
	fnstsw	ax
	test	ah, 65					; 00000041H
	jp	SHORT $LN24@setquadcod

; 263  :     { q |= bit; midx -= deltax; }

	fxch	ST(4)
	or	edx, ecx
	fsub	ST(0), ST(3)
	jmp	SHORT $LN25@setquadcod
$LN24@setquadcod:

; 264  :     else if ( t->mins[0] >= midx )

	fld	DWORD PTR [esi+80]
	fcomp	ST(5)
	fnstsw	ax
	test	ah, 1
	jne	$LN96@setquadcod

; 265  :     { q |= bit<<1; midx += deltax; }

	fld	ST(3)
	lea	eax, DWORD PTR [ecx+ecx]
	faddp	ST(5), ST(0)
	or	edx, eax
	fxch	ST(4)
$LN25@setquadcod:

; 266  :     else break;
; 267  :     bit <<= 2;
; 268  :     if ( t->maxs[1] <= midy ) 

	fld	DWORD PTR [esi+96]
	add	ecx, ecx
	fcomp	ST(3)
	add	ecx, ecx
	fnstsw	ax
	test	ah, 65					; 00000041H
	jp	SHORT $LN26@setquadcod

; 269  :     { q |= bit; midy -= deltay; }

	fxch	ST(2)
	or	edx, ecx
	fsub	ST(0), ST(4)
	jmp	SHORT $LN27@setquadcod
$LN26@setquadcod:

; 270  :     else if ( t->mins[1] >= midy )

	fld	DWORD PTR [esi+84]
	fcomp	ST(3)
	fnstsw	ax
	test	ah, 1
	jne	$LN92@setquadcod

; 271  :     { q |= bit<<1; midy += deltay; }

	fld	ST(4)
	lea	eax, DWORD PTR [ecx+ecx]
	faddp	ST(3), ST(0)
	or	edx, eax
	fxch	ST(2)
$LN27@setquadcod:

; 272  :     else break;
; 273  :     bit <<= 2;

	fxch	ST(3)
	add	ecx, ecx
	fmul	ST(0), ST(1)
	add	ecx, ecx
	fxch	ST(4)
	fmul	ST(0), ST(1)
	fld	DWORD PTR [esi+92]
	fcomp	ST(3)
	fnstsw	ax
	test	ah, 65					; 00000041H
	jp	SHORT $LN30@setquadcod

; 263  :     { q |= bit; midx -= deltax; }

	fxch	ST(2)
	or	edx, ecx
	fsub	ST(0), ST(4)
	jmp	SHORT $LN31@setquadcod
$LN30@setquadcod:

; 264  :     else if ( t->mins[0] >= midx )

	fld	DWORD PTR [esi+80]
	fcomp	ST(3)
	fnstsw	ax
	test	ah, 1
	jne	SHORT $LN88@setquadcod

; 265  :     { q |= bit<<1; midx += deltax; }

	fld	ST(4)
	lea	eax, DWORD PTR [ecx+ecx]
	faddp	ST(3), ST(0)
	or	edx, eax
	fxch	ST(2)
$LN31@setquadcod:

; 266  :     else break;
; 267  :     bit <<= 2;
; 268  :     if ( t->maxs[1] <= midy ) 

	fld	DWORD PTR [esi+96]
	add	ecx, ecx
	fcomp	ST(4)
	add	ecx, ecx
	fnstsw	ax
	test	ah, 65					; 00000041H
	jp	SHORT $LN32@setquadcod

; 269  :     { q |= bit; midy -= deltay; }

	fxch	ST(3)
	or	edx, ecx
	fsub	ST(0), ST(2)
	jmp	SHORT $LN33@setquadcod
$LN32@setquadcod:

; 270  :     else if ( t->mins[1] >= midy )

	fld	DWORD PTR [esi+84]
	fcomp	ST(4)
	fnstsw	ax
	test	ah, 1
	jne	SHORT $LN84@setquadcod

; 271  :     { q |= bit<<1; midy += deltay; }

	fld	ST(2)
	lea	eax, DWORD PTR [ecx+ecx]
	faddp	ST(4), ST(0)
	or	edx, eax
	fxch	ST(3)
$LN33@setquadcod:

; 272  :     else break;
; 273  :     bit <<= 2;

	add	ecx, ecx
	fxch	ST(4)
	fmul	ST(0), ST(1)
	add	edi, 4
	add	ecx, ecx
	fxch	ST(2)
	fmul	ST(0), ST(1)
	cmp	edi, 8
	jl	$LN82@setquadcod

; 259  : 
; 260  :   for ( n = 0  ; n < 8 ; n++, deltax /= 2, deltay /= 2 )

	fstp	ST(1)
	pop	edi
	fstp	ST(1)

; 274  :   }
; 275  : 
; 276  :   t->quadcode = q;

	mov	DWORD PTR [esi+120], edx
	fstp	ST(0)

; 277  :   return INTHEBOX;

	mov	eax, 1
	fstp	ST(1)
	pop	esi
	fstp	ST(0)

; 278  : } // end setquadcode()

	pop	ebp
	ret	0
$LN84@setquadcod:

; 270  :     else if ( t->mins[1] >= midy )

	fstp	ST(1)
	pop	edi
	fstp	ST(3)

; 274  :   }
; 275  : 
; 276  :   t->quadcode = q;

	mov	DWORD PTR [esi+120], edx
	fstp	ST(0)

; 277  :   return INTHEBOX;

	mov	eax, 1
	fstp	ST(0)
	pop	esi
	fstp	ST(0)

; 278  : } // end setquadcode()

	pop	ebp
	ret	0
$LN88@setquadcod:

; 264  :     else if ( t->mins[0] >= midx )

	fstp	ST(1)
	pop	edi
	fstp	ST(1)

; 274  :   }
; 275  : 
; 276  :   t->quadcode = q;

	mov	DWORD PTR [esi+120], edx
	fstp	ST(2)

; 277  :   return INTHEBOX;

	mov	eax, 1
	fstp	ST(1)
	pop	esi
	fstp	ST(0)

; 278  : } // end setquadcode()

	pop	ebp
	ret	0
$LN92@setquadcod:

; 270  :     else if ( t->mins[1] >= midy )

	fstp	ST(1)
	pop	edi
	fstp	ST(0)

; 274  :   }
; 275  : 
; 276  :   t->quadcode = q;

	mov	DWORD PTR [esi+120], edx
	fstp	ST(1)

; 277  :   return INTHEBOX;

	mov	eax, 1
	fstp	ST(1)
	pop	esi
	fstp	ST(0)

; 278  : } // end setquadcode()

	pop	ebp
	ret	0
$LN96@setquadcod:

; 264  :     else if ( t->mins[0] >= midx )

	fstp	ST(1)
	pop	edi
	fstp	ST(3)

; 274  :   }
; 275  : 
; 276  :   t->quadcode = q;

	mov	DWORD PTR [esi+120], edx
	fstp	ST(1)

; 277  :   return INTHEBOX;

	mov	eax, 1
	fstp	ST(1)
	pop	esi
	fstp	ST(0)

; 278  : } // end setquadcode()

	pop	ebp
	ret	0
$LN100@setquadcod:

; 270  :     else if ( t->mins[1] >= midy )

	fstp	ST(1)
	pop	edi
	fstp	ST(0)

; 274  :   }
; 275  : 
; 276  :   t->quadcode = q;

	mov	DWORD PTR [esi+120], edx
	fstp	ST(0)

; 277  :   return INTHEBOX;

	mov	eax, 1
	fstp	ST(0)
	pop	esi
	fstp	ST(0)

; 278  : } // end setquadcode()

	pop	ebp
	ret	0
$LN104@setquadcod:

; 264  :     else if ( t->mins[0] >= midx )

	fstp	ST(1)
	pop	edi
	fstp	ST(2)

; 274  :   }
; 275  : 
; 276  :   t->quadcode = q;

	mov	DWORD PTR [esi+120], edx
	fstp	ST(0)

; 277  :   return INTHEBOX;

	mov	eax, 1
	fstp	ST(0)
	pop	esi
	fstp	ST(0)

; 278  : } // end setquadcode()

	pop	ebp
	ret	0
$LN112@setquadcod:

; 264  :     else if ( t->mins[0] >= midx )

	fstp	ST(1)
	pop	edi
	fstp	ST(0)

; 274  :   }
; 275  : 
; 276  :   t->quadcode = q;

	mov	DWORD PTR [esi+120], edx
	fstp	ST(0)

; 277  :   return INTHEBOX;

	mov	eax, 1
	fstp	ST(1)
	pop	esi
	fstp	ST(0)

; 278  : } // end setquadcode()

	pop	ebp
	ret	0
$LN37@setquadcod:

; 253  :   REAL midy = (minclipy+maxclipy)/2;
; 254  :   REAL deltax = (maxclipx-minclipx)/4;
; 255  :   REAL deltay = (maxclipy-minclipy)/4;
; 256  : 
; 257  :   if ( t->maxs[0] < minclipx || t->mins[0] > maxclipx || t->maxs[1] < minclipy
; 258  :        || t->mins[1] > maxclipy ) return OUTOFBOX;

	fstp	ST(2)
	xor	eax, eax
	fstp	ST(0)
	pop	esi
	fstp	ST(1)
	fstp	ST(0)
	fstp	ST(0)
	fstp	ST(0)

; 278  : } // end setquadcode()

	pop	ebp
	ret	0
$LN46@setquadcod:

; 253  :   REAL midy = (minclipy+maxclipy)/2;
; 254  :   REAL deltax = (maxclipx-minclipx)/4;
; 255  :   REAL deltay = (maxclipy-minclipy)/4;
; 256  : 
; 257  :   if ( t->maxs[0] < minclipx || t->mins[0] > maxclipx || t->maxs[1] < minclipy
; 258  :        || t->mins[1] > maxclipy ) return OUTOFBOX;

	fstp	ST(1)
	xor	eax, eax
	fstp	ST(0)
	pop	esi
	fstp	ST(0)
	fstp	ST(1)
	fstp	ST(0)

; 278  : } // end setquadcode()

	pop	ebp
	ret	0
_setquadcode ENDP
_TEXT	ENDS
PUBLIC	??_C@_0BH@MPMLOOCO@Starting?5first?5sweep?4?6?$AA@ ; `string'
PUBLIC	__real@c6293e5939a08cea
PUBLIC	??_C@_0CG@LBNEOEHI@depth?5sort?3?5too?5many?5items?5in?5sw@ ; `string'
PUBLIC	__real@408f400000000000
PUBLIC	__real@c415af1d78b58c40
PUBLIC	__real@4415af1d78b58c40
PUBLIC	_multiple_sweep_prep
EXTRN	_erroutstring:PROC
EXTRN	_init_graphics:DWORD
EXTRN	_kb_error:PROC
EXTRN	_raw_generate:PROC
EXTRN	_bbox_maxx:QWORD
EXTRN	_bbox_maxy:QWORD
EXTRN	_bbox_minx:QWORD
EXTRN	_bbox_miny:QWORD
EXTRN	_memset:PROC
_BSS	SEGMENT
_sweep_bottom DQ 01H DUP (?)
_sweep_top DQ	01H DUP (?)
_sweep_done DD	01H DUP (?)
_sweep_k DD	01H DUP (?)
_count	DD	01H DUP (?)
_sweep_total DD	01H DUP (?)
_maxcount DD	01H DUP (?)
	ALIGN	8

_sweep_delta DQ	01H DUP (?)
_painter_multiple_sweep_flag DD 01H DUP (?)
_sweep_maxs DD	03e8H DUP (?)
_sweep_mins DD	03e8H DUP (?)
_BSS	ENDS
;	COMDAT ??_C@_0BH@MPMLOOCO@Starting?5first?5sweep?4?6?$AA@
CONST	SEGMENT
??_C@_0BH@MPMLOOCO@Starting?5first?5sweep?4?6?$AA@ DB 'Starting first swe'
	DB	'ep.', 0aH, 00H				; `string'
CONST	ENDS
;	COMDAT __real@c6293e5939a08cea
CONST	SEGMENT
__real@c6293e5939a08cea DQ 0c6293e5939a08cear	; -1e+030
CONST	ENDS
;	COMDAT ??_C@_0CG@LBNEOEHI@depth?5sort?3?5too?5many?5items?5in?5sw@
CONST	SEGMENT
??_C@_0CG@LBNEOEHI@depth?5sort?3?5too?5many?5items?5in?5sw@ DB 'depth sor'
	DB	't: too many items in sweep.', 0aH, 00H	; `string'
CONST	ENDS
;	COMDAT __real@408f400000000000
CONST	SEGMENT
__real@408f400000000000 DQ 0408f400000000000r	; 1000
CONST	ENDS
;	COMDAT __real@c415af1d78b58c40
CONST	SEGMENT
__real@c415af1d78b58c40 DQ 0c415af1d78b58c40r	; -1e+020
CONST	ENDS
;	COMDAT __real@4415af1d78b58c40
CONST	SEGMENT
__real@4415af1d78b58c40 DQ 04415af1d78b58c40r	; 1e+020
; Function compile flags: /Ogtp
CONST	ENDS
;	COMDAT _multiple_sweep_prep
_TEXT	SEGMENT
tv493 = -4						; size = 4
_multiple_sweep_prep PROC				; COMDAT

; 286  : { size_t total;

	push	ebp
	mov	ebp, esp
	push	ecx

; 287  :   int k;
; 288  : 
; 289  :   bbox_minx = bbox_miny = 1e20;

	fld	QWORD PTR __real@4415af1d78b58c40
	push	esi
	push	edi
	fst	QWORD PTR _bbox_miny

; 290  :   bbox_maxx = bbox_maxy = -1e20;
; 291  : 
; 292  :   memset((void*)sweep_mins,0,sizeof(sweep_mins));

	push	4000					; 00000fa0H
	fstp	QWORD PTR _bbox_minx
	fld	QWORD PTR __real@c415af1d78b58c40
	push	0
	fst	QWORD PTR _bbox_maxy
	push	OFFSET _sweep_mins
	fstp	QWORD PTR _bbox_maxx
	call	_memset

; 293  :   memset((void*)sweep_maxs,0,sizeof(sweep_maxs));

	push	4000					; 00000fa0H
	push	0
	push	OFFSET _sweep_maxs
	call	_memset

; 294  :   sweep_delta = (sweep_high - sweep_low)/SWEEPBINS;

	fld	QWORD PTR _sweep_high
	fsub	QWORD PTR _sweep_low
	add	esp, 24					; 00000018H

; 295  :   painter_multiple_sweep_flag = MULTIPLE_SWEEP_PREP;

	mov	DWORD PTR _painter_multiple_sweep_flag, 2
	fdiv	QWORD PTR __real@408f400000000000
	fstp	QWORD PTR _sweep_delta

; 296  :   raw_generate();

	call	_raw_generate

; 297  : 
; 298  :   // see if we are ever going to have more than maxcount
; 299  :   // items in a sweep
; 300  :   for ( total = 0, k = 0 ; k < SWEEPBINS ; k++ )

	mov	edx, DWORD PTR _maxcount
	xor	edi, edi
	xor	esi, esi
$LL8@multiple_s:

; 301  :   { total += sweep_mins[k] - (k ? sweep_maxs[k-1] : 0);

	test	esi, esi
	je	SHORT $LN11@multiple_s
	mov	eax, DWORD PTR _sweep_maxs[esi*4-4]
	jmp	SHORT $LN12@multiple_s
$LN11@multiple_s:
	xor	eax, eax
$LN12@multiple_s:
	mov	ecx, DWORD PTR _sweep_mins[esi*4]
	sub	ecx, eax
	add	edi, ecx

; 302  :     if ( total > maxcount )

	cmp	edi, edx
	jbe	SHORT $LN5@multiple_s

; 303  :       kb_error(5532,"depth sort: too many items in sweep.\n",
; 304  :          RECOVERABLE);

	push	1
	push	OFFSET ??_C@_0CG@LBNEOEHI@depth?5sort?3?5too?5many?5items?5in?5sw@
	push	5532					; 0000159cH
	call	_kb_error
	mov	edx, DWORD PTR _maxcount
	add	esp, 12					; 0000000cH
$LN5@multiple_s:

; 305  :     sweep_total += sweep_mins[k];

	mov	eax, DWORD PTR _sweep_mins[esi*4]
	add	DWORD PTR _sweep_total, eax
	inc	esi
	cmp	esi, 1000				; 000003e8H
	jl	SHORT $LL8@multiple_s

; 306  :   }
; 307  : 
; 308  :   // Now set up for first sweep
; 309  :   count = 0;
; 310  :   sweep_done = 0;
; 311  :   for ( total = 0, k = 0 ; k < SWEEPBINS ; k++ )

	xor	eax, eax
	mov	DWORD PTR _count, 0
	xor	ecx, ecx
	npad	4
$LL4@multiple_s:

; 312  :   { if ( total + sweep_mins[k] > maxcount )

	mov	esi, DWORD PTR _sweep_mins[ecx*4]
	add	esi, eax
	cmp	esi, edx
	ja	SHORT $LN15@multiple_s

; 313  :        break;
; 314  :     total += sweep_mins[k];

	mov	eax, esi
	mov	esi, DWORD PTR _sweep_mins[ecx*4+4]
	add	esi, eax
	cmp	esi, edx
	ja	SHORT $LN18@multiple_s
	mov	eax, esi
	mov	esi, DWORD PTR _sweep_mins[ecx*4+8]
	add	esi, eax
	cmp	esi, edx
	ja	SHORT $LN19@multiple_s
	mov	eax, esi
	mov	esi, DWORD PTR _sweep_mins[ecx*4+12]
	add	esi, eax
	cmp	esi, edx
	ja	SHORT $LN20@multiple_s
	mov	eax, esi
	mov	esi, DWORD PTR _sweep_mins[ecx*4+16]
	add	esi, eax
	cmp	esi, edx
	ja	SHORT $LN21@multiple_s
	add	ecx, 5
	mov	eax, esi
	cmp	ecx, 1000				; 000003e8H
	jl	SHORT $LL4@multiple_s
	jmp	SHORT $LN15@multiple_s
$LN18@multiple_s:

; 312  :   { if ( total + sweep_mins[k] > maxcount )

	inc	ecx
	jmp	SHORT $LN15@multiple_s
$LN19@multiple_s:
	add	ecx, 2
	jmp	SHORT $LN15@multiple_s
$LN20@multiple_s:
	add	ecx, 3
	jmp	SHORT $LN15@multiple_s
$LN21@multiple_s:
	add	ecx, 4
$LN15@multiple_s:

; 315  :   }
; 316  :   sweep_k = k;

	mov	DWORD PTR _sweep_k, ecx

; 317  :   sweep_done = total;
; 318  :   sweep_top = sweep_low + (k-1)*sweep_delta;

	dec	ecx
	mov	DWORD PTR tv493[ebp], ecx
	fild	DWORD PTR tv493[ebp]
	mov	DWORD PTR _sweep_done, eax

; 319  :   sweep_bottom = -1e30;
; 320  : 
; 321  :   painter_multiple_sweep_flag = MULTIPLE_SWEEP_GO;

	mov	DWORD PTR _painter_multiple_sweep_flag, 3
	fmul	QWORD PTR _sweep_delta
	fadd	QWORD PTR _sweep_low
	fstp	QWORD PTR _sweep_top
	fld	QWORD PTR __real@c6293e5939a08cea
	fstp	QWORD PTR _sweep_bottom

; 322  :   (*init_graphics)();  // print out postscript header

	call	DWORD PTR _init_graphics

; 323  :   erroutstring("Starting first sweep.\n");

	push	OFFSET ??_C@_0BH@MPMLOOCO@Starting?5first?5sweep?4?6?$AA@
	call	_erroutstring
	add	esp, 4
	pop	edi
	pop	esi

; 324  : 
; 325  : } // end multiple_sweep_prep()

	mov	esp, ebp
	pop	ebp
	ret	0
_multiple_sweep_prep ENDP
_TEXT	ENDS
PUBLIC	_sweep_prep_one
EXTRN	_need_bounding_box:DWORD
EXTRN	__ftol2_sse:PROC
; Function compile flags: /Ogtp
;	COMDAT _sweep_prep_one
_TEXT	SEGMENT
_t$ = 8							; size = 4
_sweep_prep_one PROC					; COMDAT

; 333  : {

	push	ebp
	mov	ebp, esp
	push	esi

; 334  :     int bin = (int)((t->mins[SDIM-1] - sweep_low)/sweep_delta);

	mov	esi, DWORD PTR _t$[ebp]
	push	edi
	mov	edi, DWORD PTR _web+616
	fld	DWORD PTR [esi+edi*4+76]
	fld	QWORD PTR _sweep_low
	fsub	ST(1), ST(0)
	fld	QWORD PTR _sweep_delta
	fdiv	ST(2), ST(0)
	fxch	ST(2)
	call	__ftol2_sse

; 335  :     if ( bin < 0 ) 

	test	eax, eax
	jns	SHORT $LN9@sweep_prep

; 336  :       bin = 0;

	xor	eax, eax

; 337  :     if ( bin >= SWEEPBINS )

	jmp	SHORT $LN8@sweep_prep
$LN9@sweep_prep:
	cmp	eax, 1000				; 000003e8H
	jl	SHORT $LN8@sweep_prep

; 338  :       bin = SWEEPBINS - 1;

	mov	eax, 999				; 000003e7H
$LN8@sweep_prep:

; 339  :     sweep_mins[bin]++;

	inc	DWORD PTR _sweep_mins[eax*4]

; 340  :     bin = (int)((t->maxs[SDIM-1] - sweep_low)/sweep_delta);

	fsubr	DWORD PTR [esi+edi*4+88]
	fdivrp	ST(1), ST(0)
	call	__ftol2_sse

; 341  :     if ( bin < 0 ) 

	test	eax, eax
	jns	SHORT $LN7@sweep_prep

; 342  :       bin = 0;

	xor	eax, eax

; 343  :     if ( bin >= SWEEPBINS )

	jmp	SHORT $LN6@sweep_prep
$LN7@sweep_prep:
	cmp	eax, 1000				; 000003e8H
	jl	SHORT $LN6@sweep_prep

; 344  :       bin = SWEEPBINS - 1;

	mov	eax, 999				; 000003e7H
$LN6@sweep_prep:

; 345  :     sweep_maxs[bin]++;

	inc	DWORD PTR _sweep_maxs[eax*4]

; 346  : 
; 347  :   /* find bounding box */
; 348  :   if ( need_bounding_box )

	cmp	DWORD PTR _need_bounding_box, 0
	je	SHORT $LN1@sweep_prep

; 349  :   { 
; 350  :     { if ( t->mins[0] < bbox_minx ) bbox_minx = (REAL)t->mins[0];

	fld	DWORD PTR [esi+80]
	fcomp	QWORD PTR _bbox_minx
	fnstsw	ax
	test	ah, 5
	jp	SHORT $LN4@sweep_prep
	fld	DWORD PTR [esi+80]
	fstp	QWORD PTR _bbox_minx
$LN4@sweep_prep:

; 351  :       if ( t->mins[1] < bbox_miny ) bbox_miny = (REAL)t->mins[1];

	fld	DWORD PTR [esi+84]
	fcomp	QWORD PTR _bbox_miny
	fnstsw	ax
	test	ah, 5
	jp	SHORT $LN3@sweep_prep
	fld	DWORD PTR [esi+84]
	fstp	QWORD PTR _bbox_miny
$LN3@sweep_prep:

; 352  :       if ( t->maxs[0] > bbox_maxx ) bbox_maxx = (REAL)t->maxs[0];

	fld	DWORD PTR [esi+92]
	fcomp	QWORD PTR _bbox_maxx
	fnstsw	ax
	test	ah, 65					; 00000041H
	jne	SHORT $LN2@sweep_prep
	fld	DWORD PTR [esi+92]
	fstp	QWORD PTR _bbox_maxx
$LN2@sweep_prep:

; 353  :       if ( t->maxs[1] > bbox_maxy ) bbox_maxy = (REAL)t->maxs[1];

	fld	DWORD PTR [esi+96]
	fcomp	QWORD PTR _bbox_maxy
	fnstsw	ax
	test	ah, 65					; 00000041H
	jne	SHORT $LN1@sweep_prep
	fld	DWORD PTR [esi+96]
	fstp	QWORD PTR _bbox_maxy
$LN1@sweep_prep:
	pop	edi
	pop	esi

; 354  :     }
; 355  :   }
; 356  : 
; 357  : } // end sweep_prep_one()

	pop	ebp
	ret	0
_sweep_prep_one ENDP
_TEXT	ENDS
PUBLIC	__real@41f0000000000000
PUBLIC	__real@46293e5939a08cea
PUBLIC	??_C@_0CL@KIDLEPMJ@Sweep?5completed?4?5Done?5?$CFlld?5of?5?$CFl@ ; `string'
PUBLIC	_reset_multiple_sweep
EXTRN	_sprintf:PROC
EXTRN	_msg:DWORD
_BSS	SEGMENT
_textra	DB	036b0H DUP (?)
_BSS	ENDS
;	COMDAT __real@41f0000000000000
CONST	SEGMENT
__real@41f0000000000000 DQ 041f0000000000000r	; 4.29497e+009
CONST	ENDS
;	COMDAT __real@46293e5939a08cea
CONST	SEGMENT
__real@46293e5939a08cea DQ 046293e5939a08cear	; 1e+030
CONST	ENDS
;	COMDAT ??_C@_0CL@KIDLEPMJ@Sweep?5completed?4?5Done?5?$CFlld?5of?5?$CFl@
CONST	SEGMENT
??_C@_0CL@KIDLEPMJ@Sweep?5completed?4?5Done?5?$CFlld?5of?5?$CFl@ DB 'Swee'
	DB	'p completed. Done %lld of %lld items.', 0aH, 00H ; `string'
; Function compile flags: /Ogtp
CONST	ENDS
;	COMDAT _reset_multiple_sweep
_TEXT	SEGMENT
tv581 = -4						; size = 4
tv564 = -4						; size = 4
tv134 = -4						; size = 4
_reset_multiple_sweep PROC				; COMDAT

; 365  : { size_t k,j,total;

	push	ebp
	mov	ebp, esp
	push	ecx

; 366  : 
; 367  :   sprintf(msg,"Sweep completed. Done %lld of %lld items.\n",(long long)sweep_done,
; 368  :       (long long)sweep_total);

	mov	eax, DWORD PTR _sweep_total
	mov	ecx, DWORD PTR _sweep_done
	mov	edx, DWORD PTR _msg
	push	0
	push	eax
	push	0
	push	ecx
	push	OFFSET ??_C@_0CL@KIDLEPMJ@Sweep?5completed?4?5Done?5?$CFlld?5of?5?$CFl@
	push	edx
	call	_sprintf

; 369  :   erroutstring(msg);

	mov	eax, DWORD PTR _msg
	push	eax
	call	_erroutstring
	add	esp, 28					; 0000001cH

; 370  : 
; 371  :   if ( sweep_k >= SWEEPBINS )

	cmp	DWORD PTR _sweep_k, 1000		; 000003e8H
	jb	SHORT $LN15@reset_mult

; 372  :   { painter_multiple_sweep_flag = MULTIPLE_SWEEP_DONE;

	mov	DWORD PTR _painter_multiple_sweep_flag, 4

; 400  : 
; 401  : } // end reset_multiple_sweep()

	mov	esp, ebp
	pop	ebp
	ret	0
$LN15@reset_mult:

; 373  :     return;
; 374  :   }
; 375  : 
; 376  :   // compactify left-over trilist, with extra ones tacked on at end
; 377  :   for ( k = 0, j = 0 ; k < count ; k++ )

	mov	ecx, DWORD PTR _count
	push	ebx
	push	esi
	xor	ebx, ebx
	push	edi
	test	ecx, ecx
	je	SHORT $LN30@reset_mult
	xor	eax, eax
	mov	DWORD PTR tv134[ebp], ecx
	mov	ecx, DWORD PTR _trilist
	xor	edx, edx
	npad	6
$LL33@reset_mult:

; 378  :     if ( trilist[k].flag )

	cmp	DWORD PTR [edx+ecx+28], 0
	lea	esi, DWORD PTR [edx+ecx]
	je	SHORT $LN13@reset_mult

; 379  :       trilist[j++] = trilist[k];

	lea	edi, DWORD PTR [eax+ecx]
	mov	ecx, 35					; 00000023H
	rep movsd
	mov	ecx, DWORD PTR _trilist
	inc	ebx
	add	eax, 140				; 0000008cH
$LN13@reset_mult:

; 373  :     return;
; 374  :   }
; 375  : 
; 376  :   // compactify left-over trilist, with extra ones tacked on at end
; 377  :   for ( k = 0, j = 0 ; k < count ; k++ )

	add	edx, 140				; 0000008cH
	dec	DWORD PTR tv134[ebp]
	jne	SHORT $LL33@reset_mult
	jmp	SHORT $LN12@reset_mult
$LN30@reset_mult:
	mov	ecx, DWORD PTR _trilist
$LN12@reset_mult:

; 380  :   for ( k = 0 ; k < TEXTRA ; k++ )

	mov	eax, ebx
	imul	eax, 140				; 0000008cH
	mov	edx, OFFSET _textra
	mov	DWORD PTR tv564[ebp], 20		; 00000014H
$LL34@reset_mult:

; 381  :     if ( textra[k].flag )

	cmp	DWORD PTR [edx+28], 0
	je	SHORT $LN9@reset_mult

; 382  :       trilist[j++] = textra[k];

	lea	edi, DWORD PTR [eax+ecx]
	mov	ecx, 35					; 00000023H
	mov	esi, edx
	rep movsd
	mov	ecx, DWORD PTR _trilist
	inc	ebx
	add	eax, 140				; 0000008cH
$LN9@reset_mult:

; 381  :     if ( textra[k].flag )

	cmp	DWORD PTR [edx+168], 0
	je	SHORT $LN26@reset_mult

; 382  :       trilist[j++] = textra[k];

	lea	edi, DWORD PTR [eax+ecx]
	lea	esi, DWORD PTR [edx+140]
	mov	ecx, 35					; 00000023H
	rep movsd
	mov	ecx, DWORD PTR _trilist
	inc	ebx
	add	eax, 140				; 0000008cH
$LN26@reset_mult:

; 381  :     if ( textra[k].flag )

	cmp	DWORD PTR [edx+308], 0
	je	SHORT $LN27@reset_mult

; 382  :       trilist[j++] = textra[k];

	lea	edi, DWORD PTR [eax+ecx]
	lea	esi, DWORD PTR [edx+280]
	mov	ecx, 35					; 00000023H
	rep movsd
	mov	ecx, DWORD PTR _trilist
	inc	ebx
	add	eax, 140				; 0000008cH
$LN27@reset_mult:

; 381  :     if ( textra[k].flag )

	cmp	DWORD PTR [edx+448], 0
	je	SHORT $LN28@reset_mult

; 382  :       trilist[j++] = textra[k];

	lea	edi, DWORD PTR [eax+ecx]
	lea	esi, DWORD PTR [edx+420]
	mov	ecx, 35					; 00000023H
	rep movsd
	mov	ecx, DWORD PTR _trilist
	inc	ebx
	add	eax, 140				; 0000008cH
$LN28@reset_mult:

; 381  :     if ( textra[k].flag )

	cmp	DWORD PTR [edx+588], 0
	je	SHORT $LN29@reset_mult

; 382  :       trilist[j++] = textra[k];

	lea	edi, DWORD PTR [eax+ecx]
	lea	esi, DWORD PTR [edx+560]
	mov	ecx, 35					; 00000023H
	rep movsd
	mov	ecx, DWORD PTR _trilist
	inc	ebx
	add	eax, 140				; 0000008cH
$LN29@reset_mult:

; 380  :   for ( k = 0 ; k < TEXTRA ; k++ )

	add	edx, 700				; 000002bcH
	dec	DWORD PTR tv564[ebp]
	jne	$LL34@reset_mult

; 383  :   memset((void*)(trilist+j),0,(maxcount-j)*sizeof(struct tsort));

	mov	esi, DWORD PTR _maxcount
	mov	edx, esi
	sub	edx, ebx
	imul	edx, 140				; 0000008cH
	mov	eax, ebx
	imul	eax, 140				; 0000008cH
	push	edx
	add	eax, ecx
	push	0
	push	eax
	call	_memset

; 384  :   memset((void*)(textra),0,TEXTRA*sizeof(struct tsort));

	push	14000					; 000036b0H
	push	0
	push	OFFSET _textra
	call	_memset

; 385  :   count = j-TEXTRA;
; 386  : 
; 387  :   // Now get bounds for next sweep
; 388  :   for ( total = count, k = sweep_k ; k < SWEEPBINS ; k++ )

	mov	eax, DWORD PTR _sweep_k
	mov	edi, DWORD PTR _sweep_done
	lea	edx, DWORD PTR [ebx-100]
	add	esp, 24					; 00000018H
	mov	DWORD PTR _count, edx
$LL6@reset_mult:

; 389  :   { if ( total + sweep_mins[k] > maxcount )

	mov	ecx, DWORD PTR _sweep_mins[eax*4]
	add	edx, ecx
	cmp	edx, esi
	ja	SHORT $LN35@reset_mult

; 390  :        break;
; 391  :     total += sweep_mins[k];
; 392  :     sweep_done += sweep_mins[k];

	inc	eax
	add	edi, ecx
	cmp	eax, 1000				; 000003e8H
	jb	SHORT $LL6@reset_mult
$LN35@reset_mult:

; 393  :   }
; 394  :   sweep_k = k;
; 395  :   sweep_bottom = sweep_top;

	fld	QWORD PTR _sweep_top
	mov	DWORD PTR _sweep_done, edi
	pop	edi
	fstp	QWORD PTR _sweep_bottom
	pop	esi
	mov	DWORD PTR _sweep_k, eax
	pop	ebx

; 396  :   if ( sweep_k >= SWEEPBINS )

	cmp	eax, 1000				; 000003e8H
	jb	SHORT $LN2@reset_mult

; 397  :     sweep_top = 1e30;

	fld	QWORD PTR __real@46293e5939a08cea

; 398  :   else 
; 399  :     sweep_top = sweep_low + (k-1)*sweep_delta;

	fstp	QWORD PTR _sweep_top

; 400  : 
; 401  : } // end reset_multiple_sweep()

	mov	esp, ebp
	pop	ebp
	ret	0
$LN2@reset_mult:

; 398  :   else 
; 399  :     sweep_top = sweep_low + (k-1)*sweep_delta;

	dec	eax
	mov	DWORD PTR tv581[ebp], eax
	fild	DWORD PTR tv581[ebp]
	jns	SHORT $LN36@reset_mult
	fadd	QWORD PTR __real@41f0000000000000
$LN36@reset_mult:
	fmul	QWORD PTR _sweep_delta
	fadd	QWORD PTR _sweep_low
	fstp	QWORD PTR _sweep_top

; 400  : 
; 401  : } // end reset_multiple_sweep()

	mov	esp, ebp
	pop	ebp
	ret	0
_reset_multiple_sweep ENDP
_TEXT	ENDS
PUBLIC	??_C@_0N@BNIENEOH@ps_linewidth?$AA@		; `string'
PUBLIC	??_C@_0DP@MCIPDJEM@Very?5big?5surface?0?5so?5painter?5alg@ ; `string'
PUBLIC	??_C@_09MBOBPMLK@PAINTER?4C?$AA@		; `string'
PUBLIC	__$ArrayPad$
PUBLIC	_painter_start
EXTRN	_ps_widthattr:DWORD
EXTRN	_find_extra:PROC
EXTRN	_kb_temp_calloc:PROC
EXTRN	__imp__GlobalMemoryStatusEx@4:PROC
EXTRN	_transform_count:DWORD
EXTRN	_transforms_flag:DWORD
EXTRN	_bare_edge_count:DWORD
EXTRN	_torus_display_mode:DWORD
EXTRN	__aulldiv:PROC
;	COMDAT ??_C@_0N@BNIENEOH@ps_linewidth?$AA@
CONST	SEGMENT
??_C@_0N@BNIENEOH@ps_linewidth?$AA@ DB 'ps_linewidth', 00H ; `string'
CONST	ENDS
;	COMDAT ??_C@_0DP@MCIPDJEM@Very?5big?5surface?0?5so?5painter?5alg@
CONST	SEGMENT
??_C@_0DP@MCIPDJEM@Very?5big?5surface?0?5so?5painter?5alg@ DB 'Very big s'
	DB	'urface, so painter algorithm doing multiple sweeps.', 0aH, 00H ; `string'
CONST	ENDS
;	COMDAT ??_C@_09MBOBPMLK@PAINTER?4C?$AA@
CONST	SEGMENT
??_C@_09MBOBPMLK@PAINTER?4C?$AA@ DB 'PAINTER.C', 00H	; `string'
; Function compile flags: /Ogtp
CONST	ENDS
;	COMDAT _painter_start
_TEXT	SEGMENT
_dummy$ = -72						; size = 4
_statex$89271 = -68					; size = 64
__$ArrayPad$ = -4					; size = 4
_painter_start PROC					; COMDAT

; 408  : { int dummy;

	push	ebp
	mov	ebp, esp
	sub	esp, 72					; 00000048H
	mov	eax, DWORD PTR ___security_cookie
	xor	eax, ebp
	mov	DWORD PTR __$ArrayPad$[ebp], eax

; 409  :   size_t allocsize;
; 410  : 
; 411  :   gdim = (SDIM <= 3) ? SDIM : 3;

	mov	eax, DWORD PTR _web+616
	mov	ecx, 3
	mov	DWORD PTR _gdim, eax
	cmp	eax, ecx
	jle	SHORT $LN15@painter_st
	mov	DWORD PTR _gdim, ecx
$LN15@painter_st:
	push	edi

; 416  :      if ( web.torus_flag ) maxcount *= 2;

	xor	edi, edi
	cmp	DWORD PTR _web+624, 1
	jne	SHORT $LN11@painter_st

; 412  : 
; 413  :   /* allocate space for depth sort list */
; 414  :   if ( web.representation == STRING )
; 415  :   {  maxcount = web.skel[EDGE].count + 5;

	mov	eax, DWORD PTR _web+176
	add	eax, 5
	mov	DWORD PTR _maxcount, eax

; 416  :      if ( web.torus_flag ) maxcount *= 2;

	cmp	DWORD PTR _web+860, edi
	je	SHORT $LN5@painter_st
	add	eax, eax

; 417  :   }
; 418  :   else

	jmp	SHORT $LN18@painter_st
$LN11@painter_st:

; 419  :   { if ( web.torus_flag )

	cmp	DWORD PTR _web+860, edi
	je	SHORT $LN8@painter_st

; 420  :       if ( torus_display_mode == TORUS_CLIPPED_MODE )

	cmp	DWORD PTR _torus_display_mode, ecx

; 421  :         maxcount = 5*web.skel[FACET].count+ bare_edge_count + 5;

	mov	ecx, DWORD PTR _web+288
	jne	SHORT $LN7@painter_st
	mov	eax, DWORD PTR _bare_edge_count
	inc	ecx
	lea	eax, DWORD PTR [eax+ecx*4]
	add	eax, ecx
	jmp	SHORT $LN18@painter_st
$LN7@painter_st:

; 422  :       else maxcount = 2*web.skel[FACET].count+ bare_edge_count + 5;

	mov	edx, DWORD PTR _bare_edge_count
	lea	eax, DWORD PTR [edx+ecx*2+5]

; 423  :     else

	jmp	SHORT $LN18@painter_st
$LN8@painter_st:

; 424  :       maxcount = web.skel[FACET].count + bare_edge_count + 5;

	mov	eax, DWORD PTR _web+288
	mov	ecx, DWORD PTR _bare_edge_count
	lea	eax, DWORD PTR [ecx+eax+5]
$LN18@painter_st:
	mov	DWORD PTR _maxcount, eax
$LN5@painter_st:

; 425  :   }
; 426  :   if ( transforms_flag ) maxcount *= transform_count;

	cmp	DWORD PTR _transforms_flag, edi
	je	SHORT $LN4@painter_st
	imul	eax, DWORD PTR _transform_count
	mov	DWORD PTR _maxcount, eax
$LN4@painter_st:

; 427  :   if ( web.dimension > 2 )

	mov	ecx, DWORD PTR _web+620
	cmp	ecx, 2
	jle	SHORT $LN3@painter_st

; 428  :      maxcount *= web.dimension+1; /* each simplex face becomes facet */

	inc	ecx
	imul	eax, ecx
	mov	DWORD PTR _maxcount, eax
$LN3@painter_st:

; 429  :   allocsize = (long)maxcount*sizeof(struct tsort);

	imul	eax, 140				; 0000008cH
	push	esi

; 430  :   painter_multiple_sweep_flag = 0;
; 431  : #ifdef WIN32
; 432  :   { MEMORYSTATUSEX statex;
; 433  :     statex.dwLength = sizeof (statex);
; 434  :     GlobalMemoryStatusEx (&statex);

	lea	edx, DWORD PTR _statex$89271[ebp]
	push	edx
	mov	esi, eax
	mov	DWORD PTR _painter_multiple_sweep_flag, edi
	mov	DWORD PTR _statex$89271[ebp], 64	; 00000040H
	call	DWORD PTR __imp__GlobalMemoryStatusEx@4

; 435  :     if ( allocsize > statex.ullAvailPhys/4 )

	mov	eax, DWORD PTR _statex$89271[ebp+20]
	mov	ecx, DWORD PTR _statex$89271[ebp+16]
	shrd	ecx, eax, 2
	shr	eax, 2
	xor	edx, edx
	cmp	edx, eax
	jb	SHORT $LN17@painter_st
	ja	SHORT $LN16@painter_st
	cmp	esi, ecx
	jbe	SHORT $LN17@painter_st
$LN16@painter_st:

; 436  :     { painter_multiple_sweep_flag = 1;
; 437  :       maxcount = (size_t)(statex.ullAvailPhys/4/sizeof(struct tsort));

	push	edi
	push	140					; 0000008cH
	push	eax
	push	ecx
	mov	DWORD PTR _painter_multiple_sweep_flag, 1
	call	__aulldiv
	mov	DWORD PTR _maxcount, eax
$LN17@painter_st:

; 438  :     }
; 439  :   }
; 440  : #elif defined(LINUX) && !defined(MAC_OS_X)
; 441  :   { struct sysinfo s;
; 442  :     sysinfo(&s);
; 443  :     if ( allocsize > (size_t)(s.freeram)*s.mem_unit/4 )
; 444  :     { painter_multiple_sweep_flag = 1;
; 445  :       maxcount = (size_t)(s.freeram)*s.mem_unit/4;
; 446  :     }
; 447  :   }
; 448  : #else
; 449  :   if ( maxcount >= 1000000  )
; 450  :   { painter_multiple_sweep_flag = 1;
; 451  :     maxcount = 1000000;
; 452  :   }
; 453  : #endif
; 454  :   trilist = (struct tsort *)temp_calloc(maxcount,sizeof(struct tsort));

	mov	eax, DWORD PTR _maxcount
	push	454					; 000001c6H
	push	OFFSET ??_C@_09MBOBPMLK@PAINTER?4C?$AA@
	push	140					; 0000008cH
	push	eax
	call	_kb_temp_calloc
	add	esp, 16					; 00000010H
	mov	DWORD PTR _trilist, eax

; 455  :   count = 0;

	mov	DWORD PTR _count, edi
	pop	esi

; 456  :   if ( painter_multiple_sweep_flag )

	cmp	DWORD PTR _painter_multiple_sweep_flag, edi
	je	SHORT $LN1@painter_st

; 457  :   { erroutstring("Very big surface, so painter algorithm doing multiple sweeps.\n");

	push	OFFSET ??_C@_0DP@MCIPDJEM@Very?5big?5surface?0?5so?5painter?5alg@
	call	_erroutstring
	add	esp, 4

; 458  :     multiple_sweep_prep();

	call	_multiple_sweep_prep
$LN1@painter_st:

; 459  :   }
; 460  :   vis_count = 0;
; 461  :   vis_list = NULL;
; 462  :   vis_max = 0;
; 463  :   backstamp = 0;
; 464  :   ps_widthattr = find_extra(PS_WIDTHNAME,&dummy);

	lea	ecx, DWORD PTR _dummy$[ebp]
	push	ecx
	push	OFFSET ??_C@_0N@BNIENEOH@ps_linewidth?$AA@
	mov	DWORD PTR _vis_count, edi
	mov	DWORD PTR _vis_list, edi
	mov	DWORD PTR _vis_max, edi
	mov	DWORD PTR _backstamp, edi
	call	_find_extra

; 465  : } // end painter_start()

	mov	ecx, DWORD PTR __$ArrayPad$[ebp]
	add	esp, 8
	xor	ecx, ebp
	mov	DWORD PTR _ps_widthattr, eax
	pop	edi
	call	@__security_check_cookie@4
	mov	esp, ebp
	pop	ebp
	ret	0
_painter_start ENDP
_TEXT	ENDS
PUBLIC	__real@3f1a36e2e0000000
PUBLIC	__real@3ff0000000000000
PUBLIC	__$ArrayPad$
PUBLIC	_painter_edge
EXTRN	_dotf:PROC
EXTRN	_ps_gridedgewidth:QWORD
EXTRN	_ps_tripleedgewidth:QWORD
EXTRN	_ps_stringwidth:QWORD
EXTRN	_ps_conedgewidth:QWORD
EXTRN	_ps_fixededgewidth:QWORD
EXTRN	_ps_bareedgewidth:QWORD
EXTRN	_dymem:DWORD
EXTRN	_matvec_mul:PROC
EXTRN	_view:DWORD
EXTRN	_HOMDIM:DWORD
EXTRN	_kb_temp_realloc:PROC
;	COMDAT __real@3f1a36e2e0000000
CONST	SEGMENT
__real@3f1a36e2e0000000 DQ 03f1a36e2e0000000r	; 0.0001
CONST	ENDS
;	COMDAT __real@3ff0000000000000
CONST	SEGMENT
__real@3ff0000000000000 DQ 03ff0000000000000r	; 1
; Function compile flags: /Ogtp
CONST	ENDS
;	COMDAT _painter_edge
_TEXT	SEGMENT
tv1588 = -132						; size = 4
_t$ = -128						; size = 4
tv193 = -124						; size = 4
_ctrl_pts$ = -124					; size = 4
tv1544 = -120						; size = 4
tv1533 = -120						; size = 4
tv1044 = -120						; size = 4
_b$ = -116						; size = 56
_a$ = -60						; size = 56
__$ArrayPad$ = -4					; size = 4
_gdata$ = 8						; size = 4
_e_id$ = 12						; size = 4
_painter_edge PROC					; COMDAT

; 477  : {

	push	ebp
	mov	ebp, esp
	sub	esp, 132				; 00000084H
	mov	eax, DWORD PTR ___security_cookie
	xor	eax, ebp
	mov	DWORD PTR __$ArrayPad$[ebp], eax
	push	esi

; 478  :   struct tsort *t;
; 479  :   int i,j;
; 480  :   REAL a[MAXCOORD+1],b[MAXCOORD+1];
; 481  :   REAL dx,dy,dz,mag,width;
; 482  :   int ctrl_pts = gdata[0].flags & EDGE_ARC ? 3 : 2;

	mov	esi, DWORD PTR _gdata$[ebp]
	push	edi
	mov	edi, DWORD PTR [esi+136]
	and	edi, 32768				; 00008000H
	or	edi, 65536				; 00010000H
	shr	edi, 15					; 0000000fH

; 483  : 
; 484  :   if ( gdata->color == CLEAR ) return;

	cmp	DWORD PTR [esi+104], -1
	mov	DWORD PTR _ctrl_pts$[ebp], edi
	je	$LN44@painter_ed

; 485  :   if ( count >= maxcount-2 )

	mov	eax, DWORD PTR _maxcount
	push	ebx
	mov	ebx, DWORD PTR _count
	lea	ecx, DWORD PTR [eax-2]
	cmp	ebx, ecx
	jb	SHORT $LN75@painter_ed

; 486  :   { trilist = (struct tsort *)temp_realloc((char*)trilist,
; 487  :          (maxcount+200)*sizeof(struct tsort));

	mov	edx, DWORD PTR _trilist
	add	eax, 200				; 000000c8H
	imul	eax, 140				; 0000008cH
	push	487					; 000001e7H
	push	OFFSET ??_C@_09MBOBPMLK@PAINTER?4C?$AA@
	push	eax
	push	edx
	call	_kb_temp_realloc

; 488  :     maxcount += 200;

	mov	ebx, DWORD PTR _count
	add	esp, 16					; 00000010H
	add	DWORD PTR _maxcount, 200		; 000000c8H
	mov	DWORD PTR _trilist, eax
$LN75@painter_ed:

; 489  :   }
; 490  : 
; 491  :   t = trilist + count;

	imul	ebx, 140				; 0000008cH
	add	ebx, DWORD PTR _trilist

; 492  :   t->flag = EDGE;

	mov	DWORD PTR [ebx+28], 1

; 493  :   t->flag |= (gdata->flags & (EDGE_ARC|LABEL_EDGE|LABEL_HEAD|LABEL_TAIL));

	mov	eax, DWORD PTR [esi+136]
	and	eax, 39936				; 00009c00H
	or	eax, 1
	mov	DWORD PTR [ebx+28], eax

; 494  :   for ( j =  SDIM ; j < HOMDIM-1 ; j++ ) a[j] = 0.0; /* filler */

	mov	ecx, DWORD PTR _HOMDIM
	mov	edx, DWORD PTR _web+616
	dec	ecx
	mov	DWORD PTR _t$[ebp], ebx
	cmp	edx, ecx
	jge	SHORT $LN41@painter_ed

; 489  :   }
; 490  : 
; 491  :   t = trilist + count;

	sub	ecx, edx
	add	ecx, ecx
	and	ecx, 1073741822				; 3ffffffeH
	lea	edi, DWORD PTR _a$[ebp+edx*8]
	xor	eax, eax
	rep stosd
	mov	edi, DWORD PTR _ctrl_pts$[ebp]
$LN41@painter_ed:

; 495  :   for ( i = 0 ; i < ctrl_pts ; i++ )

	test	edi, edi
	jle	$LN36@painter_ed
	lea	ecx, DWORD PTR [ebx+40]
	mov	DWORD PTR tv1544[ebp], ecx
	mov	ecx, DWORD PTR _ctrl_pts$[ebp]
	lea	eax, DWORD PTR [ebx+36]
	xor	esi, esi
	mov	DWORD PTR tv1588[ebp], eax
	mov	DWORD PTR tv193[ebp], ecx
	jmp	SHORT $LN38@painter_ed
$LL76@painter_ed:
	mov	edx, DWORD PTR _web+616
$LN38@painter_ed:

; 496  :   {
; 497  :     for ( j = 0 ; (j < SDIM) && (j < HOMDIM-1) ; j++ ) 

	xor	eax, eax
	cmp	edx, 4
	jl	SHORT $LC58@painter_ed

; 501  :     if ( SDIM <= 2 )

	mov	edi, DWORD PTR _HOMDIM
	dec	edi
	npad	7
$LL62@painter_ed:

; 496  :   {
; 497  :     for ( j = 0 ; (j < SDIM) && (j < HOMDIM-1) ; j++ ) 

	cmp	eax, edi
	jge	SHORT $LN82@painter_ed

; 498  :         a[j] = gdata[i].x[j];

	mov	ecx, DWORD PTR _gdata$[ebp]
	lea	edx, DWORD PTR [esi+eax]
	fld	QWORD PTR [ecx+edx*8]
	lea	edx, DWORD PTR [ecx+edx*8]
	lea	ecx, DWORD PTR [eax+2]
	fstp	QWORD PTR _a$[ebp+eax*8]
	lea	ebx, DWORD PTR [ecx-1]
	cmp	ebx, edi
	jge	SHORT $LN80@painter_ed
	fld	QWORD PTR [edx+8]
	fstp	QWORD PTR _a$[ebp+eax*8+8]
	cmp	ecx, edi
	jge	SHORT $LN80@painter_ed
	mov	edx, DWORD PTR _gdata$[ebp]
	lea	ebx, DWORD PTR [esi+eax+3]
	fld	QWORD PTR [edx+ebx*8-8]
	mov	ebx, DWORD PTR _t$[ebp]
	inc	ecx
	fstp	QWORD PTR _a$[ebp+eax*8+16]
	cmp	ecx, edi
	jge	SHORT $LN82@painter_ed
	lea	ecx, DWORD PTR [esi+eax+3]
	fld	QWORD PTR [edx+ecx*8]
	mov	edx, DWORD PTR _web+616
	fstp	QWORD PTR _a$[ebp+eax*8+24]
	add	eax, 4
	lea	ecx, DWORD PTR [edx-3]
	cmp	eax, ecx
	jl	SHORT $LL62@painter_ed
$LC58@painter_ed:

; 496  :   {
; 497  :     for ( j = 0 ; (j < SDIM) && (j < HOMDIM-1) ; j++ ) 

	cmp	eax, edx
	jge	SHORT $LN82@painter_ed
	npad	1
$LL81@painter_ed:
	mov	ecx, DWORD PTR _HOMDIM
	dec	ecx
	cmp	eax, ecx
	jge	SHORT $LN82@painter_ed

; 498  :         a[j] = gdata[i].x[j];

	mov	edi, DWORD PTR _gdata$[ebp]
	lea	ecx, DWORD PTR [esi+eax]
	fld	QWORD PTR [edi+ecx*8]
	inc	eax
	fstp	QWORD PTR _a$[ebp+eax*8-8]
	cmp	eax, edx
	jl	SHORT $LL81@painter_ed

; 496  :   {
; 497  :     for ( j = 0 ; (j < SDIM) && (j < HOMDIM-1) ; j++ ) 

	jmp	SHORT $LN82@painter_ed
$LN80@painter_ed:
	mov	ebx, DWORD PTR _t$[ebp]
$LN82@painter_ed:

; 499  :     a[HOMDIM-1] = 1.0;

	mov	eax, DWORD PTR _HOMDIM
	fld1

; 500  :     matvec_mul(view,a,b,HOMDIM,HOMDIM);  /* transform */

	mov	ecx, DWORD PTR _view
	fstp	QWORD PTR _a$[ebp+eax*8-8]
	push	eax
	push	eax
	lea	edx, DWORD PTR _b$[ebp]
	push	edx
	lea	eax, DWORD PTR _a$[ebp]
	push	eax
	push	ecx
	call	_matvec_mul

; 502  :       for ( j = 0 ; j < 3 ; j++ ) t->x[i][j] = (float)b[j];

	mov	ecx, DWORD PTR tv1588[ebp]
	add	esp, 20					; 00000014H
	cmp	DWORD PTR _web+616, 2
	jg	SHORT $LN32@painter_ed
	fld	QWORD PTR _b$[ebp]
	fstp	DWORD PTR [ecx-4]
	fld	QWORD PTR _b$[ebp+8]
	fstp	DWORD PTR [ecx]
	fld	QWORD PTR _b$[ebp+16]
	fstp	DWORD PTR [ecx+4]

; 503  :     else  for ( j = 0 ; j < 3 ; j++ ) t->x[i][j] = (float)b[(j+1)%3];

	jmp	SHORT $LN67@painter_ed
$LN32@painter_ed:
	fld	QWORD PTR _b$[ebp+8]
	mov	eax, DWORD PTR tv1588[ebp]
	fstp	DWORD PTR [eax-4]
	fld	QWORD PTR _b$[ebp+16]
	fstp	DWORD PTR [eax]
	fld	QWORD PTR _b$[ebp]
	fstp	DWORD PTR [eax+4]
$LN67@painter_ed:

; 504  :     t->x[i][2] += (float).0001;   /* bias edges in front of facets */

	mov	eax, DWORD PTR tv1544[ebp]
	fld	DWORD PTR [eax]
	add	ecx, 12					; 0000000cH
	fadd	QWORD PTR __real@3f1a36e2e0000000
	add	eax, 12					; 0000000cH
	add	esi, 18					; 00000012H
	dec	DWORD PTR tv193[ebp]
	fstp	DWORD PTR [eax-12]
	mov	DWORD PTR tv1588[ebp], ecx
	mov	DWORD PTR tv1544[ebp], eax
	jne	$LL76@painter_ed

; 495  :   for ( i = 0 ; i < ctrl_pts ; i++ )

	mov	esi, DWORD PTR _gdata$[ebp]
$LN36@painter_ed:

; 505  :   }
; 506  : 
; 507  :   /* width of edge, in descending order of thickness */
; 508  :   if ( ps_widthattr >= 0 )

	mov	eax, DWORD PTR _ps_widthattr
	test	eax, eax
	js	SHORT $LN24@painter_ed

; 509  :     width = *EREAL(t->f_id,ps_widthattr);

	mov	edx, DWORD PTR [ebx]
	imul	eax, 240				; 000000f0H
	mov	ecx, DWORD PTR _web+124
	and	edx, 134217727				; 07ffffffH
	mov	edx, DWORD PTR [ecx+edx*4]
	add	eax, DWORD PTR _web+216
	mov	ecx, DWORD PTR _dymem
	mov	eax, DWORD PTR [eax+ecx+64]
	fld	QWORD PTR [edx+eax]
	jmp	SHORT $LN11@painter_ed
$LN24@painter_ed:

; 510  :   else if ( gdata->etype & BARE_EDGE ) width = ps_bareedgewidth;

	movzx	eax, WORD PTR [esi+124]
	test	al, 64					; 00000040H
	je	SHORT $LN22@painter_ed
	fld	QWORD PTR _ps_bareedgewidth
	jmp	SHORT $LN11@painter_ed
$LN22@painter_ed:

; 511  :   else if ( gdata->etype & FIXED_EDGE ) width = ps_fixededgewidth;

	test	al, 16					; 00000010H
	je	SHORT $LN20@painter_ed
	fld	QWORD PTR _ps_fixededgewidth
	jmp	SHORT $LN11@painter_ed
$LN20@painter_ed:

; 512  :   else if ( gdata->etype & CONSTRAINT_EDGE ) width = ps_conedgewidth;

	test	al, 32					; 00000020H
	je	SHORT $LN18@painter_ed
	fld	QWORD PTR _ps_conedgewidth
	jmp	SHORT $LN11@painter_ed
$LN18@painter_ed:

; 513  :   else if ( gdata->etype & BOUNDARY_EDGE ) width = ps_conedgewidth;

	test	al, 8
	je	SHORT $LN16@painter_ed
	fld	QWORD PTR _ps_conedgewidth
	jmp	SHORT $LN11@painter_ed
$LN16@painter_ed:

; 514  :   else if ( gdata->etype & SINGLE_EDGE ) width = ps_stringwidth;

	test	al, 4
	je	SHORT $LN14@painter_ed
	fld	QWORD PTR _ps_stringwidth
	jmp	SHORT $LN11@painter_ed
$LN14@painter_ed:

; 515  :   else if ( gdata->etype & TRIPLE_EDGE ) width = ps_tripleedgewidth;

	test	al, 2
	je	SHORT $LN12@painter_ed
	fld	QWORD PTR _ps_tripleedgewidth
	jmp	SHORT $LN11@painter_ed
$LN12@painter_ed:

; 516  :   else width = ps_gridedgewidth; /* regular grid interior edge */

	fld	QWORD PTR _ps_gridedgewidth
$LN11@painter_ed:

; 517  :   t->width = (float)width;
; 518  : 
; 519  :   t->f_id = e_id;

	mov	ecx, DWORD PTR _e_id$[ebp]
	fstp	DWORD PTR [ebx+104]
	mov	DWORD PTR [ebx], ecx

; 520  :   t->color = t->ecolor[0] =  gdata->ecolor;

	mov	eax, DWORD PTR [esi+120]
	mov	DWORD PTR [ebx+8], eax
	mov	DWORD PTR [ebx+4], eax

; 521  :   t->etype[0] = gdata->etype;

	mov	dx, WORD PTR [esi+124]

; 522  :   /* find extents */
; 523  :   find_bbox(t);

	push	ebx
	mov	WORD PTR [ebx+20], dx
	call	_find_bbox

; 524  : 
; 525  :   if ( painter_multiple_sweep_flag == MULTIPLE_SWEEP_PREP )

	mov	eax, DWORD PTR _painter_multiple_sweep_flag
	add	esp, 4
	cmp	eax, 2
	jne	SHORT $LN10@painter_ed

; 526  :   { sweep_prep_one(t);

	push	ebx
	call	_sweep_prep_one
	add	esp, 4
	pop	ebx
	pop	edi
	pop	esi

; 547  : } // end painter_edge()

	mov	ecx, DWORD PTR __$ArrayPad$[ebp]
	xor	ecx, ebp
	call	@__security_check_cookie@4
	mov	esp, ebp
	pop	ebp
	ret	0
$LN10@painter_ed:

; 527  :     return;
; 528  :   }
; 529  :   else if ( painter_multiple_sweep_flag == MULTIPLE_SWEEP_GO )

	cmp	eax, 3
	jne	SHORT $LN7@painter_ed

; 530  :   { if ( t->mins[SDIM-1] > sweep_top || t->mins[SDIM-1] <= sweep_bottom ) 

	mov	ecx, DWORD PTR _web+616
	fld	DWORD PTR [ebx+ecx*4+76]
	fcomp	QWORD PTR _sweep_top
	fnstsw	ax
	test	ah, 65					; 00000041H
	je	$LN83@painter_ed
	fld	DWORD PTR [ebx+ecx*4+76]
	fcomp	QWORD PTR _sweep_bottom
	fnstsw	ax
	test	ah, 65					; 00000041H

; 531  :       return;

	jnp	$LN83@painter_ed
$LN7@painter_ed:

; 532  :   }
; 533  : 
; 534  :   /* normal vector, closest to z axis */
; 535  :   dx = t->x[1][0] - t->x[0][0];

	fld	DWORD PTR [ebx+44]

; 536  :   dy = t->x[1][1] - t->x[0][1];
; 537  :   dz = t->x[1][2] - t->x[0][2];
; 538  :   t->normal[0] = (float)(dx*dz);

	lea	esi, DWORD PTR [ebx+68]
	fsub	DWORD PTR [ebx+32]

; 539  :   t->normal[1] = (float)(dy*dz);
; 540  :   t->normal[2] = -(float)(dx*dx+dy*dy);
; 541  :   mag = sqrt(dotf(t->normal,t->normal,3));

	push	3
	fld	DWORD PTR [ebx+48]
	push	esi
	fsub	DWORD PTR [ebx+36]
	push	esi
	fld	DWORD PTR [ebx+52]
	fsub	DWORD PTR [ebx+40]
	fld	ST(0)
	fmul	ST(0), ST(3)
	fstp	DWORD PTR [esi]
	fmul	ST(0), ST(1)
	fstp	DWORD PTR [ebx+72]
	fmul	ST(0), ST(0)
	fld	ST(1)
	fmulp	ST(2), ST(0)
	faddp	ST(1), ST(0)
	fstp	DWORD PTR tv1533[ebp]
	fld	DWORD PTR tv1533[ebp]
	fchs
	fstp	DWORD PTR [ebx+76]
	call	_dotf
	add	esp, 12					; 0000000cH
	call	__CIsqrt

; 542  :   if ( mag != 0.0 )

	fld	ST(0)
	fldz
	fucompp
	fnstsw	ax
	test	ah, 68					; 00000044H
	jnp	SHORT $LN86@painter_ed

; 543  :       for ( i = 0 ; i < 3; i++ ) t->normal[i] /= (float)mag;

	fstp	DWORD PTR tv1044[ebp]
	fld	DWORD PTR [esi]
	fld	DWORD PTR tv1044[ebp]
	fld	ST(0)
	fdivp	ST(2), ST(0)
	fxch	ST(1)
	fstp	DWORD PTR [esi]
	fld	DWORD PTR [ebx+72]
	fdiv	ST(0), ST(1)
	fstp	DWORD PTR [ebx+72]
	fdivr	DWORD PTR [ebx+76]
	fstp	DWORD PTR [ebx+76]
	jmp	SHORT $LN71@painter_ed
$LN86@painter_ed:
	fstp	ST(0)
$LN71@painter_ed:

; 544  : 
; 545  :   if ( setquadcode(t) == OUTOFBOX ) return;

	push	ebx
	call	_setquadcode
	add	esp, 4
	test	eax, eax
	je	SHORT $LN83@painter_ed

; 546  :   count++;

	inc	DWORD PTR _count
$LN83@painter_ed:
	pop	ebx
$LN44@painter_ed:

; 547  : } // end painter_edge()

	mov	ecx, DWORD PTR __$ArrayPad$[ebp]
	pop	edi
	xor	ecx, ebp
	pop	esi
	call	@__security_check_cookie@4
	mov	esp, ebp
	pop	ebp
	ret	0
_painter_edge ENDP
_TEXT	ENDS
PUBLIC	__real@3f800000
PUBLIC	__real@3eb0c6f7a0b5ed8d
PUBLIC	__real@00000000
PUBLIC	__$ArrayPad$
PUBLIC	_painter_facet
EXTRN	_backcull_flag:DWORD
EXTRN	_vnormal:PROC
;	COMDAT __real@3f800000
; File c:\levolver\yonkang-sefit\levolver\ev_ogl\inline.h
CONST	SEGMENT
__real@3f800000 DD 03f800000r			; 1
CONST	ENDS
;	COMDAT __real@3eb0c6f7a0b5ed8d
CONST	SEGMENT
__real@3eb0c6f7a0b5ed8d DQ 03eb0c6f7a0b5ed8dr	; 1e-006
CONST	ENDS
;	COMDAT __real@00000000
CONST	SEGMENT
__real@00000000 DD 000000000r			; 0
; Function compile flags: /Ogtp
; File c:\levolver\yonkang-sefit\levolver\ev_ogl\painter.c
CONST	ENDS
;	COMDAT _painter_facet
_TEXT	SEGMENT
tv1932 = -580						; size = 4
tv1475 = -580						; size = 4
tv2073 = -576						; size = 4
tv2008 = -572						; size = 4
_i$ = -572						; size = 4
tv1922 = -568						; size = 4
_temp$89418 = -568					; size = 4
_fe$89370 = -568					; size = 4
_ggdata$89369 = -564					; size = 288
_b$ = -276						; size = 168
_normal$ = -108						; size = 48
_a$ = -60						; size = 56
__$ArrayPad$ = -4					; size = 4
_gdata$ = 8						; size = 4
_f_id$ = 12						; size = 4
_painter_facet PROC					; COMDAT

; 559  : {

	push	ebp
	mov	ebp, esp
	sub	esp, 580				; 00000244H
	mov	eax, DWORD PTR ___security_cookie
	xor	eax, ebp
	mov	DWORD PTR __$ArrayPad$[ebp], eax
	push	ebx
	mov	ebx, DWORD PTR _gdata$[ebp]

; 560  :   int i,j;
; 561  :   REAL a[MAXCOORD+1],b[FACET_VERTS][MAXCOORD+1];
; 562  :   struct tsort *t;
; 563  :   REAL normal[MAXCOORD],mag;
; 564  : 
; 565  :   if ( gdata[0].color == UNSHOWN )

	cmp	DWORD PTR [ebx+104], -3			; fffffffdH
	push	esi
	push	edi
	jne	$LN40@painter_fa

; 566  :   { /* just do edges */
; 567  :     struct graphdata ggdata[2];
; 568  :     facetedge_id fe=NULLID;
; 569  :     if ( valid_id(f_id) )

	mov	eax, DWORD PTR _f_id$[ebp]
	xor	edx, edx
	mov	DWORD PTR _fe$89370[ebp], edx
	test	eax, 268435456				; 10000000H
	je	SHORT $LN82@painter_fa

; 570  :       fe = get_facet_fe(f_id);

	mov	esi, DWORD PTR _web+236
	mov	ecx, eax
	and	ecx, 134217727				; 07ffffffH
	mov	ecx, DWORD PTR [esi+ecx*4]
	mov	ecx, DWORD PTR [ecx+28]
	test	eax, 134217728				; 08000000H
	je	SHORT $LN45@painter_fa
	xor	ecx, 134217728				; 08000000H
$LN45@painter_fa:
	mov	DWORD PTR _fe$89370[ebp], ecx
$LN82@painter_fa:

; 571  :     for ( i = 0 ; i < FACET_EDGES ; i++ )

	mov	DWORD PTR _i$[ebp], edx
$LL38@painter_fa:

; 572  :     { if ( (gdata[i].etype&EBITS) == INVISIBLE_EDGE ) continue;

	lea	eax, DWORD PTR [edx+edx*8]
	shl	eax, 4
	add	eax, ebx
	mov	ecx, 767				; 000002ffH
	test	WORD PTR [eax+124], cx
	je	$LN37@painter_fa

; 573  :       ggdata[0] = gdata[i]; 

	mov	esi, eax

; 574  :       ggdata[0].color = gdata[i].ecolor;

	mov	eax, DWORD PTR [eax+120]
	mov	ecx, 36					; 00000024H
	lea	edi, DWORD PTR _ggdata$89369[ebp]
	rep movsd
	mov	DWORD PTR _ggdata$89369[ebp+104], eax

; 575  :       ggdata[1] = gdata[i==2 ? 0 : i+1];

	cmp	edx, 2
	jne	SHORT $LN43@painter_fa
	xor	eax, eax
	jmp	SHORT $LN44@painter_fa
$LN43@painter_fa:
	lea	eax, DWORD PTR [edx+1]
$LN44@painter_fa:
	lea	esi, DWORD PTR [eax+eax*8]

; 576  :       if ( valid_id(fe) )

	mov	eax, DWORD PTR _fe$89370[ebp]
	shl	esi, 4
	add	esi, ebx
	mov	ecx, 36					; 00000024H
	lea	edi, DWORD PTR _ggdata$89369[ebp+144]
	rep movsd
	test	eax, 268435456				; 10000000H
	je	SHORT $LN34@painter_fa

; 577  :       { painter_edge(ggdata,get_fe_edge(fe));

	mov	ecx, DWORD PTR _web+460
	mov	esi, eax
	and	esi, 134217727				; 07ffffffH
	add	esi, esi
	add	esi, esi
	mov	edx, DWORD PTR [esi+ecx]
	and	eax, 134217728				; 08000000H
	xor	eax, DWORD PTR [edx+20]
	push	eax
	lea	eax, DWORD PTR _ggdata$89369[ebp]
	push	eax
	call	_painter_edge
	add	esp, 8

; 578  :         fe = get_next_edge(fe);

	test	DWORD PTR _fe$89370[ebp], 134217728	; 08000000H
	je	SHORT $LN52@painter_fa
	mov	ecx, DWORD PTR _web+460
	mov	edx, DWORD PTR [esi+ecx]
	mov	eax, DWORD PTR [edx+28]
	xor	eax, 134217728				; 08000000H
	mov	DWORD PTR _fe$89370[ebp], eax
	jmp	SHORT $LN98@painter_fa
$LN52@painter_fa:
	mov	eax, DWORD PTR _web+460
	mov	ecx, DWORD PTR [esi+eax]
	mov	edx, DWORD PTR [ecx+32]
	mov	DWORD PTR _fe$89370[ebp], edx
	jmp	SHORT $LN98@painter_fa
$LN34@painter_fa:

; 579  :       }
; 580  :       else painter_edge(ggdata,NULLID);

	lea	eax, DWORD PTR _ggdata$89369[ebp]
	push	0
	push	eax
	call	_painter_edge
	add	esp, 8
$LN98@painter_fa:
	mov	edx, DWORD PTR _i$[ebp]
$LN37@painter_fa:

; 571  :     for ( i = 0 ; i < FACET_EDGES ; i++ )

	inc	edx
	mov	DWORD PTR _i$[ebp], edx
	cmp	edx, 3
	jl	$LL38@painter_fa
	pop	edi
	pop	esi
	pop	ebx

; 679  : } // end painter_facet()

	mov	ecx, DWORD PTR __$ArrayPad$[ebp]
	xor	ecx, ebp
	call	@__security_check_cookie@4
	mov	esp, ebp
	pop	ebp
	ret	0
$LN40@painter_fa:

; 581  :     }
; 582  :     return;
; 583  :   }
; 584  : 
; 585  :   if ( count >= maxcount )

	mov	esi, DWORD PTR _count
	mov	eax, DWORD PTR _maxcount
	cmp	esi, eax
	jb	SHORT $LN79@painter_fa

; 586  :   { trilist = (struct tsort *)temp_realloc((char*)trilist,
; 587  :          (maxcount+200)*sizeof(struct tsort));

	mov	ecx, DWORD PTR _trilist
	add	eax, 200				; 000000c8H
	imul	eax, 140				; 0000008cH
	push	587					; 0000024bH
	push	OFFSET ??_C@_09MBOBPMLK@PAINTER?4C?$AA@
	push	eax
	push	ecx
	call	_kb_temp_realloc

; 588  :     maxcount += 200;

	mov	esi, DWORD PTR _count
	add	esp, 16					; 00000010H
	add	DWORD PTR _maxcount, 200		; 000000c8H
	mov	DWORD PTR _trilist, eax
$LN79@painter_fa:

; 591  :   t->flag = FACET | (gdata->flags&LABEL_FACET);

	mov	edx, DWORD PTR [ebx+136]
	imul	esi, 140				; 0000008cH
	add	esi, DWORD PTR _trilist

; 592  :   t->f_id = f_id;

	mov	eax, DWORD PTR _f_id$[ebp]
	mov	DWORD PTR [esi], eax
	and	edx, 8192				; 00002000H
	or	edx, 2
	mov	DWORD PTR [esi+28], edx

; 593  :   t->color = gdata[0].backcolor;  /* not sure why, but works */

	mov	ecx, DWORD PTR [ebx+108]
	mov	DWORD PTR [esi+4], ecx

; 594  :   for ( i = 0 ; i < FACET_EDGES ; i++ ) 
; 595  :   { t->ecolor[i] = gdata[i].ecolor;

	mov	edx, DWORD PTR [ebx+120]
	mov	DWORD PTR [esi+8], edx

; 596  :     t->etype[i] = gdata[i].etype;

	movzx	eax, WORD PTR [ebx+124]
	mov	WORD PTR [esi+20], ax

; 597  :     t->v_id[i] = gdata[i].v_id;

	mov	ecx, DWORD PTR [ebx+132]
	mov	DWORD PTR [esi+108], ecx
	mov	edx, DWORD PTR [ebx+264]
	mov	DWORD PTR [esi+12], edx
	movzx	eax, WORD PTR [ebx+268]
	mov	WORD PTR [esi+22], ax
	mov	ecx, DWORD PTR [ebx+276]
	mov	DWORD PTR [esi+112], ecx
	mov	edx, DWORD PTR [ebx+408]
	mov	DWORD PTR [esi+16], edx
	movzx	eax, WORD PTR [ebx+412]
	mov	WORD PTR [esi+24], ax
	mov	ecx, DWORD PTR [ebx+420]
	mov	DWORD PTR [esi+116], ecx

; 598  :   }
; 599  : 
; 600  :   /* accumulate list of triangles to display */
; 601  : 
; 602  :   for ( j = SDIM ; j < HOMDIM-1 ; j++ ) a[j] = 0.0;

	mov	ecx, DWORD PTR _HOMDIM
	mov	edx, DWORD PTR _web+616
	dec	ecx
	cmp	edx, ecx
	jge	SHORT $LN28@painter_fa

; 589  :   }
; 590  :   t = trilist + count;

	sub	ecx, edx
	add	ecx, ecx
	and	ecx, 1073741822				; 3ffffffeH
	lea	edi, DWORD PTR _a$[ebp+edx*8]
	xor	eax, eax
	rep stosd
$LN28@painter_fa:

; 603  :   for ( i = 0 ; i < FACET_VERTS ; i++ )

	xor	edi, edi
	lea	eax, DWORD PTR _b$[ebp]
	lea	ecx, DWORD PTR [esi+36]
	mov	DWORD PTR tv1922[ebp], edi
	mov	DWORD PTR tv2008[ebp], eax
	mov	DWORD PTR tv2073[ebp], ecx
	jmp	SHORT $LN25@painter_fa
$LL80@painter_fa:
	mov	edx, DWORD PTR _web+616
$LN25@painter_fa:

; 604  :   {
; 605  :     for ( j = 0 ; (j < SDIM) && (j < HOMDIM-1) ; j++ ) 

	xor	eax, eax
	cmp	edx, 4
	jl	$LC71@painter_fa
	mov	edx, DWORD PTR _HOMDIM
	dec	edx
	npad	7
$LL85@painter_fa:
	cmp	eax, edx
	jge	$LN89@painter_fa

; 606  :       a[j] = gdata[i].x[j];

	add	edi, eax
	fld	QWORD PTR [ebx+edi*8]
	lea	ecx, DWORD PTR [ebx+edi*8]
	mov	DWORD PTR tv1932[ebp], ecx
	fstp	QWORD PTR _a$[ebp+eax*8]
	lea	ecx, DWORD PTR [eax+2]
	lea	edi, DWORD PTR [ecx-1]
	cmp	edi, edx
	jge	SHORT $LN86@painter_fa
	mov	edi, DWORD PTR tv1932[ebp]
	fld	QWORD PTR [edi+8]
	mov	edi, DWORD PTR tv1922[ebp]
	fstp	QWORD PTR _a$[ebp+eax*8+8]
	cmp	ecx, edx
	jge	SHORT $LN89@painter_fa
	lea	edi, DWORD PTR [edi+eax+3]
	fld	QWORD PTR [ebx+edi*8-8]
	mov	edi, DWORD PTR tv1922[ebp]
	inc	ecx
	fstp	QWORD PTR _a$[ebp+eax*8+16]
	cmp	ecx, edx
	jge	SHORT $LN89@painter_fa
	lea	ecx, DWORD PTR [edi+eax+3]
	fld	QWORD PTR [ebx+ecx*8]
	mov	ecx, DWORD PTR _web+616
	fstp	QWORD PTR _a$[ebp+eax*8+24]
	add	eax, 4
	add	ecx, -3					; fffffffdH
	cmp	eax, ecx
	jl	SHORT $LL85@painter_fa
	mov	edx, DWORD PTR _web+616
$LC71@painter_fa:

; 604  :   {
; 605  :     for ( j = 0 ; (j < SDIM) && (j < HOMDIM-1) ; j++ ) 

	cmp	eax, edx
	jge	SHORT $LN89@painter_fa
$LC22@painter_fa:
	mov	ecx, DWORD PTR _HOMDIM
	dec	ecx
	cmp	eax, ecx
	jge	SHORT $LN89@painter_fa

; 606  :       a[j] = gdata[i].x[j];

	lea	ecx, DWORD PTR [edi+eax]
	fld	QWORD PTR [ebx+ecx*8]
	inc	eax
	fstp	QWORD PTR _a$[ebp+eax*8-8]
	cmp	eax, edx
	jl	SHORT $LC22@painter_fa

; 604  :   {
; 605  :     for ( j = 0 ; (j < SDIM) && (j < HOMDIM-1) ; j++ ) 

	jmp	SHORT $LN89@painter_fa
$LN86@painter_fa:
	mov	edi, DWORD PTR tv1922[ebp]
$LN89@painter_fa:

; 607  :     a[HOMDIM-1] = 1.0;

	mov	eax, DWORD PTR _HOMDIM
	fld1

; 608  :     matvec_mul(view,a,b[i],HOMDIM,HOMDIM);  /* transform */

	mov	edx, DWORD PTR tv2008[ebp]
	fstp	QWORD PTR _a$[ebp+eax*8-8]
	mov	ecx, DWORD PTR _view
	push	eax
	push	eax
	push	edx
	lea	eax, DWORD PTR _a$[ebp]
	push	eax
	push	ecx
	call	_matvec_mul

; 609  :     if ( SDIM <= 2 )
; 610  :     { t->x[i][0] = (float)b[i][0];

	mov	eax, DWORD PTR tv2008[ebp]
	mov	ecx, DWORD PTR tv2073[ebp]
	add	esp, 20					; 00000014H
	cmp	DWORD PTR _web+616, 2
	jg	SHORT $LN19@painter_fa
	fld	QWORD PTR [eax]
	fstp	DWORD PTR [ecx-4]

; 611  :       t->x[i][1] = (float)b[i][1];

	fld	QWORD PTR [eax+8]
	fstp	DWORD PTR [ecx]

; 612  :     }
; 613  :     else

	jmp	SHORT $LN24@painter_fa
$LN19@painter_fa:

; 614  :     { t->x[i][0] = (float)b[i][1];

	fld	QWORD PTR [eax+8]
	fstp	DWORD PTR [ecx-4]

; 615  :       t->x[i][1] = (float)b[i][2];

	fld	QWORD PTR [eax+16]
	fstp	DWORD PTR [ecx]

; 616  :       t->x[i][2] = (float)b[i][0];

	fld	QWORD PTR [eax]
	fstp	DWORD PTR [ecx+4]
$LN24@painter_fa:

; 603  :   for ( i = 0 ; i < FACET_VERTS ; i++ )

	add	DWORD PTR tv2008[ebp], 56		; 00000038H
	add	DWORD PTR tv2073[ebp], 12		; 0000000cH
	add	edi, 18					; 00000012H
	mov	DWORD PTR tv1922[ebp], edi
	cmp	edi, 54					; 00000036H
	jl	$LL80@painter_fa

; 617  :     }
; 618  :   } 
; 619  :   if ( SDIM <= 2 )

	cmp	DWORD PTR _web+616, 2
	fldz
	jg	SHORT $LN92@painter_fa

; 620  :   { t->normal[0] = t->normal[1] = 0.0;

	fst	DWORD PTR [esi+72]
	fst	DWORD PTR [esi+68]

; 621  :     t->normal[2] = 1.0;
; 622  :   }
; 623  :   else

	jmp	$LN99@painter_fa
$LN92@painter_fa:

; 624  :   { vnormal(b[0],b[1],b[2],normal); 

	lea	edx, DWORD PTR _normal$[ebp]
	fstp	ST(0)
	push	edx
	lea	eax, DWORD PTR _b$[ebp+112]
	push	eax
	lea	ecx, DWORD PTR _b$[ebp+56]
	push	ecx
	lea	edx, DWORD PTR _b$[ebp]
	push	edx
	call	_vnormal

; 625  :     mag = sqrt(SDIM_dot(normal,normal));

	mov	eax, DWORD PTR _web+616
	push	eax
	lea	ecx, DWORD PTR _normal$[ebp]
	push	ecx
	mov	edx, ecx
	push	edx
	call	_dot
	add	esp, 28					; 0000001cH
	call	__CIsqrt

; 626  :     if ( mag > 0.0 )

	fldz
	fcomp	ST(1)
	fnstsw	ax
	test	ah, 5
	jp	SHORT $LN96@painter_fa

; 627  :     { t->normal[0] = (float)(normal[1]/mag); 

	fld	QWORD PTR _normal$[ebp+8]
	fdiv	ST(0), ST(1)
	fstp	DWORD PTR [esi+68]

; 628  :       t->normal[1] = (float)(normal[2]/mag); 

	fld	QWORD PTR _normal$[ebp+16]
	fdiv	ST(0), ST(1)
	fstp	DWORD PTR [esi+72]

; 629  :       t->normal[2] = (float)(normal[0]/mag);

	fdivr	QWORD PTR _normal$[ebp]
	fstp	DWORD PTR tv1475[ebp]
	fld	DWORD PTR tv1475[ebp]
	fst	DWORD PTR [esi+76]

; 630  :       if ( fabs(t->normal[2]) < 1e-6 ) t->normal[2] = 0.0; 

	fabs
	fcomp	QWORD PTR __real@3eb0c6f7a0b5ed8d
	fnstsw	ax
	fldz
	test	ah, 5
	jp	SHORT $LN13@painter_fa
	fst	DWORD PTR [esi+76]

; 631  :     } else

	jmp	SHORT $LN13@painter_fa
$LN96@painter_fa:

; 626  :     if ( mag > 0.0 )

	fstp	ST(0)

; 632  :     { t->normal[0] = 0.0f; 

	fldz
	fst	DWORD PTR [esi+68]

; 633  :       t->normal[1] = 0.0f; 

	fst	DWORD PTR [esi+72]
$LN99@painter_fa:

; 634  :       t->normal[2] = 1.0f;

	fld1
	fstp	DWORD PTR [esi+76]
$LN13@painter_fa:

; 635  :     }
; 636  :   }
; 637  :   if ( t->normal[2] > (float)0.0 ) /* frontward normal */

	fcomp	DWORD PTR [esi+76]
	fnstsw	ax
	test	ah, 5
	jp	$LN12@painter_fa

; 638  :   { int c;
; 639  :     vertex_id tv;
; 640  :     for ( i = 0 ; i < gdim ; i++ )

	mov	edx, DWORD PTR _gdim
	xor	edi, edi
	cmp	edx, 4
	jl	$LN83@painter_fa
	lea	ecx, DWORD PTR [edx-4]
	shr	ecx, 2
	inc	ecx
	lea	eax, DWORD PTR [esi+48]
	lea	edi, DWORD PTR [ecx*4]
$LL78@painter_fa:

; 641  :     { float temp = (float)t->x[1][i];

	fld	DWORD PTR [eax-4]

; 642  :       t->x[1][i] = t->x[2][i];

	add	eax, 16					; 00000010H
	dec	ecx
	fstp	DWORD PTR _temp$89418[ebp]
	fld	DWORD PTR [eax-8]
	fstp	DWORD PTR [eax-20]

; 643  :       t->x[2][i] = temp;

	fld	DWORD PTR _temp$89418[ebp]
	fstp	DWORD PTR [eax-8]
	fld	DWORD PTR [eax-16]
	fstp	DWORD PTR _temp$89418[ebp]
	fld	DWORD PTR [eax-4]
	fstp	DWORD PTR [eax-16]
	fld	DWORD PTR _temp$89418[ebp]
	fstp	DWORD PTR [eax-4]

; 644  :       t->normal[i] = -t->normal[i];

	fld	DWORD PTR [eax+8]
	fchs
	fstp	DWORD PTR [eax+8]
	fld	DWORD PTR [eax-12]
	fstp	DWORD PTR _temp$89418[ebp]
	fld	DWORD PTR [eax]
	fstp	DWORD PTR [eax-12]
	fld	DWORD PTR _temp$89418[ebp]
	fstp	DWORD PTR [eax]
	fld	DWORD PTR [eax+12]
	fchs
	fstp	DWORD PTR [eax+12]
	fld	DWORD PTR [eax-8]
	fstp	DWORD PTR _temp$89418[ebp]
	fld	DWORD PTR [eax+4]
	fchs
	fstp	DWORD PTR [eax-8]
	fld	DWORD PTR _temp$89418[ebp]
	fstp	DWORD PTR [eax+4]
	fld	DWORD PTR [eax+16]
	fchs
	fstp	DWORD PTR [eax+16]
	jne	SHORT $LL78@painter_fa
$LN83@painter_fa:

; 638  :   { int c;
; 639  :     vertex_id tv;
; 640  :     for ( i = 0 ; i < gdim ; i++ )

	cmp	edi, edx
	jge	SHORT $LN76@painter_fa
	lea	eax, DWORD PTR [esi+edi*4+56]
	sub	edx, edi
	npad	5
$LC11@painter_fa:

; 641  :     { float temp = (float)t->x[1][i];

	fld	DWORD PTR [eax-12]
	add	eax, 4
	dec	edx
	fstp	DWORD PTR _temp$89418[ebp]

; 642  :       t->x[1][i] = t->x[2][i];

	fld	DWORD PTR [eax-4]
	fstp	DWORD PTR [eax-16]

; 643  :       t->x[2][i] = temp;

	fld	DWORD PTR _temp$89418[ebp]
	fstp	DWORD PTR [eax-4]

; 644  :       t->normal[i] = -t->normal[i];

	fld	DWORD PTR [eax+8]
	fchs
	fstp	DWORD PTR [eax+8]
	jne	SHORT $LC11@painter_fa
$LN76@painter_fa:

; 645  :     }
; 646  :     c = t->ecolor[0];

	mov	eax, DWORD PTR [esi+8]

; 647  :     t->ecolor[0] = t->ecolor[2];

	mov	ecx, DWORD PTR [esi+16]

; 648  :     t->ecolor[2] = c;

	mov	DWORD PTR [esi+16], eax

; 649  :     c = t->etype[0] ^ LABEL_REVERSED;

	movsx	eax, WORD PTR [esi+20]
	xor	eax, 16384				; 00004000H

; 650  :     t->etype[0] = t->etype[2] ^ LABEL_REVERSED;

	mov	edx, 16384				; 00004000H
	xor	dx, WORD PTR [esi+24]

; 651  :     t->etype[2] = (short)c;

	mov	WORD PTR [esi+24], ax

; 652  :     t->etype[1] ^= LABEL_REVERSED;

	mov	eax, 16384				; 00004000H
	xor	WORD PTR [esi+22], ax

; 653  :     t->color = gdata[0].color;
; 654  :     tv = t->v_id[1];

	mov	eax, DWORD PTR [esi+112]
	mov	WORD PTR [esi+20], dx

; 655  :     t->v_id[1] = t->v_id[2];

	mov	edx, DWORD PTR [esi+116]
	mov	DWORD PTR [esi+8], ecx
	mov	ecx, DWORD PTR [ebx+104]

; 656  :     t->v_id[2] = tv;
; 657  :     t->flag |= FLIPPED_FACET;

	or	DWORD PTR [esi+28], 4096		; 00001000H
	mov	DWORD PTR [esi+4], ecx
	mov	DWORD PTR [esi+112], edx
	mov	DWORD PTR [esi+116], eax

; 658  :   }
; 659  :   else

	jmp	SHORT $LN84@painter_fa
$LN12@painter_fa:

; 660  :   { 
; 661  :     if ( backcull_flag && (gdata[0].color == gdata[0].backcolor) ) return;

	cmp	DWORD PTR _backcull_flag, 0
	je	SHORT $LN84@painter_fa
	mov	eax, DWORD PTR [ebx+104]
	cmp	eax, DWORD PTR [ebx+108]
	je	SHORT $LN41@painter_fa
$LN84@painter_fa:

; 662  :   }
; 663  : 
; 664  :   /* find extents */
; 665  :   find_bbox(t);

	push	esi
	call	_find_bbox

; 666  : 
; 667  :   if ( painter_multiple_sweep_flag == MULTIPLE_SWEEP_PREP )

	mov	eax, DWORD PTR _painter_multiple_sweep_flag
	add	esp, 4
	cmp	eax, 2
	jne	SHORT $LN6@painter_fa

; 668  :   { sweep_prep_one(t);

	push	esi
	call	_sweep_prep_one
	add	esp, 4
	pop	edi
	pop	esi
	pop	ebx

; 679  : } // end painter_facet()

	mov	ecx, DWORD PTR __$ArrayPad$[ebp]
	xor	ecx, ebp
	call	@__security_check_cookie@4
	mov	esp, ebp
	pop	ebp
	ret	0
$LN6@painter_fa:

; 669  :     return;
; 670  :   }
; 671  :   else if ( painter_multiple_sweep_flag == MULTIPLE_SWEEP_GO )

	cmp	eax, 3
	jne	SHORT $LN3@painter_fa

; 672  :   { if ( t->mins[SDIM-1] > sweep_top || t->mins[SDIM-1] <= sweep_bottom ) 

	mov	ecx, DWORD PTR _web+616
	fld	DWORD PTR [esi+ecx*4+76]
	fcomp	QWORD PTR _sweep_top
	fnstsw	ax
	test	ah, 65					; 00000041H
	je	SHORT $LN41@painter_fa
	fld	DWORD PTR [esi+ecx*4+76]
	fcomp	QWORD PTR _sweep_bottom
	fnstsw	ax
	test	ah, 65					; 00000041H

; 673  :       return;

	jnp	SHORT $LN41@painter_fa
$LN3@painter_fa:

; 674  :   }
; 675  : 
; 676  :   if ( setquadcode(t) == OUTOFBOX ) return;

	push	esi
	call	_setquadcode
	add	esp, 4
	test	eax, eax
	je	SHORT $LN41@painter_fa

; 677  : 
; 678  :   count++;

	inc	DWORD PTR _count
$LN41@painter_fa:

; 679  : } // end painter_facet()

	mov	ecx, DWORD PTR __$ArrayPad$[ebp]
	pop	edi
	pop	esi
	xor	ecx, ebp
	pop	ebx
	call	@__security_check_cookie@4
	mov	esp, ebp
	pop	ebp
	ret	0
_painter_facet ENDP
_TEXT	ENDS
PUBLIC	_get_quadindex
; Function compile flags: /Ogtp
;	COMDAT _get_quadindex
_TEXT	SEGMENT
_q$ = 8							; size = 4
_get_quadindex PROC					; COMDAT

; 1049 : { int inx,k;

	push	ebp
	mov	ebp, esp
	push	esi

; 1050 : 
; 1051 :   inx = 1;
; 1052 :   for ( k = 0 ; k < 2*maxquaddepth ; k++, q >>= 2 )

	mov	esi, DWORD PTR _maxquaddepth
	add	esi, esi
	xor	edx, edx
	push	edi
	mov	eax, 1
	test	esi, esi
	jle	SHORT $LN6@get_quadin
	mov	edi, DWORD PTR _q$[ebp]
	npad	5
$LL5@get_quadin:

; 1053 :   { int bits = q & 0x3;

	mov	ecx, edi
	and	ecx, 3

; 1054 :     if ( bits == 0 ) return inx;

	je	SHORT $LN6@get_quadin

; 1055 :     inx <<= 1;

	add	eax, eax

; 1056 :     if ( bits == 2 )

	cmp	ecx, 2
	jne	SHORT $LN4@get_quadin

; 1057 :       inx++;

	inc	eax
$LN4@get_quadin:

; 1050 : 
; 1051 :   inx = 1;
; 1052 :   for ( k = 0 ; k < 2*maxquaddepth ; k++, q >>= 2 )

	inc	edx
	shr	edi, 2
	cmp	edx, esi
	jl	SHORT $LL5@get_quadin
$LN6@get_quadin:
	pop	edi
	pop	esi

; 1058 :   }
; 1059 :   return inx;
; 1060 : } // end get_quadindex()

	pop	ebp
	ret	0
_get_quadindex ENDP
_TEXT	ENDS
PUBLIC	_qdepth_insert
; Function compile flags: /Ogtp
;	COMDAT _qdepth_insert
_TEXT	SEGMENT
_tc$ = 8						; size = 4
_qdepth_insert PROC					; COMDAT

; 1070 : { struct tsort *prev,*next;

	push	ebp
	mov	ebp, esp
	push	ebx
	push	esi

; 1071 :   int qinx = get_quadindex(tc->quadcode);

	mov	esi, DWORD PTR _tc$[ebp]
	mov	eax, DWORD PTR [esi+120]
	push	edi
	push	eax
	call	_get_quadindex
	mov	ebx, eax
	add	esp, 4

; 1072 :   int sinx;
; 1073 : 
; 1074 :   /* take care of maxdepths of subtrees */
; 1075 :   sinx = qinx;

	mov	ecx, ebx

; 1076 :   while ( sinx && (tc->mins[2] < qtree[sinx].maxdepth) )

	test	ebx, ebx
	je	SHORT $LN19@qdepth_ins
	npad	3
$LL10@qdepth_ins:
	mov	edi, DWORD PTR _qtree
	fld	DWORD PTR [esi+88]
	fld	DWORD PTR [edi+ecx*8+4]
	fcompp
	fnstsw	ax
	test	ah, 65					; 00000041H
	jne	SHORT $LN20@qdepth_ins

; 1077 :   { qtree[sinx].maxdepth = tc->mins[2];

	fld	DWORD PTR [esi+88]
	fstp	DWORD PTR [edi+ecx*8+4]

; 1078 :     sinx >>= 1;

	sar	ecx, 1
	jne	SHORT $LL10@qdepth_ins
$LN19@qdepth_ins:

; 1076 :   while ( sinx && (tc->mins[2] < qtree[sinx].maxdepth) )

	mov	edi, DWORD PTR _qtree
$LN20@qdepth_ins:

; 1079 :   }
; 1080 : 
; 1081 :   prev = NULL;
; 1082 :   for ( next=qtree[qinx].depthhead; next != NULL; prev=next, next=next->next )

	mov	ecx, DWORD PTR [edi+ebx*8]
	xor	edx, edx
	test	ecx, ecx
	je	SHORT $LN21@qdepth_ins
$LL8@qdepth_ins:

; 1083 :   {
; 1084 :     if ( tc->mins[2] < next->mins[2] )

	fld	DWORD PTR [esi+88]
	fld	DWORD PTR [ecx+88]
	fcompp
	fnstsw	ax
	test	ah, 65					; 00000041H
	je	SHORT $LN15@qdepth_ins

; 1079 :   }
; 1080 : 
; 1081 :   prev = NULL;
; 1082 :   for ( next=qtree[qinx].depthhead; next != NULL; prev=next, next=next->next )

	mov	edx, ecx
	mov	ecx, DWORD PTR [ecx+132]
	test	ecx, ecx
	jne	SHORT $LL8@qdepth_ins

; 1091 :       goto qdepth_insert_exit;
; 1092 :     }
; 1093 :   }
; 1094 :   /* at end of list */
; 1095 :   if ( prev ) prev->next = tc;

	test	edx, edx
	je	SHORT $LN21@qdepth_ins
	mov	DWORD PTR [edx+132], esi
	jmp	SHORT $LN1@qdepth_ins
$LN15@qdepth_ins:

; 1085 :     { tc->next = next;

	mov	DWORD PTR [esi+132], ecx

; 1086 :       tc->prev = prev;

	mov	DWORD PTR [esi+128], edx

; 1087 :       if ( prev )

	test	edx, edx
	je	SHORT $LN4@qdepth_ins

; 1088 :         prev->next = tc;

	mov	DWORD PTR [edx+132], esi
	pop	edi

; 1090 :       next->prev = tc;

	mov	DWORD PTR [ecx+128], esi
	pop	esi
	pop	ebx

; 1099 : 
; 1100 : qdepth_insert_exit:;
; 1101 : } // end qdepth_insert()

	pop	ebp
	ret	0
$LN4@qdepth_ins:

; 1089 :       else qtree[qinx].depthhead = tc;

	mov	edx, DWORD PTR _qtree
	mov	DWORD PTR [edx+ebx*8], esi
	pop	edi

; 1090 :       next->prev = tc;

	mov	DWORD PTR [ecx+128], esi
	pop	esi
	pop	ebx

; 1099 : 
; 1100 : qdepth_insert_exit:;
; 1101 : } // end qdepth_insert()

	pop	ebp
	ret	0
$LN21@qdepth_ins:

; 1096 :   else qtree[qinx].depthhead = tc;

	mov	DWORD PTR [edi+ebx*8], esi
$LN1@qdepth_ins:
	pop	edi

; 1097 :   tc->next = NULL;

	mov	DWORD PTR [esi+132], 0

; 1098 :   tc->prev = prev;

	mov	DWORD PTR [esi+128], edx
	pop	esi
$qdepth_insert_exit$89660:
	pop	ebx

; 1099 : 
; 1100 : qdepth_insert_exit:;
; 1101 : } // end qdepth_insert()

	pop	ebp
	ret	0
_qdepth_insert ENDP
_TEXT	ENDS
PUBLIC	__real@f149f2ca
PUBLIC	__real@7149f2ca
PUBLIC	_newell_split
;	COMDAT __real@f149f2ca
CONST	SEGMENT
__real@f149f2ca DD 0f149f2car			; -1e+030
CONST	ENDS
;	COMDAT __real@7149f2ca
CONST	SEGMENT
__real@7149f2ca DD 07149f2car			; 1e+030
; Function compile flags: /Ogtp
CONST	ENDS
;	COMDAT _newell_split
_TEXT	SEGMENT
_tmp$89785 = -192					; size = 140
_tmp$89741 = -192					; size = 140
_t$89709 = -192						; size = 140
_d2$ = -52						; size = 8
_d1$ = -44						; size = 8
_d0$ = -36						; size = 8
tv24569 = -28						; size = 4
tv22785 = -28						; size = 4
tv9526 = -24						; size = 8
tv9443 = -24						; size = 8
_db$ = -24						; size = 8
_retval$ = -20						; size = 4
tv22780 = -16						; size = 4
tv11137 = -16						; size = 4
tv24952 = -12						; size = 4
tv23689 = -12						; size = 4
tv23670 = -12						; size = 4
tv23653 = -12						; size = 4
tv23634 = -12						; size = 4
tv23613 = -12						; size = 4
tv23598 = -12						; size = 4
tv23577 = -12						; size = 4
tv23558 = -12						; size = 4
tv843 = -12						; size = 4
tv24598 = -8						; size = 4
tv23922 = -8						; size = 4
tv23515 = -8						; size = 4
tv18845 = -8						; size = 4
tv18826 = -8						; size = 4
tv18805 = -8						; size = 4
tv18788 = -8						; size = 4
tv17704 = -8						; size = 4
tv17683 = -8						; size = 4
tv17662 = -8						; size = 4
tv17641 = -8						; size = 4
tv16463 = -8						; size = 4
tv16444 = -8						; size = 4
tv16423 = -8						; size = 4
tv16374 = -8						; size = 4
_e$89755 = -8						; size = 2
_e$89746 = -8						; size = 2
tv12264 = -4						; size = 4
tv9265 = -4						; size = 4
tv413 = -4						; size = 4
tv390 = -4						; size = 4
tv367 = -4						; size = 4
tv344 = -4						; size = 4
tv238 = -4						; size = 4
tv215 = -4						; size = 4
tv192 = -4						; size = 4
tv169 = -4						; size = 4
_ta$ = 8						; size = 4
tv24791 = 12						; size = 4
tv24299 = 12						; size = 4
tv24124 = 12						; size = 4
tv19071 = 12						; size = 4
tv17961 = 12						; size = 4
tv16690 = 12						; size = 4
_temp$89760 = 12					; size = 4
_temp$89751 = 12					; size = 4
_mid$89686 = 12						; size = 4
_i$ = 12						; size = 4
_tmpspot$ = 12						; size = 4
_tb$ = 12						; size = 4
_tc$ = 16						; size = 4
_td$ = 20						; size = 4
_newell_split PROC					; COMDAT

; 1118 : { 

	push	ebp
	mov	ebp, esp

; 1119 :   int i;
; 1120 :   REAL d0,d1,d2,db;
; 1121 :   int retval;
; 1122 :   size_t tmpspot;
; 1123 : 
; 1124 :   backstamp++; /* clear loop indications */

	inc	DWORD PTR _backstamp

; 1125 : 
; 1126 :   if ( (tb->flag & 0xF) == EDGE )

	mov	eax, DWORD PTR _tb$[ebp]
	mov	ecx, DWORD PTR [eax+28]
	sub	esp, 192				; 000000c0H
	push	ebx

; 1127 :   { struct tsort *t;
; 1128 :     if ( (ta->flag & 0xF) == EDGE )

	mov	ebx, DWORD PTR _ta$[ebp]
	and	cl, 15					; 0000000fH
	push	esi
	push	edi
	cmp	cl, 1
	jne	$LN84@newell_spl
	mov	edx, DWORD PTR [ebx+28]
	and	dl, 15					; 0000000fH
	cmp	dl, cl
	jne	$LN73@newell_spl

; 1129 :     { /* cut first edge in half */
; 1130 :       tmpspot = tc->spot; *tc = *ta; tc->spot = tmpspot;

	mov	eax, DWORD PTR _tc$[ebp]

; 1131 :       for ( i = 0 ; i < gdim ; i++ )

	fld	QWORD PTR __real@3fe0000000000000
	mov	edx, DWORD PTR [eax+136]
	mov	ecx, 35					; 00000023H
	mov	esi, ebx
	mov	edi, eax
	rep movsd
	xor	edi, edi
	cmp	DWORD PTR _gdim, 4
	mov	DWORD PTR [eax+136], edx
	jl	$LC132@newell_spl

; 1129 :     { /* cut first edge in half */
; 1130 :       tmpspot = tc->spot; *tc = *ta; tc->spot = tmpspot;

	mov	esi, DWORD PTR _gdim
	add	esi, -4					; fffffffcH
	lea	edx, DWORD PTR [eax+36]
	sub	eax, ebx
	shr	esi, 2
	inc	esi
	lea	ecx, DWORD PTR [ebx+32]
	mov	DWORD PTR tv11137[ebp], eax
	lea	edi, DWORD PTR [esi*4]

; 1131 :       for ( i = 0 ; i < gdim ; i++ )

$LN141@newell_spl:

; 1132 :       { float mid = (ta->x[0][i] + ta->x[1][i])/2; 

	fld	DWORD PTR [ecx]
	fadd	DWORD PTR [ecx+12]
	fmul	ST(0), ST(1)
	fstp	DWORD PTR _mid$89686[ebp]

; 1133 :         if ( ta->x[0][2] > ta->x[1][2] )  /* ta is back half */

	fld	DWORD PTR [ebx+40]
	fld	DWORD PTR [ebx+52]
	fcompp
	fnstsw	ax

; 1134 :         { ta->x[0][i] = mid; tc->x[1][i] = mid; }

	fld	DWORD PTR _mid$89686[ebp]
	test	ah, 5
	jp	SHORT $LN133@newell_spl
	fst	DWORD PTR [ecx]
	fstp	DWORD PTR [edx+8]
	jmp	SHORT $LN134@newell_spl
$LN133@newell_spl:

; 1135 :         else { ta->x[1][i] = mid; tc->x[0][i] = mid; }

	mov	eax, DWORD PTR tv11137[ebp]
	fst	DWORD PTR [ecx+12]
	fstp	DWORD PTR [eax+ecx]
$LN134@newell_spl:

; 1132 :       { float mid = (ta->x[0][i] + ta->x[1][i])/2; 

	fld	DWORD PTR [ecx+16]
	fadd	DWORD PTR [ecx+4]
	fmul	ST(0), ST(1)
	fstp	DWORD PTR _mid$89686[ebp]

; 1133 :         if ( ta->x[0][2] > ta->x[1][2] )  /* ta is back half */

	fld	DWORD PTR [ebx+40]
	fld	DWORD PTR [ebx+52]
	fcompp
	fnstsw	ax

; 1134 :         { ta->x[0][i] = mid; tc->x[1][i] = mid; }

	fld	DWORD PTR _mid$89686[ebp]
	test	ah, 5
	jp	SHORT $LN135@newell_spl
	fst	DWORD PTR [ecx+4]
	fstp	DWORD PTR [edx+12]
	jmp	SHORT $LN136@newell_spl
$LN135@newell_spl:

; 1135 :         else { ta->x[1][i] = mid; tc->x[0][i] = mid; }

	fst	DWORD PTR [ecx+16]
	fstp	DWORD PTR [edx]
$LN136@newell_spl:

; 1132 :       { float mid = (ta->x[0][i] + ta->x[1][i])/2; 

	fld	DWORD PTR [ecx+8]
	fadd	DWORD PTR [ecx+20]
	fmul	ST(0), ST(1)
	fstp	DWORD PTR _mid$89686[ebp]

; 1133 :         if ( ta->x[0][2] > ta->x[1][2] )  /* ta is back half */

	fld	DWORD PTR [ebx+40]
	fld	DWORD PTR [ebx+52]
	fcompp
	fnstsw	ax

; 1134 :         { ta->x[0][i] = mid; tc->x[1][i] = mid; }

	fld	DWORD PTR _mid$89686[ebp]
	test	ah, 5
	jp	SHORT $LN137@newell_spl
	fst	DWORD PTR [ecx+8]
	fstp	DWORD PTR [edx+16]
	jmp	SHORT $LN138@newell_spl
$LN137@newell_spl:

; 1135 :         else { ta->x[1][i] = mid; tc->x[0][i] = mid; }

	fst	DWORD PTR [ecx+20]
	fstp	DWORD PTR [edx+4]
$LN138@newell_spl:

; 1132 :       { float mid = (ta->x[0][i] + ta->x[1][i])/2; 

	fld	DWORD PTR [ecx+24]
	fadd	DWORD PTR [ecx+12]
	fmul	ST(0), ST(1)
	fstp	DWORD PTR _mid$89686[ebp]

; 1133 :         if ( ta->x[0][2] > ta->x[1][2] )  /* ta is back half */

	fld	DWORD PTR [ebx+40]
	fld	DWORD PTR [ebx+52]
	fcompp
	fnstsw	ax

; 1134 :         { ta->x[0][i] = mid; tc->x[1][i] = mid; }

	fld	DWORD PTR _mid$89686[ebp]
	test	ah, 5
	jp	SHORT $LN139@newell_spl
	fst	DWORD PTR [ecx+12]
	fstp	DWORD PTR [edx+20]
	jmp	SHORT $LN140@newell_spl
$LN139@newell_spl:

; 1135 :         else { ta->x[1][i] = mid; tc->x[0][i] = mid; }

	fst	DWORD PTR [ecx+24]
	fstp	DWORD PTR [edx+8]
$LN140@newell_spl:

; 1129 :     { /* cut first edge in half */
; 1130 :       tmpspot = tc->spot; *tc = *ta; tc->spot = tmpspot;

	add	ecx, 16					; 00000010H
	add	edx, 16					; 00000010H
	dec	esi
	jne	$LN141@newell_spl
	mov	eax, DWORD PTR _tc$[ebp]
$LC132@newell_spl:

; 1131 :       for ( i = 0 ; i < gdim ; i++ )

	cmp	edi, DWORD PTR _gdim
	jge	SHORT $LN298@newell_spl
	mov	edx, DWORD PTR _gdim
	lea	esi, DWORD PTR [eax+edi*4+32]
	sub	eax, ebx
	lea	ecx, DWORD PTR [ebx+edi*4+44]
	sub	edx, edi
	mov	DWORD PTR tv11137[ebp], eax
	mov	edi, eax
$LC82@newell_spl:

; 1132 :       { float mid = (ta->x[0][i] + ta->x[1][i])/2; 

	fld	DWORD PTR [ecx]
	fadd	DWORD PTR [ecx-12]
	fmul	ST(0), ST(1)
	fstp	DWORD PTR _mid$89686[ebp]

; 1133 :         if ( ta->x[0][2] > ta->x[1][2] )  /* ta is back half */

	fld	DWORD PTR [ebx+40]
	fld	DWORD PTR [ebx+52]
	fcompp
	fnstsw	ax

; 1134 :         { ta->x[0][i] = mid; tc->x[1][i] = mid; }

	fld	DWORD PTR _mid$89686[ebp]
	test	ah, 5
	jp	SHORT $LN79@newell_spl
	fst	DWORD PTR [ecx-12]
	fstp	DWORD PTR [edi+ecx]
	jmp	SHORT $LN81@newell_spl
$LN79@newell_spl:

; 1135 :         else { ta->x[1][i] = mid; tc->x[0][i] = mid; }

	fst	DWORD PTR [ecx]
	fstp	DWORD PTR [esi]
$LN81@newell_spl:

; 1131 :       for ( i = 0 ; i < gdim ; i++ )

	add	ecx, 4
	add	esi, 4
	dec	edx
	jne	SHORT $LC82@newell_spl
	mov	eax, DWORD PTR _tc$[ebp]
$LN298@newell_spl:

; 1136 :       }
; 1137 :       for ( i = 0 ; i < gdim ; i++ )

	mov	esi, DWORD PTR _gdim
	fstp	ST(0)
	mov	DWORD PTR _i$[ebp], 0
	cmp	esi, 4
	jl	$LC143@newell_spl
	add	esi, -4					; fffffffcH

; 1141 :         tc->maxs[i] = (tc->x[0][i]>tc->x[1][i]) ? tc->x[0][i] : tc->x[1][i];

	mov	edi, ebx
	sub	edi, eax
	shr	esi, 2
	inc	esi
	lea	ecx, DWORD PTR [eax+32]
	lea	eax, DWORD PTR [esi*4]
	lea	edx, DWORD PTR [ebx+36]
	mov	DWORD PTR _i$[ebp], eax
$LL176@newell_spl:

; 1138 :       { ta->mins[i] = (ta->x[0][i]<ta->x[1][i]) ? ta->x[0][i] : ta->x[1][i];

	fld	DWORD PTR [edi+ecx]
	fld	DWORD PTR [edx+8]
	fcompp
	fnstsw	ax
	test	ah, 65					; 00000041H
	jne	SHORT $LN144@newell_spl
	fld	DWORD PTR [edi+ecx]
	jmp	SHORT $LN502@newell_spl
$LN144@newell_spl:
	fld	DWORD PTR [edx+8]
$LN502@newell_spl:
	fstp	DWORD PTR tv169[ebp]
	fld	DWORD PTR tv169[ebp]
	fstp	DWORD PTR [ecx+edi+48]

; 1139 :         tc->mins[i] = (tc->x[0][i]<tc->x[1][i]) ? tc->x[0][i] : tc->x[1][i];

	fld	DWORD PTR [ecx]
	fld	DWORD PTR [ecx+12]
	fcompp
	fnstsw	ax
	test	ah, 65					; 00000041H
	jne	SHORT $LN146@newell_spl
	fld	DWORD PTR [ecx]
	jmp	SHORT $LN503@newell_spl
$LN146@newell_spl:
	fld	DWORD PTR [ecx+12]
$LN503@newell_spl:
	fstp	DWORD PTR tv192[ebp]
	fld	DWORD PTR tv192[ebp]
	fstp	DWORD PTR [ecx+48]

; 1140 :         ta->maxs[i] = (ta->x[0][i]>ta->x[1][i]) ? ta->x[0][i] : ta->x[1][i];

	fld	DWORD PTR [edi+ecx]
	fld	DWORD PTR [edx+8]
	fcompp
	fnstsw	ax
	test	ah, 5
	jp	SHORT $LN148@newell_spl
	fld	DWORD PTR [edi+ecx]
	jmp	SHORT $LN504@newell_spl
$LN148@newell_spl:
	fld	DWORD PTR [edx+8]
$LN504@newell_spl:
	fstp	DWORD PTR tv215[ebp]
	fld	DWORD PTR tv215[ebp]
	fstp	DWORD PTR [edx+56]

; 1141 :         tc->maxs[i] = (tc->x[0][i]>tc->x[1][i]) ? tc->x[0][i] : tc->x[1][i];

	fld	DWORD PTR [ecx]
	fld	DWORD PTR [ecx+12]
	fcompp
	fnstsw	ax
	test	ah, 5
	jp	SHORT $LN150@newell_spl
	fld	DWORD PTR [ecx]
	jmp	SHORT $LN505@newell_spl
$LN150@newell_spl:
	fld	DWORD PTR [ecx+12]
$LN505@newell_spl:
	fstp	DWORD PTR tv238[ebp]
	fld	DWORD PTR tv238[ebp]
	fstp	DWORD PTR [ecx+60]
	fld	DWORD PTR [edx]
	fld	DWORD PTR [edx+12]
	fcompp
	fnstsw	ax
	test	ah, 65					; 00000041H
	jne	SHORT $LN152@newell_spl

; 1138 :       { ta->mins[i] = (ta->x[0][i]<ta->x[1][i]) ? ta->x[0][i] : ta->x[1][i];

	fld	DWORD PTR [edx]
	jmp	SHORT $LN506@newell_spl
$LN152@newell_spl:
	fld	DWORD PTR [edx+12]
$LN506@newell_spl:
	fstp	DWORD PTR tv169[ebp]
	fld	DWORD PTR tv169[ebp]
	fstp	DWORD PTR [edx+48]

; 1139 :         tc->mins[i] = (tc->x[0][i]<tc->x[1][i]) ? tc->x[0][i] : tc->x[1][i];

	fld	DWORD PTR [ecx+4]
	fld	DWORD PTR [ecx+16]
	fcompp
	fnstsw	ax
	test	ah, 65					; 00000041H
	jne	SHORT $LN154@newell_spl
	fld	DWORD PTR [ecx+4]
	jmp	SHORT $LN507@newell_spl
$LN154@newell_spl:
	fld	DWORD PTR [ecx+16]
$LN507@newell_spl:
	fstp	DWORD PTR tv192[ebp]
	fld	DWORD PTR tv192[ebp]
	fstp	DWORD PTR [ecx+52]

; 1140 :         ta->maxs[i] = (ta->x[0][i]>ta->x[1][i]) ? ta->x[0][i] : ta->x[1][i];

	fld	DWORD PTR [edx]
	fld	DWORD PTR [edx+12]
	fcompp
	fnstsw	ax
	test	ah, 5
	jp	SHORT $LN156@newell_spl
	fld	DWORD PTR [edx]
	jmp	SHORT $LN508@newell_spl
$LN156@newell_spl:
	fld	DWORD PTR [edx+12]
$LN508@newell_spl:
	fstp	DWORD PTR tv215[ebp]
	fld	DWORD PTR tv215[ebp]
	fstp	DWORD PTR [edx+60]

; 1141 :         tc->maxs[i] = (tc->x[0][i]>tc->x[1][i]) ? tc->x[0][i] : tc->x[1][i];

	fld	DWORD PTR [ecx+4]
	fld	DWORD PTR [ecx+16]
	fcompp
	fnstsw	ax
	test	ah, 5
	jp	SHORT $LN158@newell_spl
	fld	DWORD PTR [ecx+4]
	jmp	SHORT $LN509@newell_spl
$LN158@newell_spl:
	fld	DWORD PTR [ecx+16]
$LN509@newell_spl:
	fstp	DWORD PTR tv238[ebp]
	fld	DWORD PTR tv238[ebp]
	fstp	DWORD PTR [ecx+64]
	fld	DWORD PTR [edx+4]
	fld	DWORD PTR [edx+16]
	fcompp
	fnstsw	ax
	test	ah, 65					; 00000041H
	jne	SHORT $LN160@newell_spl

; 1138 :       { ta->mins[i] = (ta->x[0][i]<ta->x[1][i]) ? ta->x[0][i] : ta->x[1][i];

	fld	DWORD PTR [edx+4]
	jmp	SHORT $LN510@newell_spl
$LN160@newell_spl:
	fld	DWORD PTR [edx+16]
$LN510@newell_spl:
	fstp	DWORD PTR tv169[ebp]
	fld	DWORD PTR tv169[ebp]
	fstp	DWORD PTR [edx+52]

; 1139 :         tc->mins[i] = (tc->x[0][i]<tc->x[1][i]) ? tc->x[0][i] : tc->x[1][i];

	fld	DWORD PTR [ecx+8]
	fld	DWORD PTR [ecx+20]
	fcompp
	fnstsw	ax
	test	ah, 65					; 00000041H
	jne	SHORT $LN162@newell_spl
	fld	DWORD PTR [ecx+8]
	jmp	SHORT $LN511@newell_spl
$LN162@newell_spl:
	fld	DWORD PTR [ecx+20]
$LN511@newell_spl:
	fstp	DWORD PTR tv192[ebp]
	fld	DWORD PTR tv192[ebp]
	fstp	DWORD PTR [ecx+56]

; 1140 :         ta->maxs[i] = (ta->x[0][i]>ta->x[1][i]) ? ta->x[0][i] : ta->x[1][i];

	fld	DWORD PTR [edx+4]
	fld	DWORD PTR [edx+16]
	fcompp
	fnstsw	ax
	test	ah, 5
	jp	SHORT $LN164@newell_spl
	fld	DWORD PTR [edx+4]
	jmp	SHORT $LN512@newell_spl
$LN164@newell_spl:
	fld	DWORD PTR [edx+16]
$LN512@newell_spl:
	fstp	DWORD PTR tv215[ebp]
	fld	DWORD PTR tv215[ebp]
	fstp	DWORD PTR [edx+64]

; 1141 :         tc->maxs[i] = (tc->x[0][i]>tc->x[1][i]) ? tc->x[0][i] : tc->x[1][i];

	fld	DWORD PTR [ecx+8]
	fld	DWORD PTR [ecx+20]
	fcompp
	fnstsw	ax
	test	ah, 5
	jp	SHORT $LN166@newell_spl
	fld	DWORD PTR [ecx+8]
	jmp	SHORT $LN513@newell_spl
$LN166@newell_spl:
	fld	DWORD PTR [ecx+20]
$LN513@newell_spl:
	fstp	DWORD PTR tv238[ebp]
	fld	DWORD PTR tv238[ebp]
	fstp	DWORD PTR [ecx+68]
	fld	DWORD PTR [edx+8]
	fld	DWORD PTR [edx+20]
	fcompp
	fnstsw	ax
	test	ah, 65					; 00000041H
	jne	SHORT $LN168@newell_spl

; 1138 :       { ta->mins[i] = (ta->x[0][i]<ta->x[1][i]) ? ta->x[0][i] : ta->x[1][i];

	fld	DWORD PTR [edx+8]
	jmp	SHORT $LN514@newell_spl
$LN168@newell_spl:
	fld	DWORD PTR [edx+20]
$LN514@newell_spl:
	fstp	DWORD PTR tv169[ebp]
	fld	DWORD PTR tv169[ebp]
	fstp	DWORD PTR [edx+56]

; 1139 :         tc->mins[i] = (tc->x[0][i]<tc->x[1][i]) ? tc->x[0][i] : tc->x[1][i];

	fld	DWORD PTR [ecx+12]
	fld	DWORD PTR [ecx+24]
	fcompp
	fnstsw	ax
	test	ah, 65					; 00000041H
	jne	SHORT $LN170@newell_spl
	fld	DWORD PTR [ecx+12]
	jmp	SHORT $LN515@newell_spl
$LN170@newell_spl:
	fld	DWORD PTR [ecx+24]
$LN515@newell_spl:
	fstp	DWORD PTR tv192[ebp]
	fld	DWORD PTR tv192[ebp]
	fstp	DWORD PTR [ecx+60]

; 1140 :         ta->maxs[i] = (ta->x[0][i]>ta->x[1][i]) ? ta->x[0][i] : ta->x[1][i];

	fld	DWORD PTR [edx+8]
	fld	DWORD PTR [edx+20]
	fcompp
	fnstsw	ax
	test	ah, 5
	jp	SHORT $LN172@newell_spl
	fld	DWORD PTR [edx+8]
	jmp	SHORT $LN516@newell_spl
$LN172@newell_spl:
	fld	DWORD PTR [edx+20]
$LN516@newell_spl:
	fstp	DWORD PTR tv215[ebp]
	fld	DWORD PTR tv215[ebp]
	fstp	DWORD PTR [edx+68]

; 1141 :         tc->maxs[i] = (tc->x[0][i]>tc->x[1][i]) ? tc->x[0][i] : tc->x[1][i];

	fld	DWORD PTR [ecx+12]
	fld	DWORD PTR [ecx+24]
	fcompp
	fnstsw	ax
	test	ah, 5
	jp	SHORT $LN174@newell_spl
	fld	DWORD PTR [ecx+12]
	jmp	SHORT $LN517@newell_spl
$LN174@newell_spl:
	fld	DWORD PTR [ecx+24]
$LN517@newell_spl:
	fstp	DWORD PTR tv238[ebp]
	add	ecx, 16					; 00000010H
	fld	DWORD PTR tv238[ebp]
	add	edx, 16					; 00000010H
	dec	esi
	fstp	DWORD PTR [ecx+56]
	jne	$LL176@newell_spl

; 1136 :       }
; 1137 :       for ( i = 0 ; i < gdim ; i++ )

	mov	eax, DWORD PTR _tc$[ebp]
	mov	esi, DWORD PTR _gdim
$LC143@newell_spl:
	cmp	DWORD PTR _i$[ebp], esi
	jge	$LN142@newell_spl
	mov	ecx, DWORD PTR _i$[ebp]
	mov	edi, ebx
	mov	esi, eax
	lea	edx, DWORD PTR [eax+ecx*4+32]
	lea	ecx, DWORD PTR [ebx+ecx*4+44]
	sub	esi, ebx
	mov	ebx, DWORD PTR _gdim
	sub	edi, eax
	sub	ebx, DWORD PTR _i$[ebp]
	npad	7
$LC77@newell_spl:

; 1138 :       { ta->mins[i] = (ta->x[0][i]<ta->x[1][i]) ? ta->x[0][i] : ta->x[1][i];

	fld	DWORD PTR [ecx-12]
	fld	DWORD PTR [ecx]
	fcompp
	fnstsw	ax
	test	ah, 65					; 00000041H
	jne	SHORT $LN87@newell_spl
	fld	DWORD PTR [ecx-12]
	jmp	SHORT $LN518@newell_spl
$LN87@newell_spl:
	fld	DWORD PTR [ecx]
$LN518@newell_spl:
	fstp	DWORD PTR tv169[ebp]
	fld	DWORD PTR tv169[ebp]
	fstp	DWORD PTR [edi+edx+48]

; 1139 :         tc->mins[i] = (tc->x[0][i]<tc->x[1][i]) ? tc->x[0][i] : tc->x[1][i];

	fld	DWORD PTR [edx]
	fld	DWORD PTR [esi+ecx]
	fcompp
	fnstsw	ax
	test	ah, 65					; 00000041H
	jne	SHORT $LN89@newell_spl
	fld	DWORD PTR [edx]
	jmp	SHORT $LN519@newell_spl
$LN89@newell_spl:
	fld	DWORD PTR [esi+ecx]
$LN519@newell_spl:
	fstp	DWORD PTR tv192[ebp]
	fld	DWORD PTR tv192[ebp]
	fstp	DWORD PTR [edx+48]

; 1140 :         ta->maxs[i] = (ta->x[0][i]>ta->x[1][i]) ? ta->x[0][i] : ta->x[1][i];

	fld	DWORD PTR [ecx-12]
	fld	DWORD PTR [ecx]
	fcompp
	fnstsw	ax
	test	ah, 5
	jp	SHORT $LN91@newell_spl
	fld	DWORD PTR [ecx-12]
	jmp	SHORT $LN520@newell_spl
$LN91@newell_spl:
	fld	DWORD PTR [ecx]
$LN520@newell_spl:
	fstp	DWORD PTR tv215[ebp]
	fld	DWORD PTR tv215[ebp]
	fstp	DWORD PTR [ecx+48]

; 1141 :         tc->maxs[i] = (tc->x[0][i]>tc->x[1][i]) ? tc->x[0][i] : tc->x[1][i];

	fld	DWORD PTR [edx]
	fld	DWORD PTR [esi+ecx]
	fcompp
	fnstsw	ax
	test	ah, 5
	jp	SHORT $LN93@newell_spl
	fld	DWORD PTR [edx]
	jmp	SHORT $LN521@newell_spl
$LN93@newell_spl:
	fld	DWORD PTR [esi+ecx]
$LN521@newell_spl:
	fstp	DWORD PTR tv238[ebp]
	add	edx, 4
	fld	DWORD PTR tv238[ebp]
	add	ecx, 4
	dec	ebx
	fstp	DWORD PTR [edx+56]
	jne	$LC77@newell_spl

; 1136 :       }
; 1137 :       for ( i = 0 ; i < gdim ; i++ )

	mov	eax, DWORD PTR _tc$[ebp]
$LN142@newell_spl:

; 1142 :       }
; 1143 :       /* find_bbox(tc); */
; 1144 :       if ( setquadcode(tc) == INTHEBOX )

	push	eax
	call	_setquadcode
	add	esp, 4
	cmp	eax, 1
	jne	SHORT $LN74@newell_spl

; 1145 :       { qdepth_insert(tc);

	mov	ecx, DWORD PTR _tc$[ebp]
	push	ecx
	call	_qdepth_insert
	add	esp, 4
	pop	edi
	pop	esi

; 1146 :         return 1;

	mov	eax, 1
	pop	ebx

; 1361 : } // end newell_split()

	mov	esp, ebp
	pop	ebp
	ret	0
$LN74@newell_spl:

; 1147 :       }
; 1148 :       else { tc->flag = 0; return 0; }

	mov	edx, DWORD PTR _tc$[ebp]
	pop	edi
	pop	esi
	mov	DWORD PTR [edx+28], 0
	xor	eax, eax
	pop	ebx

; 1361 : } // end newell_split()

	mov	esp, ebp
	pop	ebp
	ret	0
$LN73@newell_spl:

; 1149 :     }
; 1150 :     t = ta; ta = tb; tb = t; /* swap so edge first */

	mov	eax, ebx
	mov	ebx, DWORD PTR _tb$[ebp]
	mov	DWORD PTR _tb$[ebp], eax
$LN84@newell_spl:

; 1151 :   }
; 1152 : 
; 1153 :   if ( (ta->flag & 0xF) == EDGE ) /* tb assumed to be facet */

	mov	eax, DWORD PTR [ebx+28]

; 1154 :   {
; 1155 :     db = dotf(tb->normal,tb->x[0],gdim);

	mov	ecx, DWORD PTR _gdim
	and	al, 15					; 0000000fH
	cmp	al, 1
	mov	eax, DWORD PTR _tb$[ebp]
	push	ecx
	lea	esi, DWORD PTR [eax+68]
	jne	$LN62@newell_spl
	add	eax, 32					; 00000020H
	push	eax
	push	esi
	call	_dotf
	fstp	QWORD PTR _db$[ebp]

; 1156 :     d0 = dotf(tb->normal,ta->x[0],gdim); 

	mov	edx, DWORD PTR _gdim
	push	edx
	lea	eax, DWORD PTR [ebx+32]
	push	eax
	push	esi
	call	_dotf
	fstp	QWORD PTR _d0$[ebp]

; 1157 :     d1 = dotf(tb->normal,ta->x[1],gdim); 

	mov	eax, DWORD PTR _gdim
	push	eax
	lea	ecx, DWORD PTR [ebx+44]
	push	ecx
	push	esi
	call	_dotf

; 1158 : 
; 1159 :     /* fill in fragment info */
; 1160 :     tmpspot = tc->spot; *tc = *ta; tc->spot = tmpspot;
; 1161 :     for ( i = 0 ; i < gdim ; i++ )

	fld	QWORD PTR _db$[ebp]
	mov	edi, DWORD PTR _tc$[ebp]
	mov	eax, DWORD PTR [edi+136]
	mov	edx, DWORD PTR _tc$[ebp]
	mov	ecx, 35					; 00000023H
	mov	esi, ebx
	add	esp, 36					; 00000024H
	cmp	DWORD PTR _gdim, 4
	rep movsd
	mov	DWORD PTR [edx+136], eax
	mov	DWORD PTR _i$[ebp], 0
	jl	$LC178@newell_spl
	mov	esi, DWORD PTR _gdim
	fld	ST(0)
	fld	QWORD PTR _d0$[ebp]
	mov	eax, edx
	fsub	ST(1), ST(0)
	add	esi, -4					; fffffffcH
	mov	edi, eax
	fld	ST(3)
	shr	esi, 2
	fsub	ST(0), ST(3)
	sub	edi, ebx
	fld	ST(4)
	inc	esi
	fsubrp	ST(2), ST(0)
	lea	edx, DWORD PTR [eax+48]
	lea	eax, DWORD PTR [esi*4]
	lea	ecx, DWORD PTR [ebx+32]
	mov	DWORD PTR _i$[ebp], eax
$LN187@newell_spl:

; 1162 :     { double mid = (((db-d0)*ta->x[1][i] + (d1-db)*ta->x[0][i])/(d1-d0));

	fld	DWORD PTR [ecx]
	fmul	ST(0), ST(1)
	fld	DWORD PTR [ecx+12]
	fmul	ST(0), ST(4)
	faddp	ST(1), ST(0)
	fdiv	ST(0), ST(2)

; 1163 :       if ( ta->x[0][2] < ta->x[1][2] ) /* keep ta as back part */

	fld	DWORD PTR [ebx+40]
	fld	DWORD PTR [ebx+52]
	fcompp
	fnstsw	ax

; 1164 :         ta->x[1][i] = tc->x[0][i] = (float)mid;

	fstp	DWORD PTR tv9265[ebp]
	fld	DWORD PTR tv9265[ebp]
	test	ah, 65					; 00000041H
	jne	SHORT $LN179@newell_spl
	fst	DWORD PTR [edi+ecx]
	fstp	DWORD PTR [ecx+12]
	jmp	SHORT $LN180@newell_spl
$LN179@newell_spl:

; 1165 :       else  ta->x[0][i] = tc->x[1][i] = (float)mid;

	fst	DWORD PTR [edx-4]
	fstp	DWORD PTR [ecx]
$LN180@newell_spl:

; 1162 :     { double mid = (((db-d0)*ta->x[1][i] + (d1-db)*ta->x[0][i])/(d1-d0));

	fld	DWORD PTR [ecx+16]
	fmul	ST(0), ST(3)
	fld	DWORD PTR [ecx+4]
	fmul	ST(0), ST(2)
	faddp	ST(1), ST(0)
	fdiv	ST(0), ST(2)

; 1163 :       if ( ta->x[0][2] < ta->x[1][2] ) /* keep ta as back part */

	fld	DWORD PTR [ebx+40]
	fld	DWORD PTR [ebx+52]
	fcompp
	fnstsw	ax

; 1164 :         ta->x[1][i] = tc->x[0][i] = (float)mid;

	fstp	DWORD PTR tv9265[ebp]
	fld	DWORD PTR tv9265[ebp]
	test	ah, 65					; 00000041H
	jne	SHORT $LN181@newell_spl
	fst	DWORD PTR [edx-12]
	fstp	DWORD PTR [ecx+16]
	jmp	SHORT $LN182@newell_spl
$LN181@newell_spl:

; 1165 :       else  ta->x[0][i] = tc->x[1][i] = (float)mid;

	fst	DWORD PTR [edx]
	fstp	DWORD PTR [ecx+4]
$LN182@newell_spl:

; 1162 :     { double mid = (((db-d0)*ta->x[1][i] + (d1-db)*ta->x[0][i])/(d1-d0));

	fld	DWORD PTR [ecx+8]
	fmul	ST(0), ST(1)
	fld	DWORD PTR [ecx+20]
	fmul	ST(0), ST(4)
	faddp	ST(1), ST(0)
	fdiv	ST(0), ST(2)

; 1163 :       if ( ta->x[0][2] < ta->x[1][2] ) /* keep ta as back part */

	fld	DWORD PTR [ebx+40]
	fld	DWORD PTR [ebx+52]
	fcompp
	fnstsw	ax

; 1164 :         ta->x[1][i] = tc->x[0][i] = (float)mid;

	fstp	DWORD PTR tv9265[ebp]
	fld	DWORD PTR tv9265[ebp]
	test	ah, 65					; 00000041H
	jne	SHORT $LN183@newell_spl
	fst	DWORD PTR [edx-8]
	fstp	DWORD PTR [ecx+20]
	jmp	SHORT $LN184@newell_spl
$LN183@newell_spl:

; 1165 :       else  ta->x[0][i] = tc->x[1][i] = (float)mid;

	fst	DWORD PTR [edx+4]
	fstp	DWORD PTR [ecx+8]
$LN184@newell_spl:

; 1162 :     { double mid = (((db-d0)*ta->x[1][i] + (d1-db)*ta->x[0][i])/(d1-d0));

	fld	DWORD PTR [ecx+24]
	fmul	ST(0), ST(3)
	fld	DWORD PTR [ecx+12]
	fmul	ST(0), ST(2)
	faddp	ST(1), ST(0)
	fdiv	ST(0), ST(2)

; 1163 :       if ( ta->x[0][2] < ta->x[1][2] ) /* keep ta as back part */

	fld	DWORD PTR [ebx+40]
	fld	DWORD PTR [ebx+52]
	fcompp
	fnstsw	ax

; 1164 :         ta->x[1][i] = tc->x[0][i] = (float)mid;

	fstp	DWORD PTR tv9265[ebp]
	fld	DWORD PTR tv9265[ebp]
	test	ah, 65					; 00000041H
	jne	SHORT $LN185@newell_spl
	fst	DWORD PTR [edx-4]
	fstp	DWORD PTR [ecx+24]
	jmp	SHORT $LN186@newell_spl
$LN185@newell_spl:

; 1165 :       else  ta->x[0][i] = tc->x[1][i] = (float)mid;

	fst	DWORD PTR [edx+8]
	fstp	DWORD PTR [ecx+12]
$LN186@newell_spl:

; 1154 :   {
; 1155 :     db = dotf(tb->normal,tb->x[0],gdim);

	add	ecx, 16					; 00000010H
	add	edx, 16					; 00000010H
	dec	esi
	jne	$LN187@newell_spl

; 1165 :       else  ta->x[0][i] = tc->x[1][i] = (float)mid;

	fstp	ST(2)
	fstp	ST(1)
	fstp	ST(0)
$LC178@newell_spl:

; 1158 : 
; 1159 :     /* fill in fragment info */
; 1160 :     tmpspot = tc->spot; *tc = *ta; tc->spot = tmpspot;
; 1161 :     for ( i = 0 ; i < gdim ; i++ )

	mov	eax, DWORD PTR _i$[ebp]
	mov	esi, DWORD PTR _gdim
	cmp	eax, esi
	jge	SHORT $LN331@newell_spl
	mov	ecx, DWORD PTR _tc$[ebp]
	fld	ST(0)
	fld	QWORD PTR _d0$[ebp]
	mov	edi, ebx
	sub	edi, DWORD PTR _tc$[ebp]
	fsub	ST(1), ST(0)
	fld	ST(3)
	lea	edx, DWORD PTR [ebx+eax*4+32]
	fsubrp	ST(3), ST(0)
	lea	ecx, DWORD PTR [ecx+eax*4+44]
	sub	esi, eax
	fsubp	ST(3), ST(0)
$LC71@newell_spl:

; 1162 :     { double mid = (((db-d0)*ta->x[1][i] + (d1-db)*ta->x[0][i])/(d1-d0));

	fld	DWORD PTR [edx]
	fmul	ST(0), ST(2)
	fld	DWORD PTR [edi+ecx]
	fmul	ST(0), ST(2)
	faddp	ST(1), ST(0)
	fdiv	ST(0), ST(3)

; 1163 :       if ( ta->x[0][2] < ta->x[1][2] ) /* keep ta as back part */

	fld	DWORD PTR [ebx+40]
	fld	DWORD PTR [ebx+52]
	fcompp
	fnstsw	ax

; 1164 :         ta->x[1][i] = tc->x[0][i] = (float)mid;

	fstp	DWORD PTR tv9265[ebp]
	fld	DWORD PTR tv9265[ebp]
	test	ah, 65					; 00000041H
	jne	SHORT $LN68@newell_spl
	fst	DWORD PTR [ecx-12]
	fstp	DWORD PTR [edi+ecx]
	jmp	SHORT $LN70@newell_spl
$LN68@newell_spl:

; 1165 :       else  ta->x[0][i] = tc->x[1][i] = (float)mid;

	fst	DWORD PTR [ecx]
	fstp	DWORD PTR [edx]
$LN70@newell_spl:

; 1158 : 
; 1159 :     /* fill in fragment info */
; 1160 :     tmpspot = tc->spot; *tc = *ta; tc->spot = tmpspot;
; 1161 :     for ( i = 0 ; i < gdim ; i++ )

	add	ecx, 4
	add	edx, 4
	dec	esi
	jne	SHORT $LC71@newell_spl
	mov	esi, DWORD PTR _gdim
	fstp	ST(0)
	fstp	ST(0)
	jmp	SHORT $LN522@newell_spl
$LN331@newell_spl:
	fstp	ST(1)
$LN522@newell_spl:

; 1166 :     }
; 1167 :     for ( i = 0 ; i < gdim ; i++ )

	xor	ecx, ecx
	fstp	ST(0)
	mov	DWORD PTR _i$[ebp], ecx
	cmp	esi, 4
	jl	$LC189@newell_spl
	mov	esi, DWORD PTR _gdim
	mov	eax, DWORD PTR _tc$[ebp]
	add	esi, -4					; fffffffcH

; 1171 :       tc->maxs[i] = (tc->x[0][i]>tc->x[1][i]) ? tc->x[0][i] : tc->x[1][i];

	mov	edi, ebx
	sub	edi, eax
	shr	esi, 2
	inc	esi
	lea	ecx, DWORD PTR [eax+32]
	lea	eax, DWORD PTR [esi*4]
	lea	edx, DWORD PTR [ebx+36]
	mov	DWORD PTR _i$[ebp], eax
$LL222@newell_spl:

; 1168 :     { ta->mins[i] = (ta->x[0][i]<ta->x[1][i]) ? ta->x[0][i] : ta->x[1][i];

	fld	DWORD PTR [edi+ecx]
	fld	DWORD PTR [edx+8]
	fcompp
	fnstsw	ax
	test	ah, 65					; 00000041H
	jne	SHORT $LN190@newell_spl
	fld	DWORD PTR [edi+ecx]
	jmp	SHORT $LN523@newell_spl
$LN190@newell_spl:
	fld	DWORD PTR [edx+8]
$LN523@newell_spl:
	fstp	DWORD PTR tv344[ebp]
	fld	DWORD PTR tv344[ebp]
	fstp	DWORD PTR [edi+ecx+48]

; 1169 :       tc->mins[i] = (tc->x[0][i]<tc->x[1][i]) ? tc->x[0][i] : tc->x[1][i];

	fld	DWORD PTR [ecx]
	fld	DWORD PTR [ecx+12]
	fcompp
	fnstsw	ax
	test	ah, 65					; 00000041H
	jne	SHORT $LN192@newell_spl
	fld	DWORD PTR [ecx]
	jmp	SHORT $LN524@newell_spl
$LN192@newell_spl:
	fld	DWORD PTR [ecx+12]
$LN524@newell_spl:
	fstp	DWORD PTR tv367[ebp]
	fld	DWORD PTR tv367[ebp]
	fstp	DWORD PTR [ecx+48]

; 1170 :       ta->maxs[i] = (ta->x[0][i]>ta->x[1][i]) ? ta->x[0][i] : ta->x[1][i];

	fld	DWORD PTR [edi+ecx]
	fld	DWORD PTR [edx+8]
	fcompp
	fnstsw	ax
	test	ah, 5
	jp	SHORT $LN194@newell_spl
	fld	DWORD PTR [edi+ecx]
	jmp	SHORT $LN525@newell_spl
$LN194@newell_spl:
	fld	DWORD PTR [edx+8]
$LN525@newell_spl:
	fstp	DWORD PTR tv390[ebp]
	fld	DWORD PTR tv390[ebp]
	fstp	DWORD PTR [edx+56]

; 1171 :       tc->maxs[i] = (tc->x[0][i]>tc->x[1][i]) ? tc->x[0][i] : tc->x[1][i];

	fld	DWORD PTR [ecx]
	fld	DWORD PTR [ecx+12]
	fcompp
	fnstsw	ax
	test	ah, 5
	jp	SHORT $LN196@newell_spl
	fld	DWORD PTR [ecx]
	jmp	SHORT $LN526@newell_spl
$LN196@newell_spl:
	fld	DWORD PTR [ecx+12]
$LN526@newell_spl:
	fstp	DWORD PTR tv413[ebp]
	fld	DWORD PTR tv413[ebp]
	fstp	DWORD PTR [ecx+60]
	fld	DWORD PTR [edx]
	fld	DWORD PTR [edx+12]
	fcompp
	fnstsw	ax
	test	ah, 65					; 00000041H
	jne	SHORT $LN198@newell_spl

; 1168 :     { ta->mins[i] = (ta->x[0][i]<ta->x[1][i]) ? ta->x[0][i] : ta->x[1][i];

	fld	DWORD PTR [edx]
	jmp	SHORT $LN527@newell_spl
$LN198@newell_spl:
	fld	DWORD PTR [edx+12]
$LN527@newell_spl:
	fstp	DWORD PTR tv344[ebp]
	fld	DWORD PTR tv344[ebp]
	fstp	DWORD PTR [edx+48]

; 1169 :       tc->mins[i] = (tc->x[0][i]<tc->x[1][i]) ? tc->x[0][i] : tc->x[1][i];

	fld	DWORD PTR [ecx+4]
	fld	DWORD PTR [ecx+16]
	fcompp
	fnstsw	ax
	test	ah, 65					; 00000041H
	jne	SHORT $LN200@newell_spl
	fld	DWORD PTR [ecx+4]
	jmp	SHORT $LN528@newell_spl
$LN200@newell_spl:
	fld	DWORD PTR [ecx+16]
$LN528@newell_spl:
	fstp	DWORD PTR tv367[ebp]
	fld	DWORD PTR tv367[ebp]
	fstp	DWORD PTR [ecx+52]

; 1170 :       ta->maxs[i] = (ta->x[0][i]>ta->x[1][i]) ? ta->x[0][i] : ta->x[1][i];

	fld	DWORD PTR [edx]
	fld	DWORD PTR [edx+12]
	fcompp
	fnstsw	ax
	test	ah, 5
	jp	SHORT $LN202@newell_spl
	fld	DWORD PTR [edx]
	jmp	SHORT $LN529@newell_spl
$LN202@newell_spl:
	fld	DWORD PTR [edx+12]
$LN529@newell_spl:
	fstp	DWORD PTR tv390[ebp]
	fld	DWORD PTR tv390[ebp]
	fstp	DWORD PTR [edx+60]

; 1171 :       tc->maxs[i] = (tc->x[0][i]>tc->x[1][i]) ? tc->x[0][i] : tc->x[1][i];

	fld	DWORD PTR [ecx+4]
	fld	DWORD PTR [ecx+16]
	fcompp
	fnstsw	ax
	test	ah, 5
	jp	SHORT $LN204@newell_spl
	fld	DWORD PTR [ecx+4]
	jmp	SHORT $LN530@newell_spl
$LN204@newell_spl:
	fld	DWORD PTR [ecx+16]
$LN530@newell_spl:
	fstp	DWORD PTR tv413[ebp]
	fld	DWORD PTR tv413[ebp]
	fstp	DWORD PTR [ecx+64]
	fld	DWORD PTR [edx+4]
	fld	DWORD PTR [edx+16]
	fcompp
	fnstsw	ax
	test	ah, 65					; 00000041H
	jne	SHORT $LN206@newell_spl

; 1168 :     { ta->mins[i] = (ta->x[0][i]<ta->x[1][i]) ? ta->x[0][i] : ta->x[1][i];

	fld	DWORD PTR [edx+4]
	jmp	SHORT $LN531@newell_spl
$LN206@newell_spl:
	fld	DWORD PTR [edx+16]
$LN531@newell_spl:
	fstp	DWORD PTR tv344[ebp]
	fld	DWORD PTR tv344[ebp]
	fstp	DWORD PTR [edx+52]

; 1169 :       tc->mins[i] = (tc->x[0][i]<tc->x[1][i]) ? tc->x[0][i] : tc->x[1][i];

	fld	DWORD PTR [ecx+8]
	fld	DWORD PTR [ecx+20]
	fcompp
	fnstsw	ax
	test	ah, 65					; 00000041H
	jne	SHORT $LN208@newell_spl
	fld	DWORD PTR [ecx+8]
	jmp	SHORT $LN532@newell_spl
$LN208@newell_spl:
	fld	DWORD PTR [ecx+20]
$LN532@newell_spl:
	fstp	DWORD PTR tv367[ebp]
	fld	DWORD PTR tv367[ebp]
	fstp	DWORD PTR [ecx+56]

; 1170 :       ta->maxs[i] = (ta->x[0][i]>ta->x[1][i]) ? ta->x[0][i] : ta->x[1][i];

	fld	DWORD PTR [edx+4]
	fld	DWORD PTR [edx+16]
	fcompp
	fnstsw	ax
	test	ah, 5
	jp	SHORT $LN210@newell_spl
	fld	DWORD PTR [edx+4]
	jmp	SHORT $LN533@newell_spl
$LN210@newell_spl:
	fld	DWORD PTR [edx+16]
$LN533@newell_spl:
	fstp	DWORD PTR tv390[ebp]
	fld	DWORD PTR tv390[ebp]
	fstp	DWORD PTR [edx+64]

; 1171 :       tc->maxs[i] = (tc->x[0][i]>tc->x[1][i]) ? tc->x[0][i] : tc->x[1][i];

	fld	DWORD PTR [ecx+8]
	fld	DWORD PTR [ecx+20]
	fcompp
	fnstsw	ax
	test	ah, 5
	jp	SHORT $LN212@newell_spl
	fld	DWORD PTR [ecx+8]
	jmp	SHORT $LN534@newell_spl
$LN212@newell_spl:
	fld	DWORD PTR [ecx+20]
$LN534@newell_spl:
	fstp	DWORD PTR tv413[ebp]
	fld	DWORD PTR tv413[ebp]
	fstp	DWORD PTR [ecx+68]
	fld	DWORD PTR [edx+8]
	fld	DWORD PTR [edx+20]
	fcompp
	fnstsw	ax
	test	ah, 65					; 00000041H
	jne	SHORT $LN214@newell_spl

; 1168 :     { ta->mins[i] = (ta->x[0][i]<ta->x[1][i]) ? ta->x[0][i] : ta->x[1][i];

	fld	DWORD PTR [edx+8]
	jmp	SHORT $LN535@newell_spl
$LN214@newell_spl:
	fld	DWORD PTR [edx+20]
$LN535@newell_spl:
	fstp	DWORD PTR tv344[ebp]
	fld	DWORD PTR tv344[ebp]
	fstp	DWORD PTR [edx+56]

; 1169 :       tc->mins[i] = (tc->x[0][i]<tc->x[1][i]) ? tc->x[0][i] : tc->x[1][i];

	fld	DWORD PTR [ecx+12]
	fld	DWORD PTR [ecx+24]
	fcompp
	fnstsw	ax
	test	ah, 65					; 00000041H
	jne	SHORT $LN216@newell_spl
	fld	DWORD PTR [ecx+12]
	jmp	SHORT $LN536@newell_spl
$LN216@newell_spl:
	fld	DWORD PTR [ecx+24]
$LN536@newell_spl:
	fstp	DWORD PTR tv367[ebp]
	fld	DWORD PTR tv367[ebp]
	fstp	DWORD PTR [ecx+60]

; 1170 :       ta->maxs[i] = (ta->x[0][i]>ta->x[1][i]) ? ta->x[0][i] : ta->x[1][i];

	fld	DWORD PTR [edx+8]
	fld	DWORD PTR [edx+20]
	fcompp
	fnstsw	ax
	test	ah, 5
	jp	SHORT $LN218@newell_spl
	fld	DWORD PTR [edx+8]
	jmp	SHORT $LN537@newell_spl
$LN218@newell_spl:
	fld	DWORD PTR [edx+20]
$LN537@newell_spl:
	fstp	DWORD PTR tv390[ebp]
	fld	DWORD PTR tv390[ebp]
	fstp	DWORD PTR [edx+68]

; 1171 :       tc->maxs[i] = (tc->x[0][i]>tc->x[1][i]) ? tc->x[0][i] : tc->x[1][i];

	fld	DWORD PTR [ecx+12]
	fld	DWORD PTR [ecx+24]
	fcompp
	fnstsw	ax
	test	ah, 5
	jp	SHORT $LN220@newell_spl
	fld	DWORD PTR [ecx+12]
	jmp	SHORT $LN538@newell_spl
$LN220@newell_spl:
	fld	DWORD PTR [ecx+24]
$LN538@newell_spl:
	fstp	DWORD PTR tv413[ebp]
	add	ecx, 16					; 00000010H
	fld	DWORD PTR tv413[ebp]
	add	edx, 16					; 00000010H
	dec	esi
	fstp	DWORD PTR [ecx+56]
	jne	$LL222@newell_spl

; 1166 :     }
; 1167 :     for ( i = 0 ; i < gdim ; i++ )

	mov	ecx, DWORD PTR _i$[ebp]
$LC189@newell_spl:
	mov	eax, DWORD PTR _gdim
	cmp	ecx, eax
	jge	$LN273@newell_spl
	mov	esi, DWORD PTR _tc$[ebp]
	mov	edx, DWORD PTR _tc$[ebp]
	mov	edi, ebx
	sub	edi, DWORD PTR _tc$[ebp]
	sub	esi, ebx
	sub	eax, DWORD PTR _i$[ebp]
	lea	edx, DWORD PTR [edx+ecx*4+32]
	lea	ecx, DWORD PTR [ebx+ecx*4+44]
	mov	ebx, eax
$LC66@newell_spl:

; 1168 :     { ta->mins[i] = (ta->x[0][i]<ta->x[1][i]) ? ta->x[0][i] : ta->x[1][i];

	fld	DWORD PTR [ecx-12]
	fld	DWORD PTR [ecx]
	fcompp
	fnstsw	ax
	test	ah, 65					; 00000041H
	jne	SHORT $LN95@newell_spl
	fld	DWORD PTR [ecx-12]
	jmp	SHORT $LN539@newell_spl
$LN95@newell_spl:
	fld	DWORD PTR [ecx]
$LN539@newell_spl:
	fstp	DWORD PTR tv344[ebp]
	fld	DWORD PTR tv344[ebp]
	fstp	DWORD PTR [edi+edx+48]

; 1169 :       tc->mins[i] = (tc->x[0][i]<tc->x[1][i]) ? tc->x[0][i] : tc->x[1][i];

	fld	DWORD PTR [edx]
	fld	DWORD PTR [esi+ecx]
	fcompp
	fnstsw	ax
	test	ah, 65					; 00000041H
	jne	SHORT $LN97@newell_spl
	fld	DWORD PTR [edx]
	jmp	SHORT $LN540@newell_spl
$LN97@newell_spl:
	fld	DWORD PTR [esi+ecx]
$LN540@newell_spl:
	fstp	DWORD PTR tv367[ebp]
	fld	DWORD PTR tv367[ebp]
	fstp	DWORD PTR [edx+48]

; 1170 :       ta->maxs[i] = (ta->x[0][i]>ta->x[1][i]) ? ta->x[0][i] : ta->x[1][i];

	fld	DWORD PTR [ecx-12]
	fld	DWORD PTR [ecx]
	fcompp
	fnstsw	ax
	test	ah, 5
	jp	SHORT $LN99@newell_spl
	fld	DWORD PTR [ecx-12]
	jmp	SHORT $LN541@newell_spl
$LN99@newell_spl:
	fld	DWORD PTR [ecx]
$LN541@newell_spl:
	fstp	DWORD PTR tv390[ebp]
	fld	DWORD PTR tv390[ebp]
	fstp	DWORD PTR [ecx+48]

; 1171 :       tc->maxs[i] = (tc->x[0][i]>tc->x[1][i]) ? tc->x[0][i] : tc->x[1][i];

	fld	DWORD PTR [edx]
	fld	DWORD PTR [esi+ecx]
	fcompp
	fnstsw	ax
	test	ah, 5
	jp	SHORT $LN101@newell_spl
	fld	DWORD PTR [edx]
	jmp	SHORT $LN542@newell_spl
$LN101@newell_spl:
	fld	DWORD PTR [esi+ecx]
$LN542@newell_spl:
	fstp	DWORD PTR tv413[ebp]
	add	edx, 4
	fld	DWORD PTR tv413[ebp]
	add	ecx, 4
	dec	ebx
	fstp	DWORD PTR [edx+56]
	jne	$LC66@newell_spl
$LN273@newell_spl:

; 1172 :     }
; 1173 :     /* find_bbox(tc); */
; 1174 :     if ( setquadcode(tc) == INTHEBOX )

	mov	esi, DWORD PTR _tc$[ebp]
$LN549@newell_spl:
	push	esi
	call	_setquadcode
	add	esp, 4
	cmp	eax, 1
	jne	SHORT $LN63@newell_spl

; 1175 :     { qdepth_insert(tc);

	push	esi
	call	_qdepth_insert
	add	esp, 4
	pop	edi
	pop	esi

; 1176 :       return 1;

	mov	eax, 1
	pop	ebx

; 1361 : } // end newell_split()

	mov	esp, ebp
	pop	ebp
	ret	0
$LN63@newell_spl:
	pop	edi

; 1177 :     }
; 1178 :     else { tc->flag = 0; return 0; }

	mov	DWORD PTR [esi+28], 0
	pop	esi
	xor	eax, eax
	pop	ebx

; 1361 : } // end newell_split()

	mov	esp, ebp
	pop	ebp
	ret	0
$LN62@newell_spl:

; 1179 :   }
; 1180 : 
; 1181 :   /* figure out which vertices of ta on same side, and get as 0,1 */
; 1182 :   db = dotf(tb->normal,tb->x[0],gdim);

	add	eax, 32					; 00000020H
	push	eax
	push	esi
	call	_dotf
	fstp	QWORD PTR _db$[ebp]

; 1183 :   d0 = dotf(tb->normal,ta->x[0],gdim); 

	mov	edx, DWORD PTR _gdim
	push	edx
	lea	eax, DWORD PTR [ebx+32]
	push	eax
	push	esi
	call	_dotf
	fstp	QWORD PTR _d0$[ebp]

; 1184 :   d1 = dotf(tb->normal,ta->x[1],gdim); 

	mov	ecx, DWORD PTR _gdim
	push	ecx
	lea	edx, DWORD PTR [ebx+44]
	push	edx
	push	esi
	call	_dotf
	fstp	QWORD PTR _d1$[ebp]

; 1185 :   d2 = dotf(tb->normal,ta->x[2],gdim); 

	mov	ecx, DWORD PTR _gdim
	push	ecx
	lea	eax, DWORD PTR [ebx+56]
	push	eax
	push	esi
	call	_dotf
	fst	QWORD PTR _d2$[ebp]

; 1186 : 
; 1187 : if ( (d0<db) && (d1<db) && (d2<db) ) /* should never happen */

	fld	QWORD PTR _db$[ebp]
	add	esp, 48					; 00000030H
	fld	QWORD PTR _d0$[ebp]
	fcom	ST(1)
	fnstsw	ax
	fld	QWORD PTR _d1$[ebp]
	test	ah, 5
	jp	SHORT $LN61@newell_spl
	fcom	ST(2)
	fnstsw	ax
	test	ah, 5
	jp	SHORT $LN61@newell_spl
	fxch	ST(3)
	fcom	ST(2)
	fnstsw	ax
	test	ah, 5
	jp	SHORT $LN347@newell_spl

; 1188 : { struct tsort t;  
; 1189 :   t = *ta; *ta = *tb; *tb = t; return 0; }

	mov	eax, DWORD PTR _tb$[ebp]
	fstp	ST(1)
	mov	esi, ebx
	fstp	ST(0)
	mov	ecx, 35					; 00000023H
	fstp	ST(0)
	lea	edi, DWORD PTR _t$89709[ebp]
	fstp	ST(0)
	rep movsd
	mov	esi, eax
	mov	edi, ebx
	mov	ecx, 35					; 00000023H
	rep movsd
	mov	edi, eax
	mov	ecx, 35					; 00000023H
	lea	esi, DWORD PTR _t$89709[ebp]
	rep movsd
	pop	edi
	pop	esi
	xor	eax, eax
	pop	ebx

; 1361 : } // end newell_split()

	mov	esp, ebp
	pop	ebp
	ret	0
$LN347@newell_spl:

; 1186 : 
; 1187 : if ( (d0<db) && (d1<db) && (d2<db) ) /* should never happen */

	fxch	ST(3)
$LN61@newell_spl:

; 1190 : if ( (d0>db) && (d1>db) && (d2>db) )

	fxch	ST(1)
	fcom	ST(2)
	fnstsw	ax
	test	ah, 65					; 00000041H
	jne	SHORT $LN60@newell_spl
	fxch	ST(1)
	fcom	ST(2)
	fnstsw	ax
	test	ah, 65					; 00000041H
	jne	SHORT $LN353@newell_spl
	fxch	ST(3)
	fcom	ST(2)
	fnstsw	ax
	test	ah, 65					; 00000041H
	jne	SHORT $LN356@newell_spl
	fstp	ST(1)
	pop	edi
	fstp	ST(0)
	pop	esi
	fstp	ST(0)

; 1191 : { return 0; }

	xor	eax, eax
	fstp	ST(0)
	pop	ebx

; 1361 : } // end newell_split()

	mov	esp, ebp
	pop	ebp
	ret	0
$LN356@newell_spl:

; 1190 : if ( (d0>db) && (d1>db) && (d2>db) )

	fxch	ST(3)
$LN353@newell_spl:
	fxch	ST(1)
$LN60@newell_spl:

; 1192 : 
; 1193 :   retval = 0;
; 1194 :   if ( db == d0 ) /* split thru vertex 0 of ta */

	mov	edx, DWORD PTR _gdim
	fld	ST(2)
	fld	ST(1)
	xor	ecx, ecx
	fucompp
	fnstsw	ax
	test	ah, 68					; 00000044H
	jp	$LN59@newell_spl

; 1195 :   { 
; 1196 :      tmpspot = tc->spot; *tc = *ta; tc->spot = tmpspot;

	mov	eax, DWORD PTR _tc$[ebp]
	mov	ecx, DWORD PTR [eax+136]
	mov	DWORD PTR _tmpspot$[ebp], ecx
	mov	ecx, 35					; 00000023H
	mov	esi, ebx
	mov	edi, eax
	rep movsd
	mov	ecx, DWORD PTR _tmpspot$[ebp]
	mov	DWORD PTR [eax+136], ecx

; 1197 : 
; 1198 :      /* fill in fragment info */
; 1199 :      for ( i = 0 ; i < gdim ; i++ )

	xor	ecx, ecx
	mov	DWORD PTR _i$[ebp], ecx
	cmp	edx, 4
	jl	$LN262@newell_spl
	mov	esi, DWORD PTR _tc$[ebp]
	fld	ST(2)
	fsub	ST(0), ST(2)
	lea	ecx, DWORD PTR [esi+44]

; 1200 :      { ta->x[2][i] = tc->x[1][i] = 
; 1201 :           (float)(((db-d1)*ta->x[2][i] + (d2-db)*ta->x[1][i])/(d2-d1));

	mov	edi, ebx
	fld	ST(4)
	sub	edi, esi
	fsub	ST(0), ST(4)
	lea	esi, DWORD PTR [edx-4]
	fld	ST(5)
	shr	esi, 2
	fsub	ST(0), ST(4)
	mov	DWORD PTR tv12264[ebp], edi
	inc	esi
	lea	edi, DWORD PTR [esi*4]
	fstp	QWORD PTR tv9443[ebp]
	mov	DWORD PTR _i$[ebp], edi
	mov	edi, DWORD PTR tv12264[ebp]
	lea	eax, DWORD PTR [ebx+60]
$LN225@newell_spl:
	fld	DWORD PTR [edi+ecx]
	add	ecx, 16					; 00000010H
	fmul	ST(0), ST(1)
	add	eax, 16					; 00000010H
	dec	esi
	fld	DWORD PTR [eax-20]
	fmul	ST(0), ST(3)
	faddp	ST(1), ST(0)
	fdiv	QWORD PTR tv9443[ebp]
	fstp	DWORD PTR tv16374[ebp]
	fld	DWORD PTR tv16374[ebp]
	fst	DWORD PTR [ecx-16]
	fstp	DWORD PTR [eax-20]
	fld	DWORD PTR [eax-28]
	fmul	ST(0), ST(1)
	fld	DWORD PTR [eax-16]
	fmul	ST(0), ST(3)
	faddp	ST(1), ST(0)
	fdiv	QWORD PTR tv9443[ebp]
	fstp	DWORD PTR tv16423[ebp]
	fld	DWORD PTR tv16423[ebp]
	fst	DWORD PTR [ecx-12]
	fstp	DWORD PTR [eax-16]
	fld	DWORD PTR [eax-24]
	fmul	ST(0), ST(1)
	fld	DWORD PTR [eax-12]
	fmul	ST(0), ST(3)
	faddp	ST(1), ST(0)
	fdiv	QWORD PTR tv9443[ebp]
	fstp	DWORD PTR tv16444[ebp]
	fld	DWORD PTR tv16444[ebp]
	fst	DWORD PTR [ecx-8]
	fstp	DWORD PTR [eax-12]
	fld	DWORD PTR [eax-8]
	fmul	ST(0), ST(2)
	fld	DWORD PTR [eax-20]
	fmul	ST(0), ST(2)
	faddp	ST(1), ST(0)
	fdiv	QWORD PTR tv9443[ebp]
	fstp	DWORD PTR tv16463[ebp]
	fld	DWORD PTR tv16463[ebp]
	fst	DWORD PTR [ecx-4]
	fstp	DWORD PTR [eax-8]
	jne	SHORT $LN225@newell_spl

; 1195 :   { 
; 1196 :      tmpspot = tc->spot; *tc = *ta; tc->spot = tmpspot;

	mov	eax, DWORD PTR _tc$[ebp]
	fstp	ST(1)
	mov	ecx, DWORD PTR _i$[ebp]
	fstp	ST(0)
$LN262@newell_spl:

; 1197 : 
; 1198 :      /* fill in fragment info */
; 1199 :      for ( i = 0 ; i < gdim ; i++ )

	cmp	ecx, edx
	jge	SHORT $LN223@newell_spl
	fld	ST(2)
	mov	edi, ebx
	fsub	ST(0), ST(2)
	sub	edi, eax
	fld	ST(4)
	lea	esi, DWORD PTR [ebx+ecx*4+56]
	fsub	ST(0), ST(4)
	lea	ecx, DWORD PTR [eax+ecx*4+44]
	fld	ST(5)
	mov	eax, edx
	sub	eax, DWORD PTR _i$[ebp]
	fsub	ST(0), ST(4)
	mov	DWORD PTR tv12264[ebp], edi
	fstp	QWORD PTR tv9443[ebp]
$LC58@newell_spl:

; 1200 :      { ta->x[2][i] = tc->x[1][i] = 
; 1201 :           (float)(((db-d1)*ta->x[2][i] + (d2-db)*ta->x[1][i])/(d2-d1));

	fld	DWORD PTR [edi+ecx]
	add	ecx, 4
	fmul	ST(0), ST(1)
	add	esi, 4
	dec	eax
	fld	DWORD PTR [esi-4]
	fmul	ST(0), ST(3)
	faddp	ST(1), ST(0)
	fdiv	QWORD PTR tv9443[ebp]
	fstp	DWORD PTR tv16690[ebp]
	fld	DWORD PTR tv16690[ebp]
	fst	DWORD PTR [ecx-4]
	fstp	DWORD PTR [esi-4]
	jne	SHORT $LC58@newell_spl

; 1197 : 
; 1198 :      /* fill in fragment info */
; 1199 :      for ( i = 0 ; i < gdim ; i++ )

	mov	eax, DWORD PTR _tc$[ebp]
	fstp	ST(1)
	fstp	ST(0)
$LN223@newell_spl:

; 1202 :      }
; 1203 :      /* internal edges invisible */
; 1204 :      ta->etype[2] = tc->etype[0] = SPLITTING_EDGE;

	mov	ecx, 128				; 00000080H
	mov	WORD PTR [eax+20], cx
	mov	eax, ecx
	mov	WORD PTR [ebx+24], ax

; 1205 :      retval = 1;

	lea	ecx, DWORD PTR [eax-127]
$LN59@newell_spl:

; 1206 :   }
; 1207 :   if ( db == d1 ) /* split thru vertex 1 of ta */

	fld	ST(2)
	fld	ST(2)
	fucompp
	fnstsw	ax
	test	ah, 68					; 00000044H
	jp	$LN55@newell_spl

; 1208 :   { 
; 1209 :      tmpspot = tc->spot; *tc = *ta; tc->spot = tmpspot;

	mov	eax, DWORD PTR _tc$[ebp]
	mov	ecx, DWORD PTR [eax+136]
	mov	DWORD PTR _tmpspot$[ebp], ecx
	mov	ecx, 35					; 00000023H
	mov	esi, ebx
	mov	edi, eax
	rep movsd
	mov	ecx, DWORD PTR _tmpspot$[ebp]
	mov	DWORD PTR [eax+136], ecx

; 1210 : 
; 1211 :      /* fill in fragment info */
; 1212 :      for ( i = 0 ; i < gdim ; i++ )

	xor	ecx, ecx
	mov	DWORD PTR _i$[ebp], ecx
	cmp	edx, 4
	jl	$LN263@newell_spl
	mov	esi, DWORD PTR _tc$[ebp]
	fld	ST(3)
	fsub	ST(0), ST(3)
	lea	ecx, DWORD PTR [esi+32]

; 1213 :      { ta->x[2][i] = tc->x[0][i] = 
; 1214 :           (float)(((db-d0)*ta->x[2][i] + (d2-db)*ta->x[0][i])/(d2-d0));

	mov	edi, ebx
	fld	ST(3)
	sub	edi, esi
	fsub	ST(0), ST(2)
	lea	esi, DWORD PTR [edx-4]
	fld	ST(5)
	shr	esi, 2
	fsub	ST(0), ST(3)
	mov	DWORD PTR tv12264[ebp], edi
	inc	esi
	lea	edi, DWORD PTR [esi*4]
	fstp	QWORD PTR tv9526[ebp]
	mov	DWORD PTR _i$[ebp], edi
	mov	edi, DWORD PTR tv12264[ebp]
	lea	eax, DWORD PTR [ebx+56]
$LN228@newell_spl:
	fld	DWORD PTR [edi+ecx]
	add	ecx, 16					; 00000010H
	fmul	ST(0), ST(2)
	add	eax, 16					; 00000010H
	dec	esi
	fld	DWORD PTR [eax-16]
	fmul	ST(0), ST(2)
	faddp	ST(1), ST(0)
	fdiv	QWORD PTR tv9526[ebp]
	fstp	DWORD PTR tv17641[ebp]
	fld	DWORD PTR tv17641[ebp]
	fst	DWORD PTR [ecx-16]
	fstp	DWORD PTR [eax-16]
	fld	DWORD PTR [eax-36]
	fmul	ST(0), ST(2)
	fld	DWORD PTR [eax-12]
	fmul	ST(0), ST(2)
	faddp	ST(1), ST(0)
	fdiv	QWORD PTR tv9526[ebp]
	fstp	DWORD PTR tv17662[ebp]
	fld	DWORD PTR tv17662[ebp]
	fst	DWORD PTR [ecx-12]
	fstp	DWORD PTR [eax-12]
	fld	DWORD PTR [eax-32]
	fmul	ST(0), ST(2)
	fld	DWORD PTR [eax-8]
	fmul	ST(0), ST(2)
	faddp	ST(1), ST(0)
	fdiv	QWORD PTR tv9526[ebp]
	fstp	DWORD PTR tv17683[ebp]
	fld	DWORD PTR tv17683[ebp]
	fst	DWORD PTR [ecx-8]
	fstp	DWORD PTR [eax-8]
	fld	DWORD PTR [eax-28]
	fmul	ST(0), ST(2)
	fld	DWORD PTR [eax-4]
	fmul	ST(0), ST(2)
	faddp	ST(1), ST(0)
	fdiv	QWORD PTR tv9526[ebp]
	fstp	DWORD PTR tv17704[ebp]
	fld	DWORD PTR tv17704[ebp]
	fst	DWORD PTR [ecx-4]
	fstp	DWORD PTR [eax-4]
	jne	SHORT $LN228@newell_spl

; 1208 :   { 
; 1209 :      tmpspot = tc->spot; *tc = *ta; tc->spot = tmpspot;

	mov	eax, DWORD PTR _tc$[ebp]
	fstp	ST(1)
	mov	ecx, DWORD PTR _i$[ebp]
	fstp	ST(0)
$LN263@newell_spl:

; 1210 : 
; 1211 :      /* fill in fragment info */
; 1212 :      for ( i = 0 ; i < gdim ; i++ )

	cmp	ecx, edx
	jge	SHORT $LN226@newell_spl
	fld	ST(3)
	mov	edi, ebx
	fsub	ST(0), ST(3)
	sub	edi, eax
	fld	ST(3)
	lea	esi, DWORD PTR [ebx+ecx*4+56]
	fsub	ST(0), ST(2)
	lea	ecx, DWORD PTR [eax+ecx*4+32]
	fld	ST(5)
	mov	eax, edx
	sub	eax, DWORD PTR _i$[ebp]
	fsub	ST(0), ST(3)
	mov	DWORD PTR tv12264[ebp], edi
	fstp	QWORD PTR tv9526[ebp]
$LC54@newell_spl:

; 1213 :      { ta->x[2][i] = tc->x[0][i] = 
; 1214 :           (float)(((db-d0)*ta->x[2][i] + (d2-db)*ta->x[0][i])/(d2-d0));

	fld	DWORD PTR [edi+ecx]
	add	ecx, 4
	fmul	ST(0), ST(2)
	add	esi, 4
	dec	eax
	fld	DWORD PTR [esi-4]
	fmul	ST(0), ST(2)
	faddp	ST(1), ST(0)
	fdiv	QWORD PTR tv9526[ebp]
	fstp	DWORD PTR tv17961[ebp]
	fld	DWORD PTR tv17961[ebp]
	fst	DWORD PTR [ecx-4]
	fstp	DWORD PTR [esi-4]
	jne	SHORT $LC54@newell_spl

; 1210 : 
; 1211 :      /* fill in fragment info */
; 1212 :      for ( i = 0 ; i < gdim ; i++ )

	mov	eax, DWORD PTR _tc$[ebp]
	fstp	ST(1)
	fstp	ST(0)
$LN226@newell_spl:

; 1215 :      }
; 1216 :      /* internal edges invisible */
; 1217 :      ta->etype[1] = tc->etype[0] = SPLITTING_EDGE;

	mov	ecx, 128				; 00000080H
	mov	WORD PTR [eax+20], cx
	mov	eax, ecx
	mov	WORD PTR [ebx+22], ax

; 1218 :      retval = 1;

	lea	ecx, DWORD PTR [eax-127]
$LN55@newell_spl:

; 1219 :   }
; 1220 :   if ( db == d2 ) /* split thru vertex 2 of ta */

	fld	ST(2)
	fld	ST(4)
	fucompp
	fnstsw	ax
	test	ah, 68					; 00000044H
	jp	$LN51@newell_spl

; 1221 :   { 
; 1222 :     tmpspot = tc->spot; *tc = *ta; tc->spot = tmpspot;

	mov	eax, DWORD PTR _tc$[ebp]
	fstp	ST(3)
	mov	ecx, DWORD PTR [eax+136]
	mov	DWORD PTR _tmpspot$[ebp], ecx
	mov	ecx, 35					; 00000023H
	mov	esi, ebx
	mov	edi, eax
	rep movsd
	mov	ecx, DWORD PTR _tmpspot$[ebp]
	mov	DWORD PTR [eax+136], ecx

; 1223 : 
; 1224 :     /* fill in fragment info */
; 1225 :     for ( i = 0 ; i < gdim ; i++ )

	xor	ecx, ecx
	mov	DWORD PTR _i$[ebp], ecx
	cmp	edx, 4
	jl	$LN264@newell_spl
	mov	esi, DWORD PTR _tc$[ebp]
	fld	ST(1)
	lea	ecx, DWORD PTR [esi+32]
	fsub	ST(0), ST(3)

; 1226 :     { ta->x[1][i] = tc->x[0][i] = 
; 1227 :           (float)(((db-d0)*ta->x[1][i] + (d1-db)*ta->x[0][i])/(d1-d0));

	mov	edi, ebx
	fld	ST(1)
	sub	edi, esi
	fsub	ST(0), ST(3)
	lea	esi, DWORD PTR [edx-4]
	fld	ST(2)
	shr	esi, 2
	fsub	ST(0), ST(5)
	mov	DWORD PTR tv12264[ebp], edi
	inc	esi
	lea	edi, DWORD PTR [esi*4]
	mov	DWORD PTR _i$[ebp], edi
	mov	edi, DWORD PTR tv12264[ebp]
	lea	eax, DWORD PTR [ebx+48]
$LN231@newell_spl:
	fld	DWORD PTR [ecx+edi]
	add	ecx, 16					; 00000010H
	fmul	ST(0), ST(2)
	add	eax, 16					; 00000010H
	dec	esi
	fld	DWORD PTR [eax-20]
	fmul	ST(0), ST(4)
	faddp	ST(1), ST(0)
	fdiv	ST(0), ST(1)
	fstp	DWORD PTR tv18788[ebp]
	fld	DWORD PTR tv18788[ebp]
	fst	DWORD PTR [ecx-16]
	fstp	DWORD PTR [eax-20]
	fld	DWORD PTR [eax-28]
	fmul	ST(0), ST(2)
	fld	DWORD PTR [eax-16]
	fmul	ST(0), ST(4)
	faddp	ST(1), ST(0)
	fdiv	ST(0), ST(1)
	fstp	DWORD PTR tv18805[ebp]
	fld	DWORD PTR tv18805[ebp]
	fst	DWORD PTR [ecx-12]
	fstp	DWORD PTR [eax-16]
	fld	DWORD PTR [eax-24]
	fmul	ST(0), ST(2)
	fld	DWORD PTR [eax-12]
	fmul	ST(0), ST(4)
	faddp	ST(1), ST(0)
	fdiv	ST(0), ST(1)
	fstp	DWORD PTR tv18826[ebp]
	fld	DWORD PTR tv18826[ebp]
	fst	DWORD PTR [ecx-8]
	fstp	DWORD PTR [eax-12]
	fld	DWORD PTR [eax-8]
	fmul	ST(0), ST(3)
	fld	DWORD PTR [eax-20]
	fmul	ST(0), ST(3)
	faddp	ST(1), ST(0)
	fdiv	ST(0), ST(1)
	fstp	DWORD PTR tv18845[ebp]
	fld	DWORD PTR tv18845[ebp]
	fst	DWORD PTR [ecx-4]
	fstp	DWORD PTR [eax-8]
	jne	SHORT $LN231@newell_spl

; 1221 :   { 
; 1222 :     tmpspot = tc->spot; *tc = *ta; tc->spot = tmpspot;

	mov	eax, DWORD PTR _tc$[ebp]
	fstp	ST(2)
	mov	ecx, DWORD PTR _i$[ebp]
	fstp	ST(0)
	fstp	ST(0)
$LN264@newell_spl:

; 1223 : 
; 1224 :     /* fill in fragment info */
; 1225 :     for ( i = 0 ; i < gdim ; i++ )

	cmp	ecx, edx
	jge	SHORT $LN398@newell_spl
	fld	ST(1)
	mov	edi, ebx
	fsub	ST(0), ST(3)
	sub	edi, eax
	fld	ST(1)
	lea	esi, DWORD PTR [ebx+ecx*4+44]
	fsubrp	ST(3), ST(0)
	lea	ecx, DWORD PTR [eax+ecx*4+32]
	fxch	ST(1)
	mov	eax, edx
	sub	eax, DWORD PTR _i$[ebp]
	fsubrp	ST(3), ST(0)
	mov	DWORD PTR tv12264[ebp], edi
$LC50@newell_spl:

; 1226 :     { ta->x[1][i] = tc->x[0][i] = 
; 1227 :           (float)(((db-d0)*ta->x[1][i] + (d1-db)*ta->x[0][i])/(d1-d0));

	fld	DWORD PTR [edi+ecx]
	add	ecx, 4
	fmul	ST(0), ST(2)
	add	esi, 4
	dec	eax
	fld	DWORD PTR [esi-4]
	fmul	ST(0), ST(2)
	faddp	ST(1), ST(0)
	fdiv	ST(0), ST(3)
	fstp	DWORD PTR tv19071[ebp]
	fld	DWORD PTR tv19071[ebp]
	fst	DWORD PTR [ecx-4]
	fstp	DWORD PTR [esi-4]
	jne	SHORT $LC50@newell_spl

; 1223 : 
; 1224 :     /* fill in fragment info */
; 1225 :     for ( i = 0 ; i < gdim ; i++ )

	mov	eax, DWORD PTR _tc$[ebp]
	fstp	ST(0)

; 1228 :     }
; 1229 :     /* internal edges invisible */
; 1230 :     ta->etype[1] = tc->etype[2] = SPLITTING_EDGE;

	mov	ecx, 128				; 00000080H
	mov	WORD PTR [eax+24], cx
	mov	eax, ecx
	mov	WORD PTR [ebx+22], ax

; 1231 :     retval = 1;
; 1232 :   }
; 1233 : 
; 1234 :   if ( retval == 1 )

	jmp	SHORT $LN544@newell_spl
$LN398@newell_spl:

; 1228 :     }
; 1229 :     /* internal edges invisible */
; 1230 :     ta->etype[1] = tc->etype[2] = SPLITTING_EDGE;

	mov	ecx, 128				; 00000080H
	fstp	ST(2)
	mov	WORD PTR [eax+24], cx
	mov	eax, ecx
	mov	WORD PTR [ebx+22], ax

; 1231 :     retval = 1;
; 1232 :   }
; 1233 : 
; 1234 :   if ( retval == 1 )

	jmp	SHORT $LN544@newell_spl
$LN51@newell_spl:
	cmp	ecx, 1
	jne	$LN34@newell_spl
	fstp	ST(0)
	fstp	ST(2)
$LN544@newell_spl:
	fstp	ST(0)
	fstp	ST(0)

; 1235 :   {
; 1236 :      /* set mins and maxs */
; 1237 :      for ( i = 0 ; i < gdim ; i++ )

	test	edx, edx
	jle	$LN265@newell_spl
	mov	eax, DWORD PTR _tc$[ebp]
	fld	DWORD PTR __real@7149f2ca
	fld	DWORD PTR __real@f149f2ca

; 1238 :      { int j;
; 1239 :         ta->mins[i] = tc->mins[i] = (float)1e30;

	mov	edi, ebx
	lea	esi, DWORD PTR [ebx+80]
	lea	ecx, DWORD PTR [eax+32]
	sub	edi, eax
$LN46@newell_spl:
	fxch	ST(1)
	fst	DWORD PTR [ecx+48]
	fst	DWORD PTR [esi]

; 1240 :         ta->maxs[i] = tc->maxs[i] = (float)(-1e30);

	fxch	ST(1)
	fst	DWORD PTR [ecx+60]
	fst	DWORD PTR [esi+12]

; 1241 :         for ( j = 0 ; j < FACET_VERTS ; j++ )
; 1242 :         { if ( ta->x[j][i] < ta->mins[i] ) ta->mins[i] = ta->x[j][i];

	fld	DWORD PTR [edi+ecx]
	fld	DWORD PTR [esi]
	fcompp
	fnstsw	ax
	test	ah, 65					; 00000041H
	jne	SHORT $LN40@newell_spl
	fld	DWORD PTR [edi+ecx]
	fstp	DWORD PTR [esi]
$LN40@newell_spl:

; 1243 :           if ( tc->x[j][i] < tc->mins[i] ) tc->mins[i] = tc->x[j][i];

	fld	DWORD PTR [ecx]
	fld	DWORD PTR [ecx+48]
	fcompp
	fnstsw	ax
	test	ah, 65					; 00000041H
	jne	SHORT $LN39@newell_spl
	fld	DWORD PTR [ecx]
	fstp	DWORD PTR [ecx+48]
$LN39@newell_spl:

; 1244 :           if ( ta->x[j][i] > ta->maxs[i] ) ta->maxs[i] = ta->x[j][i];

	fld	DWORD PTR [edi+ecx]
	fld	DWORD PTR [esi+12]
	fcompp
	fnstsw	ax
	test	ah, 5
	jp	SHORT $LN38@newell_spl
	fld	DWORD PTR [edi+ecx]
	fstp	DWORD PTR [esi+12]
$LN38@newell_spl:

; 1245 :           if ( tc->x[j][i] > tc->maxs[i] ) tc->maxs[i] = tc->x[j][i];

	fld	DWORD PTR [ecx]
	fld	DWORD PTR [ecx+60]
	fcompp
	fnstsw	ax
	test	ah, 5
	jp	SHORT $LN42@newell_spl
	fld	DWORD PTR [ecx]
	fstp	DWORD PTR [ecx+60]
$LN42@newell_spl:

; 1241 :         for ( j = 0 ; j < FACET_VERTS ; j++ )
; 1242 :         { if ( ta->x[j][i] < ta->mins[i] ) ta->mins[i] = ta->x[j][i];

	fld	DWORD PTR [esi-36]
	fld	DWORD PTR [esi]
	fcompp
	fnstsw	ax
	test	ah, 65					; 00000041H
	jne	SHORT $LN239@newell_spl
	fld	DWORD PTR [esi-36]
	fstp	DWORD PTR [esi]
$LN239@newell_spl:

; 1243 :           if ( tc->x[j][i] < tc->mins[i] ) tc->mins[i] = tc->x[j][i];

	fld	DWORD PTR [ecx+12]
	fld	DWORD PTR [ecx+48]
	fcompp
	fnstsw	ax
	test	ah, 65					; 00000041H
	jne	SHORT $LN240@newell_spl
	fld	DWORD PTR [ecx+12]
	fstp	DWORD PTR [ecx+48]
$LN240@newell_spl:

; 1244 :           if ( ta->x[j][i] > ta->maxs[i] ) ta->maxs[i] = ta->x[j][i];

	fld	DWORD PTR [esi-36]
	fld	DWORD PTR [esi+12]
	fcompp
	fnstsw	ax
	test	ah, 5
	jp	SHORT $LN241@newell_spl
	fld	DWORD PTR [esi-36]
	fstp	DWORD PTR [esi+12]
$LN241@newell_spl:

; 1245 :           if ( tc->x[j][i] > tc->maxs[i] ) tc->maxs[i] = tc->x[j][i];

	fld	DWORD PTR [ecx+12]
	fld	DWORD PTR [ecx+60]
	fcompp
	fnstsw	ax
	test	ah, 5
	jp	SHORT $LN242@newell_spl
	fld	DWORD PTR [ecx+12]
	fstp	DWORD PTR [ecx+60]
$LN242@newell_spl:

; 1241 :         for ( j = 0 ; j < FACET_VERTS ; j++ )
; 1242 :         { if ( ta->x[j][i] < ta->mins[i] ) ta->mins[i] = ta->x[j][i];

	fld	DWORD PTR [esi-24]
	fld	DWORD PTR [esi]
	fcompp
	fnstsw	ax
	test	ah, 65					; 00000041H
	jne	SHORT $LN244@newell_spl
	fld	DWORD PTR [esi-24]
	fstp	DWORD PTR [esi]
$LN244@newell_spl:

; 1243 :           if ( tc->x[j][i] < tc->mins[i] ) tc->mins[i] = tc->x[j][i];

	fld	DWORD PTR [ecx+24]
	fld	DWORD PTR [ecx+48]
	fcompp
	fnstsw	ax
	test	ah, 65					; 00000041H
	jne	SHORT $LN245@newell_spl
	fld	DWORD PTR [ecx+24]
	fstp	DWORD PTR [ecx+48]
$LN245@newell_spl:

; 1244 :           if ( ta->x[j][i] > ta->maxs[i] ) ta->maxs[i] = ta->x[j][i];

	fld	DWORD PTR [esi-24]
	fld	DWORD PTR [esi+12]
	fcompp
	fnstsw	ax
	test	ah, 5
	jp	SHORT $LN246@newell_spl
	fld	DWORD PTR [esi-24]
	fstp	DWORD PTR [esi+12]
$LN246@newell_spl:

; 1245 :           if ( tc->x[j][i] > tc->maxs[i] ) tc->maxs[i] = tc->x[j][i];

	fld	DWORD PTR [ecx+24]
	fld	DWORD PTR [ecx+60]
	fcompp
	fnstsw	ax
	test	ah, 5
	jp	SHORT $LN45@newell_spl
	fld	DWORD PTR [ecx+24]
	fstp	DWORD PTR [ecx+60]
$LN45@newell_spl:

; 1235 :   {
; 1236 :      /* set mins and maxs */
; 1237 :      for ( i = 0 ; i < gdim ; i++ )

	add	ecx, 4
	add	esi, 4
	dec	edx
	jne	$LN46@newell_spl
	fstp	ST(1)
	fstp	ST(0)
$LN265@newell_spl:

; 1246 :         }
; 1247 :      }
; 1248 :      if ( ta->mins[2] > tc->mins[2] )

	fld	DWORD PTR [ebx+88]
	mov	edx, DWORD PTR _tc$[ebp]
	fld	DWORD PTR [edx+88]
	fcompp
	fnstsw	ax
	test	ah, 5
	jp	SHORT $LN36@newell_spl

; 1249 :      { struct tsort tmp;  /* get ta as back part */
; 1250 :        tmp = *ta;

	mov	ecx, 35					; 00000023H
	mov	esi, ebx
	lea	edi, DWORD PTR _tmp$89741[ebp]
	rep movsd

; 1251 :        *ta = *tc;

	mov	ecx, 35					; 00000023H
	mov	esi, edx
	mov	edi, ebx
	rep movsd

; 1252 :        *tc = tmp;

	mov	ecx, 35					; 00000023H
	lea	esi, DWORD PTR _tmp$89741[ebp]
	mov	edi, edx
	rep movsd

; 1253 :        tmpspot = ta->spot; ta->spot = tc->spot; tc->spot = tmpspot;

	mov	ecx, DWORD PTR [edx+136]
	mov	eax, DWORD PTR [ebx+136]
	mov	DWORD PTR [ebx+136], ecx
	mov	DWORD PTR [edx+136], eax
$LN36@newell_spl:

; 1254 :      }
; 1255 :      /* find_bbox(tc); */
; 1256 :      if ( setquadcode(tc) == INTHEBOX )

	mov	esi, edx

; 1257 :      { qdepth_insert(tc);
; 1258 :        return 1;

	jmp	$LN549@newell_spl
$LN34@newell_spl:

; 1259 :      }
; 1260 :      else { tc->flag = 0; return 0; }
; 1261 :   }
; 1262 : 
; 1263 :   if ( (d0-db)*(d2-db) > 0.0 )

	fld	ST(3)
	fsub	ST(0), ST(3)
	fld	ST(1)
	fsub	ST(0), ST(4)
	fmul	ST(0), ST(1)
	fldz
	fcom	ST(1)
	fnstsw	ax
	fstp	ST(1)
	test	ah, 5
	jp	$LN33@newell_spl

; 1265 :     short e = ta->etype[1];

	movzx	eax, WORD PTR [ebx+22]
	fstp	ST(1)
	mov	edi, DWORD PTR [ebx+12]
	fstp	ST(0)

; 1266 :     REAL d = d1;
; 1267 :     for ( i = 0 ; i < gdim ; i++ )

	xor	esi, esi
	mov	DWORD PTR _e$89746[ebp], eax
	cmp	edx, 4
	jl	SHORT $LN266@newell_spl

; 1264 :   { int c = ta->ecolor[1]; 

	lea	ecx, DWORD PTR [edx-4]
	shr	ecx, 2
	inc	ecx
	lea	eax, DWORD PTR [ebx+48]
	lea	esi, DWORD PTR [ecx*4]

; 1266 :     REAL d = d1;
; 1267 :     for ( i = 0 ; i < gdim ; i++ )

$LN250@newell_spl:

; 1268 :     { float temp = ta->x[1][i]; 

	fld	DWORD PTR [eax-4]

; 1269 :       ta->x[1][i] = ta->x[0][i]; ta->x[0][i] = ta->x[2][i];

	add	eax, 16					; 00000010H
	dec	ecx
	fstp	DWORD PTR _temp$89751[ebp]
	fld	DWORD PTR [eax-32]
	fstp	DWORD PTR [eax-20]
	fld	DWORD PTR [eax-8]
	fstp	DWORD PTR [eax-32]

; 1270 :       ta->x[2][i] = temp;

	fld	DWORD PTR _temp$89751[ebp]
	fstp	DWORD PTR [eax-8]
	fld	DWORD PTR [eax-16]
	fstp	DWORD PTR _temp$89751[ebp]
	fld	DWORD PTR [eax-28]
	fstp	DWORD PTR [eax-16]
	fld	DWORD PTR [eax-4]
	fstp	DWORD PTR [eax-28]
	fld	DWORD PTR _temp$89751[ebp]
	fstp	DWORD PTR [eax-4]
	fld	DWORD PTR [eax-12]
	fstp	DWORD PTR _temp$89751[ebp]
	fld	DWORD PTR [eax-24]
	fstp	DWORD PTR [eax-12]
	fld	DWORD PTR [eax]
	fstp	DWORD PTR [eax-24]
	fld	DWORD PTR _temp$89751[ebp]
	fstp	DWORD PTR [eax]
	fld	DWORD PTR [eax-8]
	fstp	DWORD PTR _temp$89751[ebp]
	fld	DWORD PTR [eax-20]
	fstp	DWORD PTR [eax-8]
	fld	DWORD PTR [eax+4]
	fstp	DWORD PTR [eax-20]
	fld	DWORD PTR _temp$89751[ebp]
	fstp	DWORD PTR [eax+4]
	jne	SHORT $LN250@newell_spl
$LN266@newell_spl:

; 1266 :     REAL d = d1;
; 1267 :     for ( i = 0 ; i < gdim ; i++ )

	cmp	esi, edx
	jge	SHORT $LN248@newell_spl
	mov	ecx, edx
	lea	eax, DWORD PTR [ebx+esi*4+32]
	sub	ecx, esi
$LC32@newell_spl:

; 1268 :     { float temp = ta->x[1][i]; 

	fld	DWORD PTR [eax+12]
	add	eax, 4
	dec	ecx
	fstp	DWORD PTR _temp$89751[ebp]

; 1269 :       ta->x[1][i] = ta->x[0][i]; ta->x[0][i] = ta->x[2][i];

	fld	DWORD PTR [eax-4]
	fstp	DWORD PTR [eax+8]
	fld	DWORD PTR [eax+20]
	fstp	DWORD PTR [eax-4]

; 1270 :       ta->x[2][i] = temp;

	fld	DWORD PTR _temp$89751[ebp]
	fstp	DWORD PTR [eax+20]
	jne	SHORT $LC32@newell_spl
$LN248@newell_spl:

; 1271 :     }
; 1272 :     ta->ecolor[1] = ta->ecolor[0]; ta->ecolor[0] = ta->ecolor[2];

	mov	ecx, DWORD PTR [ebx+8]

; 1273 :     ta->ecolor[2] = c;
; 1274 :     ta->etype[1] = ta->etype[0]; ta->etype[0] = ta->etype[2];
; 1275 :     ta->etype[2] = e;
; 1276 :     d1 = d0; d0 = d2; d2 = d;

	fst	QWORD PTR _d1$[ebp]
	mov	eax, DWORD PTR [ebx+16]
	fxch	ST(3)
	mov	DWORD PTR [ebx+12], ecx
	fst	QWORD PTR _d0$[ebp]
	movzx	ecx, WORD PTR [ebx+20]
	fxch	ST(1)
	mov	WORD PTR [ebx+22], cx
	fst	QWORD PTR _d2$[ebp]
	movzx	ecx, WORD PTR _e$89746[ebp]
	mov	DWORD PTR [ebx+8], eax
	mov	ax, WORD PTR [ebx+24]
	mov	DWORD PTR [ebx+16], edi
	mov	WORD PTR [ebx+20], ax
	mov	WORD PTR [ebx+24], cx
	jmp	$LN28@newell_spl
$LN33@newell_spl:

; 1277 :   }
; 1278 :   else if ( (d1-db)*(d2-db) > 0.0 )

	fld	ST(3)
	fsub	ST(0), ST(5)
	fmulp	ST(2), ST(0)
	fcompp
	fnstsw	ax
	test	ah, 5
	jp	$LN430@newell_spl

; 1280 :     short e = ta->etype[1];

	movzx	eax, WORD PTR [ebx+22]
	mov	edi, DWORD PTR [ebx+12]

; 1281 :     REAL d = d1;
; 1282 :     for ( i = 0 ; i < gdim ; i++ )

	xor	esi, esi
	mov	DWORD PTR _e$89755[ebp], eax
	cmp	edx, 4
	jl	SHORT $LN267@newell_spl

; 1279 :   { int c = ta->ecolor[1]; 

	lea	ecx, DWORD PTR [edx-4]
	shr	ecx, 2
	inc	ecx
	lea	eax, DWORD PTR [ebx+48]
	lea	esi, DWORD PTR [ecx*4]

; 1281 :     REAL d = d1;
; 1282 :     for ( i = 0 ; i < gdim ; i++ )

$LN253@newell_spl:

; 1283 :     { float temp = ta->x[1][i]; 

	fld	DWORD PTR [eax-4]

; 1284 :       ta->x[1][i] = ta->x[2][i]; ta->x[2][i] = ta->x[0][i];

	add	eax, 16					; 00000010H
	dec	ecx
	fstp	DWORD PTR _temp$89760[ebp]
	fld	DWORD PTR [eax-8]
	fstp	DWORD PTR [eax-20]
	fld	DWORD PTR [eax-32]
	fstp	DWORD PTR [eax-8]

; 1285 :       ta->x[0][i] = temp;

	fld	DWORD PTR _temp$89760[ebp]
	fstp	DWORD PTR [eax-32]
	fld	DWORD PTR [eax-16]
	fstp	DWORD PTR _temp$89760[ebp]
	fld	DWORD PTR [eax-4]
	fstp	DWORD PTR [eax-16]
	fld	DWORD PTR [eax-28]
	fstp	DWORD PTR [eax-4]
	fld	DWORD PTR _temp$89760[ebp]
	fstp	DWORD PTR [eax-28]
	fld	DWORD PTR [eax-12]
	fstp	DWORD PTR _temp$89760[ebp]
	fld	DWORD PTR [eax]
	fstp	DWORD PTR [eax-12]
	fld	DWORD PTR [eax-24]
	fstp	DWORD PTR [eax]
	fld	DWORD PTR _temp$89760[ebp]
	fstp	DWORD PTR [eax-24]
	fld	DWORD PTR [eax-8]
	fstp	DWORD PTR _temp$89760[ebp]
	fld	DWORD PTR [eax+4]
	fstp	DWORD PTR [eax-8]
	fld	DWORD PTR [eax-20]
	fstp	DWORD PTR [eax+4]
	fld	DWORD PTR _temp$89760[ebp]
	fstp	DWORD PTR [eax-20]
	jne	SHORT $LN253@newell_spl
$LN267@newell_spl:

; 1281 :     REAL d = d1;
; 1282 :     for ( i = 0 ; i < gdim ; i++ )

	cmp	esi, edx
	jge	SHORT $LN251@newell_spl
	mov	ecx, edx
	lea	eax, DWORD PTR [ebx+esi*4+56]
	sub	ecx, esi
$LC27@newell_spl:

; 1283 :     { float temp = ta->x[1][i]; 

	fld	DWORD PTR [eax-12]
	add	eax, 4
	dec	ecx
	fstp	DWORD PTR _temp$89760[ebp]

; 1284 :       ta->x[1][i] = ta->x[2][i]; ta->x[2][i] = ta->x[0][i];

	fld	DWORD PTR [eax-4]
	fstp	DWORD PTR [eax-16]
	fld	DWORD PTR [eax-28]
	fstp	DWORD PTR [eax-4]

; 1285 :       ta->x[0][i] = temp;

	fld	DWORD PTR _temp$89760[ebp]
	fstp	DWORD PTR [eax-28]
	jne	SHORT $LC27@newell_spl
$LN251@newell_spl:

; 1286 :     }
; 1287 :     ta->ecolor[1] = ta->ecolor[2]; ta->ecolor[2] = ta->ecolor[0];

	mov	ecx, DWORD PTR [ebx+16]

; 1288 :     ta->ecolor[0] = c;
; 1289 :     ta->etype[1] = ta->etype[2]; ta->etype[2] = ta->etype[0];
; 1290 :     ta->etype[0] = e;
; 1291 :     d1 = d2; d2 = d0; d0 = d;

	fxch	ST(3)
	mov	eax, DWORD PTR [ebx+8]
	fst	QWORD PTR _d1$[ebp]
	mov	DWORD PTR [ebx+12], ecx
	fxch	ST(3)
	movzx	ecx, WORD PTR [ebx+24]
	fst	QWORD PTR _d2$[ebp]
	mov	WORD PTR [ebx+22], cx
	fxch	ST(1)
	movzx	ecx, WORD PTR _e$89755[ebp]
	fst	QWORD PTR _d0$[ebp]
	fxch	ST(1)
	mov	DWORD PTR [ebx+16], eax
	mov	ax, WORD PTR [ebx+20]
	mov	DWORD PTR [ebx+8], edi
	mov	WORD PTR [ebx+24], ax
	mov	WORD PTR [ebx+20], cx
$LN28@newell_spl:

; 1292 :   }
; 1293 : 
; 1294 : 
; 1295 :   /* copy all info to fragments */
; 1296 :   tmpspot = tc->spot; *tc = *ta; tc->spot = tmpspot;

	mov	eax, DWORD PTR _tc$[ebp]
	mov	ecx, DWORD PTR [eax+136]
	mov	DWORD PTR _tmpspot$[ebp], ecx
	mov	edi, eax
	mov	ecx, 35					; 00000023H
	mov	esi, ebx
	rep movsd
	mov	ecx, DWORD PTR _tmpspot$[ebp]
	mov	DWORD PTR [eax+136], ecx

; 1297 :   tmpspot = td->spot; *td = *ta; td->spot = tmpspot;

	mov	eax, DWORD PTR _td$[ebp]
	mov	ecx, DWORD PTR [eax+136]
	mov	DWORD PTR _tmpspot$[ebp], ecx
	mov	edi, eax
	mov	ecx, 35					; 00000023H
	mov	esi, ebx
	rep movsd
	mov	ecx, DWORD PTR _tmpspot$[ebp]
	mov	DWORD PTR [eax+136], ecx

; 1298 :   retval = 2;
; 1299 : 
; 1300 :   /* fill in fragment info */
; 1301 :   for ( i = 0 ; i < gdim ; i++ )

	xor	eax, eax
	mov	DWORD PTR _retval$[ebp], 2
	mov	DWORD PTR _i$[ebp], eax
	cmp	edx, 4
	jl	$LN268@newell_spl
	mov	edx, DWORD PTR _td$[ebp]
	fld	ST(2)
	mov	esi, DWORD PTR _tc$[ebp]
	fsub	ST(0), ST(2)

; 1304 :     tc->x[2][i] = td->x[1][i] =
; 1305 :         (float)(((db-d1)*td->x[2][i] + (d2-db)*ta->x[1][i])/(d2-d1));

	mov	edi, ebx
	fld	ST(1)
	sub	edi, edx
	fsubrp	ST(3), ST(0)
	mov	DWORD PTR tv22780[ebp], edi
	fld	ST(1)
	mov	edi, DWORD PTR _tc$[ebp]
	fsub	ST(0), ST(4)
	sub	edi, edx
	fld	ST(4)
	lea	eax, DWORD PTR [edx+32]
	fsub	ST(0), ST(6)
	mov	edx, ebx
	fxch	ST(3)
	sub	edx, DWORD PTR _tc$[ebp]
	fsubrp	ST(6), ST(0)
	mov	DWORD PTR tv22785[ebp], edi
	mov	DWORD PTR tv12264[ebp], edx
	mov	edx, DWORD PTR _gdim
	lea	edi, DWORD PTR [edx-4]
	shr	edi, 2
	inc	edi
	mov	DWORD PTR tv23515[ebp], edi
	add	edi, edi
	add	esi, 36					; 00000024H
	add	edi, edi
	lea	ecx, DWORD PTR [ebx+48]
	mov	DWORD PTR _i$[ebp], edi
$LN269@newell_spl:

; 1302 :   { ta->x[2][i] = tc->x[0][i] = td->x[0][i] =
; 1303 :         (float)(((db-d0)*td->x[2][i] + (d2-db)*ta->x[0][i])/(d2-d0));

	mov	edi, DWORD PTR tv22780[ebp]
	fld	DWORD PTR [eax+edi]
	mov	edi, DWORD PTR tv22785[ebp]
	fmul	ST(0), ST(1)
	fld	DWORD PTR [eax+24]
	fmul	ST(0), ST(3)
	faddp	ST(1), ST(0)
	fdiv	ST(0), ST(4)
	fstp	DWORD PTR tv23558[ebp]
	fld	DWORD PTR tv23558[ebp]
	fst	DWORD PTR tv843[ebp]
	fstp	DWORD PTR [eax]
	fld	DWORD PTR tv843[ebp]
	fst	DWORD PTR [eax+edi]
	fstp	DWORD PTR [ecx+8]

; 1304 :     tc->x[2][i] = td->x[1][i] =
; 1305 :         (float)(((db-d1)*td->x[2][i] + (d2-db)*ta->x[1][i])/(d2-d1));

	fld	DWORD PTR [ecx-4]
	mov	edi, DWORD PTR tv12264[ebp]
	fmul	ST(0), ST(1)
	fld	DWORD PTR [eax+24]
	fmul	ST(0), ST(4)
	faddp	ST(1), ST(0)
	fdiv	ST(0), ST(6)
	fstp	DWORD PTR tv23577[ebp]
	fld	DWORD PTR tv23577[ebp]
	fst	DWORD PTR [eax+12]
	fstp	DWORD PTR [esi+20]
	fld	DWORD PTR [edi+esi]
	fmul	ST(0), ST(1)
	fld	DWORD PTR [eax+28]
	fmul	ST(0), ST(3)
	faddp	ST(1), ST(0)
	fdiv	ST(0), ST(4)
	fstp	DWORD PTR tv23598[ebp]
	fld	DWORD PTR tv23598[ebp]
	fst	DWORD PTR tv843[ebp]
	fstp	DWORD PTR [eax+4]
	fld	DWORD PTR tv843[ebp]
	fst	DWORD PTR [esi]
	fstp	DWORD PTR [ecx+12]
	fld	DWORD PTR [ecx]
	fmul	ST(0), ST(1)
	fld	DWORD PTR [eax+28]
	fmul	ST(0), ST(4)
	faddp	ST(1), ST(0)
	fdiv	ST(0), ST(6)
	fstp	DWORD PTR tv23613[ebp]
	fld	DWORD PTR tv23613[ebp]
	fst	DWORD PTR [eax+16]
	fstp	DWORD PTR [esi+24]
	fld	DWORD PTR [ecx-8]
	fmul	ST(0), ST(1)
	fld	DWORD PTR [eax+32]
	fmul	ST(0), ST(3)
	faddp	ST(1), ST(0)
	fdiv	ST(0), ST(4)
	fstp	DWORD PTR tv23634[ebp]
	fld	DWORD PTR tv23634[ebp]
	fst	DWORD PTR tv843[ebp]
	fstp	DWORD PTR [eax+8]
	fld	DWORD PTR tv843[ebp]
	fst	DWORD PTR [esi+4]
	fstp	DWORD PTR [ecx+16]
	fld	DWORD PTR [ecx+4]
	fmul	ST(0), ST(1)
	fld	DWORD PTR [eax+32]
	fmul	ST(0), ST(4)
	faddp	ST(1), ST(0)
	fdiv	ST(0), ST(6)
	fstp	DWORD PTR tv23653[ebp]
	fld	DWORD PTR tv23653[ebp]
	fst	DWORD PTR [eax+20]
	fstp	DWORD PTR [esi+28]
	fld	DWORD PTR [ecx-4]
	fmul	ST(0), ST(1)
	fld	DWORD PTR [eax+36]
	fmul	ST(0), ST(3)
	faddp	ST(1), ST(0)
	fdiv	ST(0), ST(4)
	fstp	DWORD PTR tv23670[ebp]
	fld	DWORD PTR tv23670[ebp]
	fst	DWORD PTR tv843[ebp]
	fstp	DWORD PTR [eax+12]
	add	eax, 16					; 00000010H
	fld	DWORD PTR tv843[ebp]
	add	esi, 16					; 00000010H
	fst	DWORD PTR [esi-8]
	add	ecx, 16					; 00000010H
	dec	DWORD PTR tv23515[ebp]
	fstp	DWORD PTR [ecx+4]
	fld	DWORD PTR [ecx-8]
	fmul	ST(0), ST(1)
	fld	DWORD PTR [eax+20]
	fmul	ST(0), ST(4)
	faddp	ST(1), ST(0)
	fdiv	ST(0), ST(6)
	fstp	DWORD PTR tv23689[ebp]
	fld	DWORD PTR tv23689[ebp]
	fst	DWORD PTR [eax+8]
	fstp	DWORD PTR [esi+16]
	jne	$LN269@newell_spl

; 1292 :   }
; 1293 : 
; 1294 : 
; 1295 :   /* copy all info to fragments */
; 1296 :   tmpspot = tc->spot; *tc = *ta; tc->spot = tmpspot;

	mov	eax, DWORD PTR _i$[ebp]
	fstp	ST(0)
	fstp	ST(0)
	fstp	ST(1)
	fstp	ST(0)
	fstp	ST(1)
	fld	QWORD PTR _d0$[ebp]
	fld	QWORD PTR _d1$[ebp]
	fld	QWORD PTR _d2$[ebp]
	fxch	ST(1)
	fxch	ST(3)
	fxch	ST(2)
	fxch	ST(1)
$LN268@newell_spl:

; 1298 :   retval = 2;
; 1299 : 
; 1300 :   /* fill in fragment info */
; 1301 :   for ( i = 0 ; i < gdim ; i++ )

	cmp	eax, edx
	jge	$LN425@newell_spl
	mov	esi, DWORD PTR _td$[ebp]
	fld	ST(2)
	mov	ecx, DWORD PTR _tc$[ebp]
	fsub	ST(0), ST(2)
	fld	ST(1)
	mov	edi, ebx
	fsubrp	ST(3), ST(0)
	sub	edi, esi
	lea	ecx, DWORD PTR [ecx+eax*4+56]
	fld	ST(1)
	fsub	ST(0), ST(4)
	mov	DWORD PTR tv22780[ebp], edi
	mov	edi, DWORD PTR _tc$[ebp]
	fxch	ST(4)
	mov	DWORD PTR tv23922[ebp], ecx
	fsub	ST(0), ST(5)
	sub	edi, esi
	fxch	ST(2)
	lea	ecx, DWORD PTR [ebx+eax*4+44]
	fsubrp	ST(5), ST(0)
	lea	eax, DWORD PTR [esi+eax*4+32]
	mov	esi, edx
	sub	esi, DWORD PTR _i$[ebp]
	mov	DWORD PTR tv22785[ebp], edi
$LN272@newell_spl:

; 1302 :   { ta->x[2][i] = tc->x[0][i] = td->x[0][i] =
; 1303 :         (float)(((db-d0)*td->x[2][i] + (d2-db)*ta->x[0][i])/(d2-d0));

	mov	edi, DWORD PTR tv22780[ebp]
	fld	DWORD PTR [eax+edi]
	mov	edi, DWORD PTR tv22785[ebp]
	fmul	ST(0), ST(4)
	add	eax, 4
	fld	DWORD PTR [eax+20]
	add	ecx, 4
	fmul	ST(0), ST(2)
	faddp	ST(1), ST(0)
	fdiv	ST(0), ST(3)
	fstp	DWORD PTR tv24124[ebp]
	fld	DWORD PTR tv24124[ebp]
	fst	DWORD PTR tv843[ebp]
	fstp	DWORD PTR [eax-4]
	fld	DWORD PTR tv843[ebp]
	fst	DWORD PTR [eax+edi-4]
	fstp	DWORD PTR [ecx+8]

; 1304 :     tc->x[2][i] = td->x[1][i] =
; 1305 :         (float)(((db-d1)*td->x[2][i] + (d2-db)*ta->x[1][i])/(d2-d1));

	fld	DWORD PTR [eax+20]
	mov	edi, DWORD PTR tv23922[ebp]
	fmul	ST(0), ST(2)
	add	edi, 4
	dec	esi
	fld	DWORD PTR [ecx-4]
	fmul	ST(0), ST(5)
	mov	DWORD PTR tv23922[ebp], edi
	faddp	ST(1), ST(0)
	fdiv	ST(0), ST(5)
	fstp	DWORD PTR tv24299[ebp]
	fld	DWORD PTR tv24299[ebp]
	fst	DWORD PTR [eax+8]
	fstp	DWORD PTR [edi-4]
	jne	SHORT $LN272@newell_spl

; 1298 :   retval = 2;
; 1299 : 
; 1300 :   /* fill in fragment info */
; 1301 :   for ( i = 0 ; i < gdim ; i++ )

	fstp	ST(3)
	fstp	ST(2)
	fstp	ST(0)
	fstp	ST(1)
$LN545@newell_spl:

; 1306 :   }
; 1307 :   /* internal edges invisible */
; 1308 :   ta->etype[1] = tc->etype[0] = tc->etype[2] = td->etype[0] = SPLITTING_EDGE;

	mov	ecx, DWORD PTR _td$[ebp]
	fstp	ST(0)
	mov	eax, 128				; 00000080H
	mov	WORD PTR [ecx+20], ax
	mov	ecx, eax
	mov	eax, DWORD PTR _tc$[ebp]
	mov	WORD PTR [eax+24], cx
	mov	WORD PTR [eax+20], cx
	mov	eax, ecx
	mov	WORD PTR [ebx+22], ax

; 1309 : 
; 1310 :   /* set mins and maxs */
; 1311 :   for ( i = 0 ; i < gdim ; i++ )

	test	edx, edx
	jle	$LN19@newell_spl

; 1306 :   }
; 1307 :   /* internal edges invisible */
; 1308 :   ta->etype[1] = tc->etype[0] = tc->etype[2] = td->etype[0] = SPLITTING_EDGE;

	mov	ecx, DWORD PTR _td$[ebp]
	fld	DWORD PTR __real@7149f2ca
	fld	DWORD PTR __real@f149f2ca
	lea	eax, DWORD PTR [ecx+92]
	mov	DWORD PTR tv24791[ebp], eax
	mov	eax, DWORD PTR _tc$[ebp]

; 1312 :   { int j;
; 1313 :     ta->mins[i] = tc->mins[i] = td->mins[i] = (float)1e30;

	sub	ecx, eax
	mov	edi, ebx
	lea	esi, DWORD PTR [eax+80]
	sub	edi, eax
	mov	eax, ebx
	sub	eax, DWORD PTR _td$[ebp]
	mov	DWORD PTR tv24952[ebp], edx
	mov	DWORD PTR tv24598[ebp], ecx
	mov	DWORD PTR tv22780[ebp], eax
	mov	edx, ecx
$LN21@newell_spl:

; 1314 :     ta->maxs[i] = tc->maxs[i] = td->maxs[i] = (float)(-1e30);

	mov	eax, DWORD PTR tv24791[ebp]
	fxch	ST(1)
	mov	ecx, DWORD PTR tv22780[ebp]
	fst	DWORD PTR [esi+edx]
	fst	DWORD PTR [esi]
	mov	DWORD PTR tv24569[ebp], 3
	fst	DWORD PTR [edi+esi]
	fxch	ST(1)
	fst	DWORD PTR [eax]
	fst	DWORD PTR [esi+12]
	fst	DWORD PTR [ecx+eax]
	lea	ecx, DWORD PTR [esi-48]
$LN18@newell_spl:

; 1316 :     { if ( ta->x[j][i] < ta->mins[i] ) ta->mins[i] = ta->x[j][i];

	fld	DWORD PTR [edi+ecx]
	fld	DWORD PTR [edi+esi]
	fcompp
	fnstsw	ax
	test	ah, 65					; 00000041H
	jne	SHORT $LN15@newell_spl
	fld	DWORD PTR [edi+ecx]
	fstp	DWORD PTR [edi+esi]
$LN15@newell_spl:

; 1317 :       if ( tc->x[j][i] < tc->mins[i] ) tc->mins[i] = tc->x[j][i];

	fld	DWORD PTR [ecx]
	fld	DWORD PTR [esi]
	fcompp
	fnstsw	ax
	test	ah, 65					; 00000041H
	jne	SHORT $LN14@newell_spl
	fld	DWORD PTR [ecx]
	fstp	DWORD PTR [esi]
$LN14@newell_spl:

; 1318 :       if ( td->x[j][i] < td->mins[i] ) td->mins[i] = td->x[j][i];

	fld	DWORD PTR [ecx+edx]
	fld	DWORD PTR [esi+edx]
	fcompp
	fnstsw	ax
	test	ah, 65					; 00000041H
	jne	SHORT $LN13@newell_spl
	fld	DWORD PTR [ecx+edx]
	fstp	DWORD PTR [esi+edx]
$LN13@newell_spl:

; 1319 :       if ( ta->x[j][i] > ta->maxs[i] ) ta->maxs[i] = ta->x[j][i];

	mov	eax, DWORD PTR tv22780[ebp]
	fld	DWORD PTR [edi+ecx]
	mov	edx, DWORD PTR tv24791[ebp]
	fld	DWORD PTR [eax+edx]
	fcompp
	fnstsw	ax
	test	ah, 5
	jp	SHORT $LN12@newell_spl
	fld	DWORD PTR [edi+ecx]
	mov	eax, DWORD PTR tv22780[ebp]
	fstp	DWORD PTR [eax+edx]
$LN12@newell_spl:

; 1320 :       if ( tc->x[j][i] > tc->maxs[i] ) tc->maxs[i] = tc->x[j][i];

	fld	DWORD PTR [ecx]
	fld	DWORD PTR [esi+12]
	fcompp
	fnstsw	ax
	test	ah, 5
	jp	SHORT $LN11@newell_spl
	fld	DWORD PTR [ecx]
	fstp	DWORD PTR [esi+12]
$LN11@newell_spl:

; 1321 :       if ( td->x[j][i] > td->maxs[i] ) td->maxs[i] = td->x[j][i];

	mov	edx, DWORD PTR tv24598[ebp]
	mov	eax, DWORD PTR tv24791[ebp]
	fld	DWORD PTR [ecx+edx]
	fld	DWORD PTR [eax]
	fcompp
	fnstsw	ax
	test	ah, 5
	jp	SHORT $LN17@newell_spl
	fld	DWORD PTR [ecx+edx]
	mov	eax, DWORD PTR tv24791[ebp]
	fstp	DWORD PTR [eax]
$LN17@newell_spl:

; 1315 :     for ( j = 0 ; j < 3 ; j++ )

	add	ecx, 12					; 0000000cH
	dec	DWORD PTR tv24569[ebp]
	jne	$LN18@newell_spl

; 1309 : 
; 1310 :   /* set mins and maxs */
; 1311 :   for ( i = 0 ; i < gdim ; i++ )

	add	DWORD PTR tv24791[ebp], 4
	add	esi, 4
	dec	DWORD PTR tv24952[ebp]
	jne	$LN21@newell_spl
	fstp	ST(1)
	fstp	ST(0)
$LN19@newell_spl:

; 1322 :     }
; 1323 :   }
; 1324 : 
; 1325 :   /* get ta as back part */
; 1326 :   if ( (tc->mins[2] < ta->mins[2]) && (tc->mins[2] <= td->mins[2]) )

	mov	ecx, DWORD PTR _tc$[ebp]
	fld	DWORD PTR [ecx+88]
	fld	DWORD PTR [ebx+88]
	fcompp
	fnstsw	ax
	test	ah, 65					; 00000041H
	jne	SHORT $LN271@newell_spl
	fld	DWORD PTR [ecx+88]
	mov	ecx, DWORD PTR _td$[ebp]
	fld	DWORD PTR [ecx+88]
	fcompp
	fnstsw	ax
	test	ah, 1
	jne	SHORT $LN271@newell_spl

; 1327 :   { struct tsort tmp;  /* get ta as back part */
; 1328 :     tmp = *ta;
; 1329 :     *ta = *tc;

	mov	eax, DWORD PTR _tc$[ebp]

; 1330 :     *tc = tmp;
; 1331 :     tmpspot = ta->spot; ta->spot = tc->spot; tc->spot = tmpspot;

	jmp	SHORT $LN546@newell_spl
$LN430@newell_spl:

; 1277 :   }
; 1278 :   else if ( (d1-db)*(d2-db) > 0.0 )

	fxch	ST(1)
	fxch	ST(3)
	jmp	$LN28@newell_spl
$LN425@newell_spl:

; 1298 :   retval = 2;
; 1299 : 
; 1300 :   /* fill in fragment info */
; 1301 :   for ( i = 0 ; i < gdim ; i++ )

	fstp	ST(1)
	fstp	ST(0)
	fstp	ST(0)
	jmp	$LN545@newell_spl
$LN271@newell_spl:

; 1332 :   }
; 1333 :   else if ( td->mins[2] < ta->mins[2] )

	mov	eax, DWORD PTR _td$[ebp]
	fld	DWORD PTR [eax+88]
	fld	DWORD PTR [ebx+88]
	fcompp
	fnstsw	ax
	test	ah, 65					; 00000041H
	jne	SHORT $LN7@newell_spl

; 1336 :     *ta = *td;

	mov	eax, DWORD PTR _td$[ebp]
$LN546@newell_spl:

; 1334 :   { struct tsort tmp;  /* get ta as back part */
; 1335 :     tmp = *ta;

	mov	ecx, 35					; 00000023H
	lea	edi, DWORD PTR _tmp$89785[ebp]
	mov	esi, ebx
	rep movsd

; 1336 :     *ta = *td;

	mov	ecx, 35					; 00000023H
	mov	edi, ebx
	mov	esi, eax
	rep movsd

; 1337 :     *td = tmp;

	mov	ecx, 35					; 00000023H
	mov	edi, eax
	lea	esi, DWORD PTR _tmp$89785[ebp]
	rep movsd

; 1338 :     tmpspot = ta->spot; ta->spot = td->spot; td->spot = tmpspot;

	mov	edx, DWORD PTR [eax+136]
	mov	ecx, DWORD PTR [ebx+136]
	mov	DWORD PTR [ebx+136], edx
	mov	DWORD PTR [eax+136], ecx
$LN7@newell_spl:

; 1339 :   }
; 1340 : 
; 1341 :   /* find_bbox(tc); */
; 1342 :   /* find_bbox(td); */
; 1343 :   if ( setquadcode(tc) == INTHEBOX )

	mov	ebx, DWORD PTR _tc$[ebp]
	push	ebx
	call	_setquadcode
	add	esp, 4

; 1344 :   { qdepth_insert(tc);

	push	ebx
	cmp	eax, 1
	jne	SHORT $LN6@newell_spl
	call	_qdepth_insert

; 1345 :     if ( setquadcode(td) == INTHEBOX )

	mov	edi, DWORD PTR _td$[ebp]
	push	edi
	call	_setquadcode
	add	esp, 8
	cmp	eax, 1
	jne	SHORT $LN5@newell_spl

; 1346 :       qdepth_insert(td);

	push	edi
	call	_qdepth_insert
	mov	esi, DWORD PTR _retval$[ebp]
	add	esp, 4
	pop	edi

; 1359 :   }
; 1360 :   return retval;

	mov	eax, esi
	pop	esi
	pop	ebx

; 1361 : } // end newell_split()

	mov	esp, ebp
	pop	ebp
	ret	0
$LN5@newell_spl:

; 1347 :     else { retval--; td->flag = 0; td->next = (struct tsort *)0xFF; }

	mov	esi, 1
	mov	DWORD PTR [edi+28], 0
	mov	DWORD PTR [edi+132], 255		; 000000ffH
	pop	edi

; 1359 :   }
; 1360 :   return retval;

	mov	eax, esi
	pop	esi
	pop	ebx

; 1361 : } // end newell_split()

	mov	esp, ebp
	pop	ebp
	ret	0
$LN6@newell_spl:

; 1348 :   }
; 1349 :   else
; 1350 :   { /* discard tc */
; 1351 :     tmpspot = tc->spot;
; 1352 :     *tc = *td; 

	mov	eax, DWORD PTR _td$[ebp]
	mov	edx, DWORD PTR [ebx+136]
	mov	esi, eax
	mov	ecx, 35					; 00000023H
	mov	edi, ebx
	rep movsd

; 1353 :     tc->spot = tmpspot;

	mov	DWORD PTR [ebx+136], edx

; 1354 :     td->flag = 0; td->next = (struct tsort *)0xAA;

	xor	edi, edi
	mov	DWORD PTR [eax+28], edi
	mov	DWORD PTR [eax+132], 170		; 000000aaH

; 1355 :     retval--;

	lea	esi, DWORD PTR [edi+1]

; 1356 :     if ( setquadcode(tc) == INTHEBOX )

	call	_setquadcode
	add	esp, 4
	cmp	eax, esi
	jne	SHORT $LN2@newell_spl

; 1357 :       qdepth_insert(tc);

	push	ebx
	call	_qdepth_insert
	add	esp, 4
	pop	edi

; 1359 :   }
; 1360 :   return retval;

	mov	eax, esi
	pop	esi
	pop	ebx

; 1361 : } // end newell_split()

	mov	esp, ebp
	pop	ebp
	ret	0
$LN2@newell_spl:

; 1358 :     else { retval--; tc->flag = 0; tc->next = (struct tsort *)0xEE; }

	xor	esi, esi
	mov	DWORD PTR [ebx+28], edi
	pop	edi

; 1359 :   }
; 1360 :   return retval;

	mov	eax, esi
	pop	esi
	mov	DWORD PTR [ebx+132], 238		; 000000eeH
	pop	ebx

; 1361 : } // end newell_split()

	mov	esp, ebp
	pop	ebp
	ret	0
_newell_split ENDP
_TEXT	ENDS
PUBLIC	__real@bff0000000000000
PUBLIC	__real@3f1a36e2eb1c432d
PUBLIC	_tb$GSCopy$
PUBLIC	_ta$GSCopy$
PUBLIC	__$ArrayPad$
PUBLIC	_separating_plane
;	COMDAT __real@bff0000000000000
CONST	SEGMENT
__real@bff0000000000000 DQ 0bff0000000000000r	; -1
CONST	ENDS
;	COMDAT __real@3f1a36e2eb1c432d
CONST	SEGMENT
__real@3f1a36e2eb1c432d DQ 03f1a36e2eb1c432dr	; 0.0001
; Function compile flags: /Ogtp
CONST	ENDS
;	COMDAT _separating_plane
_TEXT	SEGMENT
_b$ = -164						; size = 12
tv1969 = -156						; size = 8
_db$ = -156						; size = 8
_a$ = -148						; size = 12
tv1986 = -140						; size = 8
_da$ = -140						; size = 8
_bfar$ = -132						; size = 4
tv1959 = -128						; size = 4
_nna$ = -128						; size = 4
_beq$ = -124						; size = 4
_tb$GSCopy$ = -120					; size = 4
_ta$GSCopy$ = -116					; size = 4
_i$ = -112						; size = 4
_aeq$ = -112						; size = 4
_j$ = -108						; size = 4
_anear$ = -108						; size = 4
tv1699 = -104						; size = 4
tv401 = -104						; size = 4
_na$ = -104						; size = 4
_s$89848 = -100						; size = 24
_dbr$89851 = -76					; size = 24
_dar$89850 = -76					; size = 24
_da$89845 = -52						; size = 24
_db$89846 = -28						; size = 24
__$ArrayPad$ = -4					; size = 4
_ta$ = 8						; size = 4
_tb$ = 12						; size = 4
_depth$ = 16						; size = 4
_separating_plane PROC					; COMDAT

; 1377 : { int i,j;

	push	ebp
	mov	ebp, esp
	sub	esp, 164				; 000000a4H
	mov	eax, DWORD PTR ___security_cookie
	xor	eax, ebp
	mov	DWORD PTR __$ArrayPad$[ebp], eax

; 1378 :   int na,nb; /* vertices on respective elements */
; 1379 :   int nna; /* number of vertex pairs to check on ta */
; 1380 :   float *a[3],*b[3];
; 1381 :   int retval;
; 1382 :   REAL da,db,d;
; 1383 :   int n,k,bnear=0,beq=0,bfar=0,anear=0,afar=0,aeq=0;
; 1384 : 
; 1385 :   sep_plane_calls++;  /* for verbose statistics */

	fld	QWORD PTR _sep_plane_calls
	mov	eax, DWORD PTR _ta$[ebp]
	fadd	QWORD PTR __real@3ff0000000000000
	push	ebx
	mov	ebx, DWORD PTR _tb$[ebp]
	push	esi
	fstp	QWORD PTR _sep_plane_calls

; 1386 : 
; 1387 :   /* see where tb is with respect to ta plane */
; 1388 :   if ( (ta->flag & 0xF) == FACET  )

	mov	ecx, DWORD PTR [eax+28]
	xor	esi, esi
	and	cl, 15					; 0000000fH
	push	edi
	mov	DWORD PTR _ta$GSCopy$[ebp], eax
	mov	DWORD PTR _tb$GSCopy$[ebp], ebx
	mov	DWORD PTR _beq$[ebp], esi
	mov	DWORD PTR _bfar$[ebp], esi
	mov	DWORD PTR _anear$[ebp], esi
	mov	DWORD PTR _aeq$[ebp], esi
	cmp	cl, 2
	jne	$LN57@separating

; 1389 :   { da = dotf(ta->normal,ta->x[0],gdim);

	mov	edx, DWORD PTR _gdim
	lea	ecx, DWORD PTR [eax+68]
	push	edx
	add	eax, 32					; 00000020H
	push	eax
	push	ecx
	mov	DWORD PTR tv1959[ebp], ecx
	call	_dotf
	fst	QWORD PTR _da$[ebp]

; 1390 :     n = ((tb->flag & 0xF) == FACET) ? 3 : 2;

	mov	eax, DWORD PTR [ebx+28]
	xor	ecx, ecx
	and	al, 15					; 0000000fH
	add	esp, 12					; 0000000cH
	cmp	al, 2
	sete	cl
	lea	edi, DWORD PTR [ecx+2]

; 1391 :     for ( k = 0 ; k < n ; k++ )

	cmp	edi, esi
	jle	SHORT $LN166@separating

; 1389 :   { da = dotf(ta->normal,ta->x[0],gdim);

	fsub	QWORD PTR __real@3f1a36e2eb1c432d
	lea	esi, DWORD PTR [ebx+32]
	mov	DWORD PTR tv1699[ebp], edi

; 1391 :     for ( k = 0 ; k < n ; k++ )

	fstp	QWORD PTR tv1969[ebp]
	npad	7
$LL63@separating:

; 1392 :     { d = dotf(ta->normal,tb->x[k],gdim); 

	mov	edx, DWORD PTR _gdim
	mov	eax, DWORD PTR tv1959[ebp]
	push	edx
	push	esi
	push	eax
	call	_dotf

; 1393 :       if ( d < da - 0.0001 ) { bnear++; continue; }

	fld	QWORD PTR tv1969[ebp]
	fcomp	ST(1)
	add	esp, 12					; 0000000cH
	fnstsw	ax
	test	ah, 65					; 00000041H
	je	SHORT $LN169@separating

; 1394 :       if ( d < da + 0.0001 ) { beq++; continue; }

	fld	QWORD PTR _da$[ebp]
	fadd	QWORD PTR __real@3f1a36e2eb1c432d
	fcompp
	fnstsw	ax
	test	ah, 65					; 00000041H
	jne	SHORT $LN59@separating
	inc	DWORD PTR _beq$[ebp]
	jmp	SHORT $LN62@separating
$LN59@separating:

; 1395 :       bfar++;

	inc	DWORD PTR _bfar$[ebp]
	jmp	SHORT $LN62@separating
$LN169@separating:
	fstp	ST(0)
$LN62@separating:

; 1391 :     for ( k = 0 ; k < n ; k++ )

	add	esi, 12					; 0000000cH
	dec	DWORD PTR tv1699[ebp]
	jne	SHORT $LL63@separating
	jmp	SHORT $LN161@separating
$LN166@separating:
	fstp	ST(0)
$LN161@separating:

; 1396 :     }
; 1397 :     if ( beq == n ) 

	cmp	DWORD PTR _beq$[ebp], edi
	jne	SHORT $LN58@separating

; 1398 :       return ((tb->flag&0xF)==EDGE)?FIRST_BACK:DISJOINT; /* in same plane */

	mov	ecx, DWORD PTR [ebx+28]
	and	cl, 15					; 0000000fH
	dec	cl
	movsx	eax, cl
	neg	eax
	pop	edi
	sbb	eax, eax
	pop	esi
	add	eax, 2
	pop	ebx

; 1479 :   return retval;
; 1480 : 
; 1481 : } // end separating_plane()

	mov	ecx, DWORD PTR __$ArrayPad$[ebp]
	xor	ecx, ebp
	call	@__security_check_cookie@4
	mov	esp, ebp
	pop	ebp
	ret	0
$LN58@separating:

; 1399 :     if ( bfar == 0 ) return FIRST_BACK;

	cmp	DWORD PTR _bfar$[ebp], 0
	je	$LN319@separating
$LN57@separating:

; 1400 :   }
; 1401 : 
; 1402 :   /* see where ta is with respect to tb plane */
; 1403 :   if ( (tb->flag & 0xF) == FACET )

	mov	edx, DWORD PTR [ebx+28]
	and	dl, 15					; 0000000fH
	cmp	dl, 2
	jne	$LN158@separating

; 1404 :   { db = dotf(tb->normal,tb->x[0],gdim);

	mov	ecx, DWORD PTR _gdim
	mov	eax, ebx
	lea	ebx, DWORD PTR [eax+68]
	push	ecx
	add	eax, 32					; 00000020H
	push	eax
	push	ebx
	call	_dotf
	fst	QWORD PTR _db$[ebp]

; 1405 :     n = ((ta->flag & 0xF) == FACET) ? 3 : 2;

	mov	edx, DWORD PTR _ta$GSCopy$[ebp]
	mov	eax, DWORD PTR [edx+28]
	xor	ecx, ecx
	and	al, 15					; 0000000fH
	add	esp, 12					; 0000000cH
	cmp	al, 2
	sete	cl
	lea	edi, DWORD PTR [ecx+2]

; 1406 :     for ( k = 0 ; k < n ; k++ )

	test	edi, edi
	jle	SHORT $LN172@separating

; 1404 :   { db = dotf(tb->normal,tb->x[0],gdim);

	fsub	QWORD PTR __real@3f1a36e2eb1c432d
	mov	esi, edx
	add	esi, 32					; 00000020H
	mov	DWORD PTR tv401[ebp], edi

; 1406 :     for ( k = 0 ; k < n ; k++ )

	fstp	QWORD PTR tv1986[ebp]
$LL55@separating:

; 1407 :     { d = dotf(tb->normal,ta->x[k],gdim); 

	mov	edx, DWORD PTR _gdim
	push	edx
	push	esi
	push	ebx
	call	_dotf

; 1408 :       if ( d < db - 0.0001 ) { anear++; continue; }

	fld	QWORD PTR tv1986[ebp]
	fcomp	ST(1)
	add	esp, 12					; 0000000cH
	fnstsw	ax
	test	ah, 65					; 00000041H
	jne	SHORT $LN52@separating
	inc	DWORD PTR _anear$[ebp]
	fstp	ST(0)
	jmp	SHORT $LN54@separating
$LN52@separating:

; 1409 :       if ( d < db + 0.0001 ) { aeq++; continue; }

	fld	QWORD PTR _db$[ebp]
	fadd	QWORD PTR __real@3f1a36e2eb1c432d
	fcompp
	fnstsw	ax
	test	ah, 65					; 00000041H
	jne	SHORT $LN54@separating
	inc	DWORD PTR _aeq$[ebp]
$LN54@separating:

; 1406 :     for ( k = 0 ; k < n ; k++ )

	add	esi, 12					; 0000000cH
	dec	DWORD PTR tv401[ebp]
	jne	SHORT $LL55@separating
	jmp	SHORT $LN157@separating
$LN172@separating:
	fstp	ST(0)
$LN157@separating:

; 1410 :       afar++;
; 1411 :     }
; 1412 :     if ( aeq == n ) 

	cmp	DWORD PTR _aeq$[ebp], edi
	jne	SHORT $LN50@separating

; 1413 :       return ((ta->flag&0xF)==EDGE)?SECOND_BACK:DISJOINT; /* same plane */

	mov	eax, DWORD PTR _ta$GSCopy$[ebp]
	mov	ecx, DWORD PTR [eax+28]
	and	cl, 15					; 0000000fH
	dec	cl
	movsx	eax, cl
	neg	eax
	sbb	eax, eax
	pop	edi
	and	eax, -3					; fffffffdH
	pop	esi
	add	eax, 4
	pop	ebx

; 1479 :   return retval;
; 1480 : 
; 1481 : } // end separating_plane()

	mov	ecx, DWORD PTR __$ArrayPad$[ebp]
	xor	ecx, ebp
	call	@__security_check_cookie@4
	mov	esp, ebp
	pop	ebp
	ret	0
$LN50@separating:

; 1414 :      if ( anear == 0 ) return FIRST_BACK;

	cmp	DWORD PTR _anear$[ebp], 0
	je	$LN319@separating
$LN158@separating:

; 1415 :   }
; 1416 :   
; 1417 :   na = (ta->flag & 0xF) == FACET ? 3 : 2;

	mov	edx, DWORD PTR _ta$GSCopy$[ebp]
	mov	eax, DWORD PTR [edx+28]

; 1418 :   nna = (ta->flag & 0xF) == FACET ? 3 : 1;
; 1419 :   nb = (tb->flag & 0xF) == FACET ? 3 : 2;

	mov	edx, DWORD PTR _tb$GSCopy$[ebp]
	and	eax, 15					; 0000000fH
	xor	ebx, ebx
	cmp	eax, 2
	sete	bl
	xor	ecx, ecx

; 1420 : 
; 1421 :   for ( i = 0 ; i < nna ; i++ )

	mov	DWORD PTR _i$[ebp], 0
	add	ebx, 2
	cmp	eax, 2
	mov	eax, DWORD PTR [edx+28]
	sete	cl
	and	al, 15					; 0000000fH
	mov	DWORD PTR _na$[ebp], ebx
	lea	edi, DWORD PTR [ecx+ecx+1]
	xor	ecx, ecx
	cmp	al, 2
	sete	cl
	mov	DWORD PTR _nna$[ebp], edi
	lea	esi, DWORD PTR [ecx+2]
	test	edi, edi
	jle	$LN46@separating
	npad	6
$LL164@separating:

; 1422 :   for ( j = 0 ; j < nb ; j++ )

	mov	DWORD PTR _j$[ebp], 0
	test	esi, esi
	jle	$LN47@separating
	npad	1
$LL159@separating:

; 1423 :   { REAL c[3],d; /* coefficients for plane */
; 1424 :     REAL da[3],db[3],minarea,s[3],length,dar[3],dbr[3];
; 1425 :     int ii,jj,jjj;
; 1426 : 
; 1427 :     for ( ii = 0 ; ii < na ; ii++ )

	xor	ecx, ecx
	test	ebx, ebx
	jle	SHORT $LN40@separating
	mov	edi, DWORD PTR _ta$GSCopy$[ebp]
	npad	7
$LL42@separating:

; 1428 :        a[ii] = ta->x[(i+ii)%na];

	mov	edx, DWORD PTR _i$[ebp]
	lea	eax, DWORD PTR [ecx+edx]
	cdq
	idiv	DWORD PTR _na$[ebp]
	mov	ebx, DWORD PTR _na$[ebp]
	inc	ecx
	lea	eax, DWORD PTR [edx+edx*2]
	lea	edx, DWORD PTR [edi+eax*4+32]
	mov	DWORD PTR _a$[ebp+ecx*4-4], edx
	cmp	ecx, ebx
	jl	SHORT $LL42@separating
$LN40@separating:

; 1429 :     for ( jj = 0 ; jj < nb ; jj++ )

	mov	edi, DWORD PTR _tb$GSCopy$[ebp]
	xor	ecx, ecx
$LL39@separating:

; 1430 :        b[jj] = tb->x[(j+jj)%nb];

	mov	eax, DWORD PTR _j$[ebp]
	add	eax, ecx
	cdq
	idiv	esi
	inc	ecx
	lea	edx, DWORD PTR [edx+edx*2]
	lea	eax, DWORD PTR [edi+edx*4+32]
	mov	DWORD PTR _b$[ebp+ecx*4-4], eax
	cmp	ecx, esi
	jl	SHORT $LL39@separating

; 1431 :     for ( ii = 0 ; ii < 3 ; ii++ ) s[ii] = a[1][ii]-a[0][ii];

	mov	eax, DWORD PTR _a$[ebp+4]
	mov	edi, DWORD PTR _a$[ebp]
	fld	DWORD PTR [eax]
	fsub	DWORD PTR [edi]
	fst	QWORD PTR _s$89848[ebp]
	fld	DWORD PTR [eax+4]
	fsub	DWORD PTR [edi+4]
	fst	QWORD PTR _s$89848[ebp+8]
	fld	DWORD PTR [eax+8]
	fsub	DWORD PTR [edi+8]
	fst	QWORD PTR _s$89848[ebp+16]

; 1432 :        length = sqrt(s[0]*s[0]+s[1]*s[1]+s[2]*s[2]);

	fld	ST(1)
	fmulp	ST(2), ST(0)
	fld	ST(2)
	fmulp	ST(3), ST(0)
	fxch	ST(1)
	faddp	ST(2), ST(0)
	fmul	ST(0), ST(0)
	faddp	ST(1), ST(0)
	call	__CIsqrt

; 1433 :     minarea = 1e-4*length;

	fmul	QWORD PTR __real@3f1a36e2eb1c432d

; 1434 :     c[0] = s[1]*(b[0][2]-a[0][2]) - s[2]*(b[0][1]-a[0][1]);

	mov	eax, DWORD PTR _b$[ebp]
	fld	DWORD PTR [eax+8]
	fsub	DWORD PTR [edi+8]
	fld	DWORD PTR [eax+4]
	fsub	DWORD PTR [edi+4]
	fld	ST(1)
	fld	QWORD PTR _s$89848[ebp+8]
	fmul	ST(1), ST(0)
	fld	ST(2)
	fld	QWORD PTR _s$89848[ebp+16]
	fmul	ST(1), ST(0)
	fxch	ST(3)
	fsubrp	ST(1), ST(0)

; 1435 :     c[1] = s[2]*(b[0][0]-a[0][0]) - s[0]*(b[0][2]-a[0][2]);

	fld	DWORD PTR [eax]
	fsub	DWORD PTR [edi]
	fld	ST(0)
	fmulp	ST(4), ST(0)
	fld	QWORD PTR _s$89848[ebp]
	fmul	ST(6), ST(0)
	fxch	ST(4)
	fsubrp	ST(6), ST(0)

; 1436 :     c[2] = s[0]*(b[0][1]-a[0][1]) - s[1]*(b[0][0]-a[0][0]);

	fxch	ST(4)
	fmulp	ST(3), ST(0)
	fxch	ST(3)
	fmulp	ST(1), ST(0)
	fsubp	ST(1), ST(0)

; 1437 : 
; 1438 :     if ( c[0]*c[0] + c[1]*c[1] + c[2]*c[2] <= minarea*minarea ) 

	fld	ST(2)
	fmul	ST(0), ST(3)
	fld	ST(2)
	fmul	ST(0), ST(3)
	faddp	ST(1), ST(0)
	fld	ST(1)
	fmul	ST(0), ST(2)
	faddp	ST(1), ST(0)
	fld	ST(4)
	fmul	ST(0), ST(5)
	fcompp
	fnstsw	ax
	test	ah, 1
	je	$LN178@separating

; 1439 :          continue; /* degenerate */
; 1440 : 
; 1441 :     d = c[0]*a[0][0] + c[1]*a[0][1] + c[2]*a[0][2];

	fld	DWORD PTR [edi]

; 1442 : 
; 1443 :     for ( ii = 2 ; ii < na ; ii++ )

	mov	ecx, 2
	fmul	ST(0), ST(2)
	fld	DWORD PTR [edi+4]
	fmul	ST(0), ST(4)
	faddp	ST(1), ST(0)
	fld	DWORD PTR [edi+8]
	fmul	ST(0), ST(2)
	faddp	ST(1), ST(0)
	cmp	ebx, ecx
	jle	$LN155@separating
	lea	edx, DWORD PTR [ebx-2]
	cmp	edx, 4
	jl	$LN154@separating
	fld	ST(4)
	lea	edx, DWORD PTR [ebx-3]
	fchs
$LN128@separating:

; 1444 :     { dar[ii] = c[0]*a[ii][0] + c[1]*a[ii][1] +c[2]*a[ii][2] - d;

	mov	eax, DWORD PTR _a$[ebp+ecx*4]
	fld	DWORD PTR [eax+4]
	fmul	ST(0), ST(5)
	fld	DWORD PTR [eax]
	fmul	ST(0), ST(5)
	faddp	ST(1), ST(0)
	fld	DWORD PTR [eax+8]
	fmul	ST(0), ST(4)
	faddp	ST(1), ST(0)
	fsub	ST(0), ST(2)
	fst	QWORD PTR _dar$89850[ebp+ecx*8]

; 1445 :       da[ii] = ( dar[ii] < -minarea ? -1.0 : ( dar[ii] > minarea ? 1.0 : 0.0));

	fcom	ST(1)
	fnstsw	ax
	test	ah, 5
	jp	SHORT $LN112@separating
	fstp	ST(0)
	fld	QWORD PTR __real@bff0000000000000
	jmp	SHORT $LN114@separating
$LN112@separating:
	fcomp	ST(6)
	fnstsw	ax
	test	ah, 65					; 00000041H
	jne	SHORT $LN113@separating
	fld1
	jmp	SHORT $LN114@separating
$LN113@separating:
	fldz
$LN114@separating:

; 1444 :     { dar[ii] = c[0]*a[ii][0] + c[1]*a[ii][1] +c[2]*a[ii][2] - d;

	mov	eax, DWORD PTR _a$[ebp+ecx*4+4]

; 1445 :       da[ii] = ( dar[ii] < -minarea ? -1.0 : ( dar[ii] > minarea ? 1.0 : 0.0));

	fstp	QWORD PTR _da$89845[ebp+ecx*8]
	fld	DWORD PTR [eax+4]
	fmul	ST(0), ST(5)
	fld	DWORD PTR [eax]
	fmul	ST(0), ST(5)
	faddp	ST(1), ST(0)
	fld	DWORD PTR [eax+8]
	fmul	ST(0), ST(4)
	faddp	ST(1), ST(0)
	fsub	ST(0), ST(2)
	fst	QWORD PTR _dar$89850[ebp+ecx*8+8]
	fcom	ST(1)
	fnstsw	ax
	test	ah, 5
	jp	SHORT $LN116@separating
	fstp	ST(0)
	fld	QWORD PTR __real@bff0000000000000
	jmp	SHORT $LN118@separating
$LN116@separating:
	fcomp	ST(6)
	fnstsw	ax
	test	ah, 65					; 00000041H
	jne	SHORT $LN117@separating
	fld1
	jmp	SHORT $LN118@separating
$LN117@separating:
	fldz
$LN118@separating:

; 1444 :     { dar[ii] = c[0]*a[ii][0] + c[1]*a[ii][1] +c[2]*a[ii][2] - d;

	mov	eax, DWORD PTR _a$[ebp+ecx*4+8]

; 1445 :       da[ii] = ( dar[ii] < -minarea ? -1.0 : ( dar[ii] > minarea ? 1.0 : 0.0));

	fstp	QWORD PTR _da$89845[ebp+ecx*8+8]
	fld	DWORD PTR [eax+4]
	fmul	ST(0), ST(5)
	fld	DWORD PTR [eax]
	fmul	ST(0), ST(5)
	faddp	ST(1), ST(0)
	fld	DWORD PTR [eax+8]
	fmul	ST(0), ST(4)
	faddp	ST(1), ST(0)
	fsub	ST(0), ST(2)
	fst	QWORD PTR _dar$89850[ebp+ecx*8+16]
	fcom	ST(1)
	fnstsw	ax
	test	ah, 5
	jp	SHORT $LN120@separating
	fstp	ST(0)
	fld	QWORD PTR __real@bff0000000000000
	jmp	SHORT $LN122@separating
$LN120@separating:
	fcomp	ST(6)
	fnstsw	ax
	test	ah, 65					; 00000041H
	jne	SHORT $LN121@separating
	fld1
	jmp	SHORT $LN122@separating
$LN121@separating:
	fldz
$LN122@separating:

; 1444 :     { dar[ii] = c[0]*a[ii][0] + c[1]*a[ii][1] +c[2]*a[ii][2] - d;

	mov	eax, DWORD PTR _a$[ebp+ecx*4+12]

; 1445 :       da[ii] = ( dar[ii] < -minarea ? -1.0 : ( dar[ii] > minarea ? 1.0 : 0.0));

	fstp	QWORD PTR _da$89845[ebp+ecx*8+16]
	fld	DWORD PTR [eax+4]
	fmul	ST(0), ST(5)
	fld	DWORD PTR [eax]
	fmul	ST(0), ST(5)
	faddp	ST(1), ST(0)
	fld	DWORD PTR [eax+8]
	fmul	ST(0), ST(4)
	faddp	ST(1), ST(0)
	fsub	ST(0), ST(2)
	fst	QWORD PTR _dar$89850[ebp+ecx*8+24]
	fcom	ST(1)
	fnstsw	ax
	test	ah, 5
	jp	SHORT $LN124@separating
	fstp	ST(0)
	fld	QWORD PTR __real@bff0000000000000
	jmp	SHORT $LN126@separating
$LN124@separating:
	fcomp	ST(6)
	fnstsw	ax
	test	ah, 65					; 00000041H
	jne	SHORT $LN125@separating
	fld1
	jmp	SHORT $LN126@separating
$LN125@separating:
	fldz
$LN126@separating:
	fstp	QWORD PTR _da$89845[ebp+ecx*8+24]
	add	ecx, 4
	cmp	ecx, edx
	jl	$LN128@separating

; 1442 : 
; 1443 :     for ( ii = 2 ; ii < na ; ii++ )

	fstp	ST(0)
$LN154@separating:
	cmp	ecx, ebx
	jge	SHORT $LN155@separating
	fld	ST(4)
	fchs
$LC32@separating:

; 1444 :     { dar[ii] = c[0]*a[ii][0] + c[1]*a[ii][1] +c[2]*a[ii][2] - d;

	mov	eax, DWORD PTR _a$[ebp+ecx*4]
	fld	DWORD PTR [eax+4]
	fmul	ST(0), ST(5)
	fld	DWORD PTR [eax]
	fmul	ST(0), ST(5)
	faddp	ST(1), ST(0)
	fld	DWORD PTR [eax+8]
	fmul	ST(0), ST(4)
	faddp	ST(1), ST(0)
	fsub	ST(0), ST(2)
	fst	QWORD PTR _dar$89850[ebp+ecx*8]

; 1445 :       da[ii] = ( dar[ii] < -minarea ? -1.0 : ( dar[ii] > minarea ? 1.0 : 0.0));

	fcom	ST(1)
	fnstsw	ax
	test	ah, 5
	jp	SHORT $LN69@separating
	fstp	ST(0)
	fld	QWORD PTR __real@bff0000000000000
	jmp	SHORT $LN68@separating
$LN69@separating:
	fcomp	ST(6)
	fnstsw	ax
	test	ah, 65					; 00000041H
	jne	SHORT $LN67@separating
	fld1
	jmp	SHORT $LN68@separating
$LN67@separating:
	fldz
$LN68@separating:
	fstp	QWORD PTR _da$89845[ebp+ecx*8]
	inc	ecx
	cmp	ecx, ebx
	jl	SHORT $LC32@separating

; 1442 : 
; 1443 :     for ( ii = 2 ; ii < na ; ii++ )

	fstp	ST(0)
$LN155@separating:

; 1446 :     }
; 1447 :     for ( jj = 1 ; jj < nb ; jj++ )

	mov	ecx, 1
	cmp	esi, ecx
	jle	$LN228@separating
	lea	eax, DWORD PTR [esi-1]
	cmp	eax, 4
	jl	$LC130@separating
	fld	ST(4)
	lea	edx, DWORD PTR [esi-3]
	fchs
$LN147@separating:

; 1448 :     { dbr[jj] = c[0]*b[jj][0] + c[1]*b[jj][1] +c[2]*b[jj][2] - d;

	mov	eax, DWORD PTR _b$[ebp+ecx*4]
	fld	DWORD PTR [eax+4]
	fmul	ST(0), ST(5)
	fld	DWORD PTR [eax]
	fmul	ST(0), ST(5)
	faddp	ST(1), ST(0)
	fld	DWORD PTR [eax+8]
	fmul	ST(0), ST(4)
	faddp	ST(1), ST(0)
	fsub	ST(0), ST(2)
	fst	QWORD PTR _dbr$89851[ebp+ecx*8]

; 1449 :       db[jj] = ( dbr[jj] < -minarea ? -1.0 : ( dbr[jj] > minarea ? 1.0 : 0.0));

	fcom	ST(1)
	fnstsw	ax
	test	ah, 5
	jp	SHORT $LN131@separating
	fstp	ST(0)
	fld	QWORD PTR __real@bff0000000000000
	jmp	SHORT $LN133@separating
$LN131@separating:
	fcomp	ST(6)
	fnstsw	ax
	test	ah, 65					; 00000041H
	jne	SHORT $LN132@separating
	fld1
	jmp	SHORT $LN133@separating
$LN132@separating:
	fldz
$LN133@separating:

; 1448 :     { dbr[jj] = c[0]*b[jj][0] + c[1]*b[jj][1] +c[2]*b[jj][2] - d;

	mov	eax, DWORD PTR _b$[ebp+ecx*4+4]

; 1449 :       db[jj] = ( dbr[jj] < -minarea ? -1.0 : ( dbr[jj] > minarea ? 1.0 : 0.0));

	fstp	QWORD PTR _db$89846[ebp+ecx*8]
	fld	DWORD PTR [eax+4]
	fmul	ST(0), ST(5)
	fld	DWORD PTR [eax]
	fmul	ST(0), ST(5)
	faddp	ST(1), ST(0)
	fld	DWORD PTR [eax+8]
	fmul	ST(0), ST(4)
	faddp	ST(1), ST(0)
	fsub	ST(0), ST(2)
	fst	QWORD PTR _dbr$89851[ebp+ecx*8+8]
	fcom	ST(1)
	fnstsw	ax
	test	ah, 5
	jp	SHORT $LN135@separating
	fstp	ST(0)
	fld	QWORD PTR __real@bff0000000000000
	jmp	SHORT $LN137@separating
$LN135@separating:
	fcomp	ST(6)
	fnstsw	ax
	test	ah, 65					; 00000041H
	jne	SHORT $LN136@separating
	fld1
	jmp	SHORT $LN137@separating
$LN136@separating:
	fldz
$LN137@separating:

; 1448 :     { dbr[jj] = c[0]*b[jj][0] + c[1]*b[jj][1] +c[2]*b[jj][2] - d;

	mov	eax, DWORD PTR _b$[ebp+ecx*4+8]

; 1449 :       db[jj] = ( dbr[jj] < -minarea ? -1.0 : ( dbr[jj] > minarea ? 1.0 : 0.0));

	fstp	QWORD PTR _db$89846[ebp+ecx*8+8]
	fld	DWORD PTR [eax+4]
	fmul	ST(0), ST(5)
	fld	DWORD PTR [eax]
	fmul	ST(0), ST(5)
	faddp	ST(1), ST(0)
	fld	DWORD PTR [eax+8]
	fmul	ST(0), ST(4)
	faddp	ST(1), ST(0)
	fsub	ST(0), ST(2)
	fst	QWORD PTR _dbr$89851[ebp+ecx*8+16]
	fcom	ST(1)
	fnstsw	ax
	test	ah, 5
	jp	SHORT $LN139@separating
	fstp	ST(0)
	fld	QWORD PTR __real@bff0000000000000
	jmp	SHORT $LN141@separating
$LN139@separating:
	fcomp	ST(6)
	fnstsw	ax
	test	ah, 65					; 00000041H
	jne	SHORT $LN140@separating
	fld1
	jmp	SHORT $LN141@separating
$LN140@separating:
	fldz
$LN141@separating:

; 1448 :     { dbr[jj] = c[0]*b[jj][0] + c[1]*b[jj][1] +c[2]*b[jj][2] - d;

	mov	eax, DWORD PTR _b$[ebp+ecx*4+12]

; 1449 :       db[jj] = ( dbr[jj] < -minarea ? -1.0 : ( dbr[jj] > minarea ? 1.0 : 0.0));

	fstp	QWORD PTR _db$89846[ebp+ecx*8+16]
	fld	DWORD PTR [eax+4]
	fmul	ST(0), ST(5)
	fld	DWORD PTR [eax]
	fmul	ST(0), ST(5)
	faddp	ST(1), ST(0)
	fld	DWORD PTR [eax+8]
	fmul	ST(0), ST(4)
	faddp	ST(1), ST(0)
	fsub	ST(0), ST(2)
	fst	QWORD PTR _dbr$89851[ebp+ecx*8+24]
	fcom	ST(1)
	fnstsw	ax
	test	ah, 5
	jp	SHORT $LN143@separating
	fstp	ST(0)
	fld	QWORD PTR __real@bff0000000000000
	jmp	SHORT $LN145@separating
$LN143@separating:
	fcomp	ST(6)
	fnstsw	ax
	test	ah, 65					; 00000041H
	jne	SHORT $LN144@separating
	fld1
	jmp	SHORT $LN145@separating
$LN144@separating:
	fldz
$LN145@separating:
	fstp	QWORD PTR _db$89846[ebp+ecx*8+24]
	add	ecx, 4
	cmp	ecx, edx
	jl	$LN147@separating

; 1446 :     }
; 1447 :     for ( jj = 1 ; jj < nb ; jj++ )

	fstp	ST(0)
$LC130@separating:
	cmp	ecx, esi
	jge	$LN228@separating
	fld	ST(4)
	fchs
$LC29@separating:

; 1448 :     { dbr[jj] = c[0]*b[jj][0] + c[1]*b[jj][1] +c[2]*b[jj][2] - d;

	mov	eax, DWORD PTR _b$[ebp+ecx*4]
	fld	DWORD PTR [eax+4]
	fmul	ST(0), ST(5)
	fld	DWORD PTR [eax]
	fmul	ST(0), ST(5)
	faddp	ST(1), ST(0)
	fld	DWORD PTR [eax+8]
	fmul	ST(0), ST(4)
	faddp	ST(1), ST(0)
	fsub	ST(0), ST(2)
	fst	QWORD PTR _dbr$89851[ebp+ecx*8]

; 1449 :       db[jj] = ( dbr[jj] < -minarea ? -1.0 : ( dbr[jj] > minarea ? 1.0 : 0.0));

	fcom	ST(1)
	fnstsw	ax
	test	ah, 5
	jp	SHORT $LN73@separating
	fstp	ST(0)
	fld	QWORD PTR __real@bff0000000000000
	jmp	SHORT $LN72@separating
$LN73@separating:
	fcomp	ST(6)
	fnstsw	ax
	test	ah, 65					; 00000041H
	jne	SHORT $LN71@separating
	fld1
	jmp	SHORT $LN72@separating
$LN71@separating:
	fldz
$LN72@separating:
	fstp	QWORD PTR _db$89846[ebp+ecx*8]
	inc	ecx
	cmp	ecx, esi
	jl	SHORT $LC29@separating

; 1446 :     }
; 1447 :     for ( jj = 1 ; jj < nb ; jj++ )

	fstp	ST(3)
	fstp	ST(3)
$LN317@separating:
	fstp	ST(2)

; 1450 :     }
; 1451 : 
; 1452 :     /* test opposite sidedness */
; 1453 :     for ( jj = 1 ; jj < nb ; jj++ )

	mov	eax, 1
	fstp	ST(0)
	fstp	ST(1)
	fldz
	cmp	esi, eax
	jle	SHORT $LN24@separating
	lea	edi, DWORD PTR _db$89846[ebp+8]
$LN26@separating:
	lea	edx, DWORD PTR [eax+1]

; 1454 :       for ( jjj = jj+1 ; jjj < nb ; jjj++ )

	mov	ecx, edx
	cmp	ecx, esi
	jge	SHORT $LN25@separating
$LN23@separating:

; 1455 :         if ( db[jj]*db[jjj] < 0.0 ) goto keeptrying;

	fld	QWORD PTR _db$89846[ebp+ecx*8]
	fmul	QWORD PTR [edi]
	fcomp	ST(1)
	fnstsw	ax
	test	ah, 5
	jnp	SHORT $LN282@separating

; 1454 :       for ( jjj = jj+1 ; jjj < nb ; jjj++ )

	inc	ecx
	cmp	ecx, esi
	jl	SHORT $LN23@separating
$LN25@separating:

; 1450 :     }
; 1451 : 
; 1452 :     /* test opposite sidedness */
; 1453 :     for ( jj = 1 ; jj < nb ; jj++ )

	mov	eax, edx
	add	edi, 8
	cmp	eax, esi
	jl	SHORT $LN26@separating
$LN24@separating:

; 1456 :     for ( ii = 2 ; ii < na ; ii++ )

	mov	edi, 2
	lea	edx, DWORD PTR _da$89845[ebp+16]
$LN19@separating:
	cmp	edi, ebx
	jge	SHORT $LN17@separating

; 1457 :       for ( jj = 1 ; jj < nb ; jj++ )

	mov	ecx, 1
	cmp	esi, ecx
	jle	SHORT $LN18@separating
$LN16@separating:

; 1458 :         if ( da[ii]*db[jj] > 0.0 ) goto keeptrying;

	fld	QWORD PTR _db$89846[ebp+ecx*8]
	fmul	QWORD PTR [edx]
	fcomp	ST(1)
	fnstsw	ax
	test	ah, 65					; 00000041H
	je	SHORT $LN282@separating

; 1457 :       for ( jj = 1 ; jj < nb ; jj++ )

	inc	ecx
	cmp	ecx, esi
	jl	SHORT $LN16@separating
$LN18@separating:

; 1456 :     for ( ii = 2 ; ii < na ; ii++ )

	inc	edi
	add	edx, 8
	jmp	SHORT $LN19@separating
$LN228@separating:

; 1446 :     }
; 1447 :     for ( jj = 1 ; jj < nb ; jj++ )

	fstp	ST(2)

; 1445 :       da[ii] = ( dar[ii] < -minarea ? -1.0 : ( dar[ii] > minarea ? 1.0 : 0.0));

	jmp	SHORT $LN317@separating
$LN282@separating:

; 1455 :         if ( db[jj]*db[jjj] < 0.0 ) goto keeptrying;

	fstp	ST(1)
$keeptrying$89878:
	jmp	SHORT $LN318@separating
$LN178@separating:

; 1437 : 
; 1438 :     if ( c[0]*c[0] + c[1]*c[1] + c[2]*c[2] <= minarea*minarea ) 

	fstp	ST(0)
	fstp	ST(0)
	fstp	ST(0)
$LN318@separating:
	mov	eax, DWORD PTR _j$[ebp]
	fstp	ST(0)
	inc	eax
	mov	DWORD PTR _j$[ebp], eax
	cmp	eax, esi
	jl	$LL159@separating
$LN47@separating:

; 1420 : 
; 1421 :   for ( i = 0 ; i < nna ; i++ )

	mov	eax, DWORD PTR _i$[ebp]
	inc	eax
	mov	DWORD PTR _i$[ebp], eax
	cmp	eax, DWORD PTR _nna$[ebp]
	jl	$LL164@separating
$LN46@separating:

; 1467 :     }
; 1468 : keeptrying: ;
; 1469 :   }
; 1470 : 
; 1471 :   /* might have case of separating plane having two vertices on tb */
; 1472 :   if ( depth == 2 ) 

	cmp	DWORD PTR _depth$[ebp], 2
	jne	$LN3@separating

; 1473 :       return ASPLITTINGB|BSPLITTINGA;

	pop	edi
	pop	esi
	mov	eax, 24					; 00000018H
	pop	ebx

; 1479 :   return retval;
; 1480 : 
; 1481 : } // end separating_plane()

	mov	ecx, DWORD PTR __$ArrayPad$[ebp]
	xor	ecx, ebp
	call	@__security_check_cookie@4
	mov	esp, ebp
	pop	ebp
	ret	0
$LN17@separating:

; 1459 : 
; 1460 :      /* have separating plane */
; 1461 :     { REAL asum,bsum;
; 1462 :       /* decide which is in front */
; 1463 :       for ( ii = 2, asum = 0.0 ; ii < na ; ii++ ) asum += c[2]*da[ii];

	mov	eax, 2
	fld	ST(0)
	cmp	ebx, eax
	jle	SHORT $LN148@separating
	lea	ecx, DWORD PTR [ebx-2]
	cmp	ecx, 4
	jl	SHORT $LC149@separating
	lea	ecx, DWORD PTR [ebx-3]
$LN150@separating:
	fld	QWORD PTR _da$89845[ebp+eax*8]
	add	eax, 4
	fmul	ST(0), ST(3)
	faddp	ST(1), ST(0)
	fld	QWORD PTR _da$89845[ebp+eax*8-24]
	fmul	ST(0), ST(3)
	faddp	ST(1), ST(0)
	fld	QWORD PTR _da$89845[ebp+eax*8-16]
	fmul	ST(0), ST(3)
	faddp	ST(1), ST(0)
	fld	QWORD PTR _da$89845[ebp+eax*8-8]
	fmul	ST(0), ST(3)
	faddp	ST(1), ST(0)
	cmp	eax, ecx
	jl	SHORT $LN150@separating
$LC149@separating:
	cmp	eax, ebx
	jge	SHORT $LN148@separating
$LC12@separating:
	fld	QWORD PTR _da$89845[ebp+eax*8]
	inc	eax
	fmul	ST(0), ST(3)
	faddp	ST(1), ST(0)
	cmp	eax, ebx
	jl	SHORT $LC12@separating
$LN148@separating:

; 1464 :       for ( jj = 1, bsum = 0.0 ; jj < nb ; jj++ ) bsum += c[2]*db[jj];

	mov	eax, 1
	fld	ST(1)
	cmp	esi, eax
	jle	SHORT $LN313@separating
	lea	edx, DWORD PTR [esi-1]
	cmp	edx, 4
	jl	SHORT $LC152@separating
	lea	ecx, DWORD PTR [esi-3]
$LN153@separating:
	fld	QWORD PTR _db$89846[ebp+eax*8]
	add	eax, 4
	fmul	ST(0), ST(4)
	faddp	ST(1), ST(0)
	fld	QWORD PTR _db$89846[ebp+eax*8-24]
	fmul	ST(0), ST(4)
	faddp	ST(1), ST(0)
	fld	QWORD PTR _db$89846[ebp+eax*8-16]
	fmul	ST(0), ST(4)
	faddp	ST(1), ST(0)
	fld	QWORD PTR _db$89846[ebp+eax*8-8]
	fmul	ST(0), ST(4)
	faddp	ST(1), ST(0)
	cmp	eax, ecx
	jl	SHORT $LN153@separating
$LC152@separating:
	cmp	eax, esi
	jge	SHORT $LN313@separating
$LC9@separating:
	fld	QWORD PTR _db$89846[ebp+eax*8]
	inc	eax
	fmul	ST(0), ST(4)
	faddp	ST(1), ST(0)
	cmp	eax, esi
	jl	SHORT $LC9@separating
$LN313@separating:
	fstp	ST(3)

; 1465 :       if ( asum > 0.0 || bsum < 0.0 ) return SECOND_BACK;

	fcomp	ST(1)
	fnstsw	ax
	test	ah, 65					; 00000041H
	je	SHORT $LN315@separating
	fcompp
	fnstsw	ax
	test	ah, 65					; 00000041H
	je	SHORT $LN5@separating

; 1466 :       else   return FIRST_BACK;

	jmp	SHORT $LN319@separating
$LN315@separating:

; 1465 :       if ( asum > 0.0 || bsum < 0.0 ) return SECOND_BACK;

	fstp	ST(1)
	fstp	ST(0)
$LN5@separating:
	pop	edi
	pop	esi
	mov	eax, 4
	pop	ebx

; 1479 :   return retval;
; 1480 : 
; 1481 : } // end separating_plane()

	mov	ecx, DWORD PTR __$ArrayPad$[ebp]
	xor	ecx, ebp
	call	@__security_check_cookie@4
	mov	esp, ebp
	pop	ebp
	ret	0
$LN3@separating:

; 1474 :   retval = separating_plane(tb,ta,2);

	mov	eax, DWORD PTR _ta$GSCopy$[ebp]
	mov	ecx, DWORD PTR _tb$GSCopy$[ebp]
	push	2
	push	eax
	push	ecx
	call	_separating_plane
	add	esp, 12					; 0000000cH

; 1475 :   if ( retval == FIRST_BACK ) 

	cmp	eax, 2

; 1476 :       return SECOND_BACK;

	je	SHORT $LN5@separating

; 1477 :   if ( retval == SECOND_BACK ) 

	cmp	eax, 4
	jne	SHORT $LN65@separating
$LN319@separating:

; 1478 :       return FIRST_BACK;

	mov	eax, 2
$LN65@separating:

; 1479 :   return retval;
; 1480 : 
; 1481 : } // end separating_plane()

	mov	ecx, DWORD PTR __$ArrayPad$[ebp]
	pop	edi
	pop	esi
	xor	ecx, ebp
	pop	ebx
	call	@__security_check_cookie@4
	mov	esp, ebp
	pop	ebp
	ret	0
_separating_plane ENDP
_TEXT	ENDS
PUBLIC	__real@3bc79ca10c924223
PUBLIC	__real@bee4f8b588e368f1
PUBLIC	__$ArrayPad$
PUBLIC	_separating_line
;	COMDAT __real@3bc79ca10c924223
CONST	SEGMENT
__real@3bc79ca10c924223 DQ 03bc79ca10c924223r	; 1e-020
CONST	ENDS
;	COMDAT __real@bee4f8b588e368f1
CONST	SEGMENT
__real@bee4f8b588e368f1 DQ 0bee4f8b588e368f1r	; -1e-005
; Function compile flags: /Ogtp
CONST	ENDS
;	COMDAT _separating_line
_TEXT	SEGMENT
_width$ = -116						; size = 8
_nna$ = -108						; size = 4
_nnb$ = -104						; size = 4
_b$ = -100						; size = 12
_cx$89955 = -88						; size = 8
_d$89927 = -88						; size = 8
_d$89957 = -80						; size = 8
_cx$89925 = -80						; size = 8
_cy$89956 = -72						; size = 8
_cy$89926 = -72						; size = 8
_a$ = -64						; size = 12
_nb$ = -48						; size = 4
_i$ = -44						; size = 4
_aneg$ = -40						; size = 4
_na$ = -36						; size = 4
_bpos$ = -32						; size = 4
_dbr$89959 = -28					; size = 24
_dar$89958 = -28					; size = 24
_dbr$89929 = -28					; size = 24
_dar$89928 = -28					; size = 24
__$ArrayPad$ = -4					; size = 4
_ta$ = 8						; size = 4
_tb$ = 12						; size = 4
_separating_line PROC					; COMDAT

; 1497 : { int i;

	push	ebp
	mov	ebp, esp
	sub	esp, 116				; 00000074H
	mov	eax, DWORD PTR ___security_cookie
	xor	eax, ebp
	mov	DWORD PTR __$ArrayPad$[ebp], eax

; 1498 :   int same = 0;
; 1499 :   int na,nb; /* vertices on respective elements */
; 1500 :   int nna,nnb; /* number of lines to try */
; 1501 :   int apos,aneg,bpos,bneg;
; 1502 :   float *a[3],*b[3];
; 1503 :   REAL width; /* thickness of separating line */ 
; 1504 : 
; 1505 :   sep_line_calls++;  /* for verbose statistics */

	fld	QWORD PTR _sep_line_calls

; 1506 : 
; 1507 :   /* get edge first, if any */
; 1508 :   if ( ((ta->flag & 0xF) == FACET) && ((tb->flag & 0xF) == EDGE ) )

	mov	edx, DWORD PTR _tb$[ebp]
	fadd	QWORD PTR __real@3ff0000000000000
	push	ebx
	push	esi
	mov	esi, DWORD PTR _ta$[ebp]
	fstp	QWORD PTR _sep_line_calls
	mov	eax, DWORD PTR [esi+28]
	and	al, 15					; 0000000fH
	push	edi
	cmp	al, 2
	jne	SHORT $LN47@separating@2
	mov	ecx, DWORD PTR [edx+28]
	and	cl, 15					; 0000000fH
	cmp	cl, 1
	jne	SHORT $LN47@separating@2

; 1509 :   { struct tsort *tmp = ta; ta = tb; tb = tmp; }

	mov	eax, esi
	mov	esi, edx
	mov	edx, eax
	mov	DWORD PTR _ta$[ebp], esi
	mov	DWORD PTR _tb$[ebp], edx
$LN47@separating@2:

; 1510 : 
; 1511 :   /* want to prevent overlap of facet with thick edge; not going
; 1512 :      to worry about edge-edge overlap, since that too weird. */
; 1513 :   if ( ((ta->flag & 0xF) == EDGE) && ((tb->flag & 0xF) == FACET ) )

	mov	ecx, DWORD PTR [esi+28]
	and	ecx, 15					; 0000000fH
	cmp	ecx, 1
	jne	SHORT $LN46@separating@2
	mov	eax, DWORD PTR [edx+28]
	and	al, 15					; 0000000fH
	cmp	al, 2
	jne	SHORT $LN46@separating@2

; 1514 :   {
; 1515 :     width = ta->width/2;  /* actually need half-width */

	fld	DWORD PTR [esi+104]
	fmul	QWORD PTR __real@3fe0000000000000
	jmp	SHORT $LN313@separating@2
$LN46@separating@2:

; 1516 :   }
; 1517 :   else width = -1e-5;  /* allow slight overlap for numerical purposes */

	fld	QWORD PTR __real@bee4f8b588e368f1
$LN313@separating@2:

; 1518 : 
; 1519 :   na = (ta->flag & 0xF) == FACET ? 3 : 2;

	xor	eax, eax
	fstp	QWORD PTR _width$[ebp]
	cmp	ecx, 2
	sete	al

; 1520 :   nb = (tb->flag & 0xF) == FACET ? 3 : 2;

	xor	ebx, ebx

; 1521 :   nna = (ta->flag & 0xF) == FACET ? 3 : 1;
; 1522 :   nnb = (tb->flag & 0xF) == FACET ? 3 : 1;
; 1523 : 
; 1524 :   /* Try using edges of ta */
; 1525 :   for ( i = 0 ; i < nna ; i++ )

	mov	DWORD PTR _i$[ebp], 0
	add	eax, 2
	mov	DWORD PTR _na$[ebp], eax
	mov	eax, DWORD PTR [edx+28]
	and	eax, 15					; 0000000fH
	cmp	eax, 2
	sete	bl
	xor	edx, edx
	add	ebx, 2
	cmp	ecx, 2
	sete	dl
	xor	ecx, ecx
	cmp	eax, 2
	sete	cl
	mov	DWORD PTR _nb$[ebp], ebx
	lea	esi, DWORD PTR [edx+edx+1]
	mov	DWORD PTR _nna$[ebp], esi
	lea	ecx, DWORD PTR [ecx+ecx+1]
	mov	DWORD PTR _nnb$[ebp], ecx
	test	esi, esi
	jle	$LN119@separating@2
$LL44@separating@2:

; 1526 :   { REAL cx,cy,d; /* coefficients for line */
; 1527 :     REAL dar[3],dbr[3],minarea;
; 1528 :     int ii,jj;
; 1529 : 
; 1530 :     for ( ii = 0 ; ii < na ; ii++ )

	mov	esi, DWORD PTR _na$[ebp]
	xor	ecx, ecx
	test	esi, esi
	jle	SHORT $LN128@separating@2
	mov	edi, DWORD PTR _i$[ebp]
	npad	2
$LL41@separating@2:

; 1531 :        a[ii] = ta->x[(i+ii)%na];

	lea	eax, DWORD PTR [ecx+edi]
	cdq
	idiv	esi
	mov	eax, DWORD PTR _ta$[ebp]
	inc	ecx
	lea	edx, DWORD PTR [edx+edx*2]
	lea	edx, DWORD PTR [eax+edx*4+32]
	mov	DWORD PTR _a$[ebp+ecx*4-4], edx
	cmp	ecx, esi
	jl	SHORT $LL41@separating@2
$LN128@separating@2:

; 1526 :   { REAL cx,cy,d; /* coefficients for line */
; 1527 :     REAL dar[3],dbr[3],minarea;
; 1528 :     int ii,jj;
; 1529 : 
; 1530 :     for ( ii = 0 ; ii < na ; ii++ )

	mov	edx, DWORD PTR _a$[ebp]

; 1532 : 
; 1533 :     for ( jj = 0 ; jj < nb ; jj++ )

	xor	eax, eax
	test	ebx, ebx
	jle	SHORT $LN36@separating@2
	mov	ecx, DWORD PTR _tb$[ebp]
	add	ecx, 32					; 00000020H
$LL38@separating@2:

; 1534 :        b[jj] = tb->x[jj];

	mov	DWORD PTR _b$[ebp+eax*4], ecx
	inc	eax
	add	ecx, 12					; 0000000cH
	cmp	eax, ebx
	jl	SHORT $LL38@separating@2
$LN36@separating@2:

; 1535 : 
; 1536 :      cx = a[1][1] - a[0][1]; cy = a[0][0] - a[1][0]; 

	mov	eax, DWORD PTR _a$[ebp+4]
	fld	DWORD PTR [eax+4]
	fsub	DWORD PTR [edx+4]
	fst	QWORD PTR _cx$89925[ebp]
	fld	DWORD PTR [edx]
	fsub	DWORD PTR [eax]
	fst	QWORD PTR _cy$89926[ebp]

; 1537 :      d = cx*a[0][0] + cy*a[0][1];

	fld	DWORD PTR [edx+4]
	fmul	ST(0), ST(1)
	fld	DWORD PTR [edx]
	fmul	ST(0), ST(3)
	faddp	ST(1), ST(0)
	fstp	QWORD PTR _d$89927[ebp]

; 1538 : 
; 1539 :      minarea = width*sqrt(cx*cx + cy*cy);

	fmul	ST(0), ST(0)
	fld	ST(1)
	fmulp	ST(2), ST(0)
	faddp	ST(1), ST(0)
	call	__CIsqrt
	fmul	QWORD PTR _width$[ebp]

; 1540 : 
; 1541 :      if ( fabs(minarea) < 1e-20 ) 

	fld	ST(0)
	fabs
	fcomp	QWORD PTR __real@3bc79ca10c924223
	fnstsw	ax
	test	ah, 5
	jnp	$LN131@separating@2

; 1542 :       { same++;    continue; /* same point */ }
; 1543 : 
; 1544 :      apos = aneg = bpos = bneg = 0;
; 1545 :      for ( ii = 2 ; ii < na ; ii++ )

	mov	edx, DWORD PTR _na$[ebp]
	xor	esi, esi
	mov	ecx, 2
	xor	edi, edi
	mov	DWORD PTR _bpos$[ebp], esi
	mov	DWORD PTR _aneg$[ebp], esi
	cmp	edx, ecx
	jle	$LN121@separating@2
	lea	eax, DWORD PTR [edx-2]
	cmp	eax, 4
	jl	$LN120@separating@2
	fld	ST(0)
	add	edx, -3					; fffffffdH
	fchs
	fld	QWORD PTR _d$89927[ebp]
	fld	QWORD PTR _cy$89926[ebp]
	fld	QWORD PTR _cx$89925[ebp]
$LN84@separating@2:

; 1546 :      { dar[ii] = cx*a[ii][0] + cy*a[ii][1] - d;

	mov	eax, DWORD PTR _a$[ebp+ecx*4]
	fld	DWORD PTR [eax+4]
	fmul	ST(0), ST(2)
	fld	DWORD PTR [eax]
	fmul	ST(0), ST(2)
	faddp	ST(1), ST(0)
	fsub	ST(0), ST(3)
	fst	QWORD PTR _dar$89928[ebp+ecx*8]

; 1547 :        if ( dar[ii] > minarea ) apos++;

	fcom	ST(5)
	fnstsw	ax
	test	ah, 65					; 00000041H
	jne	SHORT $LN76@separating@2
	inc	esi
$LN76@separating@2:

; 1548 :        if ( dar[ii] < -minarea ) aneg++;

	fcomp	ST(4)
	fnstsw	ax
	test	ah, 5
	jp	SHORT $LN77@separating@2
	inc	DWORD PTR _aneg$[ebp]
$LN77@separating@2:

; 1546 :      { dar[ii] = cx*a[ii][0] + cy*a[ii][1] - d;

	mov	eax, DWORD PTR _a$[ebp+ecx*4+4]
	fld	DWORD PTR [eax+4]
	fmul	ST(0), ST(2)
	fld	DWORD PTR [eax]
	fmul	ST(0), ST(2)
	faddp	ST(1), ST(0)
	fsub	ST(0), ST(3)
	fst	QWORD PTR _dar$89928[ebp+ecx*8+8]

; 1547 :        if ( dar[ii] > minarea ) apos++;

	fcom	ST(5)
	fnstsw	ax
	test	ah, 65					; 00000041H
	jne	SHORT $LN78@separating@2
	inc	esi
$LN78@separating@2:

; 1548 :        if ( dar[ii] < -minarea ) aneg++;

	fcomp	ST(4)
	fnstsw	ax
	test	ah, 5
	jp	SHORT $LN79@separating@2
	inc	DWORD PTR _aneg$[ebp]
$LN79@separating@2:

; 1546 :      { dar[ii] = cx*a[ii][0] + cy*a[ii][1] - d;

	mov	eax, DWORD PTR _a$[ebp+ecx*4+8]
	fld	DWORD PTR [eax+4]
	fmul	ST(0), ST(2)
	fld	DWORD PTR [eax]
	fmul	ST(0), ST(2)
	faddp	ST(1), ST(0)
	fsub	ST(0), ST(3)
	fst	QWORD PTR _dar$89928[ebp+ecx*8+16]

; 1547 :        if ( dar[ii] > minarea ) apos++;

	fcom	ST(5)
	fnstsw	ax
	test	ah, 65					; 00000041H
	jne	SHORT $LN80@separating@2
	inc	esi
$LN80@separating@2:

; 1548 :        if ( dar[ii] < -minarea ) aneg++;

	fcomp	ST(4)
	fnstsw	ax
	test	ah, 5
	jp	SHORT $LN81@separating@2
	inc	DWORD PTR _aneg$[ebp]
$LN81@separating@2:

; 1546 :      { dar[ii] = cx*a[ii][0] + cy*a[ii][1] - d;

	mov	eax, DWORD PTR _a$[ebp+ecx*4+12]
	fld	DWORD PTR [eax+4]
	fmul	ST(0), ST(2)
	fld	DWORD PTR [eax]
	fmul	ST(0), ST(2)
	faddp	ST(1), ST(0)
	fsub	ST(0), ST(3)
	fst	QWORD PTR _dar$89928[ebp+ecx*8+24]

; 1547 :        if ( dar[ii] > minarea ) apos++;

	fcom	ST(5)
	fnstsw	ax
	test	ah, 65					; 00000041H
	jne	SHORT $LN82@separating@2
	inc	esi
$LN82@separating@2:

; 1548 :        if ( dar[ii] < -minarea ) aneg++;

	fcomp	ST(4)
	fnstsw	ax
	test	ah, 5
	jp	SHORT $LN83@separating@2
	inc	DWORD PTR _aneg$[ebp]
$LN83@separating@2:
	add	ecx, 4
	cmp	ecx, edx
	jl	$LN84@separating@2
	mov	edx, DWORD PTR _na$[ebp]
	fstp	ST(3)
	jmp	SHORT $LC75@separating@2
$LN120@separating@2:
	fld	QWORD PTR _d$89927[ebp]
	fld	QWORD PTR _cy$89926[ebp]
	fld	QWORD PTR _cx$89925[ebp]
	fxch	ST(2)
	fxch	ST(1)
$LC75@separating@2:

; 1542 :       { same++;    continue; /* same point */ }
; 1543 : 
; 1544 :      apos = aneg = bpos = bneg = 0;
; 1545 :      for ( ii = 2 ; ii < na ; ii++ )

	cmp	ecx, edx
	jge	SHORT $LN74@separating@2
	mov	edx, DWORD PTR _na$[ebp]
	fld	ST(3)
	fchs
$LC34@separating@2:

; 1546 :      { dar[ii] = cx*a[ii][0] + cy*a[ii][1] - d;

	mov	eax, DWORD PTR _a$[ebp+ecx*4]
	fld	DWORD PTR [eax+4]
	fmul	ST(0), ST(2)
	fld	DWORD PTR [eax]
	fmul	ST(0), ST(5)
	faddp	ST(1), ST(0)
	fsub	ST(0), ST(3)
	fst	QWORD PTR _dar$89928[ebp+ecx*8]

; 1547 :        if ( dar[ii] > minarea ) apos++;

	fcom	ST(5)
	fnstsw	ax
	test	ah, 65					; 00000041H
	jne	SHORT $LN31@separating@2
	inc	esi
$LN31@separating@2:

; 1548 :        if ( dar[ii] < -minarea ) aneg++;

	fcomp	ST(1)
	fnstsw	ax
	test	ah, 5
	jp	SHORT $LN33@separating@2
	inc	DWORD PTR _aneg$[ebp]
$LN33@separating@2:
	inc	ecx

; 1542 :       { same++;    continue; /* same point */ }
; 1543 : 
; 1544 :      apos = aneg = bpos = bneg = 0;
; 1545 :      for ( ii = 2 ; ii < na ; ii++ )

	cmp	ecx, edx
	jl	SHORT $LC34@separating@2
	fstp	ST(0)
	jmp	SHORT $LN74@separating@2
$LN121@separating@2:
	fld	QWORD PTR _d$89927[ebp]
	fld	QWORD PTR _cy$89926[ebp]
	fld	QWORD PTR _cx$89925[ebp]
	fxch	ST(2)
	fxch	ST(1)
$LN74@separating@2:

; 1549 :      }
; 1550 :      for ( jj = 0 ; jj < nb ; jj++ )

	xor	ecx, ecx
	cmp	ebx, 4
	jl	$LC86@separating@2
	fld	ST(3)
	lea	edx, DWORD PTR [ebx-3]
	fchs
$LN95@separating@2:

; 1551 :      { dbr[jj] = cx*b[jj][0] + cy*b[jj][1] - d;

	mov	eax, DWORD PTR _b$[ebp+ecx*4]
	fld	DWORD PTR [eax+4]
	fmul	ST(0), ST(2)
	fld	DWORD PTR [eax]
	fmul	ST(0), ST(5)
	faddp	ST(1), ST(0)
	fsub	ST(0), ST(3)
	fst	QWORD PTR _dbr$89929[ebp+ecx*8]

; 1552 :        if ( dbr[jj] > minarea ) bpos++;

	fcom	ST(5)
	fnstsw	ax
	test	ah, 65					; 00000041H
	jne	SHORT $LN87@separating@2
	inc	DWORD PTR _bpos$[ebp]
$LN87@separating@2:

; 1553 :        if ( dbr[jj] < -minarea ) bneg++;

	fcomp	ST(1)
	fnstsw	ax
	test	ah, 5
	jp	SHORT $LN88@separating@2
	inc	edi
$LN88@separating@2:

; 1551 :      { dbr[jj] = cx*b[jj][0] + cy*b[jj][1] - d;

	mov	eax, DWORD PTR _b$[ebp+ecx*4+4]
	fld	DWORD PTR [eax+4]
	fmul	ST(0), ST(2)
	fld	DWORD PTR [eax]
	fmul	ST(0), ST(5)
	faddp	ST(1), ST(0)
	fsub	ST(0), ST(3)
	fst	QWORD PTR _dbr$89929[ebp+ecx*8+8]

; 1552 :        if ( dbr[jj] > minarea ) bpos++;

	fcom	ST(5)
	fnstsw	ax
	test	ah, 65					; 00000041H
	jne	SHORT $LN89@separating@2
	inc	DWORD PTR _bpos$[ebp]
$LN89@separating@2:

; 1553 :        if ( dbr[jj] < -minarea ) bneg++;

	fcomp	ST(1)
	fnstsw	ax
	test	ah, 5
	jp	SHORT $LN90@separating@2
	inc	edi
$LN90@separating@2:

; 1551 :      { dbr[jj] = cx*b[jj][0] + cy*b[jj][1] - d;

	mov	eax, DWORD PTR _b$[ebp+ecx*4+8]
	fld	DWORD PTR [eax+4]
	fmul	ST(0), ST(2)
	fld	DWORD PTR [eax]
	fmul	ST(0), ST(5)
	faddp	ST(1), ST(0)
	fsub	ST(0), ST(3)
	fst	QWORD PTR _dbr$89929[ebp+ecx*8+16]

; 1552 :        if ( dbr[jj] > minarea ) bpos++;

	fcom	ST(5)
	fnstsw	ax
	test	ah, 65					; 00000041H
	jne	SHORT $LN91@separating@2
	inc	DWORD PTR _bpos$[ebp]
$LN91@separating@2:

; 1553 :        if ( dbr[jj] < -minarea ) bneg++;

	fcomp	ST(1)
	fnstsw	ax
	test	ah, 5
	jp	SHORT $LN92@separating@2
	inc	edi
$LN92@separating@2:

; 1551 :      { dbr[jj] = cx*b[jj][0] + cy*b[jj][1] - d;

	mov	eax, DWORD PTR _b$[ebp+ecx*4+12]
	fld	DWORD PTR [eax+4]
	fmul	ST(0), ST(2)
	fld	DWORD PTR [eax]
	fmul	ST(0), ST(5)
	faddp	ST(1), ST(0)
	fsub	ST(0), ST(3)
	fst	QWORD PTR _dbr$89929[ebp+ecx*8+24]

; 1552 :        if ( dbr[jj] > minarea ) bpos++;

	fcom	ST(5)
	fnstsw	ax
	test	ah, 65					; 00000041H
	jne	SHORT $LN93@separating@2
	inc	DWORD PTR _bpos$[ebp]
$LN93@separating@2:

; 1553 :        if ( dbr[jj] < -minarea ) bneg++;

	fcomp	ST(1)
	fnstsw	ax
	test	ah, 5
	jp	SHORT $LN94@separating@2
	inc	edi
$LN94@separating@2:
	add	ecx, 4
	cmp	ecx, edx
	jl	$LN95@separating@2
	fstp	ST(0)
$LC86@separating@2:

; 1549 :      }
; 1550 :      for ( jj = 0 ; jj < nb ; jj++ )

	cmp	ecx, ebx
	jge	SHORT $LN209@separating@2
	mov	edx, DWORD PTR _bpos$[ebp]
	fld	ST(3)
	fchs
$LC29@separating@2:

; 1551 :      { dbr[jj] = cx*b[jj][0] + cy*b[jj][1] - d;

	mov	eax, DWORD PTR _b$[ebp+ecx*4]
	fld	DWORD PTR [eax+4]
	fmul	ST(0), ST(2)
	fld	DWORD PTR [eax]
	fmul	ST(0), ST(5)
	faddp	ST(1), ST(0)
	fsub	ST(0), ST(3)
	fst	QWORD PTR _dbr$89929[ebp+ecx*8]

; 1552 :        if ( dbr[jj] > minarea ) bpos++;

	fcom	ST(5)
	fnstsw	ax
	test	ah, 65					; 00000041H
	jne	SHORT $LN26@separating@2
	inc	edx
$LN26@separating@2:

; 1553 :        if ( dbr[jj] < -minarea ) bneg++;

	fcomp	ST(1)
	fnstsw	ax
	test	ah, 5
	jp	SHORT $LN28@separating@2
	inc	edi
$LN28@separating@2:
	inc	ecx

; 1549 :      }
; 1550 :      for ( jj = 0 ; jj < nb ; jj++ )

	cmp	ecx, ebx
	jl	SHORT $LC29@separating@2
	fstp	ST(3)

; 1552 :        if ( dbr[jj] > minarea ) bpos++;

	mov	DWORD PTR _bpos$[ebp], edx
	fstp	ST(3)
	fstp	ST(2)
	fstp	ST(1)
	jmp	SHORT $LN314@separating@2
$LN209@separating@2:
	fstp	ST(2)
	fstp	ST(2)
	fstp	ST(0)
$LN314@separating@2:

; 1554 :      }
; 1555 : 
; 1556 :      /* test opposite sidedness */
; 1557 :      if ( apos == (na-2) && bneg == nb ) return DISJOINT;

	mov	eax, DWORD PTR _na$[ebp]
	fstp	ST(0)
	add	eax, -2					; fffffffeH
	cmp	esi, eax
	jne	SHORT $LN24@separating@2
	cmp	edi, ebx
	je	SHORT $LN60@separating@2
$LN24@separating@2:

; 1558 :      if ( aneg == (na-2) && bpos == nb ) return DISJOINT;

	cmp	DWORD PTR _aneg$[ebp], eax
	jne	SHORT $LN43@separating@2
	cmp	DWORD PTR _bpos$[ebp], ebx
	jne	SHORT $LN43@separating@2
$LN60@separating@2:
	pop	edi
	pop	esi

; 1554 :      }
; 1555 : 
; 1556 :      /* test opposite sidedness */
; 1557 :      if ( apos == (na-2) && bneg == nb ) return DISJOINT;

	mov	eax, 1
	pop	ebx

; 1597 :   }
; 1598 : 
; 1599 :   return NOTKNOWN;
; 1600 : } // end separating_line(

	mov	ecx, DWORD PTR __$ArrayPad$[ebp]
	xor	ecx, ebp
	call	@__security_check_cookie@4
	mov	esp, ebp
	pop	ebp
	ret	0
$LN131@separating@2:

; 1558 :      if ( aneg == (na-2) && bpos == nb ) return DISJOINT;

	fstp	ST(0)
$LN43@separating@2:

; 1521 :   nna = (ta->flag & 0xF) == FACET ? 3 : 1;
; 1522 :   nnb = (tb->flag & 0xF) == FACET ? 3 : 1;
; 1523 : 
; 1524 :   /* Try using edges of ta */
; 1525 :   for ( i = 0 ; i < nna ; i++ )

	mov	eax, DWORD PTR _i$[ebp]
	inc	eax
	mov	DWORD PTR _i$[ebp], eax
	cmp	eax, DWORD PTR _nna$[ebp]
	jl	$LL44@separating@2
$LN119@separating@2:

; 1559 :   }
; 1560 : 
; 1561 :   /* Try using edges of tb */
; 1562 :   for ( i = 0 ; i < nnb ; i++ )

	xor	esi, esi
	mov	DWORD PTR _i$[ebp], esi
	cmp	DWORD PTR _nnb$[ebp], esi
	jle	$LN20@separating@2
	jmp	SHORT $LN315@separating@2
$LL124@separating@2:
	mov	ebx, DWORD PTR _nb$[ebp]
	mov	esi, DWORD PTR _i$[ebp]
$LN315@separating@2:
	mov	edx, DWORD PTR _a$[ebp]
	mov	edi, DWORD PTR _tb$[ebp]

; 1563 :   { REAL cx,cy,d; /* coefficients for line */
; 1564 :     REAL dar[3],dbr[3],minarea;
; 1565 :     int ii,jj;
; 1566 : 
; 1567 :     for ( ii = 0 ; ii < nb ; ii++ )

	xor	ecx, ecx
	test	ebx, ebx
	jle	SHORT $LN17@separating@2
$LL19@separating@2:

; 1568 :        a[ii] = tb->x[(i+ii)%nb];

	lea	eax, DWORD PTR [ecx+esi]
	cdq
	idiv	ebx
	inc	ecx
	lea	edx, DWORD PTR [edx+edx*2]
	lea	eax, DWORD PTR [edi+edx*4+32]
	mov	DWORD PTR _a$[ebp+ecx*4-4], eax
	cmp	ecx, ebx
	jl	SHORT $LL19@separating@2

; 1563 :   { REAL cx,cy,d; /* coefficients for line */
; 1564 :     REAL dar[3],dbr[3],minarea;
; 1565 :     int ii,jj;
; 1566 : 
; 1567 :     for ( ii = 0 ; ii < nb ; ii++ )

	mov	edx, DWORD PTR _a$[ebp]
$LN17@separating@2:

; 1569 : 
; 1570 :     for ( jj = 0 ; jj < na ; jj++ )

	mov	esi, DWORD PTR _na$[ebp]
	xor	eax, eax
	test	esi, esi
	jle	SHORT $LN14@separating@2
	mov	ecx, DWORD PTR _ta$[ebp]
	add	ecx, 32					; 00000020H
	npad	6
$LL16@separating@2:

; 1571 :        b[jj] = ta->x[jj];

	mov	DWORD PTR _b$[ebp+eax*4], ecx
	inc	eax
	add	ecx, 12					; 0000000cH
	cmp	eax, esi
	jl	SHORT $LL16@separating@2
$LN14@separating@2:

; 1572 : 
; 1573 :      cx = a[1][1] - a[0][1]; cy = a[0][0] - a[1][0]; 

	mov	eax, DWORD PTR _a$[ebp+4]
	fld	DWORD PTR [eax+4]
	fsub	DWORD PTR [edx+4]
	fst	QWORD PTR _cx$89955[ebp]
	fld	DWORD PTR [edx]
	fsub	DWORD PTR [eax]
	fst	QWORD PTR _cy$89956[ebp]

; 1574 :      d = cx*a[0][0] + cy*a[0][1];

	fld	DWORD PTR [edx+4]
	fmul	ST(0), ST(1)
	fld	DWORD PTR [edx]
	fmul	ST(0), ST(3)
	faddp	ST(1), ST(0)
	fstp	QWORD PTR _d$89957[ebp]

; 1575 : 
; 1576 :      width = -1e-5;
; 1577 :      minarea = width*sqrt(cx*cx + cy*cy);

	fmul	ST(0), ST(0)
	fld	ST(1)
	fmulp	ST(2), ST(0)
	faddp	ST(1), ST(0)
	call	__CIsqrt
	fmul	QWORD PTR __real@bee4f8b588e368f1

; 1578 : 
; 1579 :      if ( fabs(minarea) < 1e-20 ) 

	fld	ST(0)
	fabs
	fcomp	QWORD PTR __real@3bc79ca10c924223
	fnstsw	ax
	test	ah, 5
	jnp	$LN223@separating@2

; 1580 :       { same++;    continue; /* same point */ }
; 1581 : 
; 1582 :      apos = aneg = bpos = bneg = 0;
; 1583 :      for ( ii = 2 ; ii < nb ; ii++ )

	mov	edx, DWORD PTR _nb$[ebp]
	xor	esi, esi
	mov	ecx, 2
	xor	edi, edi
	xor	ebx, ebx
	mov	DWORD PTR _bpos$[ebp], esi
	cmp	edx, ecx
	jle	$LN123@separating@2
	lea	eax, DWORD PTR [edx-2]
	cmp	eax, 4
	jl	$LN122@separating@2
	fld	ST(0)
	add	edx, -3					; fffffffdH
	fchs
	fld	QWORD PTR _d$89957[ebp]
	fld	QWORD PTR _cy$89956[ebp]
	fld	QWORD PTR _cx$89955[ebp]
$LN106@separating@2:

; 1584 :      { dar[ii] = cx*a[ii][0] + cy*a[ii][1] - d;

	mov	eax, DWORD PTR _a$[ebp+ecx*4]
	fld	DWORD PTR [eax+4]
	fmul	ST(0), ST(2)
	fld	DWORD PTR [eax]
	fmul	ST(0), ST(2)
	faddp	ST(1), ST(0)
	fsub	ST(0), ST(3)
	fst	QWORD PTR _dar$89958[ebp+ecx*8]

; 1585 :        if ( dar[ii] > minarea ) apos++;

	fcom	ST(5)
	fnstsw	ax
	test	ah, 65					; 00000041H
	jne	SHORT $LN98@separating@2
	inc	esi
$LN98@separating@2:

; 1586 :        if ( dar[ii] < -minarea ) aneg++;

	fcomp	ST(4)
	fnstsw	ax
	test	ah, 5
	jp	SHORT $LN99@separating@2
	inc	ebx
$LN99@separating@2:

; 1584 :      { dar[ii] = cx*a[ii][0] + cy*a[ii][1] - d;

	mov	eax, DWORD PTR _a$[ebp+ecx*4+4]
	fld	DWORD PTR [eax+4]
	fmul	ST(0), ST(2)
	fld	DWORD PTR [eax]
	fmul	ST(0), ST(2)
	faddp	ST(1), ST(0)
	fsub	ST(0), ST(3)
	fst	QWORD PTR _dar$89958[ebp+ecx*8+8]

; 1585 :        if ( dar[ii] > minarea ) apos++;

	fcom	ST(5)
	fnstsw	ax
	test	ah, 65					; 00000041H
	jne	SHORT $LN100@separating@2
	inc	esi
$LN100@separating@2:

; 1586 :        if ( dar[ii] < -minarea ) aneg++;

	fcomp	ST(4)
	fnstsw	ax
	test	ah, 5
	jp	SHORT $LN101@separating@2
	inc	ebx
$LN101@separating@2:

; 1584 :      { dar[ii] = cx*a[ii][0] + cy*a[ii][1] - d;

	mov	eax, DWORD PTR _a$[ebp+ecx*4+8]
	fld	DWORD PTR [eax+4]
	fmul	ST(0), ST(2)
	fld	DWORD PTR [eax]
	fmul	ST(0), ST(2)
	faddp	ST(1), ST(0)
	fsub	ST(0), ST(3)
	fst	QWORD PTR _dar$89958[ebp+ecx*8+16]

; 1585 :        if ( dar[ii] > minarea ) apos++;

	fcom	ST(5)
	fnstsw	ax
	test	ah, 65					; 00000041H
	jne	SHORT $LN102@separating@2
	inc	esi
$LN102@separating@2:

; 1586 :        if ( dar[ii] < -minarea ) aneg++;

	fcomp	ST(4)
	fnstsw	ax
	test	ah, 5
	jp	SHORT $LN103@separating@2
	inc	ebx
$LN103@separating@2:

; 1584 :      { dar[ii] = cx*a[ii][0] + cy*a[ii][1] - d;

	mov	eax, DWORD PTR _a$[ebp+ecx*4+12]
	fld	DWORD PTR [eax+4]
	fmul	ST(0), ST(2)
	fld	DWORD PTR [eax]
	fmul	ST(0), ST(2)
	faddp	ST(1), ST(0)
	fsub	ST(0), ST(3)
	fst	QWORD PTR _dar$89958[ebp+ecx*8+24]

; 1585 :        if ( dar[ii] > minarea ) apos++;

	fcom	ST(5)
	fnstsw	ax
	test	ah, 65					; 00000041H
	jne	SHORT $LN104@separating@2
	inc	esi
$LN104@separating@2:

; 1586 :        if ( dar[ii] < -minarea ) aneg++;

	fcomp	ST(4)
	fnstsw	ax
	test	ah, 5
	jp	SHORT $LN105@separating@2
	inc	ebx
$LN105@separating@2:
	add	ecx, 4
	cmp	ecx, edx
	jl	$LN106@separating@2
	mov	edx, DWORD PTR _nb$[ebp]
	fstp	ST(3)
	jmp	SHORT $LC97@separating@2
$LN122@separating@2:
	fld	QWORD PTR _d$89957[ebp]
	fld	QWORD PTR _cy$89956[ebp]
	fld	QWORD PTR _cx$89955[ebp]
	fxch	ST(2)
	fxch	ST(1)
$LC97@separating@2:

; 1580 :       { same++;    continue; /* same point */ }
; 1581 : 
; 1582 :      apos = aneg = bpos = bneg = 0;
; 1583 :      for ( ii = 2 ; ii < nb ; ii++ )

	cmp	ecx, edx
	jge	SHORT $LN96@separating@2
	mov	edx, DWORD PTR _nb$[ebp]
	fld	ST(3)
	fchs
$LC12@separating@2:

; 1584 :      { dar[ii] = cx*a[ii][0] + cy*a[ii][1] - d;

	mov	eax, DWORD PTR _a$[ebp+ecx*4]
	fld	DWORD PTR [eax+4]
	fmul	ST(0), ST(2)
	fld	DWORD PTR [eax]
	fmul	ST(0), ST(5)
	faddp	ST(1), ST(0)
	fsub	ST(0), ST(3)
	fst	QWORD PTR _dar$89958[ebp+ecx*8]

; 1585 :        if ( dar[ii] > minarea ) apos++;

	fcom	ST(5)
	fnstsw	ax
	test	ah, 65					; 00000041H
	jne	SHORT $LN9@separating@2
	inc	esi
$LN9@separating@2:

; 1586 :        if ( dar[ii] < -minarea ) aneg++;

	fcomp	ST(1)
	fnstsw	ax
	test	ah, 5
	jp	SHORT $LN11@separating@2
	inc	ebx
$LN11@separating@2:
	inc	ecx

; 1580 :       { same++;    continue; /* same point */ }
; 1581 : 
; 1582 :      apos = aneg = bpos = bneg = 0;
; 1583 :      for ( ii = 2 ; ii < nb ; ii++ )

	cmp	ecx, edx
	jl	SHORT $LC12@separating@2
	fstp	ST(0)
	jmp	SHORT $LN96@separating@2
$LN123@separating@2:
	fld	QWORD PTR _d$89957[ebp]
	fld	QWORD PTR _cy$89956[ebp]
	fld	QWORD PTR _cx$89955[ebp]
	fxch	ST(2)
	fxch	ST(1)
$LN96@separating@2:

; 1587 :      }
; 1588 :      for ( jj = 0 ; jj < na ; jj++ )

	xor	ecx, ecx
	cmp	DWORD PTR _na$[ebp], 4
	jl	$LC108@separating@2
	mov	edx, DWORD PTR _na$[ebp]
	fld	ST(3)
	fchs
	add	edx, -3					; fffffffdH
$LN117@separating@2:

; 1589 :      { dbr[jj] = cx*b[jj][0] + cy*b[jj][1] - d;

	mov	eax, DWORD PTR _b$[ebp+ecx*4]
	fld	DWORD PTR [eax+4]
	fmul	ST(0), ST(2)
	fld	DWORD PTR [eax]
	fmul	ST(0), ST(5)
	faddp	ST(1), ST(0)
	fsub	ST(0), ST(3)
	fst	QWORD PTR _dbr$89959[ebp+ecx*8]

; 1590 :        if ( dbr[jj] > minarea ) bpos++;

	fcom	ST(5)
	fnstsw	ax
	test	ah, 65					; 00000041H
	jne	SHORT $LN109@separating@2
	inc	DWORD PTR _bpos$[ebp]
$LN109@separating@2:

; 1591 :        if ( dbr[jj] < -minarea ) bneg++;

	fcomp	ST(1)
	fnstsw	ax
	test	ah, 5
	jp	SHORT $LN110@separating@2
	inc	edi
$LN110@separating@2:

; 1589 :      { dbr[jj] = cx*b[jj][0] + cy*b[jj][1] - d;

	mov	eax, DWORD PTR _b$[ebp+ecx*4+4]
	fld	DWORD PTR [eax+4]
	fmul	ST(0), ST(2)
	fld	DWORD PTR [eax]
	fmul	ST(0), ST(5)
	faddp	ST(1), ST(0)
	fsub	ST(0), ST(3)
	fst	QWORD PTR _dbr$89959[ebp+ecx*8+8]

; 1590 :        if ( dbr[jj] > minarea ) bpos++;

	fcom	ST(5)
	fnstsw	ax
	test	ah, 65					; 00000041H
	jne	SHORT $LN111@separating@2
	inc	DWORD PTR _bpos$[ebp]
$LN111@separating@2:

; 1591 :        if ( dbr[jj] < -minarea ) bneg++;

	fcomp	ST(1)
	fnstsw	ax
	test	ah, 5
	jp	SHORT $LN112@separating@2
	inc	edi
$LN112@separating@2:

; 1589 :      { dbr[jj] = cx*b[jj][0] + cy*b[jj][1] - d;

	mov	eax, DWORD PTR _b$[ebp+ecx*4+8]
	fld	DWORD PTR [eax+4]
	fmul	ST(0), ST(2)
	fld	DWORD PTR [eax]
	fmul	ST(0), ST(5)
	faddp	ST(1), ST(0)
	fsub	ST(0), ST(3)
	fst	QWORD PTR _dbr$89959[ebp+ecx*8+16]

; 1590 :        if ( dbr[jj] > minarea ) bpos++;

	fcom	ST(5)
	fnstsw	ax
	test	ah, 65					; 00000041H
	jne	SHORT $LN113@separating@2
	inc	DWORD PTR _bpos$[ebp]
$LN113@separating@2:

; 1591 :        if ( dbr[jj] < -minarea ) bneg++;

	fcomp	ST(1)
	fnstsw	ax
	test	ah, 5
	jp	SHORT $LN114@separating@2
	inc	edi
$LN114@separating@2:

; 1589 :      { dbr[jj] = cx*b[jj][0] + cy*b[jj][1] - d;

	mov	eax, DWORD PTR _b$[ebp+ecx*4+12]
	fld	DWORD PTR [eax+4]
	fmul	ST(0), ST(2)
	fld	DWORD PTR [eax]
	fmul	ST(0), ST(5)
	faddp	ST(1), ST(0)
	fsub	ST(0), ST(3)
	fst	QWORD PTR _dbr$89959[ebp+ecx*8+24]

; 1590 :        if ( dbr[jj] > minarea ) bpos++;

	fcom	ST(5)
	fnstsw	ax
	test	ah, 65					; 00000041H
	jne	SHORT $LN115@separating@2
	inc	DWORD PTR _bpos$[ebp]
$LN115@separating@2:

; 1591 :        if ( dbr[jj] < -minarea ) bneg++;

	fcomp	ST(1)
	fnstsw	ax
	test	ah, 5
	jp	SHORT $LN116@separating@2
	inc	edi
$LN116@separating@2:
	add	ecx, 4
	cmp	ecx, edx
	jl	$LN117@separating@2
	fstp	ST(0)
$LC108@separating@2:

; 1587 :      }
; 1588 :      for ( jj = 0 ; jj < na ; jj++ )

	cmp	ecx, DWORD PTR _na$[ebp]
	jge	SHORT $LN301@separating@2
	mov	edx, DWORD PTR _na$[ebp]
	fld	ST(3)
	fchs
$LC7@separating@2:

; 1589 :      { dbr[jj] = cx*b[jj][0] + cy*b[jj][1] - d;

	mov	eax, DWORD PTR _b$[ebp+ecx*4]
	fld	DWORD PTR [eax+4]
	fmul	ST(0), ST(2)
	fld	DWORD PTR [eax]
	fmul	ST(0), ST(5)
	faddp	ST(1), ST(0)
	fsub	ST(0), ST(3)
	fst	QWORD PTR _dbr$89959[ebp+ecx*8]

; 1590 :        if ( dbr[jj] > minarea ) bpos++;

	fcom	ST(5)
	fnstsw	ax
	test	ah, 65					; 00000041H
	jne	SHORT $LN4@separating@2
	inc	DWORD PTR _bpos$[ebp]
$LN4@separating@2:

; 1591 :        if ( dbr[jj] < -minarea ) bneg++;

	fcomp	ST(1)
	fnstsw	ax
	test	ah, 5
	jp	SHORT $LN6@separating@2
	inc	edi
$LN6@separating@2:
	inc	ecx

; 1587 :      }
; 1588 :      for ( jj = 0 ; jj < na ; jj++ )

	cmp	ecx, edx
	jl	SHORT $LC7@separating@2

; 1591 :        if ( dbr[jj] < -minarea ) bneg++;

	fstp	ST(3)
	fstp	ST(3)
	fstp	ST(2)
	fstp	ST(1)
$LN316@separating@2:

; 1592 :      }
; 1593 : 
; 1594 :      /* test opposite sidedness */
; 1595 :      if ( apos == (nb-2) && bneg == na ) return DISJOINT;

	mov	eax, DWORD PTR _nb$[ebp]
	fstp	ST(0)
	add	eax, -2					; fffffffeH
	cmp	esi, eax
	jne	SHORT $LN125@separating@2
	cmp	edi, DWORD PTR _na$[ebp]
	je	$LN60@separating@2
$LN125@separating@2:

; 1596 :      if ( aneg == (nb-2) && bpos == na ) return DISJOINT;

	cmp	ebx, eax
	jne	SHORT $LN21@separating@2
	mov	ecx, DWORD PTR _na$[ebp]
	cmp	DWORD PTR _bpos$[ebp], ecx
	je	$LN60@separating@2
	jmp	SHORT $LN21@separating@2
$LN301@separating@2:

; 1587 :      }
; 1588 :      for ( jj = 0 ; jj < na ; jj++ )

	fstp	ST(2)
	fstp	ST(2)
	fstp	ST(0)
	jmp	SHORT $LN316@separating@2
$LN223@separating@2:

; 1596 :      if ( aneg == (nb-2) && bpos == na ) return DISJOINT;

	fstp	ST(0)
$LN21@separating@2:

; 1559 :   }
; 1560 : 
; 1561 :   /* Try using edges of tb */
; 1562 :   for ( i = 0 ; i < nnb ; i++ )

	mov	eax, DWORD PTR _i$[ebp]
	inc	eax
	mov	DWORD PTR _i$[ebp], eax
	cmp	eax, DWORD PTR _nnb$[ebp]
	jl	$LL124@separating@2
$LN20@separating@2:

; 1597 :   }
; 1598 : 
; 1599 :   return NOTKNOWN;
; 1600 : } // end separating_line(

	mov	ecx, DWORD PTR __$ArrayPad$[ebp]
	pop	edi
	pop	esi
	xor	ecx, ebp
	mov	eax, 32					; 00000020H
	pop	ebx
	call	@__security_check_cookie@4
	mov	esp, ebp
	pop	ebp
	ret	0
_separating_line ENDP
_TEXT	ENDS
PUBLIC	_plane_test
; Function compile flags: /Ogtp
;	COMDAT _plane_test
_TEXT	SEGMENT
tv402 = -52						; size = 8
_da$ = -52						; size = 8
tv385 = -44						; size = 8
_db$ = -44						; size = 8
_area$90009 = -36					; size = 8
tv302 = -32						; size = 4
_afar$ = -28						; size = 4
_anear$ = -24						; size = 4
_aeq$ = -20						; size = 4
_bnear$ = -16						; size = 4
_bfar$ = -12						; size = 4
_beq$ = -8						; size = 4
_retval$ = -4						; size = 4
tv196 = 8						; size = 4
tv171 = 8						; size = 4
_ta$ = 8						; size = 4
_tb$ = 12						; size = 4
_plane_test PROC					; COMDAT

; 1617 : {

	push	ebp
	mov	ebp, esp
	sub	esp, 52					; 00000034H

; 1618 :   REAL da,db;
; 1619 :   int k,n;
; 1620 :   int afar=0,aeq=0,anear=0;  /* count of ta vertices relative to tb plane */

	xor	eax, eax
	push	ebx

; 1621 :   int bfar=0,beq=0,bnear=0;  /* count of tb vertices relative to ta plane */
; 1622 :   REAL d;
; 1623 :   int retval = NOTKNOWN;
; 1624 : 
; 1625 :   /* if two edges */
; 1626 :   if ( ((ta->flag & 0xF) == EDGE) && ((tb->flag & 0xF) == EDGE) )

	mov	ebx, DWORD PTR _tb$[ebp]
	push	esi
	mov	esi, DWORD PTR _ta$[ebp]
	mov	DWORD PTR _afar$[ebp], eax
	mov	DWORD PTR _aeq$[ebp], eax
	mov	DWORD PTR _anear$[ebp], eax
	mov	DWORD PTR _bfar$[ebp], eax
	mov	DWORD PTR _beq$[ebp], eax
	mov	DWORD PTR _bnear$[ebp], eax
	mov	eax, DWORD PTR [esi+28]
	and	al, 15					; 0000000fH
	mov	DWORD PTR _retval$[ebp], 32		; 00000020H
	cmp	al, 1
	jne	$LN24@plane_test
	mov	ecx, DWORD PTR [ebx+28]
	and	cl, 15					; 0000000fH
	cmp	cl, al
	jne	$LN24@plane_test

; 1627 :   { REAL ab1x = tb->x[0][0] - ta->x[0][0];

	fld	DWORD PTR [ebx+32]
	fsub	DWORD PTR [esi+32]

; 1628 :     REAL ab1y = tb->x[0][1] - ta->x[0][1];

	fld	DWORD PTR [ebx+36]
	fsub	DWORD PTR [esi+36]

; 1629 :     REAL ab1z = tb->x[0][2] - ta->x[0][2];

	fld	DWORD PTR [ebx+40]
	fsub	DWORD PTR [esi+40]

; 1630 :     REAL ab2x = tb->x[1][0] - ta->x[0][0];

	fld	DWORD PTR [ebx+44]
	fsub	DWORD PTR [esi+32]

; 1631 :     REAL ab2y = tb->x[1][1] - ta->x[0][1];

	fld	DWORD PTR [ebx+48]
	fsub	DWORD PTR [esi+36]

; 1632 :     REAL ab2z = tb->x[1][2] - ta->x[0][2];

	fld	DWORD PTR [ebx+52]
	fsub	DWORD PTR [esi+40]

; 1633 :     REAL aax  = ta->x[1][0] - ta->x[0][0];
; 1634 :     REAL aay  = ta->x[1][1] - ta->x[0][1];
; 1635 :     REAL aaz  = ta->x[1][2] - ta->x[0][2];
; 1636 :     REAL area = ab1x*ab2y - ab1y*ab2x;

	fld	ST(1)
	fmul	ST(0), ST(6)
	fld	ST(3)
	fmul	ST(0), ST(6)
	fsubp	ST(1), ST(0)
	fst	QWORD PTR _area$90009[ebp]

; 1637 :     REAL vol = (ab1x*ab2y - ab1y*ab2x)*aaz + (ab1y*ab2z - ab1z*ab2y)*aax
; 1638 :               + (ab1z*ab2x - ab1x*ab2z)*aay;

	fld	ST(1)
	fmulp	ST(6), ST(0)
	fxch	ST(2)
	fmul	ST(0), ST(4)
	fsubp	ST(5), ST(0)
	fld	DWORD PTR [esi+44]
	fsub	DWORD PTR [esi+32]
	fmulp	ST(5), ST(0)
	fld	DWORD PTR [esi+52]
	fsub	DWORD PTR [esi+40]
	fmulp	ST(2), ST(0)
	fxch	ST(4)
	faddp	ST(1), ST(0)
	fxch	ST(1)
	fmulp	ST(2), ST(0)
	fxch	ST(2)
	fmulp	ST(3), ST(0)
	fsubrp	ST(2), ST(0)
	fld	DWORD PTR [esi+48]
	fsub	DWORD PTR [esi+36]
	fmulp	ST(2), ST(0)
	faddp	ST(1), ST(0)

; 1639 :     if ( vol == 0.0 ) return COPLANAR;

	fld	ST(0)
	fldz
	fld	ST(0)
	fucomp	ST(2)
	fnstsw	ax
	fstp	ST(1)
	test	ah, 68					; 00000044H
	jp	SHORT $LN23@plane_test
	fstp	ST(1)
	pop	esi
	fstp	ST(0)
	mov	eax, 64					; 00000040H
	pop	ebx

; 1685 : 
; 1686 : } /* end plane_test() */

	mov	esp, ebp
	pop	ebp
	ret	0
$LN23@plane_test:

; 1640 :     if ( area == 0.0 ) return DISJOINT;

	fld	QWORD PTR _area$90009[ebp]
	fld	ST(0)
	fld	ST(2)
	fucompp
	fnstsw	ax
	test	ah, 68					; 00000044H
	jp	SHORT $LN22@plane_test
	fstp	ST(2)
	pop	esi
	fstp	ST(0)
	mov	eax, 1
	fstp	ST(0)
	pop	ebx

; 1685 : 
; 1686 : } /* end plane_test() */

	mov	esp, ebp
	pop	ebp
	ret	0
$LN22@plane_test:

; 1641 :     if ( area*vol > 0 ) return SECOND_BACK;

	fmulp	ST(2), ST(0)
	fcompp
	fnstsw	ax
	test	ah, 5
	jp	SHORT $LN21@plane_test
	pop	esi
	mov	eax, 4
	pop	ebx

; 1685 : 
; 1686 : } /* end plane_test() */

	mov	esp, ebp
	pop	ebp
	ret	0
$LN21@plane_test:
	pop	esi

; 1642 :     return FIRST_BACK;

	mov	eax, 2
	pop	ebx

; 1685 : 
; 1686 : } /* end plane_test() */

	mov	esp, ebp
	pop	ebp
	ret	0
$LN24@plane_test:

; 1643 :   }
; 1644 : 
; 1645 :   /* see where tb is with respect to ta plane */
; 1646 :   da = dotf(ta->normal,ta->x[0],gdim);

	mov	edx, DWORD PTR _gdim
	push	edi
	lea	eax, DWORD PTR [esi+32]
	push	edx
	lea	ecx, DWORD PTR [esi+68]
	push	eax
	push	ecx
	mov	DWORD PTR tv302[ebp], eax
	call	_dotf
	fst	QWORD PTR _da$[ebp]

; 1647 :   n = ((tb->flag & 0xF) == FACET) ? 3 : 2;

	mov	eax, DWORD PTR [ebx+28]
	xor	ecx, ecx
	and	al, 15					; 0000000fH
	add	esp, 12					; 0000000cH
	cmp	al, 2
	sete	cl
	lea	edi, DWORD PTR [ecx+2]

; 1648 :   for ( k = 0 ; k < n ; k++ )

	test	edi, edi
	jle	SHORT $LN41@plane_test

; 1643 :   }
; 1644 : 
; 1645 :   /* see where tb is with respect to ta plane */
; 1646 :   da = dotf(ta->normal,ta->x[0],gdim);

	fsub	QWORD PTR __real@3f1a36e2eb1c432d
	add	ebx, 32					; 00000020H
	mov	DWORD PTR tv196[ebp], edi

; 1648 :   for ( k = 0 ; k < n ; k++ )

	fstp	QWORD PTR tv385[ebp]
	npad	7
$LL20@plane_test:

; 1649 :   {
; 1650 :     d = dotf(ta->normal,tb->x[k],gdim); 

	mov	edx, DWORD PTR _gdim
	push	edx
	lea	eax, DWORD PTR [esi+68]
	push	ebx
	push	eax
	call	_dotf

; 1651 :     if ( d < da - 0.0001 ) { bnear++; continue; }

	fld	QWORD PTR tv385[ebp]
	fcomp	ST(1)
	add	esp, 12					; 0000000cH
	fnstsw	ax
	test	ah, 65					; 00000041H
	jne	SHORT $LN17@plane_test
	inc	DWORD PTR _bnear$[ebp]
	fstp	ST(0)
	jmp	SHORT $LN19@plane_test
$LN17@plane_test:

; 1652 :     if ( d < da + 0.0001 ) { beq++; continue; }

	fld	QWORD PTR _da$[ebp]
	fadd	QWORD PTR __real@3f1a36e2eb1c432d
	fcompp
	fnstsw	ax
	test	ah, 65					; 00000041H
	jne	SHORT $LN16@plane_test
	inc	DWORD PTR _beq$[ebp]
	jmp	SHORT $LN19@plane_test
$LN16@plane_test:

; 1653 :     bfar++;

	inc	DWORD PTR _bfar$[ebp]
$LN19@plane_test:

; 1648 :   for ( k = 0 ; k < n ; k++ )

	add	ebx, 12					; 0000000cH
	dec	DWORD PTR tv196[ebp]
	jne	SHORT $LL20@plane_test
	mov	ebx, DWORD PTR _tb$[ebp]
	jmp	SHORT $LN18@plane_test
$LN41@plane_test:
	fstp	ST(0)
$LN18@plane_test:

; 1654 :   }
; 1655 :   if ( beq == n ) return COPLANAR; /* both in same plane */

	cmp	DWORD PTR _beq$[ebp], edi
	je	$LN53@plane_test

; 1656 :   if ( bfar == 0 ) return FIRST_BACK; 

	cmp	DWORD PTR _bfar$[ebp], 0
	je	$LN52@plane_test

; 1657 :   if ( bnear > 0 ) 

	cmp	DWORD PTR _bnear$[ebp], 0
	jle	SHORT $LN13@plane_test

; 1658 :   { if ( (ta->flag & 0xF) == FACET ) retval = ASPLITTINGB; }

	mov	eax, DWORD PTR [esi+28]
	and	al, 15					; 0000000fH
	cmp	al, 2
	jne	SHORT $LN11@plane_test
	mov	DWORD PTR _retval$[ebp], 8

; 1659 :   else retval = SECOND_BACK;

	jmp	SHORT $LN11@plane_test
$LN13@plane_test:
	mov	DWORD PTR _retval$[ebp], 4
$LN11@plane_test:

; 1660 :   
; 1661 :   /* see where ta is with respect to tb plane */
; 1662 : 
; 1663 :   db = dotf(tb->normal,tb->x[0],gdim);

	mov	ecx, DWORD PTR _gdim
	push	ecx
	lea	edx, DWORD PTR [ebx+32]
	lea	eax, DWORD PTR [ebx+68]
	push	edx
	push	eax
	call	_dotf
	fst	QWORD PTR _db$[ebp]

; 1664 :   n = ((ta->flag & 0xF) == FACET) ? 3 : 2;

	mov	eax, DWORD PTR [esi+28]
	xor	ecx, ecx
	and	al, 15					; 0000000fH
	add	esp, 12					; 0000000cH
	cmp	al, 2
	sete	cl
	lea	edi, DWORD PTR [ecx+2]

; 1665 :   for ( k = 0 ; k < n ; k++ )

	test	edi, edi
	jle	SHORT $LN47@plane_test

; 1660 :   
; 1661 :   /* see where ta is with respect to tb plane */
; 1662 : 
; 1663 :   db = dotf(tb->normal,tb->x[0],gdim);

	fsub	QWORD PTR __real@3f1a36e2eb1c432d
	mov	esi, DWORD PTR tv302[ebp]
	mov	DWORD PTR tv171[ebp], edi

; 1665 :   for ( k = 0 ; k < n ; k++ )

	fstp	QWORD PTR tv402[ebp]
	npad	2
$LL10@plane_test:

; 1666 :   {
; 1667 :     d = dotf(tb->normal,ta->x[k],gdim); 

	mov	edx, DWORD PTR _gdim
	push	edx
	lea	eax, DWORD PTR [ebx+68]
	push	esi
	push	eax
	call	_dotf

; 1668 :     if ( d < db - 0.0001 ) { anear++; continue; }

	fld	QWORD PTR tv402[ebp]
	fcomp	ST(1)
	add	esp, 12					; 0000000cH
	fnstsw	ax
	test	ah, 65					; 00000041H
	jne	SHORT $LN7@plane_test
	inc	DWORD PTR _anear$[ebp]
	fstp	ST(0)
	jmp	SHORT $LN9@plane_test
$LN7@plane_test:

; 1669 :     if ( d < db + 0.0001 ) { aeq++; continue; }

	fld	QWORD PTR _db$[ebp]
	fadd	QWORD PTR __real@3f1a36e2eb1c432d
	fcompp
	fnstsw	ax
	test	ah, 65					; 00000041H
	jne	SHORT $LN6@plane_test
	inc	DWORD PTR _aeq$[ebp]
	jmp	SHORT $LN9@plane_test
$LN6@plane_test:

; 1670 :     afar++;

	inc	DWORD PTR _afar$[ebp]
$LN9@plane_test:

; 1665 :   for ( k = 0 ; k < n ; k++ )

	add	esi, 12					; 0000000cH
	dec	DWORD PTR tv171[ebp]
	jne	SHORT $LL10@plane_test
	jmp	SHORT $LN8@plane_test
$LN47@plane_test:
	fstp	ST(0)
$LN8@plane_test:

; 1671 :   }
; 1672 :   if ( aeq == n ) return COPLANAR; /* both in same plane */

	cmp	DWORD PTR _aeq$[ebp], edi
	jne	SHORT $LN5@plane_test
$LN53@plane_test:
	pop	edi
	pop	esi
	mov	eax, 64					; 00000040H
	pop	ebx

; 1685 : 
; 1686 : } /* end plane_test() */

	mov	esp, ebp
	pop	ebp
	ret	0
$LN5@plane_test:

; 1673 :   if ( anear == 0 ) return FIRST_BACK;

	cmp	DWORD PTR _anear$[ebp], 0
	jne	SHORT $LN4@plane_test
$LN52@plane_test:
	pop	edi
	pop	esi
	mov	eax, 2
	pop	ebx

; 1685 : 
; 1686 : } /* end plane_test() */

	mov	esp, ebp
	pop	ebp
	ret	0
$LN4@plane_test:

; 1674 :   if ( afar > 0 )  

	cmp	DWORD PTR _afar$[ebp], 0
	jle	SHORT $LN3@plane_test

; 1675 :   { if ( (tb->flag & 0xf) == FACET ) retval |= BSPLITTINGA;   }

	mov	eax, DWORD PTR [ebx+28]
	and	al, 15					; 0000000fH
	cmp	al, 2
	jne	SHORT $LN32@plane_test
	or	DWORD PTR _retval$[ebp], 16		; 00000010H

; 1677 :   
; 1678 :   /* might still not have properly detected order, so try this */
; 1679 :   /*
; 1680 :   if ( !(retval & (FIRST_BACK|SECOND_BACK)) )
; 1681 :     retval = separating_plane(ta,tb,0);
; 1682 :     */
; 1683 :     
; 1684 :   return retval;

	mov	eax, DWORD PTR _retval$[ebp]
	pop	edi
	pop	esi
	pop	ebx

; 1685 : 
; 1686 : } /* end plane_test() */

	mov	esp, ebp
	pop	ebp
	ret	0
$LN3@plane_test:

; 1676 :   else retval |= SECOND_BACK;

	or	DWORD PTR _retval$[ebp], 4
$LN32@plane_test:

; 1677 :   
; 1678 :   /* might still not have properly detected order, so try this */
; 1679 :   /*
; 1680 :   if ( !(retval & (FIRST_BACK|SECOND_BACK)) )
; 1681 :     retval = separating_plane(ta,tb,0);
; 1682 :     */
; 1683 :     
; 1684 :   return retval;

	mov	eax, DWORD PTR _retval$[ebp]
	pop	edi
	pop	esi
	pop	ebx

; 1685 : 
; 1686 : } /* end plane_test() */

	mov	esp, ebp
	pop	ebp
	ret	0
_plane_test ENDP
_TEXT	ENDS
PUBLIC	_visibility_stage
EXTRN	_display_edge:DWORD
EXTRN	_display_facet:DWORD
EXTRN	_visibility_test:DWORD
; Function compile flags: /Ogtp
;	COMDAT _visibility_stage
_TEXT	SEGMENT
_t$ = 8							; size = 4
_visibility_stage PROC					; COMDAT

; 1836 : {

	push	ebp
	mov	ebp, esp

; 1837 : 
; 1838 :   if ( !visibility_test )

	cmp	DWORD PTR _visibility_test, 0
	jne	SHORT $LN6@visibility

; 1839 :   { if ( (t->flag & 0xF) == FACET )

	mov	eax, DWORD PTR _t$[ebp]
	mov	ecx, DWORD PTR [eax+28]
	and	cl, 15					; 0000000fH

; 1840 :      (*display_facet)(t);

	push	eax
	cmp	cl, 2
	jne	SHORT $LN5@visibility
	call	DWORD PTR _display_facet
	add	esp, 4

; 1857 : 
; 1858 : } // end visibility_stage()

	pop	ebp
	ret	0
$LN5@visibility:

; 1841 :     else (*display_edge)(t);

	call	DWORD PTR _display_edge
	add	esp, 4

; 1857 : 
; 1858 : } // end visibility_stage()

	pop	ebp
	ret	0
$LN6@visibility:

; 1842 :     return;
; 1843 :   }
; 1844 : 
; 1845 :   /* accumulate */
; 1846 :   if ( vis_list == NULL )

	mov	eax, DWORD PTR _vis_list
	test	eax, eax
	jne	SHORT $LN3@visibility

; 1847 :   { vis_max = maxcount;

	mov	eax, DWORD PTR _maxcount

; 1848 :     vis_list = (struct tsort *)temp_calloc(vis_max,sizeof(struct tsort));

	push	1848					; 00000738H
	push	OFFSET ??_C@_09MBOBPMLK@PAINTER?4C?$AA@
	push	140					; 0000008cH
	push	eax
	mov	DWORD PTR _vis_max, eax
	call	_kb_temp_calloc
	jmp	SHORT $LN9@visibility
$LN3@visibility:

; 1849 :   }
; 1850 :   else if ( vis_count >= vis_max - 1 )

	mov	ecx, DWORD PTR _vis_max
	lea	edx, DWORD PTR [ecx-1]
	cmp	DWORD PTR _vis_count, edx
	jb	SHORT $LN1@visibility

; 1851 :   { vis_list = (struct tsort *)temp_realloc((char*)vis_list,
; 1852 :         2*vis_max*sizeof(struct tsort));

	imul	ecx, 280				; 00000118H
	push	1852					; 0000073cH
	push	OFFSET ??_C@_09MBOBPMLK@PAINTER?4C?$AA@
	push	ecx
	push	eax
	call	_kb_temp_realloc

; 1853 :     vis_max *= 2;

	mov	ecx, DWORD PTR _vis_max
	lea	edx, DWORD PTR [ecx+ecx]
	mov	DWORD PTR _vis_max, edx
$LN9@visibility:

; 1851 :   { vis_list = (struct tsort *)temp_realloc((char*)vis_list,
; 1852 :         2*vis_max*sizeof(struct tsort));

	mov	DWORD PTR _vis_list, eax
	add	esp, 16					; 00000010H
$LN1@visibility:

; 1854 :   }
; 1855 : 
; 1856 :   vis_list[vis_count++] = *t;

	push	esi
	mov	esi, DWORD PTR _t$[ebp]
	push	edi
	mov	edi, DWORD PTR _vis_count
	imul	edi, 140				; 0000008cH
	add	edi, eax
	mov	ecx, 35					; 00000023H
	rep movsd
	inc	DWORD PTR _vis_count
	pop	edi
	pop	esi

; 1857 : 
; 1858 : } // end visibility_stage()

	pop	ebp
	ret	0
_visibility_stage ENDP
_TEXT	ENDS
PUBLIC	??_C@_0CC@FOIBAJPK@Visibility?5edge?5active?5list?5bad?4@ ; `string'
PUBLIC	_active_list_check
;	COMDAT ??_C@_0CC@FOIBAJPK@Visibility?5edge?5active?5list?5bad?4@
CONST	SEGMENT
??_C@_0CC@FOIBAJPK@Visibility?5edge?5active?5list?5bad?4@ DB 'Visibility '
	DB	'edge active list bad.', 0aH, 00H		; `string'
; Function compile flags: /Ogtp
CONST	ENDS
;	COMDAT _active_list_check
_TEXT	SEGMENT
_active_list_check PROC					; COMDAT

; 1866 : { struct vis_conedge *e;

	push	esi

; 1867 :   
; 1868 :   for ( e = active_edge_first ; e != &sentinel ; e = e->next_active )

	mov	esi, DWORD PTR _active_edge_first
	cmp	esi, OFFSET _sentinel
	je	SHORT $LN2@active_lis
	npad	1
$LL4@active_lis:

; 1869 :   { if ( e->next_active->prev_active != e )

	mov	eax, DWORD PTR [esi+36]
	cmp	DWORD PTR [eax+32], esi
	je	SHORT $LN3@active_lis

; 1870 :       kb_error(2418,"Visibility edge active list bad.\n",RECOVERABLE);

	push	1
	push	OFFSET ??_C@_0CC@FOIBAJPK@Visibility?5edge?5active?5list?5bad?4@
	push	2418					; 00000972H
	call	_kb_error
	add	esp, 12					; 0000000cH
$LN3@active_lis:

; 1867 :   
; 1868 :   for ( e = active_edge_first ; e != &sentinel ; e = e->next_active )

	mov	esi, DWORD PTR [esi+36]
	cmp	esi, OFFSET _sentinel
	jne	SHORT $LL4@active_lis
$LN2@active_lis:
	pop	esi

; 1871 :   }
; 1872 : } // end active_list_check())

	ret	0
_active_list_check ENDP
_TEXT	ENDS
PUBLIC	??_C@_01EEMJAFIK@?6?$AA@			; `string'
PUBLIC	??_C@_03JDANDILB@?$CFd?5?$AA@			; `string'
PUBLIC	??_C@_0BE@PCBKHPFG@?6?5?5?5?5?9?9?9?9?5?$CFd?5?9?9?9?9?5?6?$AA@ ; `string'
PUBLIC	_print_active
EXTRN	_printf:PROC
;	COMDAT ??_C@_01EEMJAFIK@?6?$AA@
CONST	SEGMENT
??_C@_01EEMJAFIK@?6?$AA@ DB 0aH, 00H			; `string'
CONST	ENDS
;	COMDAT ??_C@_03JDANDILB@?$CFd?5?$AA@
CONST	SEGMENT
??_C@_03JDANDILB@?$CFd?5?$AA@ DB '%d ', 00H		; `string'
CONST	ENDS
;	COMDAT ??_C@_0BE@PCBKHPFG@?6?5?5?5?5?9?9?9?9?5?$CFd?5?9?9?9?9?5?6?$AA@
CONST	SEGMENT
??_C@_0BE@PCBKHPFG@?6?5?5?5?5?9?9?9?9?5?$CFd?5?9?9?9?9?5?6?$AA@ DB 0aH, ' '
	DB	'   ---- %d ---- ', 0aH, 00H			; `string'
; Function compile flags: /Ogtp
CONST	ENDS
;	COMDAT _print_active
_TEXT	SEGMENT
_id$ = 8						; size = 4
_print_active PROC					; COMDAT

; 1875 : { struct vis_conedge *ee;

	push	ebp
	mov	ebp, esp
	push	esi
	push	edi

; 1876 :   int inrow = 0;
; 1877 :   for ( ee = active_edge_first ; ee != &sentinel ; ee = ee->next_active )

	mov	edi, DWORD PTR _active_edge_first
	xor	esi, esi
	cmp	edi, OFFSET _sentinel
	je	SHORT $LN4@print_acti
	push	ebx
	mov	ebx, DWORD PTR _id$[ebp]
	npad	7
$LL6@print_acti:

; 1878 :   { if ( ee->id == id )

	mov	eax, DWORD PTR [edi]

; 1879 :     { printf("\n    ---- %d ---- \n",ee->id);

	push	eax
	cmp	eax, ebx
	jne	SHORT $LN3@print_acti
	push	OFFSET ??_C@_0BE@PCBKHPFG@?6?5?5?5?5?9?9?9?9?5?$CFd?5?9?9?9?9?5?6?$AA@
	call	_printf
	add	esp, 8

; 1880 :       inrow = 0;

	xor	esi, esi

; 1881 :     }
; 1882 :     else

	jmp	SHORT $LN2@print_acti
$LN3@print_acti:

; 1883 :       printf("%d ",ee->id);

	push	OFFSET ??_C@_03JDANDILB@?$CFd?5?$AA@
	call	_printf
	add	esp, 8
$LN2@print_acti:

; 1884 :     inrow++;

	inc	esi

; 1885 :     if ( inrow==10 )

	cmp	esi, 10					; 0000000aH
	jne	SHORT $LN5@print_acti

; 1886 :     { printf("\n");

	push	OFFSET ??_C@_01EEMJAFIK@?6?$AA@
	call	_printf
	add	esp, 4

; 1887 :       inrow = 0;

	xor	esi, esi
$LN5@print_acti:

; 1876 :   int inrow = 0;
; 1877 :   for ( ee = active_edge_first ; ee != &sentinel ; ee = ee->next_active )

	mov	edi, DWORD PTR [edi+36]
	cmp	edi, OFFSET _sentinel
	jne	SHORT $LL6@print_acti
	pop	ebx
$LN4@print_acti:
	pop	edi
	pop	esi

; 1888 :     }
; 1889 :   }
; 1890 : }

	pop	ebp
	ret	0
_print_active ENDP
_TEXT	ENDS
PUBLIC	??_C@_0L@BKOHLMIH@?5?9?9?5?$CFd?5?9?9?5?$AA@	; `string'
PUBLIC	_print_part_list
;	COMDAT ??_C@_0L@BKOHLMIH@?5?9?9?5?$CFd?5?9?9?5?$AA@
CONST	SEGMENT
??_C@_0L@BKOHLMIH@?5?9?9?5?$CFd?5?9?9?5?$AA@ DB ' -- %d -- ', 00H ; `string'
; Function compile flags: /Ogtp
CONST	ENDS
;	COMDAT _print_part_list
_TEXT	SEGMENT
_e$ = 8							; size = 4
_print_part_list PROC					; COMDAT

; 1894 : { int k;

	push	ebp
	mov	ebp, esp
	push	ebx

; 1895 :   struct vis_conedge *ee;
; 1896 :   for ( ee = e, k = 0 ; ee && k < 20 ; k++, ee = ee->prev_active ) ;

	mov	ebx, DWORD PTR _e$[ebp]
	push	esi
	xor	eax, eax
	push	edi
	mov	esi, ebx
	test	ebx, ebx
	je	SHORT $LN16@print_part
$LL9@print_part:
	cmp	eax, 20					; 00000014H
	jge	SHORT $LN7@print_part
	mov	esi, DWORD PTR [esi+32]
	inc	eax
	test	esi, esi
	jne	SHORT $LL9@print_part

; 1897 :   if ( ee == NULL ) ee = active_edge_first;

	jmp	SHORT $LN16@print_part
$LN7@print_part:
	test	esi, esi
	jne	SHORT $LN6@print_part
$LN16@print_part:
	mov	esi, DWORD PTR _active_edge_first
$LN6@print_part:

; 1898 :   for ( k = 0 ; ee && k <= 40 ; k++, ee=ee->next_active )

	xor	edi, edi
	test	esi, esi
	je	SHORT $LN3@print_part
$LL5@print_part:
	cmp	edi, 40					; 00000028H
	jg	SHORT $LN3@print_part

; 1899 :   { if ( ee == e ) printf(" -- %d -- ",ee->id);

	cmp	esi, ebx
	jne	SHORT $LN2@print_part
	mov	eax, DWORD PTR [esi]
	push	eax
	push	OFFSET ??_C@_0L@BKOHLMIH@?5?9?9?5?$CFd?5?9?9?5?$AA@
	jmp	SHORT $LN17@print_part
$LN2@print_part:

; 1900 :     else printf("%d ",ee->id);

	mov	ecx, DWORD PTR [esi]
	push	ecx
	push	OFFSET ??_C@_03JDANDILB@?$CFd?5?$AA@
$LN17@print_part:
	call	_printf
	mov	esi, DWORD PTR [esi+36]
	add	esp, 8
	inc	edi
	test	esi, esi
	jne	SHORT $LL5@print_part
$LN3@print_part:

; 1901 :   }
; 1902 :   printf("\n");

	push	OFFSET ??_C@_01EEMJAFIK@?6?$AA@
	call	_printf
	add	esp, 4
	pop	edi
	pop	esi
	pop	ebx

; 1903 : }

	pop	ebp
	ret	0
_print_part_list ENDP
_TEXT	ENDS
PUBLIC	_vvcomp
; Function compile flags: /Ogtp
;	COMDAT _vvcomp
_TEXT	SEGMENT
_a$ = 8							; size = 4
_b$ = 12						; size = 4
_vvcomp	PROC						; COMDAT

; 1915 : {

	push	ebp
	mov	ebp, esp

; 1916 :   if ( a->x[0] < b->x[0] ) return -1;

	mov	ecx, DWORD PTR _b$[ebp]
	fld	QWORD PTR [ecx]
	mov	edx, DWORD PTR _a$[ebp]
	fcomp	QWORD PTR [edx]
	fnstsw	ax
	test	ah, 65					; 00000041H
	jne	SHORT $LN4@vvcomp
$LN7@vvcomp:
	or	eax, -1

; 1921 : } // end int vvcomp()

	pop	ebp
	ret	0
$LN4@vvcomp:

; 1917 :   if ( a->x[0] > b->x[0] ) return  1;

	fld	QWORD PTR [ecx]
	fcomp	QWORD PTR [edx]
	fnstsw	ax
	test	ah, 5
	jp	SHORT $LN3@vvcomp
$LN8@vvcomp:
	mov	eax, 1

; 1921 : } // end int vvcomp()

	pop	ebp
	ret	0
$LN3@vvcomp:

; 1918 :   if ( a->x[1] < b->x[1] ) return -1;

	fld	QWORD PTR [ecx+8]
	fcomp	QWORD PTR [edx+8]
	fnstsw	ax
	test	ah, 65					; 00000041H
	je	SHORT $LN7@vvcomp

; 1919 :   if ( a->x[1] > b->x[1] ) return  1;

	fld	QWORD PTR [ecx+8]
	fcomp	QWORD PTR [edx+8]
	fnstsw	ax
	test	ah, 5
	jnp	SHORT $LN8@vvcomp

; 1920 :   return 0;

	xor	eax, eax

; 1921 : } // end int vvcomp()

	pop	ebp
	ret	0
_vvcomp	ENDP
_TEXT	ENDS
PUBLIC	_vecomp
; Function compile flags: /Ogtp
;	COMDAT _vecomp
_TEXT	SEGMENT
_a$ = 8							; size = 4
_b$ = 12						; size = 4
_vecomp	PROC						; COMDAT

; 1934 : {

	push	ebp
	mov	ebp, esp

; 1935 :   if ( a[0]->v[0] < b[0]->v[0] ) return -1;

	mov	eax, DWORD PTR _a$[ebp]
	mov	ecx, DWORD PTR _b$[ebp]
	mov	eax, DWORD PTR [eax]
	mov	ecx, DWORD PTR [ecx]
	mov	edx, DWORD PTR [eax]
	push	esi
	mov	esi, DWORD PTR [ecx]
	cmp	edx, esi
	jae	SHORT $LN7@vecomp
$LN9@vecomp:
	or	eax, -1
	pop	esi

; 1939 :   return 0;
; 1940 : } // end int vecomp()

	pop	ebp
	ret	0
$LN7@vecomp:

; 1936 :   if ( a[0]->v[0] > b[0]->v[0] ) return  1;

	jbe	SHORT $LN3@vecomp
	mov	eax, 1
	pop	esi

; 1939 :   return 0;
; 1940 : } // end int vecomp()

	pop	ebp
	ret	0
$LN3@vecomp:

; 1937 :   if ( a[0]->v[1] < b[0]->v[1] ) return -1;

	mov	eax, DWORD PTR [eax+4]
	mov	ecx, DWORD PTR [ecx+4]
	cmp	ecx, eax
	ja	SHORT $LN9@vecomp

; 1938 :   if ( a[0]->v[1] > b[0]->v[1] ) return  1;

	sbb	eax, eax
	neg	eax
	pop	esi

; 1939 :   return 0;
; 1940 : } // end int vecomp()

	pop	ebp
	ret	0
_vecomp	ENDP
_TEXT	ENDS
PUBLIC	__real@3d06849b86a12b9b
PUBLIC	_visibility_lists
;	COMDAT __real@3d06849b86a12b9b
CONST	SEGMENT
__real@3d06849b86a12b9b DQ 03d06849b86a12b9br	; 1e-014
; Function compile flags: /Ogtp
CONST	ENDS
;	COMDAT _visibility_lists
_TEXT	SEGMENT
_k$ = -32						; size = 4
_rights$ = -28						; size = 4
_lefts$ = -24						; size = 4
_bottoms$ = -20						; size = 4
_tops$ = -16						; size = 4
tv1147 = -12						; size = 4
_t$ = -8						; size = 4
_vv$ = -4						; size = 4
_visibility_lists PROC					; COMDAT

; 1950 : { int tops,bottoms,lefts,rights;

	push	ebp
	mov	ebp, esp
	sub	esp, 32					; 00000020H

; 1951 :   struct vis_vertex *vv;
; 1952 :   struct vis_rawedge *ve;
; 1953 :   struct tsort *t;
; 1954 :   int i,ii,iii;
; 1955 :   size_t k;
; 1956 : 
; 1957 :   /* Populate raw edge and vertex lists */
; 1958 :   vis_vertex_max = 3*vis_count;

	mov	eax, DWORD PTR _vis_count
	push	ebx
	push	esi

; 1959 :   vis_vertices = (struct vis_vertex *)temp_calloc(vis_vertex_max,
; 1960 :                                               sizeof(struct vis_vertex));

	push	1960					; 000007a8H
	push	OFFSET ??_C@_09MBOBPMLK@PAINTER?4C?$AA@
	lea	eax, DWORD PTR [eax+eax*2]
	push	32					; 00000020H
	push	eax
	mov	DWORD PTR _vis_vertex_max, eax
	call	_kb_temp_calloc

; 1961 :   vv = vis_vertices;

	mov	esi, eax

; 1962 :   vis_vertex_count = 0;
; 1963 :   
; 1964 :   vis_rawedges = (struct vis_rawedge *)temp_calloc(3*vis_count,
; 1965 :                                               sizeof(struct vis_rawedge));

	push	1965					; 000007adH
	mov	DWORD PTR _vis_vertices, eax
	mov	eax, DWORD PTR _vis_count
	push	OFFSET ??_C@_09MBOBPMLK@PAINTER?4C?$AA@
	lea	eax, DWORD PTR [eax+eax*2]
	push	20					; 00000014H
	xor	ebx, ebx
	push	eax
	mov	DWORD PTR _vv$[ebp], esi
	mov	DWORD PTR _vis_vertex_count, ebx
	call	_kb_temp_calloc

; 1966 :   ve = vis_rawedges;
; 1967 :   vecount = 0;
; 1968 : 
; 1969 :   for ( k = 0, t = vis_list ; k < vis_count ; k++,t++ )

	mov	edx, DWORD PTR _vis_list
	add	esp, 32					; 00000020H
	mov	DWORD PTR _vis_rawedges, eax
	mov	ecx, eax
	mov	DWORD PTR _vecount, ebx
	mov	DWORD PTR _k$[ebp], ebx
	mov	DWORD PTR _t$[ebp], edx
	cmp	DWORD PTR _vis_count, ebx
	jbe	$LN21@visibility@2
	fld	QWORD PTR __real@46293e5939a08cea
	push	edi
	fld	QWORD PTR __real@c6293e5939a08cea
	fld	QWORD PTR __real@3d06849b86a12b9b
$LN23@visibility@2:

; 1970 :   { if ( (t->flag & 0xF) == FACET )

	mov	edi, DWORD PTR [edx+28]
	mov	eax, edi
	and	al, 15					; 0000000fH
	cmp	al, 2
	jne	SHORT $LN20@visibility@2

; 1971 :     {
; 1972 :       REAL minu = 1e30, maxu = -1e30;
; 1973 : 
; 1974 :       if ( t->color == CLEAR )

	cmp	DWORD PTR [edx+4], -1
	fld	ST(2)
	fld	ST(2)
	jne	SHORT $LN19@visibility@2
	fstp	ST(0)
	fstp	ST(0)
$LN20@visibility@2:

; 1975 :       { t->flag |= VISIBLE; continue; }  /* kludge for now */

	or	edi, 16384				; 00004000H
	mov	DWORD PTR [edx+28], edi
	jmp	$LN22@visibility@2
$LN19@visibility@2:

; 1976 : 
; 1977 :       /* rotate coordinates for general position and get x bounding box */
; 1978 : 
; 1979 :       for ( i = 0 ; i < FACET_VERTS ; i++ )
; 1980 :       { 
; 1981 :         vv[i].x[0] = vis_va*t->x[i][0] + vis_vb*t->x[i][1];

	fld	DWORD PTR [edx+36]
	fmul	QWORD PTR _vis_vb
	fld	DWORD PTR [edx+32]
	fmul	QWORD PTR _vis_va
	faddp	ST(1), ST(0)
	fstp	QWORD PTR [esi]

; 1982 :         vv[i].x[1] = -vis_vb*t->x[i][0] + vis_va*t->x[i][1];

	fld	DWORD PTR [edx+36]
	fmul	QWORD PTR _vis_va
	fld	DWORD PTR [edx+32]
	fmul	QWORD PTR _vis_vb
	fsubp	ST(1), ST(0)
	fstp	QWORD PTR [esi+8]

; 1983 :         if ( vv[i].x[0] < minu ) minu = vv[i].x[0];

	fxch	ST(4)
	fcom	QWORD PTR [esi]
	fnstsw	ax
