; Listing generated by Microsoft (R) Optimizing Compiler Version 16.00.40219.01 

	TITLE	C:\levolver\yonkang-sefit\levolver\ev_ogl\POPFILM.C
	.686P
	.XMM
	include listing.inc
	.model	flat

INCLUDELIB LIBCMT
INCLUDELIB OLDNAMES

_DATA	SEGMENT
COMM	_new_displacement:QWORD:06H
_DATA	ENDS
PUBLIC	_set_attr
EXTRN	_web:BYTE
; Function compile flags: /Ogtp
; File c:\levolver\yonkang-sefit\levolver\ev_ogl\inline.h
;	COMDAT _set_attr
_TEXT	SEGMENT
_id$ = 8						; size = 4
_attrib$ = 12						; size = 8
_set_attr PROC						; COMDAT

; 21   : {

	push	ebp
	mov	ebp, esp

; 22   :   elptr(id)->attr |= attrib;

	mov	eax, DWORD PTR _id$[ebp]
	mov	ecx, eax
	shr	ecx, 29					; 0000001dH
	imul	ecx, 112				; 00000070H
	mov	edx, DWORD PTR _web[ecx+12]
	mov	ecx, DWORD PTR _attrib$[ebp]
	and	eax, 134217727				; 07ffffffH
	mov	eax, DWORD PTR [edx+eax*4]
	mov	edx, DWORD PTR _attrib$[ebp+4]
	or	DWORD PTR [eax+8], ecx
	or	DWORD PTR [eax+12], edx

; 23   : }

	pop	ebp
	ret	0
_set_attr ENDP
_TEXT	ENDS
PUBLIC	_unset_attr
; Function compile flags: /Ogtp
;	COMDAT _unset_attr
_TEXT	SEGMENT
_id$ = 8						; size = 4
_attrib$ = 12						; size = 8
_unset_attr PROC					; COMDAT

; 28   : {

	push	ebp
	mov	ebp, esp

; 29   :   elptr(id)->attr &= ~attrib;

	mov	eax, DWORD PTR _id$[ebp]
	mov	ecx, eax
	shr	ecx, 29					; 0000001dH
	imul	ecx, 112				; 00000070H
	mov	edx, DWORD PTR _web[ecx+12]
	mov	ecx, DWORD PTR _attrib$[ebp]
	and	eax, 134217727				; 07ffffffH
	mov	eax, DWORD PTR [edx+eax*4]
	mov	edx, DWORD PTR _attrib$[ebp+4]
	not	ecx
	and	DWORD PTR [eax+8], ecx
	not	edx
	and	DWORD PTR [eax+12], edx

; 30   : }

	pop	ebp
	ret	0
_unset_attr ENDP
_TEXT	ENDS
PUBLIC	_set_fe_edge
EXTRN	_top_timestamp:DWORD
EXTRN	_global_timestamp:DWORD
; Function compile flags: /Ogtp
;	COMDAT _set_fe_edge
_TEXT	SEGMENT
_fe_id$ = 8						; size = 4
_e_id$ = 12						; size = 4
_set_fe_edge PROC					; COMDAT

; 35   : {

	push	ebp
	mov	ebp, esp

; 36   :   if ( inverted(fe_id) ) invert(e_id);

	mov	eax, DWORD PTR _fe_id$[ebp]
	test	eax, 134217728				; 08000000H
	je	SHORT $LN1@set_fe_edg
	xor	DWORD PTR _e_id$[ebp], 134217728	; 08000000H
$LN1@set_fe_edg:

; 37   :   feptr(fe_id)->fe_edge_id = e_id;

	mov	ecx, DWORD PTR _web+460
	and	eax, 134217727				; 07ffffffH
	mov	edx, DWORD PTR [ecx+eax*4]
	mov	eax, DWORD PTR _e_id$[ebp]
	mov	DWORD PTR [edx+20], eax

; 38   :   top_timestamp = ++global_timestamp;

	mov	eax, DWORD PTR _global_timestamp
	inc	eax
	mov	DWORD PTR _global_timestamp, eax
	mov	DWORD PTR _top_timestamp, eax

; 39   : }

	pop	ebp
	ret	0
_set_fe_edge ENDP
_TEXT	ENDS
PUBLIC	_get_fe_edge
; Function compile flags: /Ogtp
;	COMDAT _get_fe_edge
_TEXT	SEGMENT
_fe_id$ = 8						; size = 4
_get_fe_edge PROC					; COMDAT

; 43   : {

	push	ebp
	mov	ebp, esp

; 44   :   edge_id e_id;
; 45   :     
; 46   :   e_id = feptr(fe_id)->fe_edge_id;

	mov	eax, DWORD PTR _fe_id$[ebp]

; 47   : 
; 48   :   /*
; 49   :   if ( inverted(fe_id) ) invert(e_id);
; 50   :   return e_id;
; 51   :   */
; 52   :   
; 53   :   return same_sign(e_id,fe_id);

	mov	edx, DWORD PTR _web+460
	mov	ecx, eax
	and	ecx, 134217727				; 07ffffffH
	mov	ecx, DWORD PTR [edx+ecx*4]
	and	eax, 134217728				; 08000000H
	xor	eax, DWORD PTR [ecx+20]

; 54   : }

	pop	ebp
	ret	0
_get_fe_edge ENDP
_TEXT	ENDS
PUBLIC	_get_fe_facet
EXTRN	_NULLFACET:DWORD
; Function compile flags: /Ogtp
;	COMDAT _get_fe_facet
_TEXT	SEGMENT
_fe_id$ = 8						; size = 4
_get_fe_facet PROC					; COMDAT

; 58   : {

	push	ebp
	mov	ebp, esp

; 59   :   facet_id f_id;
; 60   :   
; 61   :   if ( !valid_id(fe_id) ) return NULLFACET;

	mov	ecx, DWORD PTR _fe_id$[ebp]
	test	ecx, 268435456				; 10000000H
	jne	SHORT $LN2@get_fe_fac
	mov	eax, DWORD PTR _NULLFACET

; 64   :   return f_id;
; 65   : }

	pop	ebp
	ret	0
$LN2@get_fe_fac:

; 62   :   f_id = feptr(fe_id)->fe_facet_id;

	mov	edx, DWORD PTR _web+460
	mov	eax, ecx
	and	eax, 134217727				; 07ffffffH
	mov	eax, DWORD PTR [edx+eax*4]
	mov	eax, DWORD PTR [eax+24]

; 63   :   if ( inverted(fe_id) ) invert(f_id);

	test	ecx, 134217728				; 08000000H
	je	SHORT $LN3@get_fe_fac
	xor	eax, 134217728				; 08000000H
$LN3@get_fe_fac:

; 64   :   return f_id;
; 65   : }

	pop	ebp
	ret	0
_get_fe_facet ENDP
_TEXT	ENDS
PUBLIC	_get_prev_edge
; Function compile flags: /Ogtp
;	COMDAT _get_prev_edge
_TEXT	SEGMENT
_fe_id$ = 8						; size = 4
_get_prev_edge PROC					; COMDAT

; 69   : {

	push	ebp
	mov	ebp, esp

; 70   :   if ( inverted(fe_id) ) return inverse_id(feptr(fe_id)->nextedge[1]);

	mov	eax, DWORD PTR _fe_id$[ebp]
	mov	ecx, DWORD PTR _web+460
	test	eax, 134217728				; 08000000H
	je	SHORT $LN2@get_prev_e
	and	eax, 134217727				; 07ffffffH
	mov	edx, DWORD PTR [ecx+eax*4]
	mov	eax, DWORD PTR [edx+32]
	xor	eax, 134217728				; 08000000H

; 72   : }

	pop	ebp
	ret	0
$LN2@get_prev_e:

; 71   :   else return feptr(fe_id)->nextedge[0];

	and	eax, 134217727				; 07ffffffH
	mov	edx, DWORD PTR [ecx+eax*4]
	mov	eax, DWORD PTR [edx+28]

; 72   : }

	pop	ebp
	ret	0
_get_prev_edge ENDP
_TEXT	ENDS
PUBLIC	_get_next_edge
; Function compile flags: /Ogtp
;	COMDAT _get_next_edge
_TEXT	SEGMENT
_fe_id$ = 8						; size = 4
_get_next_edge PROC					; COMDAT

; 76   : {

	push	ebp
	mov	ebp, esp

; 77   :   if ( inverted(fe_id) ) return inverse_id(feptr(fe_id)->nextedge[0]);

	mov	eax, DWORD PTR _fe_id$[ebp]
	mov	ecx, DWORD PTR _web+460
	test	eax, 134217728				; 08000000H
	je	SHORT $LN2@get_next_e
	and	eax, 134217727				; 07ffffffH
	mov	edx, DWORD PTR [ecx+eax*4]
	mov	eax, DWORD PTR [edx+28]
	xor	eax, 134217728				; 08000000H

; 79   : }

	pop	ebp
	ret	0
$LN2@get_next_e:

; 78   :   else return feptr(fe_id)->nextedge[1];

	and	eax, 134217727				; 07ffffffH
	mov	edx, DWORD PTR [ecx+eax*4]
	mov	eax, DWORD PTR [edx+32]

; 79   : }

	pop	ebp
	ret	0
_get_next_edge ENDP
_TEXT	ENDS
PUBLIC	_get_prev_facet
; Function compile flags: /Ogtp
;	COMDAT _get_prev_facet
_TEXT	SEGMENT
_fe_id$ = 8						; size = 4
_get_prev_facet PROC					; COMDAT

; 83   : {

	push	ebp
	mov	ebp, esp

; 84   :   if ( inverted(fe_id) ) 

	mov	eax, DWORD PTR _fe_id$[ebp]

; 85   :     return inverse_id(feptr(fe_id)->nextfacet[1]);

	mov	ecx, DWORD PTR _web+460
	test	eax, 134217728				; 08000000H
	je	SHORT $LN2@get_prev_f
	and	eax, 134217727				; 07ffffffH
	mov	edx, DWORD PTR [ecx+eax*4]
	mov	eax, DWORD PTR [edx+40]
	xor	eax, 134217728				; 08000000H

; 88   : }

	pop	ebp
	ret	0
$LN2@get_prev_f:

; 86   :   else 
; 87   :     return feptr(fe_id)->nextfacet[0];

	and	eax, 134217727				; 07ffffffH
	mov	edx, DWORD PTR [ecx+eax*4]
	mov	eax, DWORD PTR [edx+36]

; 88   : }

	pop	ebp
	ret	0
_get_prev_facet ENDP
_TEXT	ENDS
PUBLIC	_get_next_facet
; Function compile flags: /Ogtp
;	COMDAT _get_next_facet
_TEXT	SEGMENT
_fe_id$ = 8						; size = 4
_get_next_facet PROC					; COMDAT

; 92   : {

	push	ebp
	mov	ebp, esp

; 93   :   if ( inverted(fe_id) ) 

	mov	eax, DWORD PTR _fe_id$[ebp]

; 94   :     return inverse_id(feptr(fe_id)->nextfacet[0]);

	mov	ecx, DWORD PTR _web+460
	test	eax, 134217728				; 08000000H
	je	SHORT $LN2@get_next_f
	and	eax, 134217727				; 07ffffffH
	mov	edx, DWORD PTR [ecx+eax*4]
	mov	eax, DWORD PTR [edx+36]
	xor	eax, 134217728				; 08000000H

; 97   : }

	pop	ebp
	ret	0
$LN2@get_next_f:

; 95   :   else 
; 96   :     return feptr(fe_id)->nextfacet[1];

	and	eax, 134217727				; 07ffffffH
	mov	edx, DWORD PTR [ecx+eax*4]
	mov	eax, DWORD PTR [edx+40]

; 97   : }

	pop	ebp
	ret	0
_get_next_facet ENDP
_TEXT	ENDS
PUBLIC	_set_prev_edge
; Function compile flags: /Ogtp
;	COMDAT _set_prev_edge
_TEXT	SEGMENT
_fe_id$ = 8						; size = 4
_fe$ = 12						; size = 4
_set_prev_edge PROC					; COMDAT

; 102  : {

	push	ebp
	mov	ebp, esp

; 103  :   if ( !valid_id(fe_id) ) return;

	mov	eax, DWORD PTR _fe_id$[ebp]
	test	eax, 268435456				; 10000000H
	je	SHORT $LN4@set_prev_e

; 104  :   if ( inverted(fe_id) )

	test	eax, 134217728				; 08000000H
	je	SHORT $LN2@set_prev_e

; 105  :     { invert(fe);
; 106  :       feptr(fe_id)->nextedge[1] = fe;

	mov	edx, DWORD PTR _web+460
	mov	ecx, DWORD PTR _fe$[ebp]
	and	eax, 134217727				; 07ffffffH
	mov	eax, DWORD PTR [edx+eax*4]
	xor	ecx, 134217728				; 08000000H
	mov	DWORD PTR [eax+32], ecx

; 110  :   top_timestamp = ++global_timestamp;

	mov	eax, DWORD PTR _global_timestamp
	inc	eax
	mov	DWORD PTR _global_timestamp, eax
	mov	DWORD PTR _top_timestamp, eax

; 111  : }

	pop	ebp
	ret	0
$LN2@set_prev_e:

; 107  :     }
; 108  :   else
; 109  :       feptr(fe_id)->nextedge[0] = fe;

	mov	ecx, DWORD PTR _web+460
	and	eax, 134217727				; 07ffffffH
	mov	edx, DWORD PTR [ecx+eax*4]
	mov	eax, DWORD PTR _fe$[ebp]
	mov	DWORD PTR [edx+28], eax

; 110  :   top_timestamp = ++global_timestamp;

	mov	eax, DWORD PTR _global_timestamp
	inc	eax
	mov	DWORD PTR _global_timestamp, eax
	mov	DWORD PTR _top_timestamp, eax
$LN4@set_prev_e:

; 111  : }

	pop	ebp
	ret	0
_set_prev_edge ENDP
_TEXT	ENDS
PUBLIC	_set_next_edge
; Function compile flags: /Ogtp
;	COMDAT _set_next_edge
_TEXT	SEGMENT
_fe_id$ = 8						; size = 4
_fe$ = 12						; size = 4
_set_next_edge PROC					; COMDAT

; 116  : {

	push	ebp
	mov	ebp, esp

; 117  :   if ( !valid_id(fe_id) ) return;

	mov	eax, DWORD PTR _fe_id$[ebp]
	test	eax, 268435456				; 10000000H
	je	SHORT $LN1@set_next_e

; 118  :   if ( inverted(fe_id) )

	test	eax, 134217728				; 08000000H
	je	SHORT $LN2@set_next_e

; 119  :     { invert(fe);

	mov	ecx, DWORD PTR _fe$[ebp]

; 120  :       feptr(fe_id)->nextedge[0] = fe;

	mov	edx, DWORD PTR _web+460
	xor	ecx, 134217728				; 08000000H
	and	eax, 134217727				; 07ffffffH
	mov	eax, DWORD PTR [edx+eax*4]
	mov	DWORD PTR [eax+28], ecx

; 124  : }

	pop	ebp
	ret	0
$LN2@set_next_e:

; 121  :     }
; 122  :   else
; 123  :       feptr(fe_id)->nextedge[1] = fe;

	mov	ecx, DWORD PTR _web+460
	and	eax, 134217727				; 07ffffffH
	mov	edx, DWORD PTR [ecx+eax*4]
	mov	eax, DWORD PTR _fe$[ebp]
	mov	DWORD PTR [edx+32], eax
$LN1@set_next_e:

; 124  : }

	pop	ebp
	ret	0
_set_next_edge ENDP
_TEXT	ENDS
PUBLIC	_set_prev_facet
; Function compile flags: /Ogtp
;	COMDAT _set_prev_facet
_TEXT	SEGMENT
_fe_id$ = 8						; size = 4
_fe$ = 12						; size = 4
_set_prev_facet PROC					; COMDAT

; 129  : {

	push	ebp
	mov	ebp, esp

; 130  :   if ( !valid_id(fe_id) ) return;

	mov	eax, DWORD PTR _fe_id$[ebp]
	test	eax, 268435456				; 10000000H
	je	SHORT $LN4@set_prev_f

; 131  :   if ( inverted(fe_id) )

	test	eax, 134217728				; 08000000H
	je	SHORT $LN2@set_prev_f

; 132  :   { invert(fe);
; 133  :     feptr(fe_id)->nextfacet[1] = fe;

	mov	edx, DWORD PTR _web+460
	mov	ecx, DWORD PTR _fe$[ebp]
	and	eax, 134217727				; 07ffffffH
	mov	eax, DWORD PTR [edx+eax*4]
	xor	ecx, 134217728				; 08000000H
	mov	DWORD PTR [eax+40], ecx

; 137  :   top_timestamp = ++global_timestamp;

	mov	eax, DWORD PTR _global_timestamp
	inc	eax
	mov	DWORD PTR _global_timestamp, eax
	mov	DWORD PTR _top_timestamp, eax

; 138  : }

	pop	ebp
	ret	0
$LN2@set_prev_f:

; 134  :   }
; 135  :   else
; 136  :     feptr(fe_id)->nextfacet[0] = fe;

	mov	ecx, DWORD PTR _web+460
	and	eax, 134217727				; 07ffffffH
	mov	edx, DWORD PTR [ecx+eax*4]
	mov	eax, DWORD PTR _fe$[ebp]
	mov	DWORD PTR [edx+36], eax

; 137  :   top_timestamp = ++global_timestamp;

	mov	eax, DWORD PTR _global_timestamp
	inc	eax
	mov	DWORD PTR _global_timestamp, eax
	mov	DWORD PTR _top_timestamp, eax
$LN4@set_prev_f:

; 138  : }

	pop	ebp
	ret	0
_set_prev_facet ENDP
_TEXT	ENDS
PUBLIC	_set_next_facet
; Function compile flags: /Ogtp
;	COMDAT _set_next_facet
_TEXT	SEGMENT
_fe_id$ = 8						; size = 4
_fe$ = 12						; size = 4
_set_next_facet PROC					; COMDAT

; 143  : {

	push	ebp
	mov	ebp, esp

; 144  :   if ( !valid_id(fe_id) ) return;

	mov	eax, DWORD PTR _fe_id$[ebp]
	test	eax, 268435456				; 10000000H
	je	SHORT $LN1@set_next_f

; 145  :   if ( inverted(fe_id) )

	test	eax, 134217728				; 08000000H
	je	SHORT $LN2@set_next_f

; 146  :   { invert(fe);

	mov	ecx, DWORD PTR _fe$[ebp]

; 147  :     feptr(fe_id)->nextfacet[0] = fe;

	mov	edx, DWORD PTR _web+460
	xor	ecx, 134217728				; 08000000H
	and	eax, 134217727				; 07ffffffH
	mov	eax, DWORD PTR [edx+eax*4]
	mov	DWORD PTR [eax+36], ecx

; 151  : }

	pop	ebp
	ret	0
$LN2@set_next_f:

; 148  :   }
; 149  :   else
; 150  :     feptr(fe_id)->nextfacet[1] = fe;

	mov	ecx, DWORD PTR _web+460
	and	eax, 134217727				; 07ffffffH
	mov	edx, DWORD PTR [ecx+eax*4]
	mov	eax, DWORD PTR _fe$[ebp]
	mov	DWORD PTR [edx+40], eax
$LN1@set_next_f:

; 151  : }

	pop	ebp
	ret	0
_set_next_facet ENDP
_TEXT	ENDS
PUBLIC	_set_edge_wrap
EXTRN	_dymem:DWORD
EXTRN	_sym_inverse:DWORD
; Function compile flags: /Ogtp
;	COMDAT _set_edge_wrap
_TEXT	SEGMENT
_e_id$ = 8						; size = 4
_wrap$ = 12						; size = 4
_set_edge_wrap PROC					; COMDAT

; 157  : {

	push	ebp
	mov	ebp, esp

; 158  :  *EINT(e_id,E_WRAP_ATTR) =  inverted(e_id)  ? (*sym_inverse)(wrap) : wrap ;

	mov	eax, DWORD PTR _wrap$[ebp]
	push	esi
	mov	esi, DWORD PTR _e_id$[ebp]
	test	esi, 134217728				; 08000000H
	je	SHORT $LN4@set_edge_w
	push	eax
	call	DWORD PTR _sym_inverse
	add	esp, 4
$LN4@set_edge_w:
	mov	ecx, DWORD PTR _web+124
	and	esi, 134217727				; 07ffffffH
	mov	edx, DWORD PTR [ecx+esi*4]
	mov	esi, DWORD PTR _dymem
	mov	ecx, DWORD PTR _web+216
	mov	ecx, DWORD PTR [ecx+esi+784]
	mov	DWORD PTR [edx+ecx], eax
	pop	esi

; 159  : }

	pop	ebp
	ret	0
_set_edge_wrap ENDP
_TEXT	ENDS
PUBLIC	_get_edge_wrap
; Function compile flags: /Ogtp
;	COMDAT _get_edge_wrap
_TEXT	SEGMENT
_e_id$ = 8						; size = 4
_get_edge_wrap PROC					; COMDAT

; 163  : {

	push	ebp
	mov	ebp, esp

; 164  :   WRAPTYPE wrap = *EINT(e_id,E_WRAP_ATTR) ;

	mov	ecx, DWORD PTR _e_id$[ebp]
	mov	edx, DWORD PTR _web+124
	mov	eax, ecx
	and	eax, 134217727				; 07ffffffH
	mov	eax, DWORD PTR [edx+eax*4]
	mov	edx, DWORD PTR _web+216
	push	esi
	mov	esi, DWORD PTR _dymem
	mov	edx, DWORD PTR [edx+esi+784]
	mov	eax, DWORD PTR [eax+edx]
	pop	esi

; 165  :   return    ( inverted(e_id) ? (*sym_inverse)(wrap) : wrap );

	test	ecx, 134217728				; 08000000H
	je	SHORT $LN4@get_edge_w
	push	eax
	call	DWORD PTR _sym_inverse
	add	esp, 4
$LN4@get_edge_w:

; 166  : }

	pop	ebp
	ret	0
_get_edge_wrap ENDP
_TEXT	ENDS
PUBLIC	_set_edge_fe
; Function compile flags: /Ogtp
;	COMDAT _set_edge_fe
_TEXT	SEGMENT
_e_id$ = 8						; size = 4
_fe$ = 12						; size = 4
_set_edge_fe PROC					; COMDAT

; 171  : {

	push	ebp
	mov	ebp, esp

; 172  :   if ( inverted(e_id) ) invert(fe);

	mov	eax, DWORD PTR _e_id$[ebp]
	test	eax, 134217728				; 08000000H
	je	SHORT $LN1@set_edge_f
	xor	DWORD PTR _fe$[ebp], 134217728		; 08000000H
$LN1@set_edge_f:

; 173  :   eptr(e_id)->fe_id = fe;

	mov	ecx, DWORD PTR _web+124
	and	eax, 134217727				; 07ffffffH
	mov	edx, DWORD PTR [ecx+eax*4]
	mov	eax, DWORD PTR _fe$[ebp]
	mov	DWORD PTR [edx+28], eax

; 174  :   top_timestamp = ++global_timestamp;

	mov	eax, DWORD PTR _global_timestamp
	inc	eax
	mov	DWORD PTR _global_timestamp, eax
	mov	DWORD PTR _top_timestamp, eax

; 175  : }

	pop	ebp
	ret	0
_set_edge_fe ENDP
_TEXT	ENDS
PUBLIC	_get_edge_fe
; Function compile flags: /Ogtp
;	COMDAT _get_edge_fe
_TEXT	SEGMENT
_e_id$ = 8						; size = 4
_get_edge_fe PROC					; COMDAT

; 179  : {   struct edge *ep;

	push	ebp
	mov	ebp, esp

; 180  :     facetedge_id fe;
; 181  : 
; 182  :  	ep = eptr(e_id);

	mov	ecx, DWORD PTR _e_id$[ebp]
	mov	edx, DWORD PTR _web+124
	mov	eax, ecx
	and	eax, 134217727				; 07ffffffH
	mov	eax, DWORD PTR [edx+eax*4]

; 183  :     if ( !ep ) return NULLID;

	test	eax, eax
	jne	SHORT $LN2@get_edge_f

; 186  :     return fe;
; 187  : }

	pop	ebp
	ret	0
$LN2@get_edge_f:

; 184  :     fe = ep->fe_id; 

	mov	eax, DWORD PTR [eax+28]

; 185  :     if ( inverted(e_id) ) invert(fe);

	test	ecx, 134217728				; 08000000H
	je	SHORT $LN3@get_edge_f
	xor	eax, 134217728				; 08000000H
$LN3@get_edge_f:

; 186  :     return fe;
; 187  : }

	pop	ebp
	ret	0
_get_edge_fe ENDP
_TEXT	ENDS
PUBLIC	_get_edge_tailv
; Function compile flags: /Ogtp
;	COMDAT _get_edge_tailv
_TEXT	SEGMENT
_e_id$ = 8						; size = 4
_get_edge_tailv PROC					; COMDAT

; 191  : {

	push	ebp
	mov	ebp, esp

; 192  :   if ( inverted(e_id) )

	mov	eax, DWORD PTR _e_id$[ebp]

; 193  :      return get_edge_vertices(e_id)[web.headvnum];

	mov	ecx, DWORD PTR _web+124
	test	eax, 134217728				; 08000000H
	je	SHORT $LN2@get_edge_t
	and	eax, 134217727				; 07ffffffH
	mov	edx, DWORD PTR [ecx+eax*4]
	mov	eax, DWORD PTR _web+216
	mov	ecx, DWORD PTR _dymem
	add	edx, DWORD PTR [eax+ecx+304]
	mov	eax, DWORD PTR _web+636
	mov	eax, DWORD PTR [edx+eax*4]

; 196  : }

	pop	ebp
	ret	0
$LN2@get_edge_t:

; 194  :   else
; 195  :      return get_edge_vertices(e_id)[0];

	and	eax, 134217727				; 07ffffffH
	mov	edx, DWORD PTR [ecx+eax*4]
	mov	eax, DWORD PTR _web+216
	mov	ecx, DWORD PTR _dymem
	mov	eax, DWORD PTR [eax+ecx+304]
	mov	eax, DWORD PTR [edx+eax]

; 196  : }

	pop	ebp
	ret	0
_get_edge_tailv ENDP
_TEXT	ENDS
PUBLIC	_get_edge_headv
; Function compile flags: /Ogtp
;	COMDAT _get_edge_headv
_TEXT	SEGMENT
_e_id$ = 8						; size = 4
_get_edge_headv PROC					; COMDAT

; 200  : {

	push	ebp
	mov	ebp, esp

; 201  :   if ( inverted(e_id) )

	mov	eax, DWORD PTR _e_id$[ebp]

; 202  :      return get_edge_vertices(e_id)[0];

	mov	ecx, DWORD PTR _web+124
	test	eax, 134217728				; 08000000H
	je	SHORT $LN2@get_edge_h
	and	eax, 134217727				; 07ffffffH
	mov	edx, DWORD PTR [ecx+eax*4]
	mov	eax, DWORD PTR _web+216
	mov	ecx, DWORD PTR _dymem
	mov	eax, DWORD PTR [eax+ecx+304]
	mov	eax, DWORD PTR [edx+eax]

; 205  : }

	pop	ebp
	ret	0
$LN2@get_edge_h:

; 203  :   else
; 204  :      return get_edge_vertices(e_id)[web.headvnum];

	and	eax, 134217727				; 07ffffffH
	mov	edx, DWORD PTR [ecx+eax*4]
	mov	eax, DWORD PTR _web+216
	mov	ecx, DWORD PTR _dymem
	add	edx, DWORD PTR [eax+ecx+304]
	mov	eax, DWORD PTR _web+636
	mov	eax, DWORD PTR [edx+eax*4]

; 205  : }

	pop	ebp
	ret	0
_get_edge_headv ENDP
_TEXT	ENDS
PUBLIC	_set_edge_tailv
EXTRN	_insert_vertex_edge:PROC
EXTRN	_remove_vertex_edge:PROC
; Function compile flags: /Ogtp
;	COMDAT _set_edge_tailv
_TEXT	SEGMENT
tv225 = -4						; size = 4
_e_id$ = 8						; size = 4
_v_id$ = 12						; size = 4
_set_edge_tailv PROC					; COMDAT

; 210  : { vertex_id oldv;

	push	ebp
	mov	ebp, esp
	push	ecx

; 211  : 
; 212  :   /* make sure edge not in loop of old vertex */
; 213  :   oldv = get_edge_tailv(e_id);

	mov	edx, DWORD PTR _web+124
	mov	ecx, DWORD PTR _web+216
	push	ebx
	push	esi
	mov	esi, DWORD PTR _e_id$[ebp]
	mov	eax, esi
	shr	eax, 27					; 0000001bH
	and	eax, 1
	push	edi
	mov	edi, DWORD PTR _dymem
	mov	DWORD PTR tv225[ebp], eax
	je	SHORT $LN7@set_edge_t
	mov	ebx, DWORD PTR _web+636
	and	esi, 134217727				; 07ffffffH
	add	esi, esi
	add	esi, esi
	mov	eax, DWORD PTR [esi+edx]
	add	eax, DWORD PTR [ecx+edi+304]
	mov	eax, DWORD PTR [eax+ebx*4]
	jmp	SHORT $LN6@set_edge_t
$LN7@set_edge_t:
	mov	ebx, DWORD PTR [ecx+edi+304]
	and	esi, 134217727				; 07ffffffH
	add	esi, esi
	add	esi, esi
	mov	eax, DWORD PTR [esi+edx]
	mov	eax, DWORD PTR [eax+ebx]
$LN6@set_edge_t:

; 214  :   if ( valid_id(oldv) && !equal_id(oldv,v_id) )

	mov	ebx, DWORD PTR _v_id$[ebp]
	test	eax, 268435456				; 10000000H
	je	SHORT $LN10@set_edge_t
	cmp	eax, ebx
	je	SHORT $LN10@set_edge_t

; 215  :     remove_vertex_edge(oldv,e_id);

	mov	ecx, DWORD PTR _e_id$[ebp]
	push	ecx
	push	eax
	call	_remove_vertex_edge
	mov	ecx, DWORD PTR _web+216
	mov	edx, DWORD PTR _web+124
	mov	edi, DWORD PTR _dymem
	add	esp, 8
$LN10@set_edge_t:

; 216  : 
; 217  :   if ( inverted(e_id) )

	cmp	DWORD PTR tv225[ebp], 0

; 218  :      get_edge_vertices(e_id)[web.headvnum] = v_id;

	mov	edx, DWORD PTR [esi+edx]
	je	SHORT $LN2@set_edge_t
	add	edx, DWORD PTR [ecx+edi+304]
	mov	eax, DWORD PTR _web+636
	mov	DWORD PTR [edx+eax*4], ebx

; 219  :   else

	jmp	SHORT $LN1@set_edge_t
$LN2@set_edge_t:

; 220  :      get_edge_vertices(e_id)[0] = v_id;

	mov	eax, DWORD PTR [ecx+edi+304]
	mov	DWORD PTR [edx+eax], ebx
$LN1@set_edge_t:

; 221  :   insert_vertex_edge(v_id,e_id);

	mov	ecx, DWORD PTR _e_id$[ebp]
	push	ecx
	push	ebx
	call	_insert_vertex_edge

; 222  :   top_timestamp = ++global_timestamp;

	mov	eax, DWORD PTR _global_timestamp
	add	esp, 8
	pop	edi
	inc	eax
	pop	esi
	mov	DWORD PTR _global_timestamp, eax
	mov	DWORD PTR _top_timestamp, eax
	pop	ebx

; 223  : }

	mov	esp, ebp
	pop	ebp
	ret	0
_set_edge_tailv ENDP
_TEXT	ENDS
PUBLIC	_set_edge_headv
; Function compile flags: /Ogtp
;	COMDAT _set_edge_headv
_TEXT	SEGMENT
_e_id$ = 8						; size = 4
_v_id$ = 12						; size = 4
_set_edge_headv PROC					; COMDAT

; 229  : {

	push	ebp
	mov	ebp, esp

; 230  :   if ( inverted(e_id) )

	mov	eax, DWORD PTR _e_id$[ebp]
	push	esi

; 231  :      get_edge_vertices(e_id)[0] = v_id;

	mov	esi, DWORD PTR _dymem
	test	eax, 134217728				; 08000000H
	je	SHORT $LN2@set_edge_h
	mov	edx, DWORD PTR _web+124
	mov	ecx, eax
	and	ecx, 134217727				; 07ffffffH
	mov	edx, DWORD PTR [edx+ecx*4]
	mov	ecx, DWORD PTR _web+216
	mov	esi, DWORD PTR [ecx+esi+304]
	mov	ecx, DWORD PTR _v_id$[ebp]
	mov	DWORD PTR [edx+esi], ecx

; 232  :   else

	jmp	SHORT $LN1@set_edge_h
$LN2@set_edge_h:

; 233  :      get_edge_vertices(e_id)[web.headvnum] = v_id;

	mov	ecx, DWORD PTR _web+124
	mov	edx, eax
	and	edx, 134217727				; 07ffffffH
	mov	edx, DWORD PTR [ecx+edx*4]
	mov	ecx, DWORD PTR _web+216
	add	edx, DWORD PTR [ecx+esi+304]
	mov	ecx, DWORD PTR _v_id$[ebp]
	mov	esi, DWORD PTR _web+636
	mov	DWORD PTR [edx+esi*4], ecx
$LN1@set_edge_h:

; 234  :   insert_vertex_edge(v_id,inverse_id(e_id));

	xor	eax, 134217728				; 08000000H
	push	eax
	push	ecx
	call	_insert_vertex_edge

; 235  :   top_timestamp = ++global_timestamp;

	mov	eax, DWORD PTR _global_timestamp
	add	esp, 8
	inc	eax
	mov	DWORD PTR _global_timestamp, eax
	mov	DWORD PTR _top_timestamp, eax
	pop	esi

; 236  : }

	pop	ebp
	ret	0
_set_edge_headv ENDP
_TEXT	ENDS
PUBLIC	_get_facet_body
; Function compile flags: /Ogtp
;	COMDAT _get_facet_body
_TEXT	SEGMENT
_f_id$ = 8						; size = 4
_get_facet_body PROC					; COMDAT

; 250  : {

	push	ebp
	mov	ebp, esp

; 251  :   if ( web.skel[BODY].count == 0 ) return NULLID;

	cmp	DWORD PTR _web+400, 0
	jne	SHORT $LN4@get_facet_
$LN7@get_facet_:
	xor	eax, eax

; 255  : }

	pop	ebp
	ret	0
$LN4@get_facet_:

; 252  :   if ( !valid_id(f_id) ) return NULLID;

	mov	eax, DWORD PTR _f_id$[ebp]
	test	eax, 268435456				; 10000000H
	je	SHORT $LN7@get_facet_

; 253  :   if ( inverted(f_id) ) return F_ELID(f_id,F_BODY_LIST_ATTR)[1];

	mov	ecx, DWORD PTR _web+236
	test	eax, 134217728				; 08000000H
	je	SHORT $LN2@get_facet_
	and	eax, 134217727				; 07ffffffH
	mov	edx, DWORD PTR [ecx+eax*4]
	mov	eax, DWORD PTR _web+328
	mov	ecx, DWORD PTR _dymem
	mov	eax, DWORD PTR [eax+ecx+784]
	mov	eax, DWORD PTR [edx+eax+4]

; 255  : }

	pop	ebp
	ret	0
$LN2@get_facet_:

; 254  :   else  return F_ELID(f_id,F_BODY_LIST_ATTR)[0];

	and	eax, 134217727				; 07ffffffH
	mov	edx, DWORD PTR [ecx+eax*4]
	mov	eax, DWORD PTR _web+328
	mov	ecx, DWORD PTR _dymem
	mov	eax, DWORD PTR [eax+ecx+784]
	mov	eax, DWORD PTR [edx+eax]

; 255  : }

	pop	ebp
	ret	0
_get_facet_body ENDP
_TEXT	ENDS
PUBLIC	_get_facet_fe
; Function compile flags: /Ogtp
;	COMDAT _get_facet_fe
_TEXT	SEGMENT
_f_id$ = 8						; size = 4
_get_facet_fe PROC					; COMDAT

; 260  : {

	push	ebp
	mov	ebp, esp

; 261  :   facetedge_id fe;
; 262  :   
; 263  :   if ( !valid_id(f_id) ) return NULLID;

	mov	ecx, DWORD PTR _f_id$[ebp]
	test	ecx, 268435456				; 10000000H
	jne	SHORT $LN2@get_facet_@2
	xor	eax, eax

; 266  :   return fe;
; 267  : }

	pop	ebp
	ret	0
$LN2@get_facet_@2:

; 264  :   fe = fptr(f_id)->fe_id;

	mov	edx, DWORD PTR _web+236
	mov	eax, ecx
	and	eax, 134217727				; 07ffffffH
	mov	eax, DWORD PTR [edx+eax*4]
	mov	eax, DWORD PTR [eax+28]

; 265  :   if ( inverted(f_id) ) invert(fe);

	test	ecx, 134217728				; 08000000H
	je	SHORT $LN3@get_facet_@2
	xor	eax, 134217728				; 08000000H
$LN3@get_facet_@2:

; 266  :   return fe;
; 267  : }

	pop	ebp
	ret	0
_get_facet_fe ENDP
_TEXT	ENDS
PUBLIC	_get_next_tail_edge
; Function compile flags: /Ogtp
;	COMDAT _get_next_tail_edge
_TEXT	SEGMENT
_e_id$ = 8						; size = 4
_get_next_tail_edge PROC				; COMDAT

; 270  : { return eptr(e_id)->next_vedge[inverted(e_id) ?1: 0] ; }

	push	ebp
	mov	ebp, esp
	mov	eax, DWORD PTR _e_id$[ebp]
	mov	edx, DWORD PTR _web+124
	mov	ecx, eax
	shr	ecx, 27					; 0000001bH
	and	ecx, 1
	and	eax, 134217727				; 07ffffffH
	mov	eax, DWORD PTR [edx+eax*4]
	mov	eax, DWORD PTR [eax+ecx*4+32]
	pop	ebp
	ret	0
_get_next_tail_edge ENDP
_TEXT	ENDS
PUBLIC	_get_next_head_edge
; Function compile flags: /Ogtp
;	COMDAT _get_next_head_edge
_TEXT	SEGMENT
_e_id$ = 8						; size = 4
_get_next_head_edge PROC				; COMDAT

; 273  : { return inverse_id(eptr(e_id)->next_vedge[inverted(e_id) ?0: 1]); }

	push	ebp
	mov	ebp, esp
	mov	eax, DWORD PTR _e_id$[ebp]
	mov	edx, DWORD PTR _web+124
	mov	ecx, eax
	shr	ecx, 27					; 0000001bH
	and	eax, 134217727				; 07ffffffH
	mov	eax, DWORD PTR [edx+eax*4]
	not	ecx
	and	ecx, 1
	mov	eax, DWORD PTR [eax+ecx*4+32]
	xor	eax, 134217728				; 08000000H
	pop	ebp
	ret	0
_get_next_head_edge ENDP
_TEXT	ENDS
PUBLIC	_get_extra
; Function compile flags: /Ogtp
;	COMDAT _get_extra
_TEXT	SEGMENT
_id$ = 8						; size = 4
_n$ = 12						; size = 4
_get_extra PROC						; COMDAT

; 348  : { int type = id_type(id);

	push	ebp
	mov	ebp, esp

; 349  : 
; 350  :   return ( (char*)elptr(id) + EXTRAS(type)[n].offset);

	mov	ecx, DWORD PTR _id$[ebp]
	mov	eax, ecx
	push	esi
	mov	esi, DWORD PTR _n$[ebp]
	shr	eax, 29					; 0000001dH
	imul	esi, 240				; 000000f0H
	imul	eax, 112				; 00000070H
	mov	edx, DWORD PTR _web[eax+12]
	push	edi
	mov	edi, DWORD PTR _web[eax+104]
	and	ecx, 134217727				; 07ffffffH
	mov	eax, DWORD PTR [edx+ecx*4]
	mov	ecx, DWORD PTR _dymem
	add	edi, esi
	add	eax, DWORD PTR [edi+ecx+64]
	pop	edi
	pop	esi

; 351  : }

	pop	ebp
	ret	0
_get_extra ENDP
; Function compile flags: /Ogtp
; File c:\levolver\yonkang-sefit\levolver\ev_ogl\popfilm.c
_TEXT	ENDS
;	COMDAT _vfcomp
_TEXT	SEGMENT
_a$ = 8							; size = 4
_b$ = 12						; size = 4
_vfcomp	PROC						; COMDAT

; 32   : {

	push	ebp
	mov	ebp, esp

; 33   :   if ( a->v_id < b->v_id ) return -1;

	mov	eax, DWORD PTR _a$[ebp]
	mov	ecx, DWORD PTR _b$[ebp]
	mov	eax, DWORD PTR [eax]
	mov	ecx, DWORD PTR [ecx]
	cmp	ecx, eax
	jbe	SHORT $LN5@vfcomp
	or	eax, -1

; 35   :   return 0;
; 36   : } // end vfcomp()

	pop	ebp
	ret	0
$LN5@vfcomp:

; 34   :   if ( a->v_id > b->v_id ) return 1;

	sbb	eax, eax
	neg	eax

; 35   :   return 0;
; 36   : } // end vfcomp()

	pop	ebp
	ret	0
_vfcomp	ENDP
_TEXT	ENDS
PUBLIC	_vertex_degfree
EXTRN	_nullcon:QWORD
EXTRN	_V_BOUNDARY_ATTR:DWORD
; Function compile flags: /Ogtp
;	COMDAT _vertex_degfree
_TEXT	SEGMENT
_vattr$ = -8						; size = 8
_degfree$ = 8						; size = 4
_v_id$ = 8						; size = 4
_vertex_degfree PROC					; COMDAT

; 90   : { int degfree;

	push	ebp
	mov	ebp, esp
	sub	esp, 8

; 91   :   ATTR vattr = get_vattr(v_id);

	mov	edx, DWORD PTR _v_id$[ebp]
	mov	eax, DWORD PTR _web+12
	and	edx, 134217727				; 07ffffffH
	push	ebx
	add	edx, edx
	push	esi
	add	edx, edx
	push	edi
	mov	edi, DWORD PTR [edx+eax]
	mov	ecx, DWORD PTR [edi+12]
	mov	esi, DWORD PTR [edi+8]

; 92   :   struct boundary *vbdry;
; 93   :   conmap_t *vmap;
; 94   :   int i;
; 95   : 
; 96   :   /* Get degrees of freedom of vertex */
; 97   :   degfree = SDIM;

	mov	eax, DWORD PTR _web+616
	mov	DWORD PTR _vattr$[ebp+4], ecx

; 98   :   if ( vattr & FIXED ) degfree = 0;

	mov	ecx, esi
	and	ecx, 64					; 00000040H
	xor	ebx, ebx
	or	ecx, ebx
	mov	DWORD PTR _degfree$[ebp], eax
	je	SHORT $LN10@vertex_deg
	pop	edi
	pop	esi
	xor	eax, eax
	pop	ebx

; 112  : } // end vertex_degfree()

	mov	esp, ebp
	pop	ebp
	ret	0
$LN10@vertex_deg:

; 99   :   else if ( vattr & BOUNDARY )

	mov	ecx, esi
	and	ecx, 128				; 00000080H
	xor	ebx, ebx
	or	ecx, ebx
	je	SHORT $LN8@vertex_deg

; 100  :   { vbdry = get_boundary(v_id);

	mov	ecx, DWORD PTR _V_BOUNDARY_ATTR
	test	ecx, ecx
	je	SHORT $LN13@vertex_deg
	mov	edx, DWORD PTR _dymem
	imul	ecx, 240				; 000000f0H
	add	ecx, DWORD PTR _web+104
	mov	ecx, DWORD PTR [ecx+edx+64]
	mov	edx, DWORD PTR [ecx+edi]
	imul	edx, 136				; 00000088H
	add	edx, DWORD PTR _web+776
	jmp	SHORT $LN14@vertex_deg
$LN13@vertex_deg:
	xor	edx, edx
$LN14@vertex_deg:

; 101  :     if ( (vbdry->attr & NONWALL) )

	mov	ecx, DWORD PTR [edx+32]
	and	ecx, 1024				; 00000400H
	xor	esi, esi
	or	ecx, esi
	je	$LN2@vertex_deg

; 109  :   }
; 110  :  
; 111  :   return degfree;

	mov	eax, DWORD PTR [edx+40]
	pop	edi
	pop	esi
	pop	ebx

; 112  : } // end vertex_degfree()

	mov	esp, ebp
	pop	ebp
	ret	0
$LN8@vertex_deg:

; 102  :       degfree = vbdry->pcount;
; 103  :   }
; 104  :   else if ( vattr & CONSTRAINT )

	and	esi, 1024				; 00000400H
	xor	ecx, ecx
	or	esi, ecx
	je	SHORT $LN2@vertex_deg

; 105  :   { vmap = get_e_constraint_map(v_id);

	mov	ecx, DWORD PTR _web+216
	mov	esi, DWORD PTR _dymem
	cmp	DWORD PTR [ecx+esi+1048], ebx
	je	SHORT $LN15@vertex_deg
	mov	eax, DWORD PTR _web+124
	mov	edi, DWORD PTR [edx+eax]
	add	edi, DWORD PTR [ecx+esi+1024]
	jmp	SHORT $LN16@vertex_deg
$LN15@vertex_deg:
	mov	edi, OFFSET _nullcon
$LN16@vertex_deg:
	mov	eax, DWORD PTR [edi]

; 106  :     for ( i = 1; i <= (int)vmap[0] ; i++ )

	mov	esi, 1
	cmp	eax, esi
	jl	SHORT $LN19@vertex_deg
	mov	ebx, DWORD PTR _web+652
	npad	7
$LL4@vertex_deg:

; 107  :      if (!((get_constraint(vmap[i])->attr)&(NONPOSITIVE|NONNEGATIVE|NONWALL)))

	mov	ecx, DWORD PTR [edi+esi*4]
	and	ecx, 1073741823				; 3fffffffH
	imul	ecx, 176				; 000000b0H
	mov	ecx, DWORD PTR [ecx+ebx+32]
	and	ecx, 1027				; 00000403H
	xor	edx, edx
	or	ecx, edx
	jne	SHORT $LN3@vertex_deg

; 108  :       degfree--;

	dec	DWORD PTR _degfree$[ebp]
$LN3@vertex_deg:

; 106  :     for ( i = 1; i <= (int)vmap[0] ; i++ )

	inc	esi
	cmp	esi, eax
	jle	SHORT $LL4@vertex_deg
$LN19@vertex_deg:

; 109  :   }
; 110  :  
; 111  :   return degfree;

	mov	eax, DWORD PTR _degfree$[ebp]
$LN2@vertex_deg:
	pop	edi
	pop	esi
	pop	ebx

; 112  : } // end vertex_degfree()

	mov	esp, ebp
	pop	ebp
	ret	0
_vertex_degfree ENDP
_TEXT	ENDS
PUBLIC	_edge_degfree
EXTRN	_E_BOUNDARY_ATTR:DWORD
; Function compile flags: /Ogtp
;	COMDAT _edge_degfree
_TEXT	SEGMENT
_eattr$ = -8						; size = 8
_degfree$ = 8						; size = 4
_e_id$ = 8						; size = 4
_edge_degfree PROC					; COMDAT

; 123  : { int degfree;

	push	ebp
	mov	ebp, esp
	sub	esp, 8

; 124  :   ATTR eattr = get_eattr(e_id);

	mov	eax, DWORD PTR _e_id$[ebp]
	mov	ecx, DWORD PTR _web+124
	push	ebx

; 125  :   struct boundary *ebdry;
; 126  :   conmap_t *emap;
; 127  :   int i;
; 128  : 
; 129  :   /* Get degrees of freedom of edge */
; 130  :   degfree = SDIM;

	mov	ebx, DWORD PTR _web+616
	and	eax, 134217727				; 07ffffffH
	push	esi
	mov	esi, DWORD PTR [ecx+eax*4]
	mov	edx, DWORD PTR [esi+8]
	mov	eax, DWORD PTR [esi+12]

; 131  :   if ( eattr & FIXED ) degfree = 0;

	mov	ecx, edx
	push	edi
	and	ecx, 64					; 00000040H
	xor	edi, edi
	or	ecx, edi
	mov	DWORD PTR _eattr$[ebp+4], eax
	mov	DWORD PTR _degfree$[ebp], ebx
	je	SHORT $LN10@edge_degfr
	pop	edi
	pop	esi
	xor	eax, eax
	pop	ebx

; 145  : } // end edge_degfree()

	mov	esp, ebp
	pop	ebp
	ret	0
$LN10@edge_degfr:

; 132  :   else if ( eattr & BOUNDARY )

	mov	ecx, edx
	and	ecx, 128				; 00000080H
	xor	edi, edi
	or	ecx, edi
	je	SHORT $LN8@edge_degfr

; 133  :   { ebdry = get_edge_boundary(e_id);

	mov	ecx, DWORD PTR _E_BOUNDARY_ATTR
	test	ecx, ecx
	je	SHORT $LN13@edge_degfr
	mov	edx, DWORD PTR _dymem
	imul	ecx, 240				; 000000f0H
	add	ecx, DWORD PTR _web+216
	mov	eax, DWORD PTR [ecx+edx+64]
	mov	edx, DWORD PTR [eax+esi]
	imul	edx, 136				; 00000088H
	add	edx, DWORD PTR _web+776
	jmp	SHORT $LN14@edge_degfr
$LN13@edge_degfr:
	xor	edx, edx
$LN14@edge_degfr:

; 134  :     if ( (ebdry->attr & NONWALL) )

	mov	ecx, DWORD PTR [edx+32]
	and	ecx, 1024				; 00000400H
	xor	esi, esi
	or	ecx, esi
	je	$LN21@edge_degfr

; 142  :   }
; 143  :  
; 144  :   return degfree;

	mov	eax, DWORD PTR [edx+40]
	pop	edi
	pop	esi
	pop	ebx

; 145  : } // end edge_degfree()

	mov	esp, ebp
	pop	ebp
	ret	0
$LN8@edge_degfr:

; 135  :       degfree = ebdry->pcount;
; 136  :   }
; 137  :   else if ( eattr & CONSTRAINT )

	and	edx, 1024				; 00000400H
	xor	ecx, ecx
	or	edx, ecx
	je	SHORT $LN21@edge_degfr

; 138  :   { emap = get_e_constraint_map(e_id);

	mov	ecx, DWORD PTR _web+216
	mov	edx, DWORD PTR _dymem
	cmp	DWORD PTR [ecx+edx+1048], edi
	je	SHORT $LN15@edge_degfr
	mov	edi, DWORD PTR [ecx+edx+1024]
	add	edi, esi
	jmp	SHORT $LN16@edge_degfr
$LN15@edge_degfr:
	mov	edi, OFFSET _nullcon
$LN16@edge_degfr:
	mov	eax, DWORD PTR [edi]

; 139  :     for ( i = 1; i <= (int)emap[0] ; i++ )

	mov	esi, 1
	cmp	eax, esi
	jl	SHORT $LN21@edge_degfr
	mov	ebx, DWORD PTR _web+652
$LL4@edge_degfr:

; 140  :      if (!((get_constraint(emap[i])->attr)&(NONPOSITIVE|NONNEGATIVE|NONWALL)))

	mov	ecx, DWORD PTR [edi+esi*4]
	and	ecx, 1073741823				; 3fffffffH
	imul	ecx, 176				; 000000b0H
	mov	ecx, DWORD PTR [ecx+ebx+32]
	and	ecx, 1027				; 00000403H
	xor	edx, edx
	or	ecx, edx
	jne	SHORT $LN3@edge_degfr

; 141  :       degfree--;

	dec	DWORD PTR _degfree$[ebp]
$LN3@edge_degfr:

; 139  :     for ( i = 1; i <= (int)emap[0] ; i++ )

	inc	esi
	cmp	esi, eax
	jle	SHORT $LL4@edge_degfr

; 142  :   }
; 143  :  
; 144  :   return degfree;

	mov	eax, DWORD PTR _degfree$[ebp]
	pop	edi
	pop	esi
	pop	ebx

; 145  : } // end edge_degfree()

	mov	esp, ebp
	pop	ebp
	ret	0
$LN21@edge_degfr:
	pop	edi
	pop	esi

; 142  :   }
; 143  :  
; 144  :   return degfree;

	mov	eax, ebx
	pop	ebx

; 145  : } // end edge_degfree()

	mov	esp, ebp
	pop	ebp
	ret	0
_edge_degfree ENDP
_TEXT	ENDS
PUBLIC	_facet_degfree
EXTRN	_F_BOUNDARY_ATTR:DWORD
; Function compile flags: /Ogtp
;	COMDAT _facet_degfree
_TEXT	SEGMENT
_fattr$ = -8						; size = 8
_degfree$ = 8						; size = 4
_f_id$ = 8						; size = 4
_facet_degfree PROC					; COMDAT

; 156  : { int degfree;

	push	ebp
	mov	ebp, esp
	sub	esp, 8

; 157  :   ATTR fattr = get_fattr(f_id);

	mov	eax, DWORD PTR _f_id$[ebp]
	mov	ecx, DWORD PTR _web+236
	push	ebx

; 158  :   struct boundary *fbdry;
; 159  :   conmap_t *fmap;
; 160  :   int i;
; 161  : 
; 162  :   /* Get degrees of freedom of edge */
; 163  :   degfree = SDIM;

	mov	ebx, DWORD PTR _web+616
	and	eax, 134217727				; 07ffffffH
	push	esi
	mov	esi, DWORD PTR [ecx+eax*4]
	mov	edx, DWORD PTR [esi+8]
	mov	eax, DWORD PTR [esi+12]

; 164  :   if ( fattr & FIXED ) degfree = 0;

	mov	ecx, edx
	push	edi
	and	ecx, 64					; 00000040H
	xor	edi, edi
	or	ecx, edi
	mov	DWORD PTR _fattr$[ebp+4], eax
	mov	DWORD PTR _degfree$[ebp], ebx
	je	SHORT $LN10@facet_degf
	pop	edi
	pop	esi
	xor	eax, eax
	pop	ebx

; 178  : } // end facet_degfree()

	mov	esp, ebp
	pop	ebp
	ret	0
$LN10@facet_degf:

; 165  :   else if ( fattr & BOUNDARY )

	mov	ecx, edx
	and	ecx, 128				; 00000080H
	xor	edi, edi
	or	ecx, edi
	je	SHORT $LN8@facet_degf

; 166  :   { fbdry = get_facet_boundary(f_id);

	mov	ecx, DWORD PTR _F_BOUNDARY_ATTR
	test	ecx, ecx
	je	SHORT $LN13@facet_degf
	mov	edx, DWORD PTR _dymem
	imul	ecx, 240				; 000000f0H
	add	ecx, DWORD PTR _web+328
	mov	eax, DWORD PTR [ecx+edx+64]
	mov	edx, DWORD PTR [eax+esi]
	imul	edx, 136				; 00000088H
	add	edx, DWORD PTR _web+776
	jmp	SHORT $LN14@facet_degf
$LN13@facet_degf:
	xor	edx, edx
$LN14@facet_degf:

; 167  :     if ( (fbdry->attr & NONWALL) )

	mov	ecx, DWORD PTR [edx+32]
	and	ecx, 1024				; 00000400H
	xor	esi, esi
	or	ecx, esi
	je	$LN21@facet_degf

; 175  :   }
; 176  :  
; 177  :   return degfree;

	mov	eax, DWORD PTR [edx+40]
	pop	edi
	pop	esi
	pop	ebx

; 178  : } // end facet_degfree()

	mov	esp, ebp
	pop	ebp
	ret	0
$LN8@facet_degf:

; 168  :       degfree = fbdry->pcount;
; 169  :   }
; 170  :   else if ( fattr & CONSTRAINT )

	and	edx, 1024				; 00000400H
	xor	ecx, ecx
	or	edx, ecx
	je	SHORT $LN21@facet_degf

; 171  :   { fmap = get_f_constraint_map(f_id);

	mov	ecx, DWORD PTR _web+328
	mov	edx, DWORD PTR _dymem
	cmp	DWORD PTR [ecx+edx+88], edi
	je	SHORT $LN15@facet_degf
	mov	edi, DWORD PTR [ecx+edx+64]
	add	edi, esi
	jmp	SHORT $LN16@facet_degf
$LN15@facet_degf:
	mov	edi, OFFSET _nullcon
$LN16@facet_degf:
	mov	eax, DWORD PTR [edi]

; 172  :     for ( i = 1; i <= (int)fmap[0] ; i++ )

	mov	esi, 1
	cmp	eax, esi
	jl	SHORT $LN21@facet_degf
	mov	ebx, DWORD PTR _web+652
	npad	6
$LL4@facet_degf:

; 173  :      if (!((get_constraint(fmap[i])->attr)&(NONPOSITIVE|NONNEGATIVE|NONWALL)))

	mov	ecx, DWORD PTR [edi+esi*4]
	and	ecx, 1073741823				; 3fffffffH
	imul	ecx, 176				; 000000b0H
	mov	ecx, DWORD PTR [ecx+ebx+32]
	and	ecx, 1027				; 00000403H
	xor	edx, edx
	or	ecx, edx
	jne	SHORT $LN3@facet_degf

; 174  :       degfree--;

	dec	DWORD PTR _degfree$[ebp]
$LN3@facet_degf:

; 172  :     for ( i = 1; i <= (int)fmap[0] ; i++ )

	inc	esi
	cmp	esi, eax
	jle	SHORT $LL4@facet_degf

; 175  :   }
; 176  :  
; 177  :   return degfree;

	mov	eax, DWORD PTR _degfree$[ebp]
	pop	edi
	pop	esi
	pop	ebx

; 178  : } // end facet_degfree()

	mov	esp, ebp
	pop	ebp
	ret	0
$LN21@facet_degf:
	pop	edi
	pop	esi

; 175  :   }
; 176  :  
; 177  :   return degfree;

	mov	eax, ebx
	pop	ebx

; 178  : } // end facet_degfree()

	mov	esp, ebp
	pop	ebp
	ret	0
_facet_degfree ENDP
_TEXT	ENDS
PUBLIC	__real@3f847ae147ae147b
PUBLIC	_fe_a$GSCopy$
PUBLIC	_fe_b$GSCopy$
PUBLIC	__$ArrayPad$
PUBLIC	_versplit
EXTRN	_set_f_phase_density:PROC
EXTRN	_phase_flag:DWORD
EXTRN	_set_facet_body:PROC
EXTRN	_set_facet_fe:PROC
EXTRN	_new_facetedge:PROC
EXTRN	_dup_facet:PROC
EXTRN	_dup_edge:PROC
EXTRN	_set_e_conmap:PROC
EXTRN	_new_edge:PROC
EXTRN	_dup_vertex:PROC
EXTRN	_get_edge_valence:PROC
EXTRN	___security_cookie:DWORD
EXTRN	__fltused:DWORD
EXTRN	@__security_check_cookie@4:PROC
;	COMDAT __real@3f847ae147ae147b
; File c:\levolver\yonkang-sefit\levolver\ev_ogl\inline.h
CONST	SEGMENT
__real@3f847ae147ae147b DQ 03f847ae147ae147br	; 0.01
; Function compile flags: /Ogtp
; File c:\levolver\yonkang-sefit\levolver\ev_ogl\popfilm.c
CONST	ENDS
;	COMDAT _versplit
_TEXT	SEGMENT
tv4965 = -204						; size = 8
tv5364 = -200						; size = 4
_valence$ = -196					; size = 4
tv5368 = -192						; size = 4
tv5233 = -188						; size = 4
tv4936 = -188						; size = 4
tv5463 = -184						; size = 4
_start_fe$89576 = -184					; size = 4
_fe_b_e$ = -180						; size = 4
_new_a$ = -176						; size = 4
tv4926 = -172						; size = 4
tv5284 = -168						; size = 4
tv5035 = -168						; size = 4
_new_fa$ = -168						; size = 4
_old_v$ = -164						; size = 4
tv5006 = -160						; size = 4
_new_b$ = -156						; size = 4
tv5447 = -152						; size = 4
tv5022 = -152						; size = 4
_new_fb$ = -148						; size = 4
tv5435 = -144						; size = 4
tv5003 = -144						; size = 4
tv4897 = -140						; size = 4
_fe_aa$ = -136						; size = 4
tv5428 = -132						; size = 4
tv4905 = -132						; size = 4
_fe_b_old$ = -128					; size = 4
tv5396 = -124						; size = 4
tv5152 = -124						; size = 4
tv4917 = -124						; size = 4
_fe_a$GSCopy$ = -120					; size = 4
tv5113 = -116						; size = 4
_fe_b$GSCopy$ = -112					; size = 4
_fe_bb$ = -108						; size = 4
tv5431 = -104						; size = 4
tv5358 = -104						; size = 4
_old_b$ = -104						; size = 4
_fe_b_new$ = -100					; size = 4
_fe_a_old$ = -96					; size = 4
_new_v$ = -96						; size = 4
tv6649 = -92						; size = 4
tv5412 = -92						; size = 4
tv5126 = -92						; size = 4
_stackcount$89568 = -92					; size = 4
_fe_a_new$ = -88					; size = 4
_new_e$ = -88						; size = 4
_fe_stack$89567 = -84					; size = 80
__$ArrayPad$ = -4					; size = 4
_fe_a$ = 8						; size = 4
_fe_b$ = 12						; size = 4
_this_septum_flag$ = 16					; size = 4
_versplit PROC						; COMDAT

; 597  : {

	push	ebp
	mov	ebp, esp
	sub	esp, 204				; 000000ccH
	mov	eax, DWORD PTR ___security_cookie
	xor	eax, ebp
	mov	DWORD PTR __$ArrayPad$[ebp], eax
	mov	ecx, DWORD PTR _fe_a$[ebp]

; 671  :   }
; 672  :  
; 673  :   /* reset edge endpoints coming into new_v */
; 674  :   { 
; 675  : #define FESTACKSIZE 20
; 676  :     facetedge_id fe_stack[FESTACKSIZE];
; 677  :     int stackcount = 0;
; 678  : 
; 679  :     fe_stack[stackcount++] = fe_a;

	mov	eax, DWORD PTR _fe_b$[ebp]
	mov	edx, DWORD PTR _web+460
	mov	DWORD PTR _fe_b$GSCopy$[ebp], eax
	mov	eax, ecx
	and	eax, 134217727				; 07ffffffH
	add	eax, eax
	add	eax, eax
	push	ebx
	mov	ebx, DWORD PTR _dymem
	mov	DWORD PTR tv4897[ebp], eax
	mov	eax, DWORD PTR [eax+edx]
	push	esi
	mov	esi, DWORD PTR [eax+20]
	mov	edx, ecx
	and	edx, 134217728				; 08000000H
	xor	esi, edx
	push	edi
	mov	edi, DWORD PTR _web+124
	mov	edx, esi
	and	edx, 134217727				; 07ffffffH
	mov	edx, DWORD PTR [edi+edx*4]
	mov	edi, DWORD PTR _web+216
	mov	DWORD PTR _fe_a$GSCopy$[ebp], ecx
	mov	DWORD PTR tv4905[ebp], esi
	test	esi, 134217728				; 08000000H
	je	SHORT $LN91@versplit

; 598  :   vertex_id old_v = get_fe_headv(fe_a);

	mov	edi, DWORD PTR [edi+ebx+304]
	mov	edi, DWORD PTR [edx+edi]
	jmp	SHORT $LN652@versplit
$LN91@versplit:
	add	edx, DWORD PTR [edi+ebx+304]
	mov	edi, DWORD PTR _web+636
	mov	edi, DWORD PTR [edx+edi*4]
$LN652@versplit:

; 599  :   vertex_id new_v;
; 600  :   edge_id new_e=0,new_a=0,new_b=0,e_id;

	xor	ebx, ebx

; 601  :   edge_id old_a = get_fe_edge(fe_a);
; 602  :   edge_id old_b = NULLID;
; 603  :   facetedge_id fe_aa = get_prev_facet(fe_a);

	shr	ecx, 27					; 0000001bH
	and	ecx, 1
	mov	DWORD PTR _old_v$[ebp], edi
	mov	DWORD PTR _new_e$[ebp], ebx
	mov	DWORD PTR _new_a$[ebp], ebx
	mov	DWORD PTR _new_b$[ebp], ebx
	mov	DWORD PTR _old_b$[ebp], ebx
	mov	DWORD PTR tv4926[ebp], ecx
	je	SHORT $LN97@versplit
	mov	eax, DWORD PTR [eax+40]
	xor	eax, 134217728				; 08000000H
	jmp	SHORT $LN653@versplit
$LN97@versplit:
	mov	eax, DWORD PTR [eax+36]
$LN653@versplit:

; 604  :   facetedge_id fe_bb = NULLID;
; 605  :   facetedge_id fe_a_old,fe_a_new,fe_a_e;
; 606  :   facetedge_id fe_b_old=0,fe_b_new=0,fe_b_e=0;
; 607  :   facet_id new_fa,new_fb=0;
; 608  :   body_id b_id;
; 609  :   int i;
; 610  :   REAL *x;
; 611  :   facetedge_id fe,first_fe;
; 612  :   int valence = get_edge_valence(old_a);

	push	esi
	mov	DWORD PTR _fe_aa$[ebp], eax
	mov	DWORD PTR _fe_bb$[ebp], ebx
	mov	DWORD PTR _fe_b_old$[ebp], ebx
	mov	DWORD PTR _fe_b_new$[ebp], ebx
	mov	DWORD PTR _fe_b_e$[ebp], ebx
	mov	DWORD PTR _new_fb$[ebp], ebx
	call	_get_edge_valence

; 613  :   conmap_t *vmap,*emap,*fmap;
; 614  : 
; 615  :   /* create a new vertex, which will be split away with wedge */
; 616  :   new_v = dup_vertex(old_v);

	push	edi
	mov	DWORD PTR _valence$[ebp], eax
	call	_dup_vertex

; 617  :   x = get_coord(new_v);

	mov	edx, DWORD PTR _web+12
	mov	edi, DWORD PTR _dymem
	mov	ecx, eax
	and	ecx, 134217727				; 07ffffffH
	add	ecx, ecx
	add	ecx, ecx
	mov	DWORD PTR tv4936[ebp], ecx
	mov	ecx, DWORD PTR [ecx+edx]
	mov	edx, DWORD PTR _web+104
	add	ecx, DWORD PTR [edx+edi+64]
	add	esp, 8

; 618  :   for ( i = 0 ; i < SDIM ; i++ )

	xor	edx, edx
	mov	DWORD PTR _new_v$[ebp], eax
	cmp	DWORD PTR _web+616, ebx
	jle	SHORT $LN65@versplit
	fld	QWORD PTR __real@3f847ae147ae147b
	mov	edi, OFFSET _new_displacement
	sub	edi, ecx
$LN67@versplit:

; 619  :      x[i] += 0.01*new_displacement[i];

	fld	QWORD PTR [edi+ecx]
	inc	edx
	fmul	ST(0), ST(1)
	add	ecx, 8
	fadd	QWORD PTR [ecx-8]
	fstp	QWORD PTR [ecx-8]
	cmp	edx, DWORD PTR _web+616
	jl	SHORT $LN67@versplit

; 618  :   for ( i = 0 ; i < SDIM ; i++ )

	fstp	ST(0)
$LN65@versplit:

; 620  :   
; 621  :   if ( this_septum_flag )

	cmp	DWORD PTR _this_septum_flag$[ebp], ebx
	je	$LN61@versplit

; 622  :   { /* create new edge between vertices */
; 623  :     new_e = new_edge(old_v,new_v,NULLID);

	mov	edi, DWORD PTR _old_v$[ebp]
	push	ebx
	push	eax
	push	edi
	call	_new_edge
	mov	DWORD PTR _new_e$[ebp], eax

; 624  :     if ( get_vattr(old_v) & BOUNDARY )

	mov	eax, DWORD PTR _web+12
	and	edi, 134217727				; 07ffffffH
	mov	edi, DWORD PTR [eax+edi*4]
	mov	ecx, DWORD PTR [edi+12]
	mov	edx, DWORD PTR [edi+8]
	mov	DWORD PTR tv4965[ebp+4], ecx
	mov	ecx, edx
	and	ecx, 128				; 00000080H
	xor	eax, eax
	add	esp, 12					; 0000000cH
	or	ecx, eax
	je	SHORT $LN63@versplit

; 625  :       set_edge_boundary_num(new_e,get_vertex_boundary_num(old_v));

	mov	edx, DWORD PTR _E_BOUNDARY_ATTR
	cmp	edx, ebx
	je	$LN61@versplit
	mov	ecx, DWORD PTR _V_BOUNDARY_ATTR
	mov	eax, DWORD PTR _dymem
	cmp	ecx, ebx
	je	SHORT $LN70@versplit
	imul	ecx, 240				; 000000f0H
	add	ecx, DWORD PTR _web+104
	mov	ecx, DWORD PTR [ecx+eax+64]
	mov	edi, DWORD PTR [edi+ecx]
	jmp	SHORT $LN71@versplit
$LN70@versplit:
	xor	edi, edi
$LN71@versplit:
	mov	ecx, DWORD PTR _new_e$[ebp]
	imul	edx, 240				; 000000f0H
	mov	ebx, DWORD PTR _web+124
	and	ecx, 134217727				; 07ffffffH
	add	edx, DWORD PTR _web+216
	mov	ecx, DWORD PTR [ebx+ecx*4]
	mov	edx, DWORD PTR [edx+eax+64]
	mov	DWORD PTR [ecx+edx], edi

; 626  :     else if ( get_vattr(old_v) & CONSTRAINT )

	jmp	SHORT $LN61@versplit
$LN63@versplit:
	and	edx, 1024				; 00000400H
	xor	eax, eax
	or	edx, eax
	je	SHORT $LN61@versplit

; 627  :     { vmap = get_v_constraint_map(old_v);

	mov	eax, DWORD PTR _web+104
	mov	ecx, DWORD PTR _dymem
	cmp	DWORD PTR [eax+ecx+1288], ebx
	je	SHORT $LN74@versplit
	mov	eax, DWORD PTR [eax+ecx+1264]
	add	eax, edi
	jmp	SHORT $LN75@versplit
$LN74@versplit:
	mov	eax, OFFSET _nullcon
$LN75@versplit:

; 628  :       set_e_conmap(new_e,vmap);

	push	eax
	mov	eax, DWORD PTR _new_e$[ebp]
	push	eax
	call	_set_e_conmap
	add	esp, 8
$LN61@versplit:

; 629  :     }
; 630  :   }
; 631  :   
; 632  :   /* create new edges split off from wedge */
; 633  :   if ( !equal_id(get_prev_facet(fe_aa),fe_a) )

	mov	ecx, DWORD PTR _fe_aa$[ebp]
	mov	eax, ecx
	shr	eax, 27					; 0000001bH
	and	eax, 1
	mov	DWORD PTR tv5003[ebp], eax
	mov	eax, ecx
	mov	ecx, DWORD PTR _web+460
	je	SHORT $LN101@versplit
	and	eax, 134217727				; 07ffffffH
	add	eax, eax
	add	eax, eax
	mov	edx, DWORD PTR [eax+ecx]
	mov	DWORD PTR tv5006[ebp], eax
	mov	eax, DWORD PTR [edx+40]
	xor	eax, 134217728				; 08000000H
	jmp	SHORT $LN100@versplit
$LN101@versplit:
	and	eax, 134217727				; 07ffffffH
	add	eax, eax
	add	eax, eax
	mov	edx, DWORD PTR [eax+ecx]
	mov	DWORD PTR tv5006[ebp], eax
	mov	eax, DWORD PTR [edx+36]
$LN100@versplit:
	cmp	eax, DWORD PTR _fe_a$GSCopy$[ebp]
	je	$LN60@versplit

; 634  :   {
; 635  :     new_a = dup_edge(old_a);

	push	esi
	call	_dup_edge
	add	esp, 4
	mov	edi, eax
	mov	DWORD PTR _new_a$[ebp], edi

; 636  :     insert_vertex_edge(get_edge_tailv(old_a),new_a);

	test	esi, 134217728				; 08000000H
	je	SHORT $LN105@versplit
	mov	ecx, DWORD PTR _web+124
	mov	eax, esi
	and	eax, 134217727				; 07ffffffH
	mov	edx, DWORD PTR [ecx+eax*4]
	mov	eax, DWORD PTR _web+216
	mov	ecx, DWORD PTR _dymem
	add	edx, DWORD PTR [eax+ecx+304]
	mov	eax, DWORD PTR _web+636
	mov	eax, DWORD PTR [edx+eax*4]
	jmp	SHORT $LN104@versplit
$LN105@versplit:
	mov	edx, DWORD PTR _web+124
	mov	ecx, esi
	and	ecx, 134217727				; 07ffffffH
	mov	eax, DWORD PTR [edx+ecx*4]
	mov	ecx, DWORD PTR _web+216
	mov	edx, DWORD PTR _dymem
	mov	ecx, DWORD PTR [ecx+edx+304]
	mov	eax, DWORD PTR [eax+ecx]
$LN104@versplit:
	push	edi
	push	eax
	call	_insert_vertex_edge

; 637  :     insert_vertex_edge(old_v,inverse_id(new_a));

	mov	edx, DWORD PTR _old_v$[ebp]
	xor	edi, 134217728				; 08000000H
	push	edi
	push	edx
	call	_insert_vertex_edge
	add	esp, 16					; 00000010H
$LN60@versplit:

; 638  :   }  
; 639  : 
; 640  :   /* fix up attributes of old edge, in case pulling off wall */
; 641  :   unset_attr(old_a,FIXED);

	mov	eax, esi
	shr	eax, 29					; 0000001dH
	imul	eax, 112				; 00000070H
	mov	ecx, DWORD PTR _web[eax+12]
	and	esi, 134217727				; 07ffffffH
	lea	ebx, DWORD PTR _web[eax+12]
	add	esi, esi
	add	esi, esi
	mov	eax, DWORD PTR [esi+ecx]
	mov	edx, DWORD PTR [eax+12]
	and	DWORD PTR [eax+8], -65			; ffffffbfH
	mov	DWORD PTR [eax+12], edx

; 642  :   set_edge_boundary_num(old_a,0);

	mov	eax, DWORD PTR _E_BOUNDARY_ATTR
	mov	DWORD PTR tv5035[ebp], ebx
	mov	DWORD PTR tv5022[ebp], esi
	test	eax, eax
	je	SHORT $LN76@versplit
	mov	ecx, DWORD PTR _dymem
	imul	eax, 240				; 000000f0H
	add	eax, DWORD PTR _web+216
	mov	edx, DWORD PTR [eax+ecx+64]
	mov	eax, DWORD PTR _web+124
	mov	ecx, DWORD PTR [esi+eax]
	mov	DWORD PTR [edx+ecx], 0
$LN76@versplit:

; 643  :   unset_attr(old_a,BOUNDARY); 

	mov	edx, DWORD PTR [ebx]
	mov	eax, DWORD PTR [esi+edx]
	mov	ecx, DWORD PTR [eax+12]
	and	DWORD PTR [eax+8], -129			; ffffff7fH
	mov	DWORD PTR [eax+12], ecx

; 644  :   fmap = get_f_constraint_map(get_fe_facet(fe_a));

	mov	edx, DWORD PTR _web+328
	mov	ecx, DWORD PTR _dymem
	cmp	DWORD PTR [edx+ecx+88], 0
	je	SHORT $LN78@versplit
	test	DWORD PTR _fe_a$GSCopy$[ebp], 268435456	; 10000000H
	jne	SHORT $LN113@versplit
	mov	eax, DWORD PTR _NULLFACET
	jmp	SHORT $LN112@versplit
$LN113@versplit:
	cmp	DWORD PTR tv4926[ebp], 0
	mov	eax, DWORD PTR _web+460
	mov	edi, DWORD PTR tv4897[ebp]
	mov	eax, DWORD PTR [edi+eax]
	mov	eax, DWORD PTR [eax+24]
	je	SHORT $LN112@versplit
	xor	eax, 134217728				; 08000000H
$LN112@versplit:
	mov	edi, DWORD PTR _web+236
	and	eax, 134217727				; 07ffffffH
	mov	edi, DWORD PTR [edi+eax*4]
	add	edi, DWORD PTR [edx+ecx+64]
	jmp	SHORT $LN79@versplit
$LN78@versplit:
	mov	edi, OFFSET _nullcon
$LN79@versplit:

; 645  :   emap = get_e_constraint_map(old_a);

	mov	eax, DWORD PTR _web+216
	cmp	DWORD PTR [eax+ecx+1048], 0
	je	SHORT $LN80@versplit
	mov	edx, DWORD PTR _web+124
	mov	edx, DWORD PTR [esi+edx]
	add	edx, DWORD PTR [eax+ecx+1024]
	jmp	SHORT $LN81@versplit
$LN80@versplit:
	mov	edx, OFFSET _nullcon
$LN81@versplit:

; 646  :   for ( i = 1 ; i <= (int)fmap[0] ; i++ )

	mov	eax, 1
	cmp	DWORD PTR [edi], eax
	jl	SHORT $LN610@versplit
	mov	ebx, edi
	sub	ebx, edx
	lea	ecx, DWORD PTR [edx+4]
	mov	DWORD PTR tv6649[ebp], ebx
	jmp	SHORT $LN59@versplit
	npad	2
$LL608@versplit:
	mov	ebx, DWORD PTR tv6649[ebp]
$LN59@versplit:

; 647  :     emap[i] = fmap[i]; 

	mov	ebx, DWORD PTR [ebx+ecx]
	mov	DWORD PTR [ecx], ebx
	inc	eax
	add	ecx, 4
	cmp	eax, DWORD PTR [edi]
	jle	SHORT $LL608@versplit

; 646  :   for ( i = 1 ; i <= (int)fmap[0] ; i++ )

	mov	ebx, DWORD PTR tv5035[ebp]
$LN610@versplit:

; 648  :   for ( ; i <= (int)emap[0] ; i++ ) emap[i] = 0;

	cmp	eax, DWORD PTR [edx]
	jg	SHORT $LN642@versplit
	npad	6
$LL56@versplit:
	mov	DWORD PTR [edx+eax*4], 0
	inc	eax
	cmp	eax, DWORD PTR [edx]
	jle	SHORT $LL56@versplit
$LN642@versplit:

; 649  :   emap[0] = fmap[0];

	mov	edi, DWORD PTR [edi]
	mov	DWORD PTR [edx], edi

; 650  :   if ( emap[0] == 0 ) unset_attr(old_a,CONSTRAINT);

	test	edi, edi
	jne	SHORT $LN53@versplit
	mov	eax, DWORD PTR [ebx]
	mov	esi, DWORD PTR [esi+eax]
	mov	ecx, DWORD PTR [esi+12]
	and	DWORD PTR [esi+8], -1025		; fffffbffH
	mov	DWORD PTR [esi+12], ecx
	jmp	SHORT $LN118@versplit
$LN53@versplit:

; 651  :   else set_attr(old_a,CONSTRAINT);

	mov	edx, DWORD PTR [ebx]
	mov	esi, DWORD PTR [esi+edx]
	mov	eax, DWORD PTR [esi+12]
	or	DWORD PTR [esi+8], 1024			; 00000400H
	mov	DWORD PTR [esi+12], eax
$LN118@versplit:

; 652  : 
; 653  :   if ( valid_id(fe_b) )

	mov	eax, DWORD PTR _fe_b$GSCopy$[ebp]
	shr	eax, 28					; 0000001cH
	and	eax, 1
	mov	DWORD PTR tv5113[ebp], eax
	je	$LN613@versplit

; 654  :   { old_b = get_fe_edge(fe_b);

	mov	eax, DWORD PTR _fe_b$GSCopy$[ebp]
	mov	ecx, DWORD PTR _web+460
	mov	ebx, eax
	and	ebx, 134217727				; 07ffffffH
	add	ebx, ebx
	mov	esi, eax
	add	ebx, ebx
	mov	ecx, DWORD PTR [ebx+ecx]
	and	esi, 134217728				; 08000000H
	xor	esi, DWORD PTR [ecx+20]

; 655  :     fe_bb = get_prev_facet(fe_b);

	shr	eax, 27					; 0000001bH
	and	eax, 1
	mov	DWORD PTR _old_b$[ebp], esi
	mov	DWORD PTR tv5126[ebp], eax
	je	SHORT $LN123@versplit
	mov	ecx, DWORD PTR [ecx+40]
	xor	ecx, 134217728				; 08000000H
	mov	DWORD PTR _fe_bb$[ebp], ecx
	jmp	SHORT $LN122@versplit
$LN123@versplit:
	mov	edx, DWORD PTR [ecx+36]
	mov	DWORD PTR _fe_bb$[ebp], edx
$LN122@versplit:

; 656  :     new_b = dup_edge(old_b);

	push	esi
	call	_dup_edge

; 657  :     insert_vertex_edge(old_v,new_b);

	push	eax
	mov	DWORD PTR _new_b$[ebp], eax
	mov	eax, DWORD PTR _old_v$[ebp]
	push	eax
	call	_insert_vertex_edge

; 658  :     insert_vertex_edge(get_edge_headv(old_b),inverse_id(new_b));

	mov	edi, esi
	and	edi, 134217727				; 07ffffffH
	add	edi, edi
	add	esp, 12					; 0000000cH
	add	edi, edi
	test	esi, 134217728				; 08000000H
	je	SHORT $LN127@versplit
	mov	ecx, DWORD PTR _web+216
	mov	edx, DWORD PTR _dymem
	mov	eax, DWORD PTR [ecx+edx+304]
	mov	ecx, DWORD PTR _web+124
	mov	edx, DWORD PTR [ecx+edi]
	mov	eax, DWORD PTR [eax+edx]
	jmp	SHORT $LN126@versplit
$LN127@versplit:
	mov	eax, DWORD PTR _web+216
	mov	ecx, DWORD PTR _dymem
	mov	edx, DWORD PTR [eax+ecx+304]
	mov	eax, DWORD PTR _web+124
	add	edx, DWORD PTR [eax+edi]
	mov	ecx, DWORD PTR _web+636
	mov	eax, DWORD PTR [edx+ecx*4]
$LN126@versplit:
	mov	edx, DWORD PTR _new_b$[ebp]
	xor	edx, 134217728				; 08000000H
	push	edx
	push	eax
	call	_insert_vertex_edge

; 659  :     /* fix up attributes of old edge, in case pulling off wall */
; 660  :     unset_attr(old_b,FIXED);

	shr	esi, 29					; 0000001dH
	imul	esi, 112				; 00000070H
	mov	eax, DWORD PTR _web[esi+12]
	mov	eax, DWORD PTR [edi+eax]
	mov	edx, DWORD PTR [eax+12]
	and	DWORD PTR [eax+8], -65			; ffffffbfH
	lea	ecx, DWORD PTR _web[esi+12]
	mov	DWORD PTR [eax+12], edx

; 661  :     set_edge_boundary_num(old_b,0);

	mov	eax, DWORD PTR _E_BOUNDARY_ATTR
	add	esp, 8
	mov	DWORD PTR tv5152[ebp], ecx
	test	eax, eax
	je	SHORT $LN611@versplit
	mov	edx, DWORD PTR _dymem
	imul	eax, 240				; 000000f0H
	add	eax, DWORD PTR _web+216
	mov	eax, DWORD PTR [eax+edx+64]
	mov	edx, DWORD PTR _web+124
	mov	edx, DWORD PTR [edx+edi]
	mov	DWORD PTR [eax+edx], 0
$LN611@versplit:

; 662  :     unset_attr(old_b,BOUNDARY); 

	mov	eax, DWORD PTR [ecx]
	mov	eax, DWORD PTR [edi+eax]
	mov	ecx, DWORD PTR [eax+12]
	and	DWORD PTR [eax+8], -129			; ffffff7fH
	mov	DWORD PTR [eax+12], ecx

; 663  :     fmap = get_f_constraint_map(get_fe_facet(fe_b));

	mov	edx, DWORD PTR _web+328
	mov	ecx, DWORD PTR _dymem
	cmp	DWORD PTR [edx+ecx+88], 0
	je	SHORT $LN84@versplit
	cmp	DWORD PTR tv5126[ebp], 0
	mov	eax, DWORD PTR _web+460
	mov	eax, DWORD PTR [ebx+eax]
	mov	eax, DWORD PTR [eax+24]
	je	SHORT $LN134@versplit
	xor	eax, 134217728				; 08000000H
$LN134@versplit:
	mov	esi, DWORD PTR _web+236
	and	eax, 134217727				; 07ffffffH
	mov	esi, DWORD PTR [esi+eax*4]
	add	esi, DWORD PTR [edx+ecx+64]
	jmp	SHORT $LN85@versplit
$LN84@versplit:
	mov	esi, OFFSET _nullcon
$LN85@versplit:

; 664  :     emap = get_e_constraint_map(old_b);

	mov	eax, DWORD PTR _web+216
	cmp	DWORD PTR [eax+ecx+1048], 0
	je	SHORT $LN86@versplit
	mov	edx, DWORD PTR _web+124
	mov	edx, DWORD PTR [edx+edi]
	add	edx, DWORD PTR [eax+ecx+1024]
	jmp	SHORT $LN87@versplit
$LN86@versplit:
	mov	edx, OFFSET _nullcon
$LN87@versplit:

; 665  :     for ( i = 1 ; i <= (int)fmap[0] ; i++ )

	mov	eax, 1
	cmp	DWORD PTR [esi], eax
	jl	SHORT $LN612@versplit
	mov	ebx, esi
	sub	ebx, edx
	lea	ecx, DWORD PTR [edx+4]
	mov	DWORD PTR tv6649[ebp], ebx
	jmp	SHORT $LN50@versplit
	npad	5
$LL609@versplit:
	mov	ebx, DWORD PTR tv6649[ebp]
$LN50@versplit:

; 666  :       emap[i] = fmap[i]; 

	mov	ebx, DWORD PTR [ecx+ebx]
	mov	DWORD PTR [ecx], ebx
	inc	eax
	add	ecx, 4
	cmp	eax, DWORD PTR [esi]
	jle	SHORT $LL609@versplit
$LN612@versplit:

; 665  :     for ( i = 1 ; i <= (int)fmap[0] ; i++ )

	mov	ebx, DWORD PTR _fe_b$GSCopy$[ebp]

; 667  :     for ( ; i <= (int)emap[0] ; i++ ) emap[i] = 0;

	cmp	eax, DWORD PTR [edx]
	jg	SHORT $LN643@versplit
	npad	9
$LL47@versplit:
	mov	DWORD PTR [edx+eax*4], 0
	inc	eax
	cmp	eax, DWORD PTR [edx]
	jle	SHORT $LL47@versplit
$LN643@versplit:

; 668  :     emap[0] = fmap[0];

	mov	esi, DWORD PTR [esi]

; 669  :     if ( emap[0] == 0 ) unset_attr(old_b,CONSTRAINT);

	mov	eax, DWORD PTR tv5152[ebp]
	mov	DWORD PTR [edx], esi
	mov	ecx, DWORD PTR [eax]
	mov	edi, DWORD PTR [edi+ecx]
	mov	edx, DWORD PTR [edi+12]
	mov	DWORD PTR [edi+12], edx
	test	esi, esi
	jne	SHORT $LN44@versplit
	and	DWORD PTR [edi+8], -1025		; fffffbffH
	jmp	SHORT $LN140@versplit
$LN44@versplit:

; 670  :     else set_attr(old_b,CONSTRAINT);

	or	DWORD PTR [edi+8], 1024			; 00000400H
	jmp	SHORT $LN140@versplit
$LN613@versplit:
	mov	ebx, DWORD PTR _fe_b$GSCopy$[ebp]
$LN140@versplit:

; 680  :     fe_stack[stackcount++] = inverse_id(get_next_edge(fe_a));

	cmp	DWORD PTR tv4926[ebp], 0
	mov	eax, DWORD PTR _fe_a$GSCopy$[ebp]
	mov	ecx, DWORD PTR _web+460
	mov	edx, DWORD PTR tv4897[ebp]
	mov	DWORD PTR _fe_stack$89567[ebp], eax
	mov	eax, DWORD PTR [edx+ecx]
	je	SHORT $LN143@versplit
	mov	eax, DWORD PTR [eax+28]
	xor	eax, 134217728				; 08000000H
	jmp	SHORT $LN142@versplit
$LN143@versplit:
	mov	eax, DWORD PTR [eax+32]
$LN142@versplit:

; 681  :     fe_stack[stackcount++] = inverse_id(get_next_edge(fe_aa));

	mov	edx, DWORD PTR tv5006[ebp]
	xor	eax, 134217728				; 08000000H
	cmp	DWORD PTR tv5003[ebp], 0
	mov	DWORD PTR _fe_stack$89567[ebp+4], eax
	mov	eax, DWORD PTR [edx+ecx]
	je	SHORT $LN147@versplit
	mov	eax, DWORD PTR [eax+28]
	xor	eax, 134217728				; 08000000H
	jmp	SHORT $LN146@versplit
$LN147@versplit:
	mov	eax, DWORD PTR [eax+32]
$LN146@versplit:
	xor	eax, 134217728				; 08000000H

; 682  :     if ( valid_id(fe_b) )

	cmp	DWORD PTR tv5113[ebp], 0
	mov	DWORD PTR _fe_stack$89567[ebp+8], eax
	mov	eax, 3
	je	SHORT $LN591@versplit

; 683  :     { fe_stack[stackcount++] = inverse_id(fe_b);

	mov	eax, ebx
	xor	eax, 134217728				; 08000000H
	mov	DWORD PTR _fe_stack$89567[ebp+12], eax

; 684  :       fe_stack[stackcount++] = get_prev_edge(fe_b);

	test	ebx, 134217728				; 08000000H
	je	SHORT $LN151@versplit
	and	ebx, 134217727				; 07ffffffH
	mov	edx, DWORD PTR [ecx+ebx*4]
	mov	eax, DWORD PTR [edx+32]
	xor	eax, 134217728				; 08000000H
	jmp	SHORT $LN150@versplit
$LN151@versplit:
	and	ebx, 134217727				; 07ffffffH
	mov	eax, DWORD PTR [ecx+ebx*4]
	mov	eax, DWORD PTR [eax+28]
$LN150@versplit:
	mov	DWORD PTR _fe_stack$89567[ebp+16], eax

; 685  :       fe_stack[stackcount++] = get_prev_edge(fe_bb);

	mov	eax, DWORD PTR _fe_bb$[ebp]
	test	eax, 134217728				; 08000000H
	je	SHORT $LN155@versplit
	and	eax, 134217727				; 07ffffffH
	mov	edx, DWORD PTR [ecx+eax*4]
	mov	eax, DWORD PTR [edx+32]
	xor	eax, 134217728				; 08000000H
	jmp	SHORT $LN154@versplit
$LN155@versplit:
	and	eax, 134217727				; 07ffffffH
	mov	eax, DWORD PTR [ecx+eax*4]
	mov	eax, DWORD PTR [eax+28]
$LN154@versplit:
	mov	DWORD PTR _fe_stack$89567[ebp+20], eax
	mov	eax, 6
$LN591@versplit:
	mov	ebx, DWORD PTR _web+124
$LL41@versplit:

; 688  :     { fe = fe_stack[--stackcount];

	mov	esi, DWORD PTR _fe_stack$89567[ebp+eax*4-4]
	dec	eax

; 689  :       e_id = get_fe_edge(fe);

	mov	edx, esi
	and	edx, 134217727				; 07ffffffH
	mov	edi, esi
	mov	DWORD PTR _stackcount$89568[ebp], eax
	mov	eax, DWORD PTR [ecx+edx*4]
	and	edi, 134217728				; 08000000H
	xor	edi, DWORD PTR [eax+20]

; 690  :       if ( equal_id(get_edge_headv(e_id),new_v) )

	test	edi, 134217728				; 08000000H
	je	SHORT $LN161@versplit
	mov	edx, edi
	and	edx, 134217727				; 07ffffffH
	mov	eax, DWORD PTR [ebx+edx*4]
	mov	edx, DWORD PTR _web+216
	mov	ebx, DWORD PTR _dymem
	mov	edx, DWORD PTR [edx+ebx+304]
	mov	eax, DWORD PTR [eax+edx]
	jmp	SHORT $LN160@versplit
$LN161@versplit:
	mov	eax, edi
	and	eax, 134217727				; 07ffffffH
	mov	edx, DWORD PTR [ebx+eax*4]
	mov	eax, DWORD PTR _web+216
	mov	ebx, DWORD PTR _dymem
	add	edx, DWORD PTR [eax+ebx+304]
	mov	eax, DWORD PTR _web+636
	mov	eax, DWORD PTR [edx+eax*4]
$LN160@versplit:
	cmp	eax, DWORD PTR _new_v$[ebp]
	je	$LN602@versplit

; 691  :         continue;
; 692  :       remove_vertex_edge(old_v,inverse_id(e_id));

	mov	edx, DWORD PTR _old_v$[ebp]
	mov	ecx, edi
	xor	ecx, 134217728				; 08000000H
	push	ecx
	push	edx
	call	_remove_vertex_edge

; 693  :       set_edge_headv(e_id,new_v);

	mov	eax, DWORD PTR _new_v$[ebp]
	push	eax
	push	edi
	call	_set_edge_headv
	add	esp, 16					; 00000010H

; 694  : 
; 695  :       // add adjacent facet next edges
; 696  :       if ( !equal_id(fe,fe_a) && !equal_id(fe,fe_aa)
; 697  :             && !equal_id(fe,inverse_id(fe_b)) &&
; 698  :             !equal_id(fe,inverse_id(fe_bb)) )

	cmp	esi, DWORD PTR _fe_a$GSCopy$[ebp]
	je	$LN599@versplit
	cmp	esi, DWORD PTR _fe_aa$[ebp]
	je	$LN599@versplit
	mov	eax, DWORD PTR _fe_b$GSCopy$[ebp]
	xor	eax, 134217728				; 08000000H
	cmp	esi, eax
	je	$LN599@versplit
	mov	eax, DWORD PTR _fe_bb$[ebp]
	xor	eax, 134217728				; 08000000H
	cmp	esi, eax
	je	$LN599@versplit

; 690  :       if ( equal_id(get_edge_headv(e_id),new_v) )

	mov	ecx, DWORD PTR _dymem
	mov	edx, DWORD PTR _web+216
	mov	eax, DWORD PTR [edx+ecx+304]

; 699  :       {
; 700  :         facetedge_id start_fe = fe;

	mov	ecx, DWORD PTR _web+460
	mov	ebx, DWORD PTR _web+124
	mov	DWORD PTR _start_fe$89576[ebp], esi
	mov	DWORD PTR tv4917[ebp], eax
	npad	6
$LL37@versplit:

; 701  :         do
; 702  :         { facetedge_id next_fe = inverse_id(get_next_edge(fe));

	mov	eax, esi
	shr	eax, 27					; 0000001bH
	and	eax, 1
	mov	DWORD PTR tv5284[ebp], eax
	je	SHORT $LN165@versplit
	and	esi, 134217727				; 07ffffffH
	mov	esi, DWORD PTR [ecx+esi*4]
	mov	eax, DWORD PTR [esi+28]
	xor	eax, 134217728				; 08000000H
	jmp	SHORT $LN164@versplit
$LN165@versplit:
	and	esi, 134217727				; 07ffffffH
	mov	esi, DWORD PTR [ecx+esi*4]
	mov	eax, DWORD PTR [esi+32]
$LN164@versplit:
	xor	eax, 134217728				; 08000000H
	mov	edx, eax

; 703  :           edge_id next_e = get_fe_edge(next_fe);

	and	eax, 134217727				; 07ffffffH
	mov	edi, DWORD PTR [ecx+eax*4]
	mov	eax, edx
	and	eax, 134217728				; 08000000H
	xor	eax, DWORD PTR [edi+20]

; 704  :           if ( !equal_id(get_edge_headv(next_e),new_v) )

	test	eax, 134217728				; 08000000H
	je	SHORT $LN171@versplit
	mov	edi, DWORD PTR tv4917[ebp]
	and	eax, 134217727				; 07ffffffH
	mov	eax, DWORD PTR [ebx+eax*4]
	mov	eax, DWORD PTR [edi+eax]
	jmp	SHORT $LN170@versplit
$LN171@versplit:
	mov	edi, DWORD PTR _web+636
	and	eax, 134217727				; 07ffffffH
	mov	eax, DWORD PTR [ebx+eax*4]
	lea	eax, DWORD PTR [eax+edi*4]
	mov	edi, DWORD PTR tv4917[ebp]
	mov	eax, DWORD PTR [eax+edi]
$LN170@versplit:
	cmp	eax, DWORD PTR _new_v$[ebp]
	je	SHORT $LN635@versplit

; 705  :           { // add to stack
; 706  :             fe_stack[stackcount++] = next_fe;

	mov	eax, DWORD PTR _stackcount$89568[ebp]
	mov	DWORD PTR _fe_stack$89567[ebp+eax*4], edx
	inc	eax
	mov	DWORD PTR _stackcount$89568[ebp], eax
$LN635@versplit:

; 707  :           }
; 708  :           fe = get_next_facet(fe);

	cmp	DWORD PTR tv5284[ebp], 0
	je	SHORT $LN175@versplit
	mov	esi, DWORD PTR [esi+36]
	xor	esi, 134217728				; 08000000H
	jmp	SHORT $LN36@versplit
$LN175@versplit:
	mov	esi, DWORD PTR [esi+40]
$LN36@versplit:

; 709  :         } while ( !equal_id(fe,start_fe) );

	cmp	esi, DWORD PTR _start_fe$89576[ebp]
	jne	$LL37@versplit
	jmp	SHORT $LN35@versplit
$LN599@versplit:
	mov	ecx, DWORD PTR _web+460
$LN602@versplit:
	mov	ebx, DWORD PTR _web+124
$LN35@versplit:

; 686  :     }
; 687  :     while ( stackcount )

	mov	eax, DWORD PTR _stackcount$89568[ebp]
	test	eax, eax
	jne	$LL41@versplit

; 710  :       }
; 711  :     } 
; 712  :   }
; 713  : 
; 714  :   if ( this_septum_flag )

	cmp	DWORD PTR _this_septum_flag$[ebp], eax
	je	$LN33@versplit

; 715  :   {
; 716  :     /* create two new facets */
; 717  :     new_fa = dup_facet(get_fe_facet(fe_a));

	test	DWORD PTR _fe_a$GSCopy$[ebp], 268435456	; 10000000H
	jne	SHORT $LN179@versplit
	mov	eax, DWORD PTR _NULLFACET
	jmp	SHORT $LN614@versplit
$LN179@versplit:
	cmp	DWORD PTR tv4926[ebp], 0
	mov	edx, DWORD PTR tv4897[ebp]
	mov	eax, DWORD PTR [edx+ecx]
	mov	eax, DWORD PTR [eax+24]
	je	SHORT $LN614@versplit
	xor	eax, 134217728				; 08000000H
$LN614@versplit:
	push	eax
	call	_dup_facet
	mov	ebx, eax

; 718  :     set_original(new_fa,NULLID);

	mov	ecx, ebx
	shr	ecx, 29					; 0000001dH
	imul	ecx, 112				; 00000070H
	mov	eax, DWORD PTR _web[ecx+12]
	mov	edx, ebx
	and	edx, 134217727				; 07ffffffH
	mov	ecx, DWORD PTR [eax+edx*4]
	add	esp, 4

; 719  :     if ( valid_id(fe_b) )

	cmp	DWORD PTR tv5113[ebp], 0
	mov	DWORD PTR _new_fa$[ebp], ebx
	mov	DWORD PTR [ecx+20], 0
	je	SHORT $LN603@versplit

; 720  :     {
; 721  :        new_fb = dup_facet(get_fe_facet(fe_b));

	mov	ecx, DWORD PTR _fe_b$GSCopy$[ebp]
	mov	eax, DWORD PTR _web+460
	mov	edx, ecx
	and	edx, 134217727				; 07ffffffH
	mov	edx, DWORD PTR [eax+edx*4]
	mov	eax, DWORD PTR [edx+24]
	test	ecx, 134217728				; 08000000H
	je	SHORT $LN182@versplit
	xor	eax, 134217728				; 08000000H
$LN182@versplit:
	push	eax
	call	_dup_facet

; 722  :        set_original(new_fb,NULLID);

	mov	ecx, eax
	shr	ecx, 29					; 0000001dH
	imul	ecx, 112				; 00000070H
	mov	edx, DWORD PTR _web[ecx+12]
	mov	DWORD PTR _new_fb$[ebp], eax
	add	esp, 4
	and	eax, 134217727				; 07ffffffH
	mov	eax, DWORD PTR [edx+eax*4]
	mov	DWORD PTR [eax+20], 0
$LN603@versplit:

; 723  :     }
; 724  :   
; 725  :     /* create new facet-edges */
; 726  :     fe_a_e = new_facetedge(new_fa,new_e);

	mov	esi, DWORD PTR _new_e$[ebp]
	push	esi
	push	ebx
	call	_new_facetedge

; 727  :     fe_a_new = new_facetedge(new_fa,new_a);

	mov	ecx, DWORD PTR _new_a$[ebp]
	push	ecx
	push	ebx
	mov	edi, eax
	call	_new_facetedge

; 728  :     fe_a_old  = new_facetedge(new_fa,inverse_id(old_a));

	mov	edx, DWORD PTR tv4905[ebp]
	xor	edx, 134217728				; 08000000H
	push	edx
	push	ebx
	mov	DWORD PTR _fe_a_new$[ebp], eax
	call	_new_facetedge
	add	esp, 24					; 00000018H

; 729  :     if ( valid_id(fe_b) )

	cmp	DWORD PTR tv5113[ebp], 0
	mov	DWORD PTR _fe_a_old$[ebp], eax
	je	SHORT $LN604@versplit

; 730  :     {
; 731  :        fe_b_e = new_facetedge(new_fb,inverse_id(new_e));

	mov	ebx, DWORD PTR _new_fb$[ebp]
	mov	eax, esi
	xor	eax, 134217728				; 08000000H
	push	eax
	push	ebx
	call	_new_facetedge

; 732  :        fe_b_new = new_facetedge(new_fb,new_b);

	mov	ecx, DWORD PTR _new_b$[ebp]
	push	ecx
	push	ebx
	mov	DWORD PTR _fe_b_e$[ebp], eax
	call	_new_facetedge

; 733  :        fe_b_old  = new_facetedge(new_fb,inverse_id(old_b));

	mov	ebx, DWORD PTR _old_b$[ebp]
	mov	edx, ebx
	xor	edx, 134217728				; 08000000H
	mov	DWORD PTR _fe_b_new$[ebp], eax
	mov	eax, DWORD PTR _new_fb$[ebp]
	push	edx
	push	eax
	call	_new_facetedge
	add	esp, 24					; 00000018H
	mov	DWORD PTR _fe_b_old$[ebp], eax
	jmp	SHORT $LN31@versplit
$LN604@versplit:
	mov	ebx, DWORD PTR _old_b$[ebp]
$LN31@versplit:

; 734  :     }
; 735  :   
; 736  :     /* link elements to facet-edges */
; 737  :     set_edge_fe(old_a,inverse_id(fe_a_old)); 

	mov	eax, DWORD PTR _fe_a_old$[ebp]
	xor	eax, 134217728				; 08000000H
	test	DWORD PTR tv4905[ebp], 134217728	; 08000000H
	mov	DWORD PTR tv5358[ebp], eax
	je	SHORT $LN186@versplit
	xor	eax, 134217728				; 08000000H
$LN186@versplit:
	mov	ecx, DWORD PTR _web+124
	mov	edx, DWORD PTR tv5022[ebp]
	mov	ecx, DWORD PTR [edx+ecx]
	mov	DWORD PTR [ecx+28], eax

; 738  :     set_edge_fe(new_a,fe_a_new);

	mov	ecx, DWORD PTR _new_a$[ebp]
	mov	eax, DWORD PTR _global_timestamp
	inc	eax
	mov	edx, ecx
	shr	edx, 27					; 0000001bH
	and	edx, 1
	mov	DWORD PTR _global_timestamp, eax
	mov	DWORD PTR _top_timestamp, eax
	mov	eax, DWORD PTR _fe_a_new$[ebp]
	mov	DWORD PTR tv5364[ebp], edx
	je	SHORT $LN189@versplit
	xor	eax, 134217728				; 08000000H
$LN189@versplit:
	mov	edx, DWORD PTR _web+124
	and	ecx, 134217727				; 07ffffffH
	add	ecx, ecx
	add	ecx, ecx
	mov	DWORD PTR tv5368[ebp], ecx
	mov	ecx, DWORD PTR [ecx+edx]
	mov	DWORD PTR [ecx+28], eax
	mov	eax, DWORD PTR _global_timestamp
	inc	eax
	mov	DWORD PTR _global_timestamp, eax
	mov	DWORD PTR _top_timestamp, eax

; 739  :     set_edge_fe(new_e,fe_a_e);

	mov	eax, edi
	test	esi, 134217728				; 08000000H
	je	SHORT $LN192@versplit
	xor	eax, 134217728				; 08000000H
$LN192@versplit:
	mov	edx, DWORD PTR _web+124
	and	esi, 134217727				; 07ffffffH
	mov	ecx, DWORD PTR [edx+esi*4]

; 740  :     set_facet_fe(new_fa,fe_a_new);

	mov	edx, DWORD PTR _fe_a_new$[ebp]
	mov	DWORD PTR [ecx+28], eax
	mov	eax, DWORD PTR _global_timestamp
	inc	eax
	mov	DWORD PTR _global_timestamp, eax
	mov	DWORD PTR _top_timestamp, eax
	mov	eax, DWORD PTR _new_fa$[ebp]
	push	edx
	push	eax
	call	_set_facet_fe
	add	esp, 8

; 741  :     if ( valid_id(fe_b) )

	cmp	DWORD PTR tv5113[ebp], 0
	je	$LN617@versplit

; 742  :     {
; 743  :       set_edge_fe(old_b,inverse_id(fe_b_old)); 

	mov	eax, DWORD PTR _fe_b_old$[ebp]
	xor	eax, 134217728				; 08000000H
	test	ebx, 134217728				; 08000000H
	je	SHORT $LN195@versplit
	xor	eax, 134217728				; 08000000H
$LN195@versplit:
	mov	ecx, DWORD PTR _web+124
	and	ebx, 134217727				; 07ffffffH
	mov	edx, DWORD PTR [ecx+ebx*4]

; 744  :       set_edge_fe(new_b,fe_b_new);

	mov	ecx, DWORD PTR _fe_b_new$[ebp]
	mov	DWORD PTR [edx+28], eax
	mov	eax, DWORD PTR _global_timestamp
	mov	edx, DWORD PTR _new_b$[ebp]
	inc	eax
	mov	DWORD PTR _global_timestamp, eax
	mov	DWORD PTR _top_timestamp, eax
	mov	eax, ecx
	test	edx, 134217728				; 08000000H
	je	SHORT $LN198@versplit
	xor	eax, 134217728				; 08000000H
$LN198@versplit:
	mov	esi, DWORD PTR _web+124
	and	edx, 134217727				; 07ffffffH
	mov	edx, DWORD PTR [esi+edx*4]
	mov	DWORD PTR [edx+28], eax
	mov	eax, DWORD PTR _global_timestamp
	inc	eax
	mov	DWORD PTR _global_timestamp, eax
	mov	DWORD PTR _top_timestamp, eax

; 745  :       set_facet_fe(new_fb,fe_b_new);

	mov	eax, DWORD PTR _new_fb$[ebp]
	push	ecx
	push	eax
	call	_set_facet_fe
	add	esp, 8
$LN617@versplit:

; 746  :     }
; 747  :   
; 748  :     /* link edges around new facets */
; 749  :     set_next_edge(fe_a_e,fe_a_old);

	mov	eax, edi
	shr	eax, 28					; 0000001cH
	and	eax, 1
	mov	DWORD PTR tv5396[ebp], eax
	je	SHORT $LN618@versplit
	test	edi, 134217728				; 08000000H
	je	SHORT $LN202@versplit
	mov	edx, DWORD PTR _web+460
	mov	ecx, edi
	and	ecx, 134217727				; 07ffffffH
	mov	eax, DWORD PTR [edx+ecx*4]
	mov	ecx, DWORD PTR tv5358[ebp]
	mov	DWORD PTR [eax+28], ecx
$LN618@versplit:
	mov	edx, DWORD PTR _fe_a_old$[ebp]
$LN201@versplit:

; 750  :     set_next_edge(fe_a_old,fe_a_new);

	mov	eax, edx
	shr	eax, 28					; 0000001cH
	and	eax, 1
	mov	DWORD PTR tv5412[ebp], eax
	je	SHORT $LN619@versplit
	mov	ecx, edx
	test	edx, 134217728				; 08000000H
	je	SHORT $LN207@versplit
	mov	esi, DWORD PTR _fe_a_new$[ebp]
	mov	ebx, DWORD PTR _web+460
	mov	eax, esi
	xor	eax, 134217728				; 08000000H
	and	ecx, 134217727				; 07ffffffH
	mov	ecx, DWORD PTR [ebx+ecx*4]
	mov	DWORD PTR [ecx+28], eax
	mov	eax, DWORD PTR tv5412[ebp]
	jmp	SHORT $LN206@versplit

; 746  :     }
; 747  :   
; 748  :     /* link edges around new facets */
; 749  :     set_next_edge(fe_a_e,fe_a_old);

$LN202@versplit:
	mov	eax, DWORD PTR _web+460
	mov	edx, edi
	and	edx, 134217727				; 07ffffffH
	mov	ecx, DWORD PTR [eax+edx*4]
	mov	edx, DWORD PTR _fe_a_old$[ebp]
	mov	DWORD PTR [ecx+32], edx
	jmp	SHORT $LN201@versplit

; 750  :     set_next_edge(fe_a_old,fe_a_new);

$LN207@versplit:
	mov	esi, DWORD PTR _web+460
	and	ecx, 134217727				; 07ffffffH
	mov	ecx, DWORD PTR [esi+ecx*4]
	mov	esi, DWORD PTR _fe_a_new$[ebp]
	mov	DWORD PTR [ecx+32], esi
	jmp	SHORT $LN206@versplit
$LN619@versplit:
	mov	esi, DWORD PTR _fe_a_new$[ebp]
$LN206@versplit:

; 751  :     set_next_edge(fe_a_new,fe_a_e);

	mov	ecx, esi
	shr	ecx, 28					; 0000001cH
	and	ecx, 1
	mov	DWORD PTR tv5428[ebp], ecx
	je	SHORT $LN211@versplit
	mov	ebx, DWORD PTR _web+460
	test	esi, 134217728				; 08000000H
	je	SHORT $LN212@versplit
	mov	eax, edi
	xor	eax, 134217728				; 08000000H
	mov	ecx, esi
	and	ecx, 134217727				; 07ffffffH
	mov	ecx, DWORD PTR [ebx+ecx*4]
	mov	DWORD PTR [ecx+28], eax
	mov	ecx, DWORD PTR tv5428[ebp]
	jmp	SHORT $LN654@versplit
$LN212@versplit:
	mov	eax, esi
	and	eax, 134217727				; 07ffffffH
	mov	eax, DWORD PTR [ebx+eax*4]
	mov	DWORD PTR [eax+32], edi
$LN654@versplit:
	mov	eax, DWORD PTR tv5412[ebp]
$LN211@versplit:

; 752  :     set_prev_edge(fe_a_old,fe_a_e);

	test	eax, eax
	je	SHORT $LN644@versplit
	mov	ebx, DWORD PTR _web+460
	test	edx, 134217728				; 08000000H
	je	SHORT $LN217@versplit
	mov	eax, edi
	xor	eax, 134217728				; 08000000H
	mov	ecx, edx
	and	ecx, 134217727				; 07ffffffH
	mov	ecx, DWORD PTR [ebx+ecx*4]
	mov	DWORD PTR [ecx+32], eax
	mov	ecx, DWORD PTR tv5428[ebp]
	jmp	SHORT $LN216@versplit
$LN217@versplit:
	mov	eax, edx
	and	eax, 134217727				; 07ffffffH
	mov	eax, DWORD PTR [ebx+eax*4]
	mov	DWORD PTR [eax+28], edi
$LN216@versplit:
	mov	eax, DWORD PTR _global_timestamp
	inc	eax
	mov	DWORD PTR _global_timestamp, eax
	mov	DWORD PTR _top_timestamp, eax
$LN644@versplit:

; 753  :     set_prev_edge(fe_a_new,fe_a_old);

	test	ecx, ecx
	je	SHORT $LN645@versplit
	test	esi, 134217728				; 08000000H
	je	SHORT $LN222@versplit
	mov	edx, DWORD PTR _web+460
	mov	ecx, esi
	and	ecx, 134217727				; 07ffffffH
	mov	eax, DWORD PTR [edx+ecx*4]
	mov	ecx, DWORD PTR tv5358[ebp]
	mov	DWORD PTR [eax+32], ecx
	jmp	SHORT $LN221@versplit
$LN222@versplit:
	mov	ecx, DWORD PTR _web+460
	mov	eax, esi
	and	eax, 134217727				; 07ffffffH
	mov	eax, DWORD PTR [ecx+eax*4]
	mov	DWORD PTR [eax+28], edx
$LN221@versplit:
	mov	eax, DWORD PTR _global_timestamp
	inc	eax
	mov	DWORD PTR _global_timestamp, eax
	mov	DWORD PTR _top_timestamp, eax
$LN645@versplit:

; 754  :     set_prev_edge(fe_a_e,fe_a_new);

	cmp	DWORD PTR tv5396[ebp], 0
	je	SHORT $LN647@versplit
	test	edi, 134217728				; 08000000H
	je	SHORT $LN227@versplit
	mov	eax, DWORD PTR _web+460
	mov	ecx, esi
	xor	ecx, 134217728				; 08000000H
	mov	edx, edi
	and	edx, 134217727				; 07ffffffH
	mov	edx, DWORD PTR [eax+edx*4]
	mov	DWORD PTR [edx+32], ecx
	jmp	SHORT $LN226@versplit
$LN227@versplit:
	mov	ecx, DWORD PTR _web+460
	mov	eax, edi
	and	eax, 134217727				; 07ffffffH
	mov	edx, DWORD PTR [ecx+eax*4]
	mov	DWORD PTR [edx+28], esi
$LN226@versplit:
	mov	eax, DWORD PTR _global_timestamp
	inc	eax
	mov	DWORD PTR _global_timestamp, eax
	mov	DWORD PTR _top_timestamp, eax
$LN647@versplit:

; 755  :     if ( valid_id(fe_b) )

	cmp	DWORD PTR tv5113[ebp], 0

; 756  :     {
; 757  :        set_next_edge(fe_b_e,fe_b_new);

	mov	edx, DWORD PTR _fe_b_e$[ebp]
	je	$LN28@versplit
	mov	eax, edx
	shr	eax, 28					; 0000001cH
	and	eax, 1
	mov	DWORD PTR tv5447[ebp], eax
	je	SHORT $LN231@versplit
	test	edx, 134217728				; 08000000H
	je	SHORT $LN232@versplit
	mov	eax, DWORD PTR _fe_b_new$[ebp]
	mov	ebx, DWORD PTR _web+460
	xor	eax, 134217728				; 08000000H
	mov	ecx, edx
	and	ecx, 134217727				; 07ffffffH
	mov	ecx, DWORD PTR [ebx+ecx*4]
	mov	DWORD PTR [ecx+28], eax
	jmp	SHORT $LN231@versplit
$LN232@versplit:
	mov	ecx, DWORD PTR _web+460
	mov	eax, edx
	and	eax, 134217727				; 07ffffffH
	mov	eax, DWORD PTR [ecx+eax*4]
	mov	ecx, DWORD PTR _fe_b_new$[ebp]
	mov	DWORD PTR [eax+32], ecx
$LN231@versplit:

; 758  :        set_next_edge(fe_b_old,fe_b_e);

	mov	ecx, DWORD PTR _fe_b_old$[ebp]
	mov	ebx, ecx
	shr	ebx, 28					; 0000001cH
	and	ebx, 1
	mov	DWORD PTR tv5463[ebp], ebx
	je	SHORT $LN236@versplit
	test	ecx, 134217728				; 08000000H
	je	SHORT $LN237@versplit
	mov	esi, DWORD PTR _web+460
	mov	eax, edx
	xor	eax, 134217728				; 08000000H
	and	ecx, 134217727				; 07ffffffH
	mov	ecx, DWORD PTR [esi+ecx*4]
	mov	esi, DWORD PTR _fe_a_new$[ebp]
	mov	DWORD PTR [ecx+28], eax
	jmp	SHORT $LN236@versplit
$LN237@versplit:
	mov	eax, DWORD PTR _web+460
	and	ecx, 134217727				; 07ffffffH
	mov	ecx, DWORD PTR [eax+ecx*4]
	mov	DWORD PTR [ecx+32], edx
$LN236@versplit:

; 759  :        set_next_edge(fe_b_new,fe_b_old);

	mov	eax, DWORD PTR _fe_b_new$[ebp]
	mov	ecx, eax
	shr	ecx, 28					; 0000001cH
	and	ecx, 1
	je	SHORT $LN629@versplit
	test	eax, 134217728				; 08000000H
	je	SHORT $LN242@versplit
	mov	esi, DWORD PTR _fe_b_old$[ebp]
	mov	ebx, DWORD PTR _web+460
	xor	esi, 134217728				; 08000000H
	and	eax, 134217727				; 07ffffffH
	mov	eax, DWORD PTR [ebx+eax*4]
	mov	ebx, DWORD PTR tv5463[ebp]
	mov	DWORD PTR [eax+28], esi
	jmp	SHORT $LN655@versplit
$LN242@versplit:
	mov	esi, DWORD PTR _web+460
	and	eax, 134217727				; 07ffffffH
	mov	eax, DWORD PTR [esi+eax*4]
	mov	esi, DWORD PTR _fe_b_old$[ebp]
	mov	DWORD PTR [eax+32], esi
$LN655@versplit:
	mov	esi, DWORD PTR _fe_a_new$[ebp]
	mov	eax, DWORD PTR _fe_b_new$[ebp]
$LN629@versplit:

; 760  :        set_prev_edge(fe_b_old,fe_b_new);

	test	ebx, ebx
	je	SHORT $LN633@versplit
	mov	ebx, DWORD PTR _fe_b_old$[ebp]
	test	ebx, 134217728				; 08000000H
	je	SHORT $LN247@versplit
	mov	esi, DWORD PTR _web+460
	xor	eax, 134217728				; 08000000H
	and	ebx, 134217727				; 07ffffffH
	mov	esi, DWORD PTR [esi+ebx*4]
	mov	DWORD PTR [esi+32], eax
	mov	esi, DWORD PTR _fe_a_new$[ebp]
	jmp	SHORT $LN246@versplit
$LN247@versplit:
	mov	eax, DWORD PTR _web+460
	and	ebx, 134217727				; 07ffffffH
	mov	eax, DWORD PTR [eax+ebx*4]
	mov	ebx, DWORD PTR _fe_b_new$[ebp]
	mov	DWORD PTR [eax+28], ebx
$LN246@versplit:
	mov	eax, DWORD PTR _global_timestamp
	inc	eax
	mov	DWORD PTR _global_timestamp, eax
	mov	DWORD PTR _top_timestamp, eax
	mov	eax, DWORD PTR _fe_b_new$[ebp]
$LN633@versplit:

; 761  :        set_prev_edge(fe_b_new,fe_b_e);

	test	ecx, ecx
	je	SHORT $LN254@versplit
	test	eax, 134217728				; 08000000H
	je	SHORT $LN252@versplit
	mov	ecx, DWORD PTR _fe_b_new$[ebp]
	mov	ebx, DWORD PTR _web+460
	mov	eax, edx
	xor	eax, 134217728				; 08000000H
	and	ecx, 134217727				; 07ffffffH
	mov	ecx, DWORD PTR [ebx+ecx*4]
	mov	DWORD PTR [ecx+32], eax
	jmp	SHORT $LN251@versplit
$LN252@versplit:
	mov	ecx, DWORD PTR _web+460
	and	eax, 134217727				; 07ffffffH
	mov	eax, DWORD PTR [ecx+eax*4]
	mov	DWORD PTR [eax+28], edx
$LN251@versplit:
	mov	eax, DWORD PTR _global_timestamp
	inc	eax
	mov	DWORD PTR _global_timestamp, eax
	mov	DWORD PTR _top_timestamp, eax
$LN254@versplit:

; 762  :        set_prev_edge(fe_b_e,fe_b_old);

	cmp	DWORD PTR tv5447[ebp], 0
	je	SHORT $LN259@versplit
	test	edx, 134217728				; 08000000H
	je	SHORT $LN257@versplit
	mov	ecx, DWORD PTR _fe_b_old$[ebp]
	mov	ebx, DWORD PTR _web+460
	xor	ecx, 134217728				; 08000000H
	mov	eax, edx
	and	eax, 134217727				; 07ffffffH
	mov	eax, DWORD PTR [ebx+eax*4]
	mov	DWORD PTR [eax+32], ecx
	jmp	SHORT $LN256@versplit
$LN257@versplit:
	mov	eax, DWORD PTR _web+460
	mov	ecx, edx
	and	ecx, 134217727				; 07ffffffH
	mov	ecx, DWORD PTR [eax+ecx*4]
	mov	eax, DWORD PTR _fe_b_old$[ebp]
	mov	DWORD PTR [ecx+28], eax
$LN256@versplit:
	mov	eax, DWORD PTR _global_timestamp
	inc	eax
	mov	DWORD PTR _global_timestamp, eax
	mov	DWORD PTR _top_timestamp, eax
$LN259@versplit:

; 763  :     }
; 764  :   
; 765  :     /* link facets around edges */
; 766  :     
; 767  :     /* new middle edge */
; 768  :     if ( valid_id(fe_b) )

	cmp	DWORD PTR tv5113[ebp], 0
	je	$LN28@versplit

; 769  :     { set_next_facet(fe_a_e,inverse_id(fe_b_e));

	mov	ecx, edx
	xor	ecx, 134217728				; 08000000H
	cmp	DWORD PTR tv5396[ebp], 0
	je	SHORT $LN630@versplit
	test	edi, 134217728				; 08000000H
	je	SHORT $LN262@versplit
	mov	ebx, DWORD PTR _web+460
	mov	eax, ecx
	xor	eax, 134217728				; 08000000H
	mov	esi, edi
	and	esi, 134217727				; 07ffffffH
	mov	esi, DWORD PTR [ebx+esi*4]
	mov	DWORD PTR [esi+36], eax
	jmp	SHORT $LN630@versplit
$LN262@versplit:
	mov	esi, DWORD PTR _web+460
	mov	eax, edi
	and	eax, 134217727				; 07ffffffH
	mov	eax, DWORD PTR [esi+eax*4]
	mov	DWORD PTR [eax+40], ecx
$LN630@versplit:

; 770  :       set_next_facet(fe_b_e,inverse_id(fe_a_e));

	mov	ebx, edx
	mov	eax, edi
	shr	ebx, 28					; 0000001cH
	xor	eax, 134217728				; 08000000H
	and	ebx, 1
	mov	DWORD PTR tv5447[ebp], ebx
	je	SHORT $LN621@versplit
	mov	ebx, DWORD PTR _web+460
	test	edx, 134217728				; 08000000H
	je	SHORT $LN267@versplit
	mov	esi, eax
	xor	esi, 134217728				; 08000000H
	and	edx, 134217727				; 07ffffffH
	mov	edx, DWORD PTR [ebx+edx*4]
	mov	DWORD PTR [edx+36], esi
	mov	edx, DWORD PTR _fe_b_e$[ebp]
	jmp	SHORT $LN656@versplit
$LN267@versplit:
	mov	esi, edx
	and	esi, 134217727				; 07ffffffH
	mov	esi, DWORD PTR [ebx+esi*4]
	mov	DWORD PTR [esi+40], eax
$LN656@versplit:
	mov	ebx, DWORD PTR tv5447[ebp]
$LN621@versplit:

; 771  :       set_prev_facet(fe_a_e,inverse_id(fe_b_e));

	cmp	DWORD PTR tv5396[ebp], 0
	je	SHORT $LN624@versplit
	mov	esi, DWORD PTR _web+460
	test	edi, 134217728				; 08000000H
	je	SHORT $LN272@versplit
	xor	ecx, 134217728				; 08000000H
	and	edi, 134217727				; 07ffffffH
	mov	esi, DWORD PTR [esi+edi*4]
	mov	DWORD PTR [esi+40], ecx
	jmp	SHORT $LN271@versplit
$LN272@versplit:
	and	edi, 134217727				; 07ffffffH
	mov	esi, DWORD PTR [esi+edi*4]
	mov	DWORD PTR [esi+36], ecx
$LN271@versplit:
	mov	ecx, DWORD PTR _global_timestamp
	inc	ecx
	mov	DWORD PTR _global_timestamp, ecx
	mov	DWORD PTR _top_timestamp, ecx
$LN624@versplit:

; 772  :       set_prev_facet(fe_b_e,inverse_id(fe_a_e));

	test	ebx, ebx
	je	SHORT $LN625@versplit
	mov	ecx, DWORD PTR _web+460
	test	edx, 134217728				; 08000000H
	je	SHORT $LN277@versplit
	xor	eax, 134217728				; 08000000H
	and	edx, 134217727				; 07ffffffH
	mov	edx, DWORD PTR [ecx+edx*4]
	mov	DWORD PTR [edx+40], eax
	jmp	SHORT $LN276@versplit
$LN277@versplit:
	and	edx, 134217727				; 07ffffffH
	mov	edx, DWORD PTR [ecx+edx*4]
	mov	DWORD PTR [edx+36], eax
$LN276@versplit:
	mov	eax, DWORD PTR _global_timestamp
	inc	eax
	mov	DWORD PTR _global_timestamp, eax
	mov	DWORD PTR _top_timestamp, eax
$LN625@versplit:

; 773  :     }
; 774  :     else

	mov	esi, DWORD PTR _fe_a_new$[ebp]
$LN658@versplit:

; 777  :     }
; 778  :       
; 779  :     /* facet A old edge */
; 780  :     set_next_facet(fe_a_old,inverse_id(fe_a));

	mov	eax, DWORD PTR _fe_a$GSCopy$[ebp]
	mov	ecx, DWORD PTR tv5412[ebp]
	mov	ebx, DWORD PTR _fe_a_old$[ebp]
	xor	eax, 134217728				; 08000000H
	test	ecx, ecx
	je	$LN291@versplit
	mov	edi, DWORD PTR _web+460
	mov	edx, ebx
	test	ebx, 134217728				; 08000000H
	je	$LN292@versplit
	xor	eax, 134217728				; 08000000H
	and	edx, 134217727				; 07ffffffH
	mov	edx, DWORD PTR [edi+edx*4]
	mov	DWORD PTR [edx+36], eax
	jmp	$LN291@versplit
$LN28@versplit:

; 775  :     { set_next_facet(fe_a_e,fe_a_e);

	mov	ecx, DWORD PTR tv5396[ebp]
	test	ecx, ecx
	je	SHORT $LN658@versplit
	mov	eax, edi
	test	edi, 134217728				; 08000000H
	je	SHORT $LN282@versplit
	mov	ebx, DWORD PTR _web+460
	xor	eax, 134217728				; 08000000H
	mov	edx, edi
	and	edx, 134217727				; 07ffffffH
	mov	edx, DWORD PTR [ebx+edx*4]
	mov	DWORD PTR [edx+36], eax
	jmp	SHORT $LN631@versplit
$LN282@versplit:
	mov	edx, DWORD PTR _web+460
	and	eax, 134217727				; 07ffffffH
	mov	eax, DWORD PTR [edx+eax*4]
	mov	DWORD PTR [eax+40], edi
$LN631@versplit:

; 776  :       set_prev_facet(fe_a_e,fe_a_e);

	test	ecx, ecx
	je	$LN658@versplit
	mov	ecx, DWORD PTR _web+460
	mov	eax, edi
	test	edi, 134217728				; 08000000H
	je	SHORT $LN287@versplit
	xor	eax, 134217728				; 08000000H
	and	edi, 134217727				; 07ffffffH
	mov	edx, DWORD PTR [ecx+edi*4]
	mov	DWORD PTR [edx+40], eax
	jmp	SHORT $LN286@versplit
$LN287@versplit:
	and	eax, 134217727				; 07ffffffH
	mov	edx, DWORD PTR [ecx+eax*4]
	mov	DWORD PTR [edx+36], edi
$LN286@versplit:
	mov	eax, DWORD PTR _global_timestamp
	inc	eax
	mov	DWORD PTR _global_timestamp, eax
	mov	DWORD PTR _top_timestamp, eax
	jmp	$LN658@versplit

; 777  :     }
; 778  :       
; 779  :     /* facet A old edge */
; 780  :     set_next_facet(fe_a_old,inverse_id(fe_a));

$LN292@versplit:
	and	edx, 134217727				; 07ffffffH
	mov	edx, DWORD PTR [edi+edx*4]
	mov	DWORD PTR [edx+40], eax
$LN291@versplit:

; 781  :     set_prev_facet(fe_a_old,inverse_id(fe_aa));

	mov	eax, DWORD PTR _fe_aa$[ebp]
	xor	eax, 134217728				; 08000000H
	test	ecx, ecx
	je	SHORT $LN632@versplit
	test	ebx, 134217728				; 08000000H
	je	SHORT $LN297@versplit
	mov	edx, DWORD PTR _web+460
	xor	eax, 134217728				; 08000000H
	mov	ecx, ebx
	and	ecx, 134217727				; 07ffffffH
	mov	ecx, DWORD PTR [edx+ecx*4]
	mov	DWORD PTR [ecx+40], eax
	jmp	SHORT $LN296@versplit
$LN297@versplit:
	mov	ecx, DWORD PTR _web+460
	mov	edx, ebx
	and	edx, 134217727				; 07ffffffH
	mov	edx, DWORD PTR [ecx+edx*4]
	mov	DWORD PTR [edx+36], eax
$LN296@versplit:
	mov	eax, DWORD PTR _global_timestamp
	inc	eax
	mov	DWORD PTR _global_timestamp, eax
	mov	DWORD PTR _top_timestamp, eax
$LN632@versplit:

; 782  :   
; 783  :     /* facet A new edge */
; 784  :     if ( valence >= 3 )

	cmp	DWORD PTR _valence$[ebp], 3
	jl	$LN26@versplit

; 785  :     { set_next_facet(fe_a_new,get_next_facet(fe_a));

	cmp	DWORD PTR tv4926[ebp], 0
	mov	eax, DWORD PTR _web+460
	mov	ecx, DWORD PTR tv4897[ebp]
	mov	edx, DWORD PTR [ecx+eax]
	je	SHORT $LN302@versplit
	mov	ecx, DWORD PTR [edx+36]
	xor	ecx, 134217728				; 08000000H
	jmp	SHORT $LN301@versplit
$LN302@versplit:
	mov	ecx, DWORD PTR [edx+40]
$LN301@versplit:
	mov	edx, DWORD PTR tv5428[ebp]
	test	edx, edx
	je	SHORT $LN305@versplit
	mov	edi, esi
	test	esi, 134217728				; 08000000H
	je	SHORT $LN306@versplit
	xor	ecx, 134217728				; 08000000H
	and	edi, 134217727				; 07ffffffH
	mov	eax, DWORD PTR [eax+edi*4]
	mov	DWORD PTR [eax+36], ecx
	jmp	SHORT $LN659@versplit
$LN306@versplit:
	and	edi, 134217727				; 07ffffffH
	mov	eax, DWORD PTR [eax+edi*4]
	mov	DWORD PTR [eax+40], ecx
$LN659@versplit:
	mov	eax, DWORD PTR _web+460
$LN305@versplit:

; 786  :       set_prev_facet(fe_a_new,get_prev_facet(fe_aa));

	cmp	DWORD PTR tv5003[ebp], 0
	mov	ecx, DWORD PTR tv5006[ebp]
	mov	ecx, DWORD PTR [ecx+eax]
	je	SHORT $LN311@versplit
	mov	ecx, DWORD PTR [ecx+40]
	xor	ecx, 134217728				; 08000000H
	jmp	SHORT $LN310@versplit
$LN311@versplit:
	mov	ecx, DWORD PTR [ecx+36]
$LN310@versplit:
	test	edx, edx
	je	$LN327@versplit
	mov	edx, esi
	test	esi, 134217728				; 08000000H
	je	SHORT $LN315@versplit
	xor	ecx, 134217728				; 08000000H
	and	edx, 134217727				; 07ffffffH
	mov	eax, DWORD PTR [eax+edx*4]
	mov	DWORD PTR [eax+40], ecx
	jmp	$LN324@versplit
$LN315@versplit:
	and	edx, 134217727				; 07ffffffH
	mov	eax, DWORD PTR [eax+edx*4]
	mov	DWORD PTR [eax+36], ecx

; 787  :     }
; 788  :     else

	jmp	$LN324@versplit
$LN26@versplit:

; 789  :     { set_next_facet(fe_a_new,fe_a_new);

	mov	eax, DWORD PTR tv5428[ebp]
	test	eax, eax
	je	$LN598@versplit
	mov	ecx, esi
	test	esi, 134217728				; 08000000H
	je	SHORT $LN320@versplit
	mov	edi, DWORD PTR _web+460
	xor	ecx, 134217728				; 08000000H
	mov	edx, esi
	and	edx, 134217727				; 07ffffffH
	mov	edx, DWORD PTR [edi+edx*4]
	mov	DWORD PTR [edx+36], ecx
	jmp	SHORT $LN319@versplit
$LN320@versplit:
	mov	edx, DWORD PTR _web+460
	and	ecx, 134217727				; 07ffffffH
	mov	ecx, DWORD PTR [edx+ecx*4]
	mov	DWORD PTR [ecx+40], esi
$LN319@versplit:

; 790  :       set_prev_facet(fe_a_new,fe_a_new);

	test	eax, eax
	je	SHORT $LN598@versplit
	test	esi, 134217728				; 08000000H
	je	SHORT $LN325@versplit
	mov	ecx, DWORD PTR _web+460
	mov	edx, esi
	xor	edx, 134217728				; 08000000H
	mov	eax, esi
	and	eax, 134217727				; 07ffffffH
	mov	eax, DWORD PTR [ecx+eax*4]
	mov	DWORD PTR [eax+40], edx
	jmp	SHORT $LN324@versplit
$LN325@versplit:
	mov	edx, DWORD PTR _web+460
	mov	ecx, esi
	and	ecx, 134217727				; 07ffffffH
	mov	eax, DWORD PTR [edx+ecx*4]
	mov	DWORD PTR [eax+36], esi
$LN324@versplit:
	mov	eax, DWORD PTR _global_timestamp
	inc	eax
	mov	DWORD PTR _top_timestamp, eax
	mov	DWORD PTR _global_timestamp, eax
$LN598@versplit:

; 787  :     }
; 788  :     else

	mov	eax, DWORD PTR _web+460

; 790  :       set_prev_facet(fe_a_new,fe_a_new);

$LN327@versplit:

; 791  :     }
; 792  :   
; 793  :     /* reset old links */
; 794  :     set_next_facet(get_prev_facet(fe_a_old),fe_a_old);

	mov	ecx, ebx
	and	ecx, 134217727				; 07ffffffH
	mov	edi, ebx
	add	ecx, ecx
	shr	edi, 27					; 0000001bH
	add	ecx, ecx
	and	edi, 1
	mov	edx, DWORD PTR [ecx+eax]
	je	SHORT $LN330@versplit
	mov	edx, DWORD PTR [edx+40]
	xor	edx, 134217728				; 08000000H
	jmp	SHORT $LN329@versplit
$LN330@versplit:
	mov	edx, DWORD PTR [edx+36]
$LN329@versplit:
	test	edx, 268435456				; 10000000H
	je	SHORT $LN333@versplit
	test	edx, 134217728				; 08000000H
	je	SHORT $LN334@versplit
	and	edx, 134217727				; 07ffffffH
	mov	eax, DWORD PTR [eax+edx*4]
	mov	edx, DWORD PTR tv5358[ebp]
	mov	DWORD PTR [eax+36], edx
	jmp	SHORT $LN661@versplit
$LN334@versplit:
	and	edx, 134217727				; 07ffffffH
	mov	eax, DWORD PTR [eax+edx*4]
	mov	DWORD PTR [eax+40], ebx
$LN661@versplit:
	mov	eax, DWORD PTR _web+460
$LN333@versplit:

; 795  :     set_prev_facet(get_next_facet(fe_a_old),fe_a_old);

	test	edi, edi
	je	SHORT $LN339@versplit
	mov	ecx, DWORD PTR [ecx+eax]
	mov	ecx, DWORD PTR [ecx+36]
	xor	ecx, 134217728				; 08000000H
	jmp	SHORT $LN338@versplit
$LN339@versplit:
	mov	edx, DWORD PTR [ecx+eax]
	mov	ecx, DWORD PTR [edx+40]
$LN338@versplit:
	test	ecx, 268435456				; 10000000H
	je	SHORT $LN636@versplit
	test	ecx, 134217728				; 08000000H
	je	SHORT $LN343@versplit
	and	ecx, 134217727				; 07ffffffH
	mov	eax, DWORD PTR [eax+ecx*4]
	mov	ecx, DWORD PTR tv5358[ebp]
	mov	DWORD PTR [eax+40], ecx
	jmp	SHORT $LN342@versplit
$LN343@versplit:
	and	ecx, 134217727				; 07ffffffH
	mov	edx, DWORD PTR [eax+ecx*4]
	mov	DWORD PTR [edx+36], ebx
$LN342@versplit:
	mov	eax, DWORD PTR _global_timestamp
	inc	eax
	mov	DWORD PTR _global_timestamp, eax
	mov	DWORD PTR _top_timestamp, eax
	mov	eax, DWORD PTR _web+460
$LN636@versplit:

; 796  :     set_next_facet(get_prev_facet(fe_a_new),fe_a_new);

	mov	edi, esi
	shr	edi, 27					; 0000001bH
	and	edi, 1
	mov	DWORD PTR tv5431[ebp], edi
	mov	edx, esi
	je	SHORT $LN348@versplit
	and	edx, 134217727				; 07ffffffH
	add	edx, edx
	add	edx, edx
	mov	ecx, DWORD PTR [edx+eax]
	mov	ecx, DWORD PTR [ecx+40]
	xor	ecx, 134217728				; 08000000H
	jmp	SHORT $LN662@versplit
$LN348@versplit:
	and	edx, 134217727				; 07ffffffH
	add	edx, edx
	add	edx, edx
	mov	ecx, DWORD PTR [edx+eax]
	mov	ecx, DWORD PTR [ecx+36]
$LN662@versplit:
	mov	DWORD PTR tv5435[ebp], edx
	test	ecx, 268435456				; 10000000H
	je	SHORT $LN351@versplit
	test	ecx, 134217728				; 08000000H
	je	SHORT $LN352@versplit
	mov	ebx, esi
	xor	ebx, 134217728				; 08000000H
	and	ecx, 134217727				; 07ffffffH
	mov	eax, DWORD PTR [eax+ecx*4]
	mov	DWORD PTR [eax+36], ebx
	jmp	SHORT $LN663@versplit
$LN352@versplit:
	and	ecx, 134217727				; 07ffffffH
	mov	ecx, DWORD PTR [eax+ecx*4]
	mov	DWORD PTR [ecx+40], esi
$LN663@versplit:
	mov	eax, DWORD PTR _web+460
$LN351@versplit:

; 797  :     set_prev_facet(get_next_facet(fe_a_new),fe_a_new);

	test	edi, edi
	je	SHORT $LN357@versplit
	mov	edx, DWORD PTR [edx+eax]
	mov	ecx, DWORD PTR [edx+36]
	xor	ecx, 134217728				; 08000000H
	jmp	SHORT $LN356@versplit
$LN357@versplit:
	mov	ecx, DWORD PTR [edx+eax]
	mov	ecx, DWORD PTR [ecx+40]
$LN356@versplit:
	test	ecx, 268435456				; 10000000H
	je	SHORT $LN648@versplit
	test	ecx, 134217728				; 08000000H
	je	SHORT $LN361@versplit
	xor	esi, 134217728				; 08000000H
	and	ecx, 134217727				; 07ffffffH
	mov	edx, DWORD PTR [eax+ecx*4]
	mov	DWORD PTR [edx+40], esi
	jmp	SHORT $LN360@versplit
$LN361@versplit:
	and	ecx, 134217727				; 07ffffffH
	mov	eax, DWORD PTR [eax+ecx*4]
	mov	DWORD PTR [eax+36], esi
$LN360@versplit:
	mov	eax, DWORD PTR _global_timestamp
	inc	eax
	mov	DWORD PTR _global_timestamp, eax
	mov	DWORD PTR _top_timestamp, eax
	mov	eax, DWORD PTR _web+460
$LN648@versplit:

; 798  :   
; 799  :     /* reset edges of facet-edges around new edge */
; 800  :     fe = first_fe = get_edge_fe(new_a);

	mov	ecx, DWORD PTR tv5368[ebp]
	mov	edx, DWORD PTR _web+124
	mov	ecx, DWORD PTR [ecx+edx]
	test	ecx, ecx
	jne	SHORT $LN366@versplit
	xor	ebx, ebx
	jmp	SHORT $LN367@versplit
$LN366@versplit:
	cmp	DWORD PTR tv5364[ebp], 0
	mov	ecx, DWORD PTR [ecx+28]
	je	SHORT $LN365@versplit
	xor	ecx, 134217728				; 08000000H
$LN365@versplit:
	mov	ebx, ecx
$LN367@versplit:
	mov	ecx, ebx

; 801  :     if ( valid_id(fe) ) do

	test	ebx, 268435456				; 10000000H
	je	SHORT $LN21@versplit
	mov	edi, DWORD PTR _new_a$[ebp]
	npad	3
$LL23@versplit:

; 802  :     { set_fe_edge(fe,new_a);

	mov	edx, ecx
	shr	edx, 27					; 0000001bH
	and	edx, 1
	mov	esi, edi
	je	SHORT $LN369@versplit
	xor	esi, 134217728				; 08000000H
$LN369@versplit:
	and	ecx, 134217727				; 07ffffffH
	add	ecx, ecx
	add	ecx, ecx
	mov	eax, DWORD PTR [ecx+eax]
	mov	DWORD PTR [eax+20], esi
	mov	eax, DWORD PTR _global_timestamp
	inc	eax
	mov	DWORD PTR _global_timestamp, eax
	mov	DWORD PTR _top_timestamp, eax

; 803  :       fe = get_next_facet(fe);

	mov	eax, DWORD PTR _web+460
	test	edx, edx
	je	SHORT $LN373@versplit
	mov	ecx, DWORD PTR [ecx+eax]
	mov	ecx, DWORD PTR [ecx+36]
	xor	ecx, 134217728				; 08000000H
	jmp	SHORT $LN22@versplit
$LN373@versplit:
	mov	edx, DWORD PTR [ecx+eax]
	mov	ecx, DWORD PTR [edx+40]
$LN22@versplit:

; 804  :     } while ( valid_id(fe) && !equal_id(fe,first_fe) );

	test	ecx, 268435456				; 10000000H
	je	SHORT $LN21@versplit
	cmp	ecx, ebx
	jne	SHORT $LL23@versplit
$LN21@versplit:

; 805  :   
; 806  :     if ( valid_id(fe_b) )

	cmp	DWORD PTR tv5113[ebp], 0
	je	$LN15@versplit

; 807  :     { /* facet B old edge */
; 808  :       set_next_facet(fe_b_old,inverse_id(fe_b));

	mov	esi, DWORD PTR _fe_b_old$[ebp]
	mov	ebx, DWORD PTR _fe_b$GSCopy$[ebp]
	mov	edx, esi
	mov	ecx, ebx
	shr	edx, 28					; 0000001cH
	xor	ecx, 134217728				; 08000000H
	and	edx, 1
	je	SHORT $LN637@versplit
	mov	edi, esi
	test	esi, 134217728				; 08000000H
	je	SHORT $LN377@versplit
	xor	ecx, 134217728				; 08000000H
	and	edi, 134217727				; 07ffffffH
	mov	eax, DWORD PTR [eax+edi*4]
	mov	DWORD PTR [eax+36], ecx
	jmp	SHORT $LN664@versplit
$LN377@versplit:
	and	edi, 134217727				; 07ffffffH
	mov	eax, DWORD PTR [eax+edi*4]
	mov	DWORD PTR [eax+40], ecx
$LN664@versplit:
	mov	eax, DWORD PTR _web+460
$LN637@versplit:

; 809  :       set_prev_facet(fe_b_old,inverse_id(fe_bb));

	mov	edi, DWORD PTR _fe_bb$[ebp]
	mov	ecx, edi
	xor	ecx, 134217728				; 08000000H
	test	edx, edx
	je	SHORT $LN384@versplit
	mov	edx, esi
	test	esi, 134217728				; 08000000H
	je	SHORT $LN382@versplit
	xor	ecx, 134217728				; 08000000H
	and	edx, 134217727				; 07ffffffH
	mov	eax, DWORD PTR [eax+edx*4]
	mov	DWORD PTR [eax+40], ecx
	jmp	SHORT $LN381@versplit
$LN382@versplit:
	and	edx, 134217727				; 07ffffffH
	mov	eax, DWORD PTR [eax+edx*4]
	mov	DWORD PTR [eax+36], ecx
$LN381@versplit:
	mov	eax, DWORD PTR _global_timestamp
	inc	eax
	mov	DWORD PTR _global_timestamp, eax
	mov	DWORD PTR _top_timestamp, eax
	mov	eax, DWORD PTR _web+460
$LN384@versplit:

; 810  :   
; 811  :       /* facet B new edge */
; 812  :       set_next_facet(fe_b_new,get_next_facet(fe_b));

	test	ebx, 134217728				; 08000000H
	je	SHORT $LN387@versplit
	and	ebx, 134217727				; 07ffffffH
	mov	ecx, DWORD PTR [eax+ebx*4]
	mov	ecx, DWORD PTR [ecx+36]
	xor	ecx, 134217728				; 08000000H
	jmp	SHORT $LN386@versplit
$LN387@versplit:
	and	ebx, 134217727				; 07ffffffH
	mov	edx, DWORD PTR [eax+ebx*4]
	mov	ecx, DWORD PTR [edx+40]
$LN386@versplit:
	mov	ebx, DWORD PTR _fe_b_new$[ebp]
	mov	edx, ebx
	shr	edx, 28					; 0000001cH
	and	edx, 1
	je	SHORT $LN390@versplit
	mov	edi, ebx
	test	ebx, 134217728				; 08000000H
	je	SHORT $LN391@versplit
	xor	ecx, 134217728				; 08000000H
	and	edi, 134217727				; 07ffffffH
	mov	eax, DWORD PTR [eax+edi*4]
	mov	DWORD PTR [eax+36], ecx
	jmp	SHORT $LN665@versplit
$LN391@versplit:
	and	edi, 134217727				; 07ffffffH
	mov	eax, DWORD PTR [eax+edi*4]
	mov	DWORD PTR [eax+40], ecx
$LN665@versplit:
	mov	edi, DWORD PTR _fe_bb$[ebp]
	mov	eax, DWORD PTR _web+460
$LN390@versplit:

; 813  :       set_prev_facet(fe_b_new,get_prev_facet(fe_bb));

	test	edi, 134217728				; 08000000H
	je	SHORT $LN396@versplit
	and	edi, 134217727				; 07ffffffH
	mov	ecx, DWORD PTR [eax+edi*4]
	mov	ecx, DWORD PTR [ecx+40]
	xor	ecx, 134217728				; 08000000H
	jmp	SHORT $LN395@versplit
$LN396@versplit:
	and	edi, 134217727				; 07ffffffH
	mov	ecx, DWORD PTR [eax+edi*4]
	mov	ecx, DWORD PTR [ecx+36]
$LN395@versplit:
	test	edx, edx
	je	SHORT $LN402@versplit
	mov	edx, ebx
	test	ebx, 134217728				; 08000000H
	je	SHORT $LN400@versplit
	xor	ecx, 134217728				; 08000000H
	and	edx, 134217727				; 07ffffffH
	mov	eax, DWORD PTR [eax+edx*4]
	mov	DWORD PTR [eax+40], ecx
	jmp	SHORT $LN399@versplit
$LN400@versplit:
	and	edx, 134217727				; 07ffffffH
	mov	eax, DWORD PTR [eax+edx*4]
	mov	DWORD PTR [eax+36], ecx
$LN399@versplit:
	mov	eax, DWORD PTR _global_timestamp
	inc	eax
	mov	DWORD PTR _global_timestamp, eax
	mov	DWORD PTR _top_timestamp, eax
	mov	eax, DWORD PTR _web+460
$LN402@versplit:

; 814  :   
; 815  :       /* reset old links */
; 816  :       set_next_facet(get_prev_facet(fe_b_old),fe_b_old);

	mov	edx, esi
	and	edx, 134217727				; 07ffffffH
	mov	edi, esi
	add	edx, edx
	shr	edi, 27					; 0000001bH
	add	edx, edx
	and	edi, 1
	mov	ecx, DWORD PTR [edx+eax]
	je	SHORT $LN405@versplit
	mov	ecx, DWORD PTR [ecx+40]
	xor	ecx, 134217728				; 08000000H
	jmp	SHORT $LN404@versplit
$LN405@versplit:
	mov	ecx, DWORD PTR [ecx+36]
$LN404@versplit:
	test	ecx, 268435456				; 10000000H
	je	SHORT $LN408@versplit
	test	ecx, 134217728				; 08000000H
	je	SHORT $LN409@versplit
	mov	ebx, esi
	xor	ebx, 134217728				; 08000000H
	and	ecx, 134217727				; 07ffffffH
	mov	eax, DWORD PTR [eax+ecx*4]
	mov	DWORD PTR [eax+36], ebx
	mov	ebx, DWORD PTR _fe_b_new$[ebp]
	jmp	SHORT $LN666@versplit
$LN409@versplit:
	and	ecx, 134217727				; 07ffffffH
	mov	ecx, DWORD PTR [eax+ecx*4]
	mov	DWORD PTR [ecx+40], esi
$LN666@versplit:
	mov	eax, DWORD PTR _web+460
$LN408@versplit:

; 817  :       set_prev_facet(get_next_facet(fe_b_old),fe_b_old);

	test	edi, edi
	je	SHORT $LN414@versplit
	mov	edx, DWORD PTR [edx+eax]
	mov	ecx, DWORD PTR [edx+36]
	xor	ecx, 134217728				; 08000000H
	jmp	SHORT $LN413@versplit
$LN414@versplit:
	mov	ecx, DWORD PTR [edx+eax]
	mov	ecx, DWORD PTR [ecx+40]
$LN413@versplit:
	test	ecx, 268435456				; 10000000H
	je	SHORT $LN420@versplit
	test	ecx, 134217728				; 08000000H
	je	SHORT $LN418@versplit
	xor	esi, 134217728				; 08000000H
	and	ecx, 134217727				; 07ffffffH
	mov	edx, DWORD PTR [eax+ecx*4]
	mov	DWORD PTR [edx+40], esi
	jmp	SHORT $LN417@versplit
$LN418@versplit:
	and	ecx, 134217727				; 07ffffffH
	mov	eax, DWORD PTR [eax+ecx*4]
	mov	DWORD PTR [eax+36], esi
$LN417@versplit:
	mov	eax, DWORD PTR _global_timestamp
	inc	eax
	mov	DWORD PTR _global_timestamp, eax
	mov	DWORD PTR _top_timestamp, eax
	mov	eax, DWORD PTR _web+460
$LN420@versplit:

; 818  :       set_next_facet(get_prev_facet(fe_b_new),fe_b_new);

	mov	edx, ebx
	and	edx, 134217727				; 07ffffffH
	mov	edi, ebx
	add	edx, edx
	shr	edi, 27					; 0000001bH
	add	edx, edx
	and	edi, 1
	mov	ecx, DWORD PTR [edx+eax]
	je	SHORT $LN423@versplit
	mov	ecx, DWORD PTR [ecx+40]
	xor	ecx, 134217728				; 08000000H
	jmp	SHORT $LN422@versplit
$LN423@versplit:
	mov	ecx, DWORD PTR [ecx+36]
$LN422@versplit:
	test	ecx, 268435456				; 10000000H
	je	SHORT $LN639@versplit
	test	ecx, 134217728				; 08000000H
	je	SHORT $LN427@versplit
	mov	esi, ebx
	xor	esi, 134217728				; 08000000H
	and	ecx, 134217727				; 07ffffffH
	mov	eax, DWORD PTR [eax+ecx*4]
	mov	DWORD PTR [eax+36], esi
	jmp	SHORT $LN667@versplit
$LN427@versplit:
	and	ecx, 134217727				; 07ffffffH
	mov	ecx, DWORD PTR [eax+ecx*4]
	mov	DWORD PTR [ecx+40], ebx
$LN667@versplit:
	mov	eax, DWORD PTR _web+460
$LN639@versplit:

; 819  :       set_prev_facet(get_next_facet(fe_b_new),fe_b_new);

	test	edi, edi
	je	SHORT $LN432@versplit
	mov	edx, DWORD PTR [edx+eax]
	mov	ecx, DWORD PTR [edx+36]
	xor	ecx, 134217728				; 08000000H
	jmp	SHORT $LN431@versplit
$LN432@versplit:
	mov	ecx, DWORD PTR [edx+eax]
	mov	ecx, DWORD PTR [ecx+40]
$LN431@versplit:
	test	ecx, 268435456				; 10000000H
	je	SHORT $LN646@versplit
	test	ecx, 134217728				; 08000000H
	je	SHORT $LN436@versplit
	xor	ebx, 134217728				; 08000000H
	and	ecx, 134217727				; 07ffffffH
	mov	edx, DWORD PTR [eax+ecx*4]
	mov	DWORD PTR [edx+40], ebx
	jmp	SHORT $LN435@versplit
$LN436@versplit:
	and	ecx, 134217727				; 07ffffffH
	mov	eax, DWORD PTR [eax+ecx*4]
	mov	DWORD PTR [eax+36], ebx
$LN435@versplit:
	mov	eax, DWORD PTR _global_timestamp
	inc	eax
	mov	DWORD PTR _global_timestamp, eax
	mov	DWORD PTR _top_timestamp, eax
	mov	eax, DWORD PTR _web+460
$LN646@versplit:

; 820  :   
; 821  :       /* reset edges of facet-edges around new edge */
; 822  :       fe = first_fe = get_edge_fe(new_b);

	mov	edx, DWORD PTR _new_b$[ebp]
	mov	esi, DWORD PTR _web+124
	mov	ecx, edx
	and	ecx, 134217727				; 07ffffffH
	mov	ecx, DWORD PTR [esi+ecx*4]
	test	ecx, ecx
	jne	SHORT $LN441@versplit
	xor	ebx, ebx
	jmp	SHORT $LN442@versplit
$LN441@versplit:
	mov	ecx, DWORD PTR [ecx+28]
	test	edx, 134217728				; 08000000H
	je	SHORT $LN440@versplit
	xor	ecx, 134217728				; 08000000H
$LN440@versplit:
	mov	ebx, ecx
$LN442@versplit:
	mov	ecx, ebx

; 823  :       if ( valid_id(fe) ) do

	test	ebx, 268435456				; 10000000H
	je	SHORT $LN15@versplit
	mov	edi, DWORD PTR _new_b$[ebp]
$LL17@versplit:

; 824  :       { set_fe_edge(fe,new_b);

	mov	edx, ecx
	shr	edx, 27					; 0000001bH
	and	edx, 1
	mov	esi, edi
	je	SHORT $LN444@versplit
	xor	esi, 134217728				; 08000000H
$LN444@versplit:
	and	ecx, 134217727				; 07ffffffH
	add	ecx, ecx
	add	ecx, ecx
	mov	eax, DWORD PTR [ecx+eax]
	mov	DWORD PTR [eax+20], esi
	mov	eax, DWORD PTR _global_timestamp
	inc	eax
	mov	DWORD PTR _global_timestamp, eax
	mov	DWORD PTR _top_timestamp, eax

; 825  :         fe = get_next_facet(fe);

	mov	eax, DWORD PTR _web+460
	test	edx, edx
	je	SHORT $LN448@versplit
	mov	ecx, DWORD PTR [ecx+eax]
	mov	ecx, DWORD PTR [ecx+36]
	xor	ecx, 134217728				; 08000000H
	jmp	SHORT $LN16@versplit
$LN448@versplit:
	mov	edx, DWORD PTR [ecx+eax]
	mov	ecx, DWORD PTR [edx+40]
$LN16@versplit:

; 826  :       } while ( valid_id(fe) && !equal_id(fe,first_fe) );

	test	ecx, 268435456				; 10000000H
	je	SHORT $LN15@versplit
	cmp	ecx, ebx
	jne	SHORT $LL17@versplit
$LN15@versplit:

; 827  :     }
; 828  :   
; 829  :     /* set new facet bodies */
; 830  :     fe = get_next_facet(fe_a_new);

	cmp	DWORD PTR tv5431[ebp], 0
	mov	edi, DWORD PTR tv5435[ebp]
	je	SHORT $LN452@versplit
	mov	ecx, DWORD PTR [edi+eax]
	mov	ecx, DWORD PTR [ecx+36]
	xor	ecx, 134217728				; 08000000H
	jmp	SHORT $LN451@versplit
$LN452@versplit:
	mov	edx, DWORD PTR [edi+eax]
	mov	ecx, DWORD PTR [edx+40]
$LN451@versplit:

; 831  :     b_id = get_facet_body(get_fe_facet(fe));

	test	ecx, 268435456				; 10000000H
	jne	SHORT $LN456@versplit
	mov	eax, DWORD PTR _NULLFACET
	jmp	SHORT $LN455@versplit
$LN456@versplit:
	mov	edx, ecx
	and	edx, 134217727				; 07ffffffH
	mov	eax, DWORD PTR [eax+edx*4]
	mov	eax, DWORD PTR [eax+24]
	test	ecx, 134217728				; 08000000H
	je	SHORT $LN455@versplit
	xor	eax, 134217728				; 08000000H
$LN455@versplit:
	cmp	DWORD PTR _web+400, 0
	jne	SHORT $LN462@versplit
	xor	esi, esi
	jmp	SHORT $LN459@versplit
$LN462@versplit:
	test	eax, 268435456				; 10000000H
	jne	SHORT $LN461@versplit
	xor	esi, esi
	jmp	SHORT $LN459@versplit
$LN461@versplit:
	mov	ecx, DWORD PTR _web+236
	test	eax, 134217728				; 08000000H
	je	SHORT $LN460@versplit
	and	eax, 134217727				; 07ffffffH
	mov	edx, DWORD PTR [ecx+eax*4]
	mov	eax, DWORD PTR _web+328
	mov	ecx, DWORD PTR _dymem
	mov	eax, DWORD PTR [eax+ecx+784]
	mov	esi, DWORD PTR [edx+eax+4]
	jmp	SHORT $LN459@versplit
$LN460@versplit:
	and	eax, 134217727				; 07ffffffH
	mov	edx, DWORD PTR [ecx+eax*4]
	mov	eax, DWORD PTR _web+328
	mov	ecx, DWORD PTR _dymem
	mov	eax, DWORD PTR [eax+ecx+784]
	mov	esi, DWORD PTR [edx+eax]
$LN459@versplit:

; 832  :     set_facet_body(inverse_id(new_fa),b_id);

	mov	ebx, DWORD PTR _new_fa$[ebp]
	mov	ecx, ebx
	xor	ecx, 134217728				; 08000000H
	push	esi
	push	ecx
	call	_set_facet_body
	add	esp, 8

; 833  :     if ( valid_id(fe_b) )

	cmp	DWORD PTR tv5113[ebp], 0
	je	SHORT $LN623@versplit

; 834  :        set_facet_body(inverse_id(new_fb),b_id);

	mov	edx, DWORD PTR _new_fb$[ebp]
	xor	edx, 134217728				; 08000000H
	push	esi
	push	edx
	call	_set_facet_body
	add	esp, 8
$LN623@versplit:

; 835  :     fe = inverse_id(get_prev_facet(fe_a_new));

	cmp	DWORD PTR tv5431[ebp], 0
	mov	ecx, DWORD PTR _web+460
	je	SHORT $LN466@versplit
	mov	eax, DWORD PTR [edi+ecx]
	mov	eax, DWORD PTR [eax+40]
	xor	eax, 134217728				; 08000000H
	jmp	SHORT $LN465@versplit
$LN466@versplit:
	mov	edx, DWORD PTR [edi+ecx]
	mov	eax, DWORD PTR [edx+36]
$LN465@versplit:
	xor	eax, 134217728				; 08000000H

; 836  :     b_id = get_facet_body(get_fe_facet(fe));

	test	eax, 268435456				; 10000000H
	jne	SHORT $LN470@versplit
	mov	eax, DWORD PTR _NULLFACET
	jmp	SHORT $LN471@versplit
$LN470@versplit:
	mov	edx, eax
	and	edx, 134217727				; 07ffffffH
	mov	ecx, DWORD PTR [ecx+edx*4]
	mov	ecx, DWORD PTR [ecx+24]
	test	eax, 134217728				; 08000000H
	je	SHORT $LN469@versplit
	xor	ecx, 134217728				; 08000000H
$LN469@versplit:
	mov	eax, ecx
$LN471@versplit:
	cmp	DWORD PTR _web+400, 0
	jne	SHORT $LN476@versplit
	xor	esi, esi
	jmp	SHORT $LN473@versplit
$LN476@versplit:
	test	eax, 268435456				; 10000000H
	jne	SHORT $LN475@versplit
	xor	esi, esi
	jmp	SHORT $LN473@versplit
$LN475@versplit:
	mov	edx, DWORD PTR _web+236
	mov	ecx, DWORD PTR _web+328
	test	eax, 134217728				; 08000000H
	je	SHORT $LN474@versplit
	and	eax, 134217727				; 07ffffffH
	mov	eax, DWORD PTR [edx+eax*4]
	mov	edx, DWORD PTR _dymem
	mov	ecx, DWORD PTR [ecx+edx+784]
	mov	esi, DWORD PTR [eax+ecx+4]
	jmp	SHORT $LN473@versplit
$LN474@versplit:
	and	eax, 134217727				; 07ffffffH
	mov	eax, DWORD PTR [edx+eax*4]
	mov	edx, DWORD PTR _dymem
	mov	ecx, DWORD PTR [ecx+edx+784]
	mov	esi, DWORD PTR [eax+ecx]
$LN473@versplit:

; 837  :     set_facet_body(new_fa,b_id);

	push	esi
	push	ebx
	call	_set_facet_body

; 838  :     if ( valid_id(fe_b) )

	mov	edi, DWORD PTR tv5113[ebp]
	add	esp, 8
	test	edi, edi
	je	SHORT $LN640@versplit

; 839  :        set_facet_body(new_fb,b_id);

	mov	edx, DWORD PTR _new_fb$[ebp]
	push	esi
	push	edx
	call	_set_facet_body
	add	esp, 8
$LN640@versplit:

; 840  : 
; 841  :     /* Tension, if phases */
; 842  :     if ( phase_flag )

	cmp	DWORD PTR _phase_flag, 0
	je	SHORT $LN641@versplit

; 843  :     { set_f_phase_density(new_fa);

	push	ebx
	call	_set_f_phase_density
	add	esp, 4

; 844  :       if ( valid_id(fe_b) )

	test	edi, edi
	je	SHORT $LN641@versplit

; 845  :         set_f_phase_density(new_fb); 

	mov	eax, DWORD PTR _new_fb$[ebp]
	push	eax
	call	_set_f_phase_density
	add	esp, 4
$LN641@versplit:

; 846  :     }
; 847  : 
; 848  :     /* set velocity, so can tell edge is supposed to grow */
; 849  :     { REAL *velocity;
; 850  :       velocity = get_velocity(old_v);

	mov	eax, DWORD PTR _old_v$[ebp]
	mov	ecx, DWORD PTR _web+12
	mov	edx, DWORD PTR _dymem
	and	eax, 134217727				; 07ffffffH
	mov	eax, DWORD PTR [ecx+eax*4]
	mov	ecx, DWORD PTR _web+104
	add	eax, DWORD PTR [ecx+edx+1024]

; 851  :       for ( i = 0 ; i < SDIM ; i++ )

	mov	edx, DWORD PTR _web+616
	xor	ecx, ecx
	test	edx, edx
	jle	SHORT $LN605@versplit
	mov	esi, OFFSET _new_displacement
	sub	esi, eax
	npad	1
$LL9@versplit:

; 852  :          velocity[i] = -new_displacement[i];

	fld	QWORD PTR [esi+eax]
	inc	ecx
	fchs
	add	eax, 8
	fstp	QWORD PTR [eax-8]
	mov	edx, DWORD PTR _web+616
	cmp	ecx, edx
	jl	SHORT $LL9@versplit
$LN605@versplit:

; 853  :       velocity = get_velocity(new_v);

	mov	ecx, DWORD PTR _web+12
	mov	eax, DWORD PTR tv4936[ebp]
	mov	eax, DWORD PTR [eax+ecx]
	mov	ecx, DWORD PTR _web+104
	mov	esi, DWORD PTR _dymem
	add	eax, DWORD PTR [ecx+esi+1024]

; 854  :       for ( i = 0 ; i < SDIM ; i++ )

	xor	ecx, ecx
	test	edx, edx
	jle	$LN557@versplit
	mov	edx, OFFSET _new_displacement
	sub	edx, eax
	npad	7
$LL6@versplit:

; 855  :          velocity[i] = new_displacement[i];

	fld	QWORD PTR [eax+edx]
	inc	ecx
	fstp	QWORD PTR [eax]
	add	eax, 8
	cmp	ecx, DWORD PTR _web+616
	jl	SHORT $LL6@versplit
	pop	edi
	pop	esi
	pop	ebx

; 889  :     }
; 890  :   }
; 891  : } // end versplit()

	mov	ecx, DWORD PTR __$ArrayPad$[ebp]
	xor	ecx, ebp
	call	@__security_check_cookie@4
	mov	esp, ebp
	pop	ebp
	ret	0
$LN33@versplit:

; 856  :     }
; 857  :   } /* end if this_septum_flag */
; 858  :   else
; 859  :   { /* no septum, so just reset facetedge links */
; 860  :     
; 861  :     facetedge_id fe_a_next = get_next_facet(fe_a);

	mov	ebx, DWORD PTR tv4926[ebp]
	test	ebx, ebx
	je	SHORT $LN480@versplit
	mov	edx, DWORD PTR tv4897[ebp]
	mov	esi, DWORD PTR [edx+ecx]
	mov	edx, DWORD PTR [esi+36]
	xor	edx, 134217728				; 08000000H
	jmp	SHORT $LN479@versplit
$LN480@versplit:
	mov	eax, DWORD PTR tv4897[ebp]
	mov	esi, DWORD PTR [eax+ecx]
	mov	edx, DWORD PTR [esi+40]
$LN479@versplit:

; 862  :     facetedge_id fe_aa_prev = get_prev_facet(fe_aa);

	cmp	DWORD PTR tv5003[ebp], 0
	mov	edi, DWORD PTR tv5006[ebp]
	mov	eax, DWORD PTR [edi+ecx]
	je	SHORT $LN484@versplit
	mov	eax, DWORD PTR [eax+40]
	xor	eax, 134217728				; 08000000H
	jmp	SHORT $LN483@versplit
$LN484@versplit:
	mov	eax, DWORD PTR [eax+36]
$LN483@versplit:

; 863  :     if ( !equal_id(fe_a_next,fe_aa) )

	cmp	edx, DWORD PTR _fe_aa$[ebp]
	je	$LN606@versplit

; 864  :     {
; 865  :       set_next_facet(fe_a,fe_aa);

	test	DWORD PTR _fe_a$GSCopy$[ebp], 268435456	; 10000000H
	je	SHORT $LN628@versplit
	mov	ecx, DWORD PTR _fe_aa$[ebp]
	test	ebx, ebx
	je	SHORT $LN488@versplit
	xor	ecx, 134217728				; 08000000H
	mov	DWORD PTR [esi+36], ecx
	jmp	SHORT $LN668@versplit
$LN488@versplit:
	mov	DWORD PTR [esi+40], ecx
$LN668@versplit:
	mov	ecx, DWORD PTR _web+460
$LN628@versplit:

; 866  :       set_prev_facet(fe_aa,fe_a);

	test	DWORD PTR _fe_aa$[ebp], 268435456	; 10000000H
	je	SHORT $LN615@versplit
	cmp	DWORD PTR tv5003[ebp], 0
	mov	esi, DWORD PTR _fe_a$GSCopy$[ebp]
	mov	ecx, DWORD PTR [edi+ecx]
	je	SHORT $LN493@versplit
	xor	esi, 134217728				; 08000000H
	mov	DWORD PTR [ecx+40], esi
	jmp	SHORT $LN492@versplit
$LN493@versplit:
	mov	DWORD PTR [ecx+36], esi
$LN492@versplit:
	mov	ecx, DWORD PTR _global_timestamp
	inc	ecx
	mov	DWORD PTR _global_timestamp, ecx
	mov	DWORD PTR _top_timestamp, ecx
	mov	ecx, DWORD PTR _web+460
$LN615@versplit:

; 867  :       set_next_facet(fe_aa_prev,fe_a_next);

	test	eax, 268435456				; 10000000H
	je	SHORT $LN616@versplit
	test	eax, 134217728				; 08000000H
	je	SHORT $LN498@versplit
	mov	esi, edx
	xor	esi, 134217728				; 08000000H
	mov	edi, eax
	and	edi, 134217727				; 07ffffffH
	mov	ecx, DWORD PTR [ecx+edi*4]
	mov	DWORD PTR [ecx+36], esi
	jmp	SHORT $LN669@versplit
$LN498@versplit:
	mov	esi, eax
	and	esi, 134217727				; 07ffffffH
	mov	ecx, DWORD PTR [ecx+esi*4]
	mov	DWORD PTR [ecx+40], edx
$LN669@versplit:
	mov	ecx, DWORD PTR _web+460
$LN616@versplit:

; 868  :       set_prev_facet(fe_a_next,fe_aa_prev);

	test	edx, 268435456				; 10000000H
	je	SHORT $LN649@versplit
	test	edx, 134217728				; 08000000H
	je	SHORT $LN503@versplit
	mov	esi, eax
	xor	esi, 134217728				; 08000000H
	mov	edi, edx
	and	edi, 134217727				; 07ffffffH
	mov	ecx, DWORD PTR [ecx+edi*4]
	mov	DWORD PTR [ecx+40], esi
	jmp	SHORT $LN502@versplit
$LN503@versplit:
	mov	esi, edx
	and	esi, 134217727				; 07ffffffH
	mov	ecx, DWORD PTR [ecx+esi*4]
	mov	DWORD PTR [ecx+36], eax
$LN502@versplit:
	mov	ecx, DWORD PTR _global_timestamp
	inc	ecx
	mov	DWORD PTR _global_timestamp, ecx
	mov	DWORD PTR _top_timestamp, ecx
	mov	ecx, DWORD PTR _web+460
$LN649@versplit:

; 869  :       set_fe_edge(fe_a_next,new_a);

	mov	esi, DWORD PTR _new_a$[ebp]
	mov	edi, esi
	test	edx, 134217728				; 08000000H
	je	SHORT $LN507@versplit
	xor	edi, 134217728				; 08000000H
$LN507@versplit:
	mov	ebx, edx
	and	ebx, 134217727				; 07ffffffH
	mov	ecx, DWORD PTR [ecx+ebx*4]
	mov	DWORD PTR [ecx+20], edi
	mov	ecx, DWORD PTR _global_timestamp
	inc	ecx
	mov	DWORD PTR _global_timestamp, ecx
	mov	DWORD PTR _top_timestamp, ecx

; 870  :       set_fe_edge(fe_aa_prev,new_a);

	mov	ecx, esi
	test	eax, 134217728				; 08000000H
	je	SHORT $LN510@versplit
	xor	ecx, 134217728				; 08000000H
$LN510@versplit:
	mov	edi, DWORD PTR _web+460
	and	eax, 134217727				; 07ffffffH
	mov	eax, DWORD PTR [edi+eax*4]
	mov	DWORD PTR [eax+20], ecx
	mov	eax, DWORD PTR _global_timestamp
	inc	eax

; 871  :       set_edge_fe(old_a,fe_a);

	test	DWORD PTR tv4905[ebp], 134217728	; 08000000H
	mov	DWORD PTR _global_timestamp, eax
	mov	DWORD PTR _top_timestamp, eax
	mov	eax, DWORD PTR _fe_a$GSCopy$[ebp]
	je	SHORT $LN513@versplit
	xor	eax, 134217728				; 08000000H
$LN513@versplit:
	mov	ecx, DWORD PTR _web+124
	mov	edi, DWORD PTR tv5022[ebp]
	mov	ecx, DWORD PTR [edi+ecx]
	mov	DWORD PTR [ecx+28], eax
	mov	eax, DWORD PTR _global_timestamp
	inc	eax
	mov	DWORD PTR _global_timestamp, eax
	mov	DWORD PTR _top_timestamp, eax

; 872  :       set_edge_fe(new_a,fe_a_next);

	test	esi, 134217728				; 08000000H
	je	SHORT $LN516@versplit
	xor	edx, 134217728				; 08000000H
$LN516@versplit:
	mov	eax, DWORD PTR _web+124
	and	esi, 134217727				; 07ffffffH
	mov	ecx, DWORD PTR [eax+esi*4]
	mov	DWORD PTR [ecx+28], edx
	mov	eax, DWORD PTR _global_timestamp
	inc	eax
	mov	DWORD PTR _global_timestamp, eax
	mov	DWORD PTR _top_timestamp, eax
$LN606@versplit:

; 873  :     }
; 874  :     set_edge_headv(old_a,new_v);

	mov	edx, DWORD PTR _new_v$[ebp]
	mov	eax, DWORD PTR tv4905[ebp]
	push	edx
	push	eax
	call	_set_edge_headv
	add	esp, 8

; 875  : 
; 876  :   
; 877  :     if ( valid_id(fe_b) )

	cmp	DWORD PTR tv5113[ebp], 0
	je	$LN557@versplit

; 878  :     { facetedge_id fe_b_next = get_next_facet(fe_b);

	mov	ebx, DWORD PTR _fe_b$GSCopy$[ebp]
	mov	eax, ebx
	shr	eax, 27					; 0000001bH
	and	eax, 1
	mov	DWORD PTR tv5126[ebp], eax
	mov	eax, DWORD PTR _web+460
	je	SHORT $LN520@versplit
	mov	ecx, ebx
	and	ecx, 134217727				; 07ffffffH
	mov	edx, DWORD PTR [eax+ecx*4]
	mov	edi, DWORD PTR [edx+36]
	xor	edi, 134217728				; 08000000H
	jmp	SHORT $LN519@versplit
$LN520@versplit:
	mov	edx, ebx
	and	edx, 134217727				; 07ffffffH
	mov	edx, DWORD PTR [eax+edx*4]
	mov	edi, DWORD PTR [edx+40]
$LN519@versplit:

; 879  :       facetedge_id fe_bb_prev = get_prev_facet(fe_bb);

	mov	ecx, DWORD PTR _fe_bb$[ebp]
	mov	esi, ecx
	shr	esi, 27					; 0000001bH
	and	esi, 1
	mov	DWORD PTR tv5233[ebp], esi
	je	SHORT $LN524@versplit
	and	ecx, 134217727				; 07ffffffH
	add	ecx, ecx
	add	ecx, ecx
	mov	eax, DWORD PTR [ecx+eax]
	mov	eax, DWORD PTR [eax+40]
	xor	eax, 134217728				; 08000000H
	jmp	SHORT $LN523@versplit
$LN524@versplit:
	and	ecx, 134217727				; 07ffffffH
	add	ecx, ecx
	add	ecx, ecx
	mov	eax, DWORD PTR [ecx+eax]
	mov	eax, DWORD PTR [eax+36]
$LN523@versplit:

; 880  :       set_next_facet(fe_b,fe_bb);

	cmp	DWORD PTR tv5126[ebp], 0
	mov	esi, DWORD PTR _fe_bb$[ebp]
	je	SHORT $LN528@versplit
	xor	esi, 134217728				; 08000000H
	mov	DWORD PTR [edx+36], esi
	jmp	SHORT $LN527@versplit
$LN528@versplit:
	mov	DWORD PTR [edx+40], esi
$LN527@versplit:

; 881  :       set_prev_facet(fe_bb,fe_b);

	test	DWORD PTR _fe_bb$[ebp], 268435456	; 10000000H
	je	SHORT $LN626@versplit
	cmp	DWORD PTR tv5233[ebp], 0
	je	SHORT $LN533@versplit
	mov	esi, DWORD PTR _web+460
	mov	ecx, DWORD PTR [ecx+esi]
	mov	edx, ebx
	xor	edx, 134217728				; 08000000H
	mov	DWORD PTR [ecx+40], edx
	jmp	SHORT $LN532@versplit
$LN533@versplit:
	mov	edx, DWORD PTR _web+460
	mov	ecx, DWORD PTR [ecx+edx]
	mov	DWORD PTR [ecx+36], ebx
$LN532@versplit:
	mov	ecx, DWORD PTR _global_timestamp
	inc	ecx
	mov	DWORD PTR _global_timestamp, ecx
	mov	DWORD PTR _top_timestamp, ecx
$LN626@versplit:

; 882  :       set_next_facet(fe_bb_prev,fe_b_next);

	test	eax, 268435456				; 10000000H
	je	SHORT $LN627@versplit
	test	eax, 134217728				; 08000000H
	je	SHORT $LN538@versplit
	mov	esi, DWORD PTR _web+460
	mov	edx, edi
	xor	edx, 134217728				; 08000000H
	mov	ecx, eax
	and	ecx, 134217727				; 07ffffffH
	mov	ecx, DWORD PTR [esi+ecx*4]
	mov	DWORD PTR [ecx+36], edx
	jmp	SHORT $LN627@versplit
$LN538@versplit:
	mov	ecx, DWORD PTR _web+460
	mov	edx, eax
	and	edx, 134217727				; 07ffffffH
	mov	edx, DWORD PTR [ecx+edx*4]
	mov	DWORD PTR [edx+40], edi
$LN627@versplit:

; 883  :       set_prev_facet(fe_b_next,fe_bb_prev);

	test	edi, 268435456				; 10000000H
	je	SHORT $LN545@versplit
	test	edi, 134217728				; 08000000H
	je	SHORT $LN543@versplit
	mov	esi, DWORD PTR _web+460
	mov	ecx, eax
	xor	ecx, 134217728				; 08000000H
	mov	edx, edi
	and	edx, 134217727				; 07ffffffH
	mov	edx, DWORD PTR [esi+edx*4]
	mov	DWORD PTR [edx+40], ecx
	jmp	SHORT $LN542@versplit
$LN543@versplit:
	mov	edx, DWORD PTR _web+460
	mov	ecx, edi
	and	ecx, 134217727				; 07ffffffH
	mov	ecx, DWORD PTR [edx+ecx*4]
	mov	DWORD PTR [ecx+36], eax
$LN542@versplit:
	mov	ecx, DWORD PTR _global_timestamp
	inc	ecx
	mov	DWORD PTR _global_timestamp, ecx
	mov	DWORD PTR _top_timestamp, ecx
$LN545@versplit:

; 884  :       set_fe_edge(fe_b_next,new_b);

	mov	ebx, DWORD PTR _new_b$[ebp]
	mov	ecx, ebx
	test	edi, 134217728				; 08000000H
	je	SHORT $LN547@versplit
	xor	ecx, 134217728				; 08000000H
$LN547@versplit:
	mov	esi, DWORD PTR _web+460
	mov	edx, edi
	and	edx, 134217727				; 07ffffffH
	mov	edx, DWORD PTR [esi+edx*4]
	mov	DWORD PTR [edx+20], ecx
	mov	ecx, DWORD PTR _global_timestamp
	inc	ecx
	mov	DWORD PTR _global_timestamp, ecx
	mov	DWORD PTR _top_timestamp, ecx

; 885  :       set_fe_edge(fe_bb_prev,new_b);

	mov	ecx, ebx
	test	eax, 134217728				; 08000000H
	je	SHORT $LN550@versplit
	xor	ecx, 134217728				; 08000000H
$LN550@versplit:
	mov	edx, DWORD PTR _web+460

; 886  :       set_edge_tailv(old_b,new_v);

	mov	esi, DWORD PTR _old_b$[ebp]
	and	eax, 134217727				; 07ffffffH
	mov	eax, DWORD PTR [edx+eax*4]
	mov	DWORD PTR [eax+20], ecx
	mov	eax, DWORD PTR _global_timestamp
	mov	ecx, DWORD PTR _new_v$[ebp]
	inc	eax
	push	ecx
	push	esi
	mov	DWORD PTR _global_timestamp, eax
	mov	DWORD PTR _top_timestamp, eax
	call	_set_edge_tailv

; 887  :       set_edge_fe(old_b,fe_b);

	mov	eax, DWORD PTR _fe_b$GSCopy$[ebp]
	add	esp, 8
	test	esi, 134217728				; 08000000H
	je	SHORT $LN607@versplit
	xor	eax, 134217728				; 08000000H
$LN607@versplit:
	mov	edx, DWORD PTR _web+124
	and	esi, 134217727				; 07ffffffH
	mov	ecx, DWORD PTR [edx+esi*4]
	mov	DWORD PTR [ecx+28], eax
	mov	eax, DWORD PTR _global_timestamp
	inc	eax
	mov	DWORD PTR _global_timestamp, eax
	mov	DWORD PTR _top_timestamp, eax

; 888  :       set_edge_fe(new_b,fe_b_next);

	test	ebx, 134217728				; 08000000H
	je	SHORT $LN556@versplit
	xor	edi, 134217728				; 08000000H
$LN556@versplit:
	mov	edx, DWORD PTR _web+124
	and	ebx, 134217727				; 07ffffffH
	mov	eax, DWORD PTR [edx+ebx*4]
	mov	DWORD PTR [eax+28], edi
	mov	eax, DWORD PTR _global_timestamp
	inc	eax
	mov	DWORD PTR _global_timestamp, eax
	mov	DWORD PTR _top_timestamp, eax
$LN557@versplit:

; 889  :     }
; 890  :   }
; 891  : } // end versplit()

	mov	ecx, DWORD PTR __$ArrayPad$[ebp]
	pop	edi
	pop	esi
	xor	ecx, ebp
	pop	ebx
	call	@__security_check_cookie@4
	mov	esp, ebp
	pop	ebp
	ret	0
_versplit ENDP
_TEXT	ENDS
PUBLIC	??_C@_0CM@CNLGNLJN@Popping?5valence?52?5edge?5?$CFs?5on?5a?5c@ ; `string'
PUBLIC	??_C@_00CNPNBAHC@?$AA@				; `string'
PUBLIC	??_C@_02DPKJAMEF@?$CFd?$AA@			; `string'
PUBLIC	__real@0000000000000000
PUBLIC	__$ArrayPad$
PUBLIC	_two_split
EXTRN	_outstring:PROC
EXTRN	_msg:DWORD
EXTRN	_sprintf:PROC
EXTRN	_elnames:BYTE
EXTRN	_verbose_flag:DWORD
EXTRN	_dot:PROC
EXTRN	_get_facet_normal:PROC
;	COMDAT ??_C@_0CM@CNLGNLJN@Popping?5valence?52?5edge?5?$CFs?5on?5a?5c@
; File c:\levolver\yonkang-sefit\levolver\ev_ogl\inline.h
CONST	SEGMENT
??_C@_0CM@CNLGNLJN@Popping?5valence?52?5edge?5?$CFs?5on?5a?5c@ DB 'Poppin'
	DB	'g valence 2 edge %s on a constraint.', 0aH, 00H ; `string'
CONST	ENDS
;	COMDAT ??_C@_00CNPNBAHC@?$AA@
CONST	SEGMENT
??_C@_00CNPNBAHC@?$AA@ DB 00H				; `string'
CONST	ENDS
;	COMDAT ??_C@_02DPKJAMEF@?$CFd?$AA@
CONST	SEGMENT
??_C@_02DPKJAMEF@?$CFd?$AA@ DB '%d', 00H		; `string'
CONST	ENDS
;	COMDAT __real@0000000000000000
CONST	SEGMENT
__real@0000000000000000 DQ 00000000000000000r	; 0
; Function compile flags: /Ogtp
; File c:\levolver\yonkang-sefit\levolver\ev_ogl\popfilm.c
CONST	ENDS
;	COMDAT _two_split
_TEXT	SEGMENT
_fe_c$89722 = -184					; size = 4
$T93460 = -180						; size = 4
_new_tail$89732 = -180					; size = 4
_tailsplitflag$ = -176					; size = 4
_headsplitflag$ = -172					; size = 4
tv1932 = -168						; size = 4
tv1722 = -168						; size = 4
_i$ = -164						; size = 4
tv1925 = -160						; size = 4
tv1955 = -156						; size = 4
_old_head$89738 = -156					; size = 4
_old_tail$89731 = -156					; size = 4
_splitcount$ = -152					; size = 4
_headsplitcount$ = -152					; size = 4
tv1941 = -148						; size = 4
_new_head$89739 = -148					; size = 4
_tailsplitcount$ = -148					; size = 4
tv1943 = -144						; size = 4
_stopflag$ = -144					; size = 4
_normal$89713 = -140					; size = 48
_normala$89714 = -92					; size = 48
_tailsplitlist$ = -84					; size = 40
_headsplitlist$ = -44					; size = 40
__$ArrayPad$ = -4					; size = 4
_key_fe$ = 8						; size = 4
_this_septum_flag$ = 12					; size = 4
_two_split PROC						; COMDAT

; 910  : {

	push	ebp
	mov	ebp, esp
	sub	esp, 184				; 000000b8H
	mov	eax, DWORD PTR ___security_cookie
	xor	eax, ebp
	mov	DWORD PTR __$ArrayPad$[ebp], eax
	push	ebx

; 911  :   facetedge_id headsplitlist[10];
; 912  :   int headsplitcount = 0;
; 913  :   int headsplitflag = 0; /* whether to split end vertex */
; 914  :   facetedge_id tailsplitlist[10];
; 915  :   int tailsplitcount = 0;
; 916  :   int tailsplitflag = 0; /* 7hether to split end vertex */
; 917  :   facetedge_id fe_a,fe_aa,fe_aaa;
; 918  :   int stopflag;
; 919  :   int popped = 0;
; 920  :   int splitcount;
; 921  :   int i;
; 922  : 
; 923  :   /* See how far potential split can be traced in each direction,
; 924  :      checking that Y split is not more suitable all the way.
; 925  :    */
; 926  : 
; 927  :   /* Try forward */
; 928  :   fe_a = key_fe;

	mov	ebx, DWORD PTR _key_fe$[ebp]
	xor	eax, eax
	push	esi
	push	edi

; 929  :   headsplitflag = 1;
; 930  :   for (stopflag=0;!stopflag;)

	mov	edi, DWORD PTR _web+460
	mov	DWORD PTR _headsplitcount$[ebp], eax
	mov	DWORD PTR _tailsplitcount$[ebp], eax
	mov	DWORD PTR _headsplitflag$[ebp], 1
	mov	DWORD PTR _stopflag$[ebp], eax
	npad	3
$LL55@two_split:

; 931  :   { int head_degfree;
; 932  :     int aa_degfree;
; 933  : 
; 934  :     headsplitlist[headsplitcount++] = fe_a;

	mov	eax, DWORD PTR _headsplitcount$[ebp]

; 935  : 
; 936  :     /* test head vertex */
; 937  :     head_degfree = vertex_degfree(get_fe_headv(fe_a));

	mov	edx, DWORD PTR _web+124
	mov	DWORD PTR _headsplitlist$[ebp+eax*4], ebx
	inc	eax
	mov	DWORD PTR _headsplitcount$[ebp], eax
	mov	eax, ebx
	and	eax, 134217727				; 07ffffffH
	mov	ecx, DWORD PTR [edi+eax*4]
	mov	eax, ebx
	and	eax, 134217728				; 08000000H
	xor	eax, DWORD PTR [ecx+20]
	mov	ecx, DWORD PTR _web+216
	test	eax, 134217728				; 08000000H
	je	SHORT $LN63@two_split
	and	eax, 134217727				; 07ffffffH
	mov	eax, DWORD PTR [edx+eax*4]
	mov	edx, DWORD PTR _dymem
	mov	ecx, DWORD PTR [ecx+edx+304]
	mov	eax, DWORD PTR [eax+ecx]
	jmp	SHORT $LN62@two_split
$LN63@two_split:
	and	eax, 134217727				; 07ffffffH
	mov	eax, DWORD PTR [edx+eax*4]
	mov	edx, DWORD PTR _dymem
	add	eax, DWORD PTR [ecx+edx+304]
	mov	ecx, DWORD PTR _web+636
	mov	eax, DWORD PTR [eax+ecx*4]
$LN62@two_split:
	push	eax
	call	_vertex_degfree
	add	esp, 4

; 938  :     if ( head_degfree == 0 )

	test	eax, eax
	je	$LN229@two_split

; 941  :       break;
; 942  :     }
; 943  :   
; 944  :     /* find next wall edge forward */
; 945  :     fe_aaa = inverse_id(fe_a);

	mov	esi, ebx
	xor	esi, 134217728				; 08000000H
	npad	7
$LL52@two_split:

; 946  :     do 
; 947  :     { 
; 948  :       fe_aa = inverse_id(get_next_edge(fe_aaa));

	test	esi, 134217728				; 08000000H
	je	SHORT $LN67@two_split
	and	esi, 134217727				; 07ffffffH
	mov	edx, DWORD PTR [edi+esi*4]
	mov	ebx, DWORD PTR [edx+28]
	xor	ebx, 134217728				; 08000000H
	jmp	SHORT $LN66@two_split
$LN67@two_split:
	and	esi, 134217727				; 07ffffffH
	mov	eax, DWORD PTR [edi+esi*4]
	mov	ebx, DWORD PTR [eax+32]
$LN66@two_split:
	xor	ebx, 134217728				; 08000000H

; 949  :       fe_aaa = get_next_facet(fe_aa);

	test	ebx, 134217728				; 08000000H
	je	SHORT $LN71@two_split
	mov	ecx, ebx
	and	ecx, 134217727				; 07ffffffH
	mov	ecx, DWORD PTR [edi+ecx*4]
	mov	esi, DWORD PTR [ecx+36]
	xor	esi, 134217728				; 08000000H
	jmp	SHORT $LN70@two_split
$LN71@two_split:
	mov	edx, ebx
	and	edx, 134217727				; 07ffffffH
	mov	ecx, DWORD PTR [edi+edx*4]
	mov	esi, DWORD PTR [ecx+40]
$LN70@two_split:

; 950  :       if ( !equal_id(fe_aa,get_next_facet(fe_aaa))  )

	mov	eax, esi
	and	eax, 134217727				; 07ffffffH
	mov	edx, DWORD PTR [edi+eax*4]
	test	esi, 134217728				; 08000000H
	je	SHORT $LN75@two_split
	mov	eax, DWORD PTR [edx+36]
	xor	eax, 134217728				; 08000000H
	jmp	SHORT $LN74@two_split
$LN75@two_split:
	mov	eax, DWORD PTR [edx+40]
$LN74@two_split:
	cmp	ebx, eax
	jne	SHORT $LN226@two_split

; 963  :       }
; 964  :       /* now have valence 2 */
; 965  :       aa_degfree = edge_degfree(get_fe_edge(fe_aa));

	mov	eax, ebx
	and	eax, 134217728				; 08000000H
	cmp	ebx, esi
	je	SHORT $LN227@two_split
	xor	eax, DWORD PTR [ecx+20]
	push	eax
	call	_edge_degfree
	add	esp, 4

; 966  :       if ( aa_degfree == 2 )

	cmp	eax, 2
	je	SHORT $LN228@two_split

; 971  :         break;
; 972  :       }
; 973  :       else if ( aa_degfree != 3 )

	cmp	eax, 3
	je	$LL52@two_split

; 974  :       { /* end of the line  */
; 975  :         stopflag = 1;
; 976  :       }
; 977  :       
; 978  :     } while ( aa_degfree == 3 );

	jmp	$LN43@two_split
$LN226@two_split:

; 951  :       { /* run into valence more than 2, can't split head */
; 952  :         stopflag = 1;
; 953  :         headsplitflag = 0;

	mov	DWORD PTR _headsplitflag$[ebp], 0

; 954  :         break;

	jmp	$LN43@two_split
$LN227@two_split:

; 955  :       }
; 956  :       if ( equal_id(fe_aa,fe_aaa) )
; 957  :       { /* valence 1, could still split head */
; 958  :         aa_degfree = edge_degfree(get_fe_edge(fe_aa));

	mov	ecx, ebx
	and	ecx, 134217727				; 07ffffffH
	mov	edx, DWORD PTR [edi+ecx*4]
	xor	eax, DWORD PTR [edx+20]
	push	eax
	call	_edge_degfree

; 959  :         if ( aa_degfree < 2 ) headsplitflag = 0;

	xor	ecx, ecx
	add	esp, 4
	cmp	eax, 2
	setge	cl
	mov	DWORD PTR _headsplitflag$[ebp], ecx

; 960  :         else headsplitflag = 1;
; 961  :         stopflag = 1;
; 962  :         break;

	jmp	$LN43@two_split
$LN228@two_split:

; 967  :       { /* back to wall */
; 968  :         if ( (facet_degfree(get_fe_facet(fe_aa)) != 3)
; 969  :              || (facet_degfree(get_fe_facet(get_next_facet(fe_aa))) != 3) )

	test	ebx, 268435456				; 10000000H
	jne	SHORT $LN83@two_split
	mov	eax, DWORD PTR _NULLFACET
	jmp	SHORT $LN82@two_split
$LN83@two_split:
	mov	edx, ebx
	and	edx, 134217727				; 07ffffffH
	mov	eax, DWORD PTR [edi+edx*4]
	mov	eax, DWORD PTR [eax+24]
	test	ebx, 134217728				; 08000000H
	je	SHORT $LN82@two_split
	xor	eax, 134217728				; 08000000H
$LN82@two_split:
	push	eax
	call	_facet_degfree
	add	esp, 4
	cmp	eax, 3
	jne	SHORT $LN43@two_split
	test	ebx, 134217728				; 08000000H
	je	SHORT $LN87@two_split
	mov	ecx, ebx
	and	ecx, 134217727				; 07ffffffH
	mov	edx, DWORD PTR [edi+ecx*4]
	mov	eax, DWORD PTR [edx+36]
	xor	eax, 134217728				; 08000000H
	jmp	SHORT $LN86@two_split
$LN87@two_split:
	mov	eax, ebx
	and	eax, 134217727				; 07ffffffH
	mov	ecx, DWORD PTR [edi+eax*4]
	mov	eax, DWORD PTR [ecx+40]
$LN86@two_split:
	test	eax, 268435456				; 10000000H
	jne	SHORT $LN91@two_split
	mov	ecx, DWORD PTR _NULLFACET
	jmp	SHORT $LN90@two_split
$LN91@two_split:
	mov	edx, eax
	and	edx, 134217727				; 07ffffffH
	mov	ecx, DWORD PTR [edi+edx*4]
	mov	ecx, DWORD PTR [ecx+24]
	test	eax, 134217728				; 08000000H
	je	SHORT $LN90@two_split
	xor	ecx, 134217728				; 08000000H
$LN90@two_split:
	push	ecx
	call	_facet_degfree
	add	esp, 4
	cmp	eax, 3
	je	SHORT $LN50@two_split
$LN43@two_split:

; 970  :            stopflag = 1;

	mov	DWORD PTR _stopflag$[ebp], 1
$LN50@two_split:

; 929  :   headsplitflag = 1;
; 930  :   for (stopflag=0;!stopflag;)

	cmp	DWORD PTR _stopflag$[ebp], 0
	je	$LL55@two_split

; 1120 :         if ( equal_id(fe_b,fe_c) ) break;

	jmp	SHORT $LN54@two_split
$LN229@two_split:

; 939  :     { /* can't split */
; 940  :       headsplitflag = 0;

	mov	DWORD PTR _headsplitflag$[ebp], 0
$LN54@two_split:

; 979  :   
; 980  :     fe_a = fe_aa;
; 981  :   } /* end of going forward */
; 982  : 
; 983  :   /* go backward */
; 984  :   fe_a = inverse_id(key_fe);
; 985  :   tailsplitflag = 1;
; 986  :   for (stopflag=0;!stopflag;)

	mov	edx, DWORD PTR _web+216
	mov	eax, DWORD PTR _dymem
	mov	ebx, DWORD PTR _key_fe$[ebp]
	mov	ecx, DWORD PTR [edx+eax+304]
	xor	ebx, 134217728				; 08000000H
	mov	DWORD PTR _tailsplitflag$[ebp], 1
	mov	DWORD PTR _stopflag$[ebp], 0
	mov	DWORD PTR tv1722[ebp], ecx
$LL40@two_split:

; 987  :   { int tail_degfree;
; 988  :     int aa_degfree;
; 989  : 
; 990  :     tailsplitlist[tailsplitcount++] = fe_a;

	mov	eax, DWORD PTR _tailsplitcount$[ebp]
	mov	DWORD PTR _tailsplitlist$[ebp+eax*4], ebx
	inc	eax
	mov	DWORD PTR _tailsplitcount$[ebp], eax

; 991  : 
; 992  :     /* test tail vertex */
; 993  :     tail_degfree = vertex_degfree(get_fe_headv(fe_a));

	mov	edx, ebx
	and	edx, 134217727				; 07ffffffH
	mov	ecx, DWORD PTR [edi+edx*4]
	mov	edx, DWORD PTR _web+124
	mov	eax, ebx
	and	eax, 134217728				; 08000000H
	xor	eax, DWORD PTR [ecx+20]
	test	eax, 134217728				; 08000000H
	je	SHORT $LN97@two_split
	mov	ecx, DWORD PTR tv1722[ebp]
	and	eax, 134217727				; 07ffffffH
	mov	eax, DWORD PTR [edx+eax*4]
	mov	eax, DWORD PTR [ecx+eax]
	jmp	SHORT $LN96@two_split
$LN97@two_split:
	mov	ecx, DWORD PTR _web+636
	and	eax, 134217727				; 07ffffffH
	mov	eax, DWORD PTR [edx+eax*4]
	lea	edx, DWORD PTR [eax+ecx*4]
	mov	eax, DWORD PTR tv1722[ebp]
	mov	eax, DWORD PTR [edx+eax]
$LN96@two_split:
	push	eax
	call	_vertex_degfree
	add	esp, 4

; 994  :     if ( tail_degfree == 0 )

	test	eax, eax
	je	$LN233@two_split

; 997  :       break;
; 998  :     }
; 999  :   
; 1000 :     /* find next wall edge forward */
; 1001 :     fe_aaa = inverse_id(fe_a);

	mov	esi, ebx
	xor	esi, 134217728				; 08000000H
	npad	5
$LL37@two_split:

; 1002 :     do 
; 1003 :     { fe_aa = inverse_id(get_next_edge(fe_aaa));

	test	esi, 134217728				; 08000000H
	je	SHORT $LN101@two_split
	and	esi, 134217727				; 07ffffffH
	mov	ecx, DWORD PTR [edi+esi*4]
	mov	ebx, DWORD PTR [ecx+28]
	xor	ebx, 134217728				; 08000000H
	jmp	SHORT $LN100@two_split
$LN101@two_split:
	and	esi, 134217727				; 07ffffffH
	mov	edx, DWORD PTR [edi+esi*4]
	mov	ebx, DWORD PTR [edx+32]
$LN100@two_split:
	xor	ebx, 134217728				; 08000000H

; 1004 :       fe_aaa = get_next_facet(fe_aa);

	test	ebx, 134217728				; 08000000H
	je	SHORT $LN105@two_split
	mov	eax, ebx
	and	eax, 134217727				; 07ffffffH
	mov	ecx, DWORD PTR [edi+eax*4]
	mov	esi, DWORD PTR [ecx+36]
	xor	esi, 134217728				; 08000000H
	jmp	SHORT $LN104@two_split
$LN105@two_split:
	mov	ecx, ebx
	and	ecx, 134217727				; 07ffffffH
	mov	ecx, DWORD PTR [edi+ecx*4]
	mov	esi, DWORD PTR [ecx+40]
$LN104@two_split:

; 1005 :       if ( !equal_id(fe_aa,get_next_facet(fe_aaa))  )

	mov	edx, esi
	and	edx, 134217727				; 07ffffffH
	mov	eax, DWORD PTR [edi+edx*4]
	test	esi, 134217728				; 08000000H
	je	SHORT $LN109@two_split
	mov	eax, DWORD PTR [eax+36]
	xor	eax, 134217728				; 08000000H
	jmp	SHORT $LN108@two_split
$LN109@two_split:
	mov	eax, DWORD PTR [eax+40]
$LN108@two_split:
	cmp	ebx, eax
	jne	SHORT $LN230@two_split

; 1018 :       }
; 1019 :       /* now have valence 2 */
; 1020 :       aa_degfree = edge_degfree(get_fe_edge(fe_aa));

	mov	edx, ebx
	and	edx, 134217728				; 08000000H
	cmp	ebx, esi
	je	SHORT $LN231@two_split
	xor	edx, DWORD PTR [ecx+20]
	push	edx
	call	_edge_degfree
	add	esp, 4

; 1021 :       if ( aa_degfree == 2 )

	cmp	eax, 2
	je	SHORT $LN232@two_split

; 1026 :         break;
; 1027 :       }
; 1028 :       else if ( aa_degfree != 3 )

	cmp	eax, 3
	je	$LL37@two_split

; 1029 :       { /* end of the line  */
; 1030 :         stopflag = 1;
; 1031 :       }
; 1032 :       
; 1033 :     } while ( aa_degfree == 3 );

	jmp	$LN28@two_split
$LN230@two_split:

; 1006 :       { /* run into valence more than 2, can't split tail */
; 1007 :         stopflag = 1;
; 1008 :         tailsplitflag = 0;

	mov	DWORD PTR _tailsplitflag$[ebp], 0

; 1009 :         break;

	jmp	$LN28@two_split
$LN231@two_split:

; 1010 :       }
; 1011 :       if ( equal_id(fe_aa,fe_aaa) )
; 1012 :       { /* valence 1, could still split tail */
; 1013 :         aa_degfree = edge_degfree(get_fe_edge(fe_aa));

	mov	eax, ebx
	and	eax, 134217727				; 07ffffffH
	mov	ecx, DWORD PTR [edi+eax*4]
	xor	edx, DWORD PTR [ecx+20]
	push	edx
	call	_edge_degfree

; 1014 :         if ( aa_degfree < 2 ) tailsplitflag = 0;

	xor	ecx, ecx
	add	esp, 4
	cmp	eax, 2
	setge	cl
	mov	DWORD PTR _tailsplitflag$[ebp], ecx

; 1015 :         else tailsplitflag = 1;
; 1016 :         stopflag = 1;
; 1017 :         break;

	jmp	$LN28@two_split
$LN232@two_split:

; 1022 :       { /* back to wall */
; 1023 :         if ( (facet_degfree(get_fe_facet(fe_aa)) != 3)
; 1024 :              || (facet_degfree(get_fe_facet(get_next_facet(fe_aa))) != 3) )

	test	ebx, 268435456				; 10000000H
	jne	SHORT $LN117@two_split
	mov	eax, DWORD PTR _NULLFACET
	jmp	SHORT $LN116@two_split
$LN117@two_split:
	mov	edx, ebx
	and	edx, 134217727				; 07ffffffH
	mov	eax, DWORD PTR [edi+edx*4]
	mov	eax, DWORD PTR [eax+24]
	test	ebx, 134217728				; 08000000H
	je	SHORT $LN116@two_split
	xor	eax, 134217728				; 08000000H
$LN116@two_split:
	push	eax
	call	_facet_degfree
	add	esp, 4
	cmp	eax, 3
	jne	SHORT $LN28@two_split
	test	ebx, 134217728				; 08000000H
	je	SHORT $LN121@two_split
	mov	ecx, ebx
	and	ecx, 134217727				; 07ffffffH
	mov	edx, DWORD PTR [edi+ecx*4]
	mov	eax, DWORD PTR [edx+36]
	xor	eax, 134217728				; 08000000H
	jmp	SHORT $LN120@two_split
$LN121@two_split:
	mov	eax, ebx
	and	eax, 134217727				; 07ffffffH
	mov	ecx, DWORD PTR [edi+eax*4]
	mov	eax, DWORD PTR [ecx+40]
$LN120@two_split:
	test	eax, 268435456				; 10000000H
	jne	SHORT $LN125@two_split
	mov	ecx, DWORD PTR _NULLFACET
	jmp	SHORT $LN124@two_split
$LN125@two_split:
	mov	edx, eax
	and	edx, 134217727				; 07ffffffH
	mov	ecx, DWORD PTR [edi+edx*4]
	mov	ecx, DWORD PTR [ecx+24]
	test	eax, 134217728				; 08000000H
	je	SHORT $LN124@two_split
	xor	ecx, 134217728				; 08000000H
$LN124@two_split:
	push	ecx
	call	_facet_degfree
	add	esp, 4
	cmp	eax, 3
	je	SHORT $LN35@two_split
$LN28@two_split:

; 1025 :            stopflag = 1;

	mov	DWORD PTR _stopflag$[ebp], 1
$LN35@two_split:

; 979  :   
; 980  :     fe_a = fe_aa;
; 981  :   } /* end of going forward */
; 982  : 
; 983  :   /* go backward */
; 984  :   fe_a = inverse_id(key_fe);
; 985  :   tailsplitflag = 1;
; 986  :   for (stopflag=0;!stopflag;)

	cmp	DWORD PTR _stopflag$[ebp], 0
	je	$LL40@two_split

; 1120 :         if ( equal_id(fe_b,fe_c) ) break;

	jmp	SHORT $LN39@two_split
$LN233@two_split:

; 995  :     { /* can't split */
; 996  :       tailsplitflag = 0;

	mov	DWORD PTR _tailsplitflag$[ebp], 0
$LN39@two_split:

; 1034 :   
; 1035 :     fe_a = fe_aa;
; 1036 :   } /* end of going backward */
; 1037 : 
; 1038 :   /* split things */
; 1039 : 
; 1040 :   splitcount = headsplitcount + tailsplitcount - 1;

	mov	eax, DWORD PTR _headsplitcount$[ebp]
	mov	edx, DWORD PTR _tailsplitcount$[ebp]
	lea	esi, DWORD PTR [edx+eax-1]
	mov	DWORD PTR _splitcount$[ebp], esi

; 1041 :   if ( (splitcount == 1) && !headsplitflag && !tailsplitflag )

	cmp	esi, 1
	jne	SHORT $LN250@two_split
	cmp	DWORD PTR _headsplitflag$[ebp], 0
	jne	SHORT $LN250@two_split
	cmp	DWORD PTR _tailsplitflag$[ebp], 0
	jne	SHORT $LN250@two_split
$LN259@two_split:
	pop	edi
	pop	esi

; 1042 :     return 0;

	xor	eax, eax
	pop	ebx

; 1124 : 
; 1125 :       }
; 1126 :     }
; 1127 :   }
; 1128 : 
; 1129 :   popped = splitcount;
; 1130 : 
; 1131 :   return popped;
; 1132 : } // end two_split()

	mov	ecx, DWORD PTR __$ArrayPad$[ebp]
	xor	ecx, ebp
	call	@__security_check_cookie@4
	mov	esp, ebp
	pop	ebp
	ret	0
$LN250@two_split:

; 1043 : 
; 1044 :   /* now get into one list for splitting */
; 1045 :   for ( i = headsplitcount-1 ; i >= 0 ; i-- )

	dec	eax
	js	SHORT $LN22@two_split
	lea	ecx, DWORD PTR [eax+edx]
	lea	ecx, DWORD PTR _headsplitlist$[ebp+ecx*4-4]
$LL24@two_split:

; 1046 :    headsplitlist[i+tailsplitcount-1] = headsplitlist[i];

	mov	ebx, DWORD PTR _headsplitlist$[ebp+eax*4]
	mov	DWORD PTR [ecx], ebx
	sub	ecx, 4
	dec	eax
	jns	SHORT $LL24@two_split
$LN22@two_split:

; 1047 :   for ( i = 1 ; i < tailsplitcount ; i++ )

	mov	eax, 1
	cmp	edx, eax
	jle	SHORT $LN19@two_split
	lea	ecx, DWORD PTR _headsplitlist$[ebp+edx*4-4]
$LL21@two_split:

; 1048 :    headsplitlist[tailsplitcount-i] = inverse_id(tailsplitlist[i]);

	mov	ebx, DWORD PTR _tailsplitlist$[ebp+eax*4]
	xor	ebx, 134217728				; 08000000H
	mov	DWORD PTR [ecx], ebx
	inc	eax
	sub	ecx, 4
	cmp	eax, edx
	jl	SHORT $LL21@two_split
$LN19@two_split:

; 1049 : 
; 1050 :   /* Test to see if all edges have their facets less than 90 degrees
; 1051 :      apart, in which case we don't split, but let Y pull-out happen. 
; 1052 :    */
; 1053 :   for ( i = 0 ; i < splitcount ; i++ )

	xor	ebx, ebx
	test	esi, esi
	jle	$LN234@two_split
	jmp	SHORT $LN18@two_split
$LL246@two_split:
	mov	edi, DWORD PTR _web+460
$LN18@two_split:

; 1054 :   { facetedge_id fe = headsplitlist[i];

	mov	eax, DWORD PTR _headsplitlist$[ebp+ebx*4]

; 1055 :     facetedge_id fe_a = get_next_facet(fe);

	mov	ecx, eax
	mov	edx, eax
	shr	ecx, 27					; 0000001bH
	and	edx, 134217727				; 07ffffffH
	and	ecx, 1
	mov	edi, DWORD PTR [edi+edx*4]
	je	SHORT $LN129@two_split
	mov	esi, DWORD PTR [edi+36]
	xor	esi, 134217728				; 08000000H
	jmp	SHORT $LN128@two_split
$LN129@two_split:
	mov	esi, DWORD PTR [edi+40]
$LN128@two_split:

; 1056 :     REAL normal[MAXCOORD];
; 1057 :     REAL normala[MAXCOORD];
; 1058 :     get_facet_normal(get_fe_facet(fe),normal);

	test	eax, 268435456				; 10000000H
	jne	SHORT $LN133@two_split
	mov	edi, DWORD PTR _NULLFACET
	jmp	SHORT $LN132@two_split
$LN133@two_split:
	mov	edi, DWORD PTR [edi+24]
	test	ecx, ecx
	je	SHORT $LN132@two_split
	xor	edi, 134217728				; 08000000H
$LN132@two_split:
	lea	eax, DWORD PTR _normal$89713[ebp]
	push	eax
	push	edi
	call	_get_facet_normal
	add	esp, 8

; 1059 :     get_facet_normal(get_fe_facet(fe_a),normala);

	test	esi, 268435456				; 10000000H
	jne	SHORT $LN137@two_split
	mov	eax, DWORD PTR _NULLFACET
	jmp	SHORT $LN136@two_split
$LN137@two_split:
	mov	edx, DWORD PTR _web+460
	mov	ecx, esi
	and	ecx, 134217727				; 07ffffffH
	mov	eax, DWORD PTR [edx+ecx*4]
	mov	eax, DWORD PTR [eax+24]
	test	esi, 134217728				; 08000000H
	je	SHORT $LN136@two_split
	xor	eax, 134217728				; 08000000H
$LN136@two_split:
	lea	ecx, DWORD PTR _normala$89714[ebp]
	push	ecx
	push	eax
	call	_get_facet_normal

; 1060 :     if ( SDIM_dot(normal,normala) < 0 )

	mov	edx, DWORD PTR _web+616
	push	edx
	lea	eax, DWORD PTR _normala$89714[ebp]
	push	eax
	lea	ecx, DWORD PTR _normal$89713[ebp]
	push	ecx
	call	_dot
	fcomp	QWORD PTR __real@0000000000000000
	add	esp, 20					; 00000014H
	fnstsw	ax
	test	ah, 5
	jnp	SHORT $LN247@two_split

; 1049 : 
; 1050 :   /* Test to see if all edges have their facets less than 90 degrees
; 1051 :      apart, in which case we don't split, but let Y pull-out happen. 
; 1052 :    */
; 1053 :   for ( i = 0 ; i < splitcount ; i++ )

	inc	ebx
	cmp	ebx, DWORD PTR _splitcount$[ebp]
	jl	$LL246@two_split
$LN247@two_split:
	mov	edi, DWORD PTR _web+460
$LN234@two_split:

; 1061 :       break;  /* too wide */
; 1062 :   }
; 1063 :   if ( i == splitcount ) return 0;

	mov	eax, DWORD PTR _splitcount$[ebp]
	cmp	ebx, eax
	je	$LN259@two_split

; 1064 :   
; 1065 : 
; 1066 :   /* split new edge off with facetedges in list */
; 1067 :   for ( i = 0 ; i < splitcount ; i++ )

	mov	DWORD PTR _i$[ebp], 0
	test	eax, eax
	jle	$LN11@two_split
	jmp	SHORT $LN13@two_split
	npad	1
$LL248@two_split:
	mov	edi, DWORD PTR _web+460
$LN13@two_split:

; 1068 :   { facetedge_id fe,fe_b,fe_c;
; 1069 :     edge_id new_e,old_e;
; 1070 :  
; 1071 :     fe = headsplitlist[i];

	mov	edx, DWORD PTR _i$[ebp]
	mov	ebx, DWORD PTR _headsplitlist$[ebp+edx*4]

; 1072 :     old_e = get_fe_edge(fe);

	mov	eax, ebx
	and	eax, 134217727				; 07ffffffH
	add	eax, eax
	add	eax, eax
	mov	DWORD PTR tv1925[ebp], eax
	mov	eax, DWORD PTR [eax+edi]
	mov	esi, DWORD PTR [eax+20]
	mov	ecx, ebx
	and	ecx, 134217728				; 08000000H
	xor	esi, ecx

; 1073 :     new_e = dup_edge(old_e);

	push	esi
	mov	DWORD PTR tv1932[ebp], ecx
	call	_dup_edge
	add	esp, 4

; 1074 :     if ( verbose_flag )

	cmp	DWORD PTR _verbose_flag, 0
	mov	edi, eax
	je	SHORT $LN249@two_split

; 1075 :     { sprintf(msg,"Popping valence 2 edge %s on a constraint.\n",ELNAME(old_e));

	test	esi, 268435456				; 10000000H
	je	SHORT $LN58@two_split
	mov	ecx, esi
	and	ecx, 134217727				; 07ffffffH
	inc	ecx
	push	ecx
	push	OFFSET ??_C@_02DPKJAMEF@?$CFd?$AA@
	push	OFFSET _elnames
	call	_sprintf
	add	esp, 12					; 0000000cH
	mov	eax, OFFSET _elnames
	jmp	SHORT $LN59@two_split
$LN58@two_split:
	mov	eax, OFFSET ??_C@_00CNPNBAHC@?$AA@
$LN59@two_split:
	mov	edx, DWORD PTR _msg
	push	eax
	push	OFFSET ??_C@_0CM@CNLGNLJN@Popping?5valence?52?5edge?5?$CFs?5on?5a?5c@
	push	edx
	call	_sprintf

; 1076 :       outstring(msg);

	mov	eax, DWORD PTR _msg
	push	eax
	call	_outstring
	add	esp, 16					; 00000010H
$LN249@two_split:

; 1077 :     }
; 1078 :     insert_vertex_edge(get_edge_tailv(old_e),new_e);

	mov	ecx, DWORD PTR _web+124
	mov	eax, esi
	shr	eax, 27					; 0000001bH
	and	eax, 1
	mov	DWORD PTR tv1941[ebp], eax
	mov	eax, DWORD PTR _web+216
	je	SHORT $LN143@two_split
	and	esi, 134217727				; 07ffffffH
	add	esi, esi
	add	esi, esi
	mov	edx, DWORD PTR [esi+ecx]
	mov	ecx, DWORD PTR _dymem
	add	edx, DWORD PTR [eax+ecx+304]
	mov	eax, DWORD PTR _web+636
	mov	eax, DWORD PTR [edx+eax*4]
	jmp	SHORT $LN256@two_split
$LN143@two_split:
	and	esi, 134217727				; 07ffffffH
	add	esi, esi
	add	esi, esi
	mov	edx, DWORD PTR [esi+ecx]
	mov	ecx, DWORD PTR _dymem
	mov	eax, DWORD PTR [eax+ecx+304]
	mov	eax, DWORD PTR [edx+eax]
$LN256@two_split:
	push	edi
	push	eax
	mov	DWORD PTR tv1943[ebp], esi
	call	_insert_vertex_edge
	add	esp, 8

; 1079 :     insert_vertex_edge(get_edge_headv(old_e),inverse_id(new_e));

	cmp	DWORD PTR tv1941[ebp], 0
	je	SHORT $LN147@two_split
	mov	ecx, DWORD PTR _web+124
	mov	edx, esi
	mov	eax, DWORD PTR [edx+ecx]
	mov	ecx, DWORD PTR _web+216
	mov	edx, DWORD PTR _dymem
	mov	ecx, DWORD PTR [ecx+edx+304]
	mov	eax, DWORD PTR [eax+ecx]
	jmp	SHORT $LN146@two_split
$LN147@two_split:
	mov	edx, DWORD PTR _web+124
	mov	eax, DWORD PTR tv1943[ebp]
	mov	ecx, DWORD PTR [eax+edx]
	mov	edx, DWORD PTR _web+216
	mov	eax, DWORD PTR _dymem
	add	ecx, DWORD PTR [edx+eax+304]
	mov	edx, DWORD PTR _web+636
	mov	eax, DWORD PTR [ecx+edx*4]
$LN146@two_split:
	mov	esi, edi
	xor	esi, 134217728				; 08000000H
	push	esi
	push	eax
	call	_insert_vertex_edge

; 1080 :     fe_a = get_next_facet(fe);

	mov	eax, ebx
	shr	eax, 27					; 0000001bH
	add	esp, 8
	and	eax, 1
	mov	DWORD PTR tv1955[ebp], eax
	je	SHORT $LN151@two_split
	mov	eax, DWORD PTR _web+460
	mov	ecx, DWORD PTR tv1925[ebp]
	mov	ecx, DWORD PTR [ecx+eax]
	mov	eax, DWORD PTR [ecx+36]
	xor	eax, 134217728				; 08000000H
	jmp	SHORT $LN150@two_split
$LN151@two_split:
	mov	eax, DWORD PTR tv1925[ebp]
	mov	edx, DWORD PTR _web+460
	mov	ecx, DWORD PTR [eax+edx]
	mov	eax, DWORD PTR [ecx+40]
$LN150@two_split:

; 1081 :     set_fe_edge(fe,new_e);

	mov	edx, DWORD PTR tv1955[ebp]
	mov	DWORD PTR $T93460[ebp], edi
	test	edx, edx
	jne	SHORT $LN154@two_split
	mov	esi, edi
$LN154@two_split:
	mov	DWORD PTR [ecx+20], esi
	mov	ecx, DWORD PTR _global_timestamp
	inc	ecx
	mov	DWORD PTR _global_timestamp, ecx
	mov	DWORD PTR _top_timestamp, ecx

; 1082 :     set_edge_fe(new_e,fe);

	mov	ecx, ebx
	test	edi, 134217728				; 08000000H
	je	SHORT $LN157@two_split
	xor	ecx, 134217728				; 08000000H
$LN157@two_split:
	mov	esi, DWORD PTR _web+124
	and	edi, 134217727				; 07ffffffH
	mov	esi, DWORD PTR [esi+edi*4]
	mov	DWORD PTR [esi+28], ecx
	mov	ecx, DWORD PTR _global_timestamp
	inc	ecx

; 1083 :     set_edge_fe(old_e,fe_a);

	cmp	DWORD PTR tv1941[ebp], 0
	mov	DWORD PTR _global_timestamp, ecx
	mov	DWORD PTR _top_timestamp, ecx
	mov	ecx, eax
	je	SHORT $LN160@two_split
	xor	ecx, 134217728				; 08000000H
$LN160@two_split:
	mov	esi, DWORD PTR _web+124
	mov	edi, DWORD PTR tv1943[ebp]
	mov	esi, DWORD PTR [edi+esi]
	mov	DWORD PTR [esi+28], ecx
	mov	ecx, DWORD PTR _global_timestamp

; 1084 :     set_next_facet(fe,fe);

	mov	esi, DWORD PTR tv1925[ebp]
	inc	ecx
	mov	DWORD PTR _global_timestamp, ecx
	mov	DWORD PTR _top_timestamp, ecx
	mov	ecx, ebx
	shr	ecx, 28					; 0000001cH
	and	ecx, 1
	je	SHORT $LN163@two_split
	mov	edi, DWORD PTR _web+460
	mov	edi, DWORD PTR [esi+edi]
	test	edx, edx
	je	SHORT $LN164@two_split
	mov	edx, ebx
	xor	edx, 134217728				; 08000000H
	mov	DWORD PTR [edi+36], edx
	mov	edx, DWORD PTR tv1955[ebp]
	jmp	SHORT $LN163@two_split
$LN164@two_split:
	mov	DWORD PTR [edi+40], ebx
$LN163@two_split:

; 1085 :     set_prev_facet(fe,fe);

	test	ecx, ecx
	je	SHORT $LN171@two_split
	mov	ecx, DWORD PTR _web+460
	test	edx, edx
	mov	edx, DWORD PTR [esi+ecx]
	je	SHORT $LN169@two_split
	xor	ebx, 134217728				; 08000000H
	mov	DWORD PTR [edx+40], ebx
	jmp	SHORT $LN168@two_split
$LN169@two_split:
	mov	DWORD PTR [edx+36], ebx
$LN168@two_split:
	mov	ecx, DWORD PTR _global_timestamp
	inc	ecx
	mov	DWORD PTR _global_timestamp, ecx
	mov	DWORD PTR _top_timestamp, ecx
$LN171@two_split:

; 1086 :     set_next_facet(fe_a,fe_a);

	mov	edx, eax
	shr	edx, 28					; 0000001cH
	and	edx, 1
	je	SHORT $LN255@two_split
	mov	ecx, eax
	test	eax, 134217728				; 08000000H
	je	SHORT $LN174@two_split
	mov	edi, DWORD PTR _web+460
	xor	ecx, 134217728				; 08000000H
	mov	esi, eax
	and	esi, 134217727				; 07ffffffH
	mov	esi, DWORD PTR [edi+esi*4]
	mov	DWORD PTR [esi+36], ecx
	jmp	SHORT $LN255@two_split
$LN174@two_split:
	mov	esi, DWORD PTR _web+460
	and	ecx, 134217727				; 07ffffffH
	mov	ecx, DWORD PTR [esi+ecx*4]
	mov	DWORD PTR [ecx+40], eax
$LN255@two_split:

; 1087 :     set_prev_facet(fe_a,fe_a);

	test	edx, edx
	je	SHORT $LN181@two_split
	mov	edx, DWORD PTR _web+460
	mov	ecx, eax
	test	eax, 134217728				; 08000000H
	je	SHORT $LN179@two_split
	xor	ecx, 134217728				; 08000000H
	and	eax, 134217727				; 07ffffffH
	mov	eax, DWORD PTR [edx+eax*4]
	mov	DWORD PTR [eax+40], ecx
	jmp	SHORT $LN178@two_split
$LN179@two_split:
	and	ecx, 134217727				; 07ffffffH
	mov	ecx, DWORD PTR [edx+ecx*4]
	mov	DWORD PTR [ecx+36], eax
$LN178@two_split:
	mov	eax, DWORD PTR _global_timestamp
	inc	eax
	mov	DWORD PTR _global_timestamp, eax
	mov	DWORD PTR _top_timestamp, eax
$LN181@two_split:

; 1088 : 
; 1089 : 
; 1090 :     if ( (i > 0) || tailsplitflag )

	cmp	DWORD PTR _i$[ebp], 0
	jg	SHORT $LN252@two_split
	cmp	DWORD PTR _tailsplitflag$[ebp], 0
	je	$LN235@two_split
$LN252@two_split:

; 1091 :     { vertex_id old_tail = get_edge_tailv(old_e);

	cmp	DWORD PTR tv1941[ebp], 0
	je	SHORT $LN184@two_split
	mov	edx, DWORD PTR _web+124
	mov	eax, DWORD PTR tv1943[ebp]
	mov	ecx, DWORD PTR [eax+edx]
	mov	edx, DWORD PTR _web+216
	mov	eax, DWORD PTR _dymem
	add	ecx, DWORD PTR [edx+eax+304]
	mov	edx, DWORD PTR _web+636
	mov	ebx, DWORD PTR [ecx+edx*4]
	jmp	SHORT $LN257@two_split
$LN184@two_split:
	mov	eax, DWORD PTR _web+124
	mov	ecx, DWORD PTR tv1943[ebp]
	mov	edx, DWORD PTR [ecx+eax]
	mov	eax, DWORD PTR _web+216
	mov	ecx, DWORD PTR _dymem
	mov	eax, DWORD PTR [eax+ecx+304]
	mov	ebx, DWORD PTR [edx+eax]
$LN257@two_split:

; 1092 :       vertex_id new_tail = dup_vertex(old_tail);

	push	ebx
	mov	DWORD PTR _old_tail$89731[ebp], ebx
	call	_dup_vertex

; 1093 :       fe_b = fe;

	mov	ecx, DWORD PTR _i$[ebp]

; 1094 :       fe_c = NULLID;
; 1095 :  
; 1096 :       /* reconnect edges */
; 1097 :       for (;;)
; 1098 :       {
; 1099 :         remove_vertex_edge(old_tail,get_fe_edge(fe_b));

	mov	edx, DWORD PTR _web+460
	mov	edi, DWORD PTR _headsplitlist$[ebp+ecx*4]
	mov	esi, eax
	mov	eax, DWORD PTR tv1925[ebp]
	mov	ecx, DWORD PTR [eax+edx]
	mov	edx, DWORD PTR [ecx+20]
	xor	edx, DWORD PTR tv1932[ebp]
	mov	DWORD PTR _new_tail$89732[ebp], esi
	push	edx
	push	ebx
	call	_remove_vertex_edge

; 1100 :         set_edge_tailv(get_fe_edge(fe_b),new_tail);

	mov	eax, DWORD PTR _web+460
	mov	ecx, DWORD PTR tv1925[ebp]
	mov	edx, DWORD PTR [ecx+eax]
	mov	eax, DWORD PTR [edx+20]
	xor	eax, DWORD PTR tv1932[ebp]
	push	esi
	push	eax
	call	_set_edge_tailv
	add	esp, 20					; 00000014H

; 1101 :         if ( equal_id(fe_b,fe_c) ) break;

	test	edi, edi
	je	$LN235@two_split
	npad	8
$LL7@two_split:

; 1102 : 
; 1103 :         fe_c = inverse_id(get_prev_edge(fe_b));

	mov	ecx, DWORD PTR _web+460
	test	edi, 134217728				; 08000000H
	je	SHORT $LN192@two_split
	and	edi, 134217727				; 07ffffffH
	mov	edx, DWORD PTR [ecx+edi*4]
	mov	eax, DWORD PTR [edx+32]
	xor	eax, 134217728				; 08000000H
	jmp	SHORT $LN191@two_split
$LN192@two_split:
	and	edi, 134217727				; 07ffffffH
	mov	eax, DWORD PTR [ecx+edi*4]
	mov	eax, DWORD PTR [eax+28]
$LN191@two_split:
	xor	eax, 134217728				; 08000000H
	mov	DWORD PTR _fe_c$89722[ebp], eax

; 1104 :         fe_b = get_next_facet(fe_c);

	test	eax, 134217728				; 08000000H
	je	SHORT $LN196@two_split
	and	eax, 134217727				; 07ffffffH
	mov	edx, DWORD PTR [ecx+eax*4]
	mov	edi, DWORD PTR [edx+36]
	xor	edi, 134217728				; 08000000H
	jmp	SHORT $LN195@two_split
$LN196@two_split:
	and	eax, 134217727				; 07ffffffH
	mov	eax, DWORD PTR [ecx+eax*4]
	mov	edi, DWORD PTR [eax+40]
$LN195@two_split:

; 1094 :       fe_c = NULLID;
; 1095 :  
; 1096 :       /* reconnect edges */
; 1097 :       for (;;)
; 1098 :       {
; 1099 :         remove_vertex_edge(old_tail,get_fe_edge(fe_b));

	mov	eax, DWORD PTR _old_tail$89731[ebp]
	mov	esi, edi
	and	esi, 134217727				; 07ffffffH
	add	esi, esi
	add	esi, esi
	mov	ecx, DWORD PTR [esi+ecx]
	mov	edx, DWORD PTR [ecx+20]
	mov	ebx, edi
	and	ebx, 134217728				; 08000000H
	xor	edx, ebx
	push	edx
	push	eax
	call	_remove_vertex_edge

; 1100 :         set_edge_tailv(get_fe_edge(fe_b),new_tail);

	mov	edx, DWORD PTR _web+460
	mov	ecx, DWORD PTR _new_tail$89732[ebp]
	mov	eax, DWORD PTR [esi+edx]
	push	ecx
	mov	ecx, DWORD PTR [eax+20]
	xor	ecx, ebx
	push	ecx
	call	_set_edge_tailv
	add	esp, 16					; 00000010H

; 1101 :         if ( equal_id(fe_b,fe_c) ) break;

	cmp	edi, DWORD PTR _fe_c$89722[ebp]
	jne	$LL7@two_split
$LN235@two_split:

; 1105 : 
; 1106 :       }
; 1107 :     }
; 1108 : 
; 1109 :     if ( (i == splitcount-1) && headsplitflag )

	mov	eax, DWORD PTR _splitcount$[ebp]
	dec	eax
	cmp	DWORD PTR _i$[ebp], eax
	jne	$LN12@two_split
	cmp	DWORD PTR _headsplitflag$[ebp], 0
	je	$LN12@two_split

; 1110 :     { vertex_id old_head = get_edge_headv(old_e);

	cmp	DWORD PTR tv1941[ebp], 0
	je	SHORT $LN200@two_split
	mov	edx, DWORD PTR _web+124
	mov	eax, DWORD PTR tv1943[ebp]
	mov	ecx, DWORD PTR [eax+edx]
	mov	edx, DWORD PTR _web+216
	mov	eax, DWORD PTR _dymem
	mov	edx, DWORD PTR [edx+eax+304]
	mov	edi, DWORD PTR [ecx+edx]
	jmp	SHORT $LN258@two_split
$LN200@two_split:
	mov	eax, DWORD PTR _web+124
	mov	ecx, DWORD PTR tv1943[ebp]
	mov	edx, DWORD PTR [ecx+eax]
	mov	eax, DWORD PTR _web+216
	mov	ecx, DWORD PTR _dymem
	add	edx, DWORD PTR [eax+ecx+304]
	mov	eax, DWORD PTR _web+636
	mov	edi, DWORD PTR [edx+eax*4]
$LN258@two_split:

; 1111 :       vertex_id new_head = dup_vertex(old_head);

	push	edi
	mov	DWORD PTR _old_head$89738[ebp], edi
	call	_dup_vertex

; 1112 :       fe_b = fe;

	mov	ecx, DWORD PTR _i$[ebp]
	mov	esi, DWORD PTR _headsplitlist$[ebp+ecx*4]

; 1113 :       fe_c = NULLID;
; 1114 :  
; 1115 :       /* reconnect edges */
; 1116 :       for (;;)
; 1117 :       {
; 1118 :         remove_vertex_edge(old_head,inverse_id(get_fe_edge(fe_b)));

	mov	edx, DWORD PTR _web+460
	mov	ebx, DWORD PTR tv1925[ebp]
	mov	ecx, esi
	not	ecx
	mov	DWORD PTR _new_head$89739[ebp], eax
	mov	eax, DWORD PTR [ebx+edx]
	and	ecx, 134217728				; 08000000H
	xor	ecx, DWORD PTR [eax+20]
	push	ecx
	push	edi
	call	_remove_vertex_edge

; 1119 :         set_edge_headv(get_fe_edge(fe_b),new_head);

	mov	eax, DWORD PTR _web+460
	mov	edx, DWORD PTR _new_head$89739[ebp]
	mov	ecx, DWORD PTR [ebx+eax]
	push	edx
	mov	edx, DWORD PTR [ecx+20]
	xor	edx, DWORD PTR tv1932[ebp]
	push	edx
	call	_set_edge_headv
	add	esp, 20					; 00000014H

; 1120 :         if ( equal_id(fe_b,fe_c) ) break;

	test	esi, esi
	je	$LN12@two_split
	npad	1
$LL3@two_split:

; 1121 : 
; 1122 :         fe_c = inverse_id(get_next_edge(fe_b));

	mov	ecx, DWORD PTR _web+460
	test	esi, 134217728				; 08000000H
	je	SHORT $LN208@two_split
	and	esi, 134217727				; 07ffffffH
	mov	eax, DWORD PTR [ecx+esi*4]
	mov	eax, DWORD PTR [eax+28]
	xor	eax, 134217728				; 08000000H
	jmp	SHORT $LN207@two_split
$LN208@two_split:
	and	esi, 134217727				; 07ffffffH
	mov	edx, DWORD PTR [ecx+esi*4]
	mov	eax, DWORD PTR [edx+32]
$LN207@two_split:
	xor	eax, 134217728				; 08000000H
	mov	ebx, eax

; 1123 :         fe_b = get_next_facet(fe_c);

	and	eax, 134217727				; 07ffffffH
	mov	edx, DWORD PTR [ecx+eax*4]
	test	ebx, 134217728				; 08000000H
	je	SHORT $LN212@two_split
	mov	esi, DWORD PTR [edx+36]
	xor	esi, 134217728				; 08000000H
	jmp	SHORT $LN211@two_split
$LN212@two_split:
	mov	esi, DWORD PTR [edx+40]
$LN211@two_split:

; 1113 :       fe_c = NULLID;
; 1114 :  
; 1115 :       /* reconnect edges */
; 1116 :       for (;;)
; 1117 :       {
; 1118 :         remove_vertex_edge(old_head,inverse_id(get_fe_edge(fe_b)));

	mov	edx, DWORD PTR _old_head$89738[ebp]
	mov	edi, esi
	and	edi, 134217727				; 07ffffffH
	add	edi, edi
	add	edi, edi
	mov	eax, DWORD PTR [edi+ecx]
	mov	ecx, esi
	not	ecx
	and	ecx, 134217728				; 08000000H
	xor	ecx, DWORD PTR [eax+20]
	push	ecx
	push	edx
	call	_remove_vertex_edge

; 1119 :         set_edge_headv(get_fe_edge(fe_b),new_head);

	mov	eax, DWORD PTR _new_head$89739[ebp]
	mov	ecx, DWORD PTR _web+460
	mov	edx, DWORD PTR [edi+ecx]
	push	eax
	mov	eax, esi
	and	eax, 134217728				; 08000000H
	xor	eax, DWORD PTR [edx+20]
	push	eax
	call	_set_edge_headv
	add	esp, 16					; 00000010H

; 1120 :         if ( equal_id(fe_b,fe_c) ) break;

	cmp	esi, ebx
	jne	$LL3@two_split
$LN12@two_split:

; 1064 :   
; 1065 : 
; 1066 :   /* split new edge off with facetedges in list */
; 1067 :   for ( i = 0 ; i < splitcount ; i++ )

	mov	eax, DWORD PTR _i$[ebp]
	inc	eax
	mov	DWORD PTR _i$[ebp], eax
	cmp	eax, DWORD PTR _splitcount$[ebp]
	jl	$LL248@two_split
$LN11@two_split:

; 1124 : 
; 1125 :       }
; 1126 :     }
; 1127 :   }
; 1128 : 
; 1129 :   popped = splitcount;
; 1130 : 
; 1131 :   return popped;
; 1132 : } // end two_split()

	mov	ecx, DWORD PTR __$ArrayPad$[ebp]
	mov	eax, DWORD PTR _splitcount$[ebp]
	pop	edi
	pop	esi
	xor	ecx, ebp
	pop	ebx
	call	@__security_check_cookie@4
	mov	esp, ebp
	pop	ebp
	ret	0
_two_split ENDP
_TEXT	ENDS
PUBLIC	_figure_type
EXTRN	_kraynikpopvertex_flag:DWORD
; Function compile flags: /Ogtp
;	COMDAT _figure_type
_TEXT	SEGMENT
_fours$89899 = 8					; size = 4
_cinfo$ = 8						; size = 4
_figure_type PROC					; COMDAT

; 1364 : { int k,type;

	push	ebp
	mov	ebp, esp
	push	ebx
	push	esi

; 1365 : 
; 1366 :   /* Classifying cone */
; 1367 :   switch ( cinfo->cells )

	mov	esi, DWORD PTR _cinfo$[ebp]
	mov	ecx, DWORD PTR [esi]
	lea	eax, DWORD PTR [ecx-1]
	push	edi
	cmp	eax, 5
	ja	$LN1@figure_typ
	jmp	DWORD PTR $LN65@figure_typ[eax*4]
$LN48@figure_typ:
	pop	edi
	pop	esi

; 1368 :      {
; 1369 :         case 1: /* wire boundary */
; 1370 :                   type = WIREBOUNDARY;

	mov	eax, 1
	pop	ebx

; 1443 :                     break;
; 1444 :       }
; 1445 :   return type;
; 1446 : } // end figure_type()

	pop	ebp
	ret	0
$LN47@figure_typ:

; 1371 :                   break;
; 1372 : 
; 1373 :         case 2: switch ( cinfo->arcs )

	mov	esi, DWORD PTR [esi+4]
	sub	esi, 2
	je	SHORT $LN44@figure_typ
	sub	esi, 2
	je	SHORT $LN43@figure_typ

; 1380 :                          break;
; 1381 :                       default: /* n boundary wires meet at center */
; 1382 :                          type = WIRECORNER;

	pop	edi
	pop	esi
	mov	eax, 4
	pop	ebx

; 1443 :                     break;
; 1444 :       }
; 1445 :   return type;
; 1446 : } // end figure_type()

	pop	ebp
	ret	0
$LN43@figure_typ:
	pop	edi
	pop	esi

; 1377 :                          break;
; 1378 :                       case 4: /* two wings on wire boundary */
; 1379 :                          type = WIREWING;  /* minimality depends on angle */

	mov	eax, 3
	pop	ebx

; 1443 :                     break;
; 1444 :       }
; 1445 :   return type;
; 1446 : } // end figure_type()

	pop	ebp
	ret	0
$LN44@figure_typ:
	pop	edi
	pop	esi

; 1374 :                     {
; 1375 :                       case 2: /* internal plane */
; 1376 :                          type = PLANECONE;

	mov	eax, 2
	pop	ebx

; 1443 :                     break;
; 1444 :       }
; 1445 :   return type;
; 1446 : } // end figure_type()

	pop	ebp
	ret	0
$LN41@figure_typ:

; 1383 :                          break;
; 1384 :                     }
; 1385 :                   break;
; 1386 : 
; 1387 :         case 3: switch ( cinfo->arcs ) 

	cmp	DWORD PTR [esi+4], 6

; 1394 :                          break;
; 1395 :                       default:
; 1396 :                          type = OTHERCONE;
; 1397 :                          break;

	jne	$LN1@figure_typ

; 1391 :                          for ( k = 0 ; k < cinfo->cells ; k++ )

	mov	eax, 5
	test	ecx, ecx
	jle	$LN49@figure_typ

; 1388 :                     {
; 1389 :                       case 6: /* triple edge */
; 1390 :                          type = TRIPLE_EDGER;

	lea	edx, DWORD PTR [esi+16]
	npad	3
$LL37@figure_typ:

; 1392 :                             if ( cinfo->cell[k].num != 2 ) 

	cmp	DWORD PTR [edx], 2
	je	SHORT $LN36@figure_typ

; 1393 :                               type = OTHERCONE;

	xor	eax, eax
$LN36@figure_typ:

; 1391 :                          for ( k = 0 ; k < cinfo->cells ; k++ )

	add	edx, 32					; 00000020H
	dec	ecx
	jne	SHORT $LL37@figure_typ
	pop	edi
	pop	esi
	pop	ebx

; 1443 :                     break;
; 1444 :       }
; 1445 :   return type;
; 1446 : } // end figure_type()

	pop	ebp
	ret	0
$LN32@figure_typ:

; 1398 :                     }
; 1399 :                   break;
; 1400 : 
; 1401 :         case 4: switch ( cinfo->arcs )

	cmp	DWORD PTR [esi+4], 12			; 0000000cH

; 1416 :                          else type = OTHERCONE;
; 1417 :                        }    
; 1418 :                        break;
; 1419 :                       default:
; 1420 :                          type = OTHERCONE;
; 1421 :                          break;

	jne	$LN1@figure_typ

; 1402 :                     { 
; 1403 :                       case 12: /* maybe tetrahedral cone */
; 1404 :                       { int twos=0,threes=0,fours=0;

	xor	ebx, ebx
	xor	edi, edi
	mov	DWORD PTR _fours$89899[ebp], ebx

; 1405 :                          for ( k = 0 ; k < cinfo->cells ; k++ )

	cmp	ecx, ebx
	jle	$LN1@figure_typ

; 1402 :                     { 
; 1403 :                       case 12: /* maybe tetrahedral cone */
; 1404 :                       { int twos=0,threes=0,fours=0;

	lea	edx, DWORD PTR [esi+16]
	npad	2
$LL28@figure_typ:

; 1406 :                          { switch ( cinfo->cell[k].num )

	mov	eax, DWORD PTR [edx]
	sub	eax, 2
	je	SHORT $LN23@figure_typ
	dec	eax
	je	SHORT $LN22@figure_typ
	dec	eax
	jne	SHORT $LN27@figure_typ

; 1409 :                              case 4: fours++; break;

	inc	DWORD PTR _fours$89899[ebp]
	jmp	SHORT $LN27@figure_typ
$LN22@figure_typ:

; 1408 :                              case 3: threes++; break;

	inc	ebx
	jmp	SHORT $LN27@figure_typ
$LN23@figure_typ:

; 1407 :                            { case 2: twos++; break;

	inc	edi
$LN27@figure_typ:

; 1405 :                          for ( k = 0 ; k < cinfo->cells ; k++ )

	add	edx, 32					; 00000020H
	dec	ecx
	jne	SHORT $LL28@figure_typ

; 1410 :                            }
; 1411 :                          }
; 1412 :                          if ( threes == 4 )

	cmp	ebx, 4
	jne	SHORT $LN20@figure_typ

; 1413 :                            type = TETRAHEDRAL;

	pop	edi
	pop	esi
	lea	eax, DWORD PTR [ecx+6]
	pop	ebx

; 1443 :                     break;
; 1444 :       }
; 1445 :   return type;
; 1446 : } // end figure_type()

	pop	ebp
	ret	0
$LN20@figure_typ:

; 1414 :                          else if ( twos==2 && fours==2 )

	cmp	edi, 2
	jne	SHORT $LN1@figure_typ
	cmp	DWORD PTR _fours$89899[ebp], edi
	jne	SHORT $LN1@figure_typ

; 1415 :                            type = ODD4CONE;

	lea	eax, DWORD PTR [edi+7]
	pop	edi
	pop	esi
	pop	ebx

; 1443 :                     break;
; 1444 :       }
; 1445 :   return type;
; 1446 : } // end figure_type()

	pop	ebp
	ret	0
$LN15@figure_typ:

; 1422 :                     }
; 1423 :                   break;
; 1424 : 
; 1425 :         case 5: if ( !kraynikpopvertex_flag || (cinfo->arcs != 18) ) 

	cmp	DWORD PTR _kraynikpopvertex_flag, 0
	je	SHORT $LN1@figure_typ
	cmp	DWORD PTR [esi+4], 18			; 00000012H
	jne	SHORT $LN1@figure_typ

; 1428 :                 for ( k = 0 ; k < cinfo->cells ; k++ )

	xor	edx, edx
	mov	eax, 7
	test	ecx, ecx
	jle	SHORT $LN49@figure_typ

; 1426 :                 { type = OTHERCONE; break; }
; 1427 :                 type = KRAYNIKCONE;

	lea	edi, DWORD PTR [esi+16]
$LL12@figure_typ:

; 1429 :                   if ( (cinfo->cell[k].num < 3) || (cinfo->cell[k].num > 4) )

	mov	esi, DWORD PTR [edi]
	cmp	esi, 3
	jl	SHORT $LN1@figure_typ
	cmp	esi, 4
	jg	SHORT $LN1@figure_typ

; 1428 :                 for ( k = 0 ; k < cinfo->cells ; k++ )

	inc	edx
	add	edi, 32					; 00000020H
	cmp	edx, ecx
	jl	SHORT $LL12@figure_typ
	pop	edi
	pop	esi
	pop	ebx

; 1443 :                     break;
; 1444 :       }
; 1445 :   return type;
; 1446 : } // end figure_type()

	pop	ebp
	ret	0
$LN7@figure_typ:

; 1430 :                     { type = OTHERCONE; break; }
; 1431 :                 break;
; 1432 : 
; 1433 :          case 6: type = CUBECONE;
; 1434 :                  if ( cinfo->arcs != 24 )

	cmp	DWORD PTR [esi+4], 24			; 00000018H
	mov	eax, 8

; 1435 :                  { type = OTHERCONE; break; }

	jne	SHORT $LN1@figure_typ

; 1436 :                  for ( k = 0 ; k < cinfo->cells ; k++ )

	xor	edx, edx
	test	ecx, ecx
	jle	SHORT $LN49@figure_typ
	add	esi, 16					; 00000010H
$LL5@figure_typ:

; 1437 :                   if ( cinfo->cell[k].num != 4 )

	cmp	DWORD PTR [esi], 4
	jne	SHORT $LN1@figure_typ

; 1436 :                  for ( k = 0 ; k < cinfo->cells ; k++ )

	inc	edx
	add	esi, 32					; 00000020H
	cmp	edx, ecx
	jl	SHORT $LL5@figure_typ
	pop	edi
	pop	esi
	pop	ebx

; 1443 :                     break;
; 1444 :       }
; 1445 :   return type;
; 1446 : } // end figure_type()

	pop	ebp
	ret	0
$LN1@figure_typ:

; 1438 :                     { type = OTHERCONE; break; }              
; 1439 :                  break;
; 1440 : 
; 1441 :          default:
; 1442 :                     type = OTHERCONE;

	xor	eax, eax
$LN49@figure_typ:
	pop	edi
	pop	esi
	pop	ebx

; 1443 :                     break;
; 1444 :       }
; 1445 :   return type;
; 1446 : } // end figure_type()

	pop	ebp
	ret	0
	npad	2
$LN65@figure_typ:
	DD	$LN48@figure_typ
	DD	$LN47@figure_typ
	DD	$LN41@figure_typ
	DD	$LN32@figure_typ
	DD	$LN15@figure_typ
	DD	$LN7@figure_typ
_figure_type ENDP
_TEXT	ENDS
PUBLIC	??_C@_0EG@IPGNOIKA@Internal?5error?3?5cone_analyze?5ver@ ; `string'
PUBLIC	??_C@_0DI@BHMKKIOI@pop?3?5Too?5many?5arcs?5around?5vertex@ ; `string'
PUBLIC	??_C@_0DJ@EJIFEILG@pop?3?5Too?5many?5cells?5around?5verte@ ; `string'
PUBLIC	??_C@_09ODBKHHLC@POPFILM?4C?$AA@		; `string'
PUBLIC	_cone_analyze
EXTRN	_kb_error:PROC
EXTRN	_errmsg:BYTE
EXTRN	_kb_temp_calloc:PROC
;	COMDAT ??_C@_0EG@IPGNOIKA@Internal?5error?3?5cone_analyze?5ver@
; File c:\levolver\yonkang-sefit\levolver\ev_ogl\inline.h
CONST	SEGMENT
??_C@_0EG@IPGNOIKA@Internal?5error?3?5cone_analyze?5ver@ DB 'Internal err'
	DB	'or: cone_analyze vertex %s: can''t find nextfe in felist.', 0aH
	DB	00H						; `string'
CONST	ENDS
;	COMDAT ??_C@_0DI@BHMKKIOI@pop?3?5Too?5many?5arcs?5around?5vertex@
CONST	SEGMENT
??_C@_0DI@BHMKKIOI@pop?3?5Too?5many?5arcs?5around?5vertex@ DB 'pop: Too m'
	DB	'any arcs around vertex %s in cone_analyze().', 0aH, 00H ; `string'
CONST	ENDS
;	COMDAT ??_C@_0DJ@EJIFEILG@pop?3?5Too?5many?5cells?5around?5verte@
CONST	SEGMENT
??_C@_0DJ@EJIFEILG@pop?3?5Too?5many?5cells?5around?5verte@ DB 'pop: Too m'
	DB	'any cells around vertex %s in cone_analyze().', 0aH, 00H ; `string'
CONST	ENDS
;	COMDAT ??_C@_09ODBKHHLC@POPFILM?4C?$AA@
CONST	SEGMENT
??_C@_09ODBKHHLC@POPFILM?4C?$AA@ DB 'POPFILM.C', 00H	; `string'
; Function compile flags: /Ogtp
; File c:\levolver\yonkang-sefit\levolver\ev_ogl\popfilm.c
CONST	ENDS
;	COMDAT _cone_analyze
_TEXT	SEGMENT
_fe$ = -36						; size = 4
_cellstart$ = -32					; size = 4
tv1081 = -28						; size = 4
_nodeflag$ = -24					; size = 4
_arcstart$ = -20					; size = 4
_v_id$ = -16						; size = 4
tv702 = -12						; size = 4
_valence$ = -12						; size = 4
tv674 = -8						; size = 4
_k$ = -4						; size = 4
tv1045 = 8						; size = 4
_vf$ = 8						; size = 4
_cellsides$ = 12					; size = 4
_count$ = 12						; size = 4
_arclen$ = 16						; size = 4
_cinfo$ = 16						; size = 4
_cone_analyze PROC					; COMDAT

; 1461 : {

	push	ebp
	mov	ebp, esp
	sub	esp, 36					; 00000024H

; 1462 :   int type;  /* final classification */
; 1463 :   facetedge_id fe,nextfe,ray,nextray;
; 1464 :   vertex_id v_id = vf->v_id;

	mov	eax, DWORD PTR _vf$[ebp]
	push	ebx

; 1465 :   int cellstart,arcstart,cellsides;
; 1466 :   int arclen,valence;
; 1467 :   int k,j;
; 1468 :   int nodeflag;  /* whether any interesting node has been found for cell */
; 1469 : 
; 1470 :   /* First, set up network structure of edges opposite central vertex */
; 1471 :   cinfo->felist = (facetedge_id *)temp_calloc(sizeof(facetedge_id),2*count);

	mov	ebx, DWORD PTR _cinfo$[ebp]
	push	esi
	mov	esi, DWORD PTR _count$[ebp]
	push	edi
	mov	edi, DWORD PTR [eax]
	push	1471					; 000005bfH
	lea	eax, DWORD PTR [esi+esi]
	push	OFFSET ??_C@_09ODBKHHLC@POPFILM?4C?$AA@
	push	eax
	push	4
	mov	DWORD PTR _v_id$[ebp], edi
	mov	DWORD PTR tv674[ebp], eax
	call	_kb_temp_calloc
	mov	DWORD PTR [ebx+16808], eax

; 1472 : 
; 1473 :   /* fill with outside edges of facets */
; 1474 :   for ( k = 0 ; k < count ; k++ )

	xor	eax, eax
	add	esp, 16					; 00000010H
	mov	DWORD PTR _k$[ebp], eax
	test	esi, esi
	jle	$LN97@cone_analy
	npad	11
$LL95@cone_analy:

; 1475 :   {
; 1476 :     fe = get_facet_fe(vf[k].f_id);

	mov	ecx, DWORD PTR _vf$[ebp]
	mov	eax, DWORD PTR [ecx+eax*8+4]
	test	eax, 268435456				; 10000000H
	jne	SHORT $LN37@cone_analy
	xor	ecx, ecx
	jmp	SHORT $LN36@cone_analy
$LN37@cone_analy:
	mov	ecx, DWORD PTR _web+236
	mov	edx, eax
	and	edx, 134217727				; 07ffffffH
	mov	edx, DWORD PTR [ecx+edx*4]
	mov	ecx, DWORD PTR [edx+28]
	test	eax, 134217728				; 08000000H
	je	SHORT $LN36@cone_analy
	xor	ecx, 134217728				; 08000000H
$LN36@cone_analy:

; 1477 :     if ( equal_id(v_id,get_fe_tailv(fe)) )

	mov	edx, DWORD PTR _web+460
	mov	esi, DWORD PTR _dymem
	mov	eax, ecx
	and	eax, 134217727				; 07ffffffH
	mov	eax, DWORD PTR [edx+eax*4]
	mov	DWORD PTR tv702[ebp], eax
	mov	eax, DWORD PTR [eax+20]
	mov	edx, ecx
	and	edx, 134217728				; 08000000H
	xor	eax, edx
	mov	edx, DWORD PTR _web+216
	mov	edx, DWORD PTR [edx+esi+304]
	mov	esi, DWORD PTR _web+124
	test	eax, 134217728				; 08000000H
	je	SHORT $LN43@cone_analy
	mov	ebx, DWORD PTR _web+636
	mov	edi, eax
	and	edi, 134217727				; 07ffffffH
	mov	edi, DWORD PTR [esi+edi*4]
	lea	edi, DWORD PTR [edi+ebx*4]
	mov	ebx, DWORD PTR [edi+edx]
	mov	edi, DWORD PTR _v_id$[ebp]
	jmp	SHORT $LN42@cone_analy
$LN43@cone_analy:
	mov	ebx, eax
	and	ebx, 134217727				; 07ffffffH
	mov	ebx, DWORD PTR [esi+ebx*4]
	mov	ebx, DWORD PTR [edx+ebx]
$LN42@cone_analy:
	cmp	edi, ebx
	jne	SHORT $LN24@cone_analy

; 1478 :       fe = get_next_edge(fe);

	test	ecx, 134217728				; 08000000H
	je	SHORT $LN47@cone_analy
	mov	eax, DWORD PTR tv702[ebp]
	mov	ecx, DWORD PTR [eax+28]
	xor	ecx, 134217728				; 08000000H
	jmp	SHORT $LN96@cone_analy
$LN47@cone_analy:
	mov	ecx, DWORD PTR tv702[ebp]
	mov	ecx, DWORD PTR [ecx+32]
	jmp	SHORT $LN96@cone_analy
$LN24@cone_analy:

; 1479 :     else if ( equal_id(v_id,get_fe_headv(fe)) )

	test	eax, 134217728				; 08000000H
	je	SHORT $LN53@cone_analy
	and	eax, 134217727				; 07ffffffH
	mov	eax, DWORD PTR [esi+eax*4]
	mov	edx, DWORD PTR [edx+eax]
	jmp	SHORT $LN52@cone_analy
$LN53@cone_analy:
	and	eax, 134217727				; 07ffffffH
	mov	eax, DWORD PTR [esi+eax*4]
	mov	esi, DWORD PTR _web+636
	lea	eax, DWORD PTR [eax+esi*4]
	mov	edx, DWORD PTR [eax+edx]
$LN52@cone_analy:
	cmp	edi, edx
	jne	SHORT $LN96@cone_analy

; 1480 :       fe = get_prev_edge(fe);

	test	ecx, 134217728				; 08000000H
	je	SHORT $LN57@cone_analy
	mov	ecx, DWORD PTR tv702[ebp]
	mov	ecx, DWORD PTR [ecx+32]
	xor	ecx, 134217728				; 08000000H
	jmp	SHORT $LN96@cone_analy
$LN57@cone_analy:
	mov	edx, DWORD PTR tv702[ebp]
	mov	ecx, DWORD PTR [edx+28]
$LN96@cone_analy:

; 1481 :     cinfo->felist[2*k] = fe;

	mov	ebx, DWORD PTR _cinfo$[ebp]
	mov	eax, DWORD PTR _k$[ebp]
	mov	edx, DWORD PTR [ebx+16808]
	mov	DWORD PTR [edx+eax*8], ecx

; 1482 :     cinfo->felist[2*k+1] = inverse_id(fe);

	mov	edx, DWORD PTR [ebx+16808]
	xor	ecx, 134217728				; 08000000H
	mov	DWORD PTR [edx+eax*8+4], ecx
	inc	eax
	mov	DWORD PTR _k$[ebp], eax
	cmp	eax, DWORD PTR _count$[ebp]
	jl	$LL95@cone_analy
$LN97@cone_analy:

; 1483 :   }
; 1484 : 
; 1485 :   /* order into arcs and cell boundaries */
; 1486 :   k = 0;        /* current edge number */

	xor	esi, esi

; 1487 :   cinfo->cells = 0;    /* current cell number */

	mov	DWORD PTR [ebx], esi

; 1488 :   cinfo->arcs = 0;     /* current arc number */

	mov	DWORD PTR [ebx+4], esi

; 1489 :   while ( k < 2*count )

	cmp	DWORD PTR tv674[ebp], esi
	jle	$LN92@cone_analy
$CELLSTART$89962:

; 1490 :   {
; 1491 : CELLSTART:
; 1492 :     /* starting new cell */
; 1493 :     if ( k >= 2*count ) break;

	cmp	esi, DWORD PTR tv674[ebp]
	jge	$LN92@cone_analy

; 1494 :     if ( cinfo->cells >= CELLMAX )

	cmp	DWORD PTR [ebx], 300			; 0000012cH
	jl	SHORT $LN98@cone_analy

; 1495 :     { sprintf(errmsg,"pop: Too many cells around vertex %s in cone_analyze().\n",
; 1496 :          ELNAME(v_id));

	test	edi, 268435456				; 10000000H
	je	SHORT $LN30@cone_analy
	mov	eax, edi
	and	eax, 134217727				; 07ffffffH
	inc	eax
	push	eax
	push	OFFSET ??_C@_02DPKJAMEF@?$CFd?$AA@
	push	OFFSET _elnames
	call	_sprintf
	add	esp, 12					; 0000000cH
	mov	eax, OFFSET _elnames
	jmp	SHORT $LN31@cone_analy
$LN30@cone_analy:
	mov	eax, OFFSET ??_C@_00CNPNBAHC@?$AA@
$LN31@cone_analy:
	push	eax
	push	OFFSET ??_C@_0DJ@EJIFEILG@pop?3?5Too?5many?5cells?5around?5verte@
	push	OFFSET _errmsg
	call	_sprintf

; 1497 :       kb_error(1301,errmsg, RECOVERABLE);

	push	1
	push	OFFSET _errmsg
	push	1301					; 00000515H
	call	_kb_error
	add	esp, 24					; 00000018H
$LN98@cone_analy:

; 1498 :     }
; 1499 : 
; 1500 :     nodeflag = 0;  /* whether interesting node found on cell */
; 1501 :     cellstart = k;
; 1502 :     cellsides = 0;
; 1503 :     cinfo->cell[cinfo->cells].start = cinfo->arcs;

	mov	ecx, DWORD PTR [ebx]
	mov	edx, DWORD PTR [ebx+4]
	xor	eax, eax
	shl	ecx, 5
	mov	DWORD PTR _nodeflag$[ebp], eax
	mov	DWORD PTR _cellstart$[ebp], esi
	mov	DWORD PTR _cellsides$[ebp], eax
	mov	DWORD PTR [ecx+ebx+8], edx
	npad	2
$ARCSTART$89968:

; 1504 : 
; 1505 : ARCSTART:
; 1506 :     /* starting new arc */
; 1507 :     if ( cinfo->arcs >= ARCMAX )

	cmp	DWORD PTR [ebx+4], 600			; 00000258H
	jl	SHORT $LN103@cone_analy

; 1508 :     { sprintf(errmsg,"pop: Too many arcs around vertex %s in cone_analyze().\n",
; 1509 :          ELNAME(v_id));

	test	edi, 268435456				; 10000000H
	je	SHORT $LN32@cone_analy
	and	edi, 134217727				; 07ffffffH
	inc	edi
	push	edi
	push	OFFSET ??_C@_02DPKJAMEF@?$CFd?$AA@
	push	OFFSET _elnames
	call	_sprintf
	add	esp, 12					; 0000000cH
	mov	eax, OFFSET _elnames
	jmp	SHORT $LN33@cone_analy
$LN32@cone_analy:
	mov	eax, OFFSET ??_C@_00CNPNBAHC@?$AA@
$LN33@cone_analy:
	push	eax
	push	OFFSET ??_C@_0DI@BHMKKIOI@pop?3?5Too?5many?5arcs?5around?5vertex@
	push	OFFSET _errmsg
	call	_sprintf

; 1510 :       kb_error(1302,errmsg, RECOVERABLE);

	push	1
	push	OFFSET _errmsg
	push	1302					; 00000516H
	call	_kb_error
	add	esp, 24					; 00000018H
$LN103@cone_analy:

; 1511 :     }
; 1512 : 
; 1513 :     arcstart = k;
; 1514 :     cinfo->arclist[cinfo->arcs].start = arcstart;

	mov	eax, DWORD PTR [ebx+4]
	lea	eax, DWORD PTR [eax+eax*2]
	mov	DWORD PTR _arcstart$[ebp], esi
	mov	DWORD PTR [ebx+eax*4+9608], esi
	inc	esi
	mov	DWORD PTR tv1081[ebp], esi
	npad	1
$ARCRESTART$89973:

; 1515 : ARCRESTART:
; 1516 :     arclen = 0;

	mov	edx, DWORD PTR tv1081[ebp]

; 1517 : 
; 1518 :     for (k = arcstart; k < 2*count ;k++)

	mov	ecx, DWORD PTR _arcstart$[ebp]
	mov	DWORD PTR tv1045[ebp], edx
	mov	edx, DWORD PTR _web+460
	mov	DWORD PTR _arclen$[ebp], 0
	mov	DWORD PTR _k$[ebp], ecx
	npad	7
$LL16@cone_analy:
	cmp	ecx, DWORD PTR tv674[ebp]
	jge	$LN92@cone_analy

; 1519 :     {
; 1520 :       /* starting next edge */
; 1521 :       arclen++;
; 1522 :       fe = cinfo->felist[k];

	mov	eax, DWORD PTR [ebx+16808]
	mov	eax, DWORD PTR [eax+ecx*4]
	inc	DWORD PTR _arclen$[ebp]
	mov	DWORD PTR _fe$[ebp], eax

; 1523 :       nextray = ray = get_next_edge(fe);

	test	eax, 134217728				; 08000000H
	je	SHORT $LN61@cone_analy
	and	eax, 134217727				; 07ffffffH
	mov	eax, DWORD PTR [edx+eax*4]
	mov	eax, DWORD PTR [eax+28]
	xor	eax, 134217728				; 08000000H
	jmp	SHORT $LN60@cone_analy
$LN61@cone_analy:
	and	eax, 134217727				; 07ffffffH
	mov	ecx, DWORD PTR [edx+eax*4]
	mov	eax, DWORD PTR [ecx+32]
$LN60@cone_analy:
	mov	ecx, eax

; 1524 :       for ( valence = 1 ; ; valence++ )

	mov	esi, 1
$LL13@cone_analy:

; 1525 :       { nextray = get_next_facet(nextray);

	test	ecx, 134217728				; 08000000H
	je	SHORT $LN65@cone_analy
	and	ecx, 134217727				; 07ffffffH
	mov	ecx, DWORD PTR [edx+ecx*4]
	mov	ecx, DWORD PTR [ecx+36]
	xor	ecx, 134217728				; 08000000H
	jmp	SHORT $LN64@cone_analy
$LN65@cone_analy:
	and	ecx, 134217727				; 07ffffffH
	mov	ecx, DWORD PTR [edx+ecx*4]
	mov	ecx, DWORD PTR [ecx+40]
$LN64@cone_analy:

; 1526 :         if ( equal_id(nextray,ray) ) break;

	cmp	ecx, eax
	je	SHORT $LN88@cone_analy

; 1524 :       for ( valence = 1 ; ; valence++ )

	inc	esi
	jmp	SHORT $LL13@cone_analy
$LN88@cone_analy:
	mov	DWORD PTR _valence$[ebp], esi

; 1527 :       }
; 1528 :       nextray = get_next_facet(ray);

	test	eax, 134217728				; 08000000H
	je	SHORT $LN69@cone_analy
	and	eax, 134217727				; 07ffffffH
	mov	eax, DWORD PTR [edx+eax*4]
	mov	eax, DWORD PTR [eax+36]
	xor	eax, 134217728				; 08000000H
	jmp	SHORT $LN68@cone_analy
$LN69@cone_analy:
	and	eax, 134217727				; 07ffffffH
	mov	ecx, DWORD PTR [edx+eax*4]
	mov	eax, DWORD PTR [ecx+40]
$LN68@cone_analy:

; 1529 :       nextfe = get_next_edge(inverse_id(nextray));

	xor	eax, 134217728				; 08000000H
	test	eax, 134217728				; 08000000H
	je	SHORT $LN73@cone_analy
	and	eax, 134217727				; 07ffffffH
	mov	eax, DWORD PTR [edx+eax*4]
	mov	edi, DWORD PTR [eax+28]
	xor	edi, 134217728				; 08000000H
	jmp	SHORT $LN72@cone_analy
$LN73@cone_analy:
	and	eax, 134217727				; 07ffffffH
	mov	ecx, DWORD PTR [edx+eax*4]
	mov	edi, DWORD PTR [ecx+32]
$LN72@cone_analy:

; 1530 :       if ( equal_id(nextfe,cinfo->felist[cellstart]) )  /* have gone around */

	mov	eax, DWORD PTR [ebx+16808]
	mov	ecx, DWORD PTR _cellstart$[ebp]
	cmp	edi, DWORD PTR [eax+ecx*4]
	je	$LN90@cone_analy

; 1539 :         goto CELLSTART;
; 1540 :       }
; 1541 : 
; 1542 :       /* linear search list until nextfe found */
; 1543 :       for ( j = k+1 ; j < 2*count ; j++ )

	mov	esi, DWORD PTR tv1045[ebp]
	mov	eax, esi
	cmp	eax, DWORD PTR tv674[ebp]
	jge	SHORT $LN100@cone_analy
	mov	eax, DWORD PTR [ebx+16808]
	mov	ecx, DWORD PTR _k$[ebp]
	lea	eax, DWORD PTR [eax+ecx*4+4]
	npad	4
$LL99@cone_analy:

; 1544 :         if ( equal_id(nextfe,cinfo->felist[j]) ) break;

	cmp	edi, DWORD PTR [eax]
	je	SHORT $LN100@cone_analy

; 1539 :         goto CELLSTART;
; 1540 :       }
; 1541 : 
; 1542 :       /* linear search list until nextfe found */
; 1543 :       for ( j = k+1 ; j < 2*count ; j++ )

	inc	esi
	add	eax, 4
	cmp	esi, DWORD PTR tv674[ebp]
	jl	SHORT $LL99@cone_analy
$LN100@cone_analy:

; 1545 :       if ( !equal_id(nextfe,cinfo->felist[j]) ) 

	mov	eax, DWORD PTR [ebx+16808]
	cmp	edi, DWORD PTR [eax+esi*4]
	je	SHORT $LN4@cone_analy

; 1546 :       { sprintf(errmsg,
; 1547 :        "Internal error: cone_analyze vertex %s: can't find nextfe in felist.\n",
; 1548 :           ELNAME(v_id));

	mov	eax, DWORD PTR _v_id$[ebp]
	test	eax, 268435456				; 10000000H
	je	SHORT $LN34@cone_analy
	and	eax, 134217727				; 07ffffffH
	inc	eax
	push	eax
	push	OFFSET ??_C@_02DPKJAMEF@?$CFd?$AA@
	push	OFFSET _elnames
	call	_sprintf
	add	esp, 12					; 0000000cH
	mov	eax, OFFSET _elnames
	jmp	SHORT $LN35@cone_analy
$LN34@cone_analy:
	mov	eax, OFFSET ??_C@_00CNPNBAHC@?$AA@
$LN35@cone_analy:
	push	eax
	push	OFFSET ??_C@_0EG@IPGNOIKA@Internal?5error?3?5cone_analyze?5ver@
	push	OFFSET _errmsg
	call	_sprintf

; 1549 :         kb_error(1303,errmsg,RECOVERABLE);

	push	1
	push	OFFSET _errmsg
	push	1303					; 00000517H
	call	_kb_error
	mov	edx, DWORD PTR _web+460
	add	esp, 24					; 00000018H
$LN4@cone_analy:

; 1550 :       }
; 1551 :       if ( j > k+1 ) /* swap into place */

	cmp	esi, DWORD PTR tv1045[ebp]
	jle	SHORT $LN3@cone_analy

; 1552 :       {
; 1553 :         cinfo->felist[j] = cinfo->felist[k+1];

	mov	eax, DWORD PTR [ebx+16808]
	mov	ecx, DWORD PTR _k$[ebp]
	mov	edx, DWORD PTR [eax+ecx*4+4]
	mov	DWORD PTR [eax+esi*4], edx

; 1554 :         cinfo->felist[k+1] = nextfe;

	mov	eax, DWORD PTR [ebx+16808]
	mov	DWORD PTR [eax+ecx*4+4], edi
	mov	edx, DWORD PTR _web+460
$LN3@cone_analy:

; 1555 :       }
; 1556 : 
; 1557 :       /* see if node between is interesting */
; 1558 :       if ( (valence != 2))

	mov	ecx, DWORD PTR _valence$[ebp]
	cmp	ecx, 2
	jne	SHORT $LN91@cone_analy

; 1517 : 
; 1518 :     for (k = arcstart; k < 2*count ;k++)

	mov	eax, 1
	add	DWORD PTR _k$[ebp], eax
	add	DWORD PTR tv1045[ebp], eax
	mov	ecx, DWORD PTR _k$[ebp]
	jmp	$LL16@cone_analy
$LN91@cone_analy:

; 1559 :       { /* have interesting node */
; 1560 :         if ( nodeflag == 0 ) 

	cmp	DWORD PTR _nodeflag$[ebp], 0
	jne	SHORT $LN1@cone_analy

; 1561 :         { /* first interesting node for cell */
; 1562 :           /* reset felist so cell and arc start are same */
; 1563 :           cinfo->felist[k] = cinfo->felist[arcstart];

	mov	eax, DWORD PTR [ebx+16808]
	mov	ecx, DWORD PTR _arcstart$[ebp]
	mov	esi, DWORD PTR [eax+ecx*4]
	mov	edx, DWORD PTR _k$[ebp]
	mov	DWORD PTR [eax+edx*4], esi

; 1564 :           cinfo->felist[arcstart] = nextfe;

	mov	eax, DWORD PTR [ebx+16808]
	mov	DWORD PTR [eax+ecx*4], edi

; 1565 :           cinfo->felist[k+1] = fe;

	mov	ecx, DWORD PTR [ebx+16808]
	mov	eax, DWORD PTR _fe$[ebp]
	mov	DWORD PTR [ecx+edx*4+4], eax

; 1566 :           nodeflag = 1;

	mov	DWORD PTR _nodeflag$[ebp], 1
	jmp	$ARCRESTART$89973
$LN1@cone_analy:

; 1567 :           goto ARCRESTART;
; 1568 :         }
; 1569 :         cinfo->arclist[cinfo->arcs].num = arclen;

	mov	eax, DWORD PTR [ebx+4]
	mov	edi, DWORD PTR _v_id$[ebp]
	lea	edx, DWORD PTR [eax+eax*2+2403]
	mov	eax, DWORD PTR _arclen$[ebp]
	mov	DWORD PTR [ebx+edx*4], eax

; 1570 :         cinfo->arclist[cinfo->arcs].valence = valence;

	mov	eax, DWORD PTR [ebx+4]
	lea	edx, DWORD PTR [eax+eax*2]

; 1571 :         cinfo->arcs++;

	mov	eax, 1

; 1572 :         cellsides++;

	add	DWORD PTR _cellsides$[ebp], eax
	mov	DWORD PTR [ebx+edx*4+9616], ecx
	add	DWORD PTR [ebx+4], eax

; 1573 :         k++;

	add	DWORD PTR _k$[ebp], eax
	mov	esi, DWORD PTR _k$[ebp]
	jmp	$ARCSTART$89968
$LN90@cone_analy:

; 1531 :       {
; 1532 :         cinfo->arclist[cinfo->arcs].num = arclen;

	mov	eax, DWORD PTR [ebx+4]
	mov	ecx, DWORD PTR _arclen$[ebp]
	mov	edi, DWORD PTR _v_id$[ebp]
	lea	eax, DWORD PTR [eax+eax*2+2403]
	mov	DWORD PTR [ebx+eax*4], ecx

; 1533 :         cinfo->arclist[cinfo->arcs].valence = valence;

	mov	eax, DWORD PTR [ebx+4]

; 1534 :         cinfo->arcs++;
; 1535 :         cellsides++;

	mov	ecx, DWORD PTR _cellsides$[ebp]
	lea	edx, DWORD PTR [eax+eax*2]
	mov	DWORD PTR [ebx+edx*4+9616], esi

; 1536 :         cinfo->cell[cinfo->cells].num = cellsides;

	mov	edx, DWORD PTR [ebx]
	mov	eax, 1
	add	DWORD PTR [ebx+4], eax
	inc	ecx
	shl	edx, 5
	mov	DWORD PTR [edx+ebx+16], ecx

; 1537 :         cinfo->cells++;

	add	DWORD PTR [ebx], eax

; 1538 :         k++;

	add	DWORD PTR _k$[ebp], eax
	mov	esi, DWORD PTR _k$[ebp]
	jmp	$CELLSTART$89962
$LN92@cone_analy:

; 1574 :         goto ARCSTART;
; 1575 :       }
; 1576 :     }
; 1577 :   }
; 1578 : 
; 1579 :   type = figure_type(cinfo);  /* so stupid SUN can optimize */

	push	ebx
	call	_figure_type
	add	esp, 4
	pop	edi
	pop	esi
	pop	ebx

; 1580 : 
; 1581 :   return  type;
; 1582 : } // end cone_analyze()

	mov	esp, ebp
	pop	ebp
	ret	0
_cone_analyze ENDP
_TEXT	ENDS
PUBLIC	__real@3fe0000000000000
PUBLIC	??_C@_0DL@IFBFDMMM@Solid?5angle?5excess?5?$CFg?5found?5arou@ ; `string'
PUBLIC	__real@402921fca3cf85a6
PUBLIC	??_C@_0DM@IFHPAPBB@Solid?5angle?5deficit?5?$CFg?5found?5aro@ ; `string'
PUBLIC	__real@402921fb54442d18
PUBLIC	__real@402921fa04b8d48a
PUBLIC	__real@46293e5939a08cea
PUBLIC	__real@c6293e5939a08cea
PUBLIC	__real@402b21fb54442d18
PUBLIC	__real@400921fb54442d18
PUBLIC	__real@3ff0000000000000
PUBLIC	__real@402721fb54442d18
PUBLIC	__real@401921fb54442d18
PUBLIC	__real@3fd0000000000000
PUBLIC	__real@bff0000000000000
PUBLIC	__real@3fec28f5c28f5c29
PUBLIC	??_C@_0CO@NMLPBPFF@Vertex?5?$CFs?5looks?5like?5double?5cone@ ; `string'
PUBLIC	??_C@_0BD@NKPMPOOD@Popping?5vertex?5?$CFs?6?$AA@ ; `string'
PUBLIC	_cinfo$GSCopy$
PUBLIC	_v_id$GSCopy$
PUBLIC	__$ArrayPad$
PUBLIC	_pop_vertex
EXTRN	_free_element:PROC
EXTRN	_set_fe_facet:PROC
EXTRN	_divide_quad:PROC
EXTRN	_set_v_conmap:PROC
EXTRN	_new_vertex:PROC
EXTRN	_cross_prod:PROC
EXTRN	_face_triangulate:PROC
EXTRN	_cross_cut:PROC
EXTRN	_septum_flag:DWORD
EXTRN	_pop_enjoin_flag:DWORD
EXTRN	_pop_disjoin_flag:DWORD
EXTRN	_get_edge_side:PROC
EXTRN	__CIacos:PROC
EXTRN	__CIsqrt:PROC
EXTRN	_memset:PROC
;	COMDAT __real@3fe0000000000000
; File c:\levolver\yonkang-sefit\levolver\ev_ogl\inline.h
CONST	SEGMENT
__real@3fe0000000000000 DQ 03fe0000000000000r	; 0.5
CONST	ENDS
;	COMDAT ??_C@_0DL@IFBFDMMM@Solid?5angle?5excess?5?$CFg?5found?5arou@
CONST	SEGMENT
??_C@_0DL@IFBFDMMM@Solid?5angle?5excess?5?$CFg?5found?5arou@ DB 'Solid an'
	DB	'gle excess %g found around vertex %s. Not popped.', 0aH, 00H ; `string'
CONST	ENDS
;	COMDAT __real@402921fca3cf85a6
CONST	SEGMENT
__real@402921fca3cf85a6 DQ 0402921fca3cf85a6r	; 12.5664
CONST	ENDS
;	COMDAT ??_C@_0DM@IFHPAPBB@Solid?5angle?5deficit?5?$CFg?5found?5aro@
CONST	SEGMENT
??_C@_0DM@IFHPAPBB@Solid?5angle?5deficit?5?$CFg?5found?5aro@ DB 'Solid an'
	DB	'gle deficit %g found around vertex %s. Not popped.', 0aH, 00H ; `string'
CONST	ENDS
;	COMDAT __real@402921fb54442d18
CONST	SEGMENT
__real@402921fb54442d18 DQ 0402921fb54442d18r	; 12.5664
CONST	ENDS
;	COMDAT __real@402921fa04b8d48a
CONST	SEGMENT
__real@402921fa04b8d48a DQ 0402921fa04b8d48ar	; 12.5664
CONST	ENDS
;	COMDAT __real@46293e5939a08cea
CONST	SEGMENT
__real@46293e5939a08cea DQ 046293e5939a08cear	; 1e+030
CONST	ENDS
;	COMDAT __real@c6293e5939a08cea
CONST	SEGMENT
__real@c6293e5939a08cea DQ 0c6293e5939a08cear	; -1e+030
CONST	ENDS
;	COMDAT __real@402b21fb54442d18
CONST	SEGMENT
__real@402b21fb54442d18 DQ 0402b21fb54442d18r	; 13.5664
CONST	ENDS
;	COMDAT __real@400921fb54442d18
CONST	SEGMENT
__real@400921fb54442d18 DQ 0400921fb54442d18r	; 3.14159
CONST	ENDS
;	COMDAT __real@3ff0000000000000
CONST	SEGMENT
__real@3ff0000000000000 DQ 03ff0000000000000r	; 1
CONST	ENDS
;	COMDAT __real@402721fb54442d18
CONST	SEGMENT
__real@402721fb54442d18 DQ 0402721fb54442d18r	; 11.5664
CONST	ENDS
;	COMDAT __real@401921fb54442d18
CONST	SEGMENT
__real@401921fb54442d18 DQ 0401921fb54442d18r	; 6.28319
CONST	ENDS
;	COMDAT __real@3fd0000000000000
CONST	SEGMENT
__real@3fd0000000000000 DQ 03fd0000000000000r	; 0.25
CONST	ENDS
;	COMDAT __real@bff0000000000000
CONST	SEGMENT
__real@bff0000000000000 DQ 0bff0000000000000r	; -1
CONST	ENDS
;	COMDAT __real@3fec28f5c28f5c29
CONST	SEGMENT
__real@3fec28f5c28f5c29 DQ 03fec28f5c28f5c29r	; 0.88
CONST	ENDS
;	COMDAT ??_C@_0CO@NMLPBPFF@Vertex?5?$CFs?5looks?5like?5double?5cone@
CONST	SEGMENT
??_C@_0CO@NMLPBPFF@Vertex?5?$CFs?5looks?5like?5double?5cone@ DB 'Vertex %'
	DB	's looks like double cones but isn''t.', 0aH, 00H ; `string'
CONST	ENDS
;	COMDAT ??_C@_0BD@NKPMPOOD@Popping?5vertex?5?$CFs?6?$AA@
CONST	SEGMENT
??_C@_0BD@NKPMPOOD@Popping?5vertex?5?$CFs?6?$AA@ DB 'Popping vertex %s', 0aH
	DB	00H						; `string'
; Function compile flags: /Ogtp
; File c:\levolver\yonkang-sefit\levolver\ev_ogl\popfilm.c
CONST	ENDS
;	COMDAT _pop_vertex
_TEXT	SEGMENT
_thisnorm$ = -836					; size = 8
tv5943 = -832						; size = 4
_flipflag$ = -832					; size = 4
tv3737 = -828						; size = 8
tv6250 = -824						; size = 4
_prev_fe3$90070 = -824					; size = 4
_samecell2$ = -824					; size = 4
tv7639 = -820						; size = 8
_total_angle$ = -820					; size = 8
_area2$90055 = -820					; size = 8
tv6160 = -816						; size = 4
tv5674 = -816						; size = 4
_maxarea$ = -812					; size = 8
tv6366 = -808						; size = 4
tv5183 = -808						; size = 4
_v1$90274 = -808					; size = 4
_newfe2$90160 = -808					; size = 4
_totside1length$ = -804					; size = 8
tv5250 = -800						; size = 4
_fe_2next$90158 = -800					; size = 4
_bs1$ = -800						; size = 4
tv3755 = -796						; size = 8
_bestcosa$90047 = -796					; size = 8
_total_area$ = -796					; size = 8
tv6350 = -792						; size = 4
tv6274 = -792						; size = 4
tv5684 = -792						; size = 4
_newv$90185 = -792					; size = 4
_fe$ = -788						; size = 4
_fe_2$90051 = -788					; size = 4
_bestray1$90048 = -788					; size = 4
tv6157 = -784						; size = 4
_fe_1$90050 = -784					; size = 4
_bestray2$90049 = -784					; size = 4
_v_id$GSCopy$ = -780					; size = 4
tv7641 = -776						; size = 8
_angle$ = -776						; size = 8
_prevnorm$ = -776					; size = 8
_area1$90054 = -776					; size = 8
tv6315 = -772						; size = 4
tv5949 = -772						; size = 4
tv5181 = -772						; size = 4
$T94448 = -772						; size = 4
_vx$ = -772						; size = 4
tv6173 = -768						; size = 4
_new_f$90288 = -768					; size = 4
_f_septum$90066 = -768					; size = 4
tv5644 = -764						; size = 4
_bo1$ = -764						; size = 4
_old_bdrynum$ = -764					; size = 4
tv6253 = -760						; size = 4
_prev_fe$90290 = -760					; size = 4
_new_e$90276 = -760					; size = 4
_first_fe3$90069 = -760					; size = 4
tv5753 = -756						; size = 4
tv5180 = -756						; size = 4
_e_1$90153 = -756					; size = 4
_othercell2$ = -756					; size = 4
_totside2length$ = -752					; size = 8
_bs2$ = -748						; size = 4
_j$ = -748						; size = 4
_i$ = -748						; size = 4
tv8822 = -744						; size = 4
tv8056 = -744						; size = 4
_old_conmap$ = -744					; size = 4
_fenum$ = -744						; size = 4
_middleflag$90068 = -744				; size = 4
tv7666 = -740						; size = 4
_fe_1next$90157 = -740					; size = 4
_othercell$90053 = -740					; size = 4
_k$ = -740						; size = 4
tv5788 = -736						; size = 4
tv5647 = -736						; size = 4
tv5191 = -736						; size = 4
_f_1$90161 = -736					; size = 4
_bigcell$ = -736					; size = 4
tv8918 = -732						; size = 4
tv5769 = -732						; size = 4
_ray_fe$ = -732						; size = 4
_f_2$90162 = -732					; size = 4
_samecell$90052 = -732					; size = 4
tv5664 = -728						; size = 4
_cinfo$GSCopy$ = -728					; size = 4
_newx$ = -724						; size = 48
_ray$ = -676						; size = 48
_normal1$90056 = -628					; size = 48
_edge2$90140 = -580					; size = 48
_axis1$90060 = -532					; size = 48
_normal2$90057 = -484					; size = 48
_thisnormal$ = -436					; size = 48
_side$ = -388						; size = 48
_prevnormal$ = -340					; size = 48
_rayvec$90256 = -292					; size = 48
_edge1$90139 = -292					; size = 48
_side1$90062 = -244					; size = 48
_side2$90063 = -196					; size = 48
_axis2$90061 = -148					; size = 48
_totnorm2$90059 = -100					; size = 48
_totnorm1$90058 = -52					; size = 48
__$ArrayPad$ = -4					; size = 4
_v_id$ = 8						; size = 4
_count$ = 12						; size = 4
_cinfo$ = 16						; size = 4
_pop_vertex PROC					; COMDAT

; 1601 : {

	push	ebp
	mov	ebp, esp
	sub	esp, 836				; 00000344H
	mov	eax, DWORD PTR ___security_cookie
	xor	eax, ebp
	mov	DWORD PTR __$ArrayPad$[ebp], eax

; 1602 :   int i,j,k,m;
; 1603 :   struct arc *ar;
; 1604 :   int fenum;
; 1605 :   facetedge_id fe;
; 1606 :   REAL cosdef;
; 1607 :   REAL prevnormal[MAXCOORD],prevnorm;
; 1608 :   REAL thisnormal[MAXCOORD],thisnorm;
; 1609 :   REAL maxarea = 0.0;

	fldz
	mov	eax, DWORD PTR _v_id$[ebp]
	push	ebx
	fld	ST(0)
	push	esi
	fst	QWORD PTR _maxarea$[ebp]

; 1610 :   int  bigcell=0;

	xor	ebx, ebx

; 1611 :   REAL total_area = 0.0;

	fxch	ST(1)
	push	edi
	fst	QWORD PTR _total_area$[ebp]
	mov	edi, DWORD PTR _cinfo$[ebp]
	mov	DWORD PTR _v_id$GSCopy$[ebp], eax
	mov	DWORD PTR _cinfo$GSCopy$[ebp], edi
	mov	DWORD PTR _bigcell$[ebp], ebx

; 1612 :   REAL total_angle,angle;
; 1613 :   REAL side[MAXCOORD],ray[MAXCOORD];  
; 1614 :   REAL *vx,newx[MAXCOORD];
; 1615 :   edge_id ray_e;
; 1616 :   facetedge_id ray_fe;
; 1617 :   vertex_id new_v;
; 1618 :   conmap_t *old_conmap;
; 1619 :   int old_bdrynum = -1;

	mov	DWORD PTR _old_bdrynum$[ebp], -1

; 1620 :   int samecell2, othercell2;
; 1621 :   body_id bs1,bs2,bo1,bo2;
; 1622 :   REAL totside1length,totside2length;
; 1623 :   int flipflag = 0; /* if cones switched in widecones */

	mov	DWORD PTR _flipflag$[ebp], ebx

; 1624 :   
; 1625 :   if ( verbose_flag )

	cmp	DWORD PTR _verbose_flag, ebx
	je	SHORT $LN746@pop_vertex
	fstp	ST(0)
	fstp	ST(0)

; 1626 :   { sprintf(msg,"Popping vertex %s\n",ELNAME(v_id));

	test	eax, 268435456				; 10000000H
	je	SHORT $LN148@pop_vertex
	and	eax, 134217727				; 07ffffffH
	inc	eax
	push	eax
	push	OFFSET ??_C@_02DPKJAMEF@?$CFd?$AA@
	push	OFFSET _elnames
	call	_sprintf
	add	esp, 12					; 0000000cH
	mov	eax, OFFSET _elnames
	jmp	SHORT $LN149@pop_vertex
$LN148@pop_vertex:
	mov	eax, OFFSET ??_C@_00CNPNBAHC@?$AA@
$LN149@pop_vertex:
	push	eax
	mov	eax, DWORD PTR _msg
	push	OFFSET ??_C@_0BD@NKPMPOOD@Popping?5vertex?5?$CFs?6?$AA@
	push	eax
	call	_sprintf

; 1627 :     outstring(msg);

	mov	ecx, DWORD PTR _msg
	push	ecx
	call	_outstring
	fld	QWORD PTR _maxarea$[ebp]
	fld	QWORD PTR _total_area$[ebp]
	add	esp, 16					; 00000010H
$LN746@pop_vertex:

; 1628 :   }
; 1629 : 
; 1630 :   /* fix up cell structures */
; 1631 :   for ( i = 0 ; i < cinfo->cells ; i++ )

	cmp	DWORD PTR [edi], ebx
	jle	SHORT $LN142@pop_vertex
	lea	eax, DWORD PTR [edi+20]
$LN755@pop_vertex:

; 1633 :     ar = cinfo->arclist + cinfo->cell[i].start;

	mov	ecx, DWORD PTR [eax-12]
	lea	edx, DWORD PTR [ecx+ecx*2]
	lea	esi, DWORD PTR [edi+edx*4+9608]
	mov	DWORD PTR [eax], 0

; 1634 :     cinfo->cell[i].festart = ar->start;

	mov	ecx, DWORD PTR [esi]

; 1635 :     for ( j = 0 ; j < cinfo->cell[i].num ; j++, ar++ )

	xor	edx, edx
	mov	DWORD PTR [eax-8], ecx
	cmp	DWORD PTR [eax-4], edx
	jle	SHORT $LN143@pop_vertex

; 1632 :   { cinfo->cell[i].fenum = 0;

	xor	ecx, ecx
	add	esi, 4
$LN141@pop_vertex:

; 1636 :       cinfo->cell[i].fenum += ar->num;

	add	ecx, DWORD PTR [esi]
	inc	edx
	mov	DWORD PTR [eax], ecx
	add	esi, 12					; 0000000cH
	cmp	edx, DWORD PTR [eax-4]
	jl	SHORT $LN141@pop_vertex
$LN143@pop_vertex:

; 1628 :   }
; 1629 : 
; 1630 :   /* fix up cell structures */
; 1631 :   for ( i = 0 ; i < cinfo->cells ; i++ )

	inc	ebx
	add	eax, 32					; 00000020H
	cmp	ebx, DWORD PTR [edi]
	jl	SHORT $LN755@pop_vertex
$LN142@pop_vertex:

; 1637 :   }
; 1638 : 
; 1639 :   /* check for special configuration of touching disjoint cones
; 1640 :      that may want to be merged rather than split
; 1641 :   */
; 1642 :   if ( (cinfo->cells == 4) && (cinfo->cell[0].num == 1) && (cinfo->cell[1].num == 1)
; 1643 :           && (cinfo->cell[2].num == 1) && (cinfo->cell[3].num == 1) )

	cmp	DWORD PTR [edi], 4
	jne	$narrowcones$90111
	mov	edx, edi
	cmp	DWORD PTR [edx+16], 1
	jne	$narrowcones$90111
	mov	eax, edx
	cmp	DWORD PTR [eax+48], 1
	jne	$narrowcones$90111
	mov	ecx, eax
	cmp	DWORD PTR [ecx+80], 1
	jne	$narrowcones$90111
	cmp	DWORD PTR [edx+112], 1
	jne	$narrowcones$90111

; 1644 :   { REAL cosa,bestcosa; 
; 1645 :     facetedge_id bestray1=NULLID, bestray2=NULLID,fe_1,fe_2;

	xor	eax, eax
	fstp	ST(0)
	mov	DWORD PTR _bestray1$90048[ebp], eax
	fstp	ST(0)
	mov	DWORD PTR _bestray2$90049[ebp], eax

; 1646 :     int samecell,othercell;
; 1647 :     REAL area1,area2,normal1[MAXCOORD],normal2[MAXCOORD];
; 1648 :     REAL totnorm1[MAXCOORD],totnorm2[MAXCOORD];
; 1649 :     REAL axis1[MAXCOORD], axis2[MAXCOORD];
; 1650 :     REAL side1[MAXCOORD], side2[MAXCOORD];
; 1651 :     facet_id f_1,f_2,f_septum=NULLID;

	mov	DWORD PTR _f_septum$90066[ebp], eax

; 1652 :     REAL ratio;
; 1653 :     int middleflag = 0; /* whether to put in septum */

	mov	DWORD PTR _middleflag$90068[ebp], eax

; 1654 :     facetedge_id first_fe3=NULLID, prev_fe3, newfe3;

	mov	DWORD PTR _first_fe3$90069[ebp], eax

; 1655 :     body_id b_1, b_2;
; 1656 :  
; 1657 :     /* first, see which cells are really the same cones */
; 1658 :     samecell = 0;

	mov	DWORD PTR _samecell$90052[ebp], eax

; 1659 :     for ( i = 1 ; i < cinfo->cells ; i++ )

	mov	eax, ecx
	mov	ecx, DWORD PTR [eax+20]
	add	eax, 52					; 00000034H
	mov	DWORD PTR _i$[ebp], 1
	mov	DWORD PTR $T94448[ebp], ecx
	mov	DWORD PTR tv7666[ebp], eax
$LL137@pop_vertex:

; 1660 :     { for ( j = 0 ; j < cinfo->cell[0].fenum ; j++ )

	xor	ebx, ebx
	test	ecx, ecx
	jle	SHORT $LN136@pop_vertex
	mov	eax, DWORD PTR tv7666[ebp]
	mov	esi, DWORD PTR [eax]
$LL761@pop_vertex:

; 1661 :        for ( k = 0 ; k < cinfo->cell[i].fenum ; k++ )

	xor	ecx, ecx
	test	esi, esi
	jle	SHORT $LN133@pop_vertex
	mov	edx, DWORD PTR _cinfo$GSCopy$[ebp]
	mov	eax, DWORD PTR [edx+16808]
	mov	edx, DWORD PTR [edx+12]
	mov	edi, DWORD PTR tv7666[ebp]
	mov	edi, DWORD PTR [edi-8]
	add	edx, ebx
	mov	edx, DWORD PTR [eax+edx*4]
	or	edx, 134217728				; 08000000H
	lea	eax, DWORD PTR [eax+edi*4]
	npad	1
$LL131@pop_vertex:

; 1662 :         if (equal_element(cinfo->felist[cinfo->cell[0].festart+j],cinfo->felist[cinfo->cell[i].festart+k])) 

	mov	edi, DWORD PTR [eax]
	or	edi, 134217728				; 08000000H
	cmp	edx, edi
	je	SHORT $LN631@pop_vertex

; 1661 :        for ( k = 0 ; k < cinfo->cell[i].fenum ; k++ )

	inc	ecx
	add	eax, 4
	cmp	ecx, esi
	jl	SHORT $LL131@pop_vertex

; 1720 :         if ( (j != samecell) && (j != othercell) ) break;

	jmp	SHORT $LN133@pop_vertex
$LN631@pop_vertex:

; 1663 :         { samecell = i;

	mov	eax, DWORD PTR _i$[ebp]
	mov	DWORD PTR _samecell$90052[ebp], eax
$LN133@pop_vertex:

; 1660 :     { for ( j = 0 ; j < cinfo->cell[0].fenum ; j++ )

	mov	ecx, DWORD PTR $T94448[ebp]
	inc	ebx
	cmp	ebx, ecx
	jl	SHORT $LL761@pop_vertex
$LN136@pop_vertex:

; 1659 :     for ( i = 1 ; i < cinfo->cells ; i++ )

	mov	eax, DWORD PTR _i$[ebp]
	add	DWORD PTR tv7666[ebp], 32		; 00000020H
	inc	eax
	mov	DWORD PTR _i$[ebp], eax
	cmp	eax, 4
	jl	$LL137@pop_vertex

; 1664 :           break;
; 1665 :         }
; 1666 :     }
; 1667 :     if ( samecell == 0 )

	mov	edi, DWORD PTR _samecell$90052[ebp]
	test	edi, edi
	jne	SHORT $LN751@pop_vertex

; 1668 :     { sprintf(errmsg,"Vertex %s looks like double cones but isn't.\n",
; 1669 :           ELNAME(v_id));

	mov	eax, DWORD PTR _v_id$GSCopy$[ebp]
	test	eax, 268435456				; 10000000H
	je	SHORT $LN150@pop_vertex
	and	eax, 134217727				; 07ffffffH
	inc	eax
	push	eax
	push	OFFSET ??_C@_02DPKJAMEF@?$CFd?$AA@
	push	OFFSET _elnames
	call	_sprintf
	add	esp, 12					; 0000000cH
	mov	eax, OFFSET _elnames
	jmp	SHORT $LN151@pop_vertex
$LN150@pop_vertex:
	mov	eax, OFFSET ??_C@_00CNPNBAHC@?$AA@
$LN151@pop_vertex:
	push	eax
	push	OFFSET ??_C@_0CO@NMLPBPFF@Vertex?5?$CFs?5looks?5like?5double?5cone@
	push	OFFSET _errmsg
	call	_sprintf

; 1670 :       kb_error(2890,errmsg,RECOVERABLE);

	push	1
	push	OFFSET _errmsg
	push	2890					; 00000b4aH
	call	_kb_error
	add	esp, 24					; 00000018H
$LN751@pop_vertex:

; 1671 :     }
; 1672 :     othercell = (samecell == 1) ? 2 : 1;
; 1673 : 
; 1674 :     /* get axis and see if cones wide enough to pop this way */
; 1675 :     area1 = area2 = 0.0;

	fldz
	lea	esi, DWORD PTR [edi-1]
	neg	esi
	fst	QWORD PTR _area2$90055[ebp]

; 1676 :     memset((char*)axis1,0,sizeof(axis1));

	push	48					; 00000030H
	fstp	QWORD PTR _area1$90054[ebp]
	sbb	esi, esi
	lea	ecx, DWORD PTR _axis1$90060[ebp]
	push	0
	add	esi, 2
	push	ecx
	mov	DWORD PTR _othercell$90053[ebp], esi
	call	_memset

; 1677 :     memset((char*)axis2,0,sizeof(axis2));

	push	48					; 00000030H
	lea	edx, DWORD PTR _axis2$90061[ebp]
	push	0
	push	edx
	call	_memset

; 1678 :     memset((char*)totnorm1,0,sizeof(totnorm1));

	push	48					; 00000030H
	lea	eax, DWORD PTR _totnorm1$90058[ebp]
	push	0
	push	eax
	call	_memset

; 1679 :     memset((char*)totnorm2,0,sizeof(totnorm2));

	push	48					; 00000030H
	lea	ecx, DWORD PTR _totnorm2$90059[ebp]
	push	0
	push	ecx
	call	_memset

; 1680 :     totside1length = totside2length = 0.0;

	fldz

; 1681 :     for ( i = 0 ; i < cinfo->cell[samecell].fenum ; i++ )

	shl	edi, 5
	fst	QWORD PTR _totside2length$[ebp]
	add	edi, DWORD PTR _cinfo$GSCopy$[ebp]
	fstp	QWORD PTR _totside1length$[ebp]
	xor	ebx, ebx
	add	esp, 48					; 00000030H
	cmp	DWORD PTR [edi+20], ebx
	jle	$LN752@pop_vertex
	npad	9
$LL126@pop_vertex:

; 1682 :     { fe_1 = cinfo->felist[cinfo->cell[samecell].festart+i];

	mov	eax, DWORD PTR [edi+12]
	mov	ecx, DWORD PTR _cinfo$GSCopy$[ebp]
	mov	edx, DWORD PTR [ecx+16808]
	add	eax, ebx
	mov	esi, DWORD PTR [edx+eax*4]

; 1683 :       f_1 = get_fe_facet(fe_1);

	test	esi, 268435456				; 10000000H
	jne	SHORT $LN167@pop_vertex
	mov	eax, DWORD PTR _NULLFACET
	jmp	SHORT $LN166@pop_vertex
$LN167@pop_vertex:
	mov	ecx, DWORD PTR _web+460
	mov	eax, esi
	and	eax, 134217727				; 07ffffffH
	mov	edx, DWORD PTR [ecx+eax*4]
	mov	eax, DWORD PTR [edx+24]
	test	esi, 134217728				; 08000000H
	je	SHORT $LN166@pop_vertex
	xor	eax, 134217728				; 08000000H
$LN166@pop_vertex:

; 1684 :       get_facet_normal(f_1,normal1);

	lea	ecx, DWORD PTR _normal1$90056[ebp]
	push	ecx
	push	eax
	call	_get_facet_normal

; 1685 :       area1 += sqrt(dot(normal1,normal1,SDIM));

	mov	edx, DWORD PTR _web+616
	push	edx
	lea	eax, DWORD PTR _normal1$90056[ebp]
	push	eax
	mov	ecx, eax
	push	ecx
	call	_dot
	add	esp, 20					; 00000014H
	call	__CIsqrt
	fadd	QWORD PTR _area1$90054[ebp]

; 1686 :       for ( j = 0 ; j < SDIM ; j++ )

	mov	ecx, DWORD PTR _web+616
	xor	eax, eax
	fstp	QWORD PTR _area1$90054[ebp]
	test	ecx, ecx
	jle	SHORT $LN121@pop_vertex
	npad	10
$LL123@pop_vertex:

; 1687 :         totnorm1[j] += normal1[j];

	fld	QWORD PTR _normal1$90056[ebp+eax*8]
	inc	eax
	fadd	QWORD PTR _totnorm1$90058[ebp+eax*8-8]
	fstp	QWORD PTR _totnorm1$90058[ebp+eax*8-8]
	cmp	eax, ecx
	jl	SHORT $LL123@pop_vertex
$LN121@pop_vertex:

; 1688 :       get_fe_side(get_prev_edge(fe_1),side1);

	mov	ecx, DWORD PTR _web+460
	test	esi, 134217728				; 08000000H
	je	SHORT $LN171@pop_vertex
	and	esi, 134217727				; 07ffffffH
	mov	edx, DWORD PTR [ecx+esi*4]
	mov	eax, DWORD PTR [edx+32]
	xor	eax, 134217728				; 08000000H
	jmp	SHORT $LN170@pop_vertex
$LN171@pop_vertex:
	and	esi, 134217727				; 07ffffffH
	mov	eax, DWORD PTR [ecx+esi*4]
	mov	eax, DWORD PTR [eax+28]
$LN170@pop_vertex:
	lea	edx, DWORD PTR _side1$90062[ebp]
	push	edx
	mov	edx, eax
	and	edx, 134217727				; 07ffffffH
	mov	ecx, DWORD PTR [ecx+edx*4]
	and	eax, 134217728				; 08000000H
	xor	eax, DWORD PTR [ecx+20]
	push	eax
	call	_get_edge_side

; 1689 :       for ( j = 0 ; j < SDIM ; j++ )

	mov	ecx, DWORD PTR _web+616
	add	esp, 8
	xor	eax, eax
	test	ecx, ecx
	jle	SHORT $LN756@pop_vertex
$LL120@pop_vertex:

; 1690 :         axis1[j] += side1[j];

	fld	QWORD PTR _side1$90062[ebp+eax*8]
	inc	eax
	fadd	QWORD PTR _axis1$90060[ebp+eax*8-8]
	fstp	QWORD PTR _axis1$90060[ebp+eax*8-8]
	cmp	eax, ecx
	jl	SHORT $LL120@pop_vertex
$LN756@pop_vertex:

; 1691 :       totside1length += sqrt(dot(side1,side1,SDIM));

	push	ecx
	lea	edx, DWORD PTR _side1$90062[ebp]
	push	edx
	mov	eax, edx
	push	eax
	call	_dot
	add	esp, 12					; 0000000cH
	call	__CIsqrt
	fadd	QWORD PTR _totside1length$[ebp]
	inc	ebx
	fstp	QWORD PTR _totside1length$[ebp]
	cmp	ebx, DWORD PTR [edi+20]
	jl	$LL126@pop_vertex

; 1681 :     for ( i = 0 ; i < cinfo->cell[samecell].fenum ; i++ )

	mov	esi, DWORD PTR _othercell$90053[ebp]
$LN752@pop_vertex:

; 1692 :     }
; 1693 :     for ( i = 0 ; i < cinfo->cell[othercell].fenum ; i++ )

	mov	ecx, DWORD PTR _cinfo$GSCopy$[ebp]
	shl	esi, 5
	xor	edi, edi
	cmp	DWORD PTR [esi+ecx+20], edi
	lea	ebx, DWORD PTR [esi+ecx]
	jle	$LN115@pop_vertex
	npad	10
$LL759@pop_vertex:

; 1694 :     { fe_2 = cinfo->felist[cinfo->cell[othercell].festart+i];

	mov	edx, DWORD PTR [ebx+12]
	mov	eax, DWORD PTR _cinfo$GSCopy$[ebp]
	mov	ecx, DWORD PTR [eax+16808]
	add	edx, edi
	mov	esi, DWORD PTR [ecx+edx*4]

; 1695 :       f_2 = get_fe_facet(fe_2);

	test	esi, 268435456				; 10000000H
	jne	SHORT $LN177@pop_vertex
	mov	eax, DWORD PTR _NULLFACET
	jmp	SHORT $LN176@pop_vertex
$LN177@pop_vertex:
	mov	eax, DWORD PTR _web+460
	mov	edx, esi
	and	edx, 134217727				; 07ffffffH
	mov	ecx, DWORD PTR [eax+edx*4]
	mov	eax, DWORD PTR [ecx+24]
	test	esi, 134217728				; 08000000H
	je	SHORT $LN176@pop_vertex
	xor	eax, 134217728				; 08000000H
$LN176@pop_vertex:

; 1696 :       get_facet_normal(f_2,normal2);

	lea	edx, DWORD PTR _normal2$90057[ebp]
	push	edx
	push	eax
	call	_get_facet_normal

; 1697 :       area2 += sqrt(dot(normal2,normal2,SDIM));

	mov	eax, DWORD PTR _web+616
	push	eax
	lea	ecx, DWORD PTR _normal2$90057[ebp]
	push	ecx
	mov	edx, ecx
	push	edx
	call	_dot
	add	esp, 20					; 00000014H
	call	__CIsqrt
	fadd	QWORD PTR _area2$90055[ebp]

; 1698 :       for ( j = 0 ; j < SDIM ; j++ )

	mov	ecx, DWORD PTR _web+616
	xor	eax, eax
	fstp	QWORD PTR _area2$90055[ebp]
	test	ecx, ecx
	jle	SHORT $LN112@pop_vertex
	npad	11
$LL114@pop_vertex:

; 1699 :         totnorm2[j] += normal2[j];

	fld	QWORD PTR _normal2$90057[ebp+eax*8]
	inc	eax
	fadd	QWORD PTR _totnorm2$90059[ebp+eax*8-8]
	fstp	QWORD PTR _totnorm2$90059[ebp+eax*8-8]
	cmp	eax, ecx
	jl	SHORT $LL114@pop_vertex
$LN112@pop_vertex:

; 1700 :       get_fe_side(get_prev_edge(fe_2),side2);

	mov	ecx, DWORD PTR _web+460
	test	esi, 134217728				; 08000000H
	je	SHORT $LN181@pop_vertex
	and	esi, 134217727				; 07ffffffH
	mov	eax, DWORD PTR [ecx+esi*4]
	mov	eax, DWORD PTR [eax+32]
	xor	eax, 134217728				; 08000000H
	jmp	SHORT $LN180@pop_vertex
$LN181@pop_vertex:
	and	esi, 134217727				; 07ffffffH
	mov	edx, DWORD PTR [ecx+esi*4]
	mov	eax, DWORD PTR [edx+28]
$LN180@pop_vertex:
	lea	edx, DWORD PTR _side2$90063[ebp]
	push	edx
	mov	edx, eax
	and	edx, 134217727				; 07ffffffH
	mov	ecx, DWORD PTR [ecx+edx*4]
	and	eax, 134217728				; 08000000H
	xor	eax, DWORD PTR [ecx+20]
	push	eax
	call	_get_edge_side

; 1701 :       for ( j = 0 ; j < SDIM ; j++ )

	mov	ecx, DWORD PTR _web+616
	add	esp, 8
	xor	eax, eax
	test	ecx, ecx
	jle	SHORT $LN760@pop_vertex
$LL111@pop_vertex:

; 1702 :         axis2[j] += side2[j];

	fld	QWORD PTR _side2$90063[ebp+eax*8]
	inc	eax
	fadd	QWORD PTR _axis2$90061[ebp+eax*8-8]
	fstp	QWORD PTR _axis2$90061[ebp+eax*8-8]
	cmp	eax, ecx
	jl	SHORT $LL111@pop_vertex
$LN760@pop_vertex:

; 1703 :       totside2length += sqrt(dot(side2,side2,SDIM));

	push	ecx
	lea	edx, DWORD PTR _side2$90063[ebp]
	push	edx
	mov	eax, edx
	push	eax
	call	_dot
	add	esp, 12					; 0000000cH
	call	__CIsqrt
	fadd	QWORD PTR _totside2length$[ebp]
	inc	edi
	fstp	QWORD PTR _totside2length$[ebp]
	cmp	edi, DWORD PTR [ebx+20]
	jl	$LL759@pop_vertex
$LN115@pop_vertex:

; 1704 :     }
; 1705 : 
; 1706 :     if ( pop_disjoin_flag ) 

	cmp	DWORD PTR _pop_disjoin_flag, 0
	jne	$LN724@pop_vertex

; 1707 :       goto narrowcones;
; 1708 :     if ( pop_enjoin_flag ) 

	cmp	DWORD PTR _pop_enjoin_flag, 0
	jne	SHORT $widecones$90113

; 1709 :       goto widecones;
; 1710 :     
; 1711 :     /* test wideness */
; 1712 :     ratio = (sqrt(dot(totnorm1,totnorm1,SDIM))+sqrt(dot(totnorm2,totnorm2,SDIM)))
; 1713 :              /(area1 + area2);

	mov	ecx, DWORD PTR _web+616
	push	ecx
	lea	edx, DWORD PTR _totnorm2$90059[ebp]
	push	edx
	mov	eax, edx
	push	eax
	call	_dot
	add	esp, 12					; 0000000cH
	call	__CIsqrt
	fstp	QWORD PTR tv3737[ebp]
	mov	ecx, DWORD PTR _web+616
	push	ecx
	lea	edx, DWORD PTR _totnorm1$90058[ebp]
	push	edx
	mov	eax, edx
	push	eax
	call	_dot
	add	esp, 12					; 0000000cH
	call	__CIsqrt
	fadd	QWORD PTR tv3737[ebp]
	fld	QWORD PTR _area2$90055[ebp]
	fadd	QWORD PTR _area1$90054[ebp]
	fdivp	ST(1), ST(0)

; 1714 :     if ( ratio < (middleflag?0.94:0.88) )

	fcomp	QWORD PTR __real@3fec28f5c28f5c29
	fnstsw	ax
	test	ah, 5
	jnp	$LN724@pop_vertex
$widecones$90113:

; 1748 :     }
; 1749 : 
; 1750 :     bs1 = get_facet_body(get_fe_facet(cinfo->felist[cinfo->cell[samecell].festart]));

	mov	ecx, DWORD PTR _cinfo$GSCopy$[ebp]
	mov	eax, DWORD PTR [ecx]
	mov	ebx, DWORD PTR _othercell$90053[ebp]
	mov	esi, 1
	cmp	eax, esi
	jle	SHORT $LN632@pop_vertex

; 1715 :       goto narrowcones;
; 1716 :     
; 1717 : widecones: 
; 1718 :     /* choose cones to get facet normals going same way */
; 1719 :     for ( j = 1 ; j < cinfo->cells ; j++ )

	mov	ecx, DWORD PTR _samecell$90052[ebp]
	npad	4
$LL105@pop_vertex:

; 1720 :         if ( (j != samecell) && (j != othercell) ) break;

	cmp	esi, ecx
	je	SHORT $LN104@pop_vertex
	cmp	esi, ebx
	jne	SHORT $LN632@pop_vertex
$LN104@pop_vertex:

; 1715 :       goto narrowcones;
; 1716 :     
; 1717 : widecones: 
; 1718 :     /* choose cones to get facet normals going same way */
; 1719 :     for ( j = 1 ; j < cinfo->cells ; j++ )

	inc	esi
	cmp	esi, eax
	jl	SHORT $LL105@pop_vertex
$LN632@pop_vertex:

; 1721 :       othercell2 = j;
; 1722 :     samecell2 = 0;
; 1723 : 
; 1724 :     /*
; 1725 :     if ( dot(axis2,totnorm2,SDIM) < 0 )
; 1726 :     { int tmp = othercell;
; 1727 :       othercell = othercell2;  
; 1728 :       othercell2 = tmp;
; 1729 :     }
; 1730 :     if ( dot(axis1,totnorm1,SDIM) > 0 ) 
; 1731 :     { samecell2 = samecell;
; 1732 :       samecell = 0;
; 1733 :     }
; 1734 :     */
; 1735 :     if ( dot(totnorm1,totnorm2,SDIM) < 0 )

	mov	edx, DWORD PTR _web+616
	push	edx
	lea	eax, DWORD PTR _totnorm2$90059[ebp]
	push	eax
	lea	ecx, DWORD PTR _totnorm1$90058[ebp]
	mov	edi, esi
	push	ecx
	mov	DWORD PTR _othercell2$[ebp], edi
	mov	DWORD PTR _samecell2$[ebp], 0
	call	_dot
	fcomp	QWORD PTR __real@0000000000000000
	mov	ecx, DWORD PTR _web+616
	add	esp, 12					; 0000000cH
	fnstsw	ax
	fld	QWORD PTR __real@bff0000000000000
	test	ah, 5
	jp	SHORT $LN873@pop_vertex

; 1736 :     { int tmp = othercell;

	mov	edi, ebx

; 1737 :       othercell = othercell2;  

	mov	ebx, esi

; 1738 :       othercell2 = tmp;
; 1739 :       for ( i = 0 ; i < SDIM ; i++ )

	xor	eax, eax
	mov	DWORD PTR _othercell$90053[ebp], ebx
	mov	DWORD PTR _othercell2$[ebp], edi
	test	ecx, ecx
	jle	SHORT $LN873@pop_vertex
$LN100@pop_vertex:

; 1740 :       { axis2[i] *= -1;

	fld	QWORD PTR _axis2$90061[ebp+eax*8]
	inc	eax
	fmul	ST(0), ST(1)
	fstp	QWORD PTR _axis2$90061[ebp+eax*8-8]

; 1741 :         totnorm2[i] *= -1;

	fld	QWORD PTR _totnorm2$90059[ebp+eax*8-8]
	fmul	ST(0), ST(1)
	fstp	QWORD PTR _totnorm2$90059[ebp+eax*8-8]
	cmp	eax, ecx
	jl	SHORT $LN100@pop_vertex
$LN873@pop_vertex:

; 1742 :       }
; 1743 :     }
; 1744 :     if ( dot(axis1,totnorm1,SDIM)/totside1length >
; 1745 :             dot(axis2,totnorm1,SDIM)/totside2length )

	push	ecx
	fstp	ST(0)
	lea	edx, DWORD PTR _totnorm1$90058[ebp]
	push	edx
	lea	eax, DWORD PTR _axis1$90060[ebp]
	push	eax
	call	_dot
	fdiv	QWORD PTR _totside1length$[ebp]
	mov	ecx, DWORD PTR _web+616
	push	ecx
	lea	edx, DWORD PTR _totnorm1$90058[ebp]
	push	edx
	lea	eax, DWORD PTR _axis2$90061[ebp]
	push	eax
	fstp	QWORD PTR tv3755[ebp]
	call	_dot
	fdiv	QWORD PTR _totside2length$[ebp]
	add	esp, 24					; 00000018H
	fcomp	QWORD PTR tv3755[ebp]
	fnstsw	ax
	test	ah, 5
	jp	SHORT $LN758@pop_vertex

; 1746 :     { int tmp = othercell; othercell = samecell; samecell = tmp;

	mov	ecx, DWORD PTR _samecell$90052[ebp]
	mov	eax, ebx
	mov	DWORD PTR _othercell$90053[ebp], ecx
	mov	DWORD PTR _samecell$90052[ebp], eax

; 1747 :       tmp = samecell2; samecell2 = othercell2; othercell2 = tmp;

	mov	DWORD PTR _samecell2$[ebp], edi
	mov	DWORD PTR _othercell2$[ebp], 0
$LN758@pop_vertex:

; 1748 :     }
; 1749 : 
; 1750 :     bs1 = get_facet_body(get_fe_facet(cinfo->felist[cinfo->cell[samecell].festart]));

	mov	ecx, DWORD PTR _cinfo$GSCopy$[ebp]
	mov	edx, DWORD PTR _samecell$90052[ebp]
	mov	eax, DWORD PTR [ecx+16808]
	shl	edx, 5
	mov	ecx, DWORD PTR [edx+ecx+12]
	mov	ecx, DWORD PTR [eax+ecx*4]
	mov	edx, DWORD PTR _web+460
	mov	DWORD PTR tv5191[ebp], eax
	test	ecx, 268435456				; 10000000H
	jne	SHORT $LN187@pop_vertex
	mov	eax, DWORD PTR _NULLFACET
	jmp	SHORT $LN186@pop_vertex
$LN187@pop_vertex:
	mov	eax, ecx
	and	eax, 134217727				; 07ffffffH
	mov	eax, DWORD PTR [edx+eax*4]
	mov	eax, DWORD PTR [eax+24]
	test	ecx, 134217728				; 08000000H
	je	SHORT $LN186@pop_vertex
	xor	eax, 134217728				; 08000000H
$LN186@pop_vertex:
	mov	edi, DWORD PTR _web+328
	mov	esi, DWORD PTR _web+236
	mov	ebx, DWORD PTR _dymem
	xor	ecx, ecx
	cmp	DWORD PTR _web+400, ecx
	jne	SHORT $LN193@pop_vertex
	mov	DWORD PTR _bs1$[ebp], ecx
	jmp	SHORT $LN190@pop_vertex
$LN193@pop_vertex:
	test	eax, 268435456				; 10000000H
	jne	SHORT $LN192@pop_vertex
	mov	DWORD PTR _bs1$[ebp], ecx
	jmp	SHORT $LN190@pop_vertex
$LN192@pop_vertex:
	test	eax, 134217728				; 08000000H
	je	SHORT $LN191@pop_vertex
	and	eax, 134217727				; 07ffffffH
	mov	ecx, DWORD PTR [esi+eax*4]
	mov	eax, DWORD PTR [edi+ebx+784]
	mov	ecx, DWORD PTR [ecx+eax+4]
	mov	DWORD PTR _bs1$[ebp], ecx
	jmp	SHORT $LN190@pop_vertex
$LN191@pop_vertex:
	mov	ecx, DWORD PTR [edi+ebx+784]
	and	eax, 134217727				; 07ffffffH
	mov	eax, DWORD PTR [esi+eax*4]
	mov	eax, DWORD PTR [eax+ecx]
	mov	DWORD PTR _bs1$[ebp], eax
$LN190@pop_vertex:

; 1751 :     bs2 = get_facet_body(get_fe_facet(cinfo->felist[cinfo->cell[samecell2].festart]));

	mov	ecx, DWORD PTR _samecell2$[ebp]
	mov	eax, DWORD PTR _cinfo$GSCopy$[ebp]
	shl	ecx, 5
	mov	ecx, DWORD PTR [ecx+eax+12]
	mov	eax, DWORD PTR tv5191[ebp]
	mov	ecx, DWORD PTR [eax+ecx*4]
	test	ecx, 268435456				; 10000000H
	jne	SHORT $LN197@pop_vertex
	mov	eax, DWORD PTR _NULLFACET
	jmp	SHORT $LN196@pop_vertex
$LN197@pop_vertex:
	mov	eax, ecx
	and	eax, 134217727				; 07ffffffH
	mov	eax, DWORD PTR [edx+eax*4]
	mov	eax, DWORD PTR [eax+24]
	test	ecx, 134217728				; 08000000H
	je	SHORT $LN196@pop_vertex
	xor	eax, 134217728				; 08000000H
$LN196@pop_vertex:
	cmp	DWORD PTR _web+400, 0
	jne	SHORT $LN203@pop_vertex
	mov	DWORD PTR _bs2$[ebp], 0
	jmp	SHORT $LN200@pop_vertex
$LN203@pop_vertex:
	test	eax, 268435456				; 10000000H
	jne	SHORT $LN202@pop_vertex
	mov	DWORD PTR _bs2$[ebp], 0
	jmp	SHORT $LN200@pop_vertex
$LN202@pop_vertex:
	test	eax, 134217728				; 08000000H
	je	SHORT $LN201@pop_vertex
	and	eax, 134217727				; 07ffffffH
	mov	ecx, DWORD PTR [esi+eax*4]
	mov	eax, DWORD PTR [edi+ebx+784]
	mov	ecx, DWORD PTR [ecx+eax+4]
	mov	DWORD PTR _bs2$[ebp], ecx
	jmp	SHORT $LN200@pop_vertex
$LN201@pop_vertex:
	mov	ecx, DWORD PTR [edi+ebx+784]
	and	eax, 134217727				; 07ffffffH
	mov	eax, DWORD PTR [esi+eax*4]
	mov	eax, DWORD PTR [eax+ecx]
	mov	DWORD PTR _bs2$[ebp], eax
$LN200@pop_vertex:

; 1752 :     bo1 = get_facet_body(get_fe_facet(cinfo->felist[cinfo->cell[othercell].festart]));

	mov	ecx, DWORD PTR _othercell$90053[ebp]
	mov	eax, DWORD PTR _cinfo$GSCopy$[ebp]
	shl	ecx, 5
	mov	ecx, DWORD PTR [ecx+eax+12]
	mov	eax, DWORD PTR tv5191[ebp]
	mov	ecx, DWORD PTR [eax+ecx*4]
	test	ecx, 268435456				; 10000000H
	jne	SHORT $LN207@pop_vertex
	mov	eax, DWORD PTR _NULLFACET
	jmp	SHORT $LN206@pop_vertex
$LN207@pop_vertex:
	mov	eax, ecx
	and	eax, 134217727				; 07ffffffH
	mov	eax, DWORD PTR [edx+eax*4]
	mov	eax, DWORD PTR [eax+24]
	test	ecx, 134217728				; 08000000H
	je	SHORT $LN206@pop_vertex
	xor	eax, 134217728				; 08000000H
$LN206@pop_vertex:
	cmp	DWORD PTR _web+400, 0
	jne	SHORT $LN213@pop_vertex
	mov	DWORD PTR _bo1$[ebp], 0
	jmp	SHORT $LN210@pop_vertex
$LN213@pop_vertex:
	test	eax, 268435456				; 10000000H
	jne	SHORT $LN212@pop_vertex
	mov	DWORD PTR _bo1$[ebp], 0
	jmp	SHORT $LN210@pop_vertex
$LN212@pop_vertex:
	test	eax, 134217728				; 08000000H
	je	SHORT $LN211@pop_vertex
	and	eax, 134217727				; 07ffffffH
	mov	ecx, DWORD PTR [esi+eax*4]
	mov	eax, DWORD PTR [edi+ebx+784]
	mov	ecx, DWORD PTR [ecx+eax+4]
	mov	DWORD PTR _bo1$[ebp], ecx
	jmp	SHORT $LN210@pop_vertex
$LN211@pop_vertex:
	mov	ecx, DWORD PTR [edi+ebx+784]
	and	eax, 134217727				; 07ffffffH
	mov	eax, DWORD PTR [esi+eax*4]
	mov	eax, DWORD PTR [eax+ecx]
	mov	DWORD PTR _bo1$[ebp], eax
$LN210@pop_vertex:

; 1753 :     bo2 = get_facet_body(get_fe_facet(cinfo->felist[cinfo->cell[othercell2].festart]));

	mov	ecx, DWORD PTR _othercell2$[ebp]
	mov	eax, DWORD PTR _cinfo$GSCopy$[ebp]
	shl	ecx, 5
	mov	ecx, DWORD PTR [ecx+eax+12]
	mov	eax, DWORD PTR tv5191[ebp]
	mov	ecx, DWORD PTR [eax+ecx*4]
	test	ecx, 268435456				; 10000000H
	jne	SHORT $LN217@pop_vertex
	mov	eax, DWORD PTR _NULLFACET
	jmp	SHORT $LN216@pop_vertex
$LN217@pop_vertex:
	mov	eax, ecx
	and	eax, 134217727				; 07ffffffH
	mov	eax, DWORD PTR [edx+eax*4]
	mov	eax, DWORD PTR [eax+24]
	test	ecx, 134217728				; 08000000H
	je	SHORT $LN216@pop_vertex
	xor	eax, 134217728				; 08000000H
$LN216@pop_vertex:
	cmp	DWORD PTR _web+400, 0
	jne	SHORT $LN223@pop_vertex
	xor	eax, eax
	jmp	SHORT $LN220@pop_vertex
$LN223@pop_vertex:
	test	eax, 268435456				; 10000000H
	jne	SHORT $LN222@pop_vertex
	xor	eax, eax
	jmp	SHORT $LN220@pop_vertex
$LN222@pop_vertex:
	test	eax, 134217728				; 08000000H
	je	SHORT $LN221@pop_vertex
	and	eax, 134217727				; 07ffffffH
	mov	ecx, DWORD PTR [esi+eax*4]
	mov	eax, DWORD PTR [edi+ebx+784]
	mov	eax, DWORD PTR [ecx+eax+4]
	jmp	SHORT $LN220@pop_vertex
$LN221@pop_vertex:
	and	eax, 134217727				; 07ffffffH
	mov	ecx, DWORD PTR [esi+eax*4]
	mov	eax, DWORD PTR [edi+ebx+784]
	mov	eax, DWORD PTR [ecx+eax]
$LN220@pop_vertex:

; 1754 :     if ( !equal_id(bs2,bo1) )

	mov	ecx, DWORD PTR _bo1$[ebp]
	cmp	DWORD PTR _bs2$[ebp], ecx
	je	SHORT $LN753@pop_vertex

; 1755 :     { /* have to flip sides */
; 1756 :       int tmp;
; 1757 :       body_id btmp;
; 1758 :       if ( !equal_id(bs1,bo2) )

	cmp	DWORD PTR _bs1$[ebp], eax

; 1759 :       { /* no matching sides.  Shouldn't happen. */
; 1760 :         return 0;

	jne	$LN939@pop_vertex

; 1761 :       }
; 1762 :       tmp = othercell; othercell = othercell2; othercell2 = tmp;

	mov	eax, DWORD PTR _othercell2$[ebp]

; 1763 :       btmp = bs1; bs1 = bs2; bs2 = btmp;
; 1764 :       tmp = samecell; samecell = samecell2; samecell2 = tmp;

	mov	ecx, DWORD PTR _samecell2$[ebp]
	mov	DWORD PTR _othercell$90053[ebp], eax
	mov	DWORD PTR _samecell$90052[ebp], ecx
$LN753@pop_vertex:

; 1765 :       btmp = bo1; bo1 = bo2; bo2 = btmp;
; 1766 :     }
; 1767 :       
; 1768 :     /* test bodies to see if we want septum */
; 1769 :     fe_1 = cinfo->felist[cinfo->cell[samecell].festart];

	mov	eax, DWORD PTR _samecell$90052[ebp]
	mov	ecx, DWORD PTR tv5191[ebp]
	shl	eax, 5
	add	eax, DWORD PTR _cinfo$GSCopy$[ebp]
	mov	DWORD PTR tv5180[ebp], eax
	mov	eax, DWORD PTR [eax+12]
	mov	eax, DWORD PTR [ecx+eax*4]

; 1770 :     f_1  = get_fe_facet(fe_1);

	test	eax, 268435456				; 10000000H
	jne	SHORT $LN227@pop_vertex
	mov	esi, DWORD PTR _NULLFACET
	jmp	SHORT $LN228@pop_vertex
$LN227@pop_vertex:
	mov	ecx, eax
	and	ecx, 134217727				; 07ffffffH
	mov	ecx, DWORD PTR [edx+ecx*4]
	mov	ecx, DWORD PTR [ecx+24]
	test	eax, 134217728				; 08000000H
	je	SHORT $LN226@pop_vertex
	xor	ecx, 134217728				; 08000000H
$LN226@pop_vertex:
	mov	esi, ecx
$LN228@pop_vertex:

; 1771 :     fe_2 = cinfo->felist[cinfo->cell[othercell].festart];

	mov	eax, DWORD PTR _othercell$90053[ebp]
	mov	ecx, DWORD PTR tv5191[ebp]
	shl	eax, 5
	add	eax, DWORD PTR _cinfo$GSCopy$[ebp]
	mov	DWORD PTR tv5250[ebp], eax
	mov	eax, DWORD PTR [eax+12]
	mov	eax, DWORD PTR [ecx+eax*4]

; 1772 :     f_2  = get_fe_facet(fe_2);

	test	eax, 268435456				; 10000000H
	jne	SHORT $LN231@pop_vertex
	mov	eax, DWORD PTR _NULLFACET
	jmp	SHORT $LN232@pop_vertex
$LN231@pop_vertex:
	mov	ecx, eax
	and	ecx, 134217727				; 07ffffffH
	mov	ecx, DWORD PTR [edx+ecx*4]
	mov	ecx, DWORD PTR [ecx+24]
	test	eax, 134217728				; 08000000H
	je	SHORT $LN230@pop_vertex
	xor	ecx, 134217728				; 08000000H
$LN230@pop_vertex:
	mov	eax, ecx
$LN232@pop_vertex:

; 1773 :     b_1 = get_facet_body(f_1);

	cmp	DWORD PTR _web+400, 0
	jne	SHORT $LN237@pop_vertex
	xor	ebx, ebx
	jmp	SHORT $LN234@pop_vertex
$LN237@pop_vertex:
	test	esi, 268435456				; 10000000H
	jne	SHORT $LN236@pop_vertex
	xor	ebx, ebx
	jmp	SHORT $LN234@pop_vertex
$LN236@pop_vertex:
	mov	ebx, DWORD PTR _web+236
	mov	ecx, esi
	and	ecx, 134217727				; 07ffffffH
	mov	ecx, DWORD PTR [ebx+ecx*4]
	mov	ebx, DWORD PTR _dymem
	mov	edi, DWORD PTR [edi+ebx+784]
	test	esi, 134217728				; 08000000H
	je	SHORT $LN235@pop_vertex
	mov	ebx, DWORD PTR [ecx+edi+4]
	jmp	SHORT $LN931@pop_vertex
$LN235@pop_vertex:
	mov	ebx, DWORD PTR [ecx+edi]
$LN931@pop_vertex:
	mov	edi, DWORD PTR _web+328
$LN234@pop_vertex:

; 1774 :     b_2 = get_facet_body(inverse_id(f_2));

	xor	eax, 134217728				; 08000000H
	cmp	DWORD PTR _web+400, 0
	jne	SHORT $LN243@pop_vertex
	xor	edi, edi
	jmp	SHORT $LN240@pop_vertex
$LN243@pop_vertex:
	test	eax, 268435456				; 10000000H
	jne	SHORT $LN242@pop_vertex
	xor	edi, edi
	jmp	SHORT $LN240@pop_vertex
$LN242@pop_vertex:
	mov	ecx, DWORD PTR _web+236
	test	eax, 134217728				; 08000000H
	je	SHORT $LN241@pop_vertex
	and	eax, 134217727				; 07ffffffH
	mov	eax, DWORD PTR [ecx+eax*4]
	mov	ecx, DWORD PTR _dymem
	mov	ecx, DWORD PTR [edi+ecx+784]
	mov	edi, DWORD PTR [eax+ecx+4]
	jmp	SHORT $LN240@pop_vertex
$LN241@pop_vertex:
	and	eax, 134217727				; 07ffffffH
	mov	eax, DWORD PTR [ecx+eax*4]
	mov	ecx, DWORD PTR _dymem
	mov	ecx, DWORD PTR [edi+ecx+784]
	mov	edi, DWORD PTR [eax+ecx]
$LN240@pop_vertex:

; 1775 :     if ( (septum_flag != 0) && (!valid_id(b_1) || !valid_id(b_2) || !equal_id(b_1,b_2)) )

	cmp	DWORD PTR _septum_flag, 0
	je	SHORT $LN94@pop_vertex
	test	ebx, 268435456				; 10000000H
	je	SHORT $LN93@pop_vertex
	test	edi, 268435456				; 10000000H
	je	SHORT $LN93@pop_vertex
	cmp	ebx, edi
	je	SHORT $LN94@pop_vertex
$LN93@pop_vertex:

; 1776 :     { middleflag = 1;
; 1777 :       f_septum = dup_facet(f_1);

	push	esi
	mov	DWORD PTR _middleflag$90068[ebp], 1
	call	_dup_facet
	mov	esi, eax

; 1778 :       set_original(f_septum,NULLID);

	mov	edx, esi
	shr	edx, 29					; 0000001dH
	imul	edx, 112				; 00000070H
	mov	ecx, DWORD PTR _web[edx+12]
	and	eax, 134217727				; 07ffffffH
	mov	edx, DWORD PTR [ecx+eax*4]

; 1779 :       set_facet_body(f_septum,b_1);

	push	ebx
	push	esi
	mov	DWORD PTR _f_septum$90066[ebp], esi
	mov	DWORD PTR [edx+20], 0
	call	_set_facet_body

; 1780 :       set_facet_body(inverse_id(f_septum),b_2);

	push	edi
	xor	esi, 134217728				; 08000000H
	push	esi
	call	_set_facet_body
	mov	edx, DWORD PTR _web+460
	add	esp, 20					; 00000014H
$LN94@pop_vertex:

; 1781 :     }
; 1782 : 
; 1783 :     /* now find closest rays on opposite cells */
; 1784 :     bestcosa = -1.0;
; 1785 :     for ( i = 0 ; i < cinfo->cell[samecell].fenum ; i++ )

	mov	eax, DWORD PTR tv5180[ebp]
	fld	QWORD PTR __real@bff0000000000000
	cmp	DWORD PTR [eax+20], 0
	fstp	QWORD PTR _bestcosa$90047[ebp]
	mov	DWORD PTR _i$[ebp], 0
	jle	$LN90@pop_vertex
	npad	10
$LL92@pop_vertex:

; 1786 :     { REAL edge1[MAXCOORD],edge2[MAXCOORD];
; 1787 :       facetedge_id ray1 = get_prev_edge(cinfo->felist[cinfo->cell[samecell].festart+i]);

	mov	ecx, DWORD PTR tv5180[ebp]
	mov	eax, DWORD PTR [ecx+12]
	add	eax, DWORD PTR _i$[ebp]
	mov	ecx, DWORD PTR _cinfo$GSCopy$[ebp]
	mov	ecx, DWORD PTR [ecx+16808]
	mov	eax, DWORD PTR [ecx+eax*4]
	test	eax, 134217728				; 08000000H
	je	SHORT $LN247@pop_vertex
	and	eax, 134217727				; 07ffffffH
	mov	eax, DWORD PTR [edx+eax*4]
	mov	edi, DWORD PTR [eax+32]
	xor	edi, 134217728				; 08000000H
	jmp	SHORT $LN246@pop_vertex
$LN247@pop_vertex:
	and	eax, 134217727				; 07ffffffH
	mov	ecx, DWORD PTR [edx+eax*4]
	mov	edi, DWORD PTR [ecx+28]
$LN246@pop_vertex:

; 1788 :       get_fe_side(ray1,edge1);

	lea	eax, DWORD PTR _edge1$90139[ebp]
	push	eax
	mov	ecx, edi
	and	ecx, 134217727				; 07ffffffH
	mov	edx, DWORD PTR [edx+ecx*4]
	mov	eax, edi
	and	eax, 134217728				; 08000000H
	xor	eax, DWORD PTR [edx+20]
	push	eax
	call	_get_edge_side

; 1789 :       for ( j = 0 ; j < cinfo->cell[othercell].fenum ; j++ )

	mov	ecx, DWORD PTR tv5250[ebp]
	xor	ebx, ebx
	add	esp, 8
	cmp	DWORD PTR [ecx+20], ebx
	jle	$LN91@pop_vertex
	npad	7
$LL89@pop_vertex:

; 1790 :       { facetedge_id ray2 = get_prev_edge(cinfo->felist[cinfo->cell[othercell].festart+j]);

	mov	edx, DWORD PTR tv5250[ebp]
	mov	eax, DWORD PTR [edx+12]
	mov	ecx, DWORD PTR _cinfo$GSCopy$[ebp]
	mov	edx, DWORD PTR [ecx+16808]
	mov	ecx, DWORD PTR _web+460
	add	eax, ebx
	mov	eax, DWORD PTR [edx+eax*4]
	test	eax, 134217728				; 08000000H
	je	SHORT $LN253@pop_vertex
	and	eax, 134217727				; 07ffffffH
	mov	eax, DWORD PTR [ecx+eax*4]
	mov	esi, DWORD PTR [eax+32]
	xor	esi, 134217728				; 08000000H
	jmp	SHORT $LN252@pop_vertex
$LN253@pop_vertex:
	and	eax, 134217727				; 07ffffffH
	mov	edx, DWORD PTR [ecx+eax*4]
	mov	esi, DWORD PTR [edx+28]
$LN252@pop_vertex:

; 1791 :         get_fe_side(ray2,edge2);

	lea	eax, DWORD PTR _edge2$90140[ebp]
	mov	edx, esi
	push	eax
	and	edx, 134217727				; 07ffffffH
	mov	eax, DWORD PTR [ecx+edx*4]
	mov	ecx, esi
	and	ecx, 134217728				; 08000000H
	xor	ecx, DWORD PTR [eax+20]
	push	ecx
	call	_get_edge_side

; 1792 :         cosa = dot(edge1,edge2,SDIM)/sqrt(dot(edge1,edge1,SDIM)*
; 1793 :                      dot(edge2,edge2,SDIM));

	mov	edx, DWORD PTR _web+616
	push	edx
	lea	eax, DWORD PTR _edge2$90140[ebp]
	push	eax
	lea	ecx, DWORD PTR _edge1$90139[ebp]
	push	ecx
	call	_dot
	fstp	QWORD PTR tv7641[ebp]
	mov	edx, DWORD PTR _web+616
	push	edx
	lea	eax, DWORD PTR _edge2$90140[ebp]
	push	eax
	mov	ecx, eax
	push	ecx
	call	_dot
	fstp	QWORD PTR tv7639[ebp]
	mov	edx, DWORD PTR _web+616
	push	edx
	lea	eax, DWORD PTR _edge1$90139[ebp]
	push	eax
	mov	ecx, eax
	push	ecx
	call	_dot
	fmul	QWORD PTR tv7639[ebp]
	add	esp, 44					; 0000002cH
	call	__CIsqrt
	fdivr	QWORD PTR tv7641[ebp]

; 1794 :         if ( cosa > bestcosa )

	fld	QWORD PTR _bestcosa$90047[ebp]
	fcomp	ST(1)
	fnstsw	ax
	test	ah, 5
	jp	SHORT $LN875@pop_vertex

; 1795 :         { bestray1 = ray1; bestray2 = ray2; bestcosa = cosa; }

	fstp	QWORD PTR _bestcosa$90047[ebp]
	mov	DWORD PTR _bestray1$90048[ebp], edi
	mov	DWORD PTR _bestray2$90049[ebp], esi
	jmp	SHORT $LN88@pop_vertex
$LN875@pop_vertex:
	fstp	ST(0)
$LN88@pop_vertex:

; 1789 :       for ( j = 0 ; j < cinfo->cell[othercell].fenum ; j++ )

	mov	edx, DWORD PTR tv5250[ebp]
	inc	ebx
	cmp	ebx, DWORD PTR [edx+20]
	jl	$LL89@pop_vertex
$LN91@pop_vertex:

; 1781 :     }
; 1782 : 
; 1783 :     /* now find closest rays on opposite cells */
; 1784 :     bestcosa = -1.0;
; 1785 :     for ( i = 0 ; i < cinfo->cell[samecell].fenum ; i++ )

	mov	eax, DWORD PTR _i$[ebp]
	mov	ecx, DWORD PTR tv5180[ebp]
	mov	edx, DWORD PTR _web+460
	inc	eax
	mov	DWORD PTR _i$[ebp], eax
	cmp	eax, DWORD PTR [ecx+20]
	jl	$LL92@pop_vertex
$LN90@pop_vertex:

; 1796 :       }
; 1797 :     } 
; 1798 :     /* get lower number of sides in first cone */
; 1799 :     if ( cinfo->cell[samecell].fenum > cinfo->cell[othercell].fenum )

	mov	eax, DWORD PTR tv5180[ebp]
	mov	ecx, DWORD PTR [eax+20]
	mov	eax, DWORD PTR tv5250[ebp]
	cmp	ecx, DWORD PTR [eax+20]
	jle	SHORT $LN747@pop_vertex

; 1800 :     { int tmp = samecell;
; 1801 :       facetedge_id fetmp = bestray1;

	mov	ecx, DWORD PTR _bestray1$90048[ebp]

; 1802 :       samecell = othercell;

	mov	eax, DWORD PTR _othercell$90053[ebp]

; 1803 :       othercell = tmp;
; 1804 :       bestray1 = bestray2;

	mov	esi, DWORD PTR _bestray2$90049[ebp]

; 1805 :       bestray2 = fetmp;
; 1806 :       flipflag = 1;

	mov	DWORD PTR _flipflag$[ebp], 1
	jmp	SHORT $LN85@pop_vertex
$LN747@pop_vertex:
	mov	esi, DWORD PTR _bestray1$90048[ebp]
	mov	eax, DWORD PTR _samecell$90052[ebp]
	mov	ecx, DWORD PTR _bestray2$90049[ebp]
$LN85@pop_vertex:

; 1807 :     }
; 1808 : 
; 1809 :     /* go around, inserting edges */
; 1810 :     fe_1 = bestray1;
; 1811 :     fe_2 = bestray2;
; 1812 :     prev_fe3 = NULLID;
; 1813 :     for ( j = 0 ; j < cinfo->cell[samecell].fenum ; j++ )

	shl	eax, 5
	mov	DWORD PTR _fe_1$90050[ebp], esi
	mov	esi, DWORD PTR _cinfo$GSCopy$[ebp]
	lea	eax, DWORD PTR [eax+esi+20]
	mov	DWORD PTR _fe_2$90051[ebp], ecx
	xor	ecx, ecx
	mov	DWORD PTR tv5181[ebp], eax
	mov	eax, DWORD PTR [eax]
	mov	DWORD PTR _prev_fe3$90070[ebp], ecx
	mov	DWORD PTR _j$[ebp], ecx
	mov	DWORD PTR tv5183[ebp], eax
	cmp	eax, ecx
	jle	$LN82@pop_vertex
	npad	10
$LL718@pop_vertex:

; 1814 :     { edge_id e_1,e_1next,e_2next,newe;
; 1815 :       facetedge_id fe_1next,fe_2next,newfe1,newfe2;
; 1816 :       facet_id f_1,f_2;
; 1817 :       vertex_id newv;
; 1818 :       REAL *x;
; 1819 : 
; 1820 :       e_1 = get_fe_edge(fe_1);

	mov	ecx, DWORD PTR _fe_1$90050[ebp]
	mov	eax, ecx
	and	eax, 134217727				; 07ffffffH
	mov	esi, DWORD PTR [edx+eax*4]
	mov	eax, ecx
	and	eax, 134217728				; 08000000H
	xor	eax, DWORD PTR [esi+20]
	mov	DWORD PTR _e_1$90153[ebp], eax

; 1821 :       fe_1next = inverse_id(get_prev_edge(fe_1)); 

	test	ecx, 134217728				; 08000000H
	je	SHORT $LN261@pop_vertex
	mov	eax, DWORD PTR [esi+32]
	xor	eax, 134217728				; 08000000H
	jmp	SHORT $LN260@pop_vertex
$LN261@pop_vertex:
	mov	eax, DWORD PTR [esi+28]
$LN260@pop_vertex:
	xor	eax, 134217728				; 08000000H
	mov	ebx, eax

; 1822 :       e_1next = get_fe_edge(fe_1next);

	and	eax, 134217727				; 07ffffffH
	add	eax, eax
	add	eax, eax
	mov	DWORD PTR tv5644[ebp], eax
	mov	eax, DWORD PTR [eax+edx]
	mov	edi, ebx
	and	edi, 134217728				; 08000000H
	xor	edi, DWORD PTR [eax+20]
	mov	DWORD PTR tv5647[ebp], eax

; 1823 :       fe_2next = inverse_id(get_prev_edge(fe_2)); 

	mov	eax, DWORD PTR _fe_2$90051[ebp]
	mov	DWORD PTR _fe_1next$90157[ebp], ebx
	test	eax, 134217728				; 08000000H
	je	SHORT $LN267@pop_vertex
	and	eax, 134217727				; 07ffffffH
	mov	ecx, DWORD PTR [edx+eax*4]
	mov	eax, DWORD PTR [ecx+32]
	xor	eax, 134217728				; 08000000H
	jmp	SHORT $LN266@pop_vertex
$LN267@pop_vertex:
	and	eax, 134217727				; 07ffffffH
	mov	eax, DWORD PTR [edx+eax*4]
	mov	eax, DWORD PTR [eax+28]
$LN266@pop_vertex:
	xor	eax, 134217728				; 08000000H

; 1824 :       e_2next = get_fe_edge(fe_2next);

	mov	ecx, eax
	and	ecx, 134217727				; 07ffffffH
	add	ecx, ecx
	add	ecx, ecx
	mov	DWORD PTR tv5664[ebp], ecx
	mov	ecx, DWORD PTR [ecx+edx]
	mov	esi, eax
	and	esi, 134217728				; 08000000H
	xor	esi, DWORD PTR [ecx+20]

; 1825 :       f_1 = get_fe_facet(fe_1next);

	mov	edx, ebx
	shr	edx, 28					; 0000001cH
	and	edx, 1
	mov	DWORD PTR _fe_2next$90158[ebp], eax
	mov	DWORD PTR tv5674[ebp], edx
	jne	SHORT $LN273@pop_vertex
	mov	edx, DWORD PTR _NULLFACET
	jmp	SHORT $LN272@pop_vertex
$LN273@pop_vertex:
	mov	edx, DWORD PTR tv5647[ebp]
	mov	edx, DWORD PTR [edx+24]
	test	ebx, 134217728				; 08000000H
	je	SHORT $LN272@pop_vertex
	xor	edx, 134217728				; 08000000H
$LN272@pop_vertex:
	mov	DWORD PTR _f_1$90161[ebp], edx

; 1826 :       f_2 = get_fe_facet(fe_2next);

	mov	edx, eax
	shr	edx, 28					; 0000001cH
	and	edx, 1
	mov	DWORD PTR tv5684[ebp], edx
	jne	SHORT $LN277@pop_vertex
	mov	eax, DWORD PTR _NULLFACET
	mov	DWORD PTR _f_2$90162[ebp], eax
	jmp	SHORT $LN278@pop_vertex
$LN277@pop_vertex:
	mov	ecx, DWORD PTR [ecx+24]
	test	eax, 134217728				; 08000000H
	je	SHORT $LN276@pop_vertex
	xor	ecx, 134217728				; 08000000H
$LN276@pop_vertex:
	mov	DWORD PTR _f_2$90162[ebp], ecx
$LN278@pop_vertex:

; 1827 :       if ( j < cinfo->cell[samecell].fenum - 1 )

	mov	ecx, DWORD PTR tv5183[ebp]
	dec	ecx
	cmp	DWORD PTR _j$[ebp], ecx
	jge	SHORT $LN81@pop_vertex

; 1828 :       { newv = dup_vertex(v_id);

	mov	edx, DWORD PTR _v_id$GSCopy$[ebp]
	push	edx
	call	_dup_vertex
	mov	ebx, eax

; 1829 :         remove_vertex_edge(v_id,e_1next);

	mov	eax, DWORD PTR _v_id$GSCopy$[ebp]
	push	edi
	push	eax
	call	_remove_vertex_edge

; 1830 :         remove_vertex_edge(v_id,e_2next);

	mov	ecx, DWORD PTR _v_id$GSCopy$[ebp]
	push	esi
	push	ecx
	call	_remove_vertex_edge

; 1831 :         set_edge_tailv(e_1next,newv);

	push	ebx
	push	edi
	call	_set_edge_tailv

; 1832 :         set_edge_tailv(e_2next,newv);

	push	ebx
	push	esi
	call	_set_edge_tailv
	add	esp, 36					; 00000024H
	jmp	SHORT $LN80@pop_vertex
$LN81@pop_vertex:

; 1833 :       }
; 1834 :       else newv = v_id;

	mov	ebx, DWORD PTR _v_id$GSCopy$[ebp]
$LN80@pop_vertex:

; 1835 :       get_edge_side(e_1next,side1);

	lea	edx, DWORD PTR _side1$90062[ebp]
	push	edx
	push	edi
	call	_get_edge_side

; 1836 :       get_edge_side(e_2next,side2);

	lea	eax, DWORD PTR _side2$90063[ebp]
	push	eax
	push	esi
	call	_get_edge_side

; 1837 :       x = get_coord(newv);

	mov	edx, DWORD PTR _web+12
	mov	eax, DWORD PTR _web+104
	mov	ecx, ebx
	and	ecx, 134217727				; 07ffffffH
	mov	ecx, DWORD PTR [edx+ecx*4]
	mov	edx, DWORD PTR _dymem
	add	ecx, DWORD PTR [eax+edx+64]

; 1838 :       for ( k = 0 ; k < SDIM ; k++ )

	xor	eax, eax
	add	esp, 16					; 00000010H
	cmp	DWORD PTR _web+616, eax
	jle	SHORT $LN77@pop_vertex
	fld	QWORD PTR __real@3fd0000000000000
$LN79@pop_vertex:

; 1839 :         x[k] += 0.25*(side1[k]+side2[k]);

	fld	QWORD PTR _side2$90063[ebp+eax*8]
	inc	eax
	fadd	QWORD PTR _side1$90062[ebp+eax*8-8]
	fmul	ST(0), ST(1)
	fadd	QWORD PTR [ecx+eax*8-8]
	fstp	QWORD PTR [ecx+eax*8-8]
	cmp	eax, DWORD PTR _web+616
	jl	SHORT $LN79@pop_vertex

; 1838 :       for ( k = 0 ; k < SDIM ; k++ )

	mov	edx, DWORD PTR _dymem
	fstp	ST(0)
$LN77@pop_vertex:

; 1840 :       newe = new_edge(get_edge_tailv(e_1),newv,e_1);

	mov	eax, DWORD PTR _e_1$90153[ebp]
	mov	ecx, DWORD PTR _web+124
	test	eax, 134217728				; 08000000H
	je	SHORT $LN281@pop_vertex
	and	eax, 134217727				; 07ffffffH
	mov	eax, DWORD PTR [ecx+eax*4]
	mov	ecx, DWORD PTR _web+216
	add	eax, DWORD PTR [ecx+edx+304]
	mov	edx, DWORD PTR _web+636
	mov	eax, DWORD PTR [eax+edx*4]
	jmp	SHORT $LN280@pop_vertex
$LN281@pop_vertex:
	and	eax, 134217727				; 07ffffffH
	mov	eax, DWORD PTR [ecx+eax*4]
	mov	ecx, DWORD PTR _web+216
	mov	edx, DWORD PTR [ecx+edx+304]
	mov	eax, DWORD PTR [eax+edx]
$LN280@pop_vertex:
	mov	ecx, DWORD PTR _e_1$90153[ebp]
	push	ecx
	push	ebx
	push	eax
	call	_new_edge

; 1841 :       newfe1 = new_facetedge(f_1,newe); 

	mov	edx, DWORD PTR _f_1$90161[ebp]
	mov	esi, eax
	push	esi
	push	edx
	call	_new_facetedge
	mov	edi, eax

; 1842 :       newfe2 = new_facetedge(f_2,newe); 

	mov	eax, DWORD PTR _f_2$90162[ebp]
	push	esi
	push	eax
	call	_new_facetedge
	mov	ebx, eax
	add	esp, 28					; 0000001cH
	mov	DWORD PTR _newfe2$90160[ebp], ebx

; 1843 :       set_edge_fe(newe,newfe1);

	mov	eax, edi
	test	esi, 134217728				; 08000000H
	je	SHORT $LN733@pop_vertex
	xor	eax, 134217728				; 08000000H
$LN733@pop_vertex:
	mov	edx, DWORD PTR _web+124
	mov	ecx, esi
	and	ecx, 134217727				; 07ffffffH
	mov	ecx, DWORD PTR [edx+ecx*4]
	mov	DWORD PTR [ecx+28], eax
	mov	eax, DWORD PTR _global_timestamp
	inc	eax
	mov	DWORD PTR _global_timestamp, eax
	mov	DWORD PTR _top_timestamp, eax

; 1844 :       set_prev_facet(newfe1,newfe2);

	mov	eax, edi
	shr	eax, 28					; 0000001cH
	and	eax, 1
	mov	DWORD PTR tv5753[ebp], eax
	je	SHORT $LN743@pop_vertex
	test	edi, 134217728				; 08000000H
	je	SHORT $LN288@pop_vertex
	mov	ecx, DWORD PTR _web+460
	mov	edx, ebx
	xor	edx, 134217728				; 08000000H
	mov	eax, edi
	and	eax, 134217727				; 07ffffffH
	mov	eax, DWORD PTR [ecx+eax*4]
	mov	DWORD PTR [eax+40], edx
	jmp	SHORT $LN287@pop_vertex
$LN288@pop_vertex:
	mov	edx, DWORD PTR _web+460
	mov	ecx, edi
	and	ecx, 134217727				; 07ffffffH
	mov	eax, DWORD PTR [edx+ecx*4]
	mov	DWORD PTR [eax+36], ebx
$LN287@pop_vertex:
	mov	eax, DWORD PTR _global_timestamp
	inc	eax
	mov	DWORD PTR _global_timestamp, eax
	mov	DWORD PTR _top_timestamp, eax
$LN743@pop_vertex:

; 1845 :       set_next_facet(newfe2,newfe1);

	mov	eax, ebx
	shr	eax, 28					; 0000001cH
	and	eax, 1
	mov	DWORD PTR tv5769[ebp], eax
	je	SHORT $LN292@pop_vertex
	test	ebx, 134217728				; 08000000H
	je	SHORT $LN293@pop_vertex
	mov	eax, DWORD PTR _web+460
	mov	ecx, edi
	xor	ecx, 134217728				; 08000000H
	mov	edx, ebx
	and	edx, 134217727				; 07ffffffH
	mov	edx, DWORD PTR [eax+edx*4]
	mov	DWORD PTR [edx+36], ecx
	jmp	SHORT $LN292@pop_vertex
$LN293@pop_vertex:
	mov	ecx, DWORD PTR _web+460
	mov	eax, ebx
	and	eax, 134217727				; 07ffffffH
	mov	edx, DWORD PTR [ecx+eax*4]
	mov	DWORD PTR [edx+40], edi
$LN292@pop_vertex:

; 1846 :       set_prev_facet(newfe2,newfe1);

	cmp	DWORD PTR tv5769[ebp], 0
	je	SHORT $LN300@pop_vertex
	test	ebx, 134217728				; 08000000H
	je	SHORT $LN298@pop_vertex
	mov	edx, DWORD PTR _web+460
	mov	eax, edi
	xor	eax, 134217728				; 08000000H
	mov	ecx, ebx
	and	ecx, 134217727				; 07ffffffH
	mov	ecx, DWORD PTR [edx+ecx*4]
	mov	DWORD PTR [ecx+40], eax
	jmp	SHORT $LN297@pop_vertex
$LN298@pop_vertex:
	mov	eax, DWORD PTR _web+460
	mov	edx, ebx
	and	edx, 134217727				; 07ffffffH
	mov	ecx, DWORD PTR [eax+edx*4]
	mov	DWORD PTR [ecx+36], edi
$LN297@pop_vertex:
	mov	eax, DWORD PTR _global_timestamp
	inc	eax
	mov	DWORD PTR _global_timestamp, eax
	mov	DWORD PTR _top_timestamp, eax
$LN300@pop_vertex:

; 1847 :       set_next_facet(newfe1,newfe2);

	cmp	DWORD PTR tv5753[ebp], 0
	je	SHORT $LN302@pop_vertex
	test	edi, 134217728				; 08000000H
	je	SHORT $LN303@pop_vertex
	mov	ecx, DWORD PTR _web+460
	mov	edx, ebx
	xor	edx, 134217728				; 08000000H
	mov	eax, edi
	and	eax, 134217727				; 07ffffffH
	mov	eax, DWORD PTR [ecx+eax*4]
	mov	DWORD PTR [eax+36], edx
	jmp	SHORT $LN302@pop_vertex
$LN303@pop_vertex:
	mov	edx, DWORD PTR _web+460
	mov	ecx, edi
	and	ecx, 134217727				; 07ffffffH
	mov	eax, DWORD PTR [edx+ecx*4]
	mov	DWORD PTR [eax+40], ebx
$LN302@pop_vertex:

; 1848 : 
; 1849 :       if ( middleflag )

	cmp	DWORD PTR _middleflag$90068[ebp], 0
	je	$LN734@pop_vertex

; 1850 :       { newfe3 = new_facetedge(f_septum,newe);

	mov	ecx, DWORD PTR _f_septum$90066[ebp]
	push	esi
	push	ecx
	call	_new_facetedge
	mov	esi, eax

; 1851 :         if ( flipflag )
; 1852 :         { 
; 1853 :           set_prev_facet(newfe3,newfe2);

	mov	ecx, esi
	add	esp, 8
	shr	ecx, 28					; 0000001cH
	cmp	DWORD PTR _flipflag$[ebp], 0
	je	$LN75@pop_vertex
	and	ecx, 1
	mov	DWORD PTR tv5788[ebp], ecx
	je	SHORT $LN744@pop_vertex
	test	esi, 134217728				; 08000000H
	je	SHORT $LN308@pop_vertex
	mov	ecx, DWORD PTR _web+460
	mov	edx, ebx
	xor	edx, 134217728				; 08000000H
	and	eax, 134217727				; 07ffffffH
	mov	eax, DWORD PTR [ecx+eax*4]
	mov	ecx, DWORD PTR tv5788[ebp]
	mov	DWORD PTR [eax+40], edx
	jmp	SHORT $LN307@pop_vertex
$LN308@pop_vertex:
	mov	eax, DWORD PTR _web+460
	mov	edx, esi
	and	edx, 134217727				; 07ffffffH
	mov	edx, DWORD PTR [eax+edx*4]
	mov	DWORD PTR [edx+36], ebx
$LN307@pop_vertex:
	mov	eax, DWORD PTR _global_timestamp
	inc	eax
	mov	DWORD PTR _global_timestamp, eax
	mov	DWORD PTR _top_timestamp, eax
$LN744@pop_vertex:

; 1854 :           set_next_facet(newfe2,newfe3);

	cmp	DWORD PTR tv5769[ebp], 0
	je	SHORT $LN312@pop_vertex
	test	ebx, 134217728				; 08000000H
	je	SHORT $LN313@pop_vertex
	mov	edx, DWORD PTR _web+460
	mov	eax, esi
	xor	eax, 134217728				; 08000000H
	mov	ecx, ebx
	and	ecx, 134217727				; 07ffffffH
	mov	ecx, DWORD PTR [edx+ecx*4]
	mov	DWORD PTR [ecx+36], eax
	mov	ecx, DWORD PTR tv5788[ebp]
	jmp	SHORT $LN312@pop_vertex
$LN313@pop_vertex:
	mov	eax, DWORD PTR _web+460
	mov	edx, ebx
	and	edx, 134217727				; 07ffffffH
	mov	edx, DWORD PTR [eax+edx*4]
	mov	DWORD PTR [edx+40], esi
$LN312@pop_vertex:

; 1855 :           set_prev_facet(newfe1,newfe3);

	cmp	DWORD PTR tv5753[ebp], 0
	je	SHORT $LN320@pop_vertex
	test	edi, 134217728				; 08000000H
	je	SHORT $LN318@pop_vertex
	mov	edx, DWORD PTR _web+460
	mov	eax, esi
	xor	eax, 134217728				; 08000000H
	mov	ecx, edi
	and	ecx, 134217727				; 07ffffffH
	mov	ecx, DWORD PTR [edx+ecx*4]
	mov	DWORD PTR [ecx+40], eax
	mov	ecx, DWORD PTR tv5788[ebp]
	jmp	SHORT $LN317@pop_vertex
$LN318@pop_vertex:
	mov	eax, DWORD PTR _web+460
	mov	edx, edi
	and	edx, 134217727				; 07ffffffH
	mov	edx, DWORD PTR [eax+edx*4]
	mov	DWORD PTR [edx+36], esi
$LN317@pop_vertex:
	mov	eax, DWORD PTR _global_timestamp
	inc	eax
	mov	DWORD PTR _global_timestamp, eax
	mov	DWORD PTR _top_timestamp, eax
$LN320@pop_vertex:

; 1856 :           set_next_facet(newfe3,newfe1);

	test	ecx, ecx
	je	$LN342@pop_vertex
	test	esi, 134217728				; 08000000H
	je	SHORT $LN323@pop_vertex
	mov	eax, edi
	jmp	$LN932@pop_vertex
$LN323@pop_vertex:
	mov	eax, DWORD PTR _web+460
	mov	edx, esi
	and	edx, 134217727				; 07ffffffH
	mov	ecx, DWORD PTR [eax+edx*4]
	mov	DWORD PTR [ecx+40], edi

; 1857 :         }
; 1858 :         else

	jmp	$LN342@pop_vertex
$LN75@pop_vertex:

; 1859 :         {
; 1860 :           set_prev_facet(newfe3,newfe1);

	and	ecx, 1
	mov	DWORD PTR tv5788[ebp], ecx
	je	SHORT $LN745@pop_vertex
	test	esi, 134217728				; 08000000H
	je	SHORT $LN328@pop_vertex
	mov	ecx, DWORD PTR _web+460
	mov	edx, edi
	xor	edx, 134217728				; 08000000H
	mov	eax, esi
	and	eax, 134217727				; 07ffffffH
	mov	eax, DWORD PTR [ecx+eax*4]
	mov	ecx, DWORD PTR tv5788[ebp]
	mov	DWORD PTR [eax+40], edx
	jmp	SHORT $LN327@pop_vertex
$LN328@pop_vertex:
	mov	eax, DWORD PTR _web+460
	mov	edx, esi
	and	edx, 134217727				; 07ffffffH
	mov	edx, DWORD PTR [eax+edx*4]
	mov	DWORD PTR [edx+36], edi
$LN327@pop_vertex:
	mov	eax, DWORD PTR _global_timestamp
	inc	eax
	mov	DWORD PTR _global_timestamp, eax
	mov	DWORD PTR _top_timestamp, eax
$LN745@pop_vertex:

; 1861 :           set_next_facet(newfe1,newfe3);

	cmp	DWORD PTR tv5753[ebp], 0
	je	SHORT $LN332@pop_vertex
	test	edi, 134217728				; 08000000H
	je	SHORT $LN333@pop_vertex
	mov	edx, DWORD PTR _web+460
	mov	eax, esi
	xor	eax, 134217728				; 08000000H
	mov	ecx, edi
	and	ecx, 134217727				; 07ffffffH
	mov	ecx, DWORD PTR [edx+ecx*4]
	mov	DWORD PTR [ecx+36], eax
	mov	ecx, DWORD PTR tv5788[ebp]
	jmp	SHORT $LN332@pop_vertex
$LN333@pop_vertex:
	mov	eax, DWORD PTR _web+460
	mov	edx, edi
	and	edx, 134217727				; 07ffffffH
	mov	edx, DWORD PTR [eax+edx*4]
	mov	DWORD PTR [edx+40], esi
$LN332@pop_vertex:

; 1862 :           set_prev_facet(newfe2,newfe3);

	cmp	DWORD PTR tv5769[ebp], 0
	je	SHORT $LN340@pop_vertex
	test	ebx, 134217728				; 08000000H
	je	SHORT $LN338@pop_vertex
	mov	edx, DWORD PTR _web+460
	mov	eax, esi
	xor	eax, 134217728				; 08000000H
	mov	ecx, ebx
	and	ecx, 134217727				; 07ffffffH
	mov	ecx, DWORD PTR [edx+ecx*4]
	mov	DWORD PTR [ecx+40], eax
	mov	ecx, DWORD PTR tv5788[ebp]
	jmp	SHORT $LN337@pop_vertex
$LN338@pop_vertex:
	mov	eax, DWORD PTR _web+460
	mov	edx, ebx
	and	edx, 134217727				; 07ffffffH
	mov	edx, DWORD PTR [eax+edx*4]
	mov	DWORD PTR [edx+36], esi
$LN337@pop_vertex:
	mov	eax, DWORD PTR _global_timestamp
	inc	eax
	mov	DWORD PTR _global_timestamp, eax
	mov	DWORD PTR _top_timestamp, eax
$LN340@pop_vertex:

; 1863 :           set_next_facet(newfe3,newfe2);

	test	ecx, ecx
	je	SHORT $LN342@pop_vertex
	test	esi, 134217728				; 08000000H
	je	SHORT $LN343@pop_vertex
	mov	eax, ebx
$LN932@pop_vertex:
	mov	edx, DWORD PTR _web+460
	xor	eax, 134217728				; 08000000H
	mov	ecx, esi
	and	ecx, 134217727				; 07ffffffH
	mov	ecx, DWORD PTR [edx+ecx*4]
	mov	DWORD PTR [ecx+36], eax
	jmp	SHORT $LN342@pop_vertex
$LN343@pop_vertex:
	mov	eax, DWORD PTR _web+460
	mov	edx, esi
	and	edx, 134217727				; 07ffffffH
	mov	ecx, DWORD PTR [eax+edx*4]
	mov	DWORD PTR [ecx+40], ebx
$LN342@pop_vertex:

; 1864 :         }
; 1865 :         if ( valid_id(prev_fe3) )

	mov	eax, DWORD PTR _prev_fe3$90070[ebp]
	test	eax, 268435456				; 10000000H
	je	$LN73@pop_vertex

; 1866 :         { set_next_edge(prev_fe3,newfe3);

	test	eax, 134217728				; 08000000H
	je	SHORT $LN348@pop_vertex
	mov	ebx, DWORD PTR _web+460
	mov	edx, esi
	xor	edx, 134217728				; 08000000H
	mov	ecx, eax
	and	ecx, 134217727				; 07ffffffH
	mov	ecx, DWORD PTR [ebx+ecx*4]
	mov	ebx, DWORD PTR _newfe2$90160[ebp]
	mov	DWORD PTR [ecx+28], edx
	jmp	SHORT $LN347@pop_vertex
$LN348@pop_vertex:
	mov	ecx, DWORD PTR _web+460
	mov	edx, eax
	and	edx, 134217727				; 07ffffffH
	mov	edx, DWORD PTR [ecx+edx*4]
	mov	DWORD PTR [edx+32], esi
$LN347@pop_vertex:

; 1867 :           set_prev_edge(newfe3,prev_fe3);

	cmp	DWORD PTR tv5788[ebp], 0
	je	SHORT $LN355@pop_vertex
	test	esi, 134217728				; 08000000H
	je	SHORT $LN353@pop_vertex
	mov	edx, DWORD PTR _web+460
	xor	eax, 134217728				; 08000000H
	mov	ecx, esi
	and	ecx, 134217727				; 07ffffffH
	mov	ecx, DWORD PTR [edx+ecx*4]
	mov	DWORD PTR [ecx+32], eax
	jmp	SHORT $LN352@pop_vertex
$LN353@pop_vertex:
	mov	ecx, DWORD PTR _web+460
	mov	edx, esi
	and	edx, 134217727				; 07ffffffH
	mov	edx, DWORD PTR [ecx+edx*4]
	mov	DWORD PTR [edx+28], eax
$LN352@pop_vertex:
	mov	eax, DWORD PTR _global_timestamp
	inc	eax
	mov	DWORD PTR _global_timestamp, eax
	mov	DWORD PTR _top_timestamp, eax

; 1868 :           prev_fe3 = newfe3;
; 1869 :         }
; 1870 :         else

	jmp	SHORT $LN355@pop_vertex
$LN73@pop_vertex:

; 1871 :         { first_fe3 = newfe3;
; 1872 :           set_facet_fe(f_septum,first_fe3);

	mov	eax, DWORD PTR _f_septum$90066[ebp]
	push	esi
	push	eax
	mov	DWORD PTR _first_fe3$90069[ebp], esi
	call	_set_facet_fe
	add	esp, 8
$LN355@pop_vertex:

; 1873 :           prev_fe3 = newfe3;

	mov	DWORD PTR _prev_fe3$90070[ebp], esi
$LN734@pop_vertex:

; 1874 :         }
; 1875 :       }
; 1876 :       set_next_edge(newfe1,fe_1next);

	mov	ecx, DWORD PTR tv5753[ebp]
	test	ecx, ecx
	je	SHORT $LN735@pop_vertex
	test	edi, 134217728				; 08000000H
	je	SHORT $LN358@pop_vertex
	mov	edx, DWORD PTR _fe_1next$90157[ebp]
	mov	esi, DWORD PTR _web+460
	xor	edx, 134217728				; 08000000H
	mov	eax, edi
	and	eax, 134217727				; 07ffffffH
	mov	eax, DWORD PTR [esi+eax*4]
	mov	DWORD PTR [eax+28], edx
	jmp	SHORT $LN735@pop_vertex
$LN358@pop_vertex:
	mov	eax, DWORD PTR _web+460
	mov	edx, edi
	and	edx, 134217727				; 07ffffffH
	mov	edx, DWORD PTR [eax+edx*4]
	mov	eax, DWORD PTR _fe_1next$90157[ebp]
	mov	DWORD PTR [edx+32], eax
$LN735@pop_vertex:

; 1877 :       set_prev_edge(fe_1next,newfe1);

	cmp	DWORD PTR tv5674[ebp], 0
	je	SHORT $LN736@pop_vertex
	test	DWORD PTR _fe_1next$90157[ebp], 134217728 ; 08000000H
	je	SHORT $LN363@pop_vertex
	mov	eax, DWORD PTR _web+460
	mov	esi, DWORD PTR tv5644[ebp]
	mov	eax, DWORD PTR [esi+eax]
	mov	edx, edi
	xor	edx, 134217728				; 08000000H
	mov	DWORD PTR [eax+32], edx
	jmp	SHORT $LN362@pop_vertex
$LN363@pop_vertex:
	mov	edx, DWORD PTR _web+460
	mov	eax, DWORD PTR tv5644[ebp]
	mov	edx, DWORD PTR [eax+edx]
	mov	DWORD PTR [edx+28], edi
$LN362@pop_vertex:
	mov	eax, DWORD PTR _global_timestamp
	inc	eax
	mov	DWORD PTR _global_timestamp, eax
	mov	DWORD PTR _top_timestamp, eax
$LN736@pop_vertex:

; 1878 :       set_prev_edge(newfe1,inverse_id(fe_1));

	mov	eax, DWORD PTR _fe_1$90050[ebp]
	xor	eax, 134217728				; 08000000H
	test	ecx, ecx
	je	SHORT $LN370@pop_vertex
	test	edi, 134217728				; 08000000H
	je	SHORT $LN368@pop_vertex
	mov	esi, DWORD PTR _web+460
	mov	ecx, eax
	xor	ecx, 134217728				; 08000000H
	mov	edx, edi
	and	edx, 134217727				; 07ffffffH
	mov	edx, DWORD PTR [esi+edx*4]
	mov	DWORD PTR [edx+32], ecx
	jmp	SHORT $LN367@pop_vertex
$LN368@pop_vertex:
	mov	edx, DWORD PTR _web+460
	mov	ecx, edi
	and	ecx, 134217727				; 07ffffffH
	mov	ecx, DWORD PTR [edx+ecx*4]
	mov	DWORD PTR [ecx+28], eax
$LN367@pop_vertex:
	mov	ecx, DWORD PTR _global_timestamp
	inc	ecx
	mov	DWORD PTR _global_timestamp, ecx
	mov	DWORD PTR _top_timestamp, ecx
$LN370@pop_vertex:

; 1879 :       set_next_edge(inverse_id(fe_1),newfe1); 

	test	eax, 268435456				; 10000000H
	je	SHORT $LN762@pop_vertex
	mov	ecx, DWORD PTR _web+460
	test	eax, 134217728				; 08000000H
	je	SHORT $LN373@pop_vertex
	mov	edx, edi
	xor	edx, 134217728				; 08000000H
	and	eax, 134217727				; 07ffffffH
	mov	eax, DWORD PTR [ecx+eax*4]
	mov	DWORD PTR [eax+28], edx
	jmp	SHORT $LN762@pop_vertex
$LN373@pop_vertex:
	and	eax, 134217727				; 07ffffffH
	mov	edx, DWORD PTR [ecx+eax*4]
	mov	DWORD PTR [edx+32], edi
$LN762@pop_vertex:

; 1880 :       set_next_edge(newfe2,fe_2next);

	cmp	DWORD PTR tv5769[ebp], 0
	mov	esi, DWORD PTR _fe_2next$90158[ebp]
	je	SHORT $LN377@pop_vertex
	test	ebx, 134217728				; 08000000H
	je	SHORT $LN378@pop_vertex
	mov	edx, DWORD PTR _web+460
	mov	eax, esi
	xor	eax, 134217728				; 08000000H
	mov	ecx, ebx
	and	ecx, 134217727				; 07ffffffH
	mov	ecx, DWORD PTR [edx+ecx*4]
	mov	DWORD PTR [ecx+28], eax
	jmp	SHORT $LN377@pop_vertex
$LN378@pop_vertex:
	mov	eax, DWORD PTR _web+460
	mov	edx, ebx
	and	edx, 134217727				; 07ffffffH
	mov	ecx, DWORD PTR [eax+edx*4]
	mov	DWORD PTR [ecx+32], esi
$LN377@pop_vertex:

; 1881 :       set_prev_edge(fe_2next,newfe2);

	cmp	DWORD PTR tv5684[ebp], 0
	je	SHORT $LN738@pop_vertex
	test	esi, 134217728				; 08000000H
	je	SHORT $LN383@pop_vertex
	mov	eax, DWORD PTR _web+460
	mov	ecx, DWORD PTR tv5664[ebp]
	mov	eax, DWORD PTR [ecx+eax]
	mov	edx, ebx
	xor	edx, 134217728				; 08000000H
	mov	DWORD PTR [eax+32], edx
	jmp	SHORT $LN382@pop_vertex
$LN383@pop_vertex:
	mov	ecx, DWORD PTR _web+460
	mov	edx, DWORD PTR tv5664[ebp]
	mov	eax, DWORD PTR [edx+ecx]
	mov	DWORD PTR [eax+28], ebx
$LN382@pop_vertex:
	mov	eax, DWORD PTR _global_timestamp
	inc	eax
	mov	DWORD PTR _global_timestamp, eax
	mov	DWORD PTR _top_timestamp, eax
$LN738@pop_vertex:

; 1882 :       set_prev_edge(newfe2,inverse_id(fe_2));

	mov	eax, DWORD PTR _fe_2$90051[ebp]
	xor	eax, 134217728				; 08000000H
	cmp	DWORD PTR tv5769[ebp], 0
	je	SHORT $LN390@pop_vertex
	test	ebx, 134217728				; 08000000H
	je	SHORT $LN388@pop_vertex
	mov	esi, DWORD PTR _web+460
	mov	ecx, eax
	xor	ecx, 134217728				; 08000000H
	mov	edx, ebx
	and	edx, 134217727				; 07ffffffH
	mov	edx, DWORD PTR [esi+edx*4]
	mov	esi, DWORD PTR _fe_2next$90158[ebp]
	mov	DWORD PTR [edx+32], ecx
	jmp	SHORT $LN387@pop_vertex
$LN388@pop_vertex:
	mov	edx, DWORD PTR _web+460
	mov	ecx, ebx
	and	ecx, 134217727				; 07ffffffH
	mov	ecx, DWORD PTR [edx+ecx*4]
	mov	DWORD PTR [ecx+28], eax
$LN387@pop_vertex:
	mov	ecx, DWORD PTR _global_timestamp
	inc	ecx
	mov	DWORD PTR _global_timestamp, ecx
	mov	DWORD PTR _top_timestamp, ecx
$LN390@pop_vertex:

; 1883 :       set_next_edge(inverse_id(fe_2),newfe2); 

	test	eax, 268435456				; 10000000H
	je	SHORT $LN392@pop_vertex
	mov	ecx, DWORD PTR _web+460
	test	eax, 134217728				; 08000000H
	je	SHORT $LN393@pop_vertex
	mov	edx, ebx
	xor	edx, 134217728				; 08000000H
	and	eax, 134217727				; 07ffffffH
	mov	eax, DWORD PTR [ecx+eax*4]
	mov	DWORD PTR [eax+28], edx
	jmp	SHORT $LN392@pop_vertex
$LN393@pop_vertex:
	and	eax, 134217727				; 07ffffffH
	mov	edx, DWORD PTR [ecx+eax*4]
	mov	DWORD PTR [edx+32], ebx
$LN392@pop_vertex:

; 1884 :       cross_cut(newfe1,fe_1next);

	mov	eax, DWORD PTR _fe_1next$90157[ebp]
	push	eax
	push	edi
	call	_cross_cut

; 1885 :       cross_cut(newfe2,fe_2next);

	push	esi
	push	ebx
	call	_cross_cut

; 1886 : 
; 1887 :       fe_1 = get_next_facet(fe_1next);

	mov	edx, DWORD PTR _web+460
	mov	ecx, DWORD PTR tv5644[ebp]
	mov	eax, DWORD PTR [ecx+edx]
	add	esp, 16					; 00000010H
	test	DWORD PTR _fe_1next$90157[ebp], 134217728 ; 08000000H
	je	SHORT $LN398@pop_vertex
	mov	eax, DWORD PTR [eax+36]
	xor	eax, 134217728				; 08000000H
	mov	DWORD PTR _fe_1$90050[ebp], eax
	jmp	SHORT $LN397@pop_vertex
$LN398@pop_vertex:
	mov	ecx, DWORD PTR [eax+40]
	mov	DWORD PTR _fe_1$90050[ebp], ecx
$LN397@pop_vertex:

; 1888 :       fe_2 = get_next_facet(fe_2next);

	mov	eax, DWORD PTR tv5664[ebp]
	mov	ecx, DWORD PTR [eax+edx]
	test	esi, 134217728				; 08000000H
	je	SHORT $LN402@pop_vertex
	mov	eax, DWORD PTR [ecx+36]
	xor	eax, 134217728				; 08000000H
	jmp	SHORT $LN933@pop_vertex
$LN402@pop_vertex:
	mov	eax, DWORD PTR [ecx+40]
$LN933@pop_vertex:

; 1807 :     }
; 1808 : 
; 1809 :     /* go around, inserting edges */
; 1810 :     fe_1 = bestray1;
; 1811 :     fe_2 = bestray2;
; 1812 :     prev_fe3 = NULLID;
; 1813 :     for ( j = 0 ; j < cinfo->cell[samecell].fenum ; j++ )

	mov	ecx, DWORD PTR tv5181[ebp]
	mov	ecx, DWORD PTR [ecx]

; 1888 :       fe_2 = get_next_facet(fe_2next);

	mov	DWORD PTR _fe_2$90051[ebp], eax
	mov	eax, DWORD PTR _j$[ebp]
	inc	eax
	mov	DWORD PTR _j$[ebp], eax
	mov	DWORD PTR tv5183[ebp], ecx
	cmp	eax, ecx
	jl	$LL718@pop_vertex
$LN82@pop_vertex:

; 1889 :     }
; 1890 :     if ( middleflag )

	cmp	DWORD PTR _middleflag$90068[ebp], 0
	je	$LN730@pop_vertex

; 1891 :     { set_next_edge(prev_fe3,first_fe3);

	mov	ecx, DWORD PTR _prev_fe3$90070[ebp]
	test	ecx, 268435456				; 10000000H
	je	SHORT $LN728@pop_vertex
	test	ecx, 134217728				; 08000000H
	je	SHORT $LN406@pop_vertex
	mov	eax, DWORD PTR _first_fe3$90069[ebp]
	mov	esi, eax
	xor	esi, 134217728				; 08000000H
	mov	edi, ecx
	and	edi, 134217727				; 07ffffffH
	mov	edx, DWORD PTR [edx+edi*4]
	mov	DWORD PTR [edx+28], esi
	mov	edx, DWORD PTR _web+460
	jmp	SHORT $LN405@pop_vertex
$LN406@pop_vertex:
	mov	eax, ecx
	and	eax, 134217727				; 07ffffffH
	mov	edx, DWORD PTR [edx+eax*4]
	mov	eax, DWORD PTR _first_fe3$90069[ebp]
	mov	DWORD PTR [edx+32], eax
	mov	edx, DWORD PTR _web+460
	jmp	SHORT $LN405@pop_vertex
$LN728@pop_vertex:
	mov	eax, DWORD PTR _first_fe3$90069[ebp]
$LN405@pop_vertex:

; 1892 :       set_prev_edge(first_fe3,prev_fe3);

	test	eax, 268435456				; 10000000H
	je	SHORT $LN729@pop_vertex
	test	eax, 134217728				; 08000000H
	je	SHORT $LN411@pop_vertex
	xor	ecx, 134217728				; 08000000H
	and	eax, 134217727				; 07ffffffH
	mov	eax, DWORD PTR [edx+eax*4]
	mov	DWORD PTR [eax+32], ecx
	jmp	SHORT $LN410@pop_vertex
$LN411@pop_vertex:
	and	eax, 134217727				; 07ffffffH
	mov	edx, DWORD PTR [edx+eax*4]
	mov	DWORD PTR [edx+28], ecx
$LN410@pop_vertex:
	mov	eax, DWORD PTR _global_timestamp
	inc	eax
	mov	DWORD PTR _global_timestamp, eax
	mov	DWORD PTR _top_timestamp, eax
$LN729@pop_vertex:

; 1893 :       if ( cinfo->cell[samecell].fenum > 3 )

	mov	eax, DWORD PTR tv5181[ebp]
	mov	eax, DWORD PTR [eax]
	cmp	eax, 3
	jle	$LN730@pop_vertex

; 1894 :         face_triangulate(f_septum,cinfo->cell[samecell].fenum);

	mov	ecx, DWORD PTR _f_septum$90066[ebp]
	push	eax
	push	ecx
	call	_face_triangulate
	add	esp, 8

; 1895 :     }
; 1896 :     return 1;

	jmp	$LN730@pop_vertex
$LN724@pop_vertex:

; 1807 :     }
; 1808 : 
; 1809 :     /* go around, inserting edges */
; 1810 :     fe_1 = bestray1;
; 1811 :     fe_2 = bestray2;
; 1812 :     prev_fe3 = NULLID;
; 1813 :     for ( j = 0 ; j < cinfo->cell[samecell].fenum ; j++ )

	fld	QWORD PTR _maxarea$[ebp]
	fld	QWORD PTR _total_area$[ebp]
$narrowcones$90111:

; 1897 : 
; 1898 :     narrowcones: ;  /* bailout if not poppable this way */
; 1899 :   }
; 1900 : 
; 1901 :   /* see if any cells are totally detachable */
; 1902 :   for ( i = 0 ; i < cinfo->cells ; i++ )

	mov	edi, DWORD PTR _cinfo$GSCopy$[ebp]
	mov	esi, DWORD PTR [edi]
	xor	edx, edx
	test	esi, esi
	jle	SHORT $LN67@pop_vertex
	lea	eax, DWORD PTR [edi+16]
$LN69@pop_vertex:

; 1903 :   { vertex_id newv;
; 1904 :     ar = cinfo->arclist + cinfo->cell[i].start;
; 1905 :     if ( (cinfo->cell[i].num != 1) || (ar->valence != 2) ) continue;

	cmp	DWORD PTR [eax], 1
	mov	ecx, DWORD PTR [eax-8]
	lea	ecx, DWORD PTR [ecx+ecx*2]
	lea	ebx, DWORD PTR [edi+ecx*4+9608]
	jne	SHORT $LN68@pop_vertex
	cmp	DWORD PTR [ebx+8], 2
	je	SHORT $LN795@pop_vertex
$LN68@pop_vertex:

; 1897 : 
; 1898 :     narrowcones: ;  /* bailout if not poppable this way */
; 1899 :   }
; 1900 : 
; 1901 :   /* see if any cells are totally detachable */
; 1902 :   for ( i = 0 ; i < cinfo->cells ; i++ )

	inc	edx
	add	eax, 32					; 00000020H
	cmp	edx, esi
	jl	SHORT $LN69@pop_vertex
$LN67@pop_vertex:

; 1915 :   }
; 1916 :  
; 1917 :   /* calculate areas of each cell */
; 1918 :   for ( i = 0 ; i < cinfo->cells ; i++ )

	fld	QWORD PTR __real@401921fb54442d18
	mov	DWORD PTR _i$[ebp], 0
	fld	QWORD PTR __real@402721fb54442d18
	test	esi, esi
	jle	$LN707@pop_vertex
	fstp	ST(2)
	mov	ebx, edi
	fstp	ST(2)
	add	ebx, 20					; 00000014H
$LL887@pop_vertex:

; 1919 :   {
; 1920 :     total_angle = 0.0;
; 1921 :     fenum = cinfo->cell[i].festart;

