; Listing generated by Microsoft (R) Optimizing Compiler Version 16.00.40219.01 

	TITLE	C:\levolver\yonkang-sefit\levolver\ev_ogl\REGISTRY.C
	.686P
	.XMM
	include listing.inc
	.model	flat

INCLUDELIB LIBCMT
INCLUDELIB OLDNAMES

PUBLIC	??_C@_0N@HDFFNFF@quarter_turn?$AA@		; `string'
PUBLIC	??_C@_0P@CNDFLCA@screw_symmetry?$AA@		; `string'
PUBLIC	??_C@_0BB@EKEKPGHO@central_symmetry?$AA@	; `string'
PUBLIC	??_C@_0M@ODDAMAI@flip_rotate?$AA@		; `string'
PUBLIC	??_C@_07BNLBHLHA@cubelat?$AA@			; `string'
PUBLIC	??_C@_07CCDKPEAI@cubocta?$AA@			; `string'
PUBLIC	??_C@_06CEHMNFAL@rotate?$AA@			; `string'
PUBLIC	??_C@_03POMAGKDD@xyz?$AA@			; `string'
PUBLIC	??_C@_0N@DPHKCCMD@dodecahedron?$AA@		; `string'
PUBLIC	??_C@_06LFJPNHPJ@genus2?$AA@			; `string'
PUBLIC	??_C@_05FCPCBJIO@torus?$AA@			; `string'
PUBLIC	_sym_register
EXTRN	_quarter_turn_form_pullback:PROC
EXTRN	_quarter_turn_inverse:PROC
EXTRN	_quarter_turn_compose:PROC
EXTRN	_quarter_turn_wrap:PROC
EXTRN	_screw_form_pullback:PROC
EXTRN	_screw_inverse:PROC
EXTRN	_screw_compose:PROC
EXTRN	_screw_wrap:PROC
EXTRN	_central_form_pullback:PROC
EXTRN	_central_inverse:PROC
EXTRN	_central_compose:PROC
EXTRN	_central_wrap:PROC
EXTRN	_frot_form_pullback:PROC
EXTRN	_frot_wrap:PROC
EXTRN	_cubel_form_pullback:PROC
EXTRN	_cubel_inverse:PROC
EXTRN	_cubel_compose:PROC
EXTRN	_cubel_wrap:PROC
EXTRN	_pgcube_form_pullback:PROC
EXTRN	_pgcube_inverse:PROC
EXTRN	_pgcube_compose:PROC
EXTRN	_pgcube_wrap:PROC
EXTRN	_rot_form_pullback:PROC
EXTRN	_rot_inverse:PROC
EXTRN	_rot_compose:PROC
EXTRN	_rot_wrap:PROC
EXTRN	_xyz_form_pullback:PROC
EXTRN	_xyz_inverse:PROC
EXTRN	_xyz_compose:PROC
EXTRN	_xyz_wrap:PROC
EXTRN	_dodec_form_pullback:PROC
EXTRN	_dodec_inverse:PROC
EXTRN	_dodec_compose:PROC
EXTRN	_dodec_wrap:PROC
EXTRN	_khyp_form_pullback:PROC
EXTRN	_khyp_inverse:PROC
EXTRN	_khyp_compose:PROC
EXTRN	_khyp_wrap:PROC
EXTRN	_torus_form_pullback:PROC
EXTRN	_torus_inverse:PROC
EXTRN	_torus_compose:PROC
EXTRN	_torus_wrap:PROC
_DATA	SEGMENT
_sym_register DD FLAT:??_C@_05FCPCBJIO@torus?$AA@
	DD	00H
	DD	FLAT:_torus_wrap
	DD	FLAT:_torus_compose
	DD	FLAT:_torus_inverse
	DD	FLAT:_torus_form_pullback
	DD	FLAT:??_C@_06LFJPNHPJ@genus2?$AA@
	DD	02H
	DD	FLAT:_khyp_wrap
	DD	FLAT:_khyp_compose
	DD	FLAT:_khyp_inverse
	DD	FLAT:_khyp_form_pullback
	DD	FLAT:??_C@_0N@DPHKCCMD@dodecahedron?$AA@
	DD	02H
	DD	FLAT:_dodec_wrap
	DD	FLAT:_dodec_compose
	DD	FLAT:_dodec_inverse
	DD	FLAT:_dodec_form_pullback
	DD	FLAT:??_C@_03POMAGKDD@xyz?$AA@
	DD	03H
	DD	FLAT:_xyz_wrap
	DD	FLAT:_xyz_compose
	DD	FLAT:_xyz_inverse
	DD	FLAT:_xyz_form_pullback
	DD	FLAT:??_C@_06CEHMNFAL@rotate?$AA@
	DD	03H
	DD	FLAT:_rot_wrap
	DD	FLAT:_rot_compose
	DD	FLAT:_rot_inverse
	DD	FLAT:_rot_form_pullback
	DD	FLAT:??_C@_07CCDKPEAI@cubocta?$AA@
	DD	03H
	DD	FLAT:_pgcube_wrap
	DD	FLAT:_pgcube_compose
	DD	FLAT:_pgcube_inverse
	DD	FLAT:_pgcube_form_pullback
	DD	FLAT:??_C@_07BNLBHLHA@cubelat?$AA@
	DD	03H
	DD	FLAT:_cubel_wrap
	DD	FLAT:_cubel_compose
	DD	FLAT:_cubel_inverse
	DD	FLAT:_cubel_form_pullback
	DD	FLAT:??_C@_0M@ODDAMAI@flip_rotate?$AA@
	DD	07H
	DD	FLAT:_frot_wrap
	DD	FLAT:_rot_compose
	DD	FLAT:_rot_inverse
	DD	FLAT:_frot_form_pullback
	DD	FLAT:??_C@_0BB@EKEKPGHO@central_symmetry?$AA@
	DD	03H
	DD	FLAT:_central_wrap
	DD	FLAT:_central_compose
	DD	FLAT:_central_inverse
	DD	FLAT:_central_form_pullback
	DD	FLAT:??_C@_0P@CNDFLCA@screw_symmetry?$AA@
	DD	03H
	DD	FLAT:_screw_wrap
	DD	FLAT:_screw_compose
	DD	FLAT:_screw_inverse
	DD	FLAT:_screw_form_pullback
	DD	FLAT:??_C@_0N@HDFFNFF@quarter_turn?$AA@
	DD	02H
	DD	FLAT:_quarter_turn_wrap
	DD	FLAT:_quarter_turn_compose
	DD	FLAT:_quarter_turn_inverse
	DD	FLAT:_quarter_turn_form_pullback
	DD	00H
	DD	00H
	DD	00H
	DD	00H
	DD	00H
	DD	00H
_DATA	ENDS
;	COMDAT ??_C@_0N@HDFFNFF@quarter_turn?$AA@
CONST	SEGMENT
??_C@_0N@HDFFNFF@quarter_turn?$AA@ DB 'quarter_turn', 00H ; `string'
CONST	ENDS
;	COMDAT ??_C@_0P@CNDFLCA@screw_symmetry?$AA@
CONST	SEGMENT
??_C@_0P@CNDFLCA@screw_symmetry?$AA@ DB 'screw_symmetry', 00H ; `string'
CONST	ENDS
;	COMDAT ??_C@_0BB@EKEKPGHO@central_symmetry?$AA@
CONST	SEGMENT
??_C@_0BB@EKEKPGHO@central_symmetry?$AA@ DB 'central_symmetry', 00H ; `string'
CONST	ENDS
;	COMDAT ??_C@_0M@ODDAMAI@flip_rotate?$AA@
CONST	SEGMENT
??_C@_0M@ODDAMAI@flip_rotate?$AA@ DB 'flip_rotate', 00H	; `string'
CONST	ENDS
;	COMDAT ??_C@_07BNLBHLHA@cubelat?$AA@
CONST	SEGMENT
??_C@_07BNLBHLHA@cubelat?$AA@ DB 'cubelat', 00H		; `string'
CONST	ENDS
;	COMDAT ??_C@_07CCDKPEAI@cubocta?$AA@
CONST	SEGMENT
??_C@_07CCDKPEAI@cubocta?$AA@ DB 'cubocta', 00H		; `string'
CONST	ENDS
;	COMDAT ??_C@_06CEHMNFAL@rotate?$AA@
CONST	SEGMENT
??_C@_06CEHMNFAL@rotate?$AA@ DB 'rotate', 00H		; `string'
CONST	ENDS
;	COMDAT ??_C@_03POMAGKDD@xyz?$AA@
CONST	SEGMENT
??_C@_03POMAGKDD@xyz?$AA@ DB 'xyz', 00H			; `string'
CONST	ENDS
;	COMDAT ??_C@_0N@DPHKCCMD@dodecahedron?$AA@
CONST	SEGMENT
??_C@_0N@DPHKCCMD@dodecahedron?$AA@ DB 'dodecahedron', 00H ; `string'
CONST	ENDS
;	COMDAT ??_C@_06LFJPNHPJ@genus2?$AA@
CONST	SEGMENT
??_C@_06LFJPNHPJ@genus2?$AA@ DB 'genus2', 00H		; `string'
CONST	ENDS
;	COMDAT ??_C@_05FCPCBJIO@torus?$AA@
CONST	SEGMENT
??_C@_05FCPCBJIO@torus?$AA@ DB 'torus', 00H		; `string'
CONST	ENDS
END
