; Listing generated by Microsoft (R) Optimizing Compiler Version 16.00.40219.01 

	TITLE	C:\levolver\yonkang-sefit\levolver\ev_ogl\UTILITY.C
	.686P
	.XMM
	include listing.inc
	.model	flat

INCLUDELIB LIBCMT
INCLUDELIB OLDNAMES

PUBLIC	_dy_minfrag
PUBLIC	_dy_overhead
PUBLIC	_quad_tang_coeffs
PUBLIC	_qlconvert
PUBLIC	_lqconvert
_DATA	SEGMENT
COMM	_eternal_block_head:DWORD
COMM	_graph_block_head:DWORD
COMM	_dy_lastblock:DWORD
COMM	_temp_block_head:DWORD
COMM	_dy_firstblock:DWORD
COMM	_perm_block_head:DWORD
_DATA	ENDS
_BSS	SEGMENT
_rfactor DQ	01H DUP (?)
_BSS	ENDS
_DATA	SEGMENT
_dy_minfrag DD	030H
_dy_overhead DD	018H
_quad_tang_coeffs DQ 0bff8000000000000r		; -1.5
	DQ	04000000000000000r		; 2
	DQ	0bfe0000000000000r		; -0.5
	DQ	0bfe0000000000000r		; -0.5
	DQ	00000000000000000r		; 0
	DQ	03fe0000000000000r		; 0.5
	DQ	03fe0000000000000r		; 0.5
	DQ	0c000000000000000r		; -2
	DQ	03ff8000000000000r		; 1.5
_qlconvert DD	00H
	DD	01H
	DD	02H
	DD	04H
	DD	05H
	DD	03H
_lqconvert DD	00H
	DD	01H
	DD	02H
	DD	05H
	DD	03H
	DD	04H
_k	DD	0270H
_kr	DD	0138H
_mag01	DD	00H
	DD	09908b0dfH
_DATA	ENDS
PUBLIC	_set_attr
EXTRN	_web:BYTE
; Function compile flags: /Ogtp
; File c:\levolver\yonkang-sefit\levolver\ev_ogl\inline.h
;	COMDAT _set_attr
_TEXT	SEGMENT
_id$ = 8						; size = 4
_attrib$ = 12						; size = 8
_set_attr PROC						; COMDAT

; 21   : {

	push	ebp
	mov	ebp, esp

; 22   :   elptr(id)->attr |= attrib;

	mov	eax, DWORD PTR _id$[ebp]
	mov	ecx, eax
	shr	ecx, 29					; 0000001dH
	imul	ecx, 112				; 00000070H
	mov	edx, DWORD PTR _web[ecx+12]
	mov	ecx, DWORD PTR _attrib$[ebp]
	and	eax, 134217727				; 07ffffffH
	mov	eax, DWORD PTR [edx+eax*4]
	mov	edx, DWORD PTR _attrib$[ebp+4]
	or	DWORD PTR [eax+8], ecx
	or	DWORD PTR [eax+12], edx

; 23   : }

	pop	ebp
	ret	0
_set_attr ENDP
_TEXT	ENDS
PUBLIC	_get_fe_edge
; Function compile flags: /Ogtp
;	COMDAT _get_fe_edge
_TEXT	SEGMENT
_fe_id$ = 8						; size = 4
_get_fe_edge PROC					; COMDAT

; 43   : {

	push	ebp
	mov	ebp, esp

; 44   :   edge_id e_id;
; 45   :     
; 46   :   e_id = feptr(fe_id)->fe_edge_id;

	mov	eax, DWORD PTR _fe_id$[ebp]

; 47   : 
; 48   :   /*
; 49   :   if ( inverted(fe_id) ) invert(e_id);
; 50   :   return e_id;
; 51   :   */
; 52   :   
; 53   :   return same_sign(e_id,fe_id);

	mov	edx, DWORD PTR _web+460
	mov	ecx, eax
	and	ecx, 134217727				; 07ffffffH
	mov	ecx, DWORD PTR [edx+ecx*4]
	and	eax, 134217728				; 08000000H
	xor	eax, DWORD PTR [ecx+20]

; 54   : }

	pop	ebp
	ret	0
_get_fe_edge ENDP
_TEXT	ENDS
PUBLIC	_get_fe_facet
EXTRN	_NULLFACET:DWORD
; Function compile flags: /Ogtp
;	COMDAT _get_fe_facet
_TEXT	SEGMENT
_fe_id$ = 8						; size = 4
_get_fe_facet PROC					; COMDAT

; 58   : {

	push	ebp
	mov	ebp, esp

; 59   :   facet_id f_id;
; 60   :   
; 61   :   if ( !valid_id(fe_id) ) return NULLFACET;

	mov	ecx, DWORD PTR _fe_id$[ebp]
	test	ecx, 268435456				; 10000000H
	jne	SHORT $LN2@get_fe_fac
	mov	eax, DWORD PTR _NULLFACET

; 64   :   return f_id;
; 65   : }

	pop	ebp
	ret	0
$LN2@get_fe_fac:

; 62   :   f_id = feptr(fe_id)->fe_facet_id;

	mov	edx, DWORD PTR _web+460
	mov	eax, ecx
	and	eax, 134217727				; 07ffffffH
	mov	eax, DWORD PTR [edx+eax*4]
	mov	eax, DWORD PTR [eax+24]

; 63   :   if ( inverted(fe_id) ) invert(f_id);

	test	ecx, 134217728				; 08000000H
	je	SHORT $LN3@get_fe_fac
	xor	eax, 134217728				; 08000000H
$LN3@get_fe_fac:

; 64   :   return f_id;
; 65   : }

	pop	ebp
	ret	0
_get_fe_facet ENDP
_TEXT	ENDS
PUBLIC	_get_prev_edge
; Function compile flags: /Ogtp
;	COMDAT _get_prev_edge
_TEXT	SEGMENT
_fe_id$ = 8						; size = 4
_get_prev_edge PROC					; COMDAT

; 69   : {

	push	ebp
	mov	ebp, esp

; 70   :   if ( inverted(fe_id) ) return inverse_id(feptr(fe_id)->nextedge[1]);

	mov	eax, DWORD PTR _fe_id$[ebp]
	mov	ecx, DWORD PTR _web+460
	test	eax, 134217728				; 08000000H
	je	SHORT $LN2@get_prev_e
	and	eax, 134217727				; 07ffffffH
	mov	edx, DWORD PTR [ecx+eax*4]
	mov	eax, DWORD PTR [edx+32]
	xor	eax, 134217728				; 08000000H

; 72   : }

	pop	ebp
	ret	0
$LN2@get_prev_e:

; 71   :   else return feptr(fe_id)->nextedge[0];

	and	eax, 134217727				; 07ffffffH
	mov	edx, DWORD PTR [ecx+eax*4]
	mov	eax, DWORD PTR [edx+28]

; 72   : }

	pop	ebp
	ret	0
_get_prev_edge ENDP
_TEXT	ENDS
PUBLIC	_get_next_edge
; Function compile flags: /Ogtp
;	COMDAT _get_next_edge
_TEXT	SEGMENT
_fe_id$ = 8						; size = 4
_get_next_edge PROC					; COMDAT

; 76   : {

	push	ebp
	mov	ebp, esp

; 77   :   if ( inverted(fe_id) ) return inverse_id(feptr(fe_id)->nextedge[0]);

	mov	eax, DWORD PTR _fe_id$[ebp]
	mov	ecx, DWORD PTR _web+460
	test	eax, 134217728				; 08000000H
	je	SHORT $LN2@get_next_e
	and	eax, 134217727				; 07ffffffH
	mov	edx, DWORD PTR [ecx+eax*4]
	mov	eax, DWORD PTR [edx+28]
	xor	eax, 134217728				; 08000000H

; 79   : }

	pop	ebp
	ret	0
$LN2@get_next_e:

; 78   :   else return feptr(fe_id)->nextedge[1];

	and	eax, 134217727				; 07ffffffH
	mov	edx, DWORD PTR [ecx+eax*4]
	mov	eax, DWORD PTR [edx+32]

; 79   : }

	pop	ebp
	ret	0
_get_next_edge ENDP
_TEXT	ENDS
PUBLIC	_get_prev_facet
; Function compile flags: /Ogtp
;	COMDAT _get_prev_facet
_TEXT	SEGMENT
_fe_id$ = 8						; size = 4
_get_prev_facet PROC					; COMDAT

; 83   : {

	push	ebp
	mov	ebp, esp

; 84   :   if ( inverted(fe_id) ) 

	mov	eax, DWORD PTR _fe_id$[ebp]

; 85   :     return inverse_id(feptr(fe_id)->nextfacet[1]);

	mov	ecx, DWORD PTR _web+460
	test	eax, 134217728				; 08000000H
	je	SHORT $LN2@get_prev_f
	and	eax, 134217727				; 07ffffffH
	mov	edx, DWORD PTR [ecx+eax*4]
	mov	eax, DWORD PTR [edx+40]
	xor	eax, 134217728				; 08000000H

; 88   : }

	pop	ebp
	ret	0
$LN2@get_prev_f:

; 86   :   else 
; 87   :     return feptr(fe_id)->nextfacet[0];

	and	eax, 134217727				; 07ffffffH
	mov	edx, DWORD PTR [ecx+eax*4]
	mov	eax, DWORD PTR [edx+36]

; 88   : }

	pop	ebp
	ret	0
_get_prev_facet ENDP
_TEXT	ENDS
PUBLIC	_get_next_facet
; Function compile flags: /Ogtp
;	COMDAT _get_next_facet
_TEXT	SEGMENT
_fe_id$ = 8						; size = 4
_get_next_facet PROC					; COMDAT

; 92   : {

	push	ebp
	mov	ebp, esp

; 93   :   if ( inverted(fe_id) ) 

	mov	eax, DWORD PTR _fe_id$[ebp]

; 94   :     return inverse_id(feptr(fe_id)->nextfacet[0]);

	mov	ecx, DWORD PTR _web+460
	test	eax, 134217728				; 08000000H
	je	SHORT $LN2@get_next_f
	and	eax, 134217727				; 07ffffffH
	mov	edx, DWORD PTR [ecx+eax*4]
	mov	eax, DWORD PTR [edx+36]
	xor	eax, 134217728				; 08000000H

; 97   : }

	pop	ebp
	ret	0
$LN2@get_next_f:

; 95   :   else 
; 96   :     return feptr(fe_id)->nextfacet[1];

	and	eax, 134217727				; 07ffffffH
	mov	edx, DWORD PTR [ecx+eax*4]
	mov	eax, DWORD PTR [edx+40]

; 97   : }

	pop	ebp
	ret	0
_get_next_facet ENDP
_TEXT	ENDS
PUBLIC	_set_edge_wrap
EXTRN	_dymem:DWORD
EXTRN	_sym_inverse:DWORD
; Function compile flags: /Ogtp
;	COMDAT _set_edge_wrap
_TEXT	SEGMENT
_e_id$ = 8						; size = 4
_wrap$ = 12						; size = 4
_set_edge_wrap PROC					; COMDAT

; 157  : {

	push	ebp
	mov	ebp, esp

; 158  :  *EINT(e_id,E_WRAP_ATTR) =  inverted(e_id)  ? (*sym_inverse)(wrap) : wrap ;

	mov	eax, DWORD PTR _wrap$[ebp]
	push	esi
	mov	esi, DWORD PTR _e_id$[ebp]
	test	esi, 134217728				; 08000000H
	je	SHORT $LN4@set_edge_w
	push	eax
	call	DWORD PTR _sym_inverse
	add	esp, 4
$LN4@set_edge_w:
	mov	ecx, DWORD PTR _web+124
	and	esi, 134217727				; 07ffffffH
	mov	edx, DWORD PTR [ecx+esi*4]
	mov	esi, DWORD PTR _dymem
	mov	ecx, DWORD PTR _web+216
	mov	ecx, DWORD PTR [ecx+esi+784]
	mov	DWORD PTR [edx+ecx], eax
	pop	esi

; 159  : }

	pop	ebp
	ret	0
_set_edge_wrap ENDP
_TEXT	ENDS
PUBLIC	_get_edge_wrap
; Function compile flags: /Ogtp
;	COMDAT _get_edge_wrap
_TEXT	SEGMENT
_e_id$ = 8						; size = 4
_get_edge_wrap PROC					; COMDAT

; 163  : {

	push	ebp
	mov	ebp, esp

; 164  :   WRAPTYPE wrap = *EINT(e_id,E_WRAP_ATTR) ;

	mov	ecx, DWORD PTR _e_id$[ebp]
	mov	edx, DWORD PTR _web+124
	mov	eax, ecx
	and	eax, 134217727				; 07ffffffH
	mov	eax, DWORD PTR [edx+eax*4]
	mov	edx, DWORD PTR _web+216
	push	esi
	mov	esi, DWORD PTR _dymem
	mov	edx, DWORD PTR [edx+esi+784]
	mov	eax, DWORD PTR [eax+edx]
	pop	esi

; 165  :   return    ( inverted(e_id) ? (*sym_inverse)(wrap) : wrap );

	test	ecx, 134217728				; 08000000H
	je	SHORT $LN4@get_edge_w
	push	eax
	call	DWORD PTR _sym_inverse
	add	esp, 4
$LN4@get_edge_w:

; 166  : }

	pop	ebp
	ret	0
_get_edge_wrap ENDP
_TEXT	ENDS
PUBLIC	_get_edge_fe
; Function compile flags: /Ogtp
;	COMDAT _get_edge_fe
_TEXT	SEGMENT
_e_id$ = 8						; size = 4
_get_edge_fe PROC					; COMDAT

; 179  : {   struct edge *ep;

	push	ebp
	mov	ebp, esp

; 180  :     facetedge_id fe;
; 181  : 
; 182  :  	ep = eptr(e_id);

	mov	ecx, DWORD PTR _e_id$[ebp]
	mov	edx, DWORD PTR _web+124
	mov	eax, ecx
	and	eax, 134217727				; 07ffffffH
	mov	eax, DWORD PTR [edx+eax*4]

; 183  :     if ( !ep ) return NULLID;

	test	eax, eax
	jne	SHORT $LN2@get_edge_f

; 186  :     return fe;
; 187  : }

	pop	ebp
	ret	0
$LN2@get_edge_f:

; 184  :     fe = ep->fe_id; 

	mov	eax, DWORD PTR [eax+28]

; 185  :     if ( inverted(e_id) ) invert(fe);

	test	ecx, 134217728				; 08000000H
	je	SHORT $LN3@get_edge_f
	xor	eax, 134217728				; 08000000H
$LN3@get_edge_f:

; 186  :     return fe;
; 187  : }

	pop	ebp
	ret	0
_get_edge_fe ENDP
_TEXT	ENDS
PUBLIC	_get_edge_tailv
; Function compile flags: /Ogtp
;	COMDAT _get_edge_tailv
_TEXT	SEGMENT
_e_id$ = 8						; size = 4
_get_edge_tailv PROC					; COMDAT

; 191  : {

	push	ebp
	mov	ebp, esp

; 192  :   if ( inverted(e_id) )

	mov	eax, DWORD PTR _e_id$[ebp]

; 193  :      return get_edge_vertices(e_id)[web.headvnum];

	mov	ecx, DWORD PTR _web+124
	test	eax, 134217728				; 08000000H
	je	SHORT $LN2@get_edge_t
	and	eax, 134217727				; 07ffffffH
	mov	edx, DWORD PTR [ecx+eax*4]
	mov	eax, DWORD PTR _web+216
	mov	ecx, DWORD PTR _dymem
	add	edx, DWORD PTR [eax+ecx+304]
	mov	eax, DWORD PTR _web+636
	mov	eax, DWORD PTR [edx+eax*4]

; 196  : }

	pop	ebp
	ret	0
$LN2@get_edge_t:

; 194  :   else
; 195  :      return get_edge_vertices(e_id)[0];

	and	eax, 134217727				; 07ffffffH
	mov	edx, DWORD PTR [ecx+eax*4]
	mov	eax, DWORD PTR _web+216
	mov	ecx, DWORD PTR _dymem
	mov	eax, DWORD PTR [eax+ecx+304]
	mov	eax, DWORD PTR [edx+eax]

; 196  : }

	pop	ebp
	ret	0
_get_edge_tailv ENDP
_TEXT	ENDS
PUBLIC	_get_edge_headv
; Function compile flags: /Ogtp
;	COMDAT _get_edge_headv
_TEXT	SEGMENT
_e_id$ = 8						; size = 4
_get_edge_headv PROC					; COMDAT

; 200  : {

	push	ebp
	mov	ebp, esp

; 201  :   if ( inverted(e_id) )

	mov	eax, DWORD PTR _e_id$[ebp]

; 202  :      return get_edge_vertices(e_id)[0];

	mov	ecx, DWORD PTR _web+124
	test	eax, 134217728				; 08000000H
	je	SHORT $LN2@get_edge_h
	and	eax, 134217727				; 07ffffffH
	mov	edx, DWORD PTR [ecx+eax*4]
	mov	eax, DWORD PTR _web+216
	mov	ecx, DWORD PTR _dymem
	mov	eax, DWORD PTR [eax+ecx+304]
	mov	eax, DWORD PTR [edx+eax]

; 205  : }

	pop	ebp
	ret	0
$LN2@get_edge_h:

; 203  :   else
; 204  :      return get_edge_vertices(e_id)[web.headvnum];

	and	eax, 134217727				; 07ffffffH
	mov	edx, DWORD PTR [ecx+eax*4]
	mov	eax, DWORD PTR _web+216
	mov	ecx, DWORD PTR _dymem
	add	edx, DWORD PTR [eax+ecx+304]
	mov	eax, DWORD PTR _web+636
	mov	eax, DWORD PTR [edx+eax*4]

; 205  : }

	pop	ebp
	ret	0
_get_edge_headv ENDP
_TEXT	ENDS
PUBLIC	_get_facet_body
; Function compile flags: /Ogtp
;	COMDAT _get_facet_body
_TEXT	SEGMENT
_f_id$ = 8						; size = 4
_get_facet_body PROC					; COMDAT

; 250  : {

	push	ebp
	mov	ebp, esp

; 251  :   if ( web.skel[BODY].count == 0 ) return NULLID;

	cmp	DWORD PTR _web+400, 0
	jne	SHORT $LN4@get_facet_
$LN7@get_facet_:
	xor	eax, eax

; 255  : }

	pop	ebp
	ret	0
$LN4@get_facet_:

; 252  :   if ( !valid_id(f_id) ) return NULLID;

	mov	eax, DWORD PTR _f_id$[ebp]
	test	eax, 268435456				; 10000000H
	je	SHORT $LN7@get_facet_

; 253  :   if ( inverted(f_id) ) return F_ELID(f_id,F_BODY_LIST_ATTR)[1];

	mov	ecx, DWORD PTR _web+236
	test	eax, 134217728				; 08000000H
	je	SHORT $LN2@get_facet_
	and	eax, 134217727				; 07ffffffH
	mov	edx, DWORD PTR [ecx+eax*4]
	mov	eax, DWORD PTR _web+328
	mov	ecx, DWORD PTR _dymem
	mov	eax, DWORD PTR [eax+ecx+784]
	mov	eax, DWORD PTR [edx+eax+4]

; 255  : }

	pop	ebp
	ret	0
$LN2@get_facet_:

; 254  :   else  return F_ELID(f_id,F_BODY_LIST_ATTR)[0];

	and	eax, 134217727				; 07ffffffH
	mov	edx, DWORD PTR [ecx+eax*4]
	mov	eax, DWORD PTR _web+328
	mov	ecx, DWORD PTR _dymem
	mov	eax, DWORD PTR [eax+ecx+784]
	mov	eax, DWORD PTR [edx+eax]

; 255  : }

	pop	ebp
	ret	0
_get_facet_body ENDP
_TEXT	ENDS
PUBLIC	_get_facet_fe
; Function compile flags: /Ogtp
;	COMDAT _get_facet_fe
_TEXT	SEGMENT
_f_id$ = 8						; size = 4
_get_facet_fe PROC					; COMDAT

; 260  : {

	push	ebp
	mov	ebp, esp

; 261  :   facetedge_id fe;
; 262  :   
; 263  :   if ( !valid_id(f_id) ) return NULLID;

	mov	ecx, DWORD PTR _f_id$[ebp]
	test	ecx, 268435456				; 10000000H
	jne	SHORT $LN2@get_facet_@2
	xor	eax, eax

; 266  :   return fe;
; 267  : }

	pop	ebp
	ret	0
$LN2@get_facet_@2:

; 264  :   fe = fptr(f_id)->fe_id;

	mov	edx, DWORD PTR _web+236
	mov	eax, ecx
	and	eax, 134217727				; 07ffffffH
	mov	eax, DWORD PTR [edx+eax*4]
	mov	eax, DWORD PTR [eax+28]

; 265  :   if ( inverted(f_id) ) invert(fe);

	test	ecx, 134217728				; 08000000H
	je	SHORT $LN3@get_facet_@2
	xor	eax, 134217728				; 08000000H
$LN3@get_facet_@2:

; 266  :   return fe;
; 267  : }

	pop	ebp
	ret	0
_get_facet_fe ENDP
_TEXT	ENDS
PUBLIC	_get_next_tail_edge
; Function compile flags: /Ogtp
;	COMDAT _get_next_tail_edge
_TEXT	SEGMENT
_e_id$ = 8						; size = 4
_get_next_tail_edge PROC				; COMDAT

; 270  : { return eptr(e_id)->next_vedge[inverted(e_id) ?1: 0] ; }

	push	ebp
	mov	ebp, esp
	mov	eax, DWORD PTR _e_id$[ebp]
	mov	edx, DWORD PTR _web+124
	mov	ecx, eax
	shr	ecx, 27					; 0000001bH
	and	ecx, 1
	and	eax, 134217727				; 07ffffffH
	mov	eax, DWORD PTR [edx+eax*4]
	mov	eax, DWORD PTR [eax+ecx*4+32]
	pop	ebp
	ret	0
_get_next_tail_edge ENDP
_TEXT	ENDS
PUBLIC	_set_next_tail_edge
; Function compile flags: /Ogtp
;	COMDAT _set_next_tail_edge
_TEXT	SEGMENT
_e_id$ = 8						; size = 4
_ee_id$ = 12						; size = 4
_set_next_tail_edge PROC				; COMDAT

; 276  : { eptr(e_id)->next_vedge[inverted(e_id) ?1: 0] = (ee_id); }

	push	ebp
	mov	ebp, esp
	mov	eax, DWORD PTR _e_id$[ebp]
	mov	edx, DWORD PTR _web+124
	mov	ecx, eax
	shr	ecx, 27					; 0000001bH
	and	ecx, 1
	and	eax, 134217727				; 07ffffffH
	mov	eax, DWORD PTR [edx+eax*4]
	mov	edx, DWORD PTR _ee_id$[ebp]
	mov	DWORD PTR [eax+ecx*4+32], edx
	pop	ebp
	ret	0
_set_next_tail_edge ENDP
_TEXT	ENDS
PUBLIC	_get_body_facet
; Function compile flags: /Ogtp
;	COMDAT _get_body_facet
_TEXT	SEGMENT
_b_id$ = 8						; size = 4
_get_body_facet PROC					; COMDAT

; 279  : { return ( valid_id(b_id) ? bptr(b_id)->f_id : NULLID ); }

	push	ebp
	mov	ebp, esp
	mov	eax, DWORD PTR _b_id$[ebp]
	test	eax, 268435456				; 10000000H
	je	SHORT $LN3@get_body_f
	mov	ecx, DWORD PTR _web+348
	and	eax, 134217727				; 07ffffffH
	mov	edx, DWORD PTR [ecx+eax*4]
	mov	eax, DWORD PTR [edx+400]
	pop	ebp
	ret	0
$LN3@get_body_f:
	xor	eax, eax
	pop	ebp
	ret	0
_get_body_facet ENDP
_TEXT	ENDS
PUBLIC	_get_vertex_fe
; Function compile flags: /Ogtp
;	COMDAT _get_vertex_fe
_TEXT	SEGMENT
_v_id$ = 8						; size = 4
_get_vertex_fe PROC					; COMDAT

; 287  : { facet_id fe;

	push	ebp
	mov	ebp, esp

; 288  :   edge_id start_e, xx_id=vptr(v_id)->e_id;

	mov	eax, DWORD PTR _v_id$[ebp]
	mov	ecx, DWORD PTR _web+12
	and	eax, 134217727				; 07ffffffH
	mov	edx, DWORD PTR [ecx+eax*4]
	mov	eax, DWORD PTR [edx+28]

; 289  :   // might be bare edge, so seek along edge loop
; 290  :   if ( !valid_id(xx_id) ) return NULLID;

	test	eax, 268435456				; 10000000H
	jne	SHORT $LN4@get_vertex
	xor	eax, eax

; 299  : }

	pop	ebp
	ret	0
$LN4@get_vertex:
	push	esi

; 291  :   fe = eptr(xx_id)->fe_id;

	mov	esi, DWORD PTR _web+124
	mov	ecx, eax
	and	ecx, 134217727				; 07ffffffH
	mov	ecx, DWORD PTR [esi+ecx*4]
	mov	edx, DWORD PTR [ecx+28]
	push	edi

; 292  :   start_e = xx_id;
; 293  :   while ( !valid_id(fe) )

	test	edx, 268435456				; 10000000H
	jne	SHORT $LN2@get_vertex
	mov	edi, eax
	or	edi, 134217728				; 08000000H
	npad	8
$LL3@get_vertex:

; 294  :   { xx_id = get_next_tail_edge(xx_id);

	shr	eax, 27					; 0000001bH
	and	eax, 1
	mov	eax, DWORD PTR [ecx+eax*4+32]

; 295  :     if ( equal_element(xx_id,start_e) ) return NULLID;

	mov	edx, eax
	or	edx, 134217728				; 08000000H
	cmp	edx, edi
	je	SHORT $LN10@get_vertex

; 296  :     fe = eptr(xx_id)->fe_id;

	mov	ecx, eax
	and	ecx, 134217727				; 07ffffffH
	mov	ecx, DWORD PTR [esi+ecx*4]
	mov	edx, DWORD PTR [ecx+28]
	test	edx, 268435456				; 10000000H
	je	SHORT $LL3@get_vertex
$LN2@get_vertex:

; 297  :   }
; 298  :   return  same_sign(fe,xx_id);

	and	eax, 134217728				; 08000000H
	pop	edi
	xor	eax, edx
	pop	esi

; 299  : }

	pop	ebp
	ret	0
$LN10@get_vertex:
	pop	edi

; 295  :     if ( equal_element(xx_id,start_e) ) return NULLID;

	xor	eax, eax
	pop	esi

; 299  : }

	pop	ebp
	ret	0
_get_vertex_fe ENDP
_TEXT	ENDS
PUBLIC	_set_body_facet
; Function compile flags: /Ogtp
;	COMDAT _set_body_facet
_TEXT	SEGMENT
_b_id$ = 8						; size = 4
_f_id$ = 12						; size = 4
_set_body_facet PROC					; COMDAT

; 302  : {  if ( valid_id(b_id) )  bptr(b_id)->f_id = (f_id); }

	push	ebp
	mov	ebp, esp
	mov	eax, DWORD PTR _b_id$[ebp]
	test	eax, 268435456				; 10000000H
	je	SHORT $LN1@set_body_f
	mov	ecx, DWORD PTR _web+348
	and	eax, 134217727				; 07ffffffH
	mov	edx, DWORD PTR [ecx+eax*4]
	mov	eax, DWORD PTR _f_id$[ebp]
	mov	DWORD PTR [edx+400], eax
$LN1@set_body_f:
	pop	ebp
	ret	0
_set_body_facet ENDP
_TEXT	ENDS
PUBLIC	__real@0000000000000000
PUBLIC	_get_body_volume
EXTRN	__fltused:DWORD
;	COMDAT __real@0000000000000000
CONST	SEGMENT
__real@0000000000000000 DQ 00000000000000000r	; 0
; Function compile flags: /Ogtp
CONST	ENDS
;	COMDAT _get_body_volume
_TEXT	SEGMENT
_b_id$ = 8						; size = 4
_get_body_volume PROC					; COMDAT

; 308  :     { return    ( valid_id(b_id) ?  bptr(b_id)->volume : 0.0 ) ; }

	push	ebp
	mov	ebp, esp
	mov	eax, DWORD PTR _b_id$[ebp]
	test	eax, 268435456				; 10000000H
	je	SHORT $LN3@get_body_v
	mov	ecx, DWORD PTR _web+348
	and	eax, 134217727				; 07ffffffH
	mov	edx, DWORD PTR [ecx+eax*4]
	fld	QWORD PTR [edx+40]
	pop	ebp
	ret	0
$LN3@get_body_v:
	fldz
	pop	ebp
	ret	0
_get_body_volume ENDP
_TEXT	ENDS
PUBLIC	_get_body_fixvol
; Function compile flags: /Ogtp
;	COMDAT _get_body_fixvol
_TEXT	SEGMENT
_b_id$ = 8						; size = 4
_get_body_fixvol PROC					; COMDAT

; 311  :      { return ( valid_id(b_id) ?  bptr(b_id)->fixvol : 0.0 ) ; }

	push	ebp
	mov	ebp, esp
	mov	eax, DWORD PTR _b_id$[ebp]
	test	eax, 268435456				; 10000000H
	je	SHORT $LN3@get_body_f@2
	mov	ecx, DWORD PTR _web+348
	and	eax, 134217727				; 07ffffffH
	mov	edx, DWORD PTR [ecx+eax*4]
	fld	QWORD PTR [edx+32]
	pop	ebp
	ret	0
$LN3@get_body_f@2:
	fldz
	pop	ebp
	ret	0
_get_body_fixvol ENDP
_TEXT	ENDS
PUBLIC	_get_body_volconst
; Function compile flags: /Ogtp
;	COMDAT _get_body_volconst
_TEXT	SEGMENT
_b_id$ = 8						; size = 4
_get_body_volconst PROC					; COMDAT

; 320  :   { return    ( valid_id(b_id) ?  bptr(b_id)->volconst : 0.0 ) ; }

	push	ebp
	mov	ebp, esp
	mov	eax, DWORD PTR _b_id$[ebp]
	test	eax, 268435456				; 10000000H
	je	SHORT $LN3@get_body_v@2
	mov	ecx, DWORD PTR _web+348
	and	eax, 134217727				; 07ffffffH
	mov	edx, DWORD PTR [ecx+eax*4]
	fld	QWORD PTR [edx+328]
	pop	ebp
	ret	0
$LN3@get_body_v@2:
	fldz
	pop	ebp
	ret	0
_get_body_volconst ENDP
_TEXT	ENDS
PUBLIC	_set_body_volconst
EXTRN	_gen_quant_list:DWORD
EXTRN	_everything_quantities_flag:DWORD
; Function compile flags: /Ogtp
;	COMDAT _set_body_volconst
_TEXT	SEGMENT
_b_id$ = 8						; size = 4
_v$ = 12						; size = 8
_set_body_volconst PROC					; COMDAT

; 329  : { if ( !valid_id(b_id) ) return;

	push	ebp
	mov	ebp, esp
	mov	eax, DWORD PTR _b_id$[ebp]
	test	eax, 268435456				; 10000000H
	je	SHORT $LN1@set_body_v

; 330  :   bptr(b_id)->volconst = v;

	mov	ecx, DWORD PTR _web+348
	fld	QWORD PTR _v$[ebp]
	and	eax, 134217727				; 07ffffffH
	add	eax, eax
	add	eax, eax
	mov	edx, DWORD PTR [eax+ecx]
	fst	QWORD PTR [edx+328]

; 331  :   if ( everything_quantities_flag )

	cmp	DWORD PTR _everything_quantities_flag, 0
	je	SHORT $LN6@set_body_v

; 332  :   { struct gen_quant *q = GEN_QUANT(get_body_volquant(b_id));

	mov	ecx, DWORD PTR _web+348
	mov	edx, DWORD PTR [eax+ecx]
	mov	eax, DWORD PTR [edx+404]

; 333  :     q->volconst = v;

	mov	ecx, DWORD PTR _gen_quant_list
	imul	eax, 368				; 00000170H
	fstp	QWORD PTR [eax+ecx+208]

; 334  :   }
; 335  : }

	pop	ebp
	ret	0
$LN6@set_body_v:

; 333  :     q->volconst = v;

	fstp	ST(0)
$LN1@set_body_v:

; 334  :   }
; 335  : }

	pop	ebp
	ret	0
_set_body_volconst ENDP
_TEXT	ENDS
PUBLIC	??_C@_0BJ@PHGHPLDN@Caught?5SIGTERM?4?5proc?5?$CFd?5?$AA@ ; `string'
PUBLIC	??_C@_0DK@DAHEJIGN@use?5Task?5Manager?5to?5kill?5Evolver@ ; `string'
PUBLIC	??_C@_0DJ@KJEKCBJM@Can?8t?5nicely?5abort?5command?5in?5WI@ ; `string'
PUBLIC	??_C@_0DK@OKEGMBGO@In?5GRAPH_MUTEX?4?5?5May?5be?5deadlock@ ; `string'
PUBLIC	??_C@_0BG@MCHLCPJJ@?6Aborting?5operation?4?6?$AA@ ; `string'
PUBLIC	??_C@_0BI@NPOOMMID@?6Will?5abort?5operation?4?6?$AA@ ; `string'
PUBLIC	??_C@_0BO@NIEHBECC@?6Will?5break?5after?5iteration?4?6?$AA@ ; `string'
PUBLIC	_catcher
EXTRN	_my_exit:PROC
EXTRN	_do_dump:PROC
EXTRN	_sprintf:PROC
EXTRN	_errmsg:BYTE
EXTRN	_getpid:PROC
EXTRN	_quiet_flag:DWORD
EXTRN	_pop_commandfd:PROC
EXTRN	___iob_func:PROC
EXTRN	_commandfd:DWORD
EXTRN	__imp__ReleaseMutex@4:PROC
EXTRN	_locking_thread:DWORD
EXTRN	__imp__GetCurrentThreadId@0:PROC
EXTRN	__imp__MsgWaitForMultipleObjects@20:PROC
EXTRN	_graphmutex:DWORD
EXTRN	_hessian_iterate_flag:DWORD
EXTRN	_breakflag:DWORD
EXTRN	_erroutstring:PROC
EXTRN	_iterate_flag:DWORD
EXTRN	_signal:PROC
;	COMDAT ??_C@_0BJ@PHGHPLDN@Caught?5SIGTERM?4?5proc?5?$CFd?5?$AA@
; File c:\levolver\yonkang-sefit\levolver\ev_ogl\utility.c
CONST	SEGMENT
??_C@_0BJ@PHGHPLDN@Caught?5SIGTERM?4?5proc?5?$CFd?5?$AA@ DB 'Caught SIGTE'
	DB	'RM. proc %d ', 00H				; `string'
CONST	ENDS
;	COMDAT ??_C@_0DK@DAHEJIGN@use?5Task?5Manager?5to?5kill?5Evolver@
CONST	SEGMENT
??_C@_0DK@DAHEJIGN@use?5Task?5Manager?5to?5kill?5Evolver@ DB 'use Task Ma'
	DB	'nager to kill Evolver if you think it''s hung.', 0aH, 00H ; `string'
CONST	ENDS
;	COMDAT ??_C@_0DJ@KJEKCBJM@Can?8t?5nicely?5abort?5command?5in?5WI@
CONST	SEGMENT
??_C@_0DJ@KJEKCBJM@Can?8t?5nicely?5abort?5command?5in?5WI@ DB 'Can''t nic'
	DB	'ely abort command in WIN32.  Hang in there, or', 0aH, 00H ; `string'
CONST	ENDS
;	COMDAT ??_C@_0DK@OKEGMBGO@In?5GRAPH_MUTEX?4?5?5May?5be?5deadlock@
CONST	SEGMENT
??_C@_0DK@OKEGMBGO@In?5GRAPH_MUTEX?4?5?5May?5be?5deadlock@ DB 'In GRAPH_M'
	DB	'UTEX.  May be deadlocked with graphics thread.', 0aH, 00H ; `string'
CONST	ENDS
;	COMDAT ??_C@_0BG@MCHLCPJJ@?6Aborting?5operation?4?6?$AA@
CONST	SEGMENT
??_C@_0BG@MCHLCPJJ@?6Aborting?5operation?4?6?$AA@ DB 0aH, 'Aborting opera'
	DB	'tion.', 0aH, 00H				; `string'
CONST	ENDS
;	COMDAT ??_C@_0BI@NPOOMMID@?6Will?5abort?5operation?4?6?$AA@
CONST	SEGMENT
??_C@_0BI@NPOOMMID@?6Will?5abort?5operation?4?6?$AA@ DB 0aH, 'Will abort '
	DB	'operation.', 0aH, 00H			; `string'
CONST	ENDS
;	COMDAT ??_C@_0BO@NIEHBECC@?6Will?5break?5after?5iteration?4?6?$AA@
CONST	SEGMENT
??_C@_0BO@NIEHBECC@?6Will?5break?5after?5iteration?4?6?$AA@ DB 0aH, 'Will'
	DB	' break after iteration.', 0aH, 00H		; `string'
; Function compile flags: /Ogtp
CONST	ENDS
;	COMDAT _catcher
_TEXT	SEGMENT
_sig$ = 8						; size = 4
_catcher PROC						; COMDAT

; 29   : {

	push	ebp
	mov	ebp, esp

; 30   : #ifdef SIGALRM
; 31   :   if ( sig == SIGALRM ) 
; 32   :       signal(SIGALRM,catcher);
; 33   : #endif
; 34   : 
; 35   :   if ( sig == SIGINT ) 

	mov	eax, DWORD PTR _sig$[ebp]
	cmp	eax, 2
	jne	$LN14@catcher

; 36   :      { signal(SIGINT,catcher);

	push	esi
	push	edi
	push	OFFSET _catcher
	push	eax
	call	_signal

; 37   : 
; 38   : #ifdef SGI_MULTI 
; 39   :     if ( mpflag == M_ACTIVE )
; 40   :       { if ( m_breakflag[GET_THREAD_ID] )
; 41   :         longjmp(m_jumpbuf[GET_THREAD_ID],1);
; 42   :          else m_breakflag[GET_THREAD_ID] = BREAKFULL;
; 43   :          if ( GET_THREAD_ID == 0 ) 
; 44   :         write(2,"\nWill break after iteration.\n",29);
; 45   :          breakflag = BREAKFULL;
; 46   :          iterate_flag = 0;
; 47   :       }
; 48   :     else
; 49   :       if ( GET_THREAD_ID > 0 ) {}
; 50   :     else
; 51   : #endif
; 52   :     if ( iterate_flag == 1 )

	mov	eax, DWORD PTR _iterate_flag
	mov	esi, 1
	add	esp, 8
	xor	edi, edi
	cmp	eax, esi
	jne	SHORT $LN13@catcher

; 53   :     { write(2,"\nWill break after iteration.\n",29);

	push	OFFSET ??_C@_0BO@NIEHBECC@?6Will?5break?5after?5iteration?4?6?$AA@
	call	_erroutstring
	add	esp, 4

; 54   :       breakflag = BREAKFULL;

	mov	DWORD PTR _breakflag, esi

; 55   :       iterate_flag = 0;

	mov	DWORD PTR _iterate_flag, edi
	jmp	$LN17@catcher
$LN13@catcher:

; 56   :     }
; 57   :     else if ( iterate_flag == 2 ) /* graphing or something */

	cmp	eax, 2
	jne	SHORT $LN11@catcher

; 58   :     { write(2,"\nWill abort operation.\n",24);

	push	OFFSET ??_C@_0BI@NPOOMMID@?6Will?5abort?5operation?4?6?$AA@
	call	_erroutstring
	add	esp, 4

; 59   :       breakflag = BREAKFULL;

	mov	DWORD PTR _breakflag, esi

; 60   :       iterate_flag = 0;

	mov	DWORD PTR _iterate_flag, edi
	jmp	$LN17@catcher
$LN11@catcher:

; 61   :     }
; 62   :     else if ( hessian_iterate_flag == 1 )

	cmp	DWORD PTR _hessian_iterate_flag, esi
	jne	SHORT $LN9@catcher

; 63   :     { write(2,"\nWill break after iteration.\n",29);

	push	OFFSET ??_C@_0BO@NIEHBECC@?6Will?5break?5after?5iteration?4?6?$AA@
	call	_erroutstring
	add	esp, 4

; 64   :       breakflag = BREAKFULL;

	mov	DWORD PTR _breakflag, esi

; 65   :     }
; 66   :     else

	jmp	SHORT $LN17@catcher
$LN9@catcher:

; 67   :     { write(2,"\nAborting operation.\n",22);

	push	OFFSET ??_C@_0BG@MCHLCPJJ@?6Aborting?5operation?4?6?$AA@
	call	_erroutstring
	add	esp, 4

; 68   :       if ( TRY_GRAPH_MUTEX(IMMEDIATE_TIMEOUT) )

	push	edi
	push	edi
	push	edi
	push	OFFSET _graphmutex
	push	esi
	call	DWORD PTR __imp__MsgWaitForMultipleObjects@20
	cmp	eax, 258				; 00000102H
	je	SHORT $LN7@catcher
	mov	esi, DWORD PTR __imp__GetCurrentThreadId@0
	call	esi
	mov	DWORD PTR _locking_thread, eax
	cmp	eax, edi
	je	SHORT $LN7@catcher

; 69   :            ABORT_GRAPH_MUTEX

	call	esi
	cmp	eax, DWORD PTR _locking_thread
	jne	SHORT $LN4@catcher
	mov	eax, DWORD PTR _graphmutex
	push	eax
	mov	DWORD PTR _locking_thread, edi
	call	DWORD PTR __imp__ReleaseMutex@4

; 70   :         else

	jmp	SHORT $LN4@catcher
$LN7@catcher:

; 71   :            erroutstring("In GRAPH_MUTEX.  May be deadlocked with graphics thread.\n");

	push	OFFSET ??_C@_0DK@OKEGMBGO@In?5GRAPH_MUTEX?4?5?5May?5be?5deadlock@
	call	_erroutstring
	add	esp, 4
$LN4@catcher:

; 72   : #ifdef WIN32
; 73   : /* separate thread for signal handler, so can't longjmp out of error */
; 74   :   erroutstring("Can't nicely abort command in WIN32.  Hang in there, or\n");

	push	OFFSET ??_C@_0DJ@KJEKCBJM@Can?8t?5nicely?5abort?5command?5in?5WI@
	call	_erroutstring

; 75   :   erroutstring("use Task Manager to kill Evolver if you think it's hung.\n");

	push	OFFSET ??_C@_0DK@DAHEJIGN@use?5Task?5Manager?5to?5kill?5Evolver@
	call	_erroutstring
	add	esp, 8
$LN17@catcher:

; 76   : #elif defined(MAC_OS_X)
; 77   :   if ( iterate_flag > 2 )
; 78   :     erroutstring("Haven't figured out how to handle this yet.\n");
; 79   : #else
; 80   :   kb_error(1357,"",RECOVERABLE_QUIET);
; 81   : #endif
; 82   :     }
; 83   :     while ( commandfd && (commandfd  != stdin) )

	cmp	DWORD PTR _commandfd, edi
	je	SHORT $LN2@catcher
	npad	5
$LL3@catcher:
	call	___iob_func
	cmp	DWORD PTR _commandfd, eax
	je	SHORT $LN2@catcher

; 84   :          pop_commandfd();

	call	_pop_commandfd
	cmp	DWORD PTR _commandfd, edi
	jne	SHORT $LL3@catcher
$LN2@catcher:

; 85   :     quiet_flag = 0; 

	mov	DWORD PTR _quiet_flag, edi
	pop	edi
	pop	esi

; 94   :     }
; 95   : #endif
; 96   : 
; 97   : #ifdef SIGHUP
; 98   :   if ( sig == SIGHUP )  /* for outside kill and dump */
; 99   :     {
; 100  :       do_dump(NULL); /* dump to default */
; 101  :       my_exit(1);
; 102  :     }
; 103  : #endif
; 104  : 
; 105  : #ifdef SIGPIPE
; 106  :   else if ( sig == SIGPIPE )
; 107  :      { signal(SIGPIPE,catcher);
; 108  :     write(2,"Broken pipe signal.\n",20);
; 109  :     broken_pipe_flag = 1;
; 110  :      }
; 111  : #endif
; 112  : } // end catcher()

	pop	ebp
	ret	0
$LN14@catcher:

; 86   :    }
; 87   :     
; 88   : #ifdef SIGTERM
; 89   :   if ( sig == SIGTERM )  /* for outside kill and dump */

	cmp	eax, 15					; 0000000fH
	jne	SHORT $LN1@catcher

; 90   :     { sprintf(errmsg,"Caught SIGTERM. proc %d ",getpid());

	call	_getpid
	push	eax
	push	OFFSET ??_C@_0BJ@PHGHPLDN@Caught?5SIGTERM?4?5proc?5?$CFd?5?$AA@
	push	OFFSET _errmsg
	call	_sprintf

; 91   :       erroutstring(errmsg);

	push	OFFSET _errmsg
	call	_erroutstring

; 92   :       do_dump(NULL); /* dump to default */

	push	0
	call	_do_dump

; 93   :       my_exit(1);

	push	1
	call	_my_exit
	add	esp, 24					; 00000018H
$LN1@catcher:

; 94   :     }
; 95   : #endif
; 96   : 
; 97   : #ifdef SIGHUP
; 98   :   if ( sig == SIGHUP )  /* for outside kill and dump */
; 99   :     {
; 100  :       do_dump(NULL); /* dump to default */
; 101  :       my_exit(1);
; 102  :     }
; 103  : #endif
; 104  : 
; 105  : #ifdef SIGPIPE
; 106  :   else if ( sig == SIGPIPE )
; 107  :      { signal(SIGPIPE,catcher);
; 108  :     write(2,"Broken pipe signal.\n",20);
; 109  :     broken_pipe_flag = 1;
; 110  :      }
; 111  : #endif
; 112  : } // end catcher()

	pop	ebp
	ret	0
_catcher ENDP
_TEXT	ENDS
PUBLIC	_kb_checksum
; Function compile flags: /Ogtp
;	COMDAT _kb_checksum
_TEXT	SEGMENT
_mem$ = 8						; size = 4
_size$ = 12						; size = 4
_kb_checksum PROC					; COMDAT

; 135  : {

	push	ebp
	mov	ebp, esp

; 136  :   int sum = 0;
; 137  :   int *a,*b;
; 138  :   b = (int *)mem;
; 139  :   a = b + size/sizeof(int);

	mov	ecx, DWORD PTR _size$[ebp]
	mov	edx, DWORD PTR _mem$[ebp]
	xor	eax, eax
	shr	ecx, 2
	lea	ecx, DWORD PTR [edx+ecx*4]
$LL3@kb_checksu:

; 140  :   do { sum += *a; } while ( --a != b);

	add	eax, DWORD PTR [ecx]
	sub	ecx, 4
	cmp	ecx, edx
	jne	SHORT $LL3@kb_checksu

; 141  :   return sum;
; 142  : } // end kb_checksum()

	pop	ebp
	ret	0
_kb_checksum ENDP
_TEXT	ENDS
PUBLIC	??_C@_0CC@FFMPGLPH@Bad?5graphics?5memory?5block?5chain?$CB@ ; `string'
PUBLIC	??_C@_0CD@ILHGHODK@Bad?5temporary?5memory?5block?5chain@ ; `string'
PUBLIC	??_C@_0CD@HEHGFICE@Bad?5permanent?5memory?5block?5chain@ ; `string'
PUBLIC	??_C@_0CB@CINIEFGP@Bad?5eternal?5memory?5block?5chain?$CB?6@ ; `string'
PUBLIC	??_C@_0DC@LMNNJEJE@Internal?5error?3?5Corrupt?5heap?$CB?5Me@ ; `string'
PUBLIC	_mem_sanity_check
EXTRN	_kb_error:PROC
EXTRN	__heapchk:PROC
EXTRN	_draw_thread_id:DWORD
;	COMDAT ??_C@_0CC@FFMPGLPH@Bad?5graphics?5memory?5block?5chain?$CB@
CONST	SEGMENT
??_C@_0CC@FFMPGLPH@Bad?5graphics?5memory?5block?5chain?$CB@ DB 'Bad graph'
	DB	'ics memory block chain!', 0aH, 00H		; `string'
CONST	ENDS
;	COMDAT ??_C@_0CD@ILHGHODK@Bad?5temporary?5memory?5block?5chain@
CONST	SEGMENT
??_C@_0CD@ILHGHODK@Bad?5temporary?5memory?5block?5chain@ DB 'Bad temporar'
	DB	'y memory block chain!', 0aH, 00H		; `string'
CONST	ENDS
;	COMDAT ??_C@_0CD@HEHGFICE@Bad?5permanent?5memory?5block?5chain@
CONST	SEGMENT
??_C@_0CD@HEHGFICE@Bad?5permanent?5memory?5block?5chain@ DB 'Bad permanen'
	DB	't memory block chain!', 0aH, 00H		; `string'
CONST	ENDS
;	COMDAT ??_C@_0CB@CINIEFGP@Bad?5eternal?5memory?5block?5chain?$CB?6@
CONST	SEGMENT
??_C@_0CB@CINIEFGP@Bad?5eternal?5memory?5block?5chain?$CB?6@ DB 'Bad eter'
	DB	'nal memory block chain!', 0aH, 00H		; `string'
CONST	ENDS
;	COMDAT ??_C@_0DC@LMNNJEJE@Internal?5error?3?5Corrupt?5heap?$CB?5Me@
CONST	SEGMENT
??_C@_0DC@LMNNJEJE@Internal?5error?3?5Corrupt?5heap?$CB?5Me@ DB 'Internal'
	DB	' error: Corrupt heap! Memory is trashed.', 0aH, 00H ; `string'
; Function compile flags: /Ogtp
CONST	ENDS
;	COMDAT _mem_sanity_check
_TEXT	SEGMENT
_mem_sanity_check PROC					; COMDAT

; 163  : { struct memhead *head;

	push	ebx
	push	esi
	push	edi

; 164  :   int blocktype;
; 165  : 
; 166  :   THREADBLOCK(blocktype);

	call	DWORD PTR __imp__GetCurrentThreadId@0
	mov	edi, DWORD PTR _draw_thread_id
	sub	edi, eax
	neg	edi
	sbb	edi, edi
	and	edi, 4369				; 00001111H
	add	edi, 52171				; 0000cbcbH

; 167  : 
; 168  : #if defined(_WIN32) && defined(_HEAPOK)
; 169  : #ifndef _HEAPINFO
; 170  : #define _HEAPINFO _heapinfo
; 171  : #endif
; 172  : 
; 173  :   if ( _heapchk() != _HEAPOK )

	call	__heapchk
	cmp	eax, -2					; fffffffeH
	je	SHORT $LN30@mem_sanity

; 174  :     kb_error(2580,"Internal error: Corrupt heap! Memory is trashed.\n",RECOVERABLE);

	push	1
	push	OFFSET ??_C@_0DC@LMNNJEJE@Internal?5error?3?5Corrupt?5heap?$CB?5Me@
	push	2580					; 00000a14H
	call	_kb_error
	add	esp, 12					; 0000000cH
$LN30@mem_sanity:

; 175  : #endif
; 176  : 
; 177  :   for ( head = eternal_block_head; head ; head = head->next )

	mov	esi, DWORD PTR _eternal_block_head
	test	esi, esi
	je	SHORT $LN16@mem_sanity
	mov	ebx, 60138				; 0000eaeaH
	npad	2
$LL18@mem_sanity:

; 178  :   { if ( head->type != ETERNAL_BLOCK )

	cmp	DWORD PTR [esi+12], ebx
	je	SHORT $LN17@mem_sanity

; 179  :       kb_error(2581,"Bad eternal memory block chain!\n",RECOVERABLE);

	push	1
	push	OFFSET ??_C@_0CB@CINIEFGP@Bad?5eternal?5memory?5block?5chain?$CB?6@
	push	2581					; 00000a15H
	call	_kb_error
	add	esp, 12					; 0000000cH
$LN17@mem_sanity:

; 175  : #endif
; 176  : 
; 177  :   for ( head = eternal_block_head; head ; head = head->next )

	mov	esi, DWORD PTR [esi+4]
	test	esi, esi
	jne	SHORT $LL18@mem_sanity
$LN16@mem_sanity:

; 180  :   }
; 181  : 
; 182  :   for ( head = perm_block_head ; head ; head = head->next )

	mov	esi, DWORD PTR _perm_block_head
	test	esi, esi
	je	SHORT $LN12@mem_sanity
	mov	ebx, 43947				; 0000ababH
	npad	1
$LL14@mem_sanity:

; 183  :   { if ( head->type != PERM_BLOCK )

	cmp	DWORD PTR [esi+12], ebx
	je	SHORT $LN13@mem_sanity

; 184  :       kb_error(2460,"Bad permanent memory block chain!\n",RECOVERABLE);

	push	1
	push	OFFSET ??_C@_0CD@HEHGFICE@Bad?5permanent?5memory?5block?5chain@
	push	2460					; 0000099cH
	call	_kb_error
	add	esp, 12					; 0000000cH
$LN13@mem_sanity:

; 180  :   }
; 181  : 
; 182  :   for ( head = perm_block_head ; head ; head = head->next )

	mov	esi, DWORD PTR [esi+4]
	test	esi, esi
	jne	SHORT $LL14@mem_sanity
$LN12@mem_sanity:

; 185  :   }
; 186  : 
; 187  :   if ( blocktype == TEMP_BLOCK )

	mov	ebx, 56540				; 0000dcdcH
	cmp	edi, ebx
	jne	SHORT $LN7@mem_sanity

; 188  :   for ( head = temp_block_head ; head ; head = head->next )

	mov	esi, DWORD PTR _temp_block_head
	test	esi, esi
	je	SHORT $LN2@mem_sanity
$LL9@mem_sanity:

; 189  :   { if ( head->type != TEMP_BLOCK )

	cmp	DWORD PTR [esi+12], ebx
	je	SHORT $LN8@mem_sanity

; 190  :       kb_error(3208,"Bad temporary memory block chain!\n",RECOVERABLE);

	push	1
	push	OFFSET ??_C@_0CD@ILHGHODK@Bad?5temporary?5memory?5block?5chain@
	push	3208					; 00000c88H
	call	_kb_error
	add	esp, 12					; 0000000cH
$LN8@mem_sanity:

; 188  :   for ( head = temp_block_head ; head ; head = head->next )

	mov	esi, DWORD PTR [esi+4]
	test	esi, esi
	jne	SHORT $LL9@mem_sanity
	pop	edi
	pop	esi
	pop	ebx

; 197  :   }
; 198  : } // end mem_sanity_check()

	ret	0
$LN7@mem_sanity:

; 191  :   }
; 192  : 
; 193  :   if ( blocktype == GRAPH_BLOCK )

	mov	ebx, 52171				; 0000cbcbH
	cmp	edi, ebx
	jne	SHORT $LN2@mem_sanity

; 194  :   for ( head = graph_block_head ; head ; head = head->next )

	mov	esi, DWORD PTR _graph_block_head
	test	esi, esi
	je	SHORT $LN2@mem_sanity
	npad	6
$LL4@mem_sanity:

; 195  :   { if ( head->type != GRAPH_BLOCK )

	cmp	DWORD PTR [esi+12], ebx
	je	SHORT $LN3@mem_sanity

; 196  :       kb_error(2461,"Bad graphics memory block chain!\n",RECOVERABLE);

	push	1
	push	OFFSET ??_C@_0CC@FFMPGLPH@Bad?5graphics?5memory?5block?5chain?$CB@
	push	2461					; 0000099dH
	call	_kb_error
	add	esp, 12					; 0000000cH
$LN3@mem_sanity:

; 194  :   for ( head = graph_block_head ; head ; head = head->next )

	mov	esi, DWORD PTR [esi+4]
	test	esi, esi
	jne	SHORT $LL4@mem_sanity
$LN2@mem_sanity:
	pop	edi
	pop	esi
	pop	ebx

; 197  :   }
; 198  : } // end mem_sanity_check()

	ret	0
_mem_sanity_check ENDP
_TEXT	ENDS
PUBLIC	??_C@_0CH@NCBAEBPN@Total?5data?5memory?3?5?$CFlu?5KB?0?5or?5?$CFl@ ; `string'
PUBLIC	??_C@_0DD@FLDOJPAM@Total?5data?5memory?3?5?$CFlu?5blocks?0?5?$CF@ ; `string'
PUBLIC	??_C@_0CN@FHDJLIAC@Temporary?3?5?$CF5lu?5blocks?0?5?$CF10lu?5KB@ ; `string'
PUBLIC	??_C@_0CO@ILMCLGBJ@Permanent?3?5?$CF5lu?5blocks?0?5?$CF10lu?5KB@ ; `string'
PUBLIC	??_C@_0CM@DAHJKDPH@Session?3?5?$CF7lu?5blocks?0?5?$CF10lu?5KB?0?5@ ; `string'
PUBLIC	_mem_list_summary
EXTRN	_outstring:PROC
EXTRN	_verbose_flag:DWORD
;	COMDAT ??_C@_0CH@NCBAEBPN@Total?5data?5memory?3?5?$CFlu?5KB?0?5or?5?$CFl@
CONST	SEGMENT
??_C@_0CH@NCBAEBPN@Total?5data?5memory?3?5?$CFlu?5KB?0?5or?5?$CFl@ DB 'To'
	DB	'tal data memory: %lu KB, or %lu MB.', 0aH, 00H ; `string'
CONST	ENDS
;	COMDAT ??_C@_0DD@FLDOJPAM@Total?5data?5memory?3?5?$CFlu?5blocks?0?5?$CF@
CONST	SEGMENT
??_C@_0DD@FLDOJPAM@Total?5data?5memory?3?5?$CFlu?5blocks?0?5?$CF@ DB 'Tot'
	DB	'al data memory: %lu blocks, %lu KB, or %lu MB.', 0aH, 00H ; `string'
CONST	ENDS
;	COMDAT ??_C@_0CN@FHDJLIAC@Temporary?3?5?$CF5lu?5blocks?0?5?$CF10lu?5KB@
CONST	SEGMENT
??_C@_0CN@FHDJLIAC@Temporary?3?5?$CF5lu?5blocks?0?5?$CF10lu?5KB@ DB 'Temp'
	DB	'orary: %5lu blocks, %10lu KB, or %lu MB', 0aH, 00H ; `string'
CONST	ENDS
;	COMDAT ??_C@_0CO@ILMCLGBJ@Permanent?3?5?$CF5lu?5blocks?0?5?$CF10lu?5KB@
CONST	SEGMENT
??_C@_0CO@ILMCLGBJ@Permanent?3?5?$CF5lu?5blocks?0?5?$CF10lu?5KB@ DB 'Perm'
	DB	'anent: %5lu blocks, %10lu KB, or %lu MB ', 0aH, 00H ; `string'
CONST	ENDS
;	COMDAT ??_C@_0CM@DAHJKDPH@Session?3?5?$CF7lu?5blocks?0?5?$CF10lu?5KB?0?5@
CONST	SEGMENT
??_C@_0CM@DAHJKDPH@Session?3?5?$CF7lu?5blocks?0?5?$CF10lu?5KB?0?5@ DB 'Se'
	DB	'ssion: %7lu blocks, %10lu KB, or %lu MB ', 0aH, 00H ; `string'
; Function compile flags: /Ogtp
CONST	ENDS
;	COMDAT _mem_list_summary
_TEXT	SEGMENT
_count$ = -8						; size = 4
_total$ = -4						; size = 4
_mem_list_summary PROC					; COMDAT

; 208  : { struct memhead *head;

	push	ebp
	mov	ebp, esp
	sub	esp, 8
	push	ebx
	push	esi

; 209  :   size_t total=0,subtotal;
; 210  :   size_t count=0,subcount;
; 211  : 
; 212  :   for ( head = eternal_block_head, subcount=subtotal=0 ; head ; head = head->next )

	mov	esi, DWORD PTR _eternal_block_head
	push	edi
	xor	edi, edi
	xor	ebx, ebx
	test	esi, esi
	je	SHORT $LN23@mem_list_s
$LL25@mem_list_s:

; 213  :   { if ( head->type != ETERNAL_BLOCK )

	cmp	DWORD PTR [esi+12], 60138		; 0000eaeaH
	je	SHORT $LN22@mem_list_s

; 214  :       kb_error(2462,"Bad eternal memory block chain!\n",RECOVERABLE);

	push	1
	push	OFFSET ??_C@_0CB@CINIEFGP@Bad?5eternal?5memory?5block?5chain?$CB?6@
	push	2462					; 0000099eH
	call	_kb_error
	add	esp, 12					; 0000000cH
	jmp	SHORT $LN24@mem_list_s
$LN22@mem_list_s:

; 215  :     else { subtotal += head->size; subcount++; }

	add	edi, DWORD PTR [esi+8]
	inc	ebx
$LN24@mem_list_s:

; 209  :   size_t total=0,subtotal;
; 210  :   size_t count=0,subcount;
; 211  : 
; 212  :   for ( head = eternal_block_head, subcount=subtotal=0 ; head ; head = head->next )

	mov	esi, DWORD PTR [esi+4]
	test	esi, esi
	jne	SHORT $LL25@mem_list_s
$LN23@mem_list_s:

; 216  :   }
; 217  :   if ( verbose_flag )

	cmp	DWORD PTR _verbose_flag, 0
	je	SHORT $LN20@mem_list_s

; 218  :   { sprintf(errmsg,"Session: %7lu blocks, %10lu KB, or %lu MB \n",
; 219  :       (unsigned long)subcount,(unsigned long)subtotal>>10,
; 220  :       (unsigned long)subtotal>>20);

	mov	eax, edi
	shr	eax, 20					; 00000014H
	push	eax
	mov	ecx, edi
	shr	ecx, 10					; 0000000aH
	push	ecx
	push	ebx
	push	OFFSET ??_C@_0CM@DAHJKDPH@Session?3?5?$CF7lu?5blocks?0?5?$CF10lu?5KB?0?5@
	push	OFFSET _errmsg
	call	_sprintf

; 221  :     outstring(errmsg);

	push	OFFSET _errmsg
	call	_outstring
	add	esp, 24					; 00000018H
$LN20@mem_list_s:

; 222  :   }
; 223  :   total += subtotal; count += subcount;
; 224  : 
; 225  :   for ( head = perm_block_head, subcount=subtotal=0 ; head ; head = head->next )

	mov	esi, DWORD PTR _perm_block_head
	mov	eax, edi
	mov	DWORD PTR _count$[ebp], ebx
	xor	edi, edi
	xor	ebx, ebx
	mov	DWORD PTR _total$[ebp], eax
	test	esi, esi
	je	SHORT $LN17@mem_list_s
	npad	7
$LL19@mem_list_s:

; 226  :   { if ( head->type != PERM_BLOCK )

	cmp	DWORD PTR [esi+12], 43947		; 0000ababH
	je	SHORT $LN16@mem_list_s

; 227  :       kb_error(2463,"Bad permanent memory block chain!\n",RECOVERABLE);

	push	1
	push	OFFSET ??_C@_0CD@HEHGFICE@Bad?5permanent?5memory?5block?5chain@
	push	2463					; 0000099fH
	call	_kb_error
	mov	eax, DWORD PTR _total$[ebp]
	add	esp, 12					; 0000000cH
	jmp	SHORT $LN18@mem_list_s
$LN16@mem_list_s:

; 228  :     else { subtotal += head->size; subcount++; }

	add	edi, DWORD PTR [esi+8]
	inc	ebx
$LN18@mem_list_s:

; 222  :   }
; 223  :   total += subtotal; count += subcount;
; 224  : 
; 225  :   for ( head = perm_block_head, subcount=subtotal=0 ; head ; head = head->next )

	mov	esi, DWORD PTR [esi+4]
	test	esi, esi
	jne	SHORT $LL19@mem_list_s
$LN17@mem_list_s:

; 229  :   }
; 230  :   if ( verbose_flag )

	cmp	DWORD PTR _verbose_flag, 0
	je	SHORT $LN14@mem_list_s

; 231  :   { sprintf(errmsg,"Permanent: %5lu blocks, %10lu KB, or %lu MB \n",
; 232  :        (unsigned long)subcount,(unsigned long)(subtotal>>10),
; 233  :        (unsigned long)(subtotal>>20));

	mov	edx, edi
	shr	edx, 20					; 00000014H
	push	edx
	mov	eax, edi
	shr	eax, 10					; 0000000aH
	push	eax
	push	ebx
	push	OFFSET ??_C@_0CO@ILMCLGBJ@Permanent?3?5?$CF5lu?5blocks?0?5?$CF10lu?5KB@
	push	OFFSET _errmsg
	call	_sprintf

; 234  :     outstring(errmsg);

	push	OFFSET _errmsg
	call	_outstring
	mov	eax, DWORD PTR _total$[ebp]
	add	esp, 24					; 00000018H
$LN14@mem_list_s:

; 235  :   }
; 236  :   total += subtotal; count += subcount;

	add	DWORD PTR _count$[ebp], ebx

; 237  : 
; 238  :   for ( head = temp_block_head, subcount=subtotal=0 ; head ; head = head->next )

	mov	esi, DWORD PTR _temp_block_head
	add	eax, edi
	xor	edi, edi
	xor	ebx, ebx
	mov	DWORD PTR _total$[ebp], eax
	test	esi, esi
	je	SHORT $LN11@mem_list_s
	npad	8
$LL13@mem_list_s:

; 239  :   { if ( head->type != TEMP_BLOCK )

	cmp	DWORD PTR [esi+12], 56540		; 0000dcdcH
	je	SHORT $LN10@mem_list_s

; 240  :       kb_error(2464,"Bad temporary memory block chain!\n",RECOVERABLE);

	push	1
	push	OFFSET ??_C@_0CD@ILHGHODK@Bad?5temporary?5memory?5block?5chain@
	push	2464					; 000009a0H
	call	_kb_error
	mov	eax, DWORD PTR _total$[ebp]
	add	esp, 12					; 0000000cH
	jmp	SHORT $LN12@mem_list_s
$LN10@mem_list_s:

; 241  :     else { subtotal += head->size; subcount++; }

	add	edi, DWORD PTR [esi+8]
	inc	ebx
$LN12@mem_list_s:

; 237  : 
; 238  :   for ( head = temp_block_head, subcount=subtotal=0 ; head ; head = head->next )

	mov	esi, DWORD PTR [esi+4]
	test	esi, esi
	jne	SHORT $LL13@mem_list_s
$LN11@mem_list_s:

; 242  :   }
; 243  : 
; 244  :   for ( head = graph_block_head ; head ; head = head->next )

	mov	esi, DWORD PTR _graph_block_head
	test	esi, esi
	je	SHORT $LN6@mem_list_s
$LL8@mem_list_s:

; 245  :   { if ( head->type != GRAPH_BLOCK )

	cmp	DWORD PTR [esi+12], 52171		; 0000cbcbH
	je	SHORT $LN5@mem_list_s

; 246  :       kb_error(3210,"Bad graphics memory block chain!\n",RECOVERABLE);

	push	1
	push	OFFSET ??_C@_0CC@FFMPGLPH@Bad?5graphics?5memory?5block?5chain?$CB@
	push	3210					; 00000c8aH
	call	_kb_error
	mov	eax, DWORD PTR _total$[ebp]
	add	esp, 12					; 0000000cH
	jmp	SHORT $LN7@mem_list_s
$LN5@mem_list_s:

; 247  :     else { subtotal += head->size; subcount++; }

	add	edi, DWORD PTR [esi+8]
	inc	ebx
$LN7@mem_list_s:

; 242  :   }
; 243  : 
; 244  :   for ( head = graph_block_head ; head ; head = head->next )

	mov	esi, DWORD PTR [esi+4]
	test	esi, esi
	jne	SHORT $LL8@mem_list_s
$LN6@mem_list_s:

; 248  :   }
; 249  : 
; 250  :   if ( verbose_flag )

	cmp	DWORD PTR _verbose_flag, 0
	je	SHORT $LN36@mem_list_s

; 251  :   { sprintf(errmsg,"Temporary: %5lu blocks, %10lu KB, or %lu MB\n",
; 252  :        (unsigned long)subcount,(unsigned long)(subtotal>>10),
; 253  :        (unsigned long)(subtotal>>20));

	mov	ecx, edi
	shr	ecx, 20					; 00000014H
	push	ecx
	mov	edx, edi
	shr	edx, 10					; 0000000aH
	push	edx
	push	ebx
	push	OFFSET ??_C@_0CN@FHDJLIAC@Temporary?3?5?$CF5lu?5blocks?0?5?$CF10lu?5KB@
	push	OFFSET _errmsg
	call	_sprintf

; 254  :     outstring(errmsg);

	push	OFFSET _errmsg
	call	_outstring
	mov	eax, DWORD PTR _total$[ebp]
	add	esp, 24					; 00000018H
$LN36@mem_list_s:

; 255  :   }
; 256  :   total += subtotal; count += subcount;

	add	eax, edi

; 257  : 
; 258  :   if ( verbose_flag )
; 259  :     sprintf(errmsg,"Total data memory: %lu blocks, %lu KB, or %lu MB.\n",
; 260  :       (unsigned long)count,(unsigned long)(total>>10),(unsigned long)(total>>20));

	mov	ecx, eax
	shr	ecx, 20					; 00000014H
	shr	eax, 10					; 0000000aH
	cmp	DWORD PTR _verbose_flag, 0
	push	ecx
	push	eax
	je	SHORT $LN2@mem_list_s
	add	ebx, DWORD PTR _count$[ebp]
	push	ebx
	push	OFFSET ??_C@_0DD@FLDOJPAM@Total?5data?5memory?3?5?$CFlu?5blocks?0?5?$CF@
	push	OFFSET _errmsg
	call	_sprintf
	add	esp, 20					; 00000014H

; 264  :   outstring(errmsg);

	push	OFFSET _errmsg
	call	_outstring
	add	esp, 4
	pop	edi
	pop	esi
	pop	ebx

; 265  : 
; 266  :   // See if we can get video memory
; 267  : #ifdef LINUX
; 268  :   if ( verbose_flag )
; 269  :   { FILE *fd;
; 270  :     int i,vmem=0,mempages=0;
; 271  :     char procname[100];
; 272  :     sprintf(procname,"/proc/%d/stat",getpid()); 
; 273  :     fd = fopen(procname,"r");
; 274  : if ( fd == NULL ) perror(procname);
; 275  :     for ( i = 0 ; i < 22 ; i++ ) fscanf(fd,"%s",msg);
; 276  :     fscanf(fd,"%d",&vmem);
; 277  :     sprintf(errmsg,"Virtual memory: %d\n",vmem);
; 278  :     outstring(errmsg);
; 279  :     fscanf(fd,"%d",&mempages);
; 280  :     sprintf(errmsg,"Resident memory: %d\n",mempages*getpagesize());
; 281  :     outstring(errmsg);
; 282  :   }
; 283  : #endif
; 284  : } // end mem_list_summary()

	mov	esp, ebp
	pop	ebp
	ret	0
$LN2@mem_list_s:

; 261  :   else
; 262  :     sprintf(errmsg,"Total data memory: %lu KB, or %lu MB.\n",
; 263  :         (unsigned long)(total>>10), (unsigned long)(total>>20));

	push	OFFSET ??_C@_0CH@NCBAEBPN@Total?5data?5memory?3?5?$CFlu?5KB?0?5or?5?$CFl@
	push	OFFSET _errmsg
	call	_sprintf
	add	esp, 16					; 00000010H

; 264  :   outstring(errmsg);

	push	OFFSET _errmsg
	call	_outstring
	add	esp, 4
	pop	edi
	pop	esi
	pop	ebx

; 265  : 
; 266  :   // See if we can get video memory
; 267  : #ifdef LINUX
; 268  :   if ( verbose_flag )
; 269  :   { FILE *fd;
; 270  :     int i,vmem=0,mempages=0;
; 271  :     char procname[100];
; 272  :     sprintf(procname,"/proc/%d/stat",getpid()); 
; 273  :     fd = fopen(procname,"r");
; 274  : if ( fd == NULL ) perror(procname);
; 275  :     for ( i = 0 ; i < 22 ; i++ ) fscanf(fd,"%s",msg);
; 276  :     fscanf(fd,"%d",&vmem);
; 277  :     sprintf(errmsg,"Virtual memory: %d\n",vmem);
; 278  :     outstring(errmsg);
; 279  :     fscanf(fd,"%d",&mempages);
; 280  :     sprintf(errmsg,"Resident memory: %d\n",mempages*getpagesize());
; 281  :     outstring(errmsg);
; 282  :   }
; 283  : #endif
; 284  : } // end mem_list_summary()

	mov	esp, ebp
	pop	ebp
	ret	0
_mem_list_summary ENDP
_TEXT	ENDS
PUBLIC	??_C@_0BH@PMBLDLCO@?6Graph?5memory?5blocks?3?6?$AA@ ; `string'
PUBLIC	??_C@_0BL@BHLNJAGN@?6Temporary?5memory?5blocks?3?6?$AA@ ; `string'
PUBLIC	??_C@_0BL@MCCDJABE@?6Permanent?5memory?5blocks?3?6?$AA@ ; `string'
PUBLIC	??_C@_0CI@NKPJALID@?$CF5d?4?5?$CF12?40f?5bytes?5at?5?$CFp?$DL?5?$CF18s?5li@ ; `string'
PUBLIC	__real@41f0000000000000
PUBLIC	??_C@_0BJ@OLJAEAEM@?6Eternal?5memory?5blocks?3?6?$AA@ ; `string'
PUBLIC	_mem_list_dump
EXTRN	_msg:DWORD
;	COMDAT ??_C@_0BH@PMBLDLCO@?6Graph?5memory?5blocks?3?6?$AA@
CONST	SEGMENT
??_C@_0BH@PMBLDLCO@?6Graph?5memory?5blocks?3?6?$AA@ DB 0aH, 'Graph memory'
	DB	' blocks:', 0aH, 00H				; `string'
CONST	ENDS
;	COMDAT ??_C@_0BL@BHLNJAGN@?6Temporary?5memory?5blocks?3?6?$AA@
CONST	SEGMENT
??_C@_0BL@BHLNJAGN@?6Temporary?5memory?5blocks?3?6?$AA@ DB 0aH, 'Temporar'
	DB	'y memory blocks:', 0aH, 00H			; `string'
CONST	ENDS
;	COMDAT ??_C@_0BL@MCCDJABE@?6Permanent?5memory?5blocks?3?6?$AA@
CONST	SEGMENT
??_C@_0BL@MCCDJABE@?6Permanent?5memory?5blocks?3?6?$AA@ DB 0aH, 'Permanen'
	DB	't memory blocks:', 0aH, 00H			; `string'
CONST	ENDS
;	COMDAT ??_C@_0CI@NKPJALID@?$CF5d?4?5?$CF12?40f?5bytes?5at?5?$CFp?$DL?5?$CF18s?5li@
CONST	SEGMENT
??_C@_0CI@NKPJALID@?$CF5d?4?5?$CF12?40f?5bytes?5at?5?$CFp?$DL?5?$CF18s?5li@ DB '%'
	DB	'5d. %12.0f bytes at %p; %18s line %4d', 0aH, 00H ; `string'
CONST	ENDS
;	COMDAT __real@41f0000000000000
CONST	SEGMENT
__real@41f0000000000000 DQ 041f0000000000000r	; 4.29497e+009
CONST	ENDS
;	COMDAT ??_C@_0BJ@OLJAEAEM@?6Eternal?5memory?5blocks?3?6?$AA@
CONST	SEGMENT
??_C@_0BJ@OLJAEAEM@?6Eternal?5memory?5blocks?3?6?$AA@ DB 0aH, 'Eternal me'
	DB	'mory blocks:', 0aH, 00H			; `string'
; Function compile flags: /Ogtp
CONST	ENDS
;	COMDAT _mem_list_dump
_TEXT	SEGMENT
tv208 = -4						; size = 4
tv203 = -4						; size = 4
tv198 = -4						; size = 4
tv193 = -4						; size = 4
_mem_list_dump PROC					; COMDAT

; 295  : { struct memhead *head;

	push	ebp
	mov	ebp, esp
	push	ecx
	push	esi
	push	edi

; 296  :   size_t subcount;
; 297  : 
; 298  : #ifdef MEMSTRINGS
; 299  :   outstring("\nEternal memory blocks:\n");

	push	OFFSET ??_C@_0BJ@OLJAEAEM@?6Eternal?5memory?5blocks?3?6?$AA@
	call	_outstring

; 300  :   for ( head = eternal_block_head, subcount=0 ; head ; head = head->next )

	mov	esi, DWORD PTR _eternal_block_head
	add	esp, 4
	xor	edi, edi
	test	esi, esi
	je	SHORT $LN10@mem_list_d
	npad	1
$LL12@mem_list_d:

; 301  :   { subcount++;
; 302  :     sprintf(msg,"%5d. %12.0f bytes at %p; %18s line %4d\n", 
; 303  :       subcount,(double)head->size,head,head->file,head->line);

	mov	eax, DWORD PTR [esi+44]
	fild	DWORD PTR [esi+8]
	mov	edx, DWORD PTR [esi+8]
	push	eax
	lea	ecx, DWORD PTR [esi+16]
	inc	edi
	push	ecx
	push	esi
	test	edx, edx
	jns	SHORT $LN23@mem_list_d
	fadd	QWORD PTR __real@41f0000000000000
$LN23@mem_list_d:
	mov	eax, DWORD PTR _msg
	sub	esp, 8
	fstp	QWORD PTR [esp]
	push	edi
	push	OFFSET ??_C@_0CI@NKPJALID@?$CF5d?4?5?$CF12?40f?5bytes?5at?5?$CFp?$DL?5?$CF18s?5li@
	push	eax
	call	_sprintf

; 304  :     outstring(msg);

	mov	ecx, DWORD PTR _msg
	push	ecx
	call	_outstring
	mov	esi, DWORD PTR [esi+4]
	add	esp, 36					; 00000024H
	test	esi, esi
	jne	SHORT $LL12@mem_list_d
$LN10@mem_list_d:

; 305  :   }
; 306  : 
; 307  :   outstring("\nPermanent memory blocks:\n");

	push	OFFSET ??_C@_0BL@MCCDJABE@?6Permanent?5memory?5blocks?3?6?$AA@
	call	_outstring

; 308  :   for ( head = perm_block_head, subcount=0 ; head ; head = head->next )

	mov	esi, DWORD PTR _perm_block_head
	add	esp, 4
	xor	edi, edi
	test	esi, esi
	je	SHORT $LN7@mem_list_d
$LL9@mem_list_d:

; 309  :   { subcount++;
; 310  :     sprintf(msg,"%5d. %12.0f bytes at %p; %18s line %4d\n", 
; 311  :       subcount,(double)head->size,head,head->file,head->line);

	mov	edx, DWORD PTR [esi+44]
	fild	DWORD PTR [esi+8]
	mov	ecx, DWORD PTR [esi+8]
	push	edx
	lea	eax, DWORD PTR [esi+16]
	inc	edi
	push	eax
	push	esi
	test	ecx, ecx
	jns	SHORT $LN24@mem_list_d
	fadd	QWORD PTR __real@41f0000000000000
$LN24@mem_list_d:
	mov	edx, DWORD PTR _msg
	sub	esp, 8
	fstp	QWORD PTR [esp]
	push	edi
	push	OFFSET ??_C@_0CI@NKPJALID@?$CF5d?4?5?$CF12?40f?5bytes?5at?5?$CFp?$DL?5?$CF18s?5li@
	push	edx
	call	_sprintf

; 312  :     outstring(msg);

	mov	eax, DWORD PTR _msg
	push	eax
	call	_outstring
	mov	esi, DWORD PTR [esi+4]
	add	esp, 36					; 00000024H
	test	esi, esi
	jne	SHORT $LL9@mem_list_d
$LN7@mem_list_d:

; 313  :   }
; 314  : 
; 315  :   outstring("\nTemporary memory blocks:\n");

	push	OFFSET ??_C@_0BL@BHLNJAGN@?6Temporary?5memory?5blocks?3?6?$AA@
	call	_outstring

; 316  :   for ( head = temp_block_head, subcount=0 ; head ; head = head->next )

	mov	esi, DWORD PTR _temp_block_head
	add	esp, 4
	xor	edi, edi
	test	esi, esi
	je	SHORT $LN4@mem_list_d
$LL6@mem_list_d:

; 317  :   { subcount++;
; 318  :     sprintf(msg,"%5d. %12.0f bytes at %p; %18s line %4d\n", 
; 319  :       subcount,(double)head->size,head,head->file,head->line);

	mov	ecx, DWORD PTR [esi+44]
	fild	DWORD PTR [esi+8]
	mov	eax, DWORD PTR [esi+8]
	push	ecx
	lea	edx, DWORD PTR [esi+16]
	inc	edi
	push	edx
	push	esi
	test	eax, eax
	jns	SHORT $LN25@mem_list_d
	fadd	QWORD PTR __real@41f0000000000000
$LN25@mem_list_d:
	mov	ecx, DWORD PTR _msg
	sub	esp, 8
	fstp	QWORD PTR [esp]
	push	edi
	push	OFFSET ??_C@_0CI@NKPJALID@?$CF5d?4?5?$CF12?40f?5bytes?5at?5?$CFp?$DL?5?$CF18s?5li@
	push	ecx
	call	_sprintf

; 320  :     outstring(msg);

	mov	edx, DWORD PTR _msg
	push	edx
	call	_outstring
	mov	esi, DWORD PTR [esi+4]
	add	esp, 36					; 00000024H
	test	esi, esi
	jne	SHORT $LL6@mem_list_d
$LN4@mem_list_d:

; 321  :   }
; 322  : 
; 323  :   outstring("\nGraph memory blocks:\n");

	push	OFFSET ??_C@_0BH@PMBLDLCO@?6Graph?5memory?5blocks?3?6?$AA@
	call	_outstring

; 324  :   for ( head = graph_block_head, subcount=0 ; head ; head = head->next )

	mov	esi, DWORD PTR _graph_block_head
	add	esp, 4
	xor	edi, edi
	test	esi, esi
	je	SHORT $LN1@mem_list_d
$LL3@mem_list_d:

; 325  :   { subcount++;
; 326  :     sprintf(msg,"%5d. %12.0f bytes at %p; %18s line %4d\n", 
; 327  :       subcount,(double)head->size,head,head->file,head->line);

	mov	eax, DWORD PTR [esi+44]
	fild	DWORD PTR [esi+8]
	mov	edx, DWORD PTR [esi+8]
	push	eax
	lea	ecx, DWORD PTR [esi+16]
	inc	edi
	push	ecx
	push	esi
	test	edx, edx
	jns	SHORT $LN26@mem_list_d
	fadd	QWORD PTR __real@41f0000000000000
$LN26@mem_list_d:
	mov	eax, DWORD PTR _msg
	sub	esp, 8
	fstp	QWORD PTR [esp]
	push	edi
	push	OFFSET ??_C@_0CI@NKPJALID@?$CF5d?4?5?$CF12?40f?5bytes?5at?5?$CFp?$DL?5?$CF18s?5li@
	push	eax
	call	_sprintf

; 328  :     outstring(msg);

	mov	ecx, DWORD PTR _msg
	push	ecx
	call	_outstring
	mov	esi, DWORD PTR [esi+4]
	add	esp, 36					; 00000024H
	test	esi, esi
	jne	SHORT $LL3@mem_list_d
$LN1@mem_list_d:
	pop	edi
	pop	esi

; 329  :   }
; 330  : #else
; 331  :   outstring("\nEternal memory blocks:\n");
; 332  :   for ( head = eternal_block_head, subcount=0 ; head ; head = head->next )
; 333  :   { subcount++;
; 334  :     sprintf(msg,"%5ld. %12.0f bytes at %p\n", 
; 335  :       (long)subcount,(double)head->size,head);
; 336  :     outstring(msg);
; 337  :   }
; 338  : 
; 339  :   outstring("\nPermanent memory blocks:\n");
; 340  :   for ( head = perm_block_head, subcount=0 ; head ; head = head->next )
; 341  :   { subcount++;
; 342  :     sprintf(msg,"%5ld. %12.0f bytes at %p\n", 
; 343  :       (long)subcount,(double)head->size,head);
; 344  :     outstring(msg);
; 345  :   }
; 346  : 
; 347  :   outstring("\nTemporary memory blocks:\n");
; 348  :   for ( head = temp_block_head, subcount=0 ; head ; head = head->next )
; 349  :   { subcount++;
; 350  :     sprintf(msg,"%5ld. %12.0f bytes at %p\n", 
; 351  :       (long)subcount,(double)head->size,head);
; 352  :     outstring(msg);
; 353  :   }
; 354  : 
; 355  :   outstring("\nGraph memory blocks:\n");
; 356  :   for ( head = graph_block_head, subcount=0 ; head ; head = head->next )
; 357  :   { subcount++;
; 358  :     sprintf(msg,"%5ld. %12.0f bytes at %p\n", 
; 359  :       (long)subcount,(double)head->size,head);
; 360  :     outstring(msg);
; 361  :   }
; 362  : #endif
; 363  : } // end mem_list_dump()

	mov	esp, ebp
	pop	ebp
	ret	0
_mem_list_dump ENDP
_TEXT	ENDS
PUBLIC	??_C@_0BL@PLPPKDKC@Requested?5from?5?$CFs?5line?5?$CFd?6?$AA@ ; `string'
PUBLIC	??_C@_0DM@LHKGINJM@Internal?5error?3?5Cannot?5allocate?5@ ; `string'
PUBLIC	??_C@_0CM@IBJBBOIG@Internal?5error?3?5illegal?5memory?5b@ ; `string'
PUBLIC	_list_calloc
EXTRN	_memdebug:DWORD
EXTRN	_strncpy:PROC
EXTRN	_mem_mutex:DWORD
EXTRN	_calloc:PROC
;	COMDAT ??_C@_0BL@PLPPKDKC@Requested?5from?5?$CFs?5line?5?$CFd?6?$AA@
CONST	SEGMENT
??_C@_0BL@PLPPKDKC@Requested?5from?5?$CFs?5line?5?$CFd?6?$AA@ DB 'Request'
	DB	'ed from %s line %d', 0aH, 00H		; `string'
CONST	ENDS
;	COMDAT ??_C@_0DM@LHKGINJM@Internal?5error?3?5Cannot?5allocate?5@
CONST	SEGMENT
??_C@_0DM@LHKGINJM@Internal?5error?3?5Cannot?5allocate?5@ DB 'Internal er'
	DB	'ror: Cannot allocate memory size %lu*%lu = %lu.', 0aH, 00H ; `string'
CONST	ENDS
;	COMDAT ??_C@_0CM@IBJBBOIG@Internal?5error?3?5illegal?5memory?5b@
CONST	SEGMENT
??_C@_0CM@IBJBBOIG@Internal?5error?3?5illegal?5memory?5b@ DB 'Internal er'
	DB	'ror: illegal memory block type.', 0aH, 00H	; `string'
; Function compile flags: /Ogtp
CONST	ENDS
;	COMDAT _list_calloc
_TEXT	SEGMENT
_listhead$ = -4						; size = 4
_num$ = 8						; size = 4
_size$ = 12						; size = 4
_type$ = 16						; size = 4
_file$ = 20						; size = 4
_line$ = 24						; size = 4
_list_calloc PROC					; COMDAT

; 391  : { struct memhead **listhead=NULL;

	push	ebp
	mov	ebp, esp
	push	ecx

; 392  :   struct memhead *ptr;
; 393  : 
; 394  :   switch(type)

	mov	eax, DWORD PTR _type$[ebp]
	mov	DWORD PTR _listhead$[ebp], 0
	cmp	eax, 56540				; 0000dcdcH
	jg	SHORT $LN13@list_callo
	je	SHORT $LN7@list_callo
	cmp	eax, 43947				; 0000ababH
	je	SHORT $LN8@list_callo
	cmp	eax, 52171				; 0000cbcbH
	jne	SHORT $LN4@list_callo

; 397  :     case GRAPH_BLOCK: listhead = &graph_block_head; break;

	mov	DWORD PTR _listhead$[ebp], OFFSET _graph_block_head
	jmp	SHORT $LN9@list_callo
$LN8@list_callo:

; 395  :   { case PERM_BLOCK: listhead = &perm_block_head; break;

	mov	DWORD PTR _listhead$[ebp], OFFSET _perm_block_head
	jmp	SHORT $LN9@list_callo
$LN7@list_callo:

; 396  :     case TEMP_BLOCK: listhead = &temp_block_head; break;

	mov	DWORD PTR _listhead$[ebp], OFFSET _temp_block_head
	jmp	SHORT $LN9@list_callo
$LN13@list_callo:

; 392  :   struct memhead *ptr;
; 393  : 
; 394  :   switch(type)

	cmp	eax, 60138				; 0000eaeaH
	je	SHORT $LN5@list_callo
$LN4@list_callo:

; 399  :     default: kb_error(2452,"Internal error: illegal memory block type.\n",
; 400  :        RECOVERABLE);

	push	1
	push	OFFSET ??_C@_0CM@IBJBBOIG@Internal?5error?3?5illegal?5memory?5b@
	push	2452					; 00000994H
	call	_kb_error
	add	esp, 12					; 0000000cH
	jmp	SHORT $LN9@list_callo
$LN5@list_callo:

; 398  :     case ETERNAL_BLOCK: listhead = &eternal_block_head; break;

	mov	DWORD PTR _listhead$[ebp], OFFSET _eternal_block_head
$LN9@list_callo:
	push	ebx

; 401  :   }
; 402  :   
; 403  :   ptr = (struct memhead *)calloc(sizeof(struct memhead)+num*size,1);

	mov	ebx, DWORD PTR _num$[ebp]
	push	esi
	push	edi
	mov	edi, ebx
	imul	edi, DWORD PTR _size$[ebp]
	lea	eax, DWORD PTR [edi+48]
	push	1
	push	eax
	call	_calloc
	mov	esi, eax
	add	esp, 8

; 404  :   if ( ptr == NULL )

	test	esi, esi
	jne	SHORT $LN16@list_callo

; 405  :   { 
; 406  :     mem_sanity_check(); 

	call	_mem_sanity_check

; 407  :     sprintf(errmsg,"Internal error: Cannot allocate memory size %lu*%lu = %lu.\n",
; 408  :       (unsigned long)num,(unsigned long)size,
; 409  :           (unsigned long)num*(unsigned long)size);

	mov	ecx, DWORD PTR _size$[ebp]
	push	edi
	push	ecx
	push	ebx
	push	OFFSET ??_C@_0DM@LHKGINJM@Internal?5error?3?5Cannot?5allocate?5@
	push	OFFSET _errmsg
	call	_sprintf

; 410  : #ifdef MEMSTRINGS
; 411  :     sprintf(msg+strlen(msg),"Requested from %s line %d\n",file,line);

	mov	edx, DWORD PTR _msg
	mov	eax, edx
	add	esp, 20					; 00000014H
	lea	ebx, DWORD PTR [eax+1]
	npad	4
$LL14@list_callo:
	mov	cl, BYTE PTR [eax]
	inc	eax
	test	cl, cl
	jne	SHORT $LL14@list_callo
	mov	ecx, DWORD PTR _line$[ebp]
	push	ecx
	mov	ecx, DWORD PTR _file$[ebp]
	push	ecx
	sub	eax, ebx
	add	eax, edx
	push	OFFSET ??_C@_0BL@PLPPKDKC@Requested?5from?5?$CFs?5line?5?$CFd?6?$AA@
	push	eax
	call	_sprintf

; 412  : #endif
; 413  :     kb_error(2550,errmsg, RECOVERABLE);

	push	1
	push	OFFSET _errmsg
	push	2550					; 000009f6H
	call	_kb_error
	add	esp, 28					; 0000001cH
$LN16@list_callo:

; 414  :   }
; 415  : 
; 416  :   /* fill in header */
; 417  :   ENTER_MEM_MUTEX

	push	0
	push	100000					; 000186a0H
	push	0
	push	OFFSET _mem_mutex
	push	1
	call	DWORD PTR __imp__MsgWaitForMultipleObjects@20

; 418  :   ptr->next = *listhead;

	mov	eax, DWORD PTR _listhead$[ebp]
	mov	edx, DWORD PTR [eax]
	mov	DWORD PTR [esi+4], edx

; 419  :   if ( *listhead )

	mov	ecx, DWORD PTR [eax]
	test	ecx, ecx
	je	SHORT $LN2@list_callo

; 420  :     (*listhead)->prev = ptr;

	mov	DWORD PTR [ecx], esi
$LN2@list_callo:

; 421  :   *listhead = ptr;

	mov	DWORD PTR [eax], esi

; 422  :   LEAVE_MEM_MUTEX

	mov	eax, DWORD PTR _mem_mutex
	push	eax
	call	DWORD PTR __imp__ReleaseMutex@4

; 423  :   ptr->size = num*size;
; 424  :   ptr->type = type;
; 425  : #ifdef MEMSTRINGS
; 426  :   strncpy(ptr->file,file,sizeof(ptr->file)-1);

	mov	edx, DWORD PTR _file$[ebp]
	mov	ecx, DWORD PTR _type$[ebp]
	push	27					; 0000001bH
	push	edx
	lea	eax, DWORD PTR [esi+16]
	push	eax
	mov	DWORD PTR [esi+8], edi
	mov	DWORD PTR [esi+12], ecx
	call	_strncpy

; 427  :   ptr->line = (int)line;

	mov	ecx, DWORD PTR _line$[ebp]
	add	esp, 12					; 0000000cH
	mov	DWORD PTR [esi+44], ecx

; 428  : #endif
; 429  :   
; 430  :   if ( memdebug ) 

	cmp	DWORD PTR _memdebug, 0
	je	SHORT $LN15@list_callo

; 431  :     mem_sanity_check();

	call	_mem_sanity_check
$LN15@list_callo:
	pop	edi

; 432  : 
; 433  :   return (char*)(ptr+1);

	lea	eax, DWORD PTR [esi+48]
	pop	esi
	pop	ebx

; 434  : } // end list_calloc()

	mov	esp, ebp
	pop	ebp
	ret	0
_list_calloc ENDP
_TEXT	ENDS
PUBLIC	??_C@_0EI@CMBOIPEL@Internal?5error?3?5Cannot?5reallocat@ ; `string'
PUBLIC	??_C@_0CI@JPMALGNI@File?5?$CFs?0?5line?5?$CFd?$DL?5original?5alloc@ ; `string'
PUBLIC	??_C@_0ED@HKIJMNAF@Internal?5error?3?5Trying?5to?5reallo@ ; `string'
PUBLIC	_list_realloc
EXTRN	_realloc:PROC
EXTRN	_memset:PROC
;	COMDAT ??_C@_0EI@CMBOIPEL@Internal?5error?3?5Cannot?5reallocat@
CONST	SEGMENT
??_C@_0EI@CMBOIPEL@Internal?5error?3?5Cannot?5reallocat@ DB 'Internal err'
	DB	'or: Cannot reallocate memory from old size %lu to new %lu.', 0aH
	DB	00H						; `string'
CONST	ENDS
;	COMDAT ??_C@_0CI@JPMALGNI@File?5?$CFs?0?5line?5?$CFd?$DL?5original?5alloc@
CONST	SEGMENT
??_C@_0CI@JPMALGNI@File?5?$CFs?0?5line?5?$CFd?$DL?5original?5alloc@ DB 'F'
	DB	'ile %s, line %d; original alloc %s:%d', 0aH, 00H ; `string'
CONST	ENDS
;	COMDAT ??_C@_0ED@HKIJMNAF@Internal?5error?3?5Trying?5to?5reallo@
CONST	SEGMENT
??_C@_0ED@HKIJMNAF@Internal?5error?3?5Trying?5to?5reallo@ DB 'Internal er'
	DB	'ror: Trying to realloc memory block to different list.', 0aH, 00H ; `string'
; Function compile flags: /Ogtp
CONST	ENDS
;	COMDAT _list_realloc
_TEXT	SEGMENT
_listhead$ = -4						; size = 4
_oldsize$ = 8						; size = 4
_ptr$ = 8						; size = 4
_size$ = 12						; size = 4
_type$ = 16						; size = 4
_file$ = 20						; size = 4
_line$ = 24						; size = 4
_list_realloc PROC					; COMDAT

; 459  : { struct memhead **listhead=NULL;

	push	ebp
	mov	ebp, esp
	push	ecx
	push	esi
	push	edi

; 460  :   struct memhead *newhead;
; 461  :   struct memhead *oldhead;
; 462  :   char *newptr;
; 463  :   size_t oldsize;
; 464  : 
; 465  :   switch(type)

	mov	edi, DWORD PTR _type$[ebp]
	mov	DWORD PTR _listhead$[ebp], 0
	cmp	edi, 56540				; 0000dcdcH
	jg	SHORT $LN19@list_reall
	je	SHORT $LN13@list_reall
	cmp	edi, 43947				; 0000ababH
	je	SHORT $LN14@list_reall
	cmp	edi, 52171				; 0000cbcbH
	jne	SHORT $LN10@list_reall

; 468  :     case GRAPH_BLOCK: listhead = &graph_block_head; break;

	mov	DWORD PTR _listhead$[ebp], OFFSET _graph_block_head
	jmp	SHORT $LN15@list_reall
$LN14@list_reall:

; 466  :   { case PERM_BLOCK: listhead = &perm_block_head; break;

	mov	DWORD PTR _listhead$[ebp], OFFSET _perm_block_head
	jmp	SHORT $LN15@list_reall
$LN13@list_reall:

; 467  :     case TEMP_BLOCK: listhead = &temp_block_head; break;

	mov	DWORD PTR _listhead$[ebp], OFFSET _temp_block_head
	jmp	SHORT $LN15@list_reall
$LN19@list_reall:

; 460  :   struct memhead *newhead;
; 461  :   struct memhead *oldhead;
; 462  :   char *newptr;
; 463  :   size_t oldsize;
; 464  : 
; 465  :   switch(type)

	cmp	edi, 60138				; 0000eaeaH
	je	SHORT $LN11@list_reall
$LN10@list_reall:

; 470  :     default: kb_error(2453,"Internal error: illegal memory block type.\n",
; 471  :        RECOVERABLE);

	push	1
	push	OFFSET ??_C@_0CM@IBJBBOIG@Internal?5error?3?5illegal?5memory?5b@
	push	2453					; 00000995H
	call	_kb_error
	add	esp, 12					; 0000000cH
	jmp	SHORT $LN15@list_reall
$LN11@list_reall:

; 469  :     case ETERNAL_BLOCK: listhead = &eternal_block_head; break;

	mov	DWORD PTR _listhead$[ebp], OFFSET _eternal_block_head
$LN15@list_reall:

; 472  :   }
; 473  : 
; 474  : #ifdef MEMSTRINGS
; 475  :   if ( ptr == NULL ) return list_calloc(size,1,type,file,line);

	mov	esi, DWORD PTR _ptr$[ebp]
	test	esi, esi
	jne	SHORT $LN9@list_reall
	mov	eax, DWORD PTR _line$[ebp]
	mov	ecx, DWORD PTR _file$[ebp]
	mov	edx, DWORD PTR _size$[ebp]
	push	eax
	push	ecx
	push	edi
	push	1
	push	edx
	call	_list_calloc
	add	esp, 20					; 00000014H
	pop	edi
	pop	esi

; 531  : 
; 532  : } /* end of list_realloc() */

	mov	esp, ebp
	pop	ebp
	ret	0
$LN9@list_reall:

; 476  : #else
; 477  :   if ( ptr == NULL ) return list_calloc(size,1,type);
; 478  : #endif
; 479  : 
; 480  :   oldhead = (struct memhead *)ptr - 1;

	add	esi, -48				; ffffffd0H

; 481  :   if ( oldhead->type != type )

	cmp	DWORD PTR [esi+12], edi
	je	SHORT $LN22@list_reall

; 482  :   { sprintf(errmsg,"Internal error: Trying to realloc memory block to different list.\n");

	push	OFFSET ??_C@_0ED@HKIJMNAF@Internal?5error?3?5Trying?5to?5reallo@
	push	OFFSET _errmsg
	call	_sprintf

; 483  :   #ifdef MEMSTRINGS
; 484  :     sprintf(errmsg+strlen(errmsg),"File %s, line %d; original alloc %s:%d\n",
; 485  :         file,line,oldhead->file,oldhead->line);

	mov	eax, OFFSET _errmsg
	add	esp, 8
	lea	edx, DWORD PTR [eax+1]
$LL20@list_reall:
	mov	cl, BYTE PTR [eax]
	inc	eax
	test	cl, cl
	jne	SHORT $LL20@list_reall
	mov	ecx, DWORD PTR [esi+44]
	push	ecx
	mov	ecx, DWORD PTR _line$[ebp]
	sub	eax, edx
	lea	edx, DWORD PTR [esi+16]
	push	edx
	mov	edx, DWORD PTR _file$[ebp]
	push	ecx
	push	edx
	lea	eax, DWORD PTR _errmsg[eax]
	push	OFFSET ??_C@_0CI@JPMALGNI@File?5?$CFs?0?5line?5?$CFd?$DL?5original?5alloc@
	push	eax
	call	_sprintf

; 486  :   #endif
; 487  :     kb_error(2448,errmsg,RECOVERABLE);

	push	1
	push	OFFSET _errmsg
	push	2448					; 00000990H
	call	_kb_error
	add	esp, 36					; 00000024H
$LN22@list_reall:

; 488  :   }
; 489  :   oldsize = oldhead->size;

	push	ebx
	mov	ebx, DWORD PTR [esi+8]

; 490  :  
; 491  :   ENTER_MEM_MUTEX  /* since manipulating shared variables */

	push	0
	push	100000					; 000186a0H
	push	0
	push	OFFSET _mem_mutex
	push	1
	mov	DWORD PTR _oldsize$[ebp], ebx
	call	DWORD PTR __imp__MsgWaitForMultipleObjects@20

; 492  :   /* delete from my list */
; 493  :   if ( oldhead->next ) oldhead->next->prev = oldhead->prev;

	mov	eax, DWORD PTR [esi+4]
	test	eax, eax
	je	SHORT $LN7@list_reall
	mov	ecx, DWORD PTR [esi]
	mov	DWORD PTR [eax], ecx
$LN7@list_reall:

; 494  :   if ( oldhead->prev ) oldhead->prev->next = oldhead->next;

	mov	eax, DWORD PTR [esi]
	test	eax, eax
	je	SHORT $LN6@list_reall
	mov	edx, DWORD PTR [esi+4]
	mov	DWORD PTR [eax+4], edx
	jmp	SHORT $LN5@list_reall
$LN6@list_reall:

; 495  :   else *listhead = oldhead->next;

	mov	eax, DWORD PTR [esi+4]
	mov	ecx, DWORD PTR _listhead$[ebp]
	mov	DWORD PTR [ecx], eax
$LN5@list_reall:

; 496  : 
; 497  :   newhead = 
; 498  :      (struct memhead *)realloc((char*)oldhead,sizeof(struct memhead)+size);

	mov	edi, DWORD PTR _size$[ebp]
	lea	edx, DWORD PTR [edi+48]
	push	edx
	push	esi
	call	_realloc
	mov	esi, eax
	add	esp, 8

; 499  :   if ( newhead == NULL )

	test	esi, esi
	jne	SHORT $LN4@list_reall

; 500  :   { sprintf(errmsg,
; 501  :      "Internal error: Cannot reallocate memory from old size %lu to new %lu.\n",
; 502  :        (unsigned long)oldsize,(unsigned long)size);

	push	edi
	push	ebx
	push	OFFSET ??_C@_0EI@CMBOIPEL@Internal?5error?3?5Cannot?5reallocat@
	push	OFFSET _errmsg
	call	_sprintf

; 503  : #ifdef MEMSTRINGS
; 504  :     sprintf(msg+strlen(msg),"Requested from %s line %d\n",file,line);

	mov	edx, DWORD PTR _msg
	mov	eax, edx
	add	esp, 16					; 00000010H
	lea	ebx, DWORD PTR [eax+1]
$LL21@list_reall:
	mov	cl, BYTE PTR [eax]
	inc	eax
	test	cl, cl
	jne	SHORT $LL21@list_reall
	mov	ecx, DWORD PTR _line$[ebp]
	push	ecx
	mov	ecx, DWORD PTR _file$[ebp]
	push	ecx
	sub	eax, ebx
	add	eax, edx
	push	OFFSET ??_C@_0BL@PLPPKDKC@Requested?5from?5?$CFs?5line?5?$CFd?6?$AA@
	push	eax
	call	_sprintf

; 505  : #endif
; 506  :     kb_error(1360,errmsg,RECOVERABLE);

	push	1
	push	OFFSET _errmsg
	push	1360					; 00000550H
	call	_kb_error
	mov	ebx, DWORD PTR _oldsize$[ebp]
	add	esp, 28					; 0000001cH
$LN4@list_reall:

; 507  :   }
; 508  : 
; 509  :   /* fill in header */
; 510  :   newhead->next = *listhead;

	mov	eax, DWORD PTR _listhead$[ebp]
	mov	edx, DWORD PTR [eax]
	mov	DWORD PTR [esi+4], edx

; 511  :   newhead->prev = NULL;

	mov	DWORD PTR [esi], 0

; 512  :   if ( *listhead )

	mov	ecx, DWORD PTR [eax]
	test	ecx, ecx
	je	SHORT $LN3@list_reall

; 513  :     (*listhead)->prev = newhead;

	mov	DWORD PTR [ecx], esi
$LN3@list_reall:

; 514  :   *listhead = newhead;

	mov	DWORD PTR [eax], esi

; 515  :   LEAVE_MEM_MUTEX

	mov	eax, DWORD PTR _mem_mutex
	push	eax
	call	DWORD PTR __imp__ReleaseMutex@4

; 516  :   newhead->size = size;
; 517  :   newhead->type = type;
; 518  : #ifdef MEMSTRINGS
; 519  :   strncpy(newhead->file,file,sizeof(newhead->file)-1);

	mov	edx, DWORD PTR _file$[ebp]
	mov	ecx, DWORD PTR _type$[ebp]
	push	27					; 0000001bH
	push	edx
	lea	eax, DWORD PTR [esi+16]
	push	eax
	mov	DWORD PTR [esi+8], edi
	mov	DWORD PTR [esi+12], ecx
	call	_strncpy

; 520  :   newhead->line = (int)line;

	mov	ecx, DWORD PTR _line$[ebp]
	add	esp, 12					; 0000000cH
	mov	DWORD PTR [esi+44], ecx

; 521  : #endif
; 522  :   
; 523  :   newptr = (char*)(newhead+1);
; 524  :   if (oldsize < size )  memset(newptr+oldsize,0,size-oldsize);

	cmp	ebx, edi
	jae	SHORT $LN23@list_reall
	sub	edi, ebx
	push	edi
	lea	edx, DWORD PTR [esi+ebx+48]
	push	0
	push	edx
	call	_memset
	add	esp, 12					; 0000000cH
$LN23@list_reall:

; 525  : 
; 526  : 
; 527  :   if ( memdebug ) 

	cmp	DWORD PTR _memdebug, 0
	pop	ebx
	je	SHORT $LN1@list_reall

; 528  :     mem_sanity_check();

	call	_mem_sanity_check
$LN1@list_reall:
	pop	edi

; 529  : 
; 530  :   return newptr;

	lea	eax, DWORD PTR [esi+48]
	pop	esi

; 531  : 
; 532  : } /* end of list_realloc() */

	mov	esp, ebp
	pop	ebp
	ret	0
_list_realloc ENDP
_TEXT	ENDS
PUBLIC	??_C@_0FL@DCDPCNAE@Internal?5error?3?5Trying?5to?5free?5m@ ; `string'
PUBLIC	??_C@_0O@DFPPHLPO@ETERNAL_BLOCK?$AA@		; `string'
PUBLIC	??_C@_07DPPMCAKL@corrupt?$AA@			; `string'
PUBLIC	??_C@_0L@PGFPFBIK@TEMP_BLOCK?$AA@		; `string'
PUBLIC	??_C@_0L@NCEBILFC@PERM_BLOCK?$AA@		; `string'
PUBLIC	??_C@_0M@LBHJJNPH@GRAPH_BLOCK?$AA@		; `string'
PUBLIC	??_C@_0BI@BMPABENM@?5?5allocated?5from?5?$CFs?3?$CFd?6?$AA@ ; `string'
PUBLIC	??_C@_01EEMJAFIK@?6?$AA@			; `string'
PUBLIC	__$ArrayPad$
PUBLIC	_list_free
EXTRN	_free:PROC
EXTRN	___security_cookie:DWORD
EXTRN	@__security_check_cookie@4:PROC
;	COMDAT ??_C@_0FL@DCDPCNAE@Internal?5error?3?5Trying?5to?5free?5m@
CONST	SEGMENT
??_C@_0FL@DCDPCNAE@Internal?5error?3?5Trying?5to?5free?5m@ DB 'Internal e'
	DB	'rror: Trying to free memory block of type %s from %s list.', 0aH
	DB	'Allocated from %s:%d', 0aH, 00H		; `string'
CONST	ENDS
;	COMDAT ??_C@_0O@DFPPHLPO@ETERNAL_BLOCK?$AA@
CONST	SEGMENT
??_C@_0O@DFPPHLPO@ETERNAL_BLOCK?$AA@ DB 'ETERNAL_BLOCK', 00H ; `string'
CONST	ENDS
;	COMDAT ??_C@_07DPPMCAKL@corrupt?$AA@
CONST	SEGMENT
??_C@_07DPPMCAKL@corrupt?$AA@ DB 'corrupt', 00H		; `string'
CONST	ENDS
;	COMDAT ??_C@_0L@PGFPFBIK@TEMP_BLOCK?$AA@
CONST	SEGMENT
??_C@_0L@PGFPFBIK@TEMP_BLOCK?$AA@ DB 'TEMP_BLOCK', 00H	; `string'
CONST	ENDS
;	COMDAT ??_C@_0L@NCEBILFC@PERM_BLOCK?$AA@
CONST	SEGMENT
??_C@_0L@NCEBILFC@PERM_BLOCK?$AA@ DB 'PERM_BLOCK', 00H	; `string'
CONST	ENDS
;	COMDAT ??_C@_0M@LBHJJNPH@GRAPH_BLOCK?$AA@
CONST	SEGMENT
??_C@_0M@LBHJJNPH@GRAPH_BLOCK?$AA@ DB 'GRAPH_BLOCK', 00H ; `string'
CONST	ENDS
;	COMDAT ??_C@_0BI@BMPABENM@?5?5allocated?5from?5?$CFs?3?$CFd?6?$AA@
CONST	SEGMENT
??_C@_0BI@BMPABENM@?5?5allocated?5from?5?$CFs?3?$CFd?6?$AA@ DB '  allocat'
	DB	'ed from %s:%d', 0aH, 00H			; `string'
CONST	ENDS
;	COMDAT ??_C@_01EEMJAFIK@?6?$AA@
CONST	SEGMENT
??_C@_01EEMJAFIK@?6?$AA@ DB 0aH, 00H			; `string'
; Function compile flags: /Ogtp
CONST	ENDS
;	COMDAT _list_free
_TEXT	SEGMENT
_typename$89283 = -1008					; size = 4
_memmsg$89279 = -1004					; size = 1000
__$ArrayPad$ = -4					; size = 4
_ptr$ = 8						; size = 4
_type$ = 12						; size = 4
_list_free PROC						; COMDAT

; 545  : { struct memhead *head;

	push	ebp
	mov	ebp, esp
	sub	esp, 1008				; 000003f0H
	mov	eax, DWORD PTR ___security_cookie
	xor	eax, ebp
	mov	DWORD PTR __$ArrayPad$[ebp], eax
	push	ebx
	push	esi
	mov	esi, DWORD PTR _ptr$[ebp]

; 546  :   struct memhead **listhead=NULL;

	xor	ebx, ebx

; 547  : 
; 548  :   if ( !ptr )

	test	esi, esi
	jne	SHORT $LN30@list_free

; 549  :   { if ( memdebug ) erroutstring("\n");

	cmp	DWORD PTR _memdebug, ebx
	je	$LN1@list_free
	push	OFFSET ??_C@_01EEMJAFIK@?6?$AA@
	call	_erroutstring
	add	esp, 4
	pop	esi
	pop	ebx

; 615  : 
; 616  : } // end list_free()

	mov	ecx, DWORD PTR __$ArrayPad$[ebp]
	xor	ecx, ebp
	call	@__security_check_cookie@4
	mov	esp, ebp
	pop	ebp
	ret	0
$LN30@list_free:

; 550  :     return;
; 551  :   }
; 552  :   
; 553  :   if ( memdebug ) 

	cmp	DWORD PTR _memdebug, ebx
	je	SHORT $LN28@list_free

; 554  :     mem_sanity_check();

	call	_mem_sanity_check
$LN28@list_free:
	push	edi

; 555  :  
; 556  :   switch(type)

	mov	edi, DWORD PTR _type$[ebp]
	cmp	edi, 56540				; 0000dcdcH
	jg	SHORT $LN33@list_free
	je	SHORT $LN24@list_free
	cmp	edi, 43947				; 0000ababH
	je	SHORT $LN25@list_free
	cmp	edi, 52171				; 0000cbcbH
	jne	SHORT $LN21@list_free

; 559  :     case GRAPH_BLOCK: listhead = &graph_block_head; break;

	mov	ebx, OFFSET _graph_block_head
	jmp	SHORT $LN26@list_free
$LN25@list_free:

; 557  :   { case PERM_BLOCK: listhead = &perm_block_head; break;

	mov	ebx, OFFSET _perm_block_head
	jmp	SHORT $LN26@list_free
$LN24@list_free:

; 558  :     case TEMP_BLOCK: listhead = &temp_block_head; break;

	mov	ebx, OFFSET _temp_block_head
	jmp	SHORT $LN26@list_free
$LN33@list_free:

; 555  :  
; 556  :   switch(type)

	cmp	edi, 60138				; 0000eaeaH
	je	SHORT $LN22@list_free
$LN21@list_free:

; 561  :     default: kb_error(2454,"Internal error: illegal memory block type.\n",
; 562  :        RECOVERABLE);

	push	1
	push	OFFSET ??_C@_0CM@IBJBBOIG@Internal?5error?3?5illegal?5memory?5b@
	push	2454					; 00000996H
	call	_kb_error
	add	esp, 12					; 0000000cH
	jmp	SHORT $LN26@list_free
$LN22@list_free:

; 560  :     case ETERNAL_BLOCK: listhead = &eternal_block_head; break;

	mov	ebx, OFFSET _eternal_block_head
$LN26@list_free:

; 563  :   }
; 564  : 
; 565  :   head = (struct memhead *)ptr - 1;

	add	esi, -48				; ffffffd0H

; 566  : 
; 567  :   if ( memdebug )

	cmp	DWORD PTR _memdebug, 0
	je	SHORT $LN20@list_free

; 568  :   { char memmsg[1000];
; 569  : #ifdef MEMSTRINGS
; 570  :     sprintf(memmsg,"  allocated from %s:%d\n",head->file,head->line);

	mov	eax, DWORD PTR [esi+44]
	push	eax
	lea	ecx, DWORD PTR [esi+16]
	push	ecx
	lea	edx, DWORD PTR _memmsg$89279[ebp]
	push	OFFSET ??_C@_0BI@BMPABENM@?5?5allocated?5from?5?$CFs?3?$CFd?6?$AA@
	push	edx
	call	_sprintf

; 571  : #else
; 572  :     sprintf(memmsg,"\n");
; 573  : #endif
; 574  :     erroutstring(memmsg);

	lea	eax, DWORD PTR _memmsg$89279[ebp]
	push	eax
	call	_erroutstring
	add	esp, 20					; 00000014H
$LN20@list_free:

; 575  :   }
; 576  : 
; 577  :   if ( head->type != type )

	mov	eax, DWORD PTR [esi+12]
	cmp	eax, edi
	je	$LN36@list_free

; 578  :   { char *headtypename,*typename;
; 579  :     switch ( head->type )

	cmp	eax, 56540				; 0000dcdcH
	jg	SHORT $LN34@list_free
	je	SHORT $LN15@list_free
	cmp	eax, 43947				; 0000ababH
	je	SHORT $LN14@list_free
	cmp	eax, 52171				; 0000cbcbH
	jne	SHORT $LN37@list_free

; 583  :       case GRAPH_BLOCK: headtypename = "GRAPH_BLOCK"; break;

	mov	ecx, OFFSET ??_C@_0M@LBHJJNPH@GRAPH_BLOCK?$AA@
	jmp	SHORT $LN17@list_free
$LN14@list_free:

; 582  :       case PERM_BLOCK: headtypename = "PERM_BLOCK"; break;

	mov	ecx, OFFSET ??_C@_0L@NCEBILFC@PERM_BLOCK?$AA@
	jmp	SHORT $LN17@list_free
$LN15@list_free:

; 581  :       case TEMP_BLOCK: headtypename = "TEMP_BLOCK"; break;

	mov	ecx, OFFSET ??_C@_0L@PGFPFBIK@TEMP_BLOCK?$AA@
	jmp	SHORT $LN17@list_free
$LN34@list_free:

; 578  :   { char *headtypename,*typename;
; 579  :     switch ( head->type )

	cmp	eax, 60138				; 0000eaeaH
	je	SHORT $LN16@list_free
$LN37@list_free:

; 584  :       default: headtypename = "corrupt";

	mov	ecx, OFFSET ??_C@_07DPPMCAKL@corrupt?$AA@
	jmp	SHORT $LN17@list_free
$LN16@list_free:

; 580  :     { case ETERNAL_BLOCK: headtypename = "ETERNAL_BLOCK"; break;

	mov	ecx, OFFSET ??_C@_0O@DFPPHLPO@ETERNAL_BLOCK?$AA@
$LN17@list_free:

; 585  :     }
; 586  :     switch ( type )

	cmp	edi, 56540				; 0000dcdcH
	jg	SHORT $LN35@list_free
	je	SHORT $LN8@list_free
	cmp	edi, 43947				; 0000ababH
	je	SHORT $LN7@list_free
	cmp	edi, 52171				; 0000cbcbH
	jne	SHORT $LN5@list_free

; 590  :       case GRAPH_BLOCK: typename = "GRAPH_BLOCK"; break;

	mov	eax, OFFSET ??_C@_0M@LBHJJNPH@GRAPH_BLOCK?$AA@
	jmp	SHORT $LN10@list_free
$LN7@list_free:

; 589  :       case PERM_BLOCK: typename = "PERM_BLOCK"; break;

	mov	eax, OFFSET ??_C@_0L@NCEBILFC@PERM_BLOCK?$AA@
	jmp	SHORT $LN10@list_free
$LN8@list_free:

; 588  :       case TEMP_BLOCK: typename = "TEMP_BLOCK"; break;

	mov	eax, OFFSET ??_C@_0L@PGFPFBIK@TEMP_BLOCK?$AA@
	jmp	SHORT $LN10@list_free
$LN35@list_free:

; 585  :     }
; 586  :     switch ( type )

	cmp	edi, 60138				; 0000eaeaH
	je	SHORT $LN9@list_free
$LN5@list_free:

; 591  :       default: headtypename = "corrupt";

	mov	eax, DWORD PTR _typename$89283[ebp]
	mov	ecx, OFFSET ??_C@_07DPPMCAKL@corrupt?$AA@
	jmp	SHORT $LN10@list_free
$LN9@list_free:

; 587  :     { case ETERNAL_BLOCK: typename = "ETERNAL_BLOCK"; break;

	mov	eax, OFFSET ??_C@_0O@DFPPHLPO@ETERNAL_BLOCK?$AA@
$LN10@list_free:

; 592  :     }
; 593  : #ifdef MEMSTRINGS
; 594  :     sprintf(errmsg,"Internal error: Trying to free memory block of type %s from %s list.\nAllocated from %s:%d\n",
; 595  :        headtypename,typename,head->file,head->line);

	mov	edx, DWORD PTR [esi+44]
	push	edx
	lea	edx, DWORD PTR [esi+16]
	push	edx
	push	eax
	push	ecx
	push	OFFSET ??_C@_0FL@DCDPCNAE@Internal?5error?3?5Trying?5to?5free?5m@
	push	OFFSET _errmsg
	call	_sprintf

; 596  : #else
; 597  :     sprintf(errmsg,"Internal error: Trying to free memory block of type %s from %s list.\n",
; 598  :         headtypename,typename);
; 599  : 
; 600  : #endif
; 601  :     kb_error(2465,errmsg,RECOVERABLE);

	push	1
	push	OFFSET _errmsg
	push	2465					; 000009a1H
	call	_kb_error
	add	esp, 36					; 00000024H
$LN36@list_free:

; 602  : 
; 603  :    }
; 604  : 
; 605  :   /* delete from my list */
; 606  :   ENTER_MEM_MUTEX

	push	0
	push	100000					; 000186a0H
	push	0
	push	OFFSET _mem_mutex
	push	1
	call	DWORD PTR __imp__MsgWaitForMultipleObjects@20

; 607  :   if ( head->next ) head->next->prev = head->prev;

	mov	eax, DWORD PTR [esi+4]
	pop	edi
	test	eax, eax
	je	SHORT $LN4@list_free
	mov	ecx, DWORD PTR [esi]
	mov	DWORD PTR [eax], ecx
$LN4@list_free:

; 608  :   if ( head->prev ) head->prev->next = head->next;

	mov	eax, DWORD PTR [esi]
	test	eax, eax
	je	SHORT $LN3@list_free
	mov	edx, DWORD PTR [esi+4]
	mov	DWORD PTR [eax+4], edx
	jmp	SHORT $LN2@list_free
$LN3@list_free:

; 609  :   else *listhead = head->next;

	mov	eax, DWORD PTR [esi+4]
	mov	DWORD PTR [ebx], eax
$LN2@list_free:

; 610  :   LEAVE_MEM_MUTEX

	mov	ecx, DWORD PTR _mem_mutex
	push	ecx
	call	DWORD PTR __imp__ReleaseMutex@4

; 611  :   free((char*)head);

	push	esi
	call	_free
	add	esp, 4

; 612  : 
; 613  :   if ( memdebug ) 

	cmp	DWORD PTR _memdebug, 0
	je	SHORT $LN1@list_free

; 614  :     mem_sanity_check();

	call	_mem_sanity_check
$LN1@list_free:

; 615  : 
; 616  : } // end list_free()

	mov	ecx, DWORD PTR __$ArrayPad$[ebp]
	pop	esi
	xor	ecx, ebp
	pop	ebx
	call	@__security_check_cookie@4
	mov	esp, ebp
	pop	ebp
	ret	0
_list_free ENDP
_TEXT	ENDS
PUBLIC	??_C@_0CK@LNODAPOO@Freeing?5?$CFp?0?5?$CFd?5bytes?0?5allocated?5@ ; `string'
PUBLIC	??_C@_0CG@LEBINADL@Internal?5error?3?5corrupt?5memory?5l@ ; `string'
PUBLIC	__$ArrayPad$
PUBLIC	_list_free_all
;	COMDAT ??_C@_0CK@LNODAPOO@Freeing?5?$CFp?0?5?$CFd?5bytes?0?5allocated?5@
CONST	SEGMENT
??_C@_0CK@LNODAPOO@Freeing?5?$CFp?0?5?$CFd?5bytes?0?5allocated?5@ DB 'Fre'
	DB	'eing %p, %d bytes, allocated at %s:%d', 0aH, 00H ; `string'
CONST	ENDS
;	COMDAT ??_C@_0CG@LEBINADL@Internal?5error?3?5corrupt?5memory?5l@
CONST	SEGMENT
??_C@_0CG@LEBINADL@Internal?5error?3?5corrupt?5memory?5l@ DB 'Internal er'
	DB	'ror: corrupt memory list.', 0aH, 00H	; `string'
; Function compile flags: /Ogtp
CONST	ENDS
;	COMDAT _list_free_all
_TEXT	SEGMENT
_memmsg$89335 = -1004					; size = 1000
__$ArrayPad$ = -4					; size = 4
_type$ = 8						; size = 4
_list_free_all PROC					; COMDAT

; 626  : { struct memhead **listhead=NULL;

	push	ebp
	mov	ebp, esp
	sub	esp, 1004				; 000003ecH
	mov	eax, DWORD PTR ___security_cookie
	xor	eax, ebp
	mov	DWORD PTR __$ArrayPad$[ebp], eax
	push	ebx
	push	esi
	push	edi

; 627  :   struct memhead *head,*nexthead;
; 628  : 
; 629  :   switch(type)

	mov	edi, DWORD PTR _type$[ebp]
	xor	ebx, ebx
	cmp	edi, 56540				; 0000dcdcH
	jg	SHORT $LN15@list_free_
	je	SHORT $LN9@list_free_
	cmp	edi, 43947				; 0000ababH
	je	SHORT $LN10@list_free_
	cmp	edi, 52171				; 0000cbcbH
	jne	SHORT $LN6@list_free_

; 632  :     case GRAPH_BLOCK: listhead = &graph_block_head; break;

	mov	ebx, OFFSET _graph_block_head
	jmp	SHORT $LN11@list_free_
$LN10@list_free_:

; 630  :   { case PERM_BLOCK: listhead = &perm_block_head; break;

	mov	ebx, OFFSET _perm_block_head
	jmp	SHORT $LN11@list_free_
$LN9@list_free_:

; 631  :     case TEMP_BLOCK: listhead = &temp_block_head; break;

	mov	ebx, OFFSET _temp_block_head
	jmp	SHORT $LN11@list_free_
$LN15@list_free_:

; 627  :   struct memhead *head,*nexthead;
; 628  : 
; 629  :   switch(type)

	cmp	edi, 60138				; 0000eaeaH
	je	SHORT $LN7@list_free_
$LN6@list_free_:

; 634  :     default: kb_error(2455,"Internal error: illegal memory block type.\n",
; 635  :        RECOVERABLE);

	push	1
	push	OFFSET ??_C@_0CM@IBJBBOIG@Internal?5error?3?5illegal?5memory?5b@
	push	2455					; 00000997H
	call	_kb_error
	add	esp, 12					; 0000000cH
	jmp	SHORT $LN11@list_free_
$LN7@list_free_:

; 633  :     case ETERNAL_BLOCK: listhead = &eternal_block_head; break;

	mov	ebx, OFFSET _eternal_block_head
$LN11@list_free_:

; 636  :   }
; 637  : 
; 638  :   ENTER_MEM_MUTEX

	push	0
	push	100000					; 000186a0H
	push	0
	push	OFFSET _mem_mutex
	push	1
	call	DWORD PTR __imp__MsgWaitForMultipleObjects@20

; 639  :   for ( head = *listhead; head ; head = nexthead )

	mov	esi, DWORD PTR [ebx]
	test	esi, esi
	je	SHORT $LN3@list_free_
	jmp	SHORT $LN5@list_free_
	npad	5
$LL18@list_free_:
	mov	edi, DWORD PTR _type$[ebp]
$LN5@list_free_:

; 640  :   { if ( head->type != type )

	cmp	DWORD PTR [esi+12], edi
	je	SHORT $LN2@list_free_

; 641  :       kb_error(3905,"Internal error: corrupt memory list.\n",RECOVERABLE);

	push	1
	push	OFFSET ??_C@_0CG@LEBINADL@Internal?5error?3?5corrupt?5memory?5l@
	push	3905					; 00000f41H
	call	_kb_error
	add	esp, 12					; 0000000cH
$LN2@list_free_:

; 642  :     if ( memdebug )

	cmp	DWORD PTR _memdebug, 0
	je	SHORT $LN1@list_free_

; 643  :     { char memmsg[1000];
; 644  : #ifdef MEMSTRINGS
; 645  :        sprintf(memmsg,"Freeing %p, %d bytes, allocated at %s:%d\n",head+1,
; 646  :            head->size,head->file,head->line);

	mov	eax, DWORD PTR [esi+44]
	mov	edx, DWORD PTR [esi+8]
	push	eax
	lea	ecx, DWORD PTR [esi+16]
	push	ecx
	push	edx
	lea	eax, DWORD PTR [esi+48]
	push	eax
	lea	ecx, DWORD PTR _memmsg$89335[ebp]
	push	OFFSET ??_C@_0CK@LNODAPOO@Freeing?5?$CFp?0?5?$CFd?5bytes?0?5allocated?5@
	push	ecx
	call	_sprintf

; 647  : #else
; 648  :        sprintf(memmsg,"Freeing %p, %ld bytes\n",head+1,(long)head->size);
; 649  : #endif
; 650  :        erroutstring(memmsg);

	lea	edx, DWORD PTR _memmsg$89335[ebp]
	push	edx
	call	_erroutstring
	add	esp, 28					; 0000001cH
$LN1@list_free_:

; 651  :     }
; 652  :     nexthead = head->next;

	mov	edi, DWORD PTR [esi+4]

; 653  :     free((char*)head);

	push	esi
	call	_free
	add	esp, 4
	mov	esi, edi
	test	edi, edi
	jne	SHORT $LL18@list_free_
$LN3@list_free_:

; 654  :   }
; 655  :   *listhead = NULL;
; 656  :   LEAVE_MEM_MUTEX

	mov	eax, DWORD PTR _mem_mutex
	push	eax
	mov	DWORD PTR [ebx], 0
	call	DWORD PTR __imp__ReleaseMutex@4

; 657  : } /* end list_free_all */

	mov	ecx, DWORD PTR __$ArrayPad$[ebp]
	pop	edi
	pop	esi
	xor	ecx, ebp
	pop	ebx
	call	@__security_check_cookie@4
	mov	esp, ebp
	pop	ebp
	ret	0
_list_free_all ENDP
_TEXT	ENDS
PUBLIC	??_C@_06CHNCNINF@at?5?$CFp?6?$AA@		; `string'
PUBLIC	??_C@_0BM@IJHHPNJO@mycalloc?5?$CF30?430s?5?$CF5d?3?5?$CF10d?5?$AA@ ; `string'
PUBLIC	_kb_calloc
;	COMDAT ??_C@_06CHNCNINF@at?5?$CFp?6?$AA@
CONST	SEGMENT
??_C@_06CHNCNINF@at?5?$CFp?6?$AA@ DB 'at %p', 0aH, 00H	; `string'
CONST	ENDS
;	COMDAT ??_C@_0BM@IJHHPNJO@mycalloc?5?$CF30?430s?5?$CF5d?3?5?$CF10d?5?$AA@
CONST	SEGMENT
??_C@_0BM@IJHHPNJO@mycalloc?5?$CF30?430s?5?$CF5d?3?5?$CF10d?5?$AA@ DB 'my'
	DB	'calloc %30.30s %5d: %10d ', 00H		; `string'
; Function compile flags: /Ogtp
CONST	ENDS
;	COMDAT _kb_calloc
_TEXT	SEGMENT
_num$ = 8						; size = 4
_size$ = 12						; size = 4
_file$ = 16						; size = 4
_line$ = 20						; size = 4
_kb_calloc PROC						; COMDAT

; 688  : { char *ptr;

	push	ebp
	mov	ebp, esp

; 689  : 
; 690  :   if ( memdebug )

	cmp	DWORD PTR _memdebug, 0
	push	ebx
	mov	ebx, DWORD PTR _size$[ebp]
	push	esi
	mov	esi, DWORD PTR _line$[ebp]
	push	edi
	mov	edi, DWORD PTR _file$[ebp]
	je	SHORT $LN2@kb_calloc

; 691  :   {
; 692  : #ifdef MEMSTRINGS
; 693  :     sprintf(errmsg,"mycalloc %30.30s %5d: %10d ",file,line,num*size);

	mov	eax, DWORD PTR _num$[ebp]
	imul	eax, ebx
	push	eax
	push	esi
	push	edi
	push	OFFSET ??_C@_0BM@IJHHPNJO@mycalloc?5?$CF30?430s?5?$CF5d?3?5?$CF10d?5?$AA@
	push	OFFSET _errmsg
	call	_sprintf

; 694  :     erroutstring(errmsg);

	push	OFFSET _errmsg
	call	_erroutstring
	add	esp, 24					; 00000018H
$LN2@kb_calloc:

; 695  : #else
; 696  :     sprintf(errmsg,"mycalloc %lu*%lu = %lu bytes ",(unsigned long)num,
; 697  :        (unsigned long)size,(unsigned long)num*size);
; 698  :     erroutstring(errmsg); 
; 699  : #endif
; 700  :   }
; 701  : 
; 702  : #ifdef MEMSTRINGS
; 703  :   ptr = list_calloc(num,size,PERM_BLOCK,file,line);

	mov	ecx, DWORD PTR _num$[ebp]
	push	esi
	push	edi
	push	43947					; 0000ababH
	push	ebx
	push	ecx
	call	_list_calloc
	add	esp, 20					; 00000014H

; 704  : #else
; 705  :   ptr = list_calloc(num,size,PERM_BLOCK);
; 706  : #endif
; 707  : 
; 708  :   if ( memdebug )

	cmp	DWORD PTR _memdebug, 0
	mov	esi, eax
	je	SHORT $LN5@kb_calloc

; 709  :   { sprintf(errmsg,"at %p\n",ptr); erroutstring(errmsg);

	push	esi
	push	OFFSET ??_C@_06CHNCNINF@at?5?$CFp?6?$AA@
	push	OFFSET _errmsg
	call	_sprintf
	push	OFFSET _errmsg
	call	_erroutstring
	add	esp, 16					; 00000010H

; 710  :     mem_sanity_check();

	call	_mem_sanity_check
$LN5@kb_calloc:

; 711  :   }
; 712  : 
; 713  :   return ptr;

	pop	edi
	mov	eax, esi
	pop	esi
	pop	ebx

; 714  : }  /* end kb_calloc */

	pop	ebp
	ret	0
_kb_calloc ENDP
_TEXT	ENDS
PUBLIC	??_C@_0DB@JHBCEEKN@?$CF30?430s?5?$CF4d?3?5realloc?5old?5?$CFp?5size@ ; `string'
PUBLIC	_KB_realloc
;	COMDAT ??_C@_0DB@JHBCEEKN@?$CF30?430s?5?$CF4d?3?5realloc?5old?5?$CFp?5size@
CONST	SEGMENT
??_C@_0DB@JHBCEEKN@?$CF30?430s?5?$CF4d?3?5realloc?5old?5?$CFp?5size@ DB '%'
	DB	'30.30s %4d: realloc old %p size %d to size %d ', 0aH, 00H ; `string'
; Function compile flags: /Ogtp
CONST	ENDS
;	COMDAT _KB_realloc
_TEXT	SEGMENT
_ptr$ = 8						; size = 4
_size$ = 12						; size = 4
_file$ = 16						; size = 4
_line$ = 20						; size = 4
_KB_realloc PROC					; COMDAT

; 738  : { char *newptr;

	push	ebp
	mov	ebp, esp

; 739  : 
; 740  :   if ( memdebug )

	cmp	DWORD PTR _memdebug, 0
	push	ebx
	mov	ebx, DWORD PTR _file$[ebp]
	push	esi
	mov	esi, DWORD PTR _ptr$[ebp]
	push	edi
	mov	edi, DWORD PTR _line$[ebp]
	je	SHORT $LN4@KB_realloc

; 741  :   { 
; 742  : #ifdef MEMSTRINGS
; 743  :      sprintf(errmsg,"%30.30s %4d: realloc old %p size %d to size %d \n",
; 744  :          file,line,ptr, (ptr ? ((struct memhead *)ptr)[-1].size:0) ,size);

	test	esi, esi
	je	SHORT $LN7@KB_realloc
	mov	eax, DWORD PTR [esi-40]
	jmp	SHORT $LN8@KB_realloc
$LN7@KB_realloc:
	xor	eax, eax
$LN8@KB_realloc:
	mov	ecx, DWORD PTR _size$[ebp]
	push	ecx
	push	eax
	push	esi
	push	edi
	push	ebx
	push	OFFSET ??_C@_0DB@JHBCEEKN@?$CF30?430s?5?$CF4d?3?5realloc?5old?5?$CFp?5size@
	push	OFFSET _errmsg
	call	_sprintf

; 745  : #else
; 746  :      sprintf(errmsg,"realloc old %p size %ld to size %ld \n",ptr,
; 747  :          (long) (ptr ? ((struct memhead *)ptr)[-1].size:0 ) ,(long)size);
; 748  : #endif
; 749  :      erroutstring(errmsg);

	push	OFFSET _errmsg
	call	_erroutstring
	add	esp, 32					; 00000020H
$LN4@KB_realloc:

; 750  :   }
; 751  : 
; 752  : #ifdef MEMSTRINGS
; 753  :   if ( ptr == NULL ) newptr = kb_calloc(size,1,file,line);

	push	edi
	push	ebx
	test	esi, esi
	jne	SHORT $LN3@KB_realloc
	mov	edx, DWORD PTR _size$[ebp]
	push	1
	push	edx
	call	_kb_calloc
	add	esp, 16					; 00000010H
	jmp	SHORT $LN10@KB_realloc
$LN3@KB_realloc:

; 754  :   else newptr = list_realloc(ptr,size,PERM_BLOCK,file,line);

	mov	eax, DWORD PTR _size$[ebp]
	push	43947					; 0000ababH
	push	eax
	push	esi
	call	_list_realloc
	add	esp, 20					; 00000014H
$LN10@KB_realloc:

; 755  : #else
; 756  :   if ( ptr == NULL ) newptr = mycalloc(size,1);
; 757  :   else newptr = list_realloc(ptr,size,PERM_BLOCK);
; 758  : #endif
; 759  : 
; 760  :   if ( memdebug )

	cmp	DWORD PTR _memdebug, 0
	mov	esi, eax
	je	SHORT $LN9@KB_realloc

; 761  :   { sprintf(errmsg,"at %p\n",newptr); erroutstring(errmsg);

	push	esi
	push	OFFSET ??_C@_06CHNCNINF@at?5?$CFp?6?$AA@
	push	OFFSET _errmsg
	call	_sprintf
	push	OFFSET _errmsg
	call	_erroutstring
	add	esp, 16					; 00000010H

; 762  :     mem_sanity_check();

	call	_mem_sanity_check
$LN9@KB_realloc:

; 763  :   }
; 764  : 
; 765  :   return newptr;

	pop	edi
	mov	eax, esi
	pop	esi
	pop	ebx

; 766  : } /* end KB_realloc() */

	pop	ebp
	ret	0
_KB_realloc ENDP
_TEXT	ENDS
PUBLIC	??_C@_08MOBFEEMD@free?5?$CFp?5?$AA@		; `string'
PUBLIC	_myfree
;	COMDAT ??_C@_08MOBFEEMD@free?5?$CFp?5?$AA@
CONST	SEGMENT
??_C@_08MOBFEEMD@free?5?$CFp?5?$AA@ DB 'free %p ', 00H	; `string'
; Function compile flags: /Ogtp
CONST	ENDS
;	COMDAT _myfree
_TEXT	SEGMENT
_ptr$ = 8						; size = 4
_myfree	PROC						; COMDAT

; 777  : { 

	push	ebp
	mov	ebp, esp

; 778  :   if ( memdebug )

	cmp	DWORD PTR _memdebug, 0
	push	esi
	mov	esi, DWORD PTR _ptr$[ebp]
	je	SHORT $LN1@myfree

; 779  :   { 
; 780  :      sprintf(errmsg,"free %p ",ptr);

	push	esi
	push	OFFSET ??_C@_08MOBFEEMD@free?5?$CFp?5?$AA@
	push	OFFSET _errmsg
	call	_sprintf

; 781  :      erroutstring(errmsg);

	push	OFFSET _errmsg
	call	_erroutstring
	add	esp, 16					; 00000010H
$LN1@myfree:

; 782  :   }
; 783  : 
; 784  :   list_free(ptr,PERM_BLOCK);

	push	43947					; 0000ababH
	push	esi
	call	_list_free
	add	esp, 8
	pop	esi

; 785  : } // end myfree()

	pop	ebp
	ret	0
_myfree	ENDP
_TEXT	ENDS
PUBLIC	??_C@_07DJKLNPDP@at?5?$CFp?5?6?$AA@		; `string'
PUBLIC	??_C@_0BI@MBINLGOC@temp_calloc?5?$CF9ld?5bytes?5?$AA@ ; `string'
PUBLIC	??_C@_0O@FGJIHLMM@?$CF30?430s?5?$CF4d?3?5?$AA@	; `string'
PUBLIC	_kb_temp_calloc
;	COMDAT ??_C@_07DJKLNPDP@at?5?$CFp?5?6?$AA@
CONST	SEGMENT
??_C@_07DJKLNPDP@at?5?$CFp?5?6?$AA@ DB 'at %p ', 0aH, 00H ; `string'
CONST	ENDS
;	COMDAT ??_C@_0BI@MBINLGOC@temp_calloc?5?$CF9ld?5bytes?5?$AA@
CONST	SEGMENT
??_C@_0BI@MBINLGOC@temp_calloc?5?$CF9ld?5bytes?5?$AA@ DB 'temp_calloc %9l'
	DB	'd bytes ', 00H				; `string'
CONST	ENDS
;	COMDAT ??_C@_0O@FGJIHLMM@?$CF30?430s?5?$CF4d?3?5?$AA@
CONST	SEGMENT
??_C@_0O@FGJIHLMM@?$CF30?430s?5?$CF4d?3?5?$AA@ DB '%30.30s %4d: ', 00H ; `string'
; Function compile flags: /Ogtp
CONST	ENDS
;	COMDAT _kb_temp_calloc
_TEXT	SEGMENT
_num$ = 8						; size = 4
_size$ = 12						; size = 4
_file$ = 16						; size = 4
_line$ = 20						; size = 4
_kb_temp_calloc PROC					; COMDAT

; 817  : { char *ptr;

	push	ebp
	mov	ebp, esp

; 818  :   int blocktype = TEMP_BLOCK;
; 819  :  
; 820  :   if ( memdebug )

	cmp	DWORD PTR _memdebug, 0
	push	ebx
	mov	ebx, DWORD PTR _size$[ebp]
	push	esi
	mov	esi, DWORD PTR _line$[ebp]
	push	edi
	mov	edi, DWORD PTR _file$[ebp]
	je	SHORT $LN2@kb_temp_ca

; 821  :   {
; 822  : #ifdef MEMSTRINGS
; 823  :     sprintf(errmsg,"%30.30s %4d: ",file,line);

	push	esi
	push	edi
	push	OFFSET ??_C@_0O@FGJIHLMM@?$CF30?430s?5?$CF4d?3?5?$AA@
	push	OFFSET _errmsg
	call	_sprintf

; 824  :     erroutstring(errmsg);

	push	OFFSET _errmsg
	call	_erroutstring

; 825  : #endif
; 826  :     sprintf(errmsg,"temp_calloc %9ld bytes ",(long)num*size);

	mov	eax, DWORD PTR _num$[ebp]
	imul	eax, ebx
	push	eax
	push	OFFSET ??_C@_0BI@MBINLGOC@temp_calloc?5?$CF9ld?5bytes?5?$AA@
	push	OFFSET _errmsg
	call	_sprintf

; 827  :     erroutstring(errmsg);

	push	OFFSET _errmsg
	call	_erroutstring
	add	esp, 36					; 00000024H
$LN2@kb_temp_ca:

; 828  :   }
; 829  : 
; 830  :   THREADBLOCK(blocktype);  // set GRAPH_BLOCK or TEMP_BLOCK

	call	DWORD PTR __imp__GetCurrentThreadId@0

; 831  : 
; 832  : #ifdef MEMSTRINGS
; 833  :   ptr = list_calloc(num,size,blocktype,file,line);

	mov	edx, DWORD PTR _num$[ebp]
	mov	ecx, eax
	mov	eax, DWORD PTR _draw_thread_id
	sub	eax, ecx
	neg	eax
	sbb	eax, eax
	push	esi
	and	eax, 4369				; 00001111H
	push	edi
	add	eax, 52171				; 0000cbcbH
	push	eax
	push	ebx
	push	edx
	call	_list_calloc
	add	esp, 20					; 00000014H

; 834  : #else
; 835  :   ptr = list_calloc(num,size,blocktype);
; 836  : #endif
; 837  : 
; 838  :   if ( memdebug )

	cmp	DWORD PTR _memdebug, 0
	mov	esi, eax
	je	SHORT $LN5@kb_temp_ca

; 839  :   { sprintf(errmsg,"at %p \n",ptr); erroutstring(errmsg);

	push	esi
	push	OFFSET ??_C@_07DJKLNPDP@at?5?$CFp?5?6?$AA@
	push	OFFSET _errmsg
	call	_sprintf
	push	OFFSET _errmsg
	call	_erroutstring
	add	esp, 16					; 00000010H

; 840  :     mem_sanity_check();

	call	_mem_sanity_check
$LN5@kb_temp_ca:

; 841  :   }
; 842  : 
; 843  :   return ptr;

	pop	edi
	mov	eax, esi
	pop	esi
	pop	ebx

; 844  : } // end kb_temp_calloc()

	pop	ebp
	ret	0
_kb_temp_calloc ENDP
_TEXT	ENDS
PUBLIC	??_C@_08DIHBJGFL@?5at?5?$CFp?5?6?$AA@		; `string'
PUBLIC	??_C@_0DK@NJKNAEBD@?$CF30?430s?5?$CF4d?3?5temp_realloc?6?5old?5s@ ; `string'
PUBLIC	_kb_temp_realloc
;	COMDAT ??_C@_08DIHBJGFL@?5at?5?$CFp?5?6?$AA@
CONST	SEGMENT
??_C@_08DIHBJGFL@?5at?5?$CFp?5?6?$AA@ DB ' at %p ', 0aH, 00H ; `string'
CONST	ENDS
;	COMDAT ??_C@_0DK@NJKNAEBD@?$CF30?430s?5?$CF4d?3?5temp_realloc?6?5old?5s@
CONST	SEGMENT
??_C@_0DK@NJKNAEBD@?$CF30?430s?5?$CF4d?3?5temp_realloc?6?5old?5s@ DB '%30'
	DB	'.30s %4d: temp_realloc', 0aH, ' old size %9d at %p to size %9'
	DB	'd', 00H					; `string'
; Function compile flags: /Ogtp
CONST	ENDS
;	COMDAT _kb_temp_realloc
_TEXT	SEGMENT
_ptr$ = 8						; size = 4
_size$ = 12						; size = 4
_file$ = 16						; size = 4
_line$ = 20						; size = 4
_kb_temp_realloc PROC					; COMDAT

; 867  : {

	push	ebp
	mov	ebp, esp

; 868  :   char *newptr;
; 869  :   int blocktype = TEMP_BLOCK;
; 870  : 
; 871  :   if ( memdebug )

	cmp	DWORD PTR _memdebug, 0
	push	ebx
	mov	ebx, DWORD PTR _file$[ebp]
	push	esi
	mov	esi, DWORD PTR _ptr$[ebp]
	push	edi
	mov	edi, DWORD PTR _line$[ebp]
	je	SHORT $LN2@kb_temp_re

; 872  :   { 
; 873  : #ifdef MEMSTRINGS
; 874  :     sprintf(errmsg,"%30.30s %4d: temp_realloc\n old size %9d at %p to size %9d",
; 875  :          file,line, (ptr ? ((struct memhead *)ptr)[-1].size:0),ptr ,size);

	test	esi, esi
	je	SHORT $LN5@kb_temp_re
	mov	eax, DWORD PTR [esi-40]
	jmp	SHORT $LN6@kb_temp_re
$LN5@kb_temp_re:
	xor	eax, eax
$LN6@kb_temp_re:
	mov	ecx, DWORD PTR _size$[ebp]
	push	ecx
	push	esi
	push	eax
	push	edi
	push	ebx
	push	OFFSET ??_C@_0DK@NJKNAEBD@?$CF30?430s?5?$CF4d?3?5temp_realloc?6?5old?5s@
	push	OFFSET _errmsg
	call	_sprintf

; 876  : #else
; 877  :     sprintf(errmsg,"temp_realloc old %p size %9ld to size %9ld",ptr,
; 878  :           (long)(ptr ? ((struct memhead *)ptr)[-1].size:0 ) ,(long)size);
; 879  : #endif
; 880  :     erroutstring(errmsg);

	push	OFFSET _errmsg
	call	_erroutstring
	add	esp, 32					; 00000020H
$LN2@kb_temp_re:

; 881  :   }
; 882  : 
; 883  :   THREADBLOCK(blocktype);

	call	DWORD PTR __imp__GetCurrentThreadId@0
	mov	edx, eax
	mov	eax, DWORD PTR _draw_thread_id
	sub	eax, edx
	neg	eax
	sbb	eax, eax

; 884  : 
; 885  : #ifdef MEMSTRINGS
; 886  :   newptr = list_realloc(ptr,size,blocktype,file,line);

	push	edi
	and	eax, 4369				; 00001111H
	add	eax, 52171				; 0000cbcbH
	push	ebx
	push	eax
	mov	eax, DWORD PTR _size$[ebp]
	push	eax
	push	esi
	call	_list_realloc
	add	esp, 20					; 00000014H

; 887  : #else
; 888  :   newptr = list_realloc(ptr,size,blocktype);
; 889  : #endif
; 890  : 
; 891  :   if ( memdebug )

	cmp	DWORD PTR _memdebug, 0
	mov	esi, eax
	je	SHORT $LN7@kb_temp_re

; 892  :   { sprintf(errmsg," at %p \n",newptr); erroutstring(errmsg);

	push	esi
	push	OFFSET ??_C@_08DIHBJGFL@?5at?5?$CFp?5?6?$AA@
	push	OFFSET _errmsg
	call	_sprintf
	push	OFFSET _errmsg
	call	_erroutstring
	add	esp, 16					; 00000010H

; 893  :     mem_sanity_check();

	call	_mem_sanity_check
$LN7@kb_temp_re:

; 894  :   }
; 895  : 
; 896  :   return newptr;

	pop	edi
	mov	eax, esi
	pop	esi
	pop	ebx

; 897  : } // end kb_temp_realloc()

	pop	ebp
	ret	0
_kb_temp_realloc ENDP
_TEXT	ENDS
PUBLIC	??_C@_0O@BJHIJOGJ@temp_free?5?$CFp?5?$AA@	; `string'
PUBLIC	_temp_free
;	COMDAT ??_C@_0O@BJHIJOGJ@temp_free?5?$CFp?5?$AA@
CONST	SEGMENT
??_C@_0O@BJHIJOGJ@temp_free?5?$CFp?5?$AA@ DB 'temp_free %p ', 00H ; `string'
; Function compile flags: /Ogtp
CONST	ENDS
;	COMDAT _temp_free
_TEXT	SEGMENT
_ptr$ = 8						; size = 4
_temp_free PROC						; COMDAT

; 909  : {

	push	ebp
	mov	ebp, esp

; 910  :   int blocktype = TEMP_BLOCK;
; 911  :   if ( memdebug )

	cmp	DWORD PTR _memdebug, 0
	push	esi
	mov	esi, DWORD PTR _ptr$[ebp]
	je	SHORT $LN1@temp_free

; 912  :   { 
; 913  :      sprintf(errmsg,"temp_free %p ",ptr);

	push	esi
	push	OFFSET ??_C@_0O@BJHIJOGJ@temp_free?5?$CFp?5?$AA@
	push	OFFSET _errmsg
	call	_sprintf

; 914  :      erroutstring(errmsg);

	push	OFFSET _errmsg
	call	_erroutstring
	add	esp, 16					; 00000010H
$LN1@temp_free:

; 915  :   }
; 916  :   THREADBLOCK(blocktype);

	call	DWORD PTR __imp__GetCurrentThreadId@0
	mov	ecx, eax
	mov	eax, DWORD PTR _draw_thread_id
	sub	eax, ecx
	neg	eax
	sbb	eax, eax
	and	eax, 4369				; 00001111H
	add	eax, 52171				; 0000cbcbH

; 917  : 
; 918  :   list_free(ptr,blocktype);

	push	eax
	push	esi
	call	_list_free
	add	esp, 8
	pop	esi

; 919  : 
; 920  : } /* end temp_free */

	pop	ebp
	ret	0
_temp_free ENDP
_TEXT	ENDS
PUBLIC	??_C@_0BI@PJIBFPPF@Entering?5temp_free_all?6?$AA@ ; `string'
PUBLIC	_temp_free_all
EXTRN	_v_curve:DWORD
EXTRN	_e_curve:DWORD
EXTRN	_vpressures:DWORD
EXTRN	_rightside:DWORD
EXTRN	_vgradbase:DWORD
EXTRN	_conrhs:DWORD
EXTRN	_pressures:DWORD
EXTRN	_vhead:DWORD
EXTRN	_saved:BYTE
;	COMDAT ??_C@_0BI@PJIBFPPF@Entering?5temp_free_all?6?$AA@
CONST	SEGMENT
??_C@_0BI@PJIBFPPF@Entering?5temp_free_all?6?$AA@ DB 'Entering temp_free_'
	DB	'all', 0aH, 00H				; `string'
; Function compile flags: /Ogtp
CONST	ENDS
;	COMDAT _temp_free_all
_TEXT	SEGMENT
_temp_free_all PROC					; COMDAT

; 931  : {

	push	edi

; 932  :   int blocktype = 0;
; 933  : 
; 934  :   #ifdef _DEBUGXX
; 935  :   int oldmemdebug = memdebug;
; 936  :   memdebug=1;
; 937  :   #endif
; 938  :   
; 939  :  if ( memdebug )

	xor	edi, edi
	cmp	DWORD PTR _memdebug, edi
	je	SHORT $LN2@temp_free_

; 940  :     erroutstring("Entering temp_free_all\n");

	push	OFFSET ??_C@_0BI@PJIBFPPF@Entering?5temp_free_all?6?$AA@
	call	_erroutstring
	add	esp, 4
$LN2@temp_free_:

; 941  :     
; 942  :   THREADBLOCK(blocktype);

	push	esi
	call	DWORD PTR __imp__GetCurrentThreadId@0
	mov	esi, DWORD PTR _draw_thread_id
	sub	esi, eax
	neg	esi
	sbb	esi, esi
	and	esi, 4369				; 00001111H
	add	esi, 52171				; 0000cbcbH

; 943  :   list_free_all(blocktype);

	push	esi
	call	_list_free_all
	add	esp, 4

; 944  : 
; 945  :   #ifdef MPI_EVOLVER
; 946  :   if ( this_task == 0 && blocktype != GRAPH_BLOCK )
; 947  :     mpi_temp_free_all();
; 948  :   #endif
; 949  :   
; 950  :   #ifdef _DEBUGXX
; 951  :   memdebug = oldmemdebug;
; 952  :   #endif
; 953  : 
; 954  :   /* pointers to be annulled in main thread */
; 955  :   if ( blocktype == TEMP_BLOCK )

	cmp	esi, 56540				; 0000dcdcH
	pop	esi
	jne	SHORT $LN1@temp_free_

; 956  :   {
; 957  :     saved.coord = NULL;

	mov	DWORD PTR _saved, edi

; 958  :     vhead = NULL;

	mov	DWORD PTR _vhead, edi

; 959  :     pressures = NULL;

	mov	DWORD PTR _pressures, edi

; 960  :     conrhs = NULL;

	mov	DWORD PTR _conrhs, edi

; 961  :     vgradbase = NULL;

	mov	DWORD PTR _vgradbase, edi

; 962  :     rightside = NULL;

	mov	DWORD PTR _rightside, edi

; 963  :     vpressures = NULL;

	mov	DWORD PTR _vpressures, edi

; 964  :     e_curve = NULL;

	mov	DWORD PTR _e_curve, edi

; 965  :     v_curve = NULL;

	mov	DWORD PTR _v_curve, edi
$LN1@temp_free_:
	pop	edi

; 966  :   }
; 967  : } // end temp_free_all()

	ret	0
_temp_free_all ENDP
_TEXT	ENDS
PUBLIC	??_C@_0BC@HLNEFKCI@expanding?5dymem?4?6?$AA@	; `string'
PUBLIC	??_C@_0BM@JFBAMDME@dy_alloc?5?$CFd?$CK?$CFd?5?$DN?5?$CFd?5bytes?4?6?$AA@ ; `string'
PUBLIC	??_C@_06BJONIOEN@DY_MEM?$AA@			; `string'
PUBLIC	??_C@_09GDMJAJJP@UTILITY?4C?$AA@		; `string'
PUBLIC	_dy_calloc
EXTRN	_Extras:BYTE
EXTRN	_Globals:DWORD
EXTRN	_dymemsize:DWORD
;	COMDAT ??_C@_0BC@HLNEFKCI@expanding?5dymem?4?6?$AA@
CONST	SEGMENT
??_C@_0BC@HLNEFKCI@expanding?5dymem?4?6?$AA@ DB 'expanding dymem.', 0aH, 00H ; `string'
CONST	ENDS
;	COMDAT ??_C@_0BM@JFBAMDME@dy_alloc?5?$CFd?$CK?$CFd?5?$DN?5?$CFd?5bytes?4?6?$AA@
CONST	SEGMENT
??_C@_0BM@JFBAMDME@dy_alloc?5?$CFd?$CK?$CFd?5?$DN?5?$CFd?5bytes?4?6?$AA@ DB 'd'
	DB	'y_alloc %d*%d = %d bytes.', 0aH, 00H	; `string'
CONST	ENDS
;	COMDAT ??_C@_06BJONIOEN@DY_MEM?$AA@
CONST	SEGMENT
??_C@_06BJONIOEN@DY_MEM?$AA@ DB 'DY_MEM', 00H		; `string'
CONST	ENDS
;	COMDAT ??_C@_09GDMJAJJP@UTILITY?4C?$AA@
CONST	SEGMENT
??_C@_09GDMJAJJP@UTILITY?4C?$AA@ DB 'UTILITY.C', 00H	; `string'
; Function compile flags: /Ogtp
CONST	ENDS
;	COMDAT _dy_calloc
_TEXT	SEGMENT
_needed$ = 8						; size = 4
_num$ = 8						; size = 4
_size$ = 12						; size = 4
_dy_calloc PROC						; COMDAT

; 1001 : { struct dy_head *ptr,*newptr,*lastptr;

	push	ebp
	mov	ebp, esp
	push	ebx

; 1002 :   DY_OFFSET off;
; 1003 :   int needed;
; 1004 :   int surplus;
; 1005 :   int asize;
; 1006 :   int i;
; 1007 :   
; 1008 :   if ( dymemsize == 0 )  /* initial allocation */

	xor	ebx, ebx
	push	esi
	push	edi
	cmp	DWORD PTR _dymemsize, ebx
	jne	$LN31@dy_calloc

; 1009 :   { if ( sizeof(struct dy_head) % ALIGNSIZE )
; 1010 :     { sprintf(errmsg,
; 1011 :    "Internal error: sizeof(struct dy_head) %ld not multiple of ALIGNSIZE %d\n",
; 1012 :         (long)sizeof(struct dy_head),ALIGNSIZE);
; 1013 :       kb_error(1364,errmsg,UNRECOVERABLE);
; 1014 :     }
; 1015 :     dymem = mycalloc(DY_STARTSIZE,1);

	push	1015					; 000003f7H
	push	OFFSET ??_C@_09GDMJAJJP@UTILITY?4C?$AA@
	push	1
	push	4096					; 00001000H
	call	_kb_calloc

; 1016 :     dymemsize = DY_STARTSIZE;
; 1017 :     strcpy(dymem,"DY_MEM"); /* so looks pretty in debugger */

	mov	ecx, DWORD PTR ??_C@_06BJONIOEN@DY_MEM?$AA@
	mov	DWORD PTR _dymem, eax
	mov	DWORD PTR _dymemsize, 4096		; 00001000H
	mov	DWORD PTR [eax], ecx
	mov	dx, WORD PTR ??_C@_06BJONIOEN@DY_MEM?$AA@+4
	mov	eax, DWORD PTR _dymem
	mov	WORD PTR [eax+4], dx
	mov	cl, BYTE PTR ??_C@_06BJONIOEN@DY_MEM?$AA@+6
	mov	edx, DWORD PTR _dymem
	mov	BYTE PTR [edx+6], cl

; 1018 :     dy_firstblock = sizeof(struct dy_head);
; 1019 :     ptr = (struct dy_head *)dymem+1; /* so offset 0 not used */

	mov	eax, DWORD PTR _dymem
	mov	ecx, 24					; 00000018H
	mov	DWORD PTR _dy_firstblock, ecx

; 1020 :     ptr->size = DY_STARTSIZE-sizeof(struct dy_head);

	mov	DWORD PTR [eax+24], 4072		; 00000fe8H

; 1021 :     ptr->state = DY_FREE;

	mov	DWORD PTR [eax+28], 52394		; 0000ccaaH

; 1022 :     ptr->next = 0;

	mov	DWORD PTR [eax+36], ebx

; 1023 :     ptr->prev = 0;

	mov	DWORD PTR [eax+32], ebx

; 1024 :     dy_lastblock = sizeof(struct dy_head);

	mov	DWORD PTR _dy_lastblock, ecx

; 1025 : 
; 1026 :     dy_freestart = sizeof(struct dy_head);

	mov	DWORD PTR _web+5648, ecx
	add	esp, 16					; 00000010H

; 1027 :     ptr->prevfree = 0; /* first in list */

	mov	DWORD PTR [eax+40], ebx

; 1028 :     ptr->nextfree = 0; /* last in list */

	mov	DWORD PTR [eax+44], ebx
$LN31@dy_calloc:

; 1029 :   }
; 1030 : 
; 1031 :   /* size of needed block */
; 1032 :   asize = ((num*size + ALIGNSIZE - 1)/ALIGNSIZE)*ALIGNSIZE;

	mov	ecx, DWORD PTR _num$[ebp]
	mov	esi, DWORD PTR _size$[ebp]
	mov	eax, ecx
	imul	eax, esi
	add	eax, 7
	cdq
	and	edx, 7
	add	eax, edx

; 1033 :   if ( asize <= dy_minfrag ) asize = dy_minfrag;

	mov	edx, DWORD PTR _dy_minfrag
	sar	eax, 3
	add	eax, eax
	add	eax, eax
	add	eax, eax
	cmp	eax, edx
	jg	SHORT $LN29@dy_calloc
	mov	eax, edx
$LN29@dy_calloc:

; 1034 :   needed = sizeof(struct dy_head) + asize;

	lea	edi, DWORD PTR [eax+24]
	mov	DWORD PTR _needed$[ebp], edi

; 1035 : 
; 1036 :   if ( memdebug )

	cmp	DWORD PTR _memdebug, ebx
	je	SHORT $LN51@dy_calloc

; 1037 :   { sprintf(errmsg,"dy_alloc %d*%d = %d bytes.\n",num,size,asize);

	push	eax
	push	esi
	push	ecx
	push	OFFSET ??_C@_0BM@JFBAMDME@dy_alloc?5?$CFd?$CK?$CFd?5?$DN?5?$CFd?5bytes?4?6?$AA@
	push	OFFSET _errmsg
	call	_sprintf

; 1038 :     erroutstring(errmsg);

	push	OFFSET _errmsg
	call	_erroutstring
	add	esp, 24					; 00000018H
$LN51@dy_calloc:
	mov	edx, DWORD PTR _web+5648
$retry_alloc$89471:

; 1039 :   }
; 1040 : 
; 1041 : retry_alloc: 
; 1042 : 
; 1043 :   /* look for first fit in free block list */
; 1044 :   if ( dy_freestart )

	cmp	edx, ebx

; 1045 :     for ( off = dy_freestart ; off > 0 ; off = ptr->nextfree )

	jle	SHORT $LN38@dy_calloc
	mov	ecx, DWORD PTR _dymem
	npad	1
$LL26@dy_calloc:

; 1046 :     { 
; 1047 :       ptr = (struct dy_head *)(dymem + off);
; 1048 :       /* check size */
; 1049 :       if ( needed > ptr->size )

	cmp	edi, DWORD PTR [ecx+edx]
	lea	eax, DWORD PTR [ecx+edx]
	jle	$LN21@dy_calloc

; 1050 :       { if ( ptr->nextfree == 0 ) break;

	mov	eax, DWORD PTR [eax+20]
	cmp	eax, ebx
	je	SHORT $LN38@dy_calloc

; 1045 :     for ( off = dy_freestart ; off > 0 ; off = ptr->nextfree )

	mov	edx, eax
	cmp	edx, ebx
	jg	SHORT $LL26@dy_calloc
$LN38@dy_calloc:

; 1098 :     }
; 1099 : 
; 1100 :   /* if here, then no block big enough */
; 1101 :   if ( memdebug ) erroutstring ("expanding dymem.\n");

	cmp	DWORD PTR _memdebug, ebx
	je	SHORT $LN7@dy_calloc
	push	OFFSET ??_C@_0BC@HLNEFKCI@expanding?5dymem?4?6?$AA@
	call	_erroutstring
	add	esp, 4
$LN7@dy_calloc:

; 1102 :   ENTER_GRAPH_MUTEX

	mov	esi, DWORD PTR __imp__GetCurrentThreadId@0
	call	esi
	cmp	DWORD PTR _locking_thread, eax
	je	SHORT $LN6@dy_calloc
	push	ebx
	push	100000					; 000186a0H
	push	ebx
	push	OFFSET _graphmutex
	push	1
	call	DWORD PTR __imp__MsgWaitForMultipleObjects@20
	call	esi
	mov	DWORD PTR _locking_thread, eax
	mov	esi, 1
	jmp	SHORT $LN5@dy_calloc
$LN6@dy_calloc:
	xor	esi, esi
$LN5@dy_calloc:

; 1103 :   dymem = kb_realloc(dymem,2*dymemsize);

	mov	eax, DWORD PTR _dymemsize
	mov	edx, DWORD PTR _dymem
	push	1103					; 0000044fH
	push	OFFSET ??_C@_09GDMJAJJP@UTILITY?4C?$AA@
	lea	ecx, DWORD PTR [eax+eax]
	push	ecx
	push	edx
	call	_KB_realloc
	add	esp, 16					; 00000010H
	mov	DWORD PTR _dymem, eax

; 1104 :   LEAVE_GRAPH_MUTEX

	cmp	esi, ebx
	je	SHORT $LN4@dy_calloc
	mov	eax, DWORD PTR _graphmutex
	push	eax
	mov	DWORD PTR _locking_thread, ebx
	call	DWORD PTR __imp__ReleaseMutex@4
	mov	eax, DWORD PTR _dymem
$LN4@dy_calloc:

; 1105 :   lastptr = (struct dy_head *)(dymem + dy_lastblock);

	mov	ecx, DWORD PTR _dy_lastblock

; 1106 : 
; 1107 :   if ( lastptr->state == DY_FREE )

	mov	edx, 52394				; 0000ccaaH
	cmp	DWORD PTR [ecx+eax+4], edx
	jne	SHORT $LN3@dy_calloc

; 1108 :     { /* combine with last block */
; 1109 :       lastptr->size += dymemsize;

	mov	edx, DWORD PTR _dymemsize
	add	DWORD PTR [ecx+eax], edx

; 1126 :     }
; 1127 :       
; 1128 :   dymemsize = 2*dymemsize;

	mov	eax, DWORD PTR _dymemsize
	mov	edx, DWORD PTR _web+5648
	lea	ecx, DWORD PTR [eax+eax]
	mov	DWORD PTR _dymemsize, ecx

; 1129 :   goto retry_alloc;

	jmp	$retry_alloc$89471
$LN3@dy_calloc:

; 1110 :     }
; 1111 :   else 
; 1112 :     { /* put in free block list at head */
; 1113 :       ptr = (struct dy_head *)(dymem + dymemsize);

	mov	ecx, DWORD PTR _dymemsize
	add	eax, ecx

; 1114 :       ptr->size = dymemsize;

	mov	DWORD PTR [eax], ecx

; 1115 :       ptr->state = DY_FREE;

	mov	DWORD PTR [eax+4], edx

; 1116 :       ptr->prev = dy_lastblock;

	mov	ecx, DWORD PTR _dy_lastblock
	mov	DWORD PTR [eax+8], ecx

; 1117 :       ptr->next = 0;

	mov	DWORD PTR [eax+12], ebx

; 1118 :       lastptr = (struct dy_head *)(dymem + dy_lastblock);

	mov	ecx, DWORD PTR _dy_lastblock

; 1119 :       dy_lastblock = dymemsize;

	mov	edx, DWORD PTR _dymemsize
	add	ecx, DWORD PTR _dymem
	mov	DWORD PTR _dy_lastblock, edx

; 1120 :       lastptr->next = dymemsize;

	mov	DWORD PTR [ecx+12], edx

; 1121 :       ptr->prevfree = 0;

	mov	DWORD PTR [eax+16], ebx

; 1122 :       ptr->nextfree = dy_freestart;

	mov	edx, DWORD PTR _web+5648
	mov	DWORD PTR [eax+20], edx

; 1123 :       if ( dy_freestart )

	mov	eax, DWORD PTR _web+5648
	cmp	eax, ebx
	je	SHORT $LN1@dy_calloc

; 1124 :          ((struct dy_head *)(dymem+dy_freestart))->prevfree = dymemsize;

	mov	ecx, DWORD PTR _dymemsize
	mov	edx, DWORD PTR _dymem
	mov	DWORD PTR [eax+edx+16], ecx
$LN1@dy_calloc:

; 1125 :       dy_freestart = dymemsize;

	mov	edx, DWORD PTR _dymemsize

; 1126 :     }
; 1127 :       
; 1128 :   dymemsize = 2*dymemsize;

	mov	eax, edx
	lea	ecx, DWORD PTR [eax+eax]
	mov	DWORD PTR _web+5648, edx
	mov	DWORD PTR _dymemsize, ecx

; 1129 :   goto retry_alloc;

	jmp	$retry_alloc$89471
$LN21@dy_calloc:

; 1051 :         else continue;
; 1052 :       }
; 1053 :       surplus = ptr->size - needed;

	mov	esi, DWORD PTR [eax]
	sub	esi, edi

; 1054 :       if ( surplus > dy_minfrag )

	cmp	esi, DWORD PTR _dy_minfrag
	jle	SHORT $LN20@dy_calloc

; 1055 :       { /* divide block */
; 1056 :         newptr = (struct dy_head *)(dymem + off + needed);

	add	ecx, edx
	add	ecx, edi

; 1057 :         newptr->size = ptr->size - needed;

	mov	DWORD PTR [ecx], esi

; 1058 :         newptr->state = DY_FREE;

	mov	DWORD PTR [ecx+4], 52394		; 0000ccaaH

; 1059 :         newptr->next = ptr->next;

	mov	esi, DWORD PTR [eax+12]

; 1060 :         newptr->prev = off;
; 1061 :         if ( newptr->next )

	mov	edi, esi
	mov	DWORD PTR [ecx+12], esi

; 1062 :            ((struct dy_head *)(dymem + newptr->next))->prev = 
; 1063 :                 off + needed; 

	mov	esi, DWORD PTR _needed$[ebp]
	add	esi, edx
	mov	DWORD PTR [ecx+8], edx
	cmp	edi, ebx
	je	SHORT $LN19@dy_calloc
	mov	ebx, DWORD PTR _dymem
	mov	DWORD PTR [edi+ebx+8], esi

; 1064 :         else 

	xor	ebx, ebx
	jmp	SHORT $LN18@dy_calloc
$LN19@dy_calloc:

; 1065 :            dy_lastblock = off + needed;

	mov	DWORD PTR _dy_lastblock, esi
$LN18@dy_calloc:

; 1066 :         newptr->nextfree = ptr->nextfree;

	mov	edi, DWORD PTR [eax+20]
	mov	DWORD PTR [ecx+20], edi

; 1067 :         newptr->prevfree = ptr->prevfree;

	mov	edi, DWORD PTR [eax+16]
	mov	DWORD PTR [ecx+16], edi

; 1068 : 
; 1069 :         ptr->size = needed;

	mov	ecx, DWORD PTR _needed$[ebp]
	mov	DWORD PTR [eax], ecx

; 1070 :         ptr->next = off + needed;
; 1071 :         if (ptr->prevfree )

	mov	ecx, DWORD PTR [eax+16]
	mov	DWORD PTR [eax+12], esi
	cmp	ecx, ebx
	je	SHORT $LN17@dy_calloc

; 1072 :          ((struct dy_head *)(dymem + ptr->prevfree))->nextfree = off + needed;

	mov	edi, DWORD PTR _dymem
	mov	DWORD PTR [ecx+edi+20], esi
	jmp	SHORT $LN16@dy_calloc
$LN17@dy_calloc:

; 1073 :         else dy_freestart = off + needed;

	mov	DWORD PTR _web+5648, esi
$LN16@dy_calloc:

; 1074 :         if ( ptr->nextfree )

	mov	ecx, DWORD PTR [eax+20]
	cmp	ecx, ebx
	je	SHORT $LN14@dy_calloc

; 1075 :          ((struct dy_head *)(dymem + ptr->nextfree))->prevfree = off + needed;

	mov	edi, DWORD PTR _dymem
	mov	DWORD PTR [ecx+edi+16], esi

; 1076 :       }
; 1077 :       else

	jmp	SHORT $LN14@dy_calloc
$LN20@dy_calloc:

; 1078 :       { /* remove from freelist */
; 1079 :         if ( ptr->prevfree )

	mov	esi, DWORD PTR [eax+16]
	cmp	esi, ebx
	je	SHORT $LN13@dy_calloc

; 1080 :            ((struct dy_head *)(dymem + ptr->prevfree))->nextfree 
; 1081 :                 = ptr->nextfree;

	mov	edi, DWORD PTR [eax+20]
	mov	DWORD PTR [esi+ecx+20], edi
	mov	ecx, DWORD PTR _dymem
	jmp	SHORT $LN12@dy_calloc
$LN13@dy_calloc:

; 1082 :         else dy_freestart = ptr->nextfree;

	mov	esi, DWORD PTR [eax+20]
	mov	DWORD PTR _web+5648, esi
$LN12@dy_calloc:

; 1083 :         if ( ptr->nextfree )

	mov	esi, DWORD PTR [eax+20]
	cmp	esi, ebx
	je	SHORT $LN11@dy_calloc

; 1084 :            ((struct dy_head *)(dymem + ptr->nextfree))->prevfree 
; 1085 :                 = ptr->prevfree;

	mov	edi, DWORD PTR [eax+16]
	mov	DWORD PTR [esi+ecx+16], edi
$LN11@dy_calloc:

; 1086 :         ptr->nextfree = 0;     

	mov	DWORD PTR [eax+20], ebx

; 1087 :         ptr->prevfree = 0;

	mov	DWORD PTR [eax+16], ebx
$LN14@dy_calloc:

; 1088 :       }
; 1089 :       ptr->state = DY_USED;

	mov	DWORD PTR [eax+4], 56763		; 0000ddbbH

; 1090 : #ifdef _DEBUG
; 1091 : dy_check();
; 1092 : #endif
; 1093 :       /* some handy debugging equivalences */
; 1094 :       Globals = (struct global **)(dymem + dy_globals);

	mov	eax, DWORD PTR _dymem
	mov	ecx, DWORD PTR _web+5652
	add	ecx, eax
	mov	DWORD PTR _Globals, ecx

; 1095 :       for ( i = 0 ; i < NUMELEMENTS ; i++ )
; 1096 :        Extras[i] = EXTRAS(i);

	mov	ecx, DWORD PTR _web+104
	add	ecx, eax
	mov	DWORD PTR _Extras, ecx
	mov	ecx, DWORD PTR _web+216
	add	ecx, eax
	mov	DWORD PTR _Extras+4, ecx
	mov	ecx, DWORD PTR _web+328
	add	ecx, eax
	mov	DWORD PTR _Extras+8, ecx
	mov	ecx, DWORD PTR _web+440
	add	ecx, eax
	mov	DWORD PTR _Extras+12, ecx
	mov	ecx, DWORD PTR _web+552
	pop	edi
	add	ecx, eax
	pop	esi
	mov	DWORD PTR _Extras+16, ecx

; 1097 :       return off + sizeof(struct dy_head);

	lea	eax, DWORD PTR [edx+24]
	pop	ebx

; 1130 : 
; 1131 : } // end dy_calloc()

	pop	ebp
	ret	0
_dy_calloc ENDP
_TEXT	ENDS
PUBLIC	??_C@_0DG@JAJGHDAM@Internal?5error?3?5Trying?5to?5dy_fre@ ; `string'
PUBLIC	_dy_free
;	COMDAT ??_C@_0DG@JAJGHDAM@Internal?5error?3?5Trying?5to?5dy_fre@
CONST	SEGMENT
??_C@_0DG@JAJGHDAM@Internal?5error?3?5Trying?5to?5dy_fre@ DB 'Internal er'
	DB	'ror: Trying to dy_free unallocated block.', 0aH, 00H ; `string'
; Function compile flags: /Ogtp
CONST	ENDS
;	COMDAT _dy_free
_TEXT	SEGMENT
_spot$ = 8						; size = 4
_dy_free PROC						; COMDAT

; 1168 : { DY_OFFSET off = spot - sizeof(struct dy_head);

	push	ebp
	mov	ebp, esp
	push	ebx
	push	esi

; 1169 :   struct dy_head *ptr = (struct dy_head *)(dymem + off);

	mov	esi, DWORD PTR _dymem
	push	edi
	mov	edi, DWORD PTR _spot$[ebp]
	lea	ebx, DWORD PTR [edi-24]
	add	esi, ebx

; 1170 :   struct dy_head *prevhead,*nexthead;
; 1171 : 
; 1172 :   if ( ptr->state != DY_USED )

	cmp	DWORD PTR [esi+4], 56763		; 0000ddbbH
	je	SHORT $LN16@dy_free

; 1173 :      kb_error(1366,"Internal error: Trying to dy_free unallocated block.\n",
; 1174 :        RECOVERABLE);

	push	1
	push	OFFSET ??_C@_0DG@JAJGHDAM@Internal?5error?3?5Trying?5to?5dy_fre@
	push	1366					; 00000556H
	call	_kb_error
	add	esp, 12					; 0000000cH
$LN16@dy_free:

; 1175 : 
; 1176 :   memset(dymem+spot,0,ptr->size - dy_overhead);

	mov	ecx, DWORD PTR [esi]
	sub	ecx, DWORD PTR _dy_overhead
	mov	edx, DWORD PTR _dymem
	push	ecx
	add	edx, edi
	push	0
	push	edx
	call	_memset

; 1177 :   ptr->nextfree = dy_freestart;

	mov	eax, DWORD PTR _web+5648
	mov	DWORD PTR [esi+20], eax

; 1178 :   ptr->prevfree = 0;

	mov	DWORD PTR [esi+16], 0

; 1179 :   if ( dy_freestart )

	mov	eax, DWORD PTR _web+5648
	add	esp, 12					; 0000000cH
	test	eax, eax
	je	SHORT $LN15@dy_free

; 1180 :      ((struct dy_head *)(dymem + dy_freestart))->prevfree = off;

	mov	ecx, DWORD PTR _dymem
	mov	DWORD PTR [eax+ecx+16], ebx
$LN15@dy_free:

; 1181 :   dy_freestart = off;

	mov	DWORD PTR _web+5648, ebx

; 1182 :   ptr->state = DY_FREE;
; 1183 :  
; 1184 :   /* see if can combine with nbrs */
; 1185 :   /* check preceding block */
; 1186 :   if ( ptr->prev )

	mov	eax, DWORD PTR [esi+8]
	mov	edx, 52394				; 0000ccaaH
	mov	DWORD PTR [esi+4], edx
	test	eax, eax
	je	$LN19@dy_free

; 1187 :     { prevhead = (struct dy_head *)(dymem + ptr->prev);

	mov	ecx, DWORD PTR _dymem
	add	ecx, eax

; 1188 :       if ( prevhead->state == DY_FREE )

	cmp	DWORD PTR [ecx+4], edx
	jne	SHORT $LN19@dy_free

; 1189 :       { /* combine */
; 1190 :         prevhead->size += ptr->size;

	mov	eax, DWORD PTR [esi]
	add	DWORD PTR [ecx], eax

; 1191 :         prevhead->next = ptr->next;

	mov	eax, DWORD PTR [esi+12]
	mov	DWORD PTR [ecx+12], eax

; 1192 :         if ( ptr->next )

	mov	eax, DWORD PTR [esi+12]
	test	eax, eax
	je	SHORT $LN12@dy_free

; 1193 :         { nexthead = (struct dy_head *)(dymem + ptr->next);
; 1194 :           nexthead->prev = ptr->prev;

	mov	edx, DWORD PTR [esi+8]
	mov	edi, DWORD PTR _dymem
	mov	DWORD PTR [eax+edi+8], edx
	mov	edx, 52394				; 0000ccaaH
$LN12@dy_free:

; 1195 :         }
; 1196 :         if ( off == dy_lastblock ) 

	cmp	ebx, DWORD PTR _dy_lastblock
	jne	SHORT $LN11@dy_free

; 1197 :           dy_lastblock = ptr->prev;

	mov	eax, DWORD PTR [esi+8]
	mov	DWORD PTR _dy_lastblock, eax
$LN11@dy_free:

; 1198 :         /* remove from freelist */
; 1199 :         if ( ptr->nextfree )

	mov	eax, DWORD PTR [esi+20]
	test	eax, eax
	je	SHORT $LN10@dy_free

; 1200 :           ((struct dy_head*)(dymem+ptr->nextfree))->prevfree = ptr->prevfree; 

	mov	edi, DWORD PTR [esi+16]
	mov	ebx, DWORD PTR _dymem
	mov	DWORD PTR [eax+ebx+16], edi
$LN10@dy_free:

; 1201 :         if ( ptr->prevfree )

	mov	eax, DWORD PTR [esi+16]
	test	eax, eax
	je	SHORT $LN9@dy_free

; 1202 :           ((struct dy_head*)(dymem+ptr->prevfree))->nextfree = ptr->nextfree; 

	mov	edi, DWORD PTR [esi+20]
	mov	ebx, DWORD PTR _dymem
	mov	DWORD PTR [eax+ebx+20], edi
	jmp	SHORT $LN8@dy_free
$LN9@dy_free:

; 1203 :         else dy_freestart = ptr->nextfree;

	mov	eax, DWORD PTR [esi+20]
	mov	DWORD PTR _web+5648, eax
$LN8@dy_free:

; 1204 :         memset((char*)ptr,0,sizeof(struct dy_head));

	xor	eax, eax
	mov	DWORD PTR [esi], eax
	mov	DWORD PTR [esi+4], eax
	mov	DWORD PTR [esi+8], eax
	mov	DWORD PTR [esi+12], eax
	mov	DWORD PTR [esi+16], eax
	mov	DWORD PTR [esi+20], eax

; 1205 :         ptr = prevhead;  /* ready for next stage of combining */

	mov	esi, ecx
$LN19@dy_free:

; 1206 :         
; 1207 :       }
; 1208 :     } 
; 1209 :   /* check following block */
; 1210 :   if ( ptr->next )

	mov	ecx, DWORD PTR [esi+12]
	test	ecx, ecx
	je	$LN6@dy_free

; 1211 :     { nexthead = (struct dy_head *)(dymem + ptr->next);

	mov	eax, DWORD PTR _dymem
	add	eax, ecx

; 1212 :       if ( nexthead->state == DY_FREE )

	cmp	DWORD PTR [eax+4], edx
	jne	SHORT $LN6@dy_free

; 1213 :       { /* combine */
; 1214 :         if ( ptr->next == dy_lastblock )

	cmp	ecx, DWORD PTR _dy_lastblock
	jne	SHORT $LN5@dy_free

; 1215 :            dy_lastblock = nexthead->prev;

	mov	ecx, DWORD PTR [eax+8]
	mov	DWORD PTR _dy_lastblock, ecx
$LN5@dy_free:

; 1216 :         prevhead = ptr; ptr = nexthead;
; 1217 :         prevhead->size += ptr->size;

	mov	edx, DWORD PTR [eax]
	add	DWORD PTR [esi], edx

; 1218 :         prevhead->next = ptr->next;

	mov	ecx, DWORD PTR [eax+12]
	mov	DWORD PTR [esi+12], ecx

; 1219 :         if ( ptr->next )

	cmp	DWORD PTR [eax+12], 0
	je	SHORT $LN4@dy_free

; 1220 :         { nexthead = (struct dy_head *)(dymem + ptr->next);
; 1221 :           nexthead->prev = ptr->prev;

	mov	edx, DWORD PTR [eax+12]
	mov	ecx, DWORD PTR [eax+8]
	mov	esi, DWORD PTR _dymem
	mov	DWORD PTR [esi+edx+8], ecx
$LN4@dy_free:

; 1222 :         }
; 1223 :         /* remove from freelist */
; 1224 :         if ( ptr->nextfree )

	mov	ecx, DWORD PTR [eax+20]
	test	ecx, ecx
	je	SHORT $LN3@dy_free

; 1225 :           ((struct dy_head*)(dymem+ptr->nextfree))->prevfree = ptr->prevfree; 

	mov	edx, DWORD PTR [eax+16]
	mov	esi, DWORD PTR _dymem
	mov	DWORD PTR [ecx+esi+16], edx
$LN3@dy_free:

; 1226 :         if ( ptr->prevfree )

	mov	ecx, DWORD PTR [eax+16]
	test	ecx, ecx
	je	SHORT $LN2@dy_free

; 1227 :           ((struct dy_head*)(dymem+ptr->prevfree))->nextfree = ptr->nextfree; 

	mov	edx, DWORD PTR [eax+20]
	mov	esi, DWORD PTR _dymem
	mov	DWORD PTR [ecx+esi+20], edx
	jmp	SHORT $LN1@dy_free
$LN2@dy_free:

; 1228 :         else dy_freestart = ptr->nextfree;

	mov	ecx, DWORD PTR [eax+20]
	mov	DWORD PTR _web+5648, ecx
$LN1@dy_free:

; 1229 :         memset((char*)ptr,0,sizeof(struct dy_head));

	xor	ecx, ecx
	mov	DWORD PTR [eax], ecx
	mov	DWORD PTR [eax+4], ecx
	mov	DWORD PTR [eax+8], ecx
	mov	DWORD PTR [eax+12], ecx
	mov	DWORD PTR [eax+16], ecx
	mov	DWORD PTR [eax+20], ecx
$LN6@dy_free:
	pop	edi
	pop	esi
	pop	ebx

; 1230 :       }
; 1231 :     } 
; 1232 : #ifdef _DEBUG
; 1233 : dy_check();
; 1234 : #endif
; 1235 : } // end dy_free()

	pop	ebp
	ret	0
_dy_free ENDP
_TEXT	ENDS
PUBLIC	??_C@_0CM@DMCICLJE@Internal?5error?3?5Corrupt?5dy_mem?$DL?5@ ; `string'
PUBLIC	??_C@_0CL@EODFGNKG@Internal?5error?3?5Corrupt?5dy_mem?5f@ ; `string'
PUBLIC	??_C@_0CK@FLAKKPJG@Internal?5error?3?5Corrupt?5dy_mem?5p@ ; `string'
PUBLIC	??_C@_0CK@HNFCHIJB@Internal?5error?3?5Corrupt?5dy_mem?5n@ ; `string'
PUBLIC	??_C@_0CH@KAEKLJAB@Dymem?5used?5blocks?3?5?$CFd?5?5used?5byte@ ; `string'
PUBLIC	??_C@_0CH@EEKOGFAF@Dymem?5free?5blocks?3?5?$CFd?5?5free?5byte@ ; `string'
PUBLIC	??_C@_0BB@CGKMLEBG@Dymem?5arena?3?5?$CFd?6?$AA@	; `string'
PUBLIC	??_C@_0CL@POAFLIHG@Internal?5error?3?5Corrupt?5dy_mem?$DL?5@ ; `string'
PUBLIC	_dy_check
;	COMDAT ??_C@_0CM@DMCICLJE@Internal?5error?3?5Corrupt?5dy_mem?$DL?5@
CONST	SEGMENT
??_C@_0CM@DMCICLJE@Internal?5error?3?5Corrupt?5dy_mem?$DL?5@ DB 'Internal'
	DB	' error: Corrupt dy_mem; bad state.', 0aH, 00H ; `string'
CONST	ENDS
;	COMDAT ??_C@_0CL@EODFGNKG@Internal?5error?3?5Corrupt?5dy_mem?5f@
CONST	SEGMENT
??_C@_0CL@EODFGNKG@Internal?5error?3?5Corrupt?5dy_mem?5f@ DB 'Internal er'
	DB	'ror: Corrupt dy_mem free list.', 0aH, 00H	; `string'
CONST	ENDS
;	COMDAT ??_C@_0CK@FLAKKPJG@Internal?5error?3?5Corrupt?5dy_mem?5p@
CONST	SEGMENT
??_C@_0CK@FLAKKPJG@Internal?5error?3?5Corrupt?5dy_mem?5p@ DB 'Internal er'
	DB	'ror: Corrupt dy_mem prevfree.', 0aH, 00H	; `string'
CONST	ENDS
;	COMDAT ??_C@_0CK@HNFCHIJB@Internal?5error?3?5Corrupt?5dy_mem?5n@
CONST	SEGMENT
??_C@_0CK@HNFCHIJB@Internal?5error?3?5Corrupt?5dy_mem?5n@ DB 'Internal er'
	DB	'ror: Corrupt dy_mem nextfree.', 0aH, 00H	; `string'
CONST	ENDS
;	COMDAT ??_C@_0CH@KAEKLJAB@Dymem?5used?5blocks?3?5?$CFd?5?5used?5byte@
CONST	SEGMENT
??_C@_0CH@KAEKLJAB@Dymem?5used?5blocks?3?5?$CFd?5?5used?5byte@ DB 'Dymem '
	DB	'used blocks: %d  used bytes: %d', 0aH, 00H	; `string'
CONST	ENDS
;	COMDAT ??_C@_0CH@EEKOGFAF@Dymem?5free?5blocks?3?5?$CFd?5?5free?5byte@
CONST	SEGMENT
??_C@_0CH@EEKOGFAF@Dymem?5free?5blocks?3?5?$CFd?5?5free?5byte@ DB 'Dymem '
	DB	'free blocks: %d  free bytes: %d', 0aH, 00H	; `string'
CONST	ENDS
;	COMDAT ??_C@_0BB@CGKMLEBG@Dymem?5arena?3?5?$CFd?6?$AA@
CONST	SEGMENT
??_C@_0BB@CGKMLEBG@Dymem?5arena?3?5?$CFd?6?$AA@ DB 'Dymem arena: %d', 0aH
	DB	00H						; `string'
CONST	ENDS
;	COMDAT ??_C@_0CL@POAFLIHG@Internal?5error?3?5Corrupt?5dy_mem?$DL?5@
CONST	SEGMENT
??_C@_0CL@POAFLIHG@Internal?5error?3?5Corrupt?5dy_mem?$DL?5@ DB 'Internal'
	DB	' error: Corrupt dy_mem; bad prev.', 0aH, 00H ; `string'
; Function compile flags: /Ogtp
CONST	ENDS
;	COMDAT _dy_check
_TEXT	SEGMENT
_usedblocks$ = -8					; size = 4
_freeblocks$ = -4					; size = 4
_dy_check PROC						; COMDAT

; 1238 : {

	push	ebp
	mov	ebp, esp
	sub	esp, 8

; 1239 :   struct dy_head *head,*nexthead;
; 1240 :   int freeblocks = 0;
; 1241 :   int usedblocks = 0;
; 1242 :   int freebytes = 0;
; 1243 :   int usedbytes = 0;
; 1244 :   DY_OFFSET off;
; 1245 : 
; 1246 :   for ( off = dy_firstblock ; off != 0 ; off = head->next )

	mov	eax, DWORD PTR _dy_firstblock
	mov	ecx, DWORD PTR _dymem
	push	ebx
	push	esi
	push	edi
	xor	edi, edi
	xor	ebx, ebx
	mov	DWORD PTR _freeblocks$[ebp], edi
	mov	DWORD PTR _usedblocks$[ebp], edi
	cmp	eax, edi
	je	SHORT $LN17@dy_check
$LL29@dy_check:

; 1247 :   { head = (struct dy_head *)(dymem + off);
; 1248 :     switch ( head->state )

	mov	edx, DWORD PTR [ecx+eax+4]
	cmp	edx, 52394				; 0000ccaaH
	je	SHORT $LN14@dy_check
	cmp	edx, 56763				; 0000ddbbH
	jne	$LN24@dy_check

; 1250 :       case DY_USED: usedblocks++; usedbytes += head->size; break;

	inc	DWORD PTR _usedblocks$[ebp]
	add	ebx, DWORD PTR [ecx+eax]
	jmp	SHORT $LN15@dy_check
$LN14@dy_check:

; 1249 :     { case DY_FREE: freeblocks++; freebytes += head->size; break;

	inc	DWORD PTR _freeblocks$[ebp]
	add	edi, DWORD PTR [ecx+eax]
$LN15@dy_check:

; 1253 :          return;
; 1254 :     }
; 1255 :     if ( head->next )

	mov	edx, DWORD PTR [ecx+eax+12]
	lea	esi, DWORD PTR [ecx+eax+12]
	test	edx, edx
	je	SHORT $LN18@dy_check

; 1256 :     { nexthead = (struct dy_head *)(dymem + head->next);
; 1257 :       if ( off != nexthead->prev )

	cmp	eax, DWORD PTR [edx+ecx+8]
	je	SHORT $LN18@dy_check

; 1258 :         kb_error(2469,"Internal error: Corrupt dy_mem; bad prev.\n",RECOVERABLE);

	push	1
	push	OFFSET ??_C@_0CL@POAFLIHG@Internal?5error?3?5Corrupt?5dy_mem?$DL?5@
	push	2469					; 000009a5H
	call	_kb_error
	mov	ecx, DWORD PTR _dymem
	add	esp, 12					; 0000000cH
$LN18@dy_check:

; 1239 :   struct dy_head *head,*nexthead;
; 1240 :   int freeblocks = 0;
; 1241 :   int usedblocks = 0;
; 1242 :   int freebytes = 0;
; 1243 :   int usedbytes = 0;
; 1244 :   DY_OFFSET off;
; 1245 : 
; 1246 :   for ( off = dy_firstblock ; off != 0 ; off = head->next )

	mov	eax, DWORD PTR [esi]
	test	eax, eax
	jne	SHORT $LL29@dy_check
$LN17@dy_check:

; 1259 :     }
; 1260 :   }
; 1261 : 
; 1262 :   if ( memdebug )

	cmp	DWORD PTR _memdebug, 0
	je	SHORT $LN9@dy_check

; 1263 :   { sprintf(errmsg,"Dymem arena: %d\n",dymemsize);

	mov	eax, DWORD PTR _dymemsize
	push	eax
	push	OFFSET ??_C@_0BB@CGKMLEBG@Dymem?5arena?3?5?$CFd?6?$AA@
	push	OFFSET _errmsg
	call	_sprintf

; 1264 :     erroutstring(errmsg);

	push	OFFSET _errmsg
	call	_erroutstring

; 1265 :     sprintf(errmsg,"Dymem free blocks: %d  free bytes: %d\n",freeblocks,freebytes);

	mov	ecx, DWORD PTR _freeblocks$[ebp]
	push	edi
	push	ecx
	push	OFFSET ??_C@_0CH@EEKOGFAF@Dymem?5free?5blocks?3?5?$CFd?5?5free?5byte@
	push	OFFSET _errmsg
	call	_sprintf

; 1266 :     erroutstring(errmsg);

	push	OFFSET _errmsg
	call	_erroutstring

; 1267 :     sprintf(errmsg,"Dymem used blocks: %d  used bytes: %d\n",usedblocks,usedbytes);

	mov	edx, DWORD PTR _usedblocks$[ebp]
	push	ebx
	push	edx
	push	OFFSET ??_C@_0CH@KAEKLJAB@Dymem?5used?5blocks?3?5?$CFd?5?5used?5byte@
	push	OFFSET _errmsg
	call	_sprintf

; 1268 :     erroutstring(errmsg);

	push	OFFSET _errmsg
	call	_erroutstring
	mov	ecx, DWORD PTR _dymem
	add	esp, 56					; 00000038H
$LN9@dy_check:

; 1269 :   }
; 1270 : 
; 1271 :   /* check freelist integrity */
; 1272 :   for ( off = dy_freestart ; (off != 0) && freeblocks ; off = head->nextfree )

	mov	esi, DWORD PTR _web+5648
	test	esi, esi
	je	SHORT $LN31@dy_check
$LL8@dy_check:
	cmp	DWORD PTR _freeblocks$[ebp], 0
	je	SHORT $LN27@dy_check

; 1273 :   { head = (struct dy_head *)(dymem + off);
; 1274 :     if ( head->state != DY_FREE )

	cmp	DWORD PTR [ecx+esi+4], 52394		; 0000ccaaH
	lea	edi, DWORD PTR [ecx+esi]
	je	SHORT $LN30@dy_check

; 1275 :        kb_error(2555,"Internal error: Corrupt dy_mem nextfree.\n",RECOVERABLE);

	push	1
	push	OFFSET ??_C@_0CK@HNFCHIJB@Internal?5error?3?5Corrupt?5dy_mem?5n@
	push	2555					; 000009fbH
	call	_kb_error
	mov	ecx, DWORD PTR _dymem
	add	esp, 12					; 0000000cH
$LN30@dy_check:

; 1276 :     if ( head->nextfree )

	mov	eax, DWORD PTR [edi+20]
	test	eax, eax
	je	SHORT $LN32@dy_check

; 1277 :     { nexthead = (struct dy_head *)(dymem + head->nextfree);
; 1278 :       if ( off != nexthead->prevfree )

	cmp	esi, DWORD PTR [eax+ecx+16]
	je	SHORT $LN32@dy_check

; 1279 :         kb_error(2470,"Internal error: Corrupt dy_mem prevfree.\n",RECOVERABLE);

	push	1
	push	OFFSET ??_C@_0CK@FLAKKPJG@Internal?5error?3?5Corrupt?5dy_mem?5p@
	push	2470					; 000009a6H
	call	_kb_error
	mov	ecx, DWORD PTR _dymem
	add	esp, 12					; 0000000cH
$LN32@dy_check:

; 1280 :     }
; 1281 :     freeblocks--;

	mov	esi, DWORD PTR [edi+20]
	dec	DWORD PTR _freeblocks$[ebp]
	test	esi, esi
	jne	SHORT $LL8@dy_check
$LN31@dy_check:

; 1282 :   }
; 1283 :   if ( freeblocks || (off != 0) )

	cmp	DWORD PTR _freeblocks$[ebp], 0
	jne	SHORT $LN1@dy_check
$LN27@dy_check:
	test	esi, esi
	je	SHORT $LN2@dy_check
$LN1@dy_check:

; 1284 :         kb_error(2471,"Internal error: Corrupt dy_mem free list.\n",RECOVERABLE);

	push	1
	push	OFFSET ??_C@_0CL@EODFGNKG@Internal?5error?3?5Corrupt?5dy_mem?5f@
	push	2471					; 000009a7H
	call	_kb_error
	add	esp, 12					; 0000000cH
$LN2@dy_check:
	pop	edi
	pop	esi
	pop	ebx

; 1285 : 
; 1286 : } /* end dy_check() */

	mov	esp, ebp
	pop	ebp
	ret	0
$LN24@dy_check:

; 1251 :       default: kb_error(2468,"Internal error: Corrupt dy_mem; bad state.\n",
; 1252 :          RECOVERABLE);

	push	1
	push	OFFSET ??_C@_0CM@DMCICLJE@Internal?5error?3?5Corrupt?5dy_mem?$DL?5@
	push	2468					; 000009a4H

; 1284 :         kb_error(2471,"Internal error: Corrupt dy_mem free list.\n",RECOVERABLE);

	call	_kb_error
	add	esp, 12					; 0000000cH
	pop	edi
	pop	esi
	pop	ebx

; 1285 : 
; 1286 : } /* end dy_check() */

	mov	esp, ebp
	pop	ebp
	ret	0
_dy_check ENDP
_TEXT	ENDS
PUBLIC	_x$GSCopy$
PUBLIC	__$ArrayPad$
PUBLIC	_get_edge_side
EXTRN	_sym_wrap:DWORD
; Function compile flags: /Ogtp
;	COMDAT _get_edge_side
_TEXT	SEGMENT
tv289 = -64						; size = 4
_x$GSCopy$ = -60					; size = 4
tv315 = -56						; size = 4
_w$ = -52						; size = 48
__$ArrayPad$ = -4					; size = 4
_e_id$ = 8						; size = 4
_x$ = 12						; size = 4
_get_edge_side PROC					; COMDAT

; 1400 : {

	push	ebp
	mov	ebp, esp
	sub	esp, 64					; 00000040H
	mov	eax, DWORD PTR ___security_cookie
	xor	eax, ebp
	mov	DWORD PTR __$ArrayPad$[ebp], eax
	mov	ecx, DWORD PTR _x$[ebp]
	mov	eax, DWORD PTR _e_id$[ebp]

; 1401 :   REAL *y,*z;
; 1402 :   int i;
; 1403 :   REAL w[MAXCOORD];
; 1404 :   
; 1405 :   y = get_coord(get_edge_tailv(e_id));

	mov	DWORD PTR _x$GSCopy$[ebp], ecx
	mov	ecx, eax
	push	ebx
	shr	ecx, 27					; 0000001bH
	push	esi
	mov	esi, DWORD PTR _dymem
	and	ecx, 1
	push	edi
	mov	edi, DWORD PTR _web+216
	mov	DWORD PTR tv289[ebp], ecx
	mov	ecx, DWORD PTR _web+124
	je	SHORT $LN8@get_edge_s
	mov	edx, DWORD PTR [edi+esi+304]
	add	edi, esi
	and	eax, 134217727				; 07ffffffH
	mov	eax, DWORD PTR [ecx+eax*4]
	mov	ecx, DWORD PTR _web+636
	add	edx, eax
	mov	ecx, DWORD PTR [edx+ecx*4]
	jmp	SHORT $LN7@get_edge_s
$LN8@get_edge_s:
	mov	edx, DWORD PTR [edi+esi+304]
	add	edi, esi
	and	eax, 134217727				; 07ffffffH
	mov	eax, DWORD PTR [ecx+eax*4]
	mov	ecx, DWORD PTR [edx+eax]
	add	edx, eax
$LN7@get_edge_s:
	mov	ebx, DWORD PTR _web+104
	mov	ebx, DWORD PTR [ebx+esi+64]
	mov	esi, DWORD PTR _web+12
	and	ecx, 134217727				; 07ffffffH
	mov	esi, DWORD PTR [esi+ecx*4]

; 1406 :   z = get_coord(get_edge_headv(e_id));

	mov	ecx, DWORD PTR tv289[ebp]
	add	esi, ebx
	mov	DWORD PTR tv315[ebp], ebx
	test	ecx, ecx
	je	SHORT $LN12@get_edge_s
	mov	edx, DWORD PTR [edx]
	jmp	SHORT $LN11@get_edge_s
$LN12@get_edge_s:
	mov	ebx, DWORD PTR _web+636
	mov	edx, DWORD PTR [edx+ebx*4]
$LN11@get_edge_s:
	mov	ebx, DWORD PTR _web+12
	and	edx, 134217727				; 07ffffffH
	mov	ebx, DWORD PTR [ebx+edx*4]
	add	ebx, DWORD PTR tv315[ebp]

; 1407 :   if ( web.symmetry_flag ) 

	cmp	DWORD PTR _web+856, 0
	je	SHORT $LN4@get_edge_s

; 1408 :   {
; 1409 :     (*sym_wrap)(z,w,get_edge_wrap(e_id));

	mov	edx, DWORD PTR [edi+784]
	mov	eax, DWORD PTR [eax+edx]
	test	ecx, ecx
	je	SHORT $LN17@get_edge_s
	push	eax
	call	DWORD PTR _sym_inverse
	add	esp, 4
$LN17@get_edge_s:
	push	eax
	lea	eax, DWORD PTR _w$[ebp]
	push	eax
	push	ebx
	call	DWORD PTR _sym_wrap
	add	esp, 12					; 0000000cH

; 1410 :     z = w;

	lea	ebx, DWORD PTR _w$[ebp]
$LN4@get_edge_s:

; 1411 :   }
; 1412 :   for ( i = 0 ; i < SDIM ; i++ ) 

	xor	edi, edi
	cmp	DWORD PTR _web+616, edi
	jle	SHORT $LN1@get_edge_s
	mov	edx, DWORD PTR _x$GSCopy$[ebp]
	mov	ecx, ebx
	sub	ecx, esi
	mov	eax, esi
	sub	edx, esi
	npad	6
$LL3@get_edge_s:

; 1413 :       x[i] = z[i] - y[i];

	fld	QWORD PTR [ecx+eax]
	inc	edi
	fsub	QWORD PTR [eax]
	add	eax, 8
	fstp	QWORD PTR [edx+eax-8]
	cmp	edi, DWORD PTR _web+616
	jl	SHORT $LL3@get_edge_s
$LN1@get_edge_s:

; 1414 : } // end get_edge_side()

	mov	ecx, DWORD PTR __$ArrayPad$[ebp]
	pop	edi
	pop	esi
	xor	ecx, ebp
	pop	ebx
	call	@__security_check_cookie@4
	mov	esp, ebp
	pop	ebp
	ret	0
_get_edge_side ENDP
_TEXT	ENDS
PUBLIC	__real@4008000000000000
PUBLIC	__real@4010000000000000
PUBLIC	_x$GSCopy$
PUBLIC	__$ArrayPad$
PUBLIC	_get_edge_tail_tangent
EXTRN	_gauss_lagrange:BYTE
EXTRN	_circular_arc_flag:DWORD
EXTRN	__CIatan2:PROC
EXTRN	__CIsqrt:PROC
;	COMDAT __real@4008000000000000
; File c:\levolver\yonkang-sefit\levolver\ev_ogl\inline.h
CONST	SEGMENT
__real@4008000000000000 DQ 04008000000000000r	; 3
CONST	ENDS
;	COMDAT __real@4010000000000000
CONST	SEGMENT
__real@4010000000000000 DQ 04010000000000000r	; 4
; Function compile flags: /Ogtp
; File c:\levolver\yonkang-sefit\levolver\ev_ogl\utility.c
CONST	ENDS
;	COMDAT _get_edge_tail_tangent
_TEXT	SEGMENT
_xx$89793 = -264					; size = 84
tv814 = -180						; size = 8
_chord$89773 = -172					; size = 8
_sinth$89774 = -164					; size = 8
_denom2$89772 = -164					; size = 8
_xx$89745 = -156					; size = 12
tv811 = -152						; size = 8
_dy1$89769 = -144					; size = 8
_spot$89790 = -140					; size = 4
_dx2$89768 = -136					; size = 8
_gl$89788 = -132					; size = 4
_costh$89775 = -128					; size = 8
_dy2$89770 = -128					; size = 8
_ctrl$89789 = -124					; size = 4
_dx1$89767 = -120					; size = 8
tv735 = -116						; size = 4
tv713 = -116						; size = 4
_denom1$89771 = -112					; size = 8
tv726 = -108						; size = 4
_wrap$89763 = -108					; size = 4
_x$GSCopy$ = -104					; size = 4
_ww$ = -100						; size = 48
_w$ = -52						; size = 48
__$ArrayPad$ = -4					; size = 4
_e_id$ = 8						; size = 4
_x$ = 12						; size = 4
_get_edge_tail_tangent PROC				; COMDAT

; 1433 : {

	push	ebp
	mov	ebp, esp
	sub	esp, 264				; 00000108H
	mov	eax, DWORD PTR ___security_cookie
	xor	eax, ebp
	mov	DWORD PTR __$ArrayPad$[ebp], eax

; 1434 :   int i,n;
; 1435 :   REAL w[MAXCOORD],ww[MAXCOORD];
; 1436 :   
; 1437 :   if ( web.lagrange_order == 1 )

	cmp	DWORD PTR _web+632, 1

; 1504 :     int spot = inverted(e_id) ? ctrl-1 : 0;

	mov	eax, DWORD PTR _x$[ebp]
	push	ebx
	push	esi
	mov	esi, DWORD PTR _e_id$[ebp]
	push	edi
	mov	DWORD PTR _x$GSCopy$[ebp], eax
	jne	$LN30@get_edge_t@2

; 1438 :   { 
; 1439 :     REAL *y,*z;
; 1440 :     y = get_coord(get_edge_tailv(e_id));

	mov	ecx, DWORD PTR _web+104
	mov	edx, DWORD PTR _dymem
	mov	eax, DWORD PTR [ecx+edx+64]
	push	esi
	mov	DWORD PTR tv713[ebp], eax
	call	_get_edge_tailv
	mov	ebx, DWORD PTR _web+12
	and	eax, 134217727				; 07ffffffH
	mov	edi, DWORD PTR [ebx+eax*4]
	add	edi, DWORD PTR tv713[ebp]

; 1441 :     z = get_coord(get_edge_headv(e_id));

	push	esi
	call	_get_edge_headv
	and	eax, 134217727				; 07ffffffH
	mov	ebx, DWORD PTR [ebx+eax*4]
	add	ebx, DWORD PTR tv713[ebp]
	add	esp, 8

; 1442 :     if ( web.symmetry_flag ) 

	cmp	DWORD PTR _web+856, 0
	je	SHORT $LN29@get_edge_t@2

; 1443 :     {
; 1444 :       (*sym_wrap)(z,w,get_edge_wrap(e_id));

	mov	edx, DWORD PTR _web+124
	mov	ecx, esi
	and	ecx, 134217727				; 07ffffffH
	mov	eax, DWORD PTR [edx+ecx*4]
	mov	ecx, DWORD PTR _web+216
	mov	edx, DWORD PTR _dymem
	mov	ecx, DWORD PTR [ecx+edx+784]
	mov	eax, DWORD PTR [eax+ecx]
	test	esi, 134217728				; 08000000H
	je	SHORT $LN37@get_edge_t@2
	push	eax
	call	DWORD PTR _sym_inverse
	add	esp, 4
$LN37@get_edge_t@2:
	push	eax
	lea	edx, DWORD PTR _w$[ebp]
	push	edx
	push	ebx
	call	DWORD PTR _sym_wrap
	add	esp, 12					; 0000000cH

; 1445 :       z = w;

	lea	ebx, DWORD PTR _w$[ebp]
$LN29@get_edge_t@2:

; 1446 :     }
; 1447 :     for ( i = 0 ; i < SDIM ; i++ ) 

	xor	edx, edx
	cmp	DWORD PTR _web+616, edx
	jle	$LN5@get_edge_t@2
	mov	ecx, DWORD PTR _x$GSCopy$[ebp]
	sub	ebx, edi
	mov	eax, edi
	sub	ecx, edi
$LL28@get_edge_t@2:

; 1448 :       x[i] = z[i] - y[i];

	fld	QWORD PTR [ebx+eax]
	inc	edx
	fsub	QWORD PTR [eax]
	add	eax, 8
	fstp	QWORD PTR [ecx+eax-8]
	cmp	edx, DWORD PTR _web+616
	jl	SHORT $LL28@get_edge_t@2
	pop	edi
	pop	esi
	pop	ebx

; 1523 :     }
; 1524 :   }
; 1525 : } // end get_edge_tail_tangent()

	mov	ecx, DWORD PTR __$ArrayPad$[ebp]
	xor	ecx, ebp
	call	@__security_check_cookie@4
	mov	esp, ebp
	pop	ebp
	ret	0
$LN30@get_edge_t@2:

; 1449 :     return;
; 1450 :   }
; 1451 : 
; 1452 :   if ( web.modeltype == QUADRATIC )

	mov	eax, DWORD PTR _web+628
	cmp	eax, 2
	jne	$LN25@get_edge_t@2

; 1453 :   { vertex_id v[3];
; 1454 :     REAL *xx[3];
; 1455 :     v[0] = get_edge_tailv(e_id);

	push	esi
	call	_get_edge_tailv

; 1456 :     v[1] = get_edge_midv(e_id);

	mov	ecx, DWORD PTR _web+124
	mov	edx, DWORD PTR _web+216
	mov	edi, eax
	mov	eax, esi
	and	eax, 134217727				; 07ffffffH
	mov	eax, DWORD PTR [ecx+eax*4]
	mov	ecx, DWORD PTR _dymem
	mov	edx, DWORD PTR [edx+ecx+304]
	mov	ebx, DWORD PTR [edx+eax+8]

; 1457 :     v[2] = get_edge_headv(e_id);

	push	esi
	mov	DWORD PTR tv726[ebp], eax
	call	_get_edge_headv

; 1458 :     xx[0] = get_coord(v[0]);

	mov	ecx, DWORD PTR _web+104
	mov	edx, DWORD PTR _dymem
	mov	edx, DWORD PTR [ecx+edx+64]
	mov	ecx, DWORD PTR _web+12

; 1459 :     xx[1] = get_coord(v[1]);

	and	ebx, 134217727				; 07ffffffH
	and	edi, 134217727				; 07ffffffH
	mov	edi, DWORD PTR [ecx+edi*4]
	mov	ecx, DWORD PTR [ecx+ebx*4]

; 1460 :     xx[2] = get_coord(v[2]);

	mov	ebx, DWORD PTR _web+12
	and	eax, 134217727				; 07ffffffH
	mov	ebx, DWORD PTR [ebx+eax*4]
	add	ecx, edx
	add	esp, 8
	add	edi, edx
	add	ebx, edx

; 1461 :     if ( web.symmetry_flag )

	cmp	DWORD PTR _web+856, 0
	mov	DWORD PTR _xx$89745[ebp+4], ecx
	je	SHORT $LN63@get_edge_t@2

; 1462 :     { WRAPTYPE wrap = get_edge_wrap(e_id);

	mov	eax, DWORD PTR _web+216
	mov	ecx, DWORD PTR _dymem
	mov	edx, DWORD PTR [eax+ecx+784]
	mov	eax, DWORD PTR tv726[ebp]
	mov	eax, DWORD PTR [eax+edx]
	shr	esi, 27					; 0000001bH
	and	esi, 1
	je	SHORT $LN41@get_edge_t@2
	push	eax
	call	DWORD PTR _sym_inverse
	add	esp, 4
$LN41@get_edge_t@2:

; 1463 :       (*sym_wrap)(xx[2],w,wrap);

	mov	ecx, eax
	push	ecx
	lea	edx, DWORD PTR _w$[ebp]
	push	edx
	push	ebx
	mov	DWORD PTR _wrap$89763[ebp], eax
	call	DWORD PTR _sym_wrap
	add	esp, 12					; 0000000cH

; 1464 :       xx[2] = w;

	lea	ebx, DWORD PTR _w$[ebp]

; 1465 :       if ( inverted(e_id) )

	test	esi, esi
	je	SHORT $LN62@get_edge_t@2

; 1466 :       { (*sym_wrap)(xx[1],ww,wrap);

	mov	eax, DWORD PTR _wrap$89763[ebp]
	mov	edx, DWORD PTR _xx$89745[ebp+4]
	push	eax
	lea	ecx, DWORD PTR _ww$[ebp]
	push	ecx
	push	edx
	call	DWORD PTR _sym_wrap

; 1467 :         xx[1] = ww;

	lea	eax, DWORD PTR _ww$[ebp]
	add	esp, 12					; 0000000cH
	mov	DWORD PTR _xx$89745[ebp+4], eax
$LN62@get_edge_t@2:
	mov	ecx, DWORD PTR _xx$89745[ebp+4]
$LN63@get_edge_t@2:

; 1468 :       }
; 1469 :     }
; 1470 :     if ( circular_arc_flag )

	cmp	DWORD PTR _circular_arc_flag, 0
	je	$LN22@get_edge_t@2

; 1471 :     { REAL dx1 = xx[1][0] - xx[0][0];

	fld	QWORD PTR [ecx]
	fsub	QWORD PTR [edi]
	fst	QWORD PTR _dx1$89767[ebp]

; 1472 :       REAL dx2 = xx[2][0] - xx[1][0];

	fld	QWORD PTR [ebx]
	fsub	QWORD PTR [ecx]
	fstp	QWORD PTR _dx2$89768[ebp]

; 1473 :       REAL dy1 = xx[1][1] - xx[0][1];

	fld	QWORD PTR [ecx+8]
	fsub	QWORD PTR [edi+8]
	fst	QWORD PTR _dy1$89769[ebp]

; 1474 :       REAL dy2 = xx[2][1] - xx[1][1];

	fld	QWORD PTR [ebx+8]
	fsub	QWORD PTR [ecx+8]
	fstp	QWORD PTR _dy2$89770[ebp]

; 1475 :       REAL denom1 = sqrt(dx1*dx1+dy1*dy1);

	fmul	ST(0), ST(0)
	fld	ST(1)
	fmulp	ST(2), ST(0)
	faddp	ST(1), ST(0)
	call	__CIsqrt
	fstp	QWORD PTR _denom1$89771[ebp]

; 1476 :       REAL denom2 = sqrt(dx2*dx2+dy2*dy2);

	fld	QWORD PTR _dy2$89770[ebp]
	fmul	ST(0), ST(0)
	fld	QWORD PTR _dx2$89768[ebp]
	fmul	ST(0), ST(0)
	faddp	ST(1), ST(0)
	call	__CIsqrt
	fst	QWORD PTR _denom2$89772[ebp]

; 1477 :       REAL chord,sinth,costh,angle,length;
; 1478 :       if (denom1*denom2 == 0.0) {x[0] = x[1] = 0.0; return ;}

	fmul	QWORD PTR _denom1$89771[ebp]
	fldz
	fld	ST(0)
	fucomp	ST(2)
	fnstsw	ax
	fstp	ST(1)
	test	ah, 68					; 00000044H
	jp	SHORT $LN67@get_edge_t@2
	mov	eax, DWORD PTR _x$GSCopy$[ebp]
	pop	edi
	fst	QWORD PTR [eax+8]
	pop	esi
	fstp	QWORD PTR [eax]
	pop	ebx

; 1523 :     }
; 1524 :   }
; 1525 : } // end get_edge_tail_tangent()

	mov	ecx, DWORD PTR __$ArrayPad$[ebp]
	xor	ecx, ebp
	call	@__security_check_cookie@4
	mov	esp, ebp
	pop	ebp
	ret	0
$LN67@get_edge_t@2:

; 1477 :       REAL chord,sinth,costh,angle,length;
; 1478 :       if (denom1*denom2 == 0.0) {x[0] = x[1] = 0.0; return ;}

	fstp	ST(0)

; 1479 :       chord = sqrt((dx1+dx2)*(dx1+dx2)+(dy1+dy2)*(dy1+dy2));

	fld	QWORD PTR _dy2$89770[ebp]
	fadd	QWORD PTR _dy1$89769[ebp]
	fst	QWORD PTR tv811[ebp]
	fld	QWORD PTR _dx2$89768[ebp]
	fadd	QWORD PTR _dx1$89767[ebp]
	fst	QWORD PTR tv814[ebp]
	fmul	ST(0), ST(0)
	fld	ST(1)
	fmulp	ST(2), ST(0)
	faddp	ST(1), ST(0)
	call	__CIsqrt
	fstp	QWORD PTR _chord$89773[ebp]

; 1480 :       sinth = (dx1*dy2 - dy1*dx2)/denom1/denom2;

	fld	QWORD PTR _dy2$89770[ebp]
	fld	ST(0)
	fld	QWORD PTR _dx1$89767[ebp]
	fmul	ST(1), ST(0)
	fld	QWORD PTR _dy1$89769[ebp]
	fld	ST(0)
	fld	QWORD PTR _dx2$89768[ebp]
	fmul	ST(1), ST(0)
	fxch	ST(4)
	fsubrp	ST(1), ST(0)
	fld	QWORD PTR _denom1$89771[ebp]
	fdiv	ST(1), ST(0)
	fld	QWORD PTR _denom2$89772[ebp]
	fdiv	ST(2), ST(0)
	fxch	ST(2)
	fst	QWORD PTR _sinth$89774[ebp]

; 1481 :       costh = (dx1*dx2 + dy1*dy2)/denom1/denom2;

	fxch	ST(6)
	fmulp	ST(3), ST(0)
	fxch	ST(4)
	fmulp	ST(3), ST(0)
	fxch	ST(1)
	faddp	ST(2), ST(0)
	fxch	ST(1)
	fdivrp	ST(2), ST(0)
	fdivp	ST(1), ST(0)
	fst	QWORD PTR _costh$89775[ebp]

; 1482 :       angle = atan2(sinth,costh);

	call	__CIatan2

; 1483 :       if ( sinth == 0.0 )

	fld	QWORD PTR _sinth$89774[ebp]
	fld	ST(0)
	fldz
	fucompp
	fnstsw	ax
	test	ah, 68					; 00000044H
	jp	SHORT $LN20@get_edge_t@2

; 1484 :       { for ( i = 0 ; i < SDIM ; i++ )

	xor	ecx, ecx
	fstp	ST(0)
	fstp	ST(0)
	cmp	DWORD PTR _web+616, ecx
	jle	$LN5@get_edge_t@2
	mov	eax, DWORD PTR _x$GSCopy$[ebp]
	sub	ebx, edi
	sub	eax, edi
	npad	1
$LL19@get_edge_t@2:

; 1485 :           x[i] = xx[2][i] - xx[0][i];

	fld	QWORD PTR [ebx+edi]
	inc	ecx
	fsub	QWORD PTR [edi]
	add	edi, 8
	fstp	QWORD PTR [eax+edi-8]
	cmp	ecx, DWORD PTR _web+616
	jl	SHORT $LL19@get_edge_t@2
	pop	edi
	pop	esi
	pop	ebx

; 1523 :     }
; 1524 :   }
; 1525 : } // end get_edge_tail_tangent()

	mov	ecx, DWORD PTR __$ArrayPad$[ebp]
	xor	ecx, ebp
	call	@__security_check_cookie@4
	mov	esp, ebp
	pop	ebp
	ret	0
$LN20@get_edge_t@2:

; 1486 :         return;
; 1487 :       }
; 1488 :       length = chord*angle/sinth;

	fld	QWORD PTR _chord$89773[ebp]

; 1489 :       x[0] = length*(costh*(dx1+dx2) + sinth*(dy1+dy2))/chord;

	mov	eax, DWORD PTR _x$GSCopy$[ebp]
	fmul	ST(2), ST(0)
	pop	edi
	fxch	ST(2)
	pop	esi
	pop	ebx
	fdiv	ST(0), ST(1)
	fld	QWORD PTR tv814[ebp]
	fld	ST(0)
	fld	QWORD PTR _costh$89775[ebp]
	fmul	ST(1), ST(0)
	fld	QWORD PTR tv811[ebp]
	fld	ST(0)
	fmul	ST(0), ST(6)
	faddp	ST(3), ST(0)
	fxch	ST(2)
	fmul	ST(0), ST(4)
	fdiv	ST(0), ST(6)
	fstp	QWORD PTR [eax]

; 1490 :       x[1] = length*(costh*(dy1+dy2) - sinth*(dx1+dx2))/chord;

	fmulp	ST(1), ST(0)
	fxch	ST(1)
	fmulp	ST(3), ST(0)
	fsubrp	ST(2), ST(0)
	fmulp	ST(1), ST(0)
	fdivrp	ST(1), ST(0)
	fstp	QWORD PTR [eax+8]

; 1523 :     }
; 1524 :   }
; 1525 : } // end get_edge_tail_tangent()

	mov	ecx, DWORD PTR __$ArrayPad$[ebp]
	xor	ecx, ebp
	call	@__security_check_cookie@4
	mov	esp, ebp
	pop	ebp
	ret	0
$LN22@get_edge_t@2:

; 1491 :       return; 
; 1492 :     }
; 1493 :     else 
; 1494 :     { /* regular quadratic */
; 1495 :       for ( i = 0 ; i < SDIM ; i++ )

	xor	esi, esi
	cmp	DWORD PTR _web+616, esi
	jle	$LN5@get_edge_t@2
	mov	edx, DWORD PTR _x$GSCopy$[ebp]
	fld	QWORD PTR __real@4010000000000000
	fld	QWORD PTR __real@4008000000000000
	sub	ecx, edi
	sub	ebx, edi
	mov	eax, edi
	sub	edx, edi
$LN15@get_edge_t@2:

; 1496 :           x[i] = -3*xx[0][i] + 4*xx[1][i] - xx[2][i];

	fld	QWORD PTR [ecx+eax]
	inc	esi
	fmul	ST(0), ST(2)
	add	eax, 8
	fld	QWORD PTR [eax-8]
	fmul	ST(0), ST(2)
	fsubp	ST(1), ST(0)
	fsub	QWORD PTR [eax+ebx-8]
	fstp	QWORD PTR [eax+edx-8]
	cmp	esi, DWORD PTR _web+616
	jl	SHORT $LN15@get_edge_t@2

; 1497 :     }
; 1498 :     return;

	jmp	$LN92@get_edge_t@2
$LN25@get_edge_t@2:

; 1499 :   }
; 1500 : 
; 1501 :   if ( web.modeltype == LAGRANGE )

	cmp	eax, 3
	jne	$LN5@get_edge_t@2

; 1502 :   { struct gauss_lag *gl = &gauss_lagrange[1][web.gauss1D_order];

	mov	eax, DWORD PTR _web+1592

; 1503 :     int ctrl = web.skel[EDGE].ctrlpts;

	mov	edi, DWORD PTR _web+120
	shl	eax, 5
	add	eax, DWORD PTR _gauss_lagrange+4

; 1504 :     int spot = inverted(e_id) ? ctrl-1 : 0;

	mov	ebx, esi
	shr	ebx, 27					; 0000001bH
	and	ebx, 1
	mov	DWORD PTR _gl$89788[ebp], eax
	mov	DWORD PTR _ctrl$89789[ebp], edi
	mov	DWORD PTR tv735[ebp], ebx
	je	SHORT $LN33@get_edge_t@2
	lea	ecx, DWORD PTR [edi-1]
	mov	DWORD PTR _spot$89790[ebp], ecx
	jmp	SHORT $LN34@get_edge_t@2
$LN33@get_edge_t@2:
	mov	DWORD PTR _spot$89790[ebp], 0
$LN34@get_edge_t@2:

; 1505 :     vertex_id *v;
; 1506 :     REAL *xx[MAXLAGRANGE+1];
; 1507 : 
; 1508 :     v = get_edge_vertices(e_id);

	mov	edx, DWORD PTR _web+124
	mov	eax, DWORD PTR _web+216
	and	esi, 134217727				; 07ffffffH
	mov	esi, DWORD PTR [edx+esi*4]
	mov	edx, DWORD PTR _dymem
	mov	ecx, DWORD PTR [eax+edx+304]
	add	ecx, esi

; 1509 :     for ( i = 0 ; i < ctrl ; i++ )

	xor	eax, eax
	mov	DWORD PTR tv726[ebp], esi
	test	edi, edi
	jle	SHORT $LN9@get_edge_t@2
	mov	esi, DWORD PTR _web+104
	mov	edx, DWORD PTR [esi+edx+64]
	lea	esi, DWORD PTR _xx$89793[ebp]
	sub	ecx, esi
	mov	esi, DWORD PTR _web+12
	npad	4
$LL64@get_edge_t@2:
	lea	ebx, DWORD PTR [ecx+eax*4]

; 1510 :       xx[i] = get_coord(v[i]);

	mov	ebx, DWORD PTR _xx$89793[ebp+ebx]
	and	ebx, 134217727				; 07ffffffH
	mov	ebx, DWORD PTR [esi+ebx*4]
	add	ebx, edx
	mov	DWORD PTR _xx$89793[ebp+eax*4], ebx
	inc	eax
	cmp	eax, edi
	jl	SHORT $LL64@get_edge_t@2

; 1509 :     for ( i = 0 ; i < ctrl ; i++ )

	mov	ebx, DWORD PTR tv735[ebp]
	mov	edx, DWORD PTR _dymem
	mov	esi, DWORD PTR tv726[ebp]
$LN9@get_edge_t@2:

; 1511 :     if ( web.symmetry_flag )

	cmp	DWORD PTR _web+856, 0
	je	SHORT $LN8@get_edge_t@2

; 1512 :     { WRAPTYPE wrap = get_edge_wrap(e_id);

	mov	ecx, DWORD PTR _web+216
	mov	edx, DWORD PTR [ecx+edx+784]
	mov	esi, DWORD PTR [esi+edx]
	test	ebx, ebx
	je	SHORT $LN45@get_edge_t@2
	push	esi
	call	DWORD PTR _sym_inverse
	add	esp, 4
	jmp	SHORT $LN46@get_edge_t@2
$LN45@get_edge_t@2:
	mov	eax, esi
$LN46@get_edge_t@2:

; 1513 :       (*sym_wrap)(xx[ctrl-1],w,wrap);

	mov	ecx, DWORD PTR _xx$89793[ebp+edi*4-4]
	push	eax
	lea	eax, DWORD PTR _w$[ebp]
	push	eax
	push	ecx
	call	DWORD PTR _sym_wrap

; 1514 :       xx[ctrl-1] = w;

	lea	edx, DWORD PTR _w$[ebp]
	add	esp, 12					; 0000000cH
	mov	DWORD PTR _xx$89793[ebp+edi*4-4], edx
$LN8@get_edge_t@2:

; 1515 :     }
; 1516 :     for ( i = 0 ; i < SDIM ; i++ ) 

	xor	esi, esi
	cmp	DWORD PTR _web+616, esi
	jle	$LN5@get_edge_t@2
	fild	DWORD PTR _ctrl$89789[ebp]
	mov	ecx, DWORD PTR _x$GSCopy$[ebp]
	fldz
$LN65@get_edge_t@2:

; 1518 :       for ( n = 0 ; n < ctrl ; n++ )

	xor	eax, eax
	fst	QWORD PTR [ecx]
	cmp	edi, 4
	jl	SHORT $LC60@get_edge_t@2

; 1517 :     { x[i] = 0;

	mov	edx, DWORD PTR _gl$89788[ebp]
	mov	edx, DWORD PTR [edx+28]
	mov	ebx, DWORD PTR _spot$89790[ebp]
	mov	edx, DWORD PTR [edx+ebx*4]
	mov	edx, DWORD PTR [edx]
	add	edx, 16					; 00000010H

; 1518 :       for ( n = 0 ; n < ctrl ; n++ )

$LN61@get_edge_t@2:

; 1519 :         x[i] += gl->lpolypart[spot][0][n]*xx[n][i];

	mov	ebx, DWORD PTR _xx$89793[ebp+eax*4]
	fld	QWORD PTR [ebx+esi*8]
	mov	ebx, DWORD PTR _xx$89793[ebp+eax*4+4]
	fmul	QWORD PTR [edx-16]
	add	eax, 4
	add	edx, 32					; 00000020H
	fadd	QWORD PTR [ecx]
	fst	QWORD PTR [ecx]
	fld	QWORD PTR [ebx+esi*8]
	mov	ebx, DWORD PTR _xx$89793[ebp+eax*4-8]
	fmul	QWORD PTR [edx-40]
	faddp	ST(1), ST(0)
	fst	QWORD PTR [ecx]
	fld	QWORD PTR [ebx+esi*8]
	mov	ebx, DWORD PTR _xx$89793[ebp+eax*4-4]
	fmul	QWORD PTR [edx-32]
	faddp	ST(1), ST(0)
	fst	QWORD PTR [ecx]
	fld	QWORD PTR [ebx+esi*8]
	lea	ebx, DWORD PTR [edi-3]
	fmul	QWORD PTR [edx-24]
	faddp	ST(1), ST(0)
	fstp	QWORD PTR [ecx]
	cmp	eax, ebx
	jl	SHORT $LN61@get_edge_t@2
	mov	ebx, DWORD PTR tv735[ebp]
$LC60@get_edge_t@2:

; 1518 :       for ( n = 0 ; n < ctrl ; n++ )

	cmp	eax, edi
	jge	SHORT $LN59@get_edge_t@2
	mov	edx, DWORD PTR _gl$89788[ebp]
	mov	edx, DWORD PTR [edx+28]
	mov	ebx, DWORD PTR _spot$89790[ebp]
	mov	edx, DWORD PTR [edx+ebx*4]
	mov	edx, DWORD PTR [edx]
	lea	edx, DWORD PTR [edx+eax*8]
$LC4@get_edge_t@2:

; 1519 :         x[i] += gl->lpolypart[spot][0][n]*xx[n][i];

	mov	ebx, DWORD PTR _xx$89793[ebp+eax*4]
	fld	QWORD PTR [ebx+esi*8]
	inc	eax
	fmul	QWORD PTR [edx]
	add	edx, 8
	fadd	QWORD PTR [ecx]
	fstp	QWORD PTR [ecx]
	cmp	eax, edi
	jl	SHORT $LC4@get_edge_t@2

; 1518 :       for ( n = 0 ; n < ctrl ; n++ )

	mov	ebx, DWORD PTR tv735[ebp]
$LN59@get_edge_t@2:

; 1520 :       x[i] *= ctrl;  /* scaling to length of edge */

	fld	ST(1)
	fmul	QWORD PTR [ecx]
	fld	ST(0)
	fxch	ST(1)
	fstp	QWORD PTR [ecx]

; 1521 :       if ( inverted(e_id) )

	test	ebx, ebx
	je	SHORT $LN89@get_edge_t@2

; 1522 :         x[i] = -x[i];

	fchs
	fstp	QWORD PTR [ecx]
	jmp	SHORT $LN6@get_edge_t@2
$LN89@get_edge_t@2:
	fstp	ST(0)
$LN6@get_edge_t@2:

; 1515 :     }
; 1516 :     for ( i = 0 ; i < SDIM ; i++ ) 

	inc	esi
	add	ecx, 8
	cmp	esi, DWORD PTR _web+616
	jl	$LN65@get_edge_t@2
$LN92@get_edge_t@2:
	fstp	ST(1)
	fstp	ST(0)
$LN5@get_edge_t@2:

; 1523 :     }
; 1524 :   }
; 1525 : } // end get_edge_tail_tangent()

	mov	ecx, DWORD PTR __$ArrayPad$[ebp]
	pop	edi
	pop	esi
	xor	ecx, ebp
	pop	ebx
	call	@__security_check_cookie@4
	mov	esp, ebp
	pop	ebp
	ret	0
_get_edge_tail_tangent ENDP
_TEXT	ENDS
PUBLIC	__$ArrayPad$
PUBLIC	_get_edge_adjust
; Function compile flags: /Ogtp
;	COMDAT _get_edge_adjust
_TEXT	SEGMENT
_x$ = -52						; size = 48
__$ArrayPad$ = -4					; size = 4
_e_id$ = 8						; size = 4
_w$ = 12						; size = 4
_get_edge_adjust PROC					; COMDAT

; 1539 : {

	push	ebp
	mov	ebp, esp
	sub	esp, 52					; 00000034H
	mov	eax, DWORD PTR ___security_cookie
	xor	eax, ebp
	mov	DWORD PTR __$ArrayPad$[ebp], eax

; 1540 :   REAL x[MAXCOORD];
; 1541 :   int i ;
; 1542 : 
; 1543 :   for ( i = 0 ; i < SDIM ; i++ ) x[i] = 0.0;

	mov	ecx, DWORD PTR _web+616
	push	esi
	mov	esi, DWORD PTR _w$[ebp]
	push	edi
	test	ecx, ecx
	jle	SHORT $LN3@get_edge_a
	and	ecx, 536870911				; 1fffffffH
	add	ecx, ecx
	xor	eax, eax
	lea	edi, DWORD PTR _x$[ebp]
	rep stosd
$LN3@get_edge_a:

; 1544 :   (*sym_wrap)(x,w,get_edge_wrap(e_id));

	mov	ecx, DWORD PTR _e_id$[ebp]
	mov	edx, DWORD PTR _web+124
	mov	edi, DWORD PTR _dymem
	mov	eax, ecx
	and	eax, 134217727				; 07ffffffH
	mov	eax, DWORD PTR [edx+eax*4]
	mov	edx, DWORD PTR _web+216
	mov	edx, DWORD PTR [edx+edi+784]
	mov	eax, DWORD PTR [eax+edx]
	test	ecx, 134217728				; 08000000H
	je	SHORT $LN8@get_edge_a
	push	eax
	call	DWORD PTR _sym_inverse
	add	esp, 4
$LN8@get_edge_a:
	push	eax
	lea	eax, DWORD PTR _x$[ebp]
	push	esi
	push	eax
	call	DWORD PTR _sym_wrap

; 1545 : } // end get_edge_adjust()

	mov	ecx, DWORD PTR __$ArrayPad$[ebp]
	add	esp, 12					; 0000000cH
	pop	edi
	xor	ecx, ebp
	pop	esi
	call	@__security_check_cookie@4
	mov	esp, ebp
	pop	ebp
	ret	0
_get_edge_adjust ENDP
_TEXT	ENDS
PUBLIC	??_C@_0EC@IBENMFBG@Internal?5error?3?5vertex_evalence?$CI@ ; `string'
PUBLIC	??_C@_00CNPNBAHC@?$AA@				; `string'
PUBLIC	??_C@_02DPKJAMEF@?$CFd?$AA@			; `string'
PUBLIC	_get_vertex_evalence
EXTRN	_elnames:BYTE
EXTRN	_valid_element:PROC
;	COMDAT ??_C@_0EC@IBENMFBG@Internal?5error?3?5vertex_evalence?$CI@
; File c:\levolver\yonkang-sefit\levolver\ev_ogl\inline.h
CONST	SEGMENT
??_C@_0EC@IBENMFBG@Internal?5error?3?5vertex_evalence?$CI@ DB 'Internal e'
	DB	'rror: vertex_evalence() in infinite loop on vertex %s.', 0aH, 00H ; `string'
CONST	ENDS
;	COMDAT ??_C@_00CNPNBAHC@?$AA@
CONST	SEGMENT
??_C@_00CNPNBAHC@?$AA@ DB 00H				; `string'
CONST	ENDS
;	COMDAT ??_C@_02DPKJAMEF@?$CFd?$AA@
CONST	SEGMENT
??_C@_02DPKJAMEF@?$CFd?$AA@ DB '%d', 00H		; `string'
; Function compile flags: /Ogtp
; File c:\levolver\yonkang-sefit\levolver\ev_ogl\utility.c
CONST	ENDS
;	COMDAT _get_vertex_evalence
_TEXT	SEGMENT
_e_id$ = -4						; size = 4
_v_id$ = 8						; size = 4
_get_vertex_evalence PROC				; COMDAT

; 1558 : {

	push	ebp
	mov	ebp, esp
	push	ecx

; 1559 :   int n = 0;
; 1560 :   edge_id e_id;
; 1561 :   edge_id next_e;
; 1562 :   ATTR attr = get_vattr(v_id);

	mov	eax, DWORD PTR _web+12
	push	ebx
	mov	ebx, DWORD PTR _v_id$[ebp]
	and	ebx, 134217727				; 07ffffffH
	mov	ecx, DWORD PTR [eax+ebx*4]

; 1563 : 
; 1564 :   if ( attr & (Q_MIDPOINT|Q_MIDEDGE) ) return 1;

	mov	eax, DWORD PTR [ecx+8]
	push	edi
	and	eax, 4325376				; 00420000H
	xor	edx, edx
	xor	edi, edi
	or	eax, edx
	je	SHORT $LN6@get_vertex@2
	lea	eax, DWORD PTR [edi+1]
	pop	edi
	pop	ebx

; 1580 : } // end get_vertex_evalence()

	mov	esp, ebp
	pop	ebp
	ret	0
$LN6@get_vertex@2:
	push	esi

; 1565 :   e_id = get_vertex_edge(v_id);

	mov	esi, DWORD PTR [ecx+28]

; 1566 :   if ( !valid_element(e_id) ) return 0;

	push	esi
	mov	DWORD PTR _e_id$[ebp], esi
	call	_valid_element
	add	esp, 4
	test	eax, eax
	jne	SHORT $LL5@get_vertex@2
	pop	esi
	pop	edi
	pop	ebx

; 1580 : } // end get_vertex_evalence()

	mov	esp, ebp
	pop	ebp
	ret	0
	npad	5
$LL5@get_vertex@2:

; 1567 :   next_e = e_id;
; 1568 :   do
; 1569 :   { n++;
; 1570 :     next_e = get_next_tail_edge(next_e);

	mov	edx, DWORD PTR _web+124
	mov	ecx, esi
	shr	ecx, 27					; 0000001bH
	and	esi, 134217727				; 07ffffffH
	mov	eax, DWORD PTR [edx+esi*4]
	and	ecx, 1
	mov	esi, DWORD PTR [eax+ecx*4+32]

; 1571 :     if ( n > 2*web.skel[EDGE].count )

	mov	ecx, DWORD PTR _web+176
	inc	edi
	lea	edx, DWORD PTR [ecx+ecx]
	cmp	edi, edx
	jle	SHORT $LN3@get_vertex@2

; 1572 :     { sprintf(errmsg,
; 1573 :          "Internal error: vertex_evalence() in infinite loop on vertex %s.\n",
; 1574 :            ELNAME(v_id));

	test	DWORD PTR _v_id$[ebp], 268435456	; 10000000H
	je	SHORT $LN9@get_vertex@2
	lea	eax, DWORD PTR [ebx+1]
	push	eax
	push	OFFSET ??_C@_02DPKJAMEF@?$CFd?$AA@
	push	OFFSET _elnames
	call	_sprintf
	add	esp, 12					; 0000000cH
	mov	eax, OFFSET _elnames
	jmp	SHORT $LN10@get_vertex@2
$LN9@get_vertex@2:
	mov	eax, OFFSET ??_C@_00CNPNBAHC@?$AA@
$LN10@get_vertex@2:
	push	eax
	push	OFFSET ??_C@_0EC@IBENMFBG@Internal?5error?3?5vertex_evalence?$CI@
	push	OFFSET _errmsg
	call	_sprintf

; 1575 :       kb_error(2482,errmsg,RECOVERABLE);

	push	1
	push	OFFSET _errmsg
	push	2482					; 000009b2H
	call	_kb_error
	add	esp, 24					; 00000018H
$LN3@get_vertex@2:

; 1576 :     }
; 1577 :   }
; 1578 :   while ( !equal_id(next_e,e_id) );

	cmp	esi, DWORD PTR _e_id$[ebp]
	jne	SHORT $LL5@get_vertex@2

; 1579 :   return n;

	pop	esi
	mov	eax, edi
	pop	edi
	pop	ebx

; 1580 : } // end get_vertex_evalence()

	mov	esp, ebp
	pop	ebp
	ret	0
_get_vertex_evalence ENDP
_TEXT	ENDS
PUBLIC	??_C@_0DN@BMPMCHPP@Internal?5error?3?5edge_valence?$CI?$CJ?5i@ ; `string'
PUBLIC	_get_edge_valence
;	COMDAT ??_C@_0DN@BMPMCHPP@Internal?5error?3?5edge_valence?$CI?$CJ?5i@
; File c:\levolver\yonkang-sefit\levolver\ev_ogl\inline.h
CONST	SEGMENT
??_C@_0DN@BMPMCHPP@Internal?5error?3?5edge_valence?$CI?$CJ?5i@ DB 'Intern'
	DB	'al error: edge_valence() in infinite loop on edge %s.', 0aH, 00H ; `string'
; Function compile flags: /Ogtp
; File c:\levolver\yonkang-sefit\levolver\ev_ogl\utility.c
CONST	ENDS
;	COMDAT _get_edge_valence
_TEXT	SEGMENT
_m$ = -12						; size = 4
_n$ = -8						; size = 4
_fe$ = -4						; size = 4
_e_id$ = 8						; size = 4
_get_edge_valence PROC					; COMDAT

; 1591 : {

	push	ebp
	mov	ebp, esp
	sub	esp, 12					; 0000000cH

; 1592 :   int n = 0,m=0;
; 1593 :   facetedge_id fe = get_edge_fe(e_id);

	mov	ecx, DWORD PTR _e_id$[ebp]
	mov	eax, DWORD PTR _web+124
	push	ebx
	mov	ebx, ecx
	and	ebx, 134217727				; 07ffffffH
	mov	eax, DWORD PTR [eax+ebx*4]
	xor	edx, edx
	push	esi
	mov	DWORD PTR _n$[ebp], edx
	mov	DWORD PTR _m$[ebp], edx
	cmp	eax, edx
	jne	SHORT $LN12@get_edge_v
	xor	eax, eax
	mov	DWORD PTR _fe$[ebp], eax
	jmp	SHORT $LN13@get_edge_v
$LN12@get_edge_v:
	mov	eax, DWORD PTR [eax+28]
	test	ecx, 134217728				; 08000000H
	je	SHORT $LN11@get_edge_v
	xor	eax, 134217728				; 08000000H
$LN11@get_edge_v:
	mov	DWORD PTR _fe$[ebp], eax
$LN13@get_edge_v:

; 1594 :   facetedge_id next_fe = fe;

	mov	esi, eax

; 1595 : 
; 1596 :   if ( !valid_id(fe) ) return 0;

	test	eax, 268435456				; 10000000H
	jne	SHORT $LN20@get_edge_v
	pop	esi
	xor	eax, eax
	pop	ebx

; 1610 : } // end get_edge_valence()

	mov	esp, ebp
	pop	ebp
	ret	0
$LN20@get_edge_v:
	push	edi

; 1595 : 
; 1596 :   if ( !valid_id(fe) ) return 0;

	mov	edi, DWORD PTR _web+460
	jmp	SHORT $LN5@get_edge_v
	npad	5
$LL21@get_edge_v:
	mov	eax, DWORD PTR _fe$[ebp]
$LN5@get_edge_v:

; 1597 :   do
; 1598 :   { if ( valid_id(get_fe_facet(fe)) ) n++;

	push	eax
	call	_get_fe_facet
	add	esp, 4
	test	eax, 268435456				; 10000000H
	je	SHORT $LN22@get_edge_v
	inc	DWORD PTR _n$[ebp]
$LN22@get_edge_v:

; 1599 :     next_fe = get_next_facet(next_fe);

	test	esi, 134217728				; 08000000H
	je	SHORT $LN16@get_edge_v
	and	esi, 134217727				; 07ffffffH
	mov	ecx, DWORD PTR [edi+esi*4]
	mov	esi, DWORD PTR [ecx+36]
	xor	esi, 134217728				; 08000000H
	jmp	SHORT $LN15@get_edge_v
$LN16@get_edge_v:
	and	esi, 134217727				; 07ffffffH
	mov	edx, DWORD PTR [edi+esi*4]
	mov	esi, DWORD PTR [edx+40]
$LN15@get_edge_v:

; 1600 :     m++;  /* infinite loop preventer */

	mov	eax, DWORD PTR _m$[ebp]
	inc	eax
	mov	DWORD PTR _m$[ebp], eax

; 1601 :     if ( m > web.skel[FACETEDGE].count )

	cmp	eax, DWORD PTR _web+512
	jle	SHORT $LN4@get_edge_v

; 1602 :     { sprintf(errmsg,
; 1603 :          "Internal error: edge_valence() in infinite loop on edge %s.\n",
; 1604 :            ELNAME(e_id));

	test	DWORD PTR _e_id$[ebp], 268435456	; 10000000H
	je	SHORT $LN9@get_edge_v
	lea	eax, DWORD PTR [ebx+1]
	push	eax
	push	OFFSET ??_C@_02DPKJAMEF@?$CFd?$AA@
	push	OFFSET _elnames
	call	_sprintf
	add	esp, 12					; 0000000cH
	mov	eax, OFFSET _elnames
	jmp	SHORT $LN10@get_edge_v
$LN9@get_edge_v:
	mov	eax, OFFSET ??_C@_00CNPNBAHC@?$AA@
$LN10@get_edge_v:
	push	eax
	push	OFFSET ??_C@_0DN@BMPMCHPP@Internal?5error?3?5edge_valence?$CI?$CJ?5i@
	push	OFFSET _errmsg
	call	_sprintf

; 1605 :       kb_error(2480,errmsg,RECOVERABLE);

	push	1
	push	OFFSET _errmsg
	push	2480					; 000009b0H
	call	_kb_error
	mov	edi, DWORD PTR _web+460
	add	esp, 24					; 00000018H
$LN4@get_edge_v:

; 1606 :     }
; 1607 :   }
; 1608 :   while ( next_fe != fe );

	cmp	esi, DWORD PTR _fe$[ebp]
	jne	$LL21@get_edge_v

; 1609 :   return n;

	mov	eax, DWORD PTR _n$[ebp]
	pop	edi
	pop	esi
	pop	ebx

; 1610 : } // end get_edge_valence()

	mov	esp, ebp
	pop	ebp
	ret	0
_get_edge_valence ENDP
_TEXT	ENDS
PUBLIC	??_C@_0DP@KGEFDPEA@Internal?5error?3?5facet_valence?$CI?$CJ?5@ ; `string'
PUBLIC	_get_facet_valence
;	COMDAT ??_C@_0DP@KGEFDPEA@Internal?5error?3?5facet_valence?$CI?$CJ?5@
; File c:\levolver\yonkang-sefit\levolver\ev_ogl\inline.h
CONST	SEGMENT
??_C@_0DP@KGEFDPEA@Internal?5error?3?5facet_valence?$CI?$CJ?5@ DB 'Intern'
	DB	'al error: facet_valence() in infinite loop on facet %s.', 0aH
	DB	00H						; `string'
; Function compile flags: /Ogtp
; File c:\levolver\yonkang-sefit\levolver\ev_ogl\utility.c
CONST	ENDS
;	COMDAT _get_facet_valence
_TEXT	SEGMENT
_n$ = -4						; size = 4
_fe$ = 8						; size = 4
_f_id$ = 8						; size = 4
_get_facet_valence PROC					; COMDAT

; 1623 : {

	push	ebp
	mov	ebp, esp
	push	ecx
	push	ebx
	push	esi
	push	edi

; 1624 :   int n = 0;
; 1625 :   facetedge_id fe = get_facet_fe(f_id);

	mov	edi, DWORD PTR _f_id$[ebp]
	mov	ebx, edi
	shr	ebx, 28					; 0000001cH
	xor	ecx, ecx
	and	ebx, 1
	jne	SHORT $LN12@get_facet_@3
	xor	esi, esi
	mov	DWORD PTR _fe$[ebp], esi
	jmp	SHORT $LN13@get_facet_@3
$LN12@get_facet_@3:
	mov	edx, DWORD PTR _web+236
	mov	eax, edi
	and	eax, 134217727				; 07ffffffH
	mov	eax, DWORD PTR [edx+eax*4]
	mov	eax, DWORD PTR [eax+28]
	test	edi, 134217728				; 08000000H
	je	SHORT $LN11@get_facet_@3
	xor	eax, 134217728				; 08000000H
$LN11@get_facet_@3:
	mov	DWORD PTR _fe$[ebp], eax
	mov	esi, eax
$LN13@get_facet_@3:

; 1626 :   facetedge_id next_fe = fe;
; 1627 : 
; 1628 :   if ( !valid_id(fe) ) return 0;

	test	esi, 268435456				; 10000000H
	jne	SHORT $LN20@get_facet_@3
	pop	edi
	pop	esi
	xor	eax, eax
	pop	ebx

; 1641 : } // end get_facet_valence()

	mov	esp, ebp
	pop	ebp
	ret	0
$LN20@get_facet_@3:

; 1626 :   facetedge_id next_fe = fe;
; 1627 : 
; 1628 :   if ( !valid_id(fe) ) return 0;

	mov	eax, DWORD PTR _web+460
	npad	8
$LL5@get_facet_@3:

; 1629 :   do
; 1630 :   { n++;

	inc	ecx
	mov	DWORD PTR _n$[ebp], ecx

; 1631 :     next_fe = get_next_edge(next_fe);

	test	esi, 134217728				; 08000000H
	je	SHORT $LN16@get_facet_@3
	and	esi, 134217727				; 07ffffffH
	mov	edx, DWORD PTR [eax+esi*4]
	mov	esi, DWORD PTR [edx+28]
	xor	esi, 134217728				; 08000000H
	jmp	SHORT $LN15@get_facet_@3
$LN16@get_facet_@3:
	and	esi, 134217727				; 07ffffffH
	mov	edx, DWORD PTR [eax+esi*4]
	mov	esi, DWORD PTR [edx+32]
$LN15@get_facet_@3:

; 1632 :     if ( n > 2*web.skel[EDGE].count )

	mov	edx, DWORD PTR _web+176
	add	edx, edx
	cmp	ecx, edx
	jle	SHORT $LN4@get_facet_@3

; 1633 :     { sprintf(errmsg,
; 1634 :          "Internal error: facet_valence() in infinite loop on facet %s.\n",
; 1635 :            ELNAME(f_id));

	test	ebx, ebx
	je	SHORT $LN9@get_facet_@3
	mov	eax, edi
	and	eax, 134217727				; 07ffffffH
	inc	eax
	push	eax
	push	OFFSET ??_C@_02DPKJAMEF@?$CFd?$AA@
	push	OFFSET _elnames
	call	_sprintf
	add	esp, 12					; 0000000cH
	mov	eax, OFFSET _elnames
	jmp	SHORT $LN10@get_facet_@3
$LN9@get_facet_@3:
	mov	eax, OFFSET ??_C@_00CNPNBAHC@?$AA@
$LN10@get_facet_@3:
	push	eax
	push	OFFSET ??_C@_0DP@KGEFDPEA@Internal?5error?3?5facet_valence?$CI?$CJ?5@
	push	OFFSET _errmsg
	call	_sprintf

; 1636 :       kb_error(2481,errmsg,RECOVERABLE);

	push	1
	push	OFFSET _errmsg
	push	2481					; 000009b1H
	call	_kb_error
	mov	eax, DWORD PTR _web+460
	mov	ecx, DWORD PTR _n$[ebp]
	add	esp, 24					; 00000018H
$LN4@get_facet_@3:

; 1637 :     }
; 1638 :   }
; 1639 :   while ( valid_id(next_fe) && (next_fe != fe) );

	test	esi, 268435456				; 10000000H
	je	SHORT $LN1@get_facet_@3
	cmp	esi, DWORD PTR _fe$[ebp]
	jne	$LL5@get_facet_@3
$LN1@get_facet_@3:
	pop	edi
	pop	esi

; 1640 :   return n;

	mov	eax, ecx
	pop	ebx

; 1641 : } // end get_facet_valence()

	mov	esp, ebp
	pop	ebp
	ret	0
_get_facet_valence ENDP
_TEXT	ENDS
PUBLIC	_get_body_valence
EXTRN	_get_next_body_facet:PROC
; Function compile flags: /Ogtp
;	COMDAT _get_body_valence
_TEXT	SEGMENT
_b_id$ = 8						; size = 4
_get_body_valence PROC					; COMDAT

; 1651 : {

	push	ebp
	mov	ebp, esp

; 1652 :   int n = 0;
; 1653 :   facet_id f_id = get_body_facet(b_id);

	mov	eax, DWORD PTR _b_id$[ebp]
	push	esi
	push	edi
	xor	edi, edi
	test	eax, 268435456				; 10000000H
	je	SHORT $LN11@get_body_v@3
	mov	ecx, DWORD PTR _web+348
	and	eax, 134217727				; 07ffffffH
	mov	edx, DWORD PTR [ecx+eax*4]
	mov	esi, DWORD PTR [edx+400]
	jmp	SHORT $LN12@get_body_v@3
$LN11@get_body_v@3:
	xor	esi, esi
$LN12@get_body_v@3:

; 1654 :   facet_id next_f = f_id;

	mov	eax, esi

; 1655 : 
; 1656 :   if ( !valid_id(f_id) ) return 0;

	test	esi, 268435456				; 10000000H
	jne	SHORT $LN6@get_body_v@3
	pop	edi
	xor	eax, eax
	pop	esi

; 1670 : } // end get_body_valence()

	pop	ebp
	ret	0
$LN6@get_body_v@3:

; 1657 :   if ( web.representation == STRING ) return get_facet_valence(f_id);

	cmp	DWORD PTR _web+624, 1
	jne	SHORT $LL4@get_body_v@3
	push	esi
	call	_get_facet_valence
	add	esp, 4
	pop	edi
	pop	esi

; 1670 : } // end get_body_valence()

	pop	ebp
	ret	0
	npad	1
$LL4@get_body_v@3:

; 1658 : /*
; 1659 :   if ( bfacet_timestamp < top_timestamp )
; 1660 :   { make_bfacet_lists();
; 1661 :     bfacet_timestamp = top_timestamp;
; 1662 :   }
; 1663 : */
; 1664 :   do
; 1665 :   { n++;
; 1666 :     next_f = get_next_body_facet(next_f);

	push	eax
	inc	edi
	call	_get_next_body_facet
	add	esp, 4

; 1667 :   }
; 1668 :   while ( (next_f != f_id) && (n < 3*web.skel[FACET].count) );

	cmp	eax, esi
	je	SHORT $LN1@get_body_v@3
	mov	ecx, DWORD PTR _web+288
	lea	ecx, DWORD PTR [ecx+ecx*2]
	cmp	edi, ecx
	jl	SHORT $LL4@get_body_v@3
$LN1@get_body_v@3:

; 1669 :   return n;

	mov	eax, edi
	pop	edi
	pop	esi

; 1670 : } // end get_body_valence()

	pop	ebp
	ret	0
_get_body_valence ENDP
_TEXT	ENDS
PUBLIC	_set_facet_vertices
; Function compile flags: /Ogtp
;	COMDAT _set_facet_vertices
_TEXT	SEGMENT
_set_facet_vertices PROC				; COMDAT

; 1681 :   /* have to make expandable v list for quadratic mode */
; 1682 : }

	ret	0
_set_facet_vertices ENDP
_TEXT	ENDS
PUBLIC	_end_normal_motion
EXTRN	_normal_motion_flag:DWORD
EXTRN	_vertex_normals:DWORD
; Function compile flags: /Ogtp
;	COMDAT _end_normal_motion
_TEXT	SEGMENT
_end_normal_motion PROC					; COMDAT

; 1729 :   if ( vertex_normals != NULL ) myfree((char*)vertex_normals);

	mov	eax, DWORD PTR _vertex_normals
	push	esi
	xor	esi, esi
	cmp	eax, esi
	je	SHORT $LN4@end_normal
	push	eax
	call	_myfree
	add	esp, 4
$LN4@end_normal:

; 1730 :   vertex_normals = NULL;
; 1731 :   normal_motion_flag = 0;

	mov	DWORD PTR _normal_motion_flag, esi
	mov	DWORD PTR _vertex_normals, esi
	pop	esi

; 1732 : } // end end_normal_motion()

	ret	0
_end_normal_motion ENDP
_TEXT	ENDS
PUBLIC	_norm$GSCopy$
PUBLIC	_fe$GSCopy$
PUBLIC	_v_id$GSCopy$
PUBLIC	__$ArrayPad$
PUBLIC	_calc_vertex_normal
EXTRN	_dot:PROC
EXTRN	_set_v_constraint_status:PROC
EXTRN	_clear_v_constraint_status:PROC
EXTRN	_constr_proj:PROC
EXTRN	_nullcon:QWORD
EXTRN	_cross_prod:PROC
EXTRN	_F_BOUNDARY_ATTR:DWORD
; Function compile flags: /Ogtp
;	COMDAT _calc_vertex_normal
_TEXT	SEGMENT
_con$90104 = -272					; size = 28
tv1090 = -244						; size = 4
_bdry$ = -240						; size = 4
_v_id$GSCopy$ = -236					; size = 4
_fe$GSCopy$ = -232					; size = 4
_norm$GSCopy$ = -228					; size = 4
_perp$90106 = -224					; size = 48
_fnorm$ = -176						; size = 48
_conlist$90105 = -128					; size = 28
_z$ = -100						; size = 48
_y$ = -52						; size = 48
__$ArrayPad$ = -4					; size = 4
_v_id$ = 8						; size = 4
_fe$ = 12						; size = 4
_norm$ = 16						; size = 4
_calc_vertex_normal PROC				; COMDAT

; 1876 : {

	push	ebp
	mov	ebp, esp
	sub	esp, 272				; 00000110H
	mov	eax, DWORD PTR ___security_cookie
	xor	eax, ebp
	mov	DWORD PTR __$ArrayPad$[ebp], eax

; 1877 :   int i,j;
; 1878 :   REAL y[MAXCOORD],z[MAXCOORD];
; 1879 :   REAL fnorm[MAXCOORD];
; 1880 :   facetedge_id sidea;
; 1881 :   struct boundary *bdry;  /* to check staying on same boundary */
; 1882 :   REAL size;
; 1883 : 
; 1884 : 
; 1885 :   /* check for string */
; 1886 :   if ( web.representation == STRING )

	cmp	DWORD PTR _web+624, 1
	mov	edx, DWORD PTR _v_id$[ebp]
	mov	eax, DWORD PTR _fe$[ebp]
	push	ebx
	push	esi
	mov	esi, DWORD PTR _norm$[ebp]
	push	edi

; 1942 : 
; 1943 :   /* orient */
; 1944 :   onormalize:
; 1945 :   if ( inverted(get_fe_facet(fe)) )

	mov	DWORD PTR _v_id$GSCopy$[ebp], edx
	mov	DWORD PTR _fe$GSCopy$[ebp], eax
	mov	DWORD PTR _norm$GSCopy$[ebp], esi
	jne	$LN48@calc_verte

; 1887 :   { edge_id e_id,ee_id;
; 1888 :     e_id = get_vertex_edge(v_id);

	mov	eax, DWORD PTR _web+12
	and	edx, 134217727				; 07ffffffH
	mov	ecx, DWORD PTR [eax+edx*4]
	mov	edi, DWORD PTR [ecx+28]

; 1889 :     ee_id = get_next_tail_edge(e_id);

	mov	eax, DWORD PTR _web+124
	mov	edx, edi
	and	edx, 134217727				; 07ffffffH
	mov	ecx, DWORD PTR [eax+edx*4]
	mov	esi, edi

; 1890 : 
; 1891 :     get_edge_side(e_id,z);

	lea	edx, DWORD PTR _z$[ebp]
	shr	esi, 27					; 0000001bH
	push	edx
	and	esi, 1
	mov	ebx, DWORD PTR [ecx+esi*4+32]
	push	edi
	call	_get_edge_side

; 1892 :     get_edge_side(ee_id,y);

	lea	eax, DWORD PTR _y$[ebp]
	push	eax
	push	ebx
	call	_get_edge_side

; 1893 :     if ( equal_id(e_id,ee_id) ) { norm[0] = y[1]; norm[1] = -y[0]; }

	fld	QWORD PTR _y$[ebp+8]
	mov	eax, DWORD PTR _norm$GSCopy$[ebp]
	add	esp, 16					; 00000010H
	cmp	edi, ebx
	jne	SHORT $LN47@calc_verte
	fstp	QWORD PTR [eax]
	fld	QWORD PTR _y$[ebp]
	fchs
	jmp	SHORT $LN178@calc_verte
$LN47@calc_verte:

; 1894 :     else { norm[0] = y[1] - z[1]; norm[1] = z[0] - y[0]; }

	fsub	QWORD PTR _z$[ebp+8]
	fstp	QWORD PTR [eax]
	fld	QWORD PTR _z$[ebp]
	fsub	QWORD PTR _y$[ebp]
$LN178@calc_verte:
	fstp	QWORD PTR [eax+8]

; 1895 :     if (inverted(e_id)) { norm[0] = -norm[0]; norm[1] = -norm[1];}

	test	esi, esi
	je	$normalize$90047
	fld	QWORD PTR [eax]
	fchs
	fstp	QWORD PTR [eax]
	fld	QWORD PTR [eax+8]
	fchs
	fstp	QWORD PTR [eax+8]

; 1896 :     goto normalize;

	jmp	$normalize$90047
$LN48@calc_verte:

; 1897 :   }
; 1898 : 
; 1899 :   if ( !valid_id(fe) )

	mov	ecx, eax
	shr	ecx, 28					; 0000001cH
	and	ecx, 1
	mov	DWORD PTR tv1090[ebp], ecx
	jne	SHORT $LN160@calc_verte

; 1900 :   { fe = get_vertex_fe(v_id);

	push	edx
	call	_get_vertex_fe

; 1901 :     if ( !valid_id(fe) )

	mov	ecx, eax
	shr	ecx, 28					; 0000001cH
	add	esp, 4
	and	ecx, 1
	mov	DWORD PTR _fe$GSCopy$[ebp], eax
	mov	DWORD PTR tv1090[ebp], ecx
	jne	SHORT $LN160@calc_verte

; 1902 :     { for ( i = 0 ; i < SDIM ; i++ ) norm[i] = 0.0;

	fldz
	xor	eax, eax
	cmp	DWORD PTR _web+616, eax
	jle	$LN49@calc_verte
$LN42@calc_verte:
	fst	QWORD PTR [esi+eax*8]
	inc	eax
	cmp	eax, DWORD PTR _web+616
	jl	SHORT $LN42@calc_verte
	pop	edi
	pop	esi
	pop	ebx

; 1980 : } // end calc_vertex_normal()

	mov	ecx, DWORD PTR __$ArrayPad$[ebp]
	xor	ecx, ebp
	call	@__security_check_cookie@4
	mov	esp, ebp
	pop	ebp
	ret	0
$LN160@calc_verte:

; 1903 :       return 0.0;
; 1904 :     }
; 1905 :   }
; 1906 : 
; 1907 :   for ( i = 0 ; i < SDIM ; i++ ) norm[i] = 0.0;

	xor	edx, edx
	cmp	DWORD PTR _web+616, edx
	jle	SHORT $LN37@calc_verte
$LL39@calc_verte:
	fldz
	inc	edx
	fstp	QWORD PTR [esi+edx*8-8]
	cmp	edx, DWORD PTR _web+616
	jl	SHORT $LL39@calc_verte
$LN37@calc_verte:

; 1908 :   bdry = get_facet_boundary(get_fe_facet(fe));  /* original boundary */

	mov	edx, DWORD PTR _F_BOUNDARY_ATTR
	mov	ebx, DWORD PTR _web+460
	test	edx, edx
	je	SHORT $LN51@calc_verte
	test	ecx, ecx
	jne	SHORT $LN62@calc_verte
	mov	ecx, DWORD PTR _NULLFACET
	jmp	SHORT $LN61@calc_verte
$LN62@calc_verte:
	mov	ecx, eax
	and	ecx, 134217727				; 07ffffffH
	mov	ecx, DWORD PTR [ebx+ecx*4]
	mov	ecx, DWORD PTR [ecx+24]
	test	eax, 134217728				; 08000000H
	je	SHORT $LN61@calc_verte
	xor	ecx, 134217728				; 08000000H
$LN61@calc_verte:
	mov	esi, DWORD PTR _web+236
	imul	edx, 240				; 000000f0H
	add	edx, DWORD PTR _web+328
	and	ecx, 134217727				; 07ffffffH
	mov	ecx, DWORD PTR [esi+ecx*4]
	mov	esi, DWORD PTR _dymem
	mov	edx, DWORD PTR [edx+esi+64]
	mov	ecx, DWORD PTR [ecx+edx]
	imul	ecx, 136				; 00000088H
	add	ecx, DWORD PTR _web+776
	mov	DWORD PTR _bdry$[ebp], ecx
	jmp	SHORT $LN52@calc_verte
$LN51@calc_verte:
	mov	DWORD PTR _bdry$[ebp], 0
$LN52@calc_verte:

; 1909 : 
; 1910 :   /* go around one way to edge of face */
; 1911 :   sidea = fe;

	mov	esi, eax
$LL36@calc_verte:

; 1912 :   do
; 1913 :   {
; 1914 :     get_fe_side(sidea,z);

	mov	edi, esi
	and	edi, 134217727				; 07ffffffH
	add	edi, edi
	add	edi, edi
	mov	ecx, DWORD PTR [edi+ebx]
	mov	edx, esi
	and	edx, 134217728				; 08000000H
	xor	edx, DWORD PTR [ecx+20]
	lea	eax, DWORD PTR _z$[ebp]
	push	eax
	push	edx
	call	_get_edge_side

; 1915 :     get_fe_side(get_prev_edge(sidea),y);

	mov	ecx, DWORD PTR _web+460
	shr	esi, 27					; 0000001bH
	add	esp, 8
	and	esi, 1
	je	SHORT $LN68@calc_verte
	mov	eax, DWORD PTR [edi+ecx]
	mov	eax, DWORD PTR [eax+32]
	xor	eax, 134217728				; 08000000H
	jmp	SHORT $LN67@calc_verte
$LN68@calc_verte:
	mov	edx, DWORD PTR [edi+ecx]
	mov	eax, DWORD PTR [edx+28]
$LN67@calc_verte:
	lea	edx, DWORD PTR _y$[ebp]
	push	edx
	mov	edx, eax
	and	edx, 134217727				; 07ffffffH
	mov	ecx, DWORD PTR [ecx+edx*4]
	and	eax, 134217728				; 08000000H
	xor	eax, DWORD PTR [ecx+20]
	push	eax
	call	_get_edge_side

; 1916 :     cross_prod(y,z,fnorm);

	lea	edx, DWORD PTR _fnorm$[ebp]
	push	edx
	lea	eax, DWORD PTR _z$[ebp]
	push	eax
	lea	ecx, DWORD PTR _y$[ebp]
	push	ecx
	call	_cross_prod

; 1917 :     for ( i = 0 ; i < SDIM ; i++ ) norm[i] += fnorm[i];

	xor	ecx, ecx
	add	esp, 20					; 00000014H
	cmp	DWORD PTR _web+616, ecx
	jle	SHORT $LN161@calc_verte
	mov	eax, DWORD PTR _norm$GSCopy$[ebp]
	lea	edx, DWORD PTR _fnorm$[ebp]
	sub	edx, eax
	npad	7
$LL33@calc_verte:
	fld	QWORD PTR [edx+eax]
	inc	ecx
	fadd	QWORD PTR [eax]
	add	eax, 8
	fstp	QWORD PTR [eax-8]
	cmp	ecx, DWORD PTR _web+616
	jl	SHORT $LL33@calc_verte
$LN161@calc_verte:

; 1918 : 
; 1919 :     /* go to next facet */
; 1920 :     sidea = get_prev_edge(sidea);

	mov	ebx, DWORD PTR _web+460
	test	esi, esi
	je	SHORT $LN74@calc_verte
	mov	edx, DWORD PTR [edi+ebx]
	mov	eax, DWORD PTR [edx+32]
	xor	eax, 134217728				; 08000000H
	jmp	SHORT $LN73@calc_verte
$LN74@calc_verte:
	mov	eax, DWORD PTR [edi+ebx]
	mov	eax, DWORD PTR [eax+28]
$LN73@calc_verte:

; 1921 :     if ( equal_id(sidea,get_next_facet(sidea)) ) break;  /* edge */

	mov	esi, eax
	shr	esi, 27					; 0000001bH
	and	esi, 1
	je	SHORT $LN78@calc_verte
	mov	ecx, eax
	and	ecx, 134217727				; 07ffffffH
	mov	edx, DWORD PTR [ebx+ecx*4]
	mov	ecx, DWORD PTR [edx+36]
	xor	ecx, 134217728				; 08000000H
	jmp	SHORT $LN77@calc_verte
$LN78@calc_verte:
	mov	edx, eax
	and	edx, 134217727				; 07ffffffH
	mov	edx, DWORD PTR [ebx+edx*4]
	mov	ecx, DWORD PTR [edx+40]
$LN77@calc_verte:
	cmp	eax, ecx
	je	$LN34@calc_verte

; 1922 :     sidea = fe_inverse(get_next_facet(sidea));

	test	esi, esi
	je	SHORT $LN82@calc_verte
	mov	esi, DWORD PTR [edx+36]
	xor	esi, 134217728				; 08000000H
	jmp	SHORT $LN81@calc_verte
$LN82@calc_verte:
	mov	esi, DWORD PTR [edx+40]
$LN81@calc_verte:

; 1923 :     if ( bdry != get_facet_boundary(get_fe_facet(sidea)) ) break;

	mov	ecx, DWORD PTR _F_BOUNDARY_ATTR
	xor	esi, 134217728				; 08000000H
	test	ecx, ecx
	je	SHORT $LN53@calc_verte
	test	esi, 268435456				; 10000000H
	jne	SHORT $LN86@calc_verte
	mov	eax, DWORD PTR _NULLFACET
	jmp	SHORT $LN85@calc_verte
$LN86@calc_verte:
	mov	eax, esi
	and	eax, 134217727				; 07ffffffH
	mov	edx, DWORD PTR [ebx+eax*4]
	mov	eax, DWORD PTR [edx+24]
	test	esi, 134217728				; 08000000H
	je	SHORT $LN85@calc_verte
	xor	eax, 134217728				; 08000000H
$LN85@calc_verte:
	mov	edx, DWORD PTR _web+236
	imul	ecx, 240				; 000000f0H
	add	ecx, DWORD PTR _web+328
	and	eax, 134217727				; 07ffffffH
	mov	eax, DWORD PTR [edx+eax*4]
	mov	edx, DWORD PTR _dymem
	mov	ecx, DWORD PTR [ecx+edx+64]
	mov	eax, DWORD PTR [eax+ecx]
	imul	eax, 136				; 00000088H
	add	eax, DWORD PTR _web+776
	jmp	SHORT $LN54@calc_verte
$LN53@calc_verte:
	xor	eax, eax
$LN54@calc_verte:
	cmp	DWORD PTR _bdry$[ebp], eax
	jne	SHORT $LN34@calc_verte

; 1924 :     if ( equal_id(sidea,fe) ) goto onormalize; /* went all the way around */

	cmp	esi, DWORD PTR _fe$GSCopy$[ebp]
	je	$onormalize$90075

; 1925 :   }
; 1926 :   while ( equal_id(get_next_facet(sidea),get_prev_facet(sidea)) );

	mov	edx, esi
	shr	edx, 27					; 0000001bH
	and	edx, 1
	je	SHORT $LN90@calc_verte
	mov	eax, esi
	and	eax, 134217727				; 07ffffffH
	mov	eax, DWORD PTR [ebx+eax*4]
	mov	ecx, DWORD PTR [eax+36]
	xor	ecx, 134217728				; 08000000H
	jmp	SHORT $LN89@calc_verte
$LN90@calc_verte:
	mov	ecx, esi
	and	ecx, 134217727				; 07ffffffH
	mov	eax, DWORD PTR [ebx+ecx*4]
	mov	ecx, DWORD PTR [eax+40]
$LN89@calc_verte:
	test	edx, edx
	je	SHORT $LN94@calc_verte
	mov	eax, DWORD PTR [eax+40]
	xor	eax, 134217728				; 08000000H
	jmp	SHORT $LN93@calc_verte
$LN94@calc_verte:
	mov	eax, DWORD PTR [eax+36]
$LN93@calc_verte:
	cmp	ecx, eax
	je	$LL36@calc_verte
$LN34@calc_verte:

; 1927 : 
; 1928 :   /* go around the other way */
; 1929 :   sidea = fe;

	mov	edi, DWORD PTR _fe$GSCopy$[ebp]

; 1941 :   }

	jmp	SHORT $LL27@calc_verte
	npad	5
$LL158@calc_verte:
	mov	ebx, DWORD PTR _web+460
$LL27@calc_verte:

; 1930 :   while ( equal_id(get_next_facet(sidea),get_prev_facet(sidea)) )

	mov	esi, edi
	shr	esi, 27					; 0000001bH
	and	esi, 1
	je	SHORT $LN98@calc_verte
	mov	edx, edi
	and	edx, 134217727				; 07ffffffH
	mov	eax, DWORD PTR [ebx+edx*4]
	mov	ecx, DWORD PTR [eax+36]
	xor	ecx, 134217728				; 08000000H
	jmp	SHORT $LN97@calc_verte
$LN98@calc_verte:
	mov	eax, edi
	and	eax, 134217727				; 07ffffffH
	mov	eax, DWORD PTR [ebx+eax*4]
	mov	ecx, DWORD PTR [eax+40]
$LN97@calc_verte:
	test	esi, esi
	je	SHORT $LN102@calc_verte
	mov	edx, DWORD PTR [eax+40]
	xor	edx, 134217728				; 08000000H
	jmp	SHORT $LN101@calc_verte
$LN102@calc_verte:
	mov	edx, DWORD PTR [eax+36]
$LN101@calc_verte:
	cmp	ecx, edx
	jne	$onormalize$90075

; 1931 :   {
; 1932 :     if ( equal_id(sidea,get_next_facet(sidea)) ) break;  /* edge */

	test	esi, esi
	je	SHORT $LN106@calc_verte
	mov	ecx, DWORD PTR [eax+36]
	xor	ecx, 134217728				; 08000000H
	jmp	SHORT $LN105@calc_verte
$LN106@calc_verte:
	mov	ecx, DWORD PTR [eax+40]
$LN105@calc_verte:
	cmp	edi, ecx
	je	$onormalize$90075

; 1933 :     sidea = fe_inverse(get_next_facet(sidea));

	test	esi, esi
	je	SHORT $LN110@calc_verte
	mov	eax, DWORD PTR [eax+36]
	xor	eax, 134217728				; 08000000H
	jmp	SHORT $LN109@calc_verte
$LN110@calc_verte:
	mov	eax, DWORD PTR [eax+40]
$LN109@calc_verte:
	xor	eax, 134217728				; 08000000H

; 1934 :     sidea = get_next_edge(sidea);

	test	eax, 134217728				; 08000000H
	je	SHORT $LN114@calc_verte
	and	eax, 134217727				; 07ffffffH
	mov	ecx, DWORD PTR [ebx+eax*4]
	mov	edi, DWORD PTR [ecx+28]
	xor	edi, 134217728				; 08000000H
	jmp	SHORT $LN113@calc_verte
$LN114@calc_verte:
	and	eax, 134217727				; 07ffffffH
	mov	edx, DWORD PTR [ebx+eax*4]
	mov	edi, DWORD PTR [edx+32]
$LN113@calc_verte:

; 1935 :     if ( bdry != get_facet_boundary(get_fe_facet(sidea)) ) break;

	mov	ecx, DWORD PTR _F_BOUNDARY_ATTR
	test	ecx, ecx
	je	SHORT $LN55@calc_verte
	test	edi, 268435456				; 10000000H
	jne	SHORT $LN118@calc_verte
	mov	eax, DWORD PTR _NULLFACET
	jmp	SHORT $LN117@calc_verte
$LN118@calc_verte:
	mov	eax, edi
	and	eax, 134217727				; 07ffffffH
	mov	edx, DWORD PTR [ebx+eax*4]
	mov	eax, DWORD PTR [edx+24]
	test	edi, 134217728				; 08000000H
	je	SHORT $LN117@calc_verte
	xor	eax, 134217728				; 08000000H
$LN117@calc_verte:
	mov	edx, DWORD PTR _web+236
	imul	ecx, 240				; 000000f0H
	add	ecx, DWORD PTR _web+328
	and	eax, 134217727				; 07ffffffH
	mov	eax, DWORD PTR [edx+eax*4]
	mov	edx, DWORD PTR _dymem
	mov	ecx, DWORD PTR [ecx+edx+64]
	mov	eax, DWORD PTR [eax+ecx]
	imul	eax, 136				; 00000088H
	add	eax, DWORD PTR _web+776
	jmp	SHORT $LN56@calc_verte
$LN55@calc_verte:
	xor	eax, eax
$LN56@calc_verte:
	cmp	DWORD PTR _bdry$[ebp], eax
	jne	$onormalize$90075

; 1936 : 
; 1937 :     get_fe_side(sidea,z);

	mov	esi, edi
	and	esi, 134217727				; 07ffffffH
	add	esi, esi
	add	esi, esi
	mov	eax, DWORD PTR [esi+ebx]
	mov	ecx, edi
	and	ecx, 134217728				; 08000000H
	xor	ecx, DWORD PTR [eax+20]
	lea	edx, DWORD PTR _z$[ebp]
	push	edx
	push	ecx
	call	_get_edge_side

; 1938 :     get_fe_side(get_prev_edge(sidea),y);

	mov	ecx, DWORD PTR _web+460
	add	esp, 8
	test	edi, 134217728				; 08000000H
	je	SHORT $LN124@calc_verte
	mov	edx, DWORD PTR [esi+ecx]
	mov	eax, DWORD PTR [edx+32]
	xor	eax, 134217728				; 08000000H
	jmp	SHORT $LN123@calc_verte
$LN124@calc_verte:
	mov	eax, DWORD PTR [esi+ecx]
	mov	eax, DWORD PTR [eax+28]
$LN123@calc_verte:
	lea	edx, DWORD PTR _y$[ebp]
	push	edx
	mov	edx, eax
	and	edx, 134217727				; 07ffffffH
	mov	ecx, DWORD PTR [ecx+edx*4]
	and	eax, 134217728				; 08000000H
	xor	eax, DWORD PTR [ecx+20]
	push	eax
	call	_get_edge_side

; 1939 :     cross_prod(y,z,fnorm);

	lea	edx, DWORD PTR _fnorm$[ebp]
	push	edx
	lea	eax, DWORD PTR _z$[ebp]
	push	eax
	lea	ecx, DWORD PTR _y$[ebp]
	push	ecx
	call	_cross_prod

; 1940 :     for ( i = 0 ; i < SDIM ; i++ ) norm[i] += fnorm[i];

	xor	ecx, ecx
	add	esp, 20					; 00000014H
	cmp	DWORD PTR _web+616, ecx
	jle	$LL158@calc_verte
	mov	eax, DWORD PTR _norm$GSCopy$[ebp]
	lea	edx, DWORD PTR _fnorm$[ebp]
	sub	edx, eax
$LL165@calc_verte:
	fld	QWORD PTR [eax+edx]
	inc	ecx
	fadd	QWORD PTR [eax]
	add	eax, 8
	fstp	QWORD PTR [eax-8]
	cmp	ecx, DWORD PTR _web+616
	jl	SHORT $LL165@calc_verte

; 1941 :   }

	jmp	$LL158@calc_verte
$onormalize$90075:

; 1942 : 
; 1943 :   /* orient */
; 1944 :   onormalize:
; 1945 :   if ( inverted(get_fe_facet(fe)) )

	cmp	DWORD PTR tv1090[ebp], 0
	jne	SHORT $LN130@calc_verte
	mov	eax, DWORD PTR _NULLFACET
	jmp	SHORT $LN129@calc_verte
$LN130@calc_verte:
	mov	ecx, DWORD PTR _fe$GSCopy$[ebp]
	mov	edx, ecx
	and	edx, 134217727				; 07ffffffH
	mov	eax, DWORD PTR [ebx+edx*4]
	mov	eax, DWORD PTR [eax+24]
	test	ecx, 134217728				; 08000000H
	je	SHORT $LN129@calc_verte
	xor	eax, 134217728				; 08000000H
$LN129@calc_verte:
	test	eax, 134217728				; 08000000H
	je	SHORT $normalize$90047

; 1946 :       for ( i = 0 ; i < SDIM ; i++ ) norm[i] = -norm[i];

	xor	eax, eax
	cmp	DWORD PTR _web+616, eax
	jle	SHORT $normalize$90047
	mov	ecx, DWORD PTR _norm$GSCopy$[ebp]
$LL166@calc_verte:
	fld	QWORD PTR [ecx+eax*8]
	inc	eax
	fchs
	fstp	QWORD PTR [ecx+eax*8-8]
	cmp	eax, DWORD PTR _web+616
	jl	SHORT $LL166@calc_verte
$normalize$90047:

; 1947 : 
; 1948 :   normalize:
; 1949 :   if ( get_vattr(v_id) & CONSTRAINT )

	mov	ecx, DWORD PTR _v_id$GSCopy$[ebp]
	mov	edx, DWORD PTR _web+12
	and	ecx, 134217727				; 07ffffffH
	mov	eax, DWORD PTR [edx+ecx*4]
	mov	eax, DWORD PTR [eax+8]
	lea	edi, DWORD PTR [edx+ecx*4]
	and	eax, 1024				; 00000400H
	xor	ecx, ecx
	or	eax, ecx
	je	$LN162@calc_verte

; 1950 :     {
; 1951 :       conmap_t * conmap = get_v_constraint_map(v_id);

	mov	edx, DWORD PTR _web+104
	mov	eax, DWORD PTR _dymem
	cmp	DWORD PTR [edx+eax+1288], ecx
	je	SHORT $LN57@calc_verte
	mov	eax, DWORD PTR [edx+eax+1264]
	add	eax, DWORD PTR [edi]
	jmp	SHORT $LN58@calc_verte
$LN57@calc_verte:
	mov	eax, OFFSET _nullcon
$LN58@calc_verte:

; 1952 :       int oncount = 0,hitcount;
; 1953 :       struct constraint *con[MAXCONHIT];
; 1954 :       int conlist[MAXCONHIT];
; 1955 :       REAL perp[MAXCOORD];
; 1956 : 
; 1957 :       for ( j = 1 ; j <= (int)conmap[0] ; j++ )

	mov	ecx, 1
	xor	esi, esi
	cmp	DWORD PTR [eax], ecx
	jl	SHORT $LN13@calc_verte
	npad	4
$LL167@calc_verte:

; 1958 :         { 
; 1959 :           if ( (conmap[j] & CON_HIT_BIT) && (oncount < web.sdim) )

	mov	edx, DWORD PTR [eax+ecx*4]
	test	edx, edx
	jns	SHORT $LN14@calc_verte
	cmp	esi, DWORD PTR _web+616
	jge	SHORT $LN14@calc_verte

; 1960 :           { conlist[oncount] = conmap[j];

	mov	DWORD PTR _conlist$90105[ebp+esi*4], edx

; 1961 :             con[oncount++] = get_constraint(conmap[j]);

	mov	edx, DWORD PTR [eax+ecx*4]
	and	edx, 1073741823				; 3fffffffH
	imul	edx, 176				; 000000b0H
	add	edx, DWORD PTR _web+652
	inc	esi
	mov	DWORD PTR _con$90104[ebp+esi*4-4], edx
$LN14@calc_verte:

; 1952 :       int oncount = 0,hitcount;
; 1953 :       struct constraint *con[MAXCONHIT];
; 1954 :       int conlist[MAXCONHIT];
; 1955 :       REAL perp[MAXCOORD];
; 1956 : 
; 1957 :       for ( j = 1 ; j <= (int)conmap[0] ; j++ )

	inc	ecx
	cmp	ecx, DWORD PTR [eax]
	jle	SHORT $LL167@calc_verte
	mov	edx, DWORD PTR _web+104
$LN13@calc_verte:

; 1962 :           }
; 1963 :         }
; 1964 : 
; 1965 :       hitcount = constr_proj(TANGPROJ,oncount,con,get_coord(v_id),
; 1966 :                  norm,perp,conlist,DETECT,v_id);

	mov	eax, DWORD PTR _v_id$GSCopy$[ebp]
	mov	ebx, DWORD PTR _norm$GSCopy$[ebp]
	push	eax
	push	1
	lea	ecx, DWORD PTR _conlist$90105[ebp]
	push	ecx
	mov	ecx, DWORD PTR _dymem
	mov	edx, DWORD PTR [edx+ecx+64]
	add	edx, DWORD PTR [edi]
	lea	eax, DWORD PTR _perp$90106[ebp]
	push	eax
	push	ebx
	push	edx
	lea	eax, DWORD PTR _con$90104[ebp]
	push	eax
	push	esi
	push	2
	call	_constr_proj
	mov	edi, eax
	add	esp, 36					; 00000024H

; 1967 :       if ( hitcount != oncount )

	cmp	edi, esi
	je	SHORT $LN8@calc_verte

; 1968 :         { clear_v_constraint_status(v_id);

	mov	ecx, DWORD PTR _v_id$GSCopy$[ebp]
	push	ecx
	call	_clear_v_constraint_status
	add	esp, 4

; 1969 :           for ( j = 0 ; j < hitcount ; j++ )

	xor	esi, esi
	test	edi, edi
	jle	SHORT $LN8@calc_verte
$LL168@calc_verte:

; 1970 :              set_v_constraint_status(v_id,conlist[j]);

	mov	edx, DWORD PTR _conlist$90105[ebp+esi*4]
	mov	eax, DWORD PTR _v_id$GSCopy$[ebp]
	push	edx
	push	eax
	call	_set_v_constraint_status
	inc	esi
	add	esp, 8
	cmp	esi, edi
	jl	SHORT $LL168@calc_verte
$LN8@calc_verte:

; 1971 :         }
; 1972 :       for ( j = 0 ; j < SDIM ; j++ )

	xor	ecx, ecx
	cmp	DWORD PTR _web+616, ecx
	jle	SHORT $LN5@calc_verte
	lea	edx, DWORD PTR _perp$90106[ebp]
	mov	eax, ebx
	sub	edx, ebx
	npad	3
$LL169@calc_verte:

; 1973 :         norm[j] -= perp[j];

	fld	QWORD PTR [eax]
	inc	ecx
	fsub	QWORD PTR [edx+eax]
	add	eax, 8
	fstp	QWORD PTR [eax-8]
	cmp	ecx, DWORD PTR _web+616
	jl	SHORT $LL169@calc_verte

; 1971 :         }
; 1972 :       for ( j = 0 ; j < SDIM ; j++ )

	jmp	SHORT $LN5@calc_verte
$LN162@calc_verte:
	mov	ebx, DWORD PTR _norm$GSCopy$[ebp]
$LN5@calc_verte:

; 1974 :      }
; 1975 :       
; 1976 :   size = sqrt(SDIM_dot(norm,norm));

	mov	ecx, DWORD PTR _web+616
	push	ecx
	push	ebx
	push	ebx
	call	_dot
	add	esp, 12					; 0000000cH
	call	__CIsqrt

; 1977 :   if ( size <= 0.0 ) return 0.0; 

	fldz
	fcom	ST(1)
	fnstsw	ax
	test	ah, 1
	jne	SHORT $LN174@calc_verte
	pop	edi
	fstp	ST(1)
	pop	esi
	pop	ebx

; 1980 : } // end calc_vertex_normal()

	mov	ecx, DWORD PTR __$ArrayPad$[ebp]
	xor	ecx, ebp
	call	@__security_check_cookie@4
	mov	esp, ebp
	pop	ebp
	ret	0
$LN174@calc_verte:

; 1978 :   for ( i = 0 ; i < SDIM ; i++ ) norm[i] /= size;

	xor	eax, eax
	fstp	ST(0)
	cmp	DWORD PTR _web+616, eax
	jle	SHORT $LN1@calc_verte
$LN170@calc_verte:
	fld	QWORD PTR [ebx+eax*8]
	inc	eax
	fdiv	ST(0), ST(1)
	fstp	QWORD PTR [ebx+eax*8-8]
	cmp	eax, DWORD PTR _web+616
	jl	SHORT $LN170@calc_verte
$LN1@calc_verte:

; 1979 :   return size/web.simplex_factorial;

	fdiv	QWORD PTR _web+792
$LN49@calc_verte:

; 1980 : } // end calc_vertex_normal()

	mov	ecx, DWORD PTR __$ArrayPad$[ebp]
	pop	edi
	pop	esi
	xor	ecx, ebp
	pop	ebx
	call	@__security_check_cookie@4
	mov	esp, ebp
	pop	ebp
	ret	0
_calc_vertex_normal ENDP
_TEXT	ENDS
PUBLIC	_normcount$GSCopy$
PUBLIC	_normals$GSCopy$
PUBLIC	__$ArrayPad$
PUBLIC	_project_vertex_normals
EXTRN	_hessian_epsilon:QWORD
EXTRN	_tr_mat_mul:PROC
EXTRN	_mat_mul_tr:PROC
EXTRN	_gram_schmidt:PROC
EXTRN	_eval_all:PROC
EXTRN	_mat2d_setup:PROC
; Function compile flags: /Ogtp
;	COMDAT _project_vertex_normals
_TEXT	SEGMENT
_gradsqXvS$ = -980					; size = 24
_qqqXvS$ = -956						; size = 24
_ppqXvS$ = -932						; size = 24
_dummy$ = -908						; size = 8
_grads$ = -900						; size = 4
_pp$ = -896						; size = 4
_oncount$ = -892					; size = 4
_qq$ = -888						; size = 4
_conmap$ = -884						; size = 4
_normals$GSCopy$ = -880					; size = 4
tv792 = -876						; size = 4
_j$ = -876						; size = 4
_normcount$GSCopy$ = -872				; size = 4
_gradsxJ$ = -868					; size = 288
_qqxJ$ = -580						; size = 288
_ppxJ$ = -292						; size = 288
__$ArrayPad$ = -4					; size = 4
_v_id$ = 8						; size = 4
_normals$ = 12						; size = 4
_normcount$ = 16					; size = 4
_project_vertex_normals PROC				; COMDAT

; 2598 : { conmap_t *conmap;

	push	ebp
	mov	ebp, esp
	sub	esp, 980				; 000003d4H
	mov	eax, DWORD PTR ___security_cookie
	xor	eax, ebp
	mov	DWORD PTR __$ArrayPad$[ebp], eax

; 2649 :       }
; 2650 :     }
; 2651 :   }
; 2652 :   return normcount; 

	mov	eax, DWORD PTR _normcount$[ebp]
	push	ebx
	push	esi
	mov	esi, DWORD PTR _normals$[ebp]
	push	edi
	mov	edi, DWORD PTR _v_id$[ebp]
	push	6
	push	6
	lea	ecx, DWORD PTR _gradsxJ$[ebp]
	push	ecx
	lea	edx, DWORD PTR _gradsqXvS$[ebp]
	push	edx
	mov	DWORD PTR _normals$GSCopy$[ebp], esi
	mov	DWORD PTR _normcount$GSCopy$[ebp], eax
	call	_mat2d_setup
	push	6
	mov	ebx, eax
	push	6
	lea	eax, DWORD PTR _ppxJ$[ebp]
	push	eax
	lea	ecx, DWORD PTR _ppqXvS$[ebp]
	push	ecx
	mov	DWORD PTR _grads$[ebp], ebx
	call	_mat2d_setup
	push	6
	push	6
	lea	edx, DWORD PTR _qqxJ$[ebp]
	mov	DWORD PTR _pp$[ebp], eax
	push	edx
	lea	eax, DWORD PTR _qqqXvS$[ebp]
	push	eax
	call	_mat2d_setup
	mov	ecx, DWORD PTR _web+104
	mov	DWORD PTR _qq$[ebp], eax
	mov	eax, DWORD PTR _dymem
	add	esp, 48					; 00000030H
	cmp	DWORD PTR [ecx+eax+1288], 0
	je	SHORT $LN32@project_ve

; 2599 :   int oncount;
; 2600 :   MAT2D(grads,MAXCOORD,MAXCOORD);
; 2601 :   MAT2D(pp,MAXCOORD,MAXCOORD);
; 2602 :   MAT2D(qq,MAXCOORD,MAXCOORD);
; 2603 :   REAL dummy;
; 2604 :   int i,j,n;
; 2605 : 
; 2606 :   conmap = get_v_constraint_map(v_id);

	mov	ecx, DWORD PTR _web+12
	mov	edx, edi
	and	edx, 134217727				; 07ffffffH
	mov	edx, DWORD PTR [ecx+edx*4]
	mov	ecx, DWORD PTR _web+104
	add	edx, DWORD PTR [ecx+eax+1264]
	jmp	SHORT $LN75@project_ve
$LN32@project_ve:
	mov	edx, OFFSET _nullcon
$LN75@project_ve:

; 2607 :   oncount = 0;

	xor	ecx, ecx
	mov	DWORD PTR _conmap$[ebp], edx
	mov	DWORD PTR _oncount$[ebp], ecx

; 2608 :   if ( conmap[0] )

	cmp	DWORD PTR [edx], ecx
	je	$LN51@project_ve

; 2609 :   { /* calculate projection matrix to fewer degrees of freedom */
; 2610 :     for ( j = 1; j <= (int)conmap[0] ; j++ )

	cmp	DWORD PTR [edx], 1
	mov	DWORD PTR _j$[ebp], 1
	jl	$LN58@project_ve
	npad	6
$LL28@project_ve:

; 2611 :     { struct constraint *constr;
; 2612 :       if ( !(conmap[j] & CON_HIT_BIT) ) continue;

	mov	eax, DWORD PTR _j$[ebp]
	mov	eax, DWORD PTR [edx+eax*4]
	test	eax, eax
	jns	SHORT $LN27@project_ve

; 2613 :       constr = get_constraint(conmap[j]);
; 2614 :       eval_all(constr->formula,get_coord(v_id),SDIM,
; 2615 :             &dummy, grads[oncount],v_id);

	mov	ecx, DWORD PTR [ebx+ecx*4]
	mov	ebx, DWORD PTR _dymem
	push	edi
	push	ecx
	mov	ecx, DWORD PTR _web+616
	lea	edx, DWORD PTR _dummy$[ebp]
	push	edx
	push	ecx
	mov	ecx, DWORD PTR _web+12
	and	eax, 1073741823				; 3fffffffH
	mov	edx, edi
	imul	eax, 176				; 000000b0H
	and	edx, 134217727				; 07ffffffH
	mov	edx, DWORD PTR [ecx+edx*4]
	mov	ecx, DWORD PTR _web+104
	add	edx, DWORD PTR [ecx+ebx+64]
	push	edx
	mov	edx, DWORD PTR _web+652
	mov	eax, DWORD PTR [eax+edx+40]
	push	eax
	call	_eval_all

; 2616 :       oncount++;

	mov	ecx, DWORD PTR _oncount$[ebp]
	mov	ebx, DWORD PTR _grads$[ebp]
	mov	edx, DWORD PTR _conmap$[ebp]
	add	esp, 24					; 00000018H
	inc	ecx
	mov	DWORD PTR _oncount$[ebp], ecx
$LN27@project_ve:

; 2609 :   { /* calculate projection matrix to fewer degrees of freedom */
; 2610 :     for ( j = 1; j <= (int)conmap[0] ; j++ )

	mov	eax, DWORD PTR _j$[ebp]
	inc	eax
	mov	DWORD PTR _j$[ebp], eax
	cmp	eax, DWORD PTR [edx]
	jle	$LL28@project_ve

; 2617 :     }
; 2618 :     if ( oncount > 0 )

	test	ecx, ecx
	jle	$LN58@project_ve

; 2619 :     {
; 2620 :       /* project basis to constraints */
; 2621 :       oncount = gram_schmidt(grads,oncount,SDIM);

	mov	edx, DWORD PTR _web+616
	push	edx
	push	ecx
	push	ebx
	call	_gram_schmidt

; 2622 : 
; 2623 :       mat_mul_tr(grads,normals,qq,oncount,SDIM,normcount);

	mov	ecx, DWORD PTR _web+616
	mov	edx, DWORD PTR _qq$[ebp]
	mov	edi, eax
	mov	eax, DWORD PTR _normcount$GSCopy$[ebp]
	push	eax
	push	ecx
	push	edi
	push	edx
	push	esi
	push	ebx
	call	_mat_mul_tr

; 2624 :       tr_mat_mul(grads,qq,pp,oncount,SDIM,normcount);

	mov	eax, DWORD PTR _normcount$GSCopy$[ebp]
	mov	ecx, DWORD PTR _web+616
	mov	edx, DWORD PTR _qq$[ebp]
	push	eax
	push	ecx
	push	edi
	mov	edi, DWORD PTR _pp$[ebp]
	push	edi
	push	edx
	push	ebx
	call	_tr_mat_mul

; 2625 :       for ( j = 0 ; j < normcount ; j++ )

	xor	esi, esi
	add	esp, 60					; 0000003cH
	cmp	DWORD PTR _normcount$GSCopy$[ebp], esi
	jle	SHORT $LN53@project_ve
	mov	ecx, DWORD PTR _web+616
	npad	7
$LL23@project_ve:

; 2626 :         for ( i = 0 ; i < SDIM ; i++ )

	xor	edx, edx
	test	ecx, ecx
	jle	SHORT $LN22@project_ve

; 2625 :       for ( j = 0 ; j < normcount ; j++ )

	mov	eax, DWORD PTR _normals$GSCopy$[ebp]
	mov	eax, DWORD PTR [eax+esi*4]
	npad	1
$LL20@project_ve:

; 2627 :            normals[j][i] -= pp[i][j];

	mov	ecx, DWORD PTR [edi+edx*4]
	fld	QWORD PTR [eax]
	fsub	QWORD PTR [ecx+esi*8]
	inc	edx
	add	eax, 8
	fstp	QWORD PTR [eax-8]
	mov	ecx, DWORD PTR _web+616
	cmp	edx, ecx
	jl	SHORT $LL20@project_ve
$LN22@project_ve:

; 2625 :       for ( j = 0 ; j < normcount ; j++ )

	inc	esi
	cmp	esi, DWORD PTR _normcount$GSCopy$[ebp]
	jl	SHORT $LL23@project_ve
	mov	esi, DWORD PTR _normals$GSCopy$[ebp]
	jmp	SHORT $LN21@project_ve
$LN53@project_ve:
	mov	esi, DWORD PTR _normals$GSCopy$[ebp]
$LN58@project_ve:
	mov	ecx, DWORD PTR _web+616
$LN21@project_ve:

; 2628 : 
; 2629 :     }
; 2630 :     /* orthonormalize  */
; 2631 :     for ( i = 0 ; i < normcount ; i++ )

	mov	eax, DWORD PTR _normcount$GSCopy$[ebp]
	xor	edi, edi
	test	eax, eax
	jle	$LN15@project_ve
	lea	edx, DWORD PTR [esi+eax*4-4]
	mov	DWORD PTR tv792[ebp], edx
$LL54@project_ve:

; 2632 :     { /* subtract previous components */
; 2633 :       REAL sum;
; 2634 :       for ( j = 0 ; j < i ; j++ )

	xor	ebx, ebx
	test	edi, edi
	jle	SHORT $LN12@project_ve
$LL14@project_ve:

; 2635 :       { sum = dot(normals[i],normals[j],SDIM);

	mov	eax, DWORD PTR [esi+ebx*4]
	push	ecx
	mov	ecx, DWORD PTR [esi+edi*4]
	push	eax
	push	ecx
	call	_dot

; 2636 :         for ( n = 0 ; n < SDIM ; n++ )

	mov	ecx, DWORD PTR _web+616
	add	esp, 12					; 0000000cH
	xor	edx, edx
	test	ecx, ecx
	jle	SHORT $LN61@project_ve
	mov	eax, DWORD PTR [esi+edi*4]
	mov	esi, DWORD PTR [esi+ebx*4]
	sub	esi, eax
$LN11@project_ve:

; 2637 :           normals[i][n] -= sum*normals[j][n];

	fld	QWORD PTR [esi+eax]
	inc	edx
	fmul	ST(0), ST(1)
	add	eax, 8
	fsubr	QWORD PTR [eax-8]
	fstp	QWORD PTR [eax-8]
	mov	ecx, DWORD PTR _web+616
	cmp	edx, ecx
	jl	SHORT $LN11@project_ve

; 2636 :         for ( n = 0 ; n < SDIM ; n++ )

	mov	esi, DWORD PTR _normals$GSCopy$[ebp]
$LN61@project_ve:

; 2632 :     { /* subtract previous components */
; 2633 :       REAL sum;
; 2634 :       for ( j = 0 ; j < i ; j++ )

	inc	ebx

; 2636 :         for ( n = 0 ; n < SDIM ; n++ )

	fstp	ST(0)
	cmp	ebx, edi
	jl	SHORT $LL14@project_ve
$LN12@project_ve:

; 2638 :       }
; 2639 :       /* normalize */
; 2640 :       sum = dot(normals[i],normals[i],SDIM);

	mov	eax, DWORD PTR [esi+edi*4]
	push	ecx
	push	eax
	push	eax
	call	_dot
	add	esp, 12					; 0000000cH

; 2641 :       sum = sqrt(sum);

	call	__CIsqrt

; 2642 :       if ( sum > hessian_epsilon )

	fld	QWORD PTR _hessian_epsilon

; 2643 :          for ( n = 0 ; n < SDIM ; n++ ) normals[i][n] /= sum;

	mov	ecx, DWORD PTR _web+616
	fcomp	ST(1)
	xor	edx, edx
	fnstsw	ax
	test	ah, 5
	jp	SHORT $LN67@project_ve
	test	ecx, ecx
	jle	SHORT $LN70@project_ve

; 2628 : 
; 2629 :     }
; 2630 :     /* orthonormalize  */
; 2631 :     for ( i = 0 ; i < normcount ; i++ )

	mov	eax, DWORD PTR [esi+edi*4]
$LN7@project_ve:

; 2643 :          for ( n = 0 ; n < SDIM ; n++ ) normals[i][n] /= sum;

	fld	QWORD PTR [eax]
	inc	edx
	fdiv	ST(0), ST(1)
	add	eax, 8
	fstp	QWORD PTR [eax-8]
	mov	ecx, DWORD PTR _web+616
	cmp	edx, ecx
	jl	SHORT $LN7@project_ve
$LN70@project_ve:

; 2648 :         i--;

	fstp	ST(0)
$LN16@project_ve:

; 2628 : 
; 2629 :     }
; 2630 :     /* orthonormalize  */
; 2631 :     for ( i = 0 ; i < normcount ; i++ )

	inc	edi
	cmp	edi, DWORD PTR _normcount$GSCopy$[ebp]
	jl	$LL54@project_ve
$LN51@project_ve:

; 2649 :       }
; 2650 :     }
; 2651 :   }
; 2652 :   return normcount; 

	mov	eax, DWORD PTR _normcount$GSCopy$[ebp]
$LN15@project_ve:

; 2653 : } // end project_vertex_normals()

	mov	ecx, DWORD PTR __$ArrayPad$[ebp]
	pop	edi
	pop	esi
	xor	ecx, ebp
	pop	ebx
	call	@__security_check_cookie@4
	mov	esp, ebp
	pop	ebp
	ret	0
$LN67@project_ve:

; 2642 :       if ( sum > hessian_epsilon )

	fstp	ST(0)

; 2644 :       else /* have to skip this direction */
; 2645 :       { for ( n = 0 ; n < SDIM ; n++ )

	test	ecx, ecx
	jle	SHORT $LN55@project_ve
	mov	ecx, DWORD PTR tv792[ebp]
	mov	eax, DWORD PTR [esi+edi*4]
	mov	ebx, DWORD PTR [ecx]
	sub	ebx, eax
$LL3@project_ve:

; 2646 :           normals[i][n] = normals[normcount-1][n];

	fld	QWORD PTR [ebx+eax]
	inc	edx
	fstp	QWORD PTR [eax]
	mov	ecx, DWORD PTR _web+616
	add	eax, 8
	cmp	edx, ecx
	jl	SHORT $LL3@project_ve
$LN55@project_ve:

; 2647 :         normcount--;

	dec	DWORD PTR _normcount$GSCopy$[ebp]
	sub	DWORD PTR tv792[ebp], 4

; 2648 :         i--;

	dec	edi
	jmp	SHORT $LN16@project_ve
_project_vertex_normals ENDP
_TEXT	ENDS
PUBLIC	??_C@_0DM@MGJINCDG@Internal?5error?3?5Can?8t?5do?5get_edg@ ; `string'
PUBLIC	_get_edge_verts
;	COMDAT ??_C@_0DM@MGJINCDG@Internal?5error?3?5Can?8t?5do?5get_edg@
; File c:\levolver\yonkang-sefit\levolver\ev_ogl\inline.h
CONST	SEGMENT
??_C@_0DM@MGJINCDG@Internal?5error?3?5Can?8t?5do?5get_edg@ DB 'Internal e'
	DB	'rror: Can''t do get_edge_verts for simplex model.', 0aH, 00H ; `string'
; Function compile flags: /Ogtp
; File c:\levolver\yonkang-sefit\levolver\ev_ogl\utility.c
CONST	ENDS
;	COMDAT _get_edge_verts
_TEXT	SEGMENT
tv808 = -12						; size = 4
tv564 = -8						; size = 4
_n$90758 = -8						; size = 4
_j$ = -4						; size = 4
_e_id$ = 8						; size = 4
_verts$ = 12						; size = 4
_wraps$ = 16						; size = 4
_get_edge_verts PROC					; COMDAT

; 2768 : {

	push	ebp
	mov	ebp, esp
	sub	esp, 12					; 0000000cH
	push	ebx
	push	esi

; 2769 :   int j,k;
; 2770 :   WRAPTYPE wrap = 0;
; 2771 :   REAL *x;
; 2772 : 
; 2773 :   if ( web.representation == SIMPLEX )

	mov	esi, 3
	xor	ebx, ebx
	push	edi
	cmp	DWORD PTR _web+624, esi
	jne	SHORT $LN77@get_edge_v@2

; 2774 :      kb_error(1369,"Internal error: Can't do get_edge_verts for simplex model.\n",RECOVERABLE);

	push	1
	push	OFFSET ??_C@_0DM@MGJINCDG@Internal?5error?3?5Can?8t?5do?5get_edg@
	push	1369					; 00000559H
	call	_kb_error
	add	esp, 12					; 0000000cH
$LN77@get_edge_v@2:

; 2775 : 
; 2776 :   if ( web.modeltype == LAGRANGE )

	cmp	DWORD PTR _web+628, esi
	jne	$LN41@get_edge_v@2

; 2777 :   { vertex_id *v = get_edge_vertices(e_id);

	mov	edx, DWORD PTR _e_id$[ebp]
	mov	esi, DWORD PTR _web+124
	mov	ecx, DWORD PTR _web+216
	mov	eax, edx
	and	eax, 134217727				; 07ffffffH
	mov	eax, DWORD PTR [esi+eax*4]
	mov	esi, DWORD PTR _dymem
	mov	edi, DWORD PTR [ecx+esi+304]

; 2778 :      int n = web.skel[EDGE].ctrlpts;

	mov	esi, DWORD PTR _web+120
	add	edi, eax
	mov	DWORD PTR _n$90758[ebp], esi

; 2779 :      if ( web.symmetry_flag )

	cmp	DWORD PTR _web+856, ebx
	je	SHORT $LN48@get_edge_v@2

; 2780 :      {
; 2781 :       wrap = get_edge_wrap(e_id);

	mov	esi, DWORD PTR _dymem
	mov	ecx, DWORD PTR [ecx+esi+784]
	mov	eax, DWORD PTR [eax+ecx]
	test	edx, 134217728				; 08000000H
	je	SHORT $LN47@get_edge_v@2
	push	eax
	call	DWORD PTR _sym_inverse
	add	esp, 4
$LN47@get_edge_v@2:
	mov	ebx, eax
$LN48@get_edge_v@2:

; 2782 :      }
; 2783 :      for ( j = 0 ; j < n ; j++ )

	xor	eax, eax
	mov	DWORD PTR _j$[ebp], eax
	cmp	DWORD PTR _n$90758[ebp], eax
	jle	$LN1@get_edge_v@2
	mov	esi, DWORD PTR _verts$[ebp]
	sub	edi, esi
	mov	DWORD PTR tv808[ebp], edi
	jmp	SHORT $LN39@get_edge_v@2
	npad	3
$LL80@get_edge_v@2:
	mov	edi, DWORD PTR tv808[ebp]
$LN39@get_edge_v@2:

; 2784 :      { x = get_coord(v[j]);

	mov	edx, DWORD PTR [edi+esi]
	mov	ecx, DWORD PTR _web+12
	mov	edi, DWORD PTR _dymem
	and	edx, 134217727				; 07ffffffH
	mov	ecx, DWORD PTR [ecx+edx*4]
	mov	edx, DWORD PTR _web+104
	add	ecx, DWORD PTR [edx+edi+64]

; 2785 :        if ( wrap && (j > 0) && (inverted(e_id) || (j==n-1)))

	test	ebx, ebx
	je	SHORT $LN36@get_edge_v@2
	test	eax, eax
	jle	SHORT $LN36@get_edge_v@2
	test	DWORD PTR _e_id$[ebp], 134217728	; 08000000H
	jne	SHORT $LN35@get_edge_v@2
	mov	edx, DWORD PTR _n$90758[ebp]
	dec	edx
	cmp	eax, edx
	jne	SHORT $LN36@get_edge_v@2
$LN35@get_edge_v@2:

; 2786 :          (*sym_wrap)(x,verts[j],wrap);

	mov	eax, DWORD PTR [esi]
	push	ebx
	push	eax
	push	ecx
	call	DWORD PTR _sym_wrap
	add	esp, 12					; 0000000cH

; 2787 :        else

	jmp	SHORT $LN81@get_edge_v@2
$LN36@get_edge_v@2:

; 2788 :        for ( k = 0 ; k < SDIM ; k++ )

	xor	edx, edx
	cmp	DWORD PTR _web+616, edx
	jle	SHORT $LN38@get_edge_v@2
	mov	eax, DWORD PTR [esi]
	sub	ecx, eax
	npad	4
$LL33@get_edge_v@2:

; 2789 :          verts[j][k] = x[k];

	fld	QWORD PTR [ecx+eax]
	inc	edx
	fstp	QWORD PTR [eax]
	add	eax, 8
	cmp	edx, DWORD PTR _web+616
	jl	SHORT $LL33@get_edge_v@2
$LN81@get_edge_v@2:

; 2788 :        for ( k = 0 ; k < SDIM ; k++ )

	mov	eax, DWORD PTR _j$[ebp]
$LN38@get_edge_v@2:

; 2782 :      }
; 2783 :      for ( j = 0 ; j < n ; j++ )

	inc	eax
	add	esi, 4
	mov	DWORD PTR _j$[ebp], eax
	cmp	eax, DWORD PTR _n$90758[ebp]
	jl	SHORT $LL80@get_edge_v@2
	pop	edi
	pop	esi
	pop	ebx

; 2830 :     }
; 2831 : } // end get_edge_verts()

	mov	esp, ebp
	pop	ebp
	ret	0
$LN41@get_edge_v@2:

; 2790 :      }
; 2791 :      return;
; 2792 :   }
; 2793 : 
; 2794 :   if ( web.symmetry_flag )

	cmp	DWORD PTR _web+856, ebx
	je	$LN30@get_edge_v@2

; 2795 :     {
; 2796 :       x = get_coord(get_edge_tailv(e_id));

	mov	ebx, DWORD PTR _e_id$[ebp]
	push	ebx
	call	_get_edge_tailv
	mov	ecx, DWORD PTR _web+12
	mov	edi, DWORD PTR _dymem
	mov	edx, DWORD PTR _web+104
	and	eax, 134217727				; 07ffffffH
	mov	ecx, DWORD PTR [ecx+eax*4]
	add	ecx, DWORD PTR [edx+edi+64]

; 2797 :       for ( j = 0 ; j < SDIM ; j++ ) verts[0][j] = x[j];

	xor	eax, eax
	add	esp, 4
	cmp	DWORD PTR _web+616, eax
	jle	SHORT $LN27@get_edge_v@2
$LL29@get_edge_v@2:
	mov	edx, DWORD PTR _verts$[ebp]
	fld	QWORD PTR [ecx+eax*8]
	mov	edx, DWORD PTR [edx]
	fstp	QWORD PTR [edx+eax*8]
	inc	eax
	cmp	eax, DWORD PTR _web+616
	jl	SHORT $LL29@get_edge_v@2
	mov	edi, DWORD PTR _dymem
$LN27@get_edge_v@2:

; 2798 :       wrap = get_edge_wrap(e_id);

	mov	eax, DWORD PTR _web+124
	mov	edx, DWORD PTR _web+216
	mov	esi, ebx
	and	esi, 134217727				; 07ffffffH
	add	esi, esi
	add	esi, esi
	mov	ecx, DWORD PTR [esi+eax]
	mov	eax, DWORD PTR [edx+edi+784]
	mov	ecx, DWORD PTR [ecx+eax]
	mov	eax, ebx
	shr	eax, 27					; 0000001bH
	and	eax, 1
	mov	DWORD PTR tv564[ebp], eax
	je	SHORT $LN51@get_edge_v@2
	push	ecx
	call	DWORD PTR _sym_inverse
	mov	edi, DWORD PTR _dymem
	mov	ebx, eax
	mov	eax, DWORD PTR tv564[ebp]
	add	esp, 4
	jmp	SHORT $LN52@get_edge_v@2
$LN51@get_edge_v@2:
	mov	ebx, ecx
$LN52@get_edge_v@2:

; 2799 :       if ( (web.modeltype == QUADRATIC) && verts[2] ) 

	cmp	DWORD PTR _web+628, 2
	mov	edx, DWORD PTR _verts$[ebp]
	jne	$LN26@get_edge_v@2
	cmp	DWORD PTR [edx+8], 0
	je	$LN26@get_edge_v@2

; 2800 :       { if ( wraps ){wraps[0] = 0;  wraps[2] = wrap; }

	mov	eax, DWORD PTR _wraps$[ebp]
	test	eax, eax
	je	SHORT $LN25@get_edge_v@2
	mov	DWORD PTR [eax], 0
	mov	DWORD PTR [eax+8], ebx
	mov	edi, DWORD PTR _dymem
$LN25@get_edge_v@2:

; 2801 :          x = get_coord(get_edge_headv(e_id));
; 2802 :          (*sym_wrap)(x,verts[2],wrap);

	mov	ecx, DWORD PTR [edx+8]
	mov	edx, DWORD PTR _e_id$[ebp]
	push	ebx
	push	ecx
	push	edx
	call	_get_edge_headv
	mov	ecx, DWORD PTR _web+12
	and	eax, 134217727				; 07ffffffH
	mov	edx, DWORD PTR [ecx+eax*4]
	mov	eax, DWORD PTR _web+104
	add	edx, DWORD PTR [eax+edi+64]
	add	esp, 4
	push	edx
	call	DWORD PTR _sym_wrap

; 2803 :          x = get_coord(get_edge_midv(e_id));

	mov	ecx, DWORD PTR _web+124
	mov	edx, DWORD PTR [esi+ecx]
	mov	ecx, DWORD PTR _dymem
	mov	eax, DWORD PTR _web+216
	mov	eax, DWORD PTR [eax+ecx+304]
	mov	edx, DWORD PTR [edx+eax+8]
	mov	eax, DWORD PTR _web+12
	and	edx, 134217727				; 07ffffffH
	mov	eax, DWORD PTR [eax+edx*4]
	mov	edx, DWORD PTR _web+104
	add	eax, DWORD PTR [edx+ecx+64]
	add	esp, 12					; 0000000cH

; 2804 :          if ( inverted(e_id) )

	cmp	DWORD PTR tv564[ebp], 0
	je	SHORT $LN24@get_edge_v@2

; 2805 :          { if ( wraps ) wraps[1] = wrap;

	mov	ecx, DWORD PTR _wraps$[ebp]
	test	ecx, ecx
	je	SHORT $LN23@get_edge_v@2
	mov	DWORD PTR [ecx+4], ebx
$LN23@get_edge_v@2:

; 2806 :            (*sym_wrap)(x,verts[1],wrap);

	mov	ecx, DWORD PTR _verts$[ebp]
	mov	edx, DWORD PTR [ecx+4]
	push	ebx
	push	edx
	push	eax
	call	DWORD PTR _sym_wrap
	add	esp, 12					; 0000000cH
	pop	edi
	pop	esi
	pop	ebx

; 2830 :     }
; 2831 : } // end get_edge_verts()

	mov	esp, ebp
	pop	ebp
	ret	0
$LN24@get_edge_v@2:

; 2807 :          }
; 2808 :          else
; 2809 :          { for ( j = 0 ; j < SDIM ; j++ ) verts[1][j] = x[j];

	xor	ecx, ecx
	cmp	DWORD PTR _web+616, ecx
	jle	SHORT $LN19@get_edge_v@2
$LL21@get_edge_v@2:
	mov	edx, DWORD PTR _verts$[ebp]
	fld	QWORD PTR [eax+ecx*8]
	mov	edx, DWORD PTR [edx+4]
	fstp	QWORD PTR [edx+ecx*8]
	inc	ecx
	cmp	ecx, DWORD PTR _web+616
	jl	SHORT $LL21@get_edge_v@2
$LN19@get_edge_v@2:

; 2810 :            if ( wraps ) wraps[1] = 0;

	mov	eax, DWORD PTR _wraps$[ebp]
	test	eax, eax
	je	$LN1@get_edge_v@2
	pop	edi
	pop	esi
	mov	DWORD PTR [eax+4], 0
	pop	ebx

; 2830 :     }
; 2831 : } // end get_edge_verts()

	mov	esp, ebp
	pop	ebp
	ret	0
$LN26@get_edge_v@2:

; 2811 :          }
; 2812 :       } 
; 2813 :       else
; 2814 :       { if ( wraps ){wraps[0] = 0;  wraps[1] = wrap; }

	mov	ecx, DWORD PTR _wraps$[ebp]
	test	ecx, ecx
	je	SHORT $LN16@get_edge_v@2
	mov	DWORD PTR [ecx], 0
	mov	DWORD PTR [ecx+4], ebx
	mov	edi, DWORD PTR _dymem
$LN16@get_edge_v@2:

; 2815 :          x = get_coord(get_edge_headv(e_id));

	test	eax, eax
	je	SHORT $LN54@get_edge_v@2
	mov	eax, DWORD PTR _web+124
	mov	ecx, DWORD PTR [esi+eax]
	mov	eax, DWORD PTR _web+216
	mov	eax, DWORD PTR [eax+edi+304]
	mov	eax, DWORD PTR [ecx+eax]
	jmp	SHORT $LN53@get_edge_v@2
$LN54@get_edge_v@2:
	mov	ecx, DWORD PTR _web+124
	mov	eax, DWORD PTR [esi+ecx]
	mov	ecx, DWORD PTR _web+216
	add	eax, DWORD PTR [ecx+edi+304]
	mov	ecx, DWORD PTR _web+636
	mov	eax, DWORD PTR [eax+ecx*4]
$LN53@get_edge_v@2:

; 2816 :          (*sym_wrap)(x,verts[1],wrap);

	mov	edx, DWORD PTR [edx+4]
	mov	ecx, DWORD PTR _web+12
	push	ebx
	push	edx
	and	eax, 134217727				; 07ffffffH
	mov	edx, DWORD PTR [ecx+eax*4]
	mov	eax, DWORD PTR _web+104
	add	edx, DWORD PTR [eax+edi+64]
	push	edx
	call	DWORD PTR _sym_wrap
	add	esp, 12					; 0000000cH
	pop	edi
	pop	esi
	pop	ebx

; 2830 :     }
; 2831 : } // end get_edge_verts()

	mov	esp, ebp
	pop	ebp
	ret	0
$LN30@get_edge_v@2:

; 2817 :       }
; 2818 :     }
; 2819 :   else
; 2820 :     { x = get_coord(get_edge_tailv(e_id));

	mov	esi, DWORD PTR _e_id$[ebp]
	push	esi
	call	_get_edge_tailv
	mov	ecx, DWORD PTR _web+12

; 2821 :       for ( j = 0 ; j < SDIM ; j++ ) verts[0][j] = x[j];

	mov	edi, DWORD PTR _web+616
	mov	ebx, DWORD PTR _verts$[ebp]
	and	eax, 134217727				; 07ffffffH
	mov	edx, DWORD PTR [ecx+eax*4]
	mov	ecx, DWORD PTR _web+104
	mov	eax, DWORD PTR _dymem
	add	edx, DWORD PTR [ecx+eax+64]
	add	esp, 4
	xor	ecx, ecx
	test	edi, edi
	jle	SHORT $LN12@get_edge_v@2
	npad	4
$LL14@get_edge_v@2:
	fld	QWORD PTR [edx+ecx*8]
	mov	eax, DWORD PTR [ebx]
	fstp	QWORD PTR [eax+ecx*8]
	mov	edi, DWORD PTR _web+616
	inc	ecx
	cmp	ecx, edi
	jl	SHORT $LL14@get_edge_v@2
	mov	eax, DWORD PTR _dymem
$LN12@get_edge_v@2:

; 2822 :       x = get_coord(get_edge_headv(e_id));

	test	esi, 134217728				; 08000000H
	je	SHORT $LN58@get_edge_v@2
	mov	ecx, DWORD PTR _web+124
	and	esi, 134217727				; 07ffffffH
	add	esi, esi
	add	esi, esi
	mov	edx, DWORD PTR [esi+ecx]
	mov	ecx, DWORD PTR _web+216
	mov	ecx, DWORD PTR [ecx+eax+304]
	mov	ecx, DWORD PTR [edx+ecx]
	jmp	SHORT $LN57@get_edge_v@2
$LN58@get_edge_v@2:
	mov	edx, DWORD PTR _web+124
	and	esi, 134217727				; 07ffffffH
	add	esi, esi
	add	esi, esi
	mov	ecx, DWORD PTR [esi+edx]
	mov	edx, DWORD PTR _web+216
	add	ecx, DWORD PTR [edx+eax+304]
	mov	edx, DWORD PTR _web+636
	mov	ecx, DWORD PTR [ecx+edx*4]
$LN57@get_edge_v@2:
	mov	edx, DWORD PTR _web+12
	and	ecx, 134217727				; 07ffffffH
	mov	edx, DWORD PTR [edx+ecx*4]
	mov	ecx, DWORD PTR _web+104
	add	edx, DWORD PTR [ecx+eax+64]

; 2823 :       if ( (web.modeltype == QUADRATIC) && verts[2] ) 

	cmp	DWORD PTR _web+628, 2
	jne	$LN79@get_edge_v@2
	cmp	DWORD PTR [ebx+8], 0
	je	SHORT $LN79@get_edge_v@2

; 2824 :       { for ( j = 0 ; j < SDIM ; j++ ) verts[2][j] = x[j];

	xor	ecx, ecx
	test	edi, edi
	jle	SHORT $LN8@get_edge_v@2
$LL10@get_edge_v@2:
	fld	QWORD PTR [edx+ecx*8]
	mov	eax, DWORD PTR [ebx+8]
	fstp	QWORD PTR [eax+ecx*8]
	mov	edi, DWORD PTR _web+616
	inc	ecx
	cmp	ecx, edi
	jl	SHORT $LL10@get_edge_v@2
	mov	eax, DWORD PTR _dymem
$LN8@get_edge_v@2:

; 2825 :         x = get_coord(get_edge_midv(e_id));

	mov	ecx, DWORD PTR _web+124
	mov	edx, DWORD PTR [esi+ecx]
	mov	ecx, DWORD PTR _web+216
	mov	ecx, DWORD PTR [ecx+eax+304]
	mov	edx, DWORD PTR [edx+ecx+8]
	mov	ecx, DWORD PTR _web+12
	and	edx, 134217727				; 07ffffffH
	mov	ecx, DWORD PTR [ecx+edx*4]
	mov	edx, DWORD PTR _web+104
	add	ecx, DWORD PTR [edx+eax+64]

; 2826 :         for ( j = 0 ; j < SDIM ; j++ ) verts[1][j] = x[j];

	xor	eax, eax
	test	edi, edi
	jle	SHORT $LN1@get_edge_v@2
$LL7@get_edge_v@2:
	fld	QWORD PTR [ecx+eax*8]
	mov	edx, DWORD PTR [ebx+4]
	fstp	QWORD PTR [edx+eax*8]
	inc	eax
	cmp	eax, DWORD PTR _web+616
	jl	SHORT $LL7@get_edge_v@2
	pop	edi
	pop	esi
	pop	ebx

; 2830 :     }
; 2831 : } // end get_edge_verts()

	mov	esp, ebp
	pop	ebp
	ret	0
$LN79@get_edge_v@2:

; 2827 :       }
; 2828 :       else
; 2829 :        for ( j = 0 ; j < SDIM ; j++ ) verts[1][j] = x[j];

	xor	eax, eax
	test	edi, edi
	jle	SHORT $LN1@get_edge_v@2
$LL3@get_edge_v@2:
	fld	QWORD PTR [edx+eax*8]
	mov	ecx, DWORD PTR [ebx+4]
	fstp	QWORD PTR [ecx+eax*8]
	inc	eax
	cmp	eax, DWORD PTR _web+616
	jl	SHORT $LL3@get_edge_v@2
$LN1@get_edge_v@2:
	pop	edi
	pop	esi
	pop	ebx

; 2830 :     }
; 2831 : } // end get_edge_verts()

	mov	esp, ebp
	pop	ebp
	ret	0
_get_edge_verts ENDP
_TEXT	ENDS
PUBLIC	??_C@_0CE@BEIKMDJG@No?5quadratic?5model?5with?5simplice@ ; `string'
PUBLIC	_get_facet_verts_q
EXTRN	_sym_compose:DWORD
;	COMDAT ??_C@_0CE@BEIKMDJG@No?5quadratic?5model?5with?5simplice@
; File c:\levolver\yonkang-sefit\levolver\ev_ogl\inline.h
CONST	SEGMENT
??_C@_0CE@BEIKMDJG@No?5quadratic?5model?5with?5simplice@ DB 'No quadratic'
	DB	' model with simplices.', 0aH, 00H		; `string'
; Function compile flags: /Ogtp
; File c:\levolver\yonkang-sefit\levolver\ev_ogl\utility.c
CONST	ENDS
;	COMDAT _get_facet_verts_q
_TEXT	SEGMENT
tv636 = -16						; size = 4
_ii$ = -12						; size = 4
_jj$91085 = -8						; size = 4
_wrap$ = -4						; size = 4
_i$ = -4						; size = 4
_fe$ = 8						; size = 4
_f_id$ = 8						; size = 4
_verts$ = 12						; size = 4
_wraps$ = 16						; size = 4
_get_facet_verts_q PROC					; COMDAT

; 3059 : {

	push	ebp
	mov	ebp, esp
	sub	esp, 16					; 00000010H

; 3060 :   facetedge_id fe;
; 3061 :   int i,j,ii;
; 3062 :   WRAPTYPE wrap,fewrap;
; 3063 :   REAL *x;
; 3064 : 
; 3065 :   if ( web.representation == SIMPLEX )

	cmp	DWORD PTR _web+624, 3
	jne	SHORT $LN20@get_facet_@4

; 3066 :     { kb_error(1370,"No quadratic model with simplices.\n",RECOVERABLE);

	push	1
	push	OFFSET ??_C@_0CE@BEIKMDJG@No?5quadratic?5model?5with?5simplice@
	push	1370					; 0000055aH
	call	_kb_error
	add	esp, 12					; 0000000cH
$LN20@get_facet_@4:

; 3067 : 
; 3068 :     }
; 3069 : 
; 3070 :   fe = get_facet_fe(f_id);

	mov	eax, DWORD PTR _f_id$[ebp]
	push	ebx
	push	esi
	push	edi
	test	eax, 268435456				; 10000000H
	jne	SHORT $LN24@get_facet_@4
	xor	edi, edi
	mov	DWORD PTR _fe$[ebp], edi
	jmp	SHORT $LN25@get_facet_@4
$LN24@get_facet_@4:
	mov	edx, DWORD PTR _web+236
	mov	ecx, eax
	and	ecx, 134217727				; 07ffffffH
	mov	ecx, DWORD PTR [edx+ecx*4]
	mov	ecx, DWORD PTR [ecx+28]
	test	eax, 134217728				; 08000000H
	je	SHORT $LN23@get_facet_@4
	xor	ecx, 134217728				; 08000000H
$LN23@get_facet_@4:
	mov	DWORD PTR _fe$[ebp], ecx
	mov	edi, ecx
$LN25@get_facet_@4:

; 3071 :   if ( web.symmetry_flag )

	xor	eax, eax

; 3072 :   {
; 3073 :     i = 0;
; 3074 :     wrap = 0;

	mov	DWORD PTR _wrap$[ebp], eax
	cmp	DWORD PTR _web+856, eax
	je	$LN19@get_facet_@4

; 3075 :     for ( ii = 0 ; ii < FACET_VERTS ; ii++ )

	mov	ecx, DWORD PTR _web+460
	mov	DWORD PTR _ii$[ebp], eax
	jmp	SHORT $LN18@get_facet_@4
	npad	7
$LL69@get_facet_@4:
	mov	edi, DWORD PTR _fe$[ebp]
$LN18@get_facet_@4:

; 3076 :     { int jj = (i+ii)%FACET_VERTS;

	cdq
	mov	esi, 3
	idiv	esi

; 3077 :       x = get_coord(get_fe_tailv(fe));

	mov	esi, edi
	and	esi, 134217727				; 07ffffffH
	add	esi, esi
	add	esi, esi
	mov	eax, DWORD PTR [esi+ecx]
	mov	eax, DWORD PTR [eax+20]
	mov	ecx, DWORD PTR _web+124
	mov	ebx, edx
	mov	edx, edi
	and	edx, 134217728				; 08000000H
	xor	eax, edx
	mov	DWORD PTR _jj$91085[ebp], ebx
	mov	DWORD PTR tv636[ebp], edx
	test	eax, 134217728				; 08000000H
	je	SHORT $LN30@get_facet_@4
	and	eax, 134217727				; 07ffffffH
	mov	edx, DWORD PTR [ecx+eax*4]
	mov	eax, DWORD PTR _web+216
	mov	ecx, DWORD PTR _dymem
	add	edx, DWORD PTR [eax+ecx+304]
	mov	eax, DWORD PTR _web+636
	mov	eax, DWORD PTR [edx+eax*4]
	jmp	SHORT $LN29@get_facet_@4
$LN30@get_facet_@4:
	and	eax, 134217727				; 07ffffffH
	mov	edx, DWORD PTR [ecx+eax*4]
	mov	ecx, DWORD PTR _dymem
	mov	eax, DWORD PTR _web+216
	mov	eax, DWORD PTR [eax+ecx+304]
	mov	eax, DWORD PTR [edx+eax]
$LN29@get_facet_@4:
	mov	edx, DWORD PTR _web+12
	and	eax, 134217727				; 07ffffffH
	mov	eax, DWORD PTR [edx+eax*4]
	mov	edx, DWORD PTR _web+104
	add	eax, DWORD PTR [edx+ecx+64]

; 3078 :       if ( wraps ) wraps[2*jj] = wrap;

	mov	ecx, DWORD PTR _wraps$[ebp]
	test	ecx, ecx
	je	SHORT $LN75@get_facet_@4
	mov	edx, DWORD PTR _wrap$[ebp]
	mov	DWORD PTR [ecx+ebx*8], edx
$LN75@get_facet_@4:

; 3079 :       (*sym_wrap)(x,verts[2*jj],wrap);

	mov	ecx, DWORD PTR _wrap$[ebp]
	mov	edx, DWORD PTR _verts$[ebp]
	push	ecx
	mov	ecx, DWORD PTR [edx+ebx*8]
	push	ecx
	push	eax
	call	DWORD PTR _sym_wrap

; 3080 : 
; 3081 :       x = get_coord(get_fe_midv(fe));

	mov	edx, DWORD PTR _web+460
	mov	eax, DWORD PTR [esi+edx]
	mov	eax, DWORD PTR [eax+20]
	mov	edx, DWORD PTR _web+124
	mov	edi, DWORD PTR _web+216
	mov	ecx, eax

; 3082 : 
; 3083 :       if ( !inverted(get_fe_edge(fe)) )

	xor	eax, DWORD PTR _fe$[ebp]
	and	ecx, 134217727				; 07ffffffH
	mov	edx, DWORD PTR [edx+ecx*4]
	mov	ecx, DWORD PTR _dymem
	mov	edi, DWORD PTR [edi+ecx+304]
	mov	edx, DWORD PTR [edx+edi+8]
	mov	edi, DWORD PTR _web+12
	and	edx, 134217727				; 07ffffffH
	mov	edi, DWORD PTR [edi+edx*4]
	mov	edx, DWORD PTR _web+104
	add	edi, DWORD PTR [edx+ecx+64]
	add	esp, 12					; 0000000cH
	test	eax, 134217728				; 08000000H
	jne	SHORT $LN73@get_facet_@4

; 3084 :       { if ( wraps ) wraps[2*jj+1] = wrap;

	mov	eax, DWORD PTR _wraps$[ebp]
	test	eax, eax
	je	SHORT $LN72@get_facet_@4
	mov	ecx, DWORD PTR _wrap$[ebp]
	mov	DWORD PTR [eax+ebx*8+4], ecx
$LN72@get_facet_@4:

; 3085 :          (*sym_wrap)(x,verts[2*jj+1],wrap);

	mov	edx, DWORD PTR _wrap$[ebp]
	mov	eax, DWORD PTR _verts$[ebp]
	mov	ecx, DWORD PTR [eax+ebx*8+4]
	push	edx
	push	ecx
	push	edi
	call	DWORD PTR _sym_wrap
	mov	ecx, DWORD PTR _dymem
	add	esp, 12					; 0000000cH
$LN73@get_facet_@4:

; 3086 :       }
; 3087 : 
; 3088 :       fewrap = get_fe_wrap(fe);

	mov	edx, DWORD PTR _web+460
	mov	eax, DWORD PTR [esi+edx]
	mov	eax, DWORD PTR [eax+20]
	xor	eax, DWORD PTR tv636[ebp]
	mov	ebx, DWORD PTR _web+124
	mov	edx, eax
	and	edx, 134217727				; 07ffffffH
	mov	edx, DWORD PTR [ebx+edx*4]
	mov	ebx, DWORD PTR _web+216
	mov	ecx, DWORD PTR [ebx+ecx+784]
	mov	ecx, DWORD PTR [edx+ecx]
	test	eax, 134217728				; 08000000H
	je	SHORT $LN41@get_facet_@4
	push	ecx
	call	DWORD PTR _sym_inverse
	add	esp, 4
	jmp	SHORT $LN42@get_facet_@4
$LN41@get_facet_@4:
	mov	eax, ecx
$LN42@get_facet_@4:

; 3089 :       wrap = (*sym_compose)(wrap,fewrap);

	mov	edx, DWORD PTR _wrap$[ebp]
	push	eax
	push	edx
	call	DWORD PTR _sym_compose

; 3090 : 
; 3091 :       if ( inverted(get_fe_edge(fe)) )

	mov	ecx, DWORD PTR _web+460
	mov	edx, DWORD PTR [esi+ecx]
	mov	edx, DWORD PTR [edx+20]
	mov	ebx, DWORD PTR _fe$[ebp]
	xor	edx, ebx
	add	esp, 8
	mov	DWORD PTR _wrap$[ebp], eax
	test	edx, 134217728				; 08000000H
	je	SHORT $LN71@get_facet_@4

; 3092 :       { if ( wraps ) wraps[2*jj+1] = wrap;

	mov	ecx, DWORD PTR _wraps$[ebp]
	test	ecx, ecx
	je	SHORT $LN70@get_facet_@4
	mov	edx, DWORD PTR _jj$91085[ebp]
	mov	DWORD PTR [ecx+edx*8+4], eax
$LN70@get_facet_@4:

; 3093 :          (*sym_wrap)(x,verts[2*jj+1],wrap);

	mov	ecx, DWORD PTR _jj$91085[ebp]
	push	eax
	mov	eax, DWORD PTR _verts$[ebp]
	mov	edx, DWORD PTR [eax+ecx*8+4]
	push	edx
	push	edi
	call	DWORD PTR _sym_wrap
	mov	ecx, DWORD PTR _web+460
	add	esp, 12					; 0000000cH
$LN71@get_facet_@4:

; 3094 :       }
; 3095 : 
; 3096 :       fe = get_next_edge(fe);

	test	ebx, 134217728				; 08000000H
	je	SHORT $LN46@get_facet_@4
	mov	eax, DWORD PTR [esi+ecx]
	mov	eax, DWORD PTR [eax+28]
	xor	eax, 134217728				; 08000000H
	jmp	SHORT $LN76@get_facet_@4
$LN46@get_facet_@4:
	mov	edx, DWORD PTR [esi+ecx]
	mov	eax, DWORD PTR [edx+32]
$LN76@get_facet_@4:
	mov	DWORD PTR _fe$[ebp], eax
	mov	eax, DWORD PTR _ii$[ebp]
	inc	eax
	mov	DWORD PTR _ii$[ebp], eax
	cmp	eax, 3
	jl	$LL69@get_facet_@4
	pop	edi
	pop	esi
	pop	ebx

; 3107 :     }
; 3108 : } // end get_facet_verts_q()

	mov	esp, ebp
	pop	ebp
	ret	0
$LN19@get_facet_@4:

; 3097 :     }
; 3098 :   }
; 3099 :   else for ( i = 0 ; i < FACET_VERTS ; i++ )

	mov	ebx, DWORD PTR _web+616
	mov	edx, DWORD PTR _dymem
	jmp	SHORT $LN9@get_facet_@4
$LL74@get_facet_@4:
	mov	edi, DWORD PTR _fe$[ebp]
$LN9@get_facet_@4:

; 3100 :     { x = get_coord(get_fe_tailv(fe));

	mov	ecx, DWORD PTR _web+460
	mov	eax, DWORD PTR _fe$[ebp]
	and	edi, 134217727				; 07ffffffH
	add	edi, edi
	add	edi, edi
	mov	ecx, DWORD PTR [edi+ecx]
	and	eax, 134217728				; 08000000H
	xor	eax, DWORD PTR [ecx+20]
	mov	ecx, DWORD PTR _web+124
	test	eax, 134217728				; 08000000H
	je	SHORT $LN52@get_facet_@4
	and	eax, 134217727				; 07ffffffH
	mov	eax, DWORD PTR [ecx+eax*4]
	mov	ecx, DWORD PTR _web+216
	add	eax, DWORD PTR [ecx+edx+304]
	mov	ecx, DWORD PTR _web+636
	mov	eax, DWORD PTR [eax+ecx*4]
	jmp	SHORT $LN51@get_facet_@4
$LN52@get_facet_@4:
	and	eax, 134217727				; 07ffffffH
	mov	eax, DWORD PTR [ecx+eax*4]
	mov	ecx, DWORD PTR _web+216
	mov	ecx, DWORD PTR [ecx+edx+304]
	mov	eax, DWORD PTR [eax+ecx]
$LN51@get_facet_@4:
	mov	ecx, DWORD PTR _web+12
	and	eax, 134217727				; 07ffffffH
	mov	ecx, DWORD PTR [ecx+eax*4]
	mov	eax, DWORD PTR _web+104
	add	ecx, DWORD PTR [eax+edx+64]

; 3101 :       for ( j = 0 ; j < SDIM ; j++ )

	xor	esi, esi
	test	ebx, ebx
	jle	SHORT $LN4@get_facet_@4

; 3097 :     }
; 3098 :   }
; 3099 :   else for ( i = 0 ; i < FACET_VERTS ; i++ )

	mov	edx, DWORD PTR _verts$[ebp]
	mov	eax, DWORD PTR _i$[ebp]
	mov	eax, DWORD PTR [edx+eax*8]

; 3101 :       for ( j = 0 ; j < SDIM ; j++ )

	sub	ecx, eax
$LL6@get_facet_@4:

; 3102 :         verts[2*i][j] = x[j];

	fld	QWORD PTR [ecx+eax]
	inc	esi
	fstp	QWORD PTR [eax]
	mov	ebx, DWORD PTR _web+616
	add	eax, 8
	cmp	esi, ebx
	jl	SHORT $LL6@get_facet_@4

; 3101 :       for ( j = 0 ; j < SDIM ; j++ )

	mov	edx, DWORD PTR _dymem
$LN4@get_facet_@4:

; 3103 :       x = get_coord(get_fe_midv(fe));

	mov	eax, DWORD PTR _web+460
	mov	ecx, DWORD PTR [edi+eax]
	mov	ecx, DWORD PTR [ecx+20]
	mov	esi, DWORD PTR _web+124
	and	ecx, 134217727				; 07ffffffH
	mov	ecx, DWORD PTR [esi+ecx*4]
	mov	esi, DWORD PTR _web+216
	mov	esi, DWORD PTR [esi+edx+304]
	mov	ecx, DWORD PTR [ecx+esi+8]
	mov	esi, DWORD PTR _web+12
	and	ecx, 134217727				; 07ffffffH
	mov	ecx, DWORD PTR [esi+ecx*4]
	mov	esi, DWORD PTR _web+104
	add	ecx, DWORD PTR [esi+edx+64]

; 3104 :       for ( j = 0 ; j < SDIM ; j++ )

	xor	esi, esi
	test	ebx, ebx
	jle	SHORT $LN1@get_facet_@4

; 3103 :       x = get_coord(get_fe_midv(fe));

	mov	edx, DWORD PTR _verts$[ebp]
	mov	eax, DWORD PTR _i$[ebp]
	mov	eax, DWORD PTR [edx+eax*8+4]

; 3104 :       for ( j = 0 ; j < SDIM ; j++ )

	sub	ecx, eax
$LL3@get_facet_@4:

; 3105 :         verts[2*i+1][j] = x[j];

	fld	QWORD PTR [ecx+eax]
	inc	esi
	fstp	QWORD PTR [eax]
	mov	ebx, DWORD PTR _web+616
	add	eax, 8
	cmp	esi, ebx
	jl	SHORT $LL3@get_facet_@4

; 3104 :       for ( j = 0 ; j < SDIM ; j++ )

	mov	edx, DWORD PTR _dymem
	mov	eax, DWORD PTR _web+460
$LN1@get_facet_@4:

; 3106 :       fe = get_next_edge(fe);

	test	DWORD PTR _fe$[ebp], 134217728		; 08000000H
	je	SHORT $LN58@get_facet_@4
	mov	ecx, DWORD PTR [edi+eax]
	mov	eax, DWORD PTR [ecx+28]
	xor	eax, 134217728				; 08000000H
	mov	DWORD PTR _fe$[ebp], eax
	jmp	SHORT $LN8@get_facet_@4
$LN58@get_facet_@4:
	mov	eax, DWORD PTR [edi+eax]
	mov	ecx, DWORD PTR [eax+32]
	mov	DWORD PTR _fe$[ebp], ecx
$LN8@get_facet_@4:

; 3097 :     }
; 3098 :   }
; 3099 :   else for ( i = 0 ; i < FACET_VERTS ; i++ )

	mov	eax, DWORD PTR _i$[ebp]
	inc	eax
	mov	DWORD PTR _i$[ebp], eax
	cmp	eax, 3
	jl	$LL74@get_facet_@4
	pop	edi
	pop	esi
	pop	ebx

; 3107 :     }
; 3108 : } // end get_facet_verts_q()

	mov	esp, ebp
	pop	ebp
	ret	0
_get_facet_verts_q ENDP
_TEXT	ENDS
PUBLIC	??_C@_03MKIGNAJO@?4fe?$AA@			; `string'
PUBLIC	??_C@_01KDCPPGHE@r?$AA@				; `string'
PUBLIC	??_C@_01ICJEACDI@?$DL?$AA@			; `string'
PUBLIC	_name$GSCopy$
PUBLIC	??_C@_0M@GHGEPILI@EVOLVERPATH?$AA@		; `string'
PUBLIC	__$ArrayPad$
PUBLIC	_path_open
EXTRN	_setvbuf:PROC
EXTRN	_datafilename:BYTE
EXTRN	__findclose:PROC
EXTRN	_fopen:PROC
EXTRN	_strrchr:PROC
EXTRN	_strcspn:PROC
EXTRN	__findfirst64i32:PROC
EXTRN	_getenv:PROC
;	COMDAT ??_C@_03MKIGNAJO@?4fe?$AA@
CONST	SEGMENT
??_C@_03MKIGNAJO@?4fe?$AA@ DB '.fe', 00H		; `string'
CONST	ENDS
;	COMDAT ??_C@_01KDCPPGHE@r?$AA@
CONST	SEGMENT
??_C@_01KDCPPGHE@r?$AA@ DB 'r', 00H			; `string'
CONST	ENDS
;	COMDAT ??_C@_01ICJEACDI@?$DL?$AA@
CONST	SEGMENT
??_C@_01ICJEACDI@?$DL?$AA@ DB ';', 00H			; `string'
CONST	ENDS
;	COMDAT ??_C@_0M@GHGEPILI@EVOLVERPATH?$AA@
CONST	SEGMENT
??_C@_0M@GHGEPILI@EVOLVERPATH?$AA@ DB 'EVOLVERPATH', 00H ; `string'
; Function compile flags: /Ogtp
CONST	ENDS
;	COMDAT _path_open
_TEXT	SEGMENT
_name$GSCopy$ = -1604					; size = 4
_fd$ = -1600						; size = 4
_finddata$91165 = -1596					; size = 296
_finddata$91142 = -1300					; size = 296
_path$ = -1004						; size = 1000
__$ArrayPad$ = -4					; size = 4
_name$ = 8						; size = 4
_mode$ = 12						; size = 4
_path_open PROC						; COMDAT

; 3121 : {

	push	ebp
	mov	ebp, esp
	sub	esp, 1604				; 00000644H
	mov	eax, DWORD PTR ___security_cookie
	xor	eax, ebp
	mov	DWORD PTR __$ArrayPad$[ebp], eax
	push	ebx
	mov	ebx, DWORD PTR _name$[ebp]
	push	esi
	push	edi

; 3122 :   char path[PATHSIZE];
; 3123 :   size_t len;
; 3124 :   FILE *fd = NULL;
; 3125 :   char *env;
; 3126 : 
; 3127 : #ifdef MPI_EVOLVER
; 3128 :   /* use filename as format string to generate various file names */
; 3129 :   char taskpath[PATHSIZE];
; 3130 :   sprintf(taskpath,name,this_task);
; 3131 :   name = taskpath;
; 3132 : #endif
; 3133 : 
; 3134 :   env = getenv("EVOLVERPATH");

	push	OFFSET ??_C@_0M@GHGEPILI@EVOLVERPATH?$AA@
	mov	DWORD PTR _name$GSCopy$[ebp], ebx
	mov	DWORD PTR _fd$[ebp], 0
	call	_getenv

; 3135 : 
; 3136 : #if defined(WIN32) && !defined(__BORLANDC__)
; 3137 :   /* Using wildcards! */
; 3138 : 
; 3139 :   /* try given name */
; 3140 :   strncpy(path,name,sizeof(path));

	push	1000					; 000003e8H
	mov	edi, eax
	lea	eax, DWORD PTR _path$[ebp]
	push	ebx
	push	eax
	call	_strncpy

; 3141 :   for(;;)
; 3142 :   { /* try paths in EVOLVERPATH */
; 3143 :     intptr_t ret;
; 3144 :     struct _finddata_t finddata;
; 3145 : 
; 3146 :     ret = _findfirst(path,&finddata);

	lea	ecx, DWORD PTR _finddata$91142[ebp]
	push	ecx
	lea	edx, DWORD PTR _path$[ebp]
	push	edx
	call	__findfirst64i32
	mov	esi, eax
	add	esp, 24					; 00000018H

; 3147 :     if ( ret != -1 )

	cmp	esi, -1
	jne	SHORT $LN44@path_open
$LL35@path_open:

; 3160 :       break;
; 3161 :     }
; 3162 : 
; 3163 :     if ( env == NULL ) break;

	test	edi, edi
	je	$LN65@path_open

; 3164 :     len = strcspn(env,ENVPATHCHAR);

	push	OFFSET ??_C@_01ICJEACDI@?$DL?$AA@
	push	edi
	call	_strcspn
	mov	esi, eax
	add	esp, 8

; 3165 :     if ( len == 0 ) break;

	test	esi, esi
	je	$LN65@path_open

; 3166 :     strncpy(path,env,len);

	push	esi
	lea	eax, DWORD PTR _path$[ebp]
	push	edi
	push	eax
	call	_strncpy

; 3167 :     path[len] = PATHCHAR;
; 3168 :     strncpy(path+len+1,name,sizeof(path)-len-2);

	mov	ecx, 998				; 000003e6H
	sub	ecx, esi
	push	ecx
	lea	edx, DWORD PTR _path$[ebp+esi+1]
	push	ebx
	push	edx
	mov	BYTE PTR _path$[ebp+esi], 92		; 0000005cH
	call	_strncpy
	add	esp, 24					; 00000018H

; 3169 :     if ( env[len] == 0 ) env = NULL; /* end of EVOLVERPATH */

	cmp	BYTE PTR [esi+edi], 0
	jne	SHORT $LN26@path_open
	xor	edi, edi
	jmp	SHORT $LN25@path_open
$LN26@path_open:

; 3170 :     else env += len+1;

	lea	edi, DWORD PTR [esi+edi+1]
$LN25@path_open:

; 3141 :   for(;;)
; 3142 :   { /* try paths in EVOLVERPATH */
; 3143 :     intptr_t ret;
; 3144 :     struct _finddata_t finddata;
; 3145 : 
; 3146 :     ret = _findfirst(path,&finddata);

	lea	eax, DWORD PTR _finddata$91142[ebp]
	push	eax
	lea	ecx, DWORD PTR _path$[ebp]
	push	ecx
	call	__findfirst64i32
	mov	esi, eax
	add	esp, 8

; 3147 :     if ( ret != -1 )

	cmp	esi, -1
	je	SHORT $LL35@path_open
$LN44@path_open:

; 3148 :     { /* finddata.name only has filename, not path stuff */
; 3149 :       char *slash = strrchr(path,'/');

	lea	edx, DWORD PTR _path$[ebp]
	push	47					; 0000002fH
	push	edx
	call	_strrchr
	mov	edi, eax

; 3150 : 	  char *slashb = strrchr(path,'\\');

	lea	eax, DWORD PTR _path$[ebp]
	push	92					; 0000005cH
	push	eax
	call	_strrchr
	add	esp, 16					; 00000010H

; 3151 :       if ( slashb > slash )

	cmp	eax, edi
	jbe	SHORT $LN32@path_open

; 3152 : 		slash = slashb;

	mov	edi, eax
$LN32@path_open:

; 3153 :       if ( !slash && path[1] == ':' ) 

	test	edi, edi
	jne	SHORT $LN54@path_open
	cmp	BYTE PTR _path$[ebp+1], 58		; 0000003aH
	jne	SHORT $LN30@path_open

; 3154 :          slash = path+1;

	lea	edi, DWORD PTR _path$[ebp+1]
$LN54@path_open:

; 3155 :       if ( slash ) slash++;

	inc	edi
	jmp	SHORT $LN29@path_open
$LN30@path_open:

; 3156 :       else slash = path;

	lea	edi, DWORD PTR _path$[ebp]
$LN29@path_open:

; 3157 :       strncpy(slash,finddata.name,sizeof(path)-(slash-path));

	lea	ecx, DWORD PTR _path$[ebp+1000]
	sub	ecx, edi
	push	ecx
	lea	edx, DWORD PTR _finddata$91142[ebp+36]
	push	edx
	push	edi
	call	_strncpy

; 3158 :       fd = fopen(path,"r");

	lea	eax, DWORD PTR _path$[ebp]
	push	OFFSET ??_C@_01KDCPPGHE@r?$AA@
	push	eax
	call	_fopen
	mov	edi, eax

; 3159 :       _findclose(ret);

	push	esi
	mov	DWORD PTR _fd$[ebp], edi
	call	__findclose
	add	esp, 24					; 00000018H

; 3171 :   } 
; 3172 :   
; 3173 :   /* try .fe extension */
; 3174 :   if ( fd == NULL)

	test	edi, edi
	jne	$LN66@path_open
$LN65@path_open:

; 3175 :   {
; 3176 :     env = getenv("EVOLVERPATH");

	push	OFFSET ??_C@_0M@GHGEPILI@EVOLVERPATH?$AA@
	call	_getenv

; 3177 :     strncpy(path,name,sizeof(path));

	mov	ecx, DWORD PTR _name$GSCopy$[ebp]
	push	1000					; 000003e8H
	push	ecx
	lea	edx, DWORD PTR _path$[ebp]
	push	edx
	mov	ebx, eax
	call	_strncpy

; 3178 :     strcat(path,".fe");

	lea	edi, DWORD PTR _path$[ebp]
	add	esp, 16					; 00000010H
	dec	edi
	npad	4
$LL56@path_open:
	mov	al, BYTE PTR [edi+1]
	inc	edi
	test	al, al
	jne	SHORT $LL56@path_open
	mov	eax, DWORD PTR ??_C@_03MKIGNAJO@?4fe?$AA@

; 3179 :     for ( ;; )
; 3180 :     {
; 3181 :       intptr_t ret;
; 3182 :       struct _finddata_t finddata;
; 3183 : 
; 3184 :       ret = _findfirst(path,&finddata);

	lea	ecx, DWORD PTR _finddata$91165[ebp]
	push	ecx
	lea	edx, DWORD PTR _path$[ebp]
	push	edx
	mov	DWORD PTR [edi], eax
	call	__findfirst64i32
	mov	edi, eax
	add	esp, 8

; 3185 :       if ( ret != -1 )

	cmp	edi, -1
	jne	$LN47@path_open
$LL23@path_open:

; 3199 :         break;
; 3200 :       }
; 3201 : 
; 3202 :       /* try paths in EVOLVERPATH */
; 3203 :       if ( env == NULL ) break;

	test	ebx, ebx
	je	$LN64@path_open

; 3204 :       len = strcspn(env,ENVPATHCHAR);

	push	OFFSET ??_C@_01ICJEACDI@?$DL?$AA@
	push	ebx
	call	_strcspn
	mov	esi, eax
	add	esp, 8

; 3205 :       if ( len == 0 ) break;

	test	esi, esi
	je	$LN64@path_open

; 3206 :       strncpy(path,env,len);

	push	esi
	lea	eax, DWORD PTR _path$[ebp]
	push	ebx
	push	eax
	call	_strncpy

; 3207 :       path[len] = PATHCHAR;
; 3208 :       strncpy(path+len+1,name,sizeof(path)-len-2);

	mov	edx, DWORD PTR _name$GSCopy$[ebp]
	mov	ecx, 998				; 000003e6H
	sub	ecx, esi
	push	ecx
	push	edx
	lea	eax, DWORD PTR _path$[ebp+esi+1]
	push	eax
	mov	BYTE PTR _path$[ebp+esi], 92		; 0000005cH
	call	_strncpy

; 3209 :       strcat(path,".fe");

	lea	edi, DWORD PTR _path$[ebp]
	add	esp, 24					; 00000018H
	dec	edi
	npad	4
$LL57@path_open:
	mov	al, BYTE PTR [edi+1]
	inc	edi
	test	al, al
	jne	SHORT $LL57@path_open
	mov	ecx, DWORD PTR ??_C@_03MKIGNAJO@?4fe?$AA@
	mov	DWORD PTR [edi], ecx

; 3210 :       if ( env[len] == 0 ) env = NULL; /* end of EVOLVERPATH */

	cmp	BYTE PTR [esi+ebx], al
	jne	SHORT $LN14@path_open
	xor	ebx, ebx
	jmp	SHORT $LN13@path_open
$LN14@path_open:

; 3211 :       else env += len+1;

	lea	ebx, DWORD PTR [esi+ebx+1]
$LN13@path_open:

; 3179 :     for ( ;; )
; 3180 :     {
; 3181 :       intptr_t ret;
; 3182 :       struct _finddata_t finddata;
; 3183 : 
; 3184 :       ret = _findfirst(path,&finddata);

	lea	edx, DWORD PTR _finddata$91165[ebp]
	push	edx
	lea	eax, DWORD PTR _path$[ebp]
	push	eax
	call	__findfirst64i32
	mov	edi, eax
	add	esp, 8

; 3185 :       if ( ret != -1 )

	cmp	edi, -1
	je	$LL23@path_open
$LN47@path_open:

; 3186 :       { char *slash = strrchr(path,'/');

	lea	ecx, DWORD PTR _path$[ebp]
	push	47					; 0000002fH
	push	ecx
	call	_strrchr

; 3187 : 	    char *slashb = strrchr(path,'\\');

	lea	edx, DWORD PTR _path$[ebp]
	push	92					; 0000005cH
	push	edx
	mov	esi, eax
	call	_strrchr
	add	esp, 16					; 00000010H

; 3188 : 		if ( slashb > slash )

	cmp	eax, esi
	jbe	SHORT $LN20@path_open

; 3189 : 			slash = slashb;

	mov	esi, eax
$LN20@path_open:

; 3190 :         if ( !slash && path[1] == ':' ) 

	test	esi, esi
	jne	SHORT $LN52@path_open
	cmp	BYTE PTR _path$[ebp+1], 58		; 0000003aH
	jne	SHORT $LN18@path_open

; 3191 :          slash = path+1;

	lea	esi, DWORD PTR _path$[ebp+1]
$LN52@path_open:

; 3192 :         if ( slash ) slash++;

	inc	esi
	jmp	SHORT $LN17@path_open
$LN18@path_open:

; 3193 :         else slash = path;

	lea	esi, DWORD PTR _path$[ebp]
$LN17@path_open:

; 3194 :         strncpy(slash,finddata.name,sizeof(path)-(slash-path));

	lea	eax, DWORD PTR _path$[ebp+1000]
	sub	eax, esi
	push	eax
	lea	ecx, DWORD PTR _finddata$91165[ebp+36]
	push	ecx
	push	esi
	call	_strncpy

; 3195 :         fd = fopen(path,"r");

	lea	edx, DWORD PTR _path$[ebp]
	push	OFFSET ??_C@_01KDCPPGHE@r?$AA@
	push	edx
	call	_fopen
	mov	esi, eax

; 3196 :         _findclose(ret);

	push	edi
	mov	DWORD PTR _fd$[ebp], esi
	call	__findclose

; 3197 :         /* scrape the ".fe" off the end of the path since user didn't give it */
; 3198 :         path[strlen(path)-3] = 0;

	lea	eax, DWORD PTR _path$[ebp]
	add	esp, 24					; 00000018H
	lea	edx, DWORD PTR [eax+1]
	npad	1
$LL58@path_open:
	mov	cl, BYTE PTR [eax]
	inc	eax
	test	cl, cl
	jne	SHORT $LL58@path_open
	sub	eax, edx
	mov	BYTE PTR _path$[ebp+eax-3], cl

; 3212 :     } 
; 3213 :   }
; 3214 : #elif defined(_GLOB_H)
; 3215 :   /* Using wildcards! */
; 3216 : 
; 3217 :   /* try given name */
; 3218 :   strncpy(path,name,sizeof(path));
; 3219 :   for(;;)
; 3220 :   { /* try paths in EVOLVERPATH */
; 3221 :     int ret;
; 3222 :     glob_t globdata;
; 3223 : 
; 3224 :     memset(&globdata,0,sizeof(globdata));
; 3225 :     ret = glob(path,0,NULL,&globdata);
; 3226 :     if ( ret == 0 ) /* success */
; 3227 :     { 
; 3228 :       strncpy(path,globdata.gl_pathv[0],sizeof(path));
; 3229 :       fd = fopen(path,"r");
; 3230 :       globfree(&globdata);
; 3231 :       break;
; 3232 :     }
; 3233 : 
; 3234 :     if ( env == NULL ) break;
; 3235 :     len = strcspn(env,ENVPATHCHAR);
; 3236 :     if ( len == 0 ) break;
; 3237 :     strncpy(path,env,len);
; 3238 :     path[len] = PATHCHAR;
; 3239 :     strncpy(path+len+1,name,sizeof(path)-len-2);
; 3240 :     if ( env[len] == 0 ) env = NULL; /* end of EVOLVERPATH */
; 3241 :     else env += len+1;
; 3242 :   } 
; 3243 :   
; 3244 :   /* try .fe extension */
; 3245 :   if ( fd == NULL)
; 3246 :   {
; 3247 :     env = getenv("EVOLVERPATH");
; 3248 :     strncpy(path,name,sizeof(path));
; 3249 :     strcat(path,".fe");
; 3250 :     for ( ;; )
; 3251 :     { glob_t globdata;
; 3252 :       int ret;
; 3253 : 
; 3254 :       ret = glob(path,0,NULL,&globdata);
; 3255 :       if ( ret == 0 ) /* success */
; 3256 :       { 
; 3257 :         strncpy(path,globdata.gl_pathv[0],sizeof(path));
; 3258 :         fd = fopen(path,"r");
; 3259 :         globfree(&globdata);
; 3260 :         /* scrape the ".fe" off the end of the path since user didn't give it */
; 3261 :         path[strlen(path)-3] = 0;
; 3262 :         break;
; 3263 :       }
; 3264 : 
; 3265 :       /* try paths in EVOLVERPATH */
; 3266 :       if ( env == NULL ) break;
; 3267 :       len = strcspn(env,ENVPATHCHAR);
; 3268 :       if ( len == 0 ) break;
; 3269 :       strncpy(path,env,len);
; 3270 :       path[len] = PATHCHAR;
; 3271 :       strncpy(path+len+1,name,sizeof(path)-len-2);
; 3272 :       strcat(path,".fe");
; 3273 :       if ( env[len] == 0 ) env = NULL; /* end of EVOLVERPATH */
; 3274 :       else env += len+1;
; 3275 :     } 
; 3276 :   }
; 3277 : #else
; 3278 :   /* try given name */
; 3279 :   strncpy(path,name,sizeof(path));
; 3280 :   while ( (fd = fopen(path,"r")) == NULL)
; 3281 :   { /* try paths in EVOLVERPATH */
; 3282 :     if ( env == NULL ) break;
; 3283 :     len = strcspn(env,ENVPATHCHAR);
; 3284 :     if ( len == 0 ) break;
; 3285 :     strncpy(path,env,len);
; 3286 :     path[len] = PATHCHAR;
; 3287 :     strncpy(path+len+1,name,sizeof(path)-len-2);
; 3288 :     if ( env[len] == 0 ) env = NULL; /* end of EVOLVERPATH */
; 3289 :     else env += len+1;
; 3290 :   } 
; 3291 :   
; 3292 :   /* try .fe extension */
; 3293 :   if ( fd == NULL)
; 3294 :   {
; 3295 :     env = getenv("EVOLVERPATH");
; 3296 :     strncpy(path,name,sizeof(path));
; 3297 :     strcat(path,".fe");
; 3298 :     while ( (fd = fopen(path,"r")) == NULL)
; 3299 :      { /* try paths in EVOLVERPATH */
; 3300 :         if ( env == NULL ) break;
; 3301 :         len = strcspn(env,ENVPATHCHAR);
; 3302 :         if ( len == 0 ) break;
; 3303 :         strncpy(path,env,len);
; 3304 :         path[len] = PATHCHAR;
; 3305 :         strncpy(path+len+1,name,sizeof(path)-len-2);
; 3306 :         strcat(path,".fe");
; 3307 :         if ( env[len] == 0 ) env = NULL; /* end of EVOLVERPATH */
; 3308 :         else env += len+1;
; 3309 :      } 
; 3310 :   }
; 3311 : #endif
; 3312 :  
; 3313 :   if ( fd && (mode==SETDATAFILENAME) )

	test	esi, esi
	je	$LN61@path_open
	mov	ebx, DWORD PTR _name$GSCopy$[ebp]
$LN53@path_open:
	cmp	DWORD PTR _mode$[ebp], 1
	jne	$LN12@path_open

; 3314 :   { /* has to be set so repeat open works */
; 3315 :     /* copy from end, getting same number of directories */
; 3316 :     char *found; /* from findfile() */
; 3317 :     char *user; /* user input search string */
; 3318 : 
; 3319 :     found = path + strlen(path) - 1;

	lea	eax, DWORD PTR _path$[ebp]
	lea	edx, DWORD PTR [eax+1]
$LL59@path_open:
	mov	cl, BYTE PTR [eax]
	inc	eax
	test	cl, cl
	jne	SHORT $LL59@path_open
	sub	eax, edx
	lea	edx, DWORD PTR _path$[ebp+eax-1]

; 3320 :     user  = name + strlen(name) - 1;

	mov	eax, ebx
	lea	esi, DWORD PTR [eax+1]
$LL60@path_open:
	mov	cl, BYTE PTR [eax]
	inc	eax
	test	cl, cl
	jne	SHORT $LL60@path_open
	sub	eax, esi
	lea	eax, DWORD PTR [eax+ebx-1]

; 3321 :     while ( user >= name )

	cmp	eax, ebx
	jb	SHORT $LN3@path_open
$LL11@path_open:

; 3322 :     { while ( (*user != PATHCHAR) && (*user != '\\') && (user >= name) )

	mov	cl, BYTE PTR [eax]
	cmp	cl, 92					; 0000005cH
	je	SHORT $LN43@path_open
$LN69@path_open:
	cmp	eax, ebx
	jb	SHORT $LN43@path_open
	mov	cl, BYTE PTR [eax-1]

; 3323 :          user--;

	dec	eax
	cmp	cl, 92					; 0000005cH
	jne	SHORT $LN69@path_open
$LN43@path_open:

; 3324 :       while ( (*found != PATHCHAR) && (*found != '\\') && (found >= path) )

	mov	cl, BYTE PTR [edx]
	cmp	cl, 92					; 0000005cH
	je	SHORT $LN6@path_open
$LN71@path_open:
	lea	ecx, DWORD PTR _path$[ebp]
	cmp	edx, ecx
	jb	SHORT $LN6@path_open
	mov	cl, BYTE PTR [edx-1]

; 3325 :          found--;

	dec	edx
	cmp	cl, 92					; 0000005cH
	jne	SHORT $LN71@path_open
$LN6@path_open:

; 3326 :       if ( user >= name ) user--; else break;

	cmp	eax, ebx
	jb	SHORT $LN3@path_open

; 3327 :       if ( found >= path ) found--; else break;

	lea	ecx, DWORD PTR _path$[ebp]
	dec	eax
	cmp	edx, ecx
	jb	SHORT $LN3@path_open
	dec	edx
	cmp	eax, ebx
	jae	SHORT $LL11@path_open
$LN3@path_open:

; 3328 :     } 
; 3329 :     strncpy(datafilename,found+1,PATHSIZE);

	push	1000					; 000003e8H
	inc	edx
	push	edx
	push	OFFSET _datafilename
	call	_strncpy
	mov	esi, DWORD PTR _fd$[ebp]
	add	esp, 12					; 0000000cH
$LN12@path_open:

; 3330 :   }
; 3331 : 
; 3332 :   if ( fd )

	test	esi, esi
	je	SHORT $LN61@path_open

; 3333 :     setvbuf(fd,NULL,_IOFBF,BUFSIZ*100);

	push	51200					; 0000c800H
	push	0
	push	0
	push	esi
	call	_setvbuf
	add	esp, 16					; 00000010H
$LN61@path_open:

; 3334 : 
; 3335 :   return fd;

	pop	edi
	mov	eax, esi
	pop	esi
	pop	ebx

; 3336 : } // end path_open()

	mov	ecx, DWORD PTR __$ArrayPad$[ebp]
	xor	ecx, ebp
	call	@__security_check_cookie@4
	mov	esp, ebp
	pop	ebp
	ret	0
$LN66@path_open:

; 3212 :     } 
; 3213 :   }
; 3214 : #elif defined(_GLOB_H)
; 3215 :   /* Using wildcards! */
; 3216 : 
; 3217 :   /* try given name */
; 3218 :   strncpy(path,name,sizeof(path));
; 3219 :   for(;;)
; 3220 :   { /* try paths in EVOLVERPATH */
; 3221 :     int ret;
; 3222 :     glob_t globdata;
; 3223 : 
; 3224 :     memset(&globdata,0,sizeof(globdata));
; 3225 :     ret = glob(path,0,NULL,&globdata);
; 3226 :     if ( ret == 0 ) /* success */
; 3227 :     { 
; 3228 :       strncpy(path,globdata.gl_pathv[0],sizeof(path));
; 3229 :       fd = fopen(path,"r");
; 3230 :       globfree(&globdata);
; 3231 :       break;
; 3232 :     }
; 3233 : 
; 3234 :     if ( env == NULL ) break;
; 3235 :     len = strcspn(env,ENVPATHCHAR);
; 3236 :     if ( len == 0 ) break;
; 3237 :     strncpy(path,env,len);
; 3238 :     path[len] = PATHCHAR;
; 3239 :     strncpy(path+len+1,name,sizeof(path)-len-2);
; 3240 :     if ( env[len] == 0 ) env = NULL; /* end of EVOLVERPATH */
; 3241 :     else env += len+1;
; 3242 :   } 
; 3243 :   
; 3244 :   /* try .fe extension */
; 3245 :   if ( fd == NULL)
; 3246 :   {
; 3247 :     env = getenv("EVOLVERPATH");
; 3248 :     strncpy(path,name,sizeof(path));
; 3249 :     strcat(path,".fe");
; 3250 :     for ( ;; )
; 3251 :     { glob_t globdata;
; 3252 :       int ret;
; 3253 : 
; 3254 :       ret = glob(path,0,NULL,&globdata);
; 3255 :       if ( ret == 0 ) /* success */
; 3256 :       { 
; 3257 :         strncpy(path,globdata.gl_pathv[0],sizeof(path));
; 3258 :         fd = fopen(path,"r");
; 3259 :         globfree(&globdata);
; 3260 :         /* scrape the ".fe" off the end of the path since user didn't give it */
; 3261 :         path[strlen(path)-3] = 0;
; 3262 :         break;
; 3263 :       }
; 3264 : 
; 3265 :       /* try paths in EVOLVERPATH */
; 3266 :       if ( env == NULL ) break;
; 3267 :       len = strcspn(env,ENVPATHCHAR);
; 3268 :       if ( len == 0 ) break;
; 3269 :       strncpy(path,env,len);
; 3270 :       path[len] = PATHCHAR;
; 3271 :       strncpy(path+len+1,name,sizeof(path)-len-2);
; 3272 :       strcat(path,".fe");
; 3273 :       if ( env[len] == 0 ) env = NULL; /* end of EVOLVERPATH */
; 3274 :       else env += len+1;
; 3275 :     } 
; 3276 :   }
; 3277 : #else
; 3278 :   /* try given name */
; 3279 :   strncpy(path,name,sizeof(path));
; 3280 :   while ( (fd = fopen(path,"r")) == NULL)
; 3281 :   { /* try paths in EVOLVERPATH */
; 3282 :     if ( env == NULL ) break;
; 3283 :     len = strcspn(env,ENVPATHCHAR);
; 3284 :     if ( len == 0 ) break;
; 3285 :     strncpy(path,env,len);
; 3286 :     path[len] = PATHCHAR;
; 3287 :     strncpy(path+len+1,name,sizeof(path)-len-2);
; 3288 :     if ( env[len] == 0 ) env = NULL; /* end of EVOLVERPATH */
; 3289 :     else env += len+1;
; 3290 :   } 
; 3291 :   
; 3292 :   /* try .fe extension */
; 3293 :   if ( fd == NULL)
; 3294 :   {
; 3295 :     env = getenv("EVOLVERPATH");
; 3296 :     strncpy(path,name,sizeof(path));
; 3297 :     strcat(path,".fe");
; 3298 :     while ( (fd = fopen(path,"r")) == NULL)
; 3299 :      { /* try paths in EVOLVERPATH */
; 3300 :         if ( env == NULL ) break;
; 3301 :         len = strcspn(env,ENVPATHCHAR);
; 3302 :         if ( len == 0 ) break;
; 3303 :         strncpy(path,env,len);
; 3304 :         path[len] = PATHCHAR;
; 3305 :         strncpy(path+len+1,name,sizeof(path)-len-2);
; 3306 :         strcat(path,".fe");
; 3307 :         if ( env[len] == 0 ) env = NULL; /* end of EVOLVERPATH */
; 3308 :         else env += len+1;
; 3309 :      } 
; 3310 :   }
; 3311 : #endif
; 3312 :  
; 3313 :   if ( fd && (mode==SETDATAFILENAME) )

	mov	esi, DWORD PTR _fd$[ebp]
	jmp	$LN53@path_open
$LN64@path_open:

; 3336 : } // end path_open()

	mov	ecx, DWORD PTR __$ArrayPad$[ebp]
	mov	eax, DWORD PTR _fd$[ebp]
	pop	edi
	pop	esi
	xor	ecx, ebp
	pop	ebx
	call	@__security_check_cookie@4
	mov	esp, ebp
	pop	ebp
	ret	0
_path_open ENDP
_TEXT	ENDS
PUBLIC	_calc_view_transform_gens
EXTRN	_set_view_transform_generators_global:PROC
EXTRN	_view_transform_gens:DWORD
EXTRN	_eval:PROC
EXTRN	_view_transform_gens_expr:DWORD
EXTRN	_transform_gen_count:DWORD
; Function compile flags: /Ogtp
;	COMDAT _calc_view_transform_gens
_TEXT	SEGMENT
_change$ = -16						; size = 4
_nmax$ = -12						; size = 4
tv262 = -8						; size = 4
_n$ = -4						; size = 4
_calc_view_transform_gens PROC				; COMDAT

; 3348 : { int n,i,j,nmax;

	push	ebp
	mov	ebp, esp
	sub	esp, 16					; 00000010H

; 3349 :   REAL value;
; 3350 :   int change = 0;
; 3351 : 
; 3352 :   nmax = web.torus_flag ? transform_gen_count - SDIM : transform_gen_count;

	mov	eax, DWORD PTR _web+616
	mov	ecx, DWORD PTR _transform_gen_count
	xor	edx, edx
	mov	DWORD PTR _change$[ebp], edx
	cmp	DWORD PTR _web+860, edx
	je	SHORT $LN13@calc_view_
	sub	ecx, eax
$LN13@calc_view_:
	mov	DWORD PTR _nmax$[ebp], ecx

; 3353 :   for ( n = 0 ; n < nmax ; n++ )

	mov	DWORD PTR _n$[ebp], edx
	cmp	ecx, edx
	jle	$LN8@calc_view_
	push	ebx
	push	esi
	mov	DWORD PTR tv262[ebp], edx
	push	edi
$LL24@calc_view_:

; 3354 :     for ( i = 0 ; i <= SDIM ; i++ )

	xor	ebx, ebx
	test	eax, eax
	js	SHORT $LN9@calc_view_
	npad	6
$LL23@calc_view_:

; 3355 :       for ( j = 0 ; j <= SDIM ; j++ )

	xor	esi, esi
	test	eax, eax
	js	SHORT $LN6@calc_view_
	mov	edi, DWORD PTR tv262[ebp]
	add	edi, ebx
	imul	edi, 624				; 00000270H
$LL21@calc_view_:

; 3356 :       { value = eval(&view_transform_gens_expr[n][i][j],NULL,NULLID,NULL);

	mov	eax, DWORD PTR _view_transform_gens_expr
	push	0
	push	0
	lea	ecx, DWORD PTR [edi+eax]
	push	0
	push	ecx
	call	_eval

; 3357 :         if ( value != view_transform_gens[n][i][j] ) 

	fld	ST(0)
	mov	edx, DWORD PTR _view_transform_gens
	mov	eax, DWORD PTR _n$[ebp]
	mov	ecx, DWORD PTR [edx+eax*4]
	mov	edx, DWORD PTR [ecx+ebx*4]
	fld	QWORD PTR [edx+esi*8]
	lea	ecx, DWORD PTR [edx+esi*8]
	fucompp
	add	esp, 16					; 00000010H
	fnstsw	ax
	test	ah, 68					; 00000044H
	jnp	SHORT $LN26@calc_view_

; 3358 :         { view_transform_gens[n][i][j] = value;

	fstp	QWORD PTR [ecx]

; 3359 :           change = 1;

	mov	DWORD PTR _change$[ebp], 1
	jmp	SHORT $LN3@calc_view_
$LN26@calc_view_:
	fstp	ST(0)
$LN3@calc_view_:

; 3355 :       for ( j = 0 ; j <= SDIM ; j++ )

	mov	eax, DWORD PTR _web+616
	inc	esi
	add	edi, 104				; 00000068H
	cmp	esi, eax
	jle	SHORT $LL21@calc_view_
$LN6@calc_view_:

; 3354 :     for ( i = 0 ; i <= SDIM ; i++ )

	inc	ebx
	cmp	ebx, eax
	jle	SHORT $LL23@calc_view_
$LN9@calc_view_:

; 3353 :   for ( n = 0 ; n < nmax ; n++ )

	mov	ecx, DWORD PTR _n$[ebp]
	add	DWORD PTR tv262[ebp], 6
	inc	ecx
	mov	DWORD PTR _n$[ebp], ecx
	cmp	ecx, DWORD PTR _nmax$[ebp]
	jl	$LL24@calc_view_
	pop	edi
	pop	esi
	pop	ebx
$LN8@calc_view_:

; 3360 :         }
; 3361 :       } 
; 3362 :  set_view_transform_generators_global();

	call	_set_view_transform_generators_global

; 3363 :  return change;

	mov	eax, DWORD PTR _change$[ebp]

; 3364 : } // end calc_view_transform_gens()

	mov	esp, ebp
	pop	ebp
	ret	0
_calc_view_transform_gens ENDP
_TEXT	ENDS
PUBLIC	??_C@_0BN@GJIJLJIB@Degenerate?5display?5periods?4?6?$AA@ ; `string'
PUBLIC	??_C@_0BN@OGBKLKNM@Degenerate?5torus?5unit?5cell?4?6?$AA@ ; `string'
PUBLIC	__$ArrayPad$
PUBLIC	_calc_periods
EXTRN	_transform_gen_expr:PROC
EXTRN	_transform_expr:BYTE
EXTRN	_matcopy:PROC
EXTRN	_identmat:DWORD
EXTRN	_transform_gen_swap:DWORD
EXTRN	_kb_dmatrix3:PROC
EXTRN	_set_body_fixvol:PROC
EXTRN	_set_body_volume:PROC
EXTRN	_torus_display_period_expr:BYTE
EXTRN	_det_adjoint:PROC
EXTRN	_torus_period_expr:BYTE
;	COMDAT ??_C@_0BN@GJIJLJIB@Degenerate?5display?5periods?4?6?$AA@
; File c:\levolver\yonkang-sefit\levolver\ev_ogl\inline.h
CONST	SEGMENT
??_C@_0BN@GJIJLJIB@Degenerate?5display?5periods?4?6?$AA@ DB 'Degenerate d'
	DB	'isplay periods.', 0aH, 00H			; `string'
CONST	ENDS
;	COMDAT ??_C@_0BN@OGBKLKNM@Degenerate?5torus?5unit?5cell?4?6?$AA@
CONST	SEGMENT
??_C@_0BN@OGBKLKNM@Degenerate?5torus?5unit?5cell?4?6?$AA@ DB 'Degenerate '
	DB	'torus unit cell.', 0aH, 00H			; `string'
; Function compile flags: /Ogtp
; File c:\levolver\yonkang-sefit\levolver\ev_ogl\utility.c
CONST	ENDS
;	COMDAT _calc_periods
_TEXT	SEGMENT
_invperqXvS$ = -340					; size = 24
_old_torusv$ = -316					; size = 8
_value$ = -308						; size = 8
_invper$ = -304						; size = 4
_det$91246 = -300					; size = 8
tv1071 = -296						; size = 4
tv969 = -296						; size = 4
tv807 = -296						; size = 4
tv585 = -296						; size = 4
_invperxJ$ = -292					; size = 288
__$ArrayPad$ = -4					; size = 4
_mode$ = 8						; size = 4
_calc_periods PROC					; COMDAT

; 3374 : { int i,j;

	push	ebp
	mov	ebp, esp
	sub	esp, 340				; 00000154H
	mov	eax, DWORD PTR ___security_cookie
	xor	eax, ebp
	mov	DWORD PTR __$ArrayPad$[ebp], eax

; 3375 :   REAL value;
; 3376 :   REAL old_torusv = web.torusv;

	fld	QWORD PTR _web+1600
	push	ebx
	push	esi
	fstp	QWORD PTR _old_torusv$[ebp]
	push	edi

; 3377 :   MAT2D(invper,MAXCOORD,MAXCOORD); /* so don't have temporary bad values

	push	6
	push	6
	lea	eax, DWORD PTR _invperxJ$[ebp]
	push	eax
	lea	ecx, DWORD PTR _invperqXvS$[ebp]
	push	ecx
	call	_mat2d_setup
	add	esp, 16					; 00000010H

; 3378 :       in web.inverse_periods since graphgen() may be using it */
; 3379 :   int k;
; 3380 : 
; 3381 :   if ( torus_period_expr[0][0].start )

	cmp	DWORD PTR _torus_period_expr, 0
	mov	ebx, eax
	mov	DWORD PTR _invper$[ebp], ebx
	je	$LN89@calc_perio

; 3382 :   { for ( i = 0 ; i < SDIM ; i++ )

	mov	eax, DWORD PTR _web+616
	xor	edi, edi
	test	eax, eax
	jle	SHORT $LN44@calc_perio
	mov	DWORD PTR tv807[ebp], OFFSET _torus_period_expr
$LL100@calc_perio:

; 3383 :     { for ( j = 0 ; j < SDIM ; j++ )

	xor	esi, esi
	test	eax, eax
	jle	SHORT $LN45@calc_perio
	mov	ebx, DWORD PTR tv807[ebp]
$LL43@calc_perio:

; 3384 :       { value = eval(&torus_period_expr[i][j],NULL,NULLID,NULL);

	push	0
	push	0
	push	0
	push	ebx
	call	_eval

; 3385 :         invper[j][i] = web.torus_period[i][j] = value;

	mov	edx, DWORD PTR _web+1608
	mov	eax, DWORD PTR [edx+edi*4]
	mov	ecx, DWORD PTR _invper$[ebp]
	fst	QWORD PTR [eax+esi*8]
	mov	edx, DWORD PTR [ecx+esi*4]
	fstp	QWORD PTR [edx+edi*8]
	mov	eax, DWORD PTR _web+616
	inc	esi
	add	esp, 16					; 00000010H
	add	ebx, 104				; 00000068H
	cmp	esi, eax
	jl	SHORT $LL43@calc_perio

; 3383 :     { for ( j = 0 ; j < SDIM ; j++ )

	mov	ebx, ecx
$LN45@calc_perio:

; 3382 :   { for ( i = 0 ; i < SDIM ; i++ )

	add	DWORD PTR tv807[ebp], 624		; 00000270H
	inc	edi
	cmp	edi, eax
	jl	SHORT $LL100@calc_perio
$LN44@calc_perio:

; 3386 :       }
; 3387 :     }
; 3388 :     web.torusv = det_adjoint(invper,SDIM);

	push	eax
	push	ebx
	call	_det_adjoint
	fst	QWORD PTR _web+1600

; 3389 :     if ( web.torusv == 0.0 )

	fldz
	add	esp, 8
	fucompp
	fnstsw	ax
	test	ah, 68					; 00000044H
	jp	SHORT $LN97@calc_perio

; 3390 :       kb_error(1377,"Degenerate torus unit cell.\n",RECOVERABLE);

	push	1
	push	OFFSET ??_C@_0BN@OGBKLKNM@Degenerate?5torus?5unit?5cell?4?6?$AA@
	push	1377					; 00000561H
	call	_kb_error
	add	esp, 12					; 0000000cH
$LN97@calc_perio:

; 3391 :     for ( i = 0 ; i < SDIM ; i++ )

	mov	ecx, DWORD PTR _web+616
	xor	edx, edx
	test	ecx, ecx
	jle	SHORT $LN94@calc_perio
$LL103@calc_perio:

; 3392 :      for ( j = 0 ; j < SDIM ; j++ )

	xor	eax, eax
	test	ecx, ecx
	jle	SHORT $LN38@calc_perio
	mov	esi, DWORD PTR [ebx+edx*4]
	npad	5
$LL88@calc_perio:

; 3393 :      { web.inverse_periods[i][j] = invper[i][j]/web.torusv;

	fld	QWORD PTR [esi+eax*8]
	mov	ecx, DWORD PTR _web+1612
	fdiv	QWORD PTR _web+1600
	mov	ecx, DWORD PTR [ecx+edx*4]
	inc	eax
	fstp	QWORD PTR [ecx+eax*8-8]

; 3394 :        web.inverse_periods_tr[j][i] = invper[i][j]/web.torusv;

	fld	QWORD PTR [esi+eax*8-8]
	fdiv	QWORD PTR _web+1600
	mov	ecx, DWORD PTR _web+1616
	mov	ecx, DWORD PTR [ecx+eax*4-4]
	fstp	QWORD PTR [ecx+edx*8]
	mov	ecx, DWORD PTR _web+616
	cmp	eax, ecx
	jl	SHORT $LL88@calc_perio
$LN38@calc_perio:

; 3391 :     for ( i = 0 ; i < SDIM ; i++ )

	inc	edx
	cmp	edx, ecx
	jl	SHORT $LL103@calc_perio
	jmp	SHORT $LN94@calc_perio
$LN89@calc_perio:
	mov	ecx, DWORD PTR _web+616
$LN94@calc_perio:

; 3395 :      }
; 3396 :   }
; 3397 : 
; 3398 :   if ( web.torus_display_period )

	cmp	DWORD PTR _web+1620, 0
	je	$LN90@calc_perio

; 3399 :   { REAL det;
; 3400 :     for ( i = 0 ; i < SDIM ; i++ )

	xor	edi, edi
	test	ecx, ecx
	jle	SHORT $LN30@calc_perio
	mov	DWORD PTR tv969[ebp], OFFSET _torus_display_period_expr
$LL101@calc_perio:

; 3401 :     { for ( j = 0 ; j < SDIM ; j++ )

	xor	esi, esi
	test	ecx, ecx
	jle	SHORT $LN31@calc_perio
	mov	ebx, DWORD PTR tv969[ebp]
	npad	2
$LL29@calc_perio:

; 3402 :       { value = eval(&torus_display_period_expr[i][j],NULL,NULLID,NULL);

	push	0
	push	0
	push	0
	push	ebx
	call	_eval

; 3403 :         invper[j][i] = web.torus_display_period[i][j] = value;

	mov	edx, DWORD PTR _web+1620
	mov	ecx, DWORD PTR _invper$[ebp]
	mov	eax, DWORD PTR [edx+edi*4]
	mov	edx, DWORD PTR [ecx+esi*4]
	fst	QWORD PTR [eax+esi*8]
	fstp	QWORD PTR [edx+edi*8]
	mov	ecx, DWORD PTR _web+616
	inc	esi
	add	esp, 16					; 00000010H
	add	ebx, 104				; 00000068H
	cmp	esi, ecx
	jl	SHORT $LL29@calc_perio

; 3401 :     { for ( j = 0 ; j < SDIM ; j++ )

	mov	ebx, DWORD PTR _invper$[ebp]
$LN31@calc_perio:

; 3399 :   { REAL det;
; 3400 :     for ( i = 0 ; i < SDIM ; i++ )

	add	DWORD PTR tv969[ebp], 624		; 00000270H
	inc	edi
	cmp	edi, ecx
	jl	SHORT $LL101@calc_perio
$LN30@calc_perio:

; 3404 :       }
; 3405 :     }
; 3406 :     det = det_adjoint(invper,SDIM);

