; Listing generated by Microsoft (R) Optimizing Compiler Version 16.00.40219.01 

	TITLE	C:\levolver\yonkang-sefit\levolver\ev_ogl\variable.c
	.686P
	.XMM
	include listing.inc
	.model	flat

INCLUDELIB LIBCMT
INCLUDELIB OLDNAMES

PUBLIC	??_C@_04CIJGIAGF@q_id?$AA@			; `string'
PUBLIC	??_C@_09CMEJCHLK@facetedge?$AA@			; `string'
PUBLIC	??_C@_04IEJGKNJ@body?$AA@			; `string'
PUBLIC	??_C@_05BIBOABDC@facet?$AA@			; `string'
PUBLIC	??_C@_04IJFJNCMM@edge?$AA@			; `string'
PUBLIC	??_C@_06HLKHCFCI@vertex?$AA@			; `string'
PUBLIC	??_C@_0CP@GOLIPAFL@Version?52?470a?0?5August?527?0?52013?$DL?5@ ; `string'
PUBLIC	??_C@_05EMAPBGPB@2?470a?$AA@			; `string'
PUBLIC	_evolver_version
PUBLIC	_VERSION
PUBLIC	_typenames
PUBLIC	_factorial
PUBLIC	_this_task
PUBLIC	_mpi_initialization_flag
PUBLIC	_match_id_flag
PUBLIC	_DWIDTH
PUBLIC	_DPREC
PUBLIC	_auto_convert_flag
PUBLIC	_option_q
PUBLIC	_random_seed
PUBLIC	_default_random_seed
PUBLIC	_brightness
PUBLIC	_markedgedrawflag
PUBLIC	_HOMDIM
PUBLIC	_nprocs
PUBLIC	_procs_requested
PUBLIC	_web_checksum
PUBLIC	_dymem_checksum
PUBLIC	_gocount
PUBLIC	_go_display_flag
PUBLIC	_shading_flag
PUBLIC	_color_flag
PUBLIC	_background_color
PUBLIC	_backcull_flag
PUBLIC	_setting_backcull
PUBLIC	_gv_binary_flag
PUBLIC	_logfd
PUBLIC	_commandfd
PUBLIC	_l_infd
PUBLIC	_l_outfd
PUBLIC	_l_brfd
PUBLIC	_l_evolver_mode
PUBLIC	_l_redirect
PUBLIC	_l_evolver_break
PUBLIC	_GraphicsWindowTitleText
PUBLIC	_GraphicsWindowTitleTextBuffer
PUBLIC	_ProgramBreakDelay
PUBLIC	_cProgramBreakDelay
PUBLIC	_ScreenSizeIndex
PUBLIC	_png_prefix
PUBLIC	_png_name
PUBLIC	_png_full_name
PUBLIC	_png_dir
PUBLIC	_y_pixel_down_cmd_line
PUBLIC	_y_pixel_height_cmd_line
PUBLIC	_x_pixel_width_cmd_line
PUBLIC	_hessian_quiet_flag
PUBLIC	_hessian_normal_flag
PUBLIC	_linear_metric_mix
PUBLIC	_quadratic_metric_mix
PUBLIC	_min_square_grad_flag
PUBLIC	_hess_move_con_flag
PUBLIC	_hash_per_row
PUBLIC	_ysmp_flag
PUBLIC	_sp_factor_func
PUBLIC	_sp_solve_func
PUBLIC	_sp_solve_multi_func
PUBLIC	_sp_CHinvC_func
PUBLIC	_mindeg_margin
PUBLIC	_sparse_constraints_flag
PUBLIC	_augmented_hessian_flag
PUBLIC	_BKalpha
PUBLIC	_BK_flag
PUBLIC	_sp_mul_func
PUBLIC	_sp_AIJ_setup_func
PUBLIC	_sp_constraint_setup_func
PUBLIC	_sp_hess_project_setup_func
PUBLIC	_sp_ordering_func
PUBLIC	_hessian_epsilon
PUBLIC	_hessian_epsilon_default
PUBLIC	_deturck_factor
PUBLIC	_default_name
PUBLIC	_normal_sq_mean_curvature_mi
PUBLIC	_eff_area_sq_mean_curvature_mi
PUBLIC	_sq_mean_curvature_mi
PUBLIC	_mix_sq_mean_curvature_mi
PUBLIC	_scrollbuffersize
PUBLIC	_cg_hvector
PUBLIC	_vedge_timestamp
PUBLIC	_vfacet_timestamp
PUBLIC	_bfacet_timestamp
PUBLIC	_bdry_showflag
PUBLIC	_normflag
PUBLIC	_thickenflag
PUBLIC	_innerflag
PUBLIC	_outerflag
PUBLIC	_colorflag
PUBLIC	_OOGL_flag
PUBLIC	_edgeshow_flag
PUBLIC	_thickness
PUBLIC	_user_thickness_flag
PUBLIC	_pswidths
PUBLIC	_xwidths
PUBLIC	_otherwidths
PUBLIC	_edgewidths
PUBLIC	_facet_alpha
PUBLIC	_view_4D_flag
PUBLIC	_rgb_colors
PUBLIC	_cmyk_colors
PUBLIC	_box_flag
PUBLIC	_bounding_box_color
PUBLIC	_minclipx
PUBLIC	_maxclipx
PUBLIC	_minclipy
PUBLIC	_maxclipy
PUBLIC	_zoom_number
PUBLIC	_inner_clip_flag
PUBLIC	_inner_clip_rad
PUBLIC	_volume_factorial
PUBLIC	_graph_start
PUBLIC	_graph_edge
PUBLIC	_graph_facet
PUBLIC	_graph_end
PUBLIC	_display_edge
PUBLIC	_display_facet
PUBLIC	_init_graphics
PUBLIC	_finish_graphics
PUBLIC	_close_graphics
PUBLIC	_steps
PUBLIC	_no_refine
PUBLIC	_reflevel
PUBLIC	_calc_facet_energy
PUBLIC	_calc_facet_forces
PUBLIC	_calc_facet_volume
PUBLIC	_calc_edge_energy
PUBLIC	_calc_edge_forces
PUBLIC	_calc_edge_area
PUBLIC	_string_grad
PUBLIC	_film_grad
PUBLIC	_edge_ctrl
PUBLIC	_gauss2Dpt1
PUBLIC	_gauss2Dwt1
PUBLIC	_gauss2Dpt2
PUBLIC	_gauss2Dwt2
PUBLIC	_gauss2Dpt5
PUBLIC	_gauss2Dwt5
PUBLIC	_gauss2Dpt6
PUBLIC	_gauss2Dwt6
PUBLIC	_gauss2Dpt8
PUBLIC	_gauss2Dwt8
PUBLIC	_gauss2Dpt11
PUBLIC	_gauss2Dwt11
PUBLIC	_gauss2Dpt
PUBLIC	_gauss2Dwt
PUBLIC	_gauss2Dpt13
PUBLIC	_gauss2Dwt13
EXTRN	_film_grad_l:PROC
EXTRN	_string_grad_l:PROC
EXTRN	_edge_area_l:PROC
EXTRN	_edge_force_l:PROC
EXTRN	_edge_energy_l:PROC
EXTRN	_facet_volume_l:PROC
EXTRN	_facet_force_l:PROC
EXTRN	_facet_energy_l:PROC
EXTRN	_null_function:PROC
EXTRN	_BK_hess_project_setup:PROC
EXTRN	_bk_constraint_setup:PROC
EXTRN	_bk_AIJ_setup:PROC
EXTRN	_bk_mul:PROC
EXTRN	_sp_CHinvC:PROC
EXTRN	_xmd_solve_multi:PROC
EXTRN	_xmd_solve:PROC
EXTRN	_xmd_factor:PROC
_DATA	SEGMENT
COMM	_do_show_flag:DWORD
COMM	_transform_gen_swap_colors_global:DWORD
COMM	_uminus_flag:DWORD
COMM	_F_BOUNDARY_ATTR:DWORD
COMM	_console_title:BYTE:03e8H
COMM	_h0_attr:DWORD
COMM	_slice_coeff_global:DWORD
COMM	_colormap:DWORD
COMM	_dy_global_hash_max:DWORD
COMM	_clip_coeff_global:DWORD
COMM	_loadfilename:BYTE:03e8H
COMM	_bezier2revert:DWORD:014H
COMM	_bezier_flag:DWORD
COMM	_thread_task:DWORD
COMM	_new_vertex_id:DWORD
COMM	_circular_arc_flag:DWORD
COMM	_b_partition_proc_attr:DWORD
COMM	_boundary_expr_flag:DWORD
COMM	_f_partition_stage_attr:DWORD
COMM	_yylex_elapsed_time:QWORD
COMM	_det_array:DWORD
COMM	_vol_deficit:DWORD
COMM	_autopop_flag:DWORD
COMM	_verbose_flag:DWORD
COMM	_transform_colors_flag:DWORD
COMM	_eval_stack_trace_spot:DWORD
COMM	_ridge_color_flag:DWORD
COMM	_read_depth:DWORD
COMM	_macros:DWORD
COMM	_check_count:DWORD
COMM	_break_on_warning:DWORD
COMM	_graphics_title3_global:DWORD
COMM	_facet_general_flag:DWORD
COMM	_facet_rgb_backcolor_attr:DWORD
COMM	_parse_errors:DWORD
COMM	_include_depth:DWORD
COMM	_cmdbuf:DWORD:010H
COMM	_set_query_type:DWORD
COMM	_pickenum:DWORD
COMM	_single_step_debugging:DWORD
COMM	_metric_partial:DWORD
COMM	_smooth_graph_flag:DWORD
COMM	_vgradtop:DWORD
COMM	_pickbnum:DWORD
COMM	_conical_x:DWORD
COMM	_marked_edge_attr:DWORD
COMM	_hessian_slant_cutoff:QWORD
COMM	_ps_tripleedgewidth:QWORD
COMM	_homothety_target:QWORD
COMM	_transform_parity:DWORD
COMM	_warning_messages_new:DWORD
COMM	_runge_kutta_flag:DWORD
COMM	_clip_coeff:QWORD:050H
COMM	_real_val:QWORD
COMM	_sq_mean_curv_quantity_num:DWORD
COMM	_conf_edge_curv_flag:DWORD
COMM	_hessian_normal_perp_flag:DWORD
COMM	_hess_flag:DWORD
COMM	_view_transforms_global:DWORD
COMM	_set_query_attr:QWORD
COMM	_slice_coeff_set_flag:DWORD
COMM	_optparamcount:DWORD
COMM	_global_id:DWORD
COMM	_bbox_minx:QWORD
COMM	_mean_curv_int_flag:DWORD
COMM	_ptop:DWORD:090H
COMM	_area_fixed_flag:DWORD
COMM	_vhead_attr:DWORD
COMM	_vpicklist:DWORD
COMM	_proc_ids:DWORD:090H
COMM	_logfile_flag:DWORD
COMM	_echo_flag:DWORD
COMM	_history_space:DWORD
COMM	_root8machine_eps:QWORD
COMM	_machine_eps:QWORD
COMM	_bbox_miny:QWORD
COMM	_history_offsets:DWORD:064H
COMM	_torus_period_expr:BYTE:0ea0H
COMM	_vgradlastused:DWORD
COMM	_set_extra_name:BYTE:03e8H
COMM	_triple_edgeshow_flag:DWORD
COMM	_reset_timestamp:DWORD
COMM	_Extras:DWORD:05H
COMM	_eigen_neg:DWORD
COMM	_gv_pipe:DWORD:02H
COMM	_mpi_debug:DWORD
COMM	_old_perm_global_count:DWORD
COMM	_topflag:DWORD
COMM	_m_rhs:DWORD
COMM	_init_flag:DWORD
COMM	_facet_alpha_flag:DWORD
COMM	_bbox_maxy:QWORD
COMM	_hessian_mul_elapsed_time:QWORD
COMM	_main_thread_id:DWORD
COMM	_mpi_local_bodies_flag:DWORD
COMM	_sqgauss_flag:DWORD
COMM	_erroutfd:DWORD
COMM	_calc_quant_hess_elapsed_time:QWORD
COMM	_quiet_load_flag:DWORD
COMM	_torus_display_mode:DWORD
COMM	_hessian_AIJ_setup_elapsed_time:QWORD
COMM	_warning_messages:DWORD
COMM	_cond_expr_flag:DWORD
COMM	_lists_flag:DWORD
COMM	_view_transforms_unique_point_global:DWORD
COMM	_mindeg_debug_level:DWORD
COMM	_parse_error_flag:DWORD
COMM	_warnings_suppressed_count:DWORD
COMM	_query_realval:QWORD
COMM	_in_function:DWORD
COMM	_graphics_affinity_mask:DWORD
COMM	_gpoly:DWORD
COMM	_opacity_attr:DWORD
COMM	_last_name:BYTE:032H
COMM	_kblex_elapsed_time:QWORD
COMM	_cg_gamma:QWORD
COMM	_phase_data:DWORD
COMM	_f_sums:DWORD
COMM	_elsym:DWORD
COMM	_single_redefine:BYTE:03400H
COMM	_star_normal_sq_mean_curvature_mi:DWORD
COMM	_graphics_title2_global:DWORD
COMM	_fe_partition_proc_attr:DWORD
COMM	_hessian_project_setup_elapsed_time:QWORD
COMM	_function_kludge_flag:DWORD
COMM	_rleftside:DWORD
COMM	_immediate_autopop_flag:DWORD
COMM	_slice_coeff:QWORD:08H
COMM	_clip_coeff_set_flag:DWORD
COMM	_fulltext:BYTE:07d5H
COMM	_default_thread_data:BYTE:07a0H
COMM	_edge_rgb_color_attr:DWORD
COMM	_mpflag:DWORD
COMM	_shadow_warn_flag:DWORD
COMM	_max_thread_stages:DWORD
COMM	_calc_quants_elapsed_time:QWORD
COMM	_ps_stringwidth:QWORD
COMM	_hessian_subshell_flag:DWORD
COMM	_fillcolor:DWORD
COMM	_view_transform_gens_expr:DWORD
COMM	_pop_disjoin_flag:DWORD
COMM	_no_wall_flag:DWORD
COMM	_maxgaussorder:DWORD:06H
COMM	_unit_normal_flag:DWORD
COMM	_show_all_quantities:DWORD
COMM	_proc_int_ret:DWORD:090H
COMM	_vgradmax:DWORD
COMM	_gauss1Dpt:DWORD
COMM	_div_normal_curvature_flag:DWORD
COMM	_gauss2D_num:DWORD
COMM	_aggrtype:DWORD
COMM	_sym_form_pullback:DWORD
COMM	_dont_resize_flag:DWORD
COMM	_mpi_show_corona_flag:DWORD
COMM	_graph_timestamp:DWORD
COMM	_blas_flag:DWORD
COMM	_set_by_user_gauss_1D:DWORD
COMM	_eigenvalues_list_global:DWORD
COMM	_transforms_flag:DWORD
COMM	_fixed_volume_timestamp:DWORD
COMM	_star_eff_area_sq_mean_curvature_mi:DWORD
COMM	_recovery_flag:DWORD
COMM	_gauss1Dwt:DWORD
COMM	_V_BOUNDARY_ATTR:DWORD
COMM	_sqgauss_param:DWORD
COMM	_F_TAG_ATTR:DWORD
COMM	_visibility_test:DWORD
COMM	_read_command_flag:DWORD
COMM	_coord_num:DWORD
COMM	_length_method_name:BYTE:064H
COMM	_mindeg_min_region_size:DWORD
COMM	_quantity_function_sparse_flag:DWORD
COMM	_force_deletion:DWORD
COMM	_rhs_flag:DWORD
COMM	_F_PHASE_ATTR:DWORD
COMM	_self_similar_flag:DWORD
COMM	_jumpbuf:DWORD:0640H
COMM	_tok:DWORD
COMM	_el_list:DWORD:05H
COMM	_set_by_user_gauss_2D:DWORD
COMM	_in_comment:DWORD
COMM	_star_sq_mean_curvature_mi:DWORD
COMM	_dll_list:QWORD:05H
COMM	_parens:DWORD
COMM	_filename:BYTE:03e8H
COMM	_draw_thread_id:DWORD
COMM	_area_method_name:BYTE:064H
COMM	_pbase:DWORD:090H
COMM	_v_curve:DWORD
COMM	_aggregate_depth:DWORD
COMM	_graphics_title:BYTE:03e8H
COMM	_graphmutex:DWORD
COMM	_threadflag:DWORD
COMM	_cmdfile_stack:BYTE:027b0H
COMM	_movie_init:DWORD
COMM	_gauss1D_num:DWORD
COMM	_e_curve:DWORD
COMM	_bbox_maxx:QWORD
COMM	_volgrads_every_flag:DWORD
COMM	_yyparse_elapsed_time:QWORD
COMM	_calc_quant_flag:DWORD
COMM	_thread_data_ptrs:DWORD
COMM	_m_rhs_mode:DWORD
COMM	_datafile_flag:DWORD
COMM	_console_title_global:DWORD
COMM	_quiet_go_flag:DWORD
COMM	_pickfnum:DWORD
COMM	_autopop_count:DWORD
COMM	_gv_vect_start:DWORD
COMM	_klein_metric_flag:DWORD
COMM	_e_partition_proc_attr:DWORD
COMM	_cmdfilename:DWORD
COMM	_little_endian_flag:DWORD
COMM	_septum_flag:DWORD
COMM	_facetback_alpha_flag:DWORD
COMM	_curdir:DWORD
COMM	_ctrl_num:DWORD
COMM	_in_quote:DWORD
COMM	_cmapname:BYTE:03e8H
COMM	_vgradbase:DWORD
COMM	_mobility_tensor:BYTE:0ea0H
COMM	_m_jumpbuf:DWORD:0900H
COMM	_view:DWORD
COMM	_comp_quant_stamp:DWORD
COMM	_break_after_warning:DWORD
COMM	_identmat:DWORD
COMM	_errmsg:BYTE:07d0H
COMM	_inverse_periods_global:DWORD
COMM	_optparam:BYTE:015e0H
COMM	_addload_flag:DWORD
COMM	_torus_periods_global:DWORD
COMM	_default_thread_data_ptr:DWORD
COMM	_force_edgeswap_flag:DWORD
COMM	_levolvertemp:DWORD
COMM	_m_type:DWORD
COMM	_autopop_quartic_flag:DWORD
COMM	_e_partition_stage_attr:DWORD
COMM	_area_fixed_pressure:QWORD
COMM	_fe_partition_stage_attr:DWORD
COMM	_bezier_refine_2d:DWORD:014H
COMM	_elnames:BYTE:012cH
COMM	_keylogfile_flag:DWORD
COMM	_view_matrix_global:DWORD
COMM	_new_body_id:DWORD
COMM	_facet_rgb_color_attr:DWORD
COMM	_volume_method_name:BYTE:064H
COMM	_pop_to_edge_flag:DWORD
COMM	_vertex_normals:DWORD
COMM	_gap_quantity_num:DWORD
COMM	_show_expr:DWORD:05H
COMM	_history_count:DWORD
COMM	_detorus_sticky:DWORD
COMM	_keep_macros_flag:DWORD
COMM	_needed_version:BYTE:01eH
COMM	_text_chunks:BYTE:0c80H
COMM	_macro_count:DWORD
COMM	_zener_drag_flag:DWORD
COMM	_normal_curvature_flag:DWORD
COMM	_glutgraph_thread_data:BYTE:07a0H
COMM	_autorecalc_flag:DWORD
COMM	_one_sided_lagrange_attr:DWORD
COMM	_kraynikpopedge_flag:DWORD
COMM	_graphjumpbuf:DWORD:010H
COMM	_graph_capabilities:DWORD
COMM	_int_val:DWORD
COMM	_window_aspect_ratio:QWORD
COMM	_msg:DWORD
COMM	_star_fraction:QWORD
COMM	_bezier1revert:DWORD:014H
COMM	_bhead_attr:DWORD
COMM	_view_transform_swap_colors_global:DWORD
COMM	_comp_quant_vi:DWORD
COMM	_sym_flags:DWORD
COMM	_slice_view_flag:DWORD
COMM	_history_number:DWORD
COMM	_savefd:DWORD
COMM	_kb_upper_array:BYTE:03e8H
COMM	_effective_area_flag:DWORD
COMM	_verb_flag:DWORD
COMM	_to_focus:DWORD
COMM	_mem_mutex:DWORD
COMM	_dy_global_hash_maxfill:DWORD
COMM	_v_partition_proc_attr:DWORD
COMM	_kb_lower_array:BYTE:03e8H
COMM	_b_partition_coord_attr:DWORD
COMM	_approx_curve_flag:DWORD
COMM	_bezier_refine_1d:DWORD:014H
COMM	_geomview_bug_flag:DWORD
COMM	_ps_labelsize:QWORD
COMM	_cur_quant:DWORD
COMM	_pop_enjoin_flag:DWORD
COMM	_spherical_arc_flag:DWORD
COMM	_leftside:DWORD
COMM	_string_curve_tolerance:QWORD
COMM	_quantities_only_flag:DWORD
COMM	_use_given_id:DWORD
COMM	_attr_kind:DWORD
COMM	_view_transform_gens:DWORD
COMM	_f_partition_proc_attr:DWORD
COMM	_new_facet_id:DWORD
COMM	_quiet_flag:DWORD
COMM	_datafile_input_flag:DWORD
COMM	_pressures:DWORD
COMM	_f_partition_coord_attr:DWORD
COMM	_e_partition_coord_attr:DWORD
COMM	_assume_oriented_flag:DWORD
COMM	_gpolypartial:DWORD
COMM	_memdebug:DWORD
COMM	_dirichlet_flag:DWORD
COMM	_v_partition_stage_attr:DWORD
COMM	_comp_quant_vj:DWORD
COMM	_table_size:DWORD
COMM	_rotate_lights_flag:DWORD
COMM	_mean_curvature_param:DWORD
COMM	_kraynikpopvertex_flag:DWORD
COMM	_outfd:DWORD
COMM	_locking_thread:DWORD
COMM	_web_timestamp:DWORD
COMM	_square_curvature_param:DWORD
COMM	_hessian_constraint_elapsed_time:QWORD
COMM	_eigen_pos:DWORD
COMM	_augmented_hessian_mode:DWORD
COMM	_in_control_structure:DWORD
COMM	_yysym:DWORD
COMM	_query_intval:DWORD
COMM	_datafile_view_flag:DWORD
COMM	_graphics_title2:BYTE:03e8H
COMM	_square_curvature_flag:DWORD
COMM	_hessian_CHinvC_elapsed_time:QWORD
COMM	_fixed_constraint_flag:DWORD
COMM	_gauss_lagrange:DWORD:06H
COMM	_autochop_count:DWORD
COMM	_bezier1invert:DWORD:014H
COMM	_show_expr_table:BYTE:0208H
COMM	_warnings_suppressed:DWORD:064H
COMM	_estimate_flag:DWORD
COMM	_sym_wrap:DWORD
COMM	_partition_timestamp:DWORD
COMM	_assigntype:DWORD
COMM	_need_fe_reorder_flag:DWORD
COMM	_eval_stack_trace:DWORD:066H
COMM	_hessian_special_normal_flag:DWORD
COMM	_hessian_linear_metric_flag:DWORD
COMM	_ackerman_flag:DWORD
COMM	_energy_init:DWORD
COMM	_brace_depth:DWORD
COMM	_phead:DWORD:05100H
COMM	_get_wulff:DWORD
COMM	_full_bounding_box_flag:DWORD
COMM	_view_transform_generators_global:DWORD
COMM	_subshell_depth:DWORD
COMM	_cg_oldsum:QWORD
COMM	_data_fd:DWORD
COMM	_view_transforms_unique_point:DWORD
COMM	_replace_load_flag:DWORD
COMM	_breakflag:DWORD
COMM	_view_transforms:DWORD
COMM	_perm_flag:DWORD
COMM	_areaname:DWORD
COMM	_transform_expr:BYTE:064H
COMM	_thread_stages:DWORD
COMM	_from_focus:DWORD
COMM	_B_PHASE_ATTR:DWORD
COMM	_old_global_count:DWORD
COMM	_m_breakflag:DWORD:090H
COMM	_celement:DWORD
COMM	_clip_view_flag:DWORD
COMM	_mobility_formula:BYTE:068H
COMM	_eigen_zero:DWORD
COMM	_total_time:QWORD
COMM	_sqcurve_ignore_constr:DWORD
COMM	_conj_grad_flag:DWORD
COMM	_top_timestamp:DWORD
COMM	_check_increase_flag:DWORD
COMM	_transform_gen_count:DWORD
COMM	_hashtable:DWORD
COMM	_m_hess_mode:DWORD
COMM	_comp_quant_type:DWORD
COMM	_gravity_quantity_num:DWORD
COMM	_thread_launch_start:QWORD
COMM	_graphics_title3:BYTE:03e8H
COMM	_bare_edge_count:DWORD
COMM	_exparse_elapsed_time:QWORD
COMM	_last_hessian_scale:QWORD
COMM	_former_torus_display_mode:DWORD
COMM	_star_finagling:DWORD
COMM	_wulff_vector:QWORD:0258H
COMM	_m_mode:DWORD
COMM	_mat_index:DWORD
COMM	_fulltextsize:DWORD
COMM	_keylogfilename:BYTE:03e8H
COMM	_parallel_update_flag:DWORD:05H
COMM	_transforms_mutex:DWORD
COMM	_fe_partition_coord_attr:DWORD
COMM	_const_expr_flag:DWORD
COMM	_need_bounding_box:DWORD
COMM	_comp_quant_vertexi:DWORD
COMM	_mat_null:DWORD
COMM	_interp_bdry_param:DWORD
COMM	_current_prompt:DWORD
COMM	_query_coord:DWORD
COMM	_info_volume_timestamp:DWORD
COMM	_itdebug:DWORD
COMM	_msgmax:DWORD
COMM	_area_fixed_target:QWORD
COMM	_bounding_box:QWORD:0cH
COMM	_phase_file_name:BYTE:03e8H
COMM	_v_partition_coord_attr:DWORD
COMM	_raw_velocity_attr:DWORD
COMM	_ps_gridedgewidth:QWORD
COMM	_condition_flag:DWORD
COMM	_boundary_curvature_flag:DWORD
COMM	_ribiere_flag:DWORD
COMM	_pmax:DWORD:090H
COMM	_fpicklist:DWORD
COMM	_rightside:DWORD
COMM	_file_no_max:DWORD
COMM	_logfilefd:DWORD
COMM	_hessian_special_normal_expr:BYTE:0270H
COMM	_subsimplex:DWORD:0180H
COMM	_K_altitude_flag:DWORD
COMM	_b_partition_stage_attr:DWORD
COMM	_exit_after_error:DWORD
COMM	_keylogfilefd:DWORD
COMM	_E_BOUNDARY_ATTR:DWORD
COMM	_metric_convert_flag:DWORD
COMM	_Globals:DWORD
COMM	_backquote_flag:DWORD
COMM	_gauss1poly:DWORD
COMM	_everything_quantities_flag:DWORD
COMM	_phasemax:DWORD
COMM	_one_sided_present:DWORD
COMM	_dy_global_hash_used:DWORD
COMM	_make_pos_def_flag:DWORD
COMM	_mobility_tensor_flag:DWORD
COMM	_last_eigenvalue:QWORD
COMM	_global_timestamp:DWORD
COMM	_junk:DWORD
COMM	_pickvnum:DWORD
COMM	_reading_comp_quant_flag:DWORD
COMM	_optparam_congrads:DWORD
COMM	_dymemsize:DWORD
COMM	_busythreads:DWORD
COMM	_file_no_used:DWORD
COMM	_comp_quant_vertex:DWORD
COMM	_geomview_flag:DWORD
COMM	_cpu_speed:QWORD
COMM	_perm_Globals:DWORD
COMM	_hessian_normal_one_flag:DWORD
COMM	_pop_to_face_flag:DWORD
COMM	_estimated_change:QWORD
COMM	_big_endian_flag:DWORD
COMM	_labelflag:DWORD
COMM	_element_setup_elapsed_time:QWORD
COMM	_thread_launch_end:QWORD
COMM	_attr_etype:DWORD
COMM	_normal_motion_flag:DWORD
COMM	_show_command:BYTE:0208H
COMM	_some_no_transforms_flag:DWORD
COMM	_display_text_count:DWORD
COMM	_length_method_number:DWORD
COMM	_logfilename:BYTE:03e8H
COMM	_autochop_flag:DWORD
COMM	_cmdptr:DWORD
COMM	_geompipe_flag:DWORD
COMM	_extra_bdry_param_attr:DWORD
COMM	_sym_inverse:DWORD
COMM	_metric:DWORD
COMM	_null_constraint:BYTE:0b0H
COMM	_iterate_flag:DWORD
COMM	_saved:BYTE:0348H
COMM	_bezier2invert:DWORD:014H
COMM	_broken_pipe_flag:DWORD
COMM	_kusner_flag:DWORD
COMM	_conical_w:DWORD
COMM	_overall_size:QWORD
COMM	_mobility_flag:DWORD
COMM	_autochop_length:QWORD
COMM	_negdiag:DWORD
COMM	_new_edge_id:DWORD
COMM	_proc_total_area:QWORD:090H
COMM	_target_length:QWORD
COMM	_star_perp_sq_mean_curvature_mi:DWORD
COMM	_last_error:DWORD
COMM	_extrap_val:QWORD:01eH
COMM	_subtype:DWORD
COMM	_hessian_double_normal_flag:DWORD
COMM	_compound_hess_flag:DWORD
COMM	_sobolev_flag:DWORD
COMM	_extra_bdry_attr:DWORD
COMM	_transform_depth:DWORD
COMM	_sym_compose:DWORD
COMM	_ps_conedgewidth:QWORD
COMM	_transform_gen_swap:DWORD
COMM	_proc_real_ret:QWORD:090H
COMM	_file_no:DWORD
COMM	_default_area_quant_num:DWORD
COMM	_symmetry_name:DWORD
COMM	_gauss1polyd:DWORD
COMM	_idname:BYTE:023H
COMM	_mpi_subtask_command_flag:DWORD
COMM	_read_wrap_flag:DWORD
COMM	_phase_flag:DWORD
COMM	_exit_after_warning:DWORD
COMM	_lazy_transforms_flag:DWORD
COMM	_loadjumpbuf:DWORD:010H
COMM	_warning_messages_max:DWORD
COMM	_hessian_factor_elapsed_time:QWORD
COMM	_exit_flag:DWORD
COMM	_rgb_colors_flag:DWORD
COMM	_hessian_solve_elapsed_time:QWORD
COMM	_change_flag:DWORD
COMM	_ps_bareedgewidth:QWORD
COMM	_hessian_iterate_flag:DWORD
COMM	_vol_restore:DWORD
COMM	_view_transform_det:DWORD
COMM	_post_project_flag:DWORD
COMM	_pos_def_warning_flag:DWORD
COMM	_proc_timestamp:DWORD
COMM	_pressure_set_flag:DWORD
COMM	_old_area_flag:DWORD
COMM	_sqtor_marked_edge_attr:DWORD
COMM	_Met:BYTE:0e8H
COMM	_transform_colors:DWORD
COMM	_ps_fixededgewidth:QWORD
COMM	_torus_display_period_expr:BYTE:0ea0H
COMM	_transform_count:DWORD
COMM	_view_transforms_unique_point_flag:DWORD
COMM	_dymem:DWORD
COMM	_mean_curv_int_quantity_num:DWORD
COMM	_hessian_by_diff_flag:DWORD
COMM	_calc_quant_grads_elapsed_time:QWORD
COMM	_edge_alpha_flag:DWORD
COMM	_datafilename:BYTE:03e8H
COMM	_datafile_stack:BYTE:027b0H
COMM	_macro_subs:DWORD
COMM	_check_pinning_flag:DWORD
COMM	_comp_quant_vertexj:DWORD
COMM	_suppress_erroutstring:DWORD
COMM	_graphics_title_global:DWORD
COMM	_file_names:DWORD
_DATA	ENDS
_BSS	SEGMENT
_match_id_flag DD 01H DUP (?)
_option_q DD	01H DUP (?)
_markedgedrawflag DD 01H DUP (?)
_web_checksum DD 01H DUP (?)
_dymem_checksum DD 01H DUP (?)
_go_display_flag DD 01H DUP (?)
_backcull_flag DD 01H DUP (?)
_setting_backcull DD 01H DUP (?)
_gv_binary_flag DD 01H DUP (?)
_logfd	DD	01H DUP (?)
_commandfd DD	01H DUP (?)
_l_infd	DD	01H DUP (?)
_l_outfd DD	01H DUP (?)
_l_brfd	DD	01H DUP (?)
_l_evolver_mode DD 01H DUP (?)
_l_redirect DD	01H DUP (?)
_l_evolver_break DD 01H DUP (?)
_GraphicsWindowTitleText DD 01H DUP (?)
_GraphicsWindowTitleTextBuffer DB 0200H DUP (?)
_cProgramBreakDelay DD 01H DUP (?)
_ScreenSizeIndex DD 01H DUP (?)
_png_prefix DB	0100H DUP (?)
_png_name DB	0400H DUP (?)
_png_full_name DB 0400H DUP (?)
_png_dir DB	0400H DUP (?)
_min_square_grad_flag DD 01H DUP (?)
_ysmp_flag DD	01H DUP (?)
_sparse_constraints_flag DD 01H DUP (?)
_BK_flag DD	01H DUP (?)
_sp_ordering_func DD 01H DUP (?)
_cg_hvector DD	01H DUP (?)
_normflag DD	01H DUP (?)
_thickenflag DD	01H DUP (?)
_innerflag DD	01H DUP (?)
_outerflag DD	01H DUP (?)
_colorflag DD	01H DUP (?)
_OOGL_flag DD	01H DUP (?)
_thickness DQ	01H DUP (?)
_user_thickness_flag DD 01H DUP (?)
_view_4D_flag DD 01H DUP (?)
_box_flag DD	01H DUP (?)
_inner_clip_flag DD 01H DUP (?)
_inner_clip_rad DQ 01H DUP (?)
_no_refine DD	01H DUP (?)
_reflevel DD	01H DUP (?)
_BSS	ENDS
;	COMDAT ??_C@_04CIJGIAGF@q_id?$AA@
CONST	SEGMENT
??_C@_04CIJGIAGF@q_id?$AA@ DB 'q_id', 00H		; `string'
CONST	ENDS
;	COMDAT ??_C@_09CMEJCHLK@facetedge?$AA@
CONST	SEGMENT
??_C@_09CMEJCHLK@facetedge?$AA@ DB 'facetedge', 00H	; `string'
CONST	ENDS
;	COMDAT ??_C@_04IEJGKNJ@body?$AA@
CONST	SEGMENT
??_C@_04IEJGKNJ@body?$AA@ DB 'body', 00H		; `string'
CONST	ENDS
;	COMDAT ??_C@_05BIBOABDC@facet?$AA@
CONST	SEGMENT
??_C@_05BIBOABDC@facet?$AA@ DB 'facet', 00H		; `string'
CONST	ENDS
;	COMDAT ??_C@_04IJFJNCMM@edge?$AA@
CONST	SEGMENT
??_C@_04IJFJNCMM@edge?$AA@ DB 'edge', 00H		; `string'
CONST	ENDS
;	COMDAT ??_C@_06HLKHCFCI@vertex?$AA@
CONST	SEGMENT
??_C@_06HLKHCFCI@vertex?$AA@ DB 'vertex', 00H		; `string'
CONST	ENDS
;	COMDAT ??_C@_0CP@GOLIPAFL@Version?52?470a?0?5August?527?0?52013?$DL?5@
CONST	SEGMENT
??_C@_0CP@GOLIPAFL@Version?52?470a?0?5August?527?0?52013?$DL?5@ DB 'Versi'
	DB	'on 2.70a, August 27, 2013; Windows OpenGL', 00H ; `string'
CONST	ENDS
_DATA	SEGMENT
_evolver_version DD FLAT:??_C@_05EMAPBGPB@2?470a?$AA@
_VERSION DD	FLAT:??_C@_0CP@GOLIPAFL@Version?52?470a?0?5August?527?0?52013?$DL?5@
_typenames DD	FLAT:??_C@_06HLKHCFCI@vertex?$AA@
	DD	FLAT:??_C@_04IJFJNCMM@edge?$AA@
	DD	FLAT:??_C@_05BIBOABDC@facet?$AA@
	DD	FLAT:??_C@_04IEJGKNJ@body?$AA@
	DD	FLAT:??_C@_09CMEJCHLK@facetedge?$AA@
_this_task DD	01H
_factorial DQ	03ff0000000000000r		; 1
	DQ	03ff0000000000000r		; 1
	DQ	04000000000000000r		; 2
	DQ	04018000000000000r		; 6
	DQ	04038000000000000r		; 24
	DQ	0405e000000000000r		; 120
	DQ	04086800000000000r		; 720
	DQ	040b3b00000000000r		; 5040
	DQ	040e3b00000000000r		; 40320
	DQ	04116260000000000r		; 362880
	DQ	0414baf8000000000r		; 3.6288e+006
	DQ	0418308a800000000r		; 3.99168e+007
	DQ	041bc8cfc00000000r		; 4.79002e+008
	DQ	041f7328cc0000000r		; 6.22702e+009
	DQ	042344c3b28000000r		; 8.71783e+010
	DQ	04273077775800000r		; 1.30767e+012
	DQ	042b3077775800000r		; 2.09228e+013
	DQ	042f437eeecd80000r		; 3.55687e+014
	DQ	04336beecca730000r		; 6.40237e+015
	DQ	0437b02b930689000r		; 1.21645e+017
_mpi_initialization_flag DD 01H
_DWIDTH	DD	012H
_DPREC	DD	0fH
_auto_convert_flag DD 01H
_random_seed DD	01H
_default_random_seed DD 01H
_brightness DQ	03fe4cccccccccccdr		; 0.65
_HOMDIM	DD	04H
_nprocs	DD	01H
_procs_requested DD 01H
_gocount DD	01H
_shading_flag DD 01H
_color_flag DD	01H
_background_color DD 0ffffffffH
_ProgramBreakDelay DD 01H
_y_pixel_down_cmd_line DD 0ffffffffH
_y_pixel_height_cmd_line DD 0ffffffffH
_x_pixel_width_cmd_line DD 0ffffffffH
_hessian_quiet_flag DD 01H
_hessian_normal_flag DD 01H
_hess_move_con_flag DD 01H
_linear_metric_mix DQ 03fe0000000000000r	; 0.5
_quadratic_metric_mix DQ 03ff0000000000000r	; 1
_hash_per_row DD 05H
_sp_factor_func DD FLAT:_xmd_factor
_sp_solve_func DD FLAT:_xmd_solve
_sp_solve_multi_func DD FLAT:_xmd_solve_multi
_sp_CHinvC_func DD FLAT:_sp_CHinvC
_mindeg_margin DD 05H
_augmented_hessian_flag DD 0ffffffffH
_sp_mul_func DD	FLAT:_bk_mul
_BKalpha DQ	03fe0cccccccccccdr		; 0.525
_sp_AIJ_setup_func DD FLAT:_bk_AIJ_setup
_sp_constraint_setup_func DD FLAT:_bk_constraint_setup
_sp_hess_project_setup_func DD FLAT:_BK_hess_project_setup
_default_name DD FLAT:??_C@_04CIJGIAGF@q_id?$AA@
_hessian_epsilon DQ 03ddb7cdfd9d7bdbbr		; 1e-010
_hessian_epsilon_default DQ 03ddb7cdfd9d7bdbbr	; 1e-010
_deturck_factor DQ 03ff0000000000000r		; 1
_normal_sq_mean_curvature_mi DD 0ffffffffH
_eff_area_sq_mean_curvature_mi DD 0ffffffffH
_sq_mean_curvature_mi DD 0ffffffffH
_mix_sq_mean_curvature_mi DD 0ffffffffH
_scrollbuffersize DD 019H
_vedge_timestamp DD 0ffffffffH
_vfacet_timestamp DD 0ffffffffH
_bfacet_timestamp DD 0ffffffffH
_bdry_showflag DD 01H
_edgeshow_flag DD 01H
_pswidths DQ	03f747ae147ae147br		; 0.005
	DQ	03f70624dd2f1a9fcr		; 0.004
	DQ	03f70624dd2f1a9fcr		; 0.004
	DQ	03f70624dd2f1a9fcr		; 0.004
	DQ	03f70624dd2f1a9fcr		; 0.004
	DQ	03f689374bc6a7efar		; 0.003
	DQ	03f60624dd2f1a9fcr		; 0.002
_xwidths DQ	03f50624dd2f1a9fcr		; 0.001
	DQ	03f50624dd2f1a9fcr		; 0.001
	DQ	03f50624dd2f1a9fcr		; 0.001
	DQ	03f50624dd2f1a9fcr		; 0.001
	DQ	03f50624dd2f1a9fcr		; 0.001
	DQ	03f50624dd2f1a9fcr		; 0.001
	DQ	03f50624dd2f1a9fcr		; 0.001
_otherwidths DQ	03f747ae147ae147br		; 0.005
	DQ	03f747ae147ae147br		; 0.005
	DQ	03f747ae147ae147br		; 0.005
	DQ	03f747ae147ae147br		; 0.005
	DQ	03f747ae147ae147br		; 0.005
	DQ	03f747ae147ae147br		; 0.005
	DQ	03f747ae147ae147br		; 0.005
_edgewidths DD	FLAT:_otherwidths
_bounding_box_color DD 01H
_facet_alpha DQ	03ff0000000000000r		; 1
_rgb_colors DQ	00000000000000000r		; 0
	DQ	00000000000000000r		; 0
	DQ	00000000000000000r		; 0
	DQ	03ff0000000000000r		; 1
	DQ	00000000000000000r		; 0
	DQ	00000000000000000r		; 0
	DQ	03ff0000000000000r		; 1
	DQ	03ff0000000000000r		; 1
	DQ	00000000000000000r		; 0
	DQ	03ff0000000000000r		; 1
	DQ	00000000000000000r		; 0
	DQ	03ff0000000000000r		; 1
	DQ	00000000000000000r		; 0
	DQ	03ff0000000000000r		; 1
	DQ	03ff0000000000000r		; 1
	DQ	03ff0000000000000r		; 1
	DQ	03ff0000000000000r		; 1
	DQ	00000000000000000r		; 0
	DQ	00000000000000000r		; 0
	DQ	03ff0000000000000r		; 1
	DQ	03ff0000000000000r		; 1
	DQ	00000000000000000r		; 0
	DQ	03ff0000000000000r		; 1
	DQ	03ff0000000000000r		; 1
	DQ	03ff0000000000000r		; 1
	DQ	03fe0000000000000r		; 0.5
	DQ	00000000000000000r		; 0
	DQ	03ff0000000000000r		; 1
	DQ	03fe3333333333333r		; 0.6
	DQ	03fe3333333333333r		; 0.6
	DQ	03fe3333333333333r		; 0.6
	DQ	03ff0000000000000r		; 1
	DQ	03fd3333333333333r		; 0.3
	DQ	03fd3333333333333r		; 0.3
	DQ	03fd3333333333333r		; 0.3
	DQ	03ff0000000000000r		; 1
	DQ	03fd3333333333333r		; 0.3
	DQ	03fe999999999999ar		; 0.8
	DQ	03ff0000000000000r		; 1
	DQ	03ff0000000000000r		; 1
	DQ	03fe0000000000000r		; 0.5
	DQ	03ff0000000000000r		; 1
	DQ	03fe0000000000000r		; 0.5
	DQ	03ff0000000000000r		; 1
	DQ	03fe0000000000000r		; 0.5
	DQ	03ff0000000000000r		; 1
	DQ	03ff0000000000000r		; 1
	DQ	03ff0000000000000r		; 1
	DQ	03ff0000000000000r		; 1
	DQ	03fe0000000000000r		; 0.5
	DQ	03fe0000000000000r		; 0.5
	DQ	03ff0000000000000r		; 1
	DQ	03ff0000000000000r		; 1
	DQ	03fe0000000000000r		; 0.5
	DQ	03ff0000000000000r		; 1
	DQ	03ff0000000000000r		; 1
	DQ	03ff0000000000000r		; 1
	DQ	03ff0000000000000r		; 1
	DQ	00000000000000000r		; 0
	DQ	03ff0000000000000r		; 1
	DQ	03ff0000000000000r		; 1
	DQ	03ff0000000000000r		; 1
	DQ	03ff0000000000000r		; 1
	DQ	03ff0000000000000r		; 1
_cmyk_colors DQ	00000000000000000r		; 0
	DQ	00000000000000000r		; 0
	DQ	00000000000000000r		; 0
	DQ	03ff0000000000000r		; 1
	DQ	03ff0000000000000r		; 1
	DQ	03ff0000000000000r		; 1
	DQ	00000000000000000r		; 0
	DQ	00000000000000000r		; 0
	DQ	03ff0000000000000r		; 1
	DQ	00000000000000000r		; 0
	DQ	03ff0000000000000r		; 1
	ORG $+8
	DQ	03ff0000000000000r		; 1
	DQ	00000000000000000r		; 0
	DQ	00000000000000000r		; 0
	DQ	00000000000000000r		; 0
	DQ	00000000000000000r		; 0
	DQ	03ff0000000000000r		; 1
	DQ	03ff0000000000000r		; 1
	DQ	00000000000000000r		; 0
	DQ	00000000000000000r		; 0
	DQ	03ff0000000000000r		; 1
	DQ	00000000000000000r		; 0
	DQ	00000000000000000r		; 0
	DQ	00000000000000000r		; 0
	DQ	03fe0000000000000r		; 0.5
	DQ	03ff0000000000000r		; 1
	DQ	00000000000000000r		; 0
	DQ	00000000000000000r		; 0
	DQ	00000000000000000r		; 0
	DQ	00000000000000000r		; 0
	DQ	03fd999999999999ar		; 0.4
	DQ	00000000000000000r		; 0
	DQ	00000000000000000r		; 0
	DQ	00000000000000000r		; 0
	DQ	03fe6666666666666r		; 0.7
	DQ	03fe6666666666666r		; 0.7
	DQ	03fc999999999999ar		; 0.2
	DQ	00000000000000000r		; 0
	DQ	00000000000000000r		; 0
	DQ	03fe0000000000000r		; 0.5
	DQ	00000000000000000r		; 0
	DQ	03fe0000000000000r		; 0.5
	ORG $+8
	DQ	03fe0000000000000r		; 0.5
	DQ	00000000000000000r		; 0
	DQ	00000000000000000r		; 0
	DQ	00000000000000000r		; 0
	DQ	00000000000000000r		; 0
	DQ	03fe0000000000000r		; 0.5
	DQ	03fe0000000000000r		; 0.5
	DQ	00000000000000000r		; 0
	DQ	00000000000000000r		; 0
	DQ	03fe0000000000000r		; 0.5
	DQ	00000000000000000r		; 0
	DQ	00000000000000000r		; 0
	DQ	00000000000000000r		; 0
	DQ	00000000000000000r		; 0
	DQ	03ff0000000000000r		; 1
	DQ	00000000000000000r		; 0
	DQ	00000000000000000r		; 0
	DQ	00000000000000000r		; 0
	DQ	00000000000000000r		; 0
	DQ	00000000000000000r		; 0
_minclipx DQ	0bff8000000000000r		; -1.5
_maxclipx DQ	03ff8000000000000r		; 1.5
_minclipy DQ	0bff8000000000000r		; -1.5
_maxclipy DQ	03ff8000000000000r		; 1.5
_zoom_number DD	01H
_graph_start DD	FLAT:_null_function
_volume_factorial DQ 03ff0000000000000r		; 1
_graph_edge DD	FLAT:_null_function
_graph_facet DD	FLAT:_null_function
_graph_end DD	FLAT:_null_function
_display_edge DD FLAT:_null_function
_display_facet DD FLAT:_null_function
_init_graphics DD FLAT:_null_function
_finish_graphics DD FLAT:_null_function
_close_graphics DD FLAT:_null_function
_steps	DD	01H
_calc_facet_energy DD FLAT:_facet_energy_l
_calc_facet_forces DD FLAT:_facet_force_l
_calc_facet_volume DD FLAT:_facet_volume_l
_calc_edge_energy DD FLAT:_edge_energy_l
_calc_edge_forces DD FLAT:_edge_force_l
_calc_edge_area DD FLAT:_edge_area_l
_string_grad DD	FLAT:_string_grad_l
_film_grad DD	FLAT:_film_grad_l
_edge_ctrl DD	02H
_gauss2Dpt1 DQ	03fd5555555555555r		; 0.333333
	DQ	03fd5555555555555r		; 0.333333
	DQ	03fd5555555555555r		; 0.333333
_gauss2Dwt1 DQ	03ff0000000000000r		; 1
_gauss2Dpt2 DQ	03fe5555555555555r		; 0.666667
	DQ	03fc5555555555555r		; 0.166667
	DQ	03fc5555555555555r		; 0.166667
	DQ	03fc5555555555555r		; 0.166667
	DQ	03fe5555555555555r		; 0.666667
	DQ	03fc5555555555555r		; 0.166667
	DQ	03fc5555555555555r		; 0.166667
	DQ	03fc5555555555555r		; 0.166667
	DQ	03fe5555555555555r		; 0.666667
_gauss2Dwt2 DQ	03fd5555555555555r		; 0.333333
	DQ	03fd5555555555555r		; 0.333333
	DQ	03fd5555555555555r		; 0.333333
_gauss2Dpt5 DQ	03fd5555555555555r		; 0.333333
	DQ	03fd5555555555555r		; 0.333333
	DQ	03fd5555555555555r		; 0.333333
	DQ	03fb9ede99c7af58fr		; 0.101287
	DQ	03fe9848598e1429br		; 0.797427
	DQ	03fb9ede99c7af58fr		; 0.101287
	DQ	03fb9ede99c7af58fr		; 0.101287
	DQ	03fb9ede99c7af58fr		; 0.101287
	DQ	03fe9848598e1429br		; 0.797427
	DQ	03fe9848598e1429br		; 0.797427
	DQ	03fb9ede99c7af58fr		; 0.101287
	DQ	03fb9ede99c7af58fr		; 0.101287
	DQ	03fde16cebd738bc0r		; 0.470142
	DQ	03fae931428c743f4r		; 0.0597159
	DQ	03fde16cebd738bc0r		; 0.470142
	DQ	03fae931428c743f4r		; 0.0597159
	DQ	03fde16cebd738bc0r		; 0.470142
	DQ	03fde16cebd738bc0r		; 0.470142
	DQ	03fde16cebd738bc0r		; 0.470142
	DQ	03fde16cebd738bc0r		; 0.470142
	DQ	03fae931428c743f4r		; 0.0597159
_gauss2Dwt5 DQ	03fcccccccccccccdr		; 0.225
	DQ	03fc01ec66adccf2ar		; 0.125939
	DQ	03fc01ec66adccf2ar		; 0.125939
	DQ	03fc01ec66adccf2ar		; 0.125939
	DQ	03fc0f24aa63441e7r		; 0.132394
	DQ	03fc0f24aa63441e7r		; 0.132394
	DQ	03fc0f24aa63441e7r		; 0.132394
_gauss2Dpt6 DQ	03fe00baf9b8a881br		; 0.501427
	DQ	03fcfe8a0c8eaefcar		; 0.249287
	DQ	03fcfe8a0c8eaefcar		; 0.249287
	DQ	03fcfe8a0c8eaefcar		; 0.249287
	DQ	03fcfe8a0c8eaefcar		; 0.249287
	DQ	03fe00baf9b8a881br		; 0.501427
	DQ	03fcfe8a0c8eaefcar		; 0.249287
	DQ	03fe00baf9b8a881br		; 0.501427
	DQ	03fcfe8a0c8eaefcar		; 0.249287
	DQ	03febf6597e816a94r		; 0.873822
	DQ	03fb0269a05fa55b3r		; 0.063089
	DQ	03fb0269a05fa55adr		; 0.063089
	DQ	03fb0269a05fa55b3r		; 0.063089
	DQ	03fb0269a05fa55adr		; 0.063089
	DQ	03febf6597e816a94r		; 0.873822
	DQ	03fb0269a05fa55adr		; 0.063089
	DQ	03febf6597e816a94r		; 0.873822
	DQ	03fb0269a05fa55b3r		; 0.063089
	DQ	03fe45e3a7d318e96r		; 0.636502
	DQ	03fab35d3f60e4192r		; 0.053145
	DQ	03fd3dcd086db1aa2r		; 0.310352
	DQ	03fab35d3f60e4192r		; 0.053145
	DQ	03fd3dcd086db1aa2r		; 0.310352
	DQ	03fe45e3a7d318e96r		; 0.636502
	DQ	03fd3dcd086db1aa2r		; 0.310352
	DQ	03fe45e3a7d318e96r		; 0.636502
	DQ	03fab35d3f60e4192r		; 0.053145
	DQ	03fe45e3a7d318e96r		; 0.636502
	DQ	03fd3dcd086db1aa2r		; 0.310352
	DQ	03fab35d3f60e4192r		; 0.053145
	DQ	03fab35d3f60e4192r		; 0.053145
	DQ	03fe45e3a7d318e96r		; 0.636502
	DQ	03fd3dcd086db1aa2r		; 0.310352
	DQ	03fd3dcd086db1aa2r		; 0.310352
	DQ	03fab35d3f60e4192r		; 0.053145
	DQ	03fe45e3a7d318e96r		; 0.636502
_gauss2Dwt6 DQ	03fbde5b492ddc403r		; 0.116786
	DQ	03fbde5b492ddc403r		; 0.116786
	DQ	03fbde5b492ddc403r		; 0.116786
	DQ	03faa0857f40e7223r		; 0.0508449
	DQ	03faa0857f40e7223r		; 0.0508449
	DQ	03faa0857f40e7223r		; 0.0508449
	DQ	03fb535ba64382bf2r		; 0.0828511
	DQ	03fb535ba64382bf2r		; 0.0828511
	DQ	03fb535ba64382bf2r		; 0.0828511
	DQ	03fb535ba64382bf2r		; 0.0828511
	DQ	03fb535ba64382bf2r		; 0.0828511
	DQ	03fb535ba64382bf2r		; 0.0828511
_gauss2Dpt8 DQ	03fd5555555555555r		; 0.333333
	DQ	03fd5555555555555r		; 0.333333
	DQ	03fd5555555555557r		; 0.333333
	DQ	03fb4d79a13f9a1cbr		; 0.0814148
	DQ	03fdd650cbd80cbc6r		; 0.459293
	DQ	03fdd650cbd80cbc8r		; 0.459293
	DQ	03fdd650cbd80cbc6r		; 0.459293
	DQ	03fdd650cbd80cbc8r		; 0.459293
	DQ	03fb4d79a13f9a1cbr		; 0.0814148
	DQ	03fdd650cbd80cbc8r		; 0.459293
	DQ	03fb4d79a13f9a1cbr		; 0.0814148
	DQ	03fdd650cbd80cbc6r		; 0.459293
	DQ	03fecc3d58ede64der		; 0.898906
	DQ	03fa9e153890cd90br		; 0.0505472
	DQ	03fa9e153890cd915r		; 0.0505472
	DQ	03fa9e153890cd90br		; 0.0505472
	DQ	03fa9e153890cd915r		; 0.0505472
	DQ	03fecc3d58ede64der		; 0.898906
	DQ	03fa9e153890cd915r		; 0.0505472
	DQ	03fecc3d58ede64der		; 0.898906
	DQ	03fa9e153890cd90br		; 0.0505472
	DQ	03fe5156478604f26r		; 0.658861
	DQ	03fc5d5370f3f61b2r		; 0.170569
	DQ	03fc5d5370f3f61b6r		; 0.170569
	DQ	03fc5d5370f3f61b2r		; 0.170569
	DQ	03fc5d5370f3f61b6r		; 0.170569
	DQ	03fe5156478604f26r		; 0.658861
	DQ	03fc5d5370f3f61b6r		; 0.170569
	DQ	03fe5156478604f26r		; 0.658861
	DQ	03fc5d5370f3f61b2r		; 0.170569
	DQ	03f813147f376b6c7r		; 0.00839478
	DQ	03fe74fcf47641a8er		; 0.728492
	DQ	03fd0d6d7319c152er		; 0.263113
	DQ	03fe74fcf47641a8er		; 0.728492
	DQ	03fd0d6d7319c152er		; 0.263113
	DQ	03f813147f376b6c7r		; 0.00839478
	DQ	03fd0d6d7319c152er		; 0.263113
	DQ	03f813147f376b6c7r		; 0.00839478
	DQ	03fe74fcf47641a8er		; 0.728492
	DQ	03f813147f376b6c7r		; 0.00839478
	DQ	03fd0d6d7319c152er		; 0.263113
	DQ	03fe74fcf47641a8er		; 0.728492
	DQ	03fe74fcf47641a8er		; 0.728492
	DQ	03f813147f376b6c7r		; 0.00839478
	DQ	03fd0d6d7319c152er		; 0.263113
	DQ	03fd0d6d7319c152er		; 0.263113
	DQ	03fe74fcf47641a8er		; 0.728492
	DQ	03f813147f376b6c7r		; 0.00839478
_gauss2Dwt8 DQ	03fc278ef0fa3a485r		; 0.144316
	DQ	03fb857ece34d1a41r		; 0.0950916
	DQ	03fb857ece34d1a41r		; 0.0950916
	DQ	03fb857ece34d1a41r		; 0.0950916
	DQ	03fa09e667389b128r		; 0.0324585
	DQ	03fa09e667389b128r		; 0.0324585
	DQ	03fa09e667389b128r		; 0.0324585
	DQ	03fba6c741ed36303r		; 0.103217
	DQ	03fba6c741ed36303r		; 0.103217
	DQ	03fba6c741ed36303r		; 0.103217
	DQ	03f9be243735b2399r		; 0.0272303
	DQ	03f9be243735b2399r		; 0.0272303
	DQ	03f9be243735b2399r		; 0.0272303
	DQ	03f9be243735b2399r		; 0.0272303
	DQ	03f9be243735b2399r		; 0.0272303
	DQ	03f9be243735b2399r		; 0.0272303
_gauss2Dpt11 DQ	03fd5555555555555r		; 0.333333
	DQ	03fd5555555555555r		; 0.333333
	DQ	03fd5555555555557r		; 0.333333
	DQ	03fee5631a46a5c05r		; 0.948022
	DQ	03f9a9ce5b95a3fa8r		; 0.0259891
	DQ	03f9a9ce5b95a3fb8r		; 0.0259891
	DQ	03f9a9ce5b95a3fa8r		; 0.0259891
	DQ	03f9a9ce5b95a3fb8r		; 0.0259891
	DQ	03fee5631a46a5c05r		; 0.948022
	DQ	03f9a9ce5b95a3fb8r		; 0.0259891
	DQ	03fee5631a46a5c05r		; 0.948022
	DQ	03f9a9ce5b95a3fa8r		; 0.0259891
	DQ	03fe9f7318ced2983r		; 0.811425
	DQ	03fb82339cc4b59f5r		; 0.0942875
	DQ	03fb82339cc4b59f3r		; 0.0942875
	DQ	03fb82339cc4b59f5r		; 0.0942875
	DQ	03fb82339cc4b59f3r		; 0.0942875
	DQ	03fe9f7318ced2983r		; 0.811425
	DQ	03fb82339cc4b59f3r		; 0.0942875
	DQ	03fe9f7318ced2983r		; 0.811425
	DQ	03fb82339cc4b59f5r		; 0.0942875
	DQ	03f85f7bfbe6f3803r		; 0.0107264
	DQ	03fdfa82101064320r		; 0.494637
	DQ	03fdfa82101064320r		; 0.494637
	DQ	03fdfa82101064320r		; 0.494637
	DQ	03fdfa82101064320r		; 0.494637
	DQ	03f85f7bfbe6f3803r		; 0.0107264
	DQ	03fdfa82101064320r		; 0.494637
	DQ	03f85f7bfbe6f3803r		; 0.0107264
	DQ	03fdfa82101064320r		; 0.494637
	DQ	03fe2bae2d2283bber		; 0.585313
	DQ	03fca8a3a5baf8883r		; 0.207343
	DQ	03fca8a3a5baf8885r		; 0.207343
	DQ	03fca8a3a5baf8883r		; 0.207343
	DQ	03fca8a3a5baf8885r		; 0.207343
	DQ	03fe2bae2d2283bber		; 0.585313
	DQ	03fca8a3a5baf8885r		; 0.207343
	DQ	03fe2bae2d2283bber		; 0.585313
	DQ	03fca8a3a5baf8883r		; 0.207343
	DQ	03fbf4779e11d5288r		; 0.122184
	DQ	03fdc1710c3dc55b0r		; 0.438908
	DQ	03fdc1710c3dc55aer		; 0.438908
	DQ	03fdc1710c3dc55b0r		; 0.438908
	DQ	03fdc1710c3dc55aer		; 0.438908
	DQ	03fbf4779e11d5288r		; 0.122184
	DQ	03fdc1710c3dc55aer		; 0.438908
	DQ	03fbf4779e11d5288r		; 0.122184
	DQ	03fdc1710c3dc55b0r		; 0.438908
	DQ	00000000000000000r		; 0
	DQ	03feb7bdd8733b015r		; 0.85887
	DQ	03fc21089e3313facr		; 0.14113
	DQ	03feb7bdd8733b015r		; 0.85887
	DQ	03fc21089e3313facr		; 0.14113
	DQ	00000000000000000r		; 0
	DQ	03fc21089e3313facr		; 0.14113
	DQ	00000000000000000r		; 0
	DQ	03feb7bdd8733b015r		; 0.85887
	DQ	00000000000000000r		; 0
	DQ	03fc21089e3313facr		; 0.14113
	DQ	03feb7bdd8733b015r		; 0.85887
	DQ	03feb7bdd8733b015r		; 0.85887
	DQ	00000000000000000r		; 0
	DQ	03fc21089e3313facr		; 0.14113
	DQ	03fc21089e3313facr		; 0.14113
	DQ	03feb7bdd8733b015r		; 0.85887
	DQ	00000000000000000r		; 0
	DQ	03fa6f57d057c7689r		; 0.0448417
	DQ	03fe5b1aa4f0e533ar		; 0.677938
	DQ	03fd1bdfbc133cabar		; 0.277221
	DQ	03fe5b1aa4f0e533ar		; 0.677938
	DQ	03fd1bdfbc133cabar		; 0.277221
	DQ	03fa6f57d057c7689r		; 0.0448417
	DQ	03fd1bdfbc133cabar		; 0.277221
	DQ	03fa6f57d057c7689r		; 0.0448417
	DQ	03fe5b1aa4f0e533ar		; 0.677938
	DQ	03fa6f57d057c7689r		; 0.0448417
	DQ	03fd1bdfbc133cabar		; 0.277221
	DQ	03fe5b1aa4f0e533ar		; 0.677938
	DQ	03fe5b1aa4f0e533ar		; 0.677938
	DQ	03fa6f57d057c7689r		; 0.0448417
	DQ	03fd1bdfbc133cabar		; 0.277221
	DQ	03fd1bdfbc133cabar		; 0.277221
	DQ	03fe5b1aa4f0e533ar		; 0.677938
	DQ	03fa6f57d057c7689r		; 0.0448417
_gauss2Dwt11 DQ	03fb685ae2f4836c7r		; 0.0879773
	DQ	03f81e889a131d4ear		; 0.00874431
	DQ	03f81e889a131d4ear		; 0.00874431
	DQ	03f81e889a131d4ear		; 0.00874431
	DQ	03fa37f6d8496a43cr		; 0.0380816
	DQ	03fa37f6d8496a43cr		; 0.0380816
	DQ	03fa37f6d8496a43cr		; 0.0380816
	DQ	03f934ed7b302921dr		; 0.0188554
	DQ	03f934ed7b302921dr		; 0.0188554
	DQ	03f934ed7b302921dr		; 0.0188554
	DQ	03fb2790ed50b3df4r		; 0.0721597
	DQ	03fb2790ed50b3df4r		; 0.0721597
	DQ	03fb2790ed50b3df4r		; 0.0721597
	DQ	03fb1bf8def666eecr		; 0.0693291
	DQ	03fb1bf8def666eecr		; 0.0693291
	DQ	03fb1bf8def666eecr		; 0.0693291
	DQ	03f7e2804d91e370cr		; 0.00736238
	DQ	03f7e2804d91e370cr		; 0.00736238
	DQ	03f7e2804d91e370cr		; 0.00736238
	DQ	03f7e2804d91e370cr		; 0.00736238
	DQ	03f7e2804d91e370cr		; 0.00736238
	DQ	03f7e2804d91e370cr		; 0.00736238
	DQ	03fa50555582048b6r		; 0.0410563
	DQ	03fa50555582048b6r		; 0.0410563
	DQ	03fa50555582048b6r		; 0.0410563
	DQ	03fa50555582048b6r		; 0.0410563
	DQ	03fa50555582048b6r		; 0.0410563
	DQ	03fa50555582048b6r		; 0.0410563
_gauss2Dpt DD	FLAT:_gauss2Dpt5
_gauss2Dwt DD	FLAT:_gauss2Dwt5
_gauss2Dpt13 DQ	03fd5555555555555r		; 0.333333
	DQ	03fd5555555555555r		; 0.333333
	DQ	03fd5555555555557r		; 0.333333
	DQ	03fee68a881ce333ar		; 0.950276
	DQ	03f997577e31ccc64r		; 0.0248622
	DQ	03f997577e31ccc5cr		; 0.0248622
	DQ	03f997577e31ccc64r		; 0.0248622
	DQ	03f997577e31ccc5cr		; 0.0248622
	DQ	03fee68a881ce333ar		; 0.950276
	DQ	03f997577e31ccc5cr		; 0.0248622
	DQ	03fee68a881ce333ar		; 0.950276
	DQ	03f997577e31ccc64r		; 0.0248622
	DQ	03fc5f77a3f8d45e2r		; 0.171615
	DQ	03fda8221701cae88r		; 0.414193
	DQ	03fda8221701cae88r		; 0.414193
	DQ	03fda8221701cae88r		; 0.414193
	DQ	03fda8221701cae88r		; 0.414193
	DQ	03fc5f77a3f8d45e2r		; 0.171615
	DQ	03fda8221701cae88r		; 0.414193
	DQ	03fc5f77a3f8d45e2r		; 0.171615
	DQ	03fda8221701cae88r		; 0.414193
	DQ	03fe142dd7734f9fcr		; 0.539412
	DQ	03fcd7a4511960c08r		; 0.230294
	DQ	03fcd7a4511960c08r		; 0.230294
	DQ	03fcd7a4511960c08r		; 0.230294
	DQ	03fcd7a4511960c08r		; 0.230294
	DQ	03fe142dd7734f9fcr		; 0.539412
	DQ	03fcd7a4511960c08r		; 0.230294
	DQ	03fe142dd7734f9fcr		; 0.539412
	DQ	03fcd7a4511960c08r		; 0.230294
	DQ	03fe8b588f719b949r		; 0.77216
	DQ	03fbd29dc23991adbr		; 0.11392
	DQ	03fbd29dc23991addr		; 0.11392
	DQ	03fbd29dc23991adbr		; 0.11392
	DQ	03fbd29dc23991addr		; 0.11392
	DQ	03fe8b588f719b949r		; 0.77216
	DQ	03fbd29dc23991addr		; 0.11392
	DQ	03fe8b588f719b949r		; 0.77216
	DQ	03fbd29dc23991adbr		; 0.11392
	DQ	03f829b5dbd3eb736r		; 0.0090854
	DQ	03fdfb592890b0523r		; 0.495457
	DQ	03fdfb592890b0523r		; 0.495457
	DQ	03fdfb592890b0523r		; 0.495457
	DQ	03fdfb592890b0523r		; 0.495457
	DQ	03f829b5dbd3eb736r		; 0.0090854
	DQ	03fdfb592890b0523r		; 0.495457
	DQ	03f829b5dbd3eb736r		; 0.0090854
	DQ	03fdfb592890b0523r		; 0.495457
	DQ	03fafe2cf1a4b689cr		; 0.0622773
	DQ	03fde01d30e5b4976r		; 0.468861
	DQ	03fde01d30e5b4976r		; 0.468861
	DQ	03fde01d30e5b4976r		; 0.468861
	DQ	03fde01d30e5b4976r		; 0.468861
	DQ	03fafe2cf1a4b689cr		; 0.0622773
	DQ	03fde01d30e5b4976r		; 0.468861
	DQ	03fafe2cf1a4b689cr		; 0.0622773
	DQ	03fde01d30e5b4976r		; 0.468861
	DQ	03f969b2ab8513e80r		; 0.0220763
	DQ	03feb3de72349a117r		; 0.851307
	DQ	03fc034fe1bcf53d4r		; 0.126617
	DQ	03feb3de72349a117r		; 0.851307
	DQ	03fc034fe1bcf53d4r		; 0.126617
	DQ	03f969b2ab8513e80r		; 0.0220763
	DQ	03fc034fe1bcf53d4r		; 0.126617
	DQ	03f969b2ab8513e80r		; 0.0220763
	DQ	03feb3de72349a117r		; 0.851307
	DQ	03f93114221e28f51r		; 0.0186205
	DQ	03fe60fe89b989c60r		; 0.689442
	DQ	03fd2af1aa6b09e4ar		; 0.291938
	DQ	03fe60fe89b989c60r		; 0.689442
	DQ	03fd2af1aa6b09e4ar		; 0.291938
	DQ	03f93114221e28f51r		; 0.0186205
	DQ	03fd2af1aa6b09e4ar		; 0.291938
	DQ	03f93114221e28f51r		; 0.0186205
	DQ	03fe60fe89b989c60r		; 0.689442
	DQ	03fb8b4a6150079e1r		; 0.0965065
	DQ	03fe459078d9b1281r		; 0.635868
	DQ	03fd120c75f89bc86r		; 0.267626
	DQ	03fe459078d9b1281r		; 0.635868
	DQ	03fd120c75f89bc86r		; 0.267626
	DQ	03fb8b4a6150079e1r		; 0.0965065
	DQ	03fd120c75f89bc86r		; 0.267626
	DQ	03fb8b4a6150079e1r		; 0.0965065
	DQ	03fe459078d9b1281r		; 0.635868
	DQ	03feb3de72349a117r		; 0.851307
	DQ	03f969b2ab8513e80r		; 0.0220763
	DQ	03fc034fe1bcf53d4r		; 0.126617
	DQ	03f969b2ab8513e80r		; 0.0220763
	DQ	03fc034fe1bcf53d4r		; 0.126617
	DQ	03feb3de72349a117r		; 0.851307
	DQ	03fc034fe1bcf53d4r		; 0.126617
	DQ	03feb3de72349a117r		; 0.851307
	DQ	03f969b2ab8513e80r		; 0.0220763
	DQ	03fe60fe89b989c60r		; 0.689442
	DQ	03f93114221e28f51r		; 0.0186205
	DQ	03fd2af1aa6b09e4br		; 0.291938
	DQ	03f93114221e28f51r		; 0.0186205
	DQ	03fd2af1aa6b09e4br		; 0.291938
	DQ	03fe60fe89b989c60r		; 0.689442
	DQ	03fd2af1aa6b09e4br		; 0.291938
	DQ	03fe60fe89b989c60r		; 0.689442
	DQ	03f93114221e28f51r		; 0.0186205
	DQ	03fe459078d9b1281r		; 0.635868
	DQ	03fb8b4a6150079e1r		; 0.0965065
	DQ	03fd120c75f89bc86r		; 0.267626
	DQ	03fb8b4a6150079e1r		; 0.0965065
	DQ	03fd120c75f89bc86r		; 0.267626
	DQ	03fe459078d9b1281r		; 0.635868
	DQ	03fd120c75f89bc86r		; 0.267626
	DQ	03fe459078d9b1281r		; 0.635868
	DQ	03fb8b4a6150079e1r		; 0.0965065
_gauss2Dwt13 DQ	03faa7da2764f643dr		; 0.0517398
	DQ	03f806664a9a1f1a2r		; 0.0080078
	DQ	03f806664a9a1f1a2r		; 0.0080078
	DQ	03f806664a9a1f1a2r		; 0.0080078
	DQ	03fa7ff3348a724acr		; 0.0468689
	DQ	03fa7ff3348a724acr		; 0.0468689
	DQ	03fa7ff3348a724acr		; 0.0468689
	DQ	03fa7dac488c298b3r		; 0.0465909
	DQ	03fa7dac488c298b3r		; 0.0465909
	DQ	03fa7dac488c298b3r		; 0.0465909
	DQ	03f9fc2e7d49e5a4cr		; 0.0310169
	DQ	03f9fc2e7d49e5a4cr		; 0.0310169
	DQ	03f9fc2e7d49e5a4cr		; 0.0310169
	DQ	03f8619e9be330da7r		; 0.0107916
	DQ	03f8619e9be330da7r		; 0.0107916
	DQ	03f8619e9be330da7r		; 0.0107916
	DQ	03fa07beedd4c0723r		; 0.0321955
	DQ	03fa07beedd4c0723r		; 0.0321955
	DQ	03fa07beedd4c0723r		; 0.0321955
	DQ	03f8fa210c65aef0er		; 0.0154458
	DQ	03f8fa210c65aef0er		; 0.0154458
	DQ	03f8fa210c65aef0er		; 0.0154458
	DQ	03f9240309b5913e2r		; 0.017823
	DQ	03f9240309b5913e2r		; 0.017823
	DQ	03f9240309b5913e2r		; 0.017823
	DQ	03fa2f6bbfe32662fr		; 0.0370387
	DQ	03fa2f6bbfe32662fr		; 0.0370387
	DQ	03fa2f6bbfe32662fr		; 0.0370387
	DQ	03f8fa210c65aef0er		; 0.0154458
	DQ	03f8fa210c65aef0er		; 0.0154458
	DQ	03f8fa210c65aef0er		; 0.0154458
	DQ	03f9240309b5913e2r		; 0.017823
	DQ	03f9240309b5913e2r		; 0.017823
	DQ	03f9240309b5913e2r		; 0.017823
	DQ	03fa2f6bbfe32662fr		; 0.0370387
	DQ	03fa2f6bbfe32662fr		; 0.0370387
	DQ	03fa2f6bbfe32662fr		; 0.0370387
_DATA	ENDS
;	COMDAT ??_C@_05EMAPBGPB@2?470a?$AA@
CONST	SEGMENT
??_C@_05EMAPBGPB@2?470a?$AA@ DB '2.70a', 00H		; `string'
CONST	ENDS
END
