; Listing generated by Microsoft (R) Optimizing Compiler Version 16.00.40219.01 

	TITLE	C:\levolver\yonkang-sefit\levolver\ev_ogl\YEXPARSE.C
	.686P
	.XMM
	include listing.inc
	.model	flat

INCLUDELIB LIBCMT
INCLUDELIB OLDNAMES

_DATA	SEGMENT
COMM	_list:DWORD
COMM	_listtop:DWORD
COMM	_maxp:DWORD
COMM	_loopdepth:DWORD
COMM	_loopbase:DWORD:01eH
COMM	_using_param_flag:DWORD
COMM	_permlist:DWORD
COMM	_listmax:DWORD
_DATA	ENDS
PUBLIC	_free_expr
EXTRN	_myfree:PROC
; Function compile flags: /Ogtp
; File c:\levolver\yonkang-sefit\levolver\ev_ogl\yexparse.c
;	COMDAT _free_expr
_TEXT	SEGMENT
_ex$ = 8						; size = 4
_free_expr PROC						; COMDAT

; 163  : { 

	push	ebp
	mov	ebp, esp
	push	edi

; 164  :   if ( ex == NULL ) return;

	mov	edi, DWORD PTR _ex$[ebp]
	test	edi, edi
	je	SHORT $LN10@free_expr

; 165  :   if ( ex->flag == NOUSERCOPY ) return;

	cmp	DWORD PTR [edi+12], 0
	je	SHORT $LN10@free_expr

; 166  :   if ( ex->start )

	push	esi
	mov	esi, DWORD PTR [edi]
	test	esi, esi
	je	SHORT $LN7@free_expr

; 167  :   { 
; 168  :    struct treenode *node;
; 169  :     for ( node = ex->start ; node != ex->root ; node ++  )

	cmp	esi, DWORD PTR [edi+4]
	je	SHORT $LN4@free_expr
	npad	3
$LL6@free_expr:

; 170  :     {
; 171  :     #ifdef XXXXXXX
; 172  :    /* free local symbol tables ?? */
; 173  :       if ( node->flags & HAS_LOCALLIST )
; 174  :       { struct locallist_t *locals = node->op5.locals;
; 175  :         if ( locals->list ) 
; 176  :         { if ( locals->flags & LL_PERMANENT ) free((char*)locals->list);
; 177  :           else myfree((char*)locals->list);
; 178  :         }
; 179  :         if ( locals->flags & LL_PERMANENT ) 
; 180  :           free((char*)locals);
; 181  :         else 
; 182  :           myfree((char*)locals);
; 183  :       }
; 184  :     #endif
; 185  :       if ( node->flags & HAS_STRING )

	test	BYTE PTR [esi+24], 32			; 00000020H
	je	SHORT $LN3@free_expr

; 186  :         myfree(node->op1.string);

	mov	eax, DWORD PTR [esi+32]
	push	eax
	call	_myfree
	add	esp, 4
$LN3@free_expr:

; 187  :       if ( node->flags & HAS_STRING_5 )

	test	DWORD PTR [esi+24], 512			; 00000200H
	je	SHORT $LN5@free_expr

; 188  :         myfree(node->op5.string);

	mov	ecx, DWORD PTR [esi+152]
	push	ecx
	call	_myfree
	add	esp, 4
$LN5@free_expr:

; 167  :   { 
; 168  :    struct treenode *node;
; 169  :     for ( node = ex->start ; node != ex->root ; node ++  )

	add	esi, 168				; 000000a8H
	cmp	esi, DWORD PTR [edi+4]
	jne	SHORT $LL6@free_expr
$LN4@free_expr:

; 189  :     }
; 190  :     myfree((char *)ex->start);

	mov	edx, DWORD PTR [edi]
	push	edx
	call	_myfree
	add	esp, 4
$LN7@free_expr:

; 191  :   }
; 192  :   ex->root = NULL;
; 193  :   ex->start = NULL;
; 194  : 
; 195  :   if ( ex->locals )

	mov	eax, DWORD PTR [edi+8]
	xor	esi, esi
	mov	DWORD PTR [edi+4], esi
	mov	DWORD PTR [edi], esi
	cmp	eax, esi
	je	SHORT $LN1@free_expr

; 196  :   { myfree((char*)(ex->locals->list));

	mov	eax, DWORD PTR [eax]
	push	eax
	call	_myfree

; 197  :     myfree((char*)(ex->locals));

	mov	ecx, DWORD PTR [edi+8]
	push	ecx
	call	_myfree
	add	esp, 8
$LN1@free_expr:

; 198  :   }
; 199  :   ex->locals = NULL;

	mov	DWORD PTR [edi+8], esi
	pop	esi
$LN10@free_expr:
	pop	edi

; 200  : 
; 201  : } // end free_expr()

	pop	ebp
	ret	0
_free_expr ENDP
_TEXT	ENDS
PUBLIC	_perm_free_expr
EXTRN	_free:PROC
; Function compile flags: /Ogtp
;	COMDAT _perm_free_expr
_TEXT	SEGMENT
_ex$ = 8						; size = 4
_perm_free_expr PROC					; COMDAT

; 211  : { struct treenode *node;

	push	ebp
	mov	ebp, esp
	push	edi

; 212  : 
; 213  :   if ( ex == NULL ) return;

	mov	edi, DWORD PTR _ex$[ebp]
	test	edi, edi
	je	SHORT $LN9@perm_free_

; 214  :   if ( ex->flag == NOUSERCOPY ) return;

	cmp	DWORD PTR [edi+12], 0
	je	SHORT $LN9@perm_free_

; 215  :   if ( ex->start )

	push	esi
	mov	esi, DWORD PTR [edi]
	test	esi, esi
	je	SHORT $LN6@perm_free_

; 216  :   { for ( node = ex->start ; node != ex->root ; node ++  )

	cmp	esi, DWORD PTR [edi+4]
	je	SHORT $LN3@perm_free_
	npad	3
$LL5@perm_free_:

; 217  :     if ( node->flags & HAS_STRING )

	test	BYTE PTR [esi+24], 32			; 00000020H
	je	SHORT $LN4@perm_free_

; 218  :       free(node->op1.string);

	mov	eax, DWORD PTR [esi+32]
	push	eax
	call	_free
	add	esp, 4
$LN4@perm_free_:

; 216  :   { for ( node = ex->start ; node != ex->root ; node ++  )

	add	esi, 168				; 000000a8H
	cmp	esi, DWORD PTR [edi+4]
	jne	SHORT $LL5@perm_free_
$LN3@perm_free_:

; 219  :     if ( node->flags & HAS_STRING_5 )

	test	DWORD PTR [esi+24], 512			; 00000200H
	je	SHORT $LN1@perm_free_

; 220  :       free(node->op5.string);

	mov	ecx, DWORD PTR [esi+152]
	push	ecx
	call	_free
	add	esp, 4
$LN1@perm_free_:

; 221  :      free((char *)ex->start);

	mov	edx, DWORD PTR [edi]
	push	edx
	call	_free
	add	esp, 4
$LN6@perm_free_:

; 222  :   }
; 223  :   ex->root = NULL;

	mov	DWORD PTR [edi+4], 0

; 224  :   ex->start = NULL;

	mov	DWORD PTR [edi], 0
	pop	esi
$LN9@perm_free_:
	pop	edi

; 225  : } // end perm_free_expr()

	pop	ebp
	ret	0
_perm_free_expr ENDP
_TEXT	ENDS
PUBLIC	??_C@_0L@OKHAMMPH@YEXPARSE?4C?$AA@		; `string'
PUBLIC	??_C@_0EC@HBCHEBCM@Internal?5error?3?5Left?3?5?$CFd?9?$CFd?5?5rig@ ; `string'
PUBLIC	_subtree_swap
EXTRN	_temp_free:PROC
EXTRN	_kb_memmove:PROC
EXTRN	_kb_temp_calloc:PROC
EXTRN	_kb_error:PROC
EXTRN	_sprintf:PROC
EXTRN	_errmsg:BYTE
EXTRN	_memcpy:PROC
;	COMDAT ??_C@_0L@OKHAMMPH@YEXPARSE?4C?$AA@
CONST	SEGMENT
??_C@_0L@OKHAMMPH@YEXPARSE?4C?$AA@ DB 'YEXPARSE.C', 00H	; `string'
CONST	ENDS
;	COMDAT ??_C@_0EC@HBCHEBCM@Internal?5error?3?5Left?3?5?$CFd?9?$CFd?5?5rig@
CONST	SEGMENT
??_C@_0EC@HBCHEBCM@Internal?5error?3?5Left?3?5?$CFd?9?$CFd?5?5rig@ DB 'In'
	DB	'ternal error: Left: %d-%d  right: %d-%d subtrees not adjacent'
	DB	'.', 0aH, 00H				; `string'
; Function compile flags: /Ogtp
CONST	ENDS
;	COMDAT _subtree_swap
_TEXT	SEGMENT
tv423 = -16						; size = 4
tv391 = -12						; size = 4
tv385 = -12						; size = 4
tv388 = -8						; size = 4
_temp$ = -8						; size = 4
tv425 = -4						; size = 4
_leftstart$90396 = -4					; size = 4
tv503 = 8						; size = 4
$T91384 = 8						; size = 4
_left$ = 8						; size = 4
_right$ = 12						; size = 4
_subtree_swap PROC					; COMDAT

; 2979 : { int n;

	push	ebp
	mov	ebp, esp
	sub	esp, 16					; 00000010H

; 2980 :   struct treenode *temp;
; 2981 : 
; 2982 :   if ( *left && *right && (*left < *right ) )

	mov	eax, DWORD PTR _left$[ebp]
	push	edi
	mov	edi, DWORD PTR [eax]
	mov	DWORD PTR tv385[ebp], edi
	test	edi, edi
	je	$LN3@subtree_sw
	mov	ecx, DWORD PTR _right$[ebp]
	push	ebx
	mov	ebx, DWORD PTR [ecx]
	mov	DWORD PTR tv388[ebp], ebx
	test	ebx, ebx
	je	$LN53@subtree_sw
	cmp	edi, ebx
	jge	$LN53@subtree_sw

; 2983 :   { int leftstart = *left, rightstart = *right;

	push	esi
	mov	esi, DWORD PTR _list
	npad	9
$LL31@subtree_sw:

; 2984 :     int leftsize,rightsize;
; 2985 :     for (;;)
; 2986 :     { if ( list[leftstart].left && list[leftstart].right )

	mov	ecx, edi
	imul	ecx, 168				; 000000a8H
	mov	eax, DWORD PTR [ecx+esi+4]
	test	eax, eax
	je	SHORT $LN25@subtree_sw
	mov	edx, DWORD PTR [ecx+esi+8]
	test	edx, edx
	je	SHORT $LN51@subtree_sw

; 2987 :       { if ( list[leftstart].left < list[leftstart].right )

	cmp	eax, edx
	jge	SHORT $LN28@subtree_sw

; 2988 :           leftstart += list[leftstart].left;

	add	edi, eax
	jmp	SHORT $LL31@subtree_sw
$LN28@subtree_sw:

; 2989 :         else leftstart += list[leftstart].right;

	add	edi, edx

; 2990 :       }
; 2991 :       else if ( list[leftstart].left )

	jmp	SHORT $LL31@subtree_sw
$LN51@subtree_sw:
	test	eax, eax
	je	SHORT $LN25@subtree_sw

; 2992 :         leftstart += list[leftstart].left;

	add	edi, eax
	jmp	SHORT $LL31@subtree_sw
$LN25@subtree_sw:

; 2993 :       else if ( list[leftstart].right )

	mov	ecx, DWORD PTR [ecx+esi+8]
	test	ecx, ecx
	je	SHORT $LN44@subtree_sw

; 2994 :         leftstart += list[leftstart].right;

	add	edi, ecx

; 2995 :       else break;
; 2996 :     }

	jmp	SHORT $LL31@subtree_sw
$LN44@subtree_sw:

; 2988 :           leftstart += list[leftstart].left;

	mov	DWORD PTR _leftstart$90396[ebp], edi
	npad	5
$LL21@subtree_sw:

; 2997 :     for (;;)
; 2998 :     { if ( list[rightstart].left && list[rightstart].right )

	mov	ecx, ebx
	imul	ecx, 168				; 000000a8H
	mov	eax, DWORD PTR [ecx+esi+4]
	test	eax, eax
	je	SHORT $LN15@subtree_sw
	mov	edx, DWORD PTR [ecx+esi+8]
	test	edx, edx
	je	SHORT $LN52@subtree_sw

; 2999 :       { if ( list[rightstart].left < list[rightstart].right )

	cmp	eax, edx
	jge	SHORT $LN18@subtree_sw

; 3000 :           rightstart += list[rightstart].left;

	add	ebx, eax
	jmp	SHORT $LL21@subtree_sw
$LN18@subtree_sw:

; 3001 :         else rightstart += list[rightstart].right;

	add	ebx, edx

; 3002 :       }
; 3003 :       else if ( list[rightstart].left )

	jmp	SHORT $LL21@subtree_sw
$LN52@subtree_sw:
	test	eax, eax
	je	SHORT $LN15@subtree_sw

; 3004 :         rightstart += list[rightstart].left;

	add	ebx, eax
	jmp	SHORT $LL21@subtree_sw
$LN15@subtree_sw:

; 3005 :       else if ( list[rightstart].right )

	mov	ecx, DWORD PTR [ecx+esi+8]
	test	ecx, ecx
	je	SHORT $LN13@subtree_sw

; 3006 :         rightstart += list[rightstart].right;

	add	ebx, ecx

; 3007 :       else break;
; 3008 :     }

	jmp	SHORT $LL21@subtree_sw
$LN13@subtree_sw:

; 3009 :     if ( rightstart != *left + 1 )

	mov	eax, DWORD PTR tv385[ebp]
	lea	ecx, DWORD PTR [eax+1]
	cmp	ebx, ecx
	je	SHORT $LN11@subtree_sw

; 3010 :      { sprintf(errmsg,
; 3011 :           "Internal error: Left: %d-%d  right: %d-%d subtrees not adjacent.\n",
; 3012 :           leftstart,*left,rightstart,*right);

	mov	edx, DWORD PTR tv388[ebp]
	push	edx
	push	ebx
	push	eax
	push	edi
	push	OFFSET ??_C@_0EC@HBCHEBCM@Internal?5error?3?5Left?3?5?$CFd?9?$CFd?5?5rig@
	push	OFFSET _errmsg
	call	_sprintf

; 3013 :         kb_error(1387,errmsg,COMMAND_ERROR);

	push	5
	push	OFFSET _errmsg
	push	1387					; 0000056bH
	call	_kb_error
	add	esp, 36					; 00000024H
$LN11@subtree_sw:

; 3014 :      }      
; 3015 : 
; 3016 :     /* swap subtrees */
; 3017 :     leftsize = *left - leftstart + 1;

	mov	eax, DWORD PTR _left$[ebp]
	mov	esi, DWORD PTR [eax]

; 3018 :     rightsize = *right - rightstart +1;

	mov	ecx, DWORD PTR _right$[ebp]

; 3019 :     temp = (struct treenode*)temp_calloc(leftsize,sizeof(struct treenode));

	push	3019					; 00000bcbH
	sub	esi, edi
	mov	edi, DWORD PTR [ecx]
	push	OFFSET ??_C@_0L@OKHAMMPH@YEXPARSE?4C?$AA@
	inc	esi
	push	168					; 000000a8H
	sub	edi, ebx
	push	esi
	inc	edi
	call	_kb_temp_calloc

; 3020 :     memcpy((char*)(temp),(char*)(list+leftstart),
; 3021 :         leftsize*sizeof(struct treenode));

	mov	edx, DWORD PTR _leftstart$90396[ebp]
	imul	edx, 168				; 000000a8H
	mov	ecx, esi
	imul	ecx, 168				; 000000a8H
	mov	DWORD PTR tv391[ebp], edx
	add	edx, DWORD PTR _list
	push	ecx
	push	edx
	push	eax
	mov	DWORD PTR _temp$[ebp], eax
	mov	DWORD PTR tv423[ebp], ecx
	call	_memcpy

; 3022 :     kb_memmove((char*)(list+leftstart),(char*)(list+rightstart),
; 3023 :         rightsize*sizeof(struct treenode));

	imul	ebx, 168				; 000000a8H
	mov	eax, DWORD PTR _list
	mov	ecx, DWORD PTR tv391[ebp]
	mov	edx, edi
	imul	edx, 168				; 000000a8H
	push	edx
	add	ebx, eax
	add	ecx, eax
	push	ebx
	push	ecx
	call	_kb_memmove

; 3024 :     memcpy((char*)(list+leftstart+rightsize),(char*)(temp),
; 3025 :         leftsize*sizeof(struct treenode));

	mov	ebx, DWORD PTR _leftstart$90396[ebp]
	mov	edx, DWORD PTR tv423[ebp]
	mov	ecx, DWORD PTR _temp$[ebp]
	lea	eax, DWORD PTR [edi+ebx]
	mov	DWORD PTR tv425[ebp], eax
	imul	eax, 168				; 000000a8H
	add	eax, DWORD PTR _list
	push	edx
	push	ecx
	push	eax
	call	_memcpy

; 3026 :     temp_free((char*)temp);

	mov	edx, DWORD PTR _temp$[ebp]
	push	edx
	call	_temp_free

; 3027 : 
; 3028 :     /* adjust subtree pointers */
; 3029 :     *left += rightsize;

	mov	eax, DWORD PTR _left$[ebp]
	add	DWORD PTR [eax], edi

; 3030 :     *right -= leftsize;

	mov	eax, DWORD PTR _right$[ebp]
	sub	DWORD PTR [eax], esi

; 3031 :     /* kludge to adjust pointers to local variables */
; 3032 :     for ( n = leftstart ; n < leftstart+rightsize ; n++ )

	mov	ecx, DWORD PTR tv425[ebp]
	add	esp, 56					; 00000038H
	mov	eax, ebx
	cmp	ebx, ecx
	jge	SHORT $LN47@subtree_sw

; 3014 :      }      
; 3015 : 
; 3016 :     /* swap subtrees */
; 3017 :     leftsize = *left - leftstart + 1;

	mov	edx, DWORD PTR tv391[ebp]
	mov	DWORD PTR tv503[ebp], edx
	npad	13
$LL10@subtree_sw:

; 3033 :     { 
; 3034 :       if ( ((list[n].type == BREAK_NODE) || (list[n].type == CONTINUE_NODE)) &&
; 3035 :          (n+leftsize+list[n].op1.skipsize < leftstart)  ) 

	mov	ecx, DWORD PTR _list
	mov	ecx, DWORD PTR [edx+ecx]
	cmp	ecx, 10067				; 00002753H
	je	SHORT $LN6@subtree_sw
	cmp	ecx, 10066				; 00002752H
	jne	SHORT $LN9@subtree_sw
$LN6@subtree_sw:
	mov	ecx, DWORD PTR _list
	lea	ecx, DWORD PTR [edx+ecx+32]
	mov	edx, DWORD PTR [ecx]
	add	edx, eax
	add	edx, esi
	cmp	edx, ebx
	jge	SHORT $LN9@subtree_sw

; 3036 :             list[n].op1.skipsize += leftsize;

	add	DWORD PTR [ecx], esi
$LN9@subtree_sw:

; 3031 :     /* kludge to adjust pointers to local variables */
; 3032 :     for ( n = leftstart ; n < leftstart+rightsize ; n++ )

	mov	edx, DWORD PTR tv503[ebp]
	mov	ecx, DWORD PTR tv425[ebp]
	inc	eax
	add	edx, 168				; 000000a8H
	mov	DWORD PTR tv503[ebp], edx
	cmp	eax, ecx
	jl	SHORT $LL10@subtree_sw
$LN47@subtree_sw:

; 3037 :     }
; 3038 :     for ( n = leftstart+rightsize ; n < leftstart+rightsize+leftsize ; n++ )

	add	esi, edi
	add	esi, ebx
	mov	eax, ecx
	mov	DWORD PTR $T91384[ebp], esi
	cmp	eax, esi
	jge	SHORT $LN54@subtree_sw
	mov	edx, eax
	imul	edx, 168				; 000000a8H
	npad	8
$LL5@subtree_sw:

; 3039 :     { 
; 3040 :       if ( ((list[n].type == BREAK_NODE) || (list[n].type == CONTINUE_NODE)) &&
; 3041 :          (n-rightsize+list[n].op1.skipsize < leftstart)  ) 

	mov	ecx, DWORD PTR _list
	mov	ecx, DWORD PTR [edx+ecx]
	cmp	ecx, 10067				; 00002753H
	je	SHORT $LN1@subtree_sw
	cmp	ecx, 10066				; 00002752H
	jne	SHORT $LN4@subtree_sw
$LN1@subtree_sw:
	mov	ecx, DWORD PTR _list
	mov	esi, DWORD PTR [edx+ecx+32]
	lea	ecx, DWORD PTR [edx+ecx+32]
	sub	esi, edi
	add	esi, eax
	cmp	esi, ebx

; 3042 :             list[n].op1.skipsize -= rightsize;

	mov	esi, DWORD PTR $T91384[ebp]
	jge	SHORT $LN4@subtree_sw
	sub	DWORD PTR [ecx], edi
$LN4@subtree_sw:

; 3037 :     }
; 3038 :     for ( n = leftstart+rightsize ; n < leftstart+rightsize+leftsize ; n++ )

	inc	eax
	add	edx, 168				; 000000a8H
	cmp	eax, esi
	jl	SHORT $LL5@subtree_sw
$LN54@subtree_sw:
	pop	esi
$LN53@subtree_sw:
	pop	ebx
$LN3@subtree_sw:
	pop	edi

; 3043 :     } 
; 3044 :   }
; 3045 : } // end subtree_swap()  

	mov	esp, ebp
	pop	ebp
	ret	0
_subtree_swap ENDP
_TEXT	ENDS
PUBLIC	??_C@_0BB@NOJGADFO@Bad?5expression?4?6?$AA@	; `string'
PUBLIC	_is_constant
;	COMDAT ??_C@_0BB@NOJGADFO@Bad?5expression?4?6?$AA@
CONST	SEGMENT
??_C@_0BB@NOJGADFO@Bad?5expression?4?6?$AA@ DB 'Bad expression.', 0aH, 00H ; `string'
; Function compile flags: /Ogtp
CONST	ENDS
;	COMDAT _is_constant
_TEXT	SEGMENT
_node$ = 8						; size = 4
_is_constant PROC					; COMDAT

; 4639 : { 

	push	ebp
	mov	ebp, esp
	push	esi

; 4640 :   if ( node < 0 || node > listtop )

	mov	esi, DWORD PTR _node$[ebp]
	test	esi, esi
	js	SHORT $LN5@is_constan
	cmp	esi, DWORD PTR _listtop
	jle	SHORT $LN6@is_constan
$LN5@is_constan:

; 4641 :   { kb_error(7732,"Bad expression.\n",RECOVERABLE);

	push	1
	push	OFFSET ??_C@_0BB@NOJGADFO@Bad?5expression?4?6?$AA@
	push	7732					; 00001e34H
	call	_kb_error
	add	esp, 12					; 0000000cH
$LN6@is_constan:

; 4642 :   }
; 4643 :   
; 4644 :   switch(list[node].type)

	mov	eax, DWORD PTR _list
	imul	esi, 168				; 000000a8H
	mov	esi, DWORD PTR [esi+eax]
	cmp	esi, 10095				; 0000276fH
	je	SHORT $LN2@is_constan
	cmp	esi, 10105				; 00002779H
	jle	SHORT $LN1@is_constan
	cmp	esi, 10107				; 0000277bH
	jle	SHORT $LN2@is_constan
$LN1@is_constan:

; 4649 :      default:
; 4650 :         return 0;

	xor	eax, eax
	pop	esi

; 4651 :   }
; 4652 : } // end is_constant()

	pop	ebp
	ret	0
$LN2@is_constan:

; 4645 :   {  case PUSHPI_NODE:
; 4646 :      case PUSHE_NODE:
; 4647 :      case PUSHCONST_NODE:
; 4648 :         return 1;

	mov	eax, 1
	pop	esi

; 4651 :   }
; 4652 : } // end is_constant()

	pop	ebp
	ret	0
_is_constant ENDP
_TEXT	ENDS
PUBLIC	??_C@_0CA@EHOENKHA@No_display?5is?5only?5for?5facets?4?6?$AA@ ; `string'
PUBLIC	??_C@_0CJ@EDKJMKM@No?5no_transform?5for?5vertices?5or?5@ ; `string'
PUBLIC	??_C@_0CG@FHLFDHCM@No?5no_refine?5for?5vertices?5or?5bod@ ; `string'
PUBLIC	??_C@_0CA@FHFDHGGE@Hit_partner?5only?5for?5vertices?4?6?$AA@ ; `string'
PUBLIC	??_C@_0BK@INAMPMOC@No?5density?5for?5vertices?4?6?$AA@ ; `string'
PUBLIC	??_C@_0BJ@DNPOAKCB@Volume?5only?5for?5bodies?4?6?$AA@ ; `string'
PUBLIC	??_C@_0BL@OFNMICCI@Volconst?5only?5for?5bodies?4?6?$AA@ ; `string'
PUBLIC	??_C@_0BJ@EFNOPFG@Target?5only?5for?5bodies?4?6?$AA@ ; `string'
PUBLIC	??_C@_0BM@DCMEGDBD@Facet?5only?5for?5facetedges?4?6?$AA@ ; `string'
PUBLIC	??_C@_0BL@KLEOHFMJ@Edge?5only?5for?5facetedges?4?6?$AA@ ; `string'
PUBLIC	??_C@_0BH@CFFJCELC@Area?5only?5for?5facets?4?6?$AA@ ; `string'
PUBLIC	??_C@_0DH@DHGCMOKK@Dihedral?5defined?5only?5for?5STRING@ ; `string'
PUBLIC	??_C@_0BN@GAOOLKBB@Dihedral?5only?5for?5vertices?4?6?$AA@ ; `string'
PUBLIC	??_C@_0BK@NOIBKFEK@Dihedral?5only?5for?5edges?4?6?$AA@ ; `string'
PUBLIC	??_C@_0BO@LCPNBOMD@Mid_facet?5only?5for?5vertices?4?6?$AA@ ; `string'
PUBLIC	??_C@_0BN@ECGOBLJL@Mid_edge?5only?5for?5vertices?4?6?$AA@ ; `string'
PUBLIC	??_C@_0BG@MIBFLFMI@Wrap?5only?5for?5edges?4?6?$AA@ ; `string'
PUBLIC	??_C@_0BL@PAPLLPOF@Fixedvol?5only?5for?5bodies?4?6?$AA@ ; `string'
PUBLIC	??_C@_0BN@KJEFMOAH@Facetnormal?5only?5for?5edges?4?6?$AA@ ; `string'
PUBLIC	??_C@_0EL@EGEGNGHH@Mean_curvature?5attribute?5impleme@ ; `string'
PUBLIC	??_C@_0CD@JEGMKDIE@Mean_curvature?5only?5for?5vertices@ ; `string'
PUBLIC	??_C@_0BI@FKEBJKIN@Length?5only?5for?5edges?4?6?$AA@ ; `string'
PUBLIC	??_C@_0CH@MKBFFPCD@Orientation?5only?5for?5edges?5or?5fa@ ; `string'
PUBLIC	??_C@_0CC@HLAHPKPG@?$CCShow?$CC?5only?5for?5edges?5or?5facets?4@ ; `string'
PUBLIC	??_C@_0CD@JCOGGAAE@No?5bareness?5for?5facets?5or?5bodies@ ; `string'
PUBLIC	??_C@_0CB@IIPHIEPO@Color?5only?5for?5edges?5or?5facets?4?6@ ; `string'
PUBLIC	??_C@_0CK@ENGPPANK@Frontcolor?5or?5backcolor?5only?5for@ ; `string'
PUBLIC	??_C@_0DP@LEOPIADF@Frontbody?5or?5backbody?5only?5for?5f@ ; `string'
PUBLIC	??_C@_0CK@KKODAGDB@Square?5mean?5curvature?5only?5for?5v@ ; `string'
PUBLIC	??_C@_0CA@KGJBLLHB@Midv?5only?5for?5quadratic?5edges?4?6?$AA@ ; `string'
PUBLIC	_check_element_type
EXTRN	_web:BYTE
;	COMDAT ??_C@_0CA@EHOENKHA@No_display?5is?5only?5for?5facets?4?6?$AA@
CONST	SEGMENT
??_C@_0CA@EHOENKHA@No_display?5is?5only?5for?5facets?4?6?$AA@ DB 'No_disp'
	DB	'lay is only for facets.', 0aH, 00H		; `string'
CONST	ENDS
;	COMDAT ??_C@_0CJ@EDKJMKM@No?5no_transform?5for?5vertices?5or?5@
CONST	SEGMENT
??_C@_0CJ@EDKJMKM@No?5no_transform?5for?5vertices?5or?5@ DB 'No no_transf'
	DB	'orm for vertices or bodies.', 0aH, 00H	; `string'
CONST	ENDS
;	COMDAT ??_C@_0CG@FHLFDHCM@No?5no_refine?5for?5vertices?5or?5bod@
CONST	SEGMENT
??_C@_0CG@FHLFDHCM@No?5no_refine?5for?5vertices?5or?5bod@ DB 'No no_refin'
	DB	'e for vertices or bodies.', 0aH, 00H	; `string'
CONST	ENDS
;	COMDAT ??_C@_0CA@FHFDHGGE@Hit_partner?5only?5for?5vertices?4?6?$AA@
CONST	SEGMENT
??_C@_0CA@FHFDHGGE@Hit_partner?5only?5for?5vertices?4?6?$AA@ DB 'Hit_part'
	DB	'ner only for vertices.', 0aH, 00H		; `string'
CONST	ENDS
;	COMDAT ??_C@_0BK@INAMPMOC@No?5density?5for?5vertices?4?6?$AA@
CONST	SEGMENT
??_C@_0BK@INAMPMOC@No?5density?5for?5vertices?4?6?$AA@ DB 'No density for'
	DB	' vertices.', 0aH, 00H			; `string'
CONST	ENDS
;	COMDAT ??_C@_0BJ@DNPOAKCB@Volume?5only?5for?5bodies?4?6?$AA@
CONST	SEGMENT
??_C@_0BJ@DNPOAKCB@Volume?5only?5for?5bodies?4?6?$AA@ DB 'Volume only for'
	DB	' bodies.', 0aH, 00H				; `string'
CONST	ENDS
;	COMDAT ??_C@_0BL@OFNMICCI@Volconst?5only?5for?5bodies?4?6?$AA@
CONST	SEGMENT
??_C@_0BL@OFNMICCI@Volconst?5only?5for?5bodies?4?6?$AA@ DB 'Volconst only'
	DB	' for bodies.', 0aH, 00H			; `string'
CONST	ENDS
;	COMDAT ??_C@_0BJ@EFNOPFG@Target?5only?5for?5bodies?4?6?$AA@
CONST	SEGMENT
??_C@_0BJ@EFNOPFG@Target?5only?5for?5bodies?4?6?$AA@ DB 'Target only for '
	DB	'bodies.', 0aH, 00H				; `string'
CONST	ENDS
;	COMDAT ??_C@_0BM@DCMEGDBD@Facet?5only?5for?5facetedges?4?6?$AA@
CONST	SEGMENT
??_C@_0BM@DCMEGDBD@Facet?5only?5for?5facetedges?4?6?$AA@ DB 'Facet only f'
	DB	'or facetedges.', 0aH, 00H			; `string'
CONST	ENDS
;	COMDAT ??_C@_0BL@KLEOHFMJ@Edge?5only?5for?5facetedges?4?6?$AA@
CONST	SEGMENT
??_C@_0BL@KLEOHFMJ@Edge?5only?5for?5facetedges?4?6?$AA@ DB 'Edge only for'
	DB	' facetedges.', 0aH, 00H			; `string'
CONST	ENDS
;	COMDAT ??_C@_0BH@CFFJCELC@Area?5only?5for?5facets?4?6?$AA@
CONST	SEGMENT
??_C@_0BH@CFFJCELC@Area?5only?5for?5facets?4?6?$AA@ DB 'Area only for fac'
	DB	'ets.', 0aH, 00H				; `string'
CONST	ENDS
;	COMDAT ??_C@_0DH@DHGCMOKK@Dihedral?5defined?5only?5for?5STRING@
CONST	SEGMENT
??_C@_0DH@DHGCMOKK@Dihedral?5defined?5only?5for?5STRING@ DB 'Dihedral def'
	DB	'ined only for STRING and SOAPFILM models.', 0aH, 00H ; `string'
CONST	ENDS
;	COMDAT ??_C@_0BN@GAOOLKBB@Dihedral?5only?5for?5vertices?4?6?$AA@
CONST	SEGMENT
??_C@_0BN@GAOOLKBB@Dihedral?5only?5for?5vertices?4?6?$AA@ DB 'Dihedral on'
	DB	'ly for vertices.', 0aH, 00H			; `string'
CONST	ENDS
;	COMDAT ??_C@_0BK@NOIBKFEK@Dihedral?5only?5for?5edges?4?6?$AA@
CONST	SEGMENT
??_C@_0BK@NOIBKFEK@Dihedral?5only?5for?5edges?4?6?$AA@ DB 'Dihedral only '
	DB	'for edges.', 0aH, 00H			; `string'
CONST	ENDS
;	COMDAT ??_C@_0BO@LCPNBOMD@Mid_facet?5only?5for?5vertices?4?6?$AA@
CONST	SEGMENT
??_C@_0BO@LCPNBOMD@Mid_facet?5only?5for?5vertices?4?6?$AA@ DB 'Mid_facet '
	DB	'only for vertices.', 0aH, 00H		; `string'
CONST	ENDS
;	COMDAT ??_C@_0BN@ECGOBLJL@Mid_edge?5only?5for?5vertices?4?6?$AA@
CONST	SEGMENT
??_C@_0BN@ECGOBLJL@Mid_edge?5only?5for?5vertices?4?6?$AA@ DB 'Mid_edge on'
	DB	'ly for vertices.', 0aH, 00H			; `string'
CONST	ENDS
;	COMDAT ??_C@_0BG@MIBFLFMI@Wrap?5only?5for?5edges?4?6?$AA@
CONST	SEGMENT
??_C@_0BG@MIBFLFMI@Wrap?5only?5for?5edges?4?6?$AA@ DB 'Wrap only for edge'
	DB	's.', 0aH, 00H				; `string'
CONST	ENDS
;	COMDAT ??_C@_0BL@PAPLLPOF@Fixedvol?5only?5for?5bodies?4?6?$AA@
CONST	SEGMENT
??_C@_0BL@PAPLLPOF@Fixedvol?5only?5for?5bodies?4?6?$AA@ DB 'Fixedvol only'
	DB	' for bodies.', 0aH, 00H			; `string'
CONST	ENDS
;	COMDAT ??_C@_0BN@KJEFMOAH@Facetnormal?5only?5for?5edges?4?6?$AA@
CONST	SEGMENT
??_C@_0BN@KJEFMOAH@Facetnormal?5only?5for?5edges?4?6?$AA@ DB 'Facetnormal'
	DB	' only for edges.', 0aH, 00H			; `string'
CONST	ENDS
;	COMDAT ??_C@_0EL@EGEGNGHH@Mean_curvature?5attribute?5impleme@
CONST	SEGMENT
??_C@_0EL@EGEGNGHH@Mean_curvature?5attribute?5impleme@ DB 'Mean_curvature'
	DB	' attribute implemented only for string and soapfilm models.', 0aH
	DB	00H						; `string'
CONST	ENDS
;	COMDAT ??_C@_0CD@JEGMKDIE@Mean_curvature?5only?5for?5vertices@
CONST	SEGMENT
??_C@_0CD@JEGMKDIE@Mean_curvature?5only?5for?5vertices@ DB 'Mean_curvatur'
	DB	'e only for vertices.', 0aH, 00H		; `string'
CONST	ENDS
;	COMDAT ??_C@_0BI@FKEBJKIN@Length?5only?5for?5edges?4?6?$AA@
CONST	SEGMENT
??_C@_0BI@FKEBJKIN@Length?5only?5for?5edges?4?6?$AA@ DB 'Length only for '
	DB	'edges.', 0aH, 00H				; `string'
CONST	ENDS
;	COMDAT ??_C@_0CH@MKBFFPCD@Orientation?5only?5for?5edges?5or?5fa@
CONST	SEGMENT
??_C@_0CH@MKBFFPCD@Orientation?5only?5for?5edges?5or?5fa@ DB 'Orientation'
	DB	' only for edges or facets.', 0aH, 00H	; `string'
CONST	ENDS
;	COMDAT ??_C@_0CC@HLAHPKPG@?$CCShow?$CC?5only?5for?5edges?5or?5facets?4@
CONST	SEGMENT
??_C@_0CC@HLAHPKPG@?$CCShow?$CC?5only?5for?5edges?5or?5facets?4@ DB '"Sho'
	DB	'w" only for edges or facets.', 0aH, 00H	; `string'
CONST	ENDS
;	COMDAT ??_C@_0CD@JCOGGAAE@No?5bareness?5for?5facets?5or?5bodies@
CONST	SEGMENT
??_C@_0CD@JCOGGAAE@No?5bareness?5for?5facets?5or?5bodies@ DB 'No bareness'
	DB	' for facets or bodies.', 0aH, 00H		; `string'
CONST	ENDS
;	COMDAT ??_C@_0CB@IIPHIEPO@Color?5only?5for?5edges?5or?5facets?4?6@
CONST	SEGMENT
??_C@_0CB@IIPHIEPO@Color?5only?5for?5edges?5or?5facets?4?6@ DB 'Color onl'
	DB	'y for edges or facets.', 0aH, 00H		; `string'
CONST	ENDS
;	COMDAT ??_C@_0CK@ENGPPANK@Frontcolor?5or?5backcolor?5only?5for@
CONST	SEGMENT
??_C@_0CK@ENGPPANK@Frontcolor?5or?5backcolor?5only?5for@ DB 'Frontcolor o'
	DB	'r backcolor only for facets.', 0aH, 00H	; `string'
CONST	ENDS
;	COMDAT ??_C@_0DP@LEOPIADF@Frontbody?5or?5backbody?5only?5for?5f@
CONST	SEGMENT
??_C@_0DP@LEOPIADF@Frontbody?5or?5backbody?5only?5for?5f@ DB 'Frontbody o'
	DB	'r backbody only for facets, or string model edges.', 0aH, 00H ; `string'
CONST	ENDS
;	COMDAT ??_C@_0CK@KKODAGDB@Square?5mean?5curvature?5only?5for?5v@
CONST	SEGMENT
??_C@_0CK@KKODAGDB@Square?5mean?5curvature?5only?5for?5v@ DB 'Square mean'
	DB	' curvature only for vertices.', 0aH, 00H	; `string'
CONST	ENDS
;	COMDAT ??_C@_0CA@KGJBLLHB@Midv?5only?5for?5quadratic?5edges?4?6?$AA@
CONST	SEGMENT
??_C@_0CA@KGJBLLHB@Midv?5only?5for?5quadratic?5edges?4?6?$AA@ DB 'Midv on'
	DB	'ly for quadratic edges.', 0aH, 00H		; `string'
; Function compile flags: /Ogtp
CONST	ENDS
;	COMDAT _check_element_type
_TEXT	SEGMENT
_attrib$ = 8						; size = 4
_etype$ = 12						; size = 4
_check_element_type PROC				; COMDAT

; 4665 : {

	push	ebp
	mov	ebp, esp

; 4666 :   switch ( attrib )

	mov	eax, DWORD PTR _attrib$[ebp]
	add	eax, -10165				; ffffd84bH
	cmp	eax, 116				; 00000074H
	ja	$LN1@check_elem
	movzx	eax, BYTE PTR $LN69@check_elem[eax]
	jmp	DWORD PTR $LN71@check_elem[eax*4]
$LN64@check_elem:

; 4667 :   {  
; 4668 : 
; 4669 :     case GET_MIDV_NODE:
; 4670 :      if ( etype != EDGE )

	cmp	DWORD PTR _etype$[ebp], 1
	je	$LN1@check_elem

; 4671 :          kb_error(1456,"Midv only for quadratic edges.\n",COMMAND_ERROR);

	push	5
	push	OFFSET ??_C@_0CA@KGJBLLHB@Midv?5only?5for?5quadratic?5edges?4?6?$AA@
	push	1456					; 000005b0H

; 4822 :          kb_error(1320,"No_display is only for facets.\n",
; 4823 :          COMMAND_ERROR);

	call	_kb_error
	add	esp, 12					; 0000000cH

; 4824 :          break;
; 4825 :       }
; 4826 : } // end check_element_type()

	pop	ebp
	ret	0
$LN62@check_elem:

; 4672 :             break;
; 4673 : 
; 4674 :     case GET_SQ_MEAN_CURV_NODE:
; 4675 :      if ( etype != VERTEX )

	cmp	DWORD PTR _etype$[ebp], 0
	je	$LN1@check_elem

; 4676 :          kb_error(1457,"Square mean curvature only for vertices.\n",
; 4677 :          COMMAND_ERROR);

	push	5
	push	OFFSET ??_C@_0CK@KKODAGDB@Square?5mean?5curvature?5only?5for?5v@
	push	1457					; 000005b1H

; 4822 :          kb_error(1320,"No_display is only for facets.\n",
; 4823 :          COMMAND_ERROR);

	call	_kb_error
	add	esp, 12					; 0000000cH

; 4824 :          break;
; 4825 :       }
; 4826 : } // end check_element_type()

	pop	ebp
	ret	0
$LN60@check_elem:

; 4678 :      break;
; 4679 : 
; 4680 :     case GET_FRONTBODY_NODE:
; 4681 :     case GET_BACKBODY_NODE:
; 4682 :      if ( (etype != FACET) && !((etype==EDGE)&&(web.representation==STRING)))

	mov	eax, DWORD PTR _etype$[ebp]
	cmp	eax, 2
	je	$LN1@check_elem
	cmp	eax, 1
	jne	SHORT $LN58@check_elem
	cmp	DWORD PTR _web+624, eax
	je	$LN1@check_elem
$LN58@check_elem:

; 4683 :          kb_error(1297,"Frontbody or backbody only for facets, or string model edges.\n",
; 4684 :            COMMAND_ERROR);

	push	5
	push	OFFSET ??_C@_0DP@LEOPIADF@Frontbody?5or?5backbody?5only?5for?5f@
	push	1297					; 00000511H

; 4822 :          kb_error(1320,"No_display is only for facets.\n",
; 4823 :          COMMAND_ERROR);

	call	_kb_error
	add	esp, 12					; 0000000cH

; 4824 :          break;
; 4825 :       }
; 4826 : } // end check_element_type()

	pop	ebp
	ret	0
$LN57@check_elem:

; 4685 :       break;
; 4686 : 
; 4687 :     case GET_FRONTCOLOR_NODE:
; 4688 :     case GET_BACKCOLOR_NODE:
; 4689 :      if ( (etype != FACET) )

	cmp	DWORD PTR _etype$[ebp], 2
	je	$LN1@check_elem

; 4690 :          kb_error(1458,"Frontcolor or backcolor only for facets.\n",COMMAND_ERROR);

	push	5
	push	OFFSET ??_C@_0CK@ENGPPANK@Frontcolor?5or?5backcolor?5only?5for@
	push	1458					; 000005b2H

; 4822 :          kb_error(1320,"No_display is only for facets.\n",
; 4823 :          COMMAND_ERROR);

	call	_kb_error
	add	esp, 12					; 0000000cH

; 4824 :          break;
; 4825 :       }
; 4826 : } // end check_element_type()

	pop	ebp
	ret	0
$LN55@check_elem:

; 4691 :       break;
; 4692 : 
; 4693 :     case GET_COLOR_NODE:
; 4694 :      if ( !((etype == FACET) || (etype == EDGE)) )

	mov	eax, DWORD PTR _etype$[ebp]
	cmp	eax, 2
	je	$LN1@check_elem
	cmp	eax, 1
	je	$LN1@check_elem

; 4695 :          kb_error(1459,"Color only for edges or facets.\n",COMMAND_ERROR);

	push	5
	push	OFFSET ??_C@_0CB@IIPHIEPO@Color?5only?5for?5edges?5or?5facets?4?6@
	push	1459					; 000005b3H

; 4822 :          kb_error(1320,"No_display is only for facets.\n",
; 4823 :          COMMAND_ERROR);

	call	_kb_error
	add	esp, 12					; 0000000cH

; 4824 :          break;
; 4825 :       }
; 4826 : } // end check_element_type()

	pop	ebp
	ret	0
$LN53@check_elem:

; 4696 :       break;
; 4697 : 
; 4698 :     case GET_BARE_NODE:
; 4699 :       if ( (etype == BODY) || (etype == FACET) )

	mov	eax, DWORD PTR _etype$[ebp]
	cmp	eax, 3
	je	SHORT $LN51@check_elem
	cmp	eax, 2
	jne	$LN1@check_elem
$LN51@check_elem:

; 4700 :           kb_error(1460,"No bareness for facets or bodies.\n",COMMAND_ERROR);

	push	5
	push	OFFSET ??_C@_0CD@JCOGGAAE@No?5bareness?5for?5facets?5or?5bodies@
	push	1460					; 000005b4H

; 4822 :          kb_error(1320,"No_display is only for facets.\n",
; 4823 :          COMMAND_ERROR);

	call	_kb_error
	add	esp, 12					; 0000000cH

; 4824 :          break;
; 4825 :       }
; 4826 : } // end check_element_type()

	pop	ebp
	ret	0
$LN50@check_elem:

; 4701 :       break;
; 4702 : 
; 4703 :     case GET_SHOW_NODE:
; 4704 :      if ( (etype != EDGE) && (etype != FACET) )

	mov	eax, DWORD PTR _etype$[ebp]
	cmp	eax, 1
	je	$LN1@check_elem
	cmp	eax, 2
	je	$LN1@check_elem

; 4705 :         kb_error(2243,"\"Show\" only for edges or facets.\n",COMMAND_ERROR);

	push	5
	push	OFFSET ??_C@_0CC@HLAHPKPG@?$CCShow?$CC?5only?5for?5edges?5or?5facets?4@
	push	2243					; 000008c3H

; 4822 :          kb_error(1320,"No_display is only for facets.\n",
; 4823 :          COMMAND_ERROR);

	call	_kb_error
	add	esp, 12					; 0000000cH

; 4824 :          break;
; 4825 :       }
; 4826 : } // end check_element_type()

	pop	ebp
	ret	0
$LN48@check_elem:

; 4706 :      break;
; 4707 : 
; 4708 : 
; 4709 :     case GET_ORIENTATION_NODE:
; 4710 :      if ( (etype != EDGE) && (etype != FACET) )

	mov	eax, DWORD PTR _etype$[ebp]
	cmp	eax, 1
	je	$LN1@check_elem
	cmp	eax, 2
	je	$LN1@check_elem

; 4711 :         kb_error(1461,"Orientation only for edges or facets.\n",COMMAND_ERROR);

	push	5
	push	OFFSET ??_C@_0CH@MKBFFPCD@Orientation?5only?5for?5edges?5or?5fa@
	push	1461					; 000005b5H

; 4822 :          kb_error(1320,"No_display is only for facets.\n",
; 4823 :          COMMAND_ERROR);

	call	_kb_error
	add	esp, 12					; 0000000cH

; 4824 :          break;
; 4825 :       }
; 4826 : } // end check_element_type()

	pop	ebp
	ret	0
$LN46@check_elem:

; 4712 :      break;
; 4713 : 
; 4714 :     case GET_LENGTH_NODE:
; 4715 :      if ( etype != EDGE )

	cmp	DWORD PTR _etype$[ebp], 1
	je	$LN1@check_elem

; 4716 :          kb_error(1462,"Length only for edges.\n",COMMAND_ERROR);

	push	5
	push	OFFSET ??_C@_0BI@FKEBJKIN@Length?5only?5for?5edges?4?6?$AA@
	push	1462					; 000005b6H

; 4822 :          kb_error(1320,"No_display is only for facets.\n",
; 4823 :          COMMAND_ERROR);

	call	_kb_error
	add	esp, 12					; 0000000cH

; 4824 :          break;
; 4825 :       }
; 4826 : } // end check_element_type()

	pop	ebp
	ret	0
$LN44@check_elem:

; 4717 :      break;
; 4718 : 
; 4719 :     case GET_MEANCURV_NODE:
; 4720 :      if ( etype != VERTEX )

	cmp	DWORD PTR _etype$[ebp], 0
	je	SHORT $LN43@check_elem

; 4721 :          kb_error(2872,"Mean_curvature only for vertices.\n",COMMAND_ERROR);

	push	5
	push	OFFSET ??_C@_0CD@JEGMKDIE@Mean_curvature?5only?5for?5vertices@
	push	2872					; 00000b38H
	call	_kb_error
	add	esp, 12					; 0000000cH
$LN43@check_elem:

; 4722 :      if ( web.representation == SIMPLEX )

	cmp	DWORD PTR _web+624, 3
	jne	$LN1@check_elem

; 4723 :         kb_error(3036,
; 4724 :  "Mean_curvature attribute implemented only for string and soapfilm models.\n",
; 4725 :          RECOVERABLE);

	push	1
	push	OFFSET ??_C@_0EL@EGEGNGHH@Mean_curvature?5attribute?5impleme@
	push	3036					; 00000bdcH

; 4822 :          kb_error(1320,"No_display is only for facets.\n",
; 4823 :          COMMAND_ERROR);

	call	_kb_error
	add	esp, 12					; 0000000cH

; 4824 :          break;
; 4825 :       }
; 4826 : } // end check_element_type()

	pop	ebp
	ret	0
$LN41@check_elem:

; 4726 :      break;
; 4727 : 
; 4728 :     case GET_VERTEXNORMAL_NODE:
; 4729 :      if ( etype != VERTEX )

	cmp	DWORD PTR _etype$[ebp], 0
	je	$LN1@check_elem

; 4730 :          kb_error(2244,"Facetnormal only for edges.\n",COMMAND_ERROR);

	push	5
	push	OFFSET ??_C@_0BN@KJEFMOAH@Facetnormal?5only?5for?5edges?4?6?$AA@
	push	2244					; 000008c4H

; 4822 :          kb_error(1320,"No_display is only for facets.\n",
; 4823 :          COMMAND_ERROR);

	call	_kb_error
	add	esp, 12					; 0000000cH

; 4824 :          break;
; 4825 :       }
; 4826 : } // end check_element_type()

	pop	ebp
	ret	0
$LN39@check_elem:

; 4731 :       break;
; 4732 : 
; 4733 :     case GET_FIXEDVOL_NODE:
; 4734 :      if ( etype != BODY )

	cmp	DWORD PTR _etype$[ebp], 3
	je	$LN1@check_elem

; 4735 :          kb_error(1463,"Fixedvol only for bodies.\n",COMMAND_ERROR);

	push	5
	push	OFFSET ??_C@_0BL@PAPLLPOF@Fixedvol?5only?5for?5bodies?4?6?$AA@
	push	1463					; 000005b7H

; 4822 :          kb_error(1320,"No_display is only for facets.\n",
; 4823 :          COMMAND_ERROR);

	call	_kb_error
	add	esp, 12					; 0000000cH

; 4824 :          break;
; 4825 :       }
; 4826 : } // end check_element_type()

	pop	ebp
	ret	0
$LN37@check_elem:

; 4736 :      break;
; 4737 : 
; 4738 :     case GET_WRAP_NODE:
; 4739 :      if ( etype != EDGE )

	cmp	DWORD PTR _etype$[ebp], 1
	je	$LN1@check_elem

; 4740 :          kb_error(1464,"Wrap only for edges.\n",COMMAND_ERROR);

	push	5
	push	OFFSET ??_C@_0BG@MIBFLFMI@Wrap?5only?5for?5edges?4?6?$AA@
	push	1464					; 000005b8H

; 4822 :          kb_error(1320,"No_display is only for facets.\n",
; 4823 :          COMMAND_ERROR);

	call	_kb_error
	add	esp, 12					; 0000000cH

; 4824 :          break;
; 4825 :       }
; 4826 : } // end check_element_type()

	pop	ebp
	ret	0
$LN35@check_elem:

; 4741 :      break;
; 4742 : 
; 4743 :     case GET_MID_EDGE_NODE:
; 4744 :      if ( etype != VERTEX )

	cmp	DWORD PTR _etype$[ebp], 0
	je	$LN1@check_elem

; 4745 :          kb_error(3112,"Mid_edge only for vertices.\n",COMMAND_ERROR);

	push	5
	push	OFFSET ??_C@_0BN@ECGOBLJL@Mid_edge?5only?5for?5vertices?4?6?$AA@
	push	3112					; 00000c28H

; 4822 :          kb_error(1320,"No_display is only for facets.\n",
; 4823 :          COMMAND_ERROR);

	call	_kb_error
	add	esp, 12					; 0000000cH

; 4824 :          break;
; 4825 :       }
; 4826 : } // end check_element_type()

	pop	ebp
	ret	0
$LN33@check_elem:

; 4746 :      break;
; 4747 : 
; 4748 :     case GET_MID_FACET_NODE:
; 4749 :      if ( etype != VERTEX )

	cmp	DWORD PTR _etype$[ebp], 0
	je	$LN1@check_elem

; 4750 :          kb_error(3113,"Mid_facet only for vertices.\n",COMMAND_ERROR);

	push	5
	push	OFFSET ??_C@_0BO@LCPNBOMD@Mid_facet?5only?5for?5vertices?4?6?$AA@
	push	3113					; 00000c29H

; 4822 :          kb_error(1320,"No_display is only for facets.\n",
; 4823 :          COMMAND_ERROR);

	call	_kb_error
	add	esp, 12					; 0000000cH

; 4824 :          break;
; 4825 :       }
; 4826 : } // end check_element_type()

	pop	ebp
	ret	0
$LN31@check_elem:

; 4751 :      break;
; 4752 : 
; 4753 :     case GET_DIHEDRAL_NODE:
; 4754 :      if ( web.representation == SOAPFILM )

	mov	eax, DWORD PTR _web+624
	cmp	eax, 2
	jne	SHORT $LN30@check_elem

; 4755 :      { if (etype != EDGE) 

	cmp	DWORD PTR _etype$[ebp], 1
	je	$LN1@check_elem

; 4756 :           kb_error(1465,"Dihedral only for edges.\n",COMMAND_ERROR);

	push	5
	push	OFFSET ??_C@_0BK@NOIBKFEK@Dihedral?5only?5for?5edges?4?6?$AA@
	push	1465					; 000005b9H

; 4822 :          kb_error(1320,"No_display is only for facets.\n",
; 4823 :          COMMAND_ERROR);

	call	_kb_error
	add	esp, 12					; 0000000cH

; 4824 :          break;
; 4825 :       }
; 4826 : } // end check_element_type()

	pop	ebp
	ret	0
$LN30@check_elem:

; 4757 :      }
; 4758 :      else if ( web.representation == STRING )

	cmp	eax, 1
	jne	SHORT $LN27@check_elem

; 4759 :      { if (etype != VERTEX) 

	cmp	DWORD PTR _etype$[ebp], 0
	je	$LN1@check_elem

; 4760 :          kb_error(1466,"Dihedral only for vertices.\n",COMMAND_ERROR);

	push	5
	push	OFFSET ??_C@_0BN@GAOOLKBB@Dihedral?5only?5for?5vertices?4?6?$AA@
	push	1466					; 000005baH

; 4822 :          kb_error(1320,"No_display is only for facets.\n",
; 4823 :          COMMAND_ERROR);

	call	_kb_error
	add	esp, 12					; 0000000cH

; 4824 :          break;
; 4825 :       }
; 4826 : } // end check_element_type()

	pop	ebp
	ret	0
$LN27@check_elem:

; 4761 :      }
; 4762 :      else 
; 4763 :       kb_error(1467,
; 4764 :       "Dihedral defined only for STRING and SOAPFILM models.\n",COMMAND_ERROR);

	push	5
	push	OFFSET ??_C@_0DH@DHGCMOKK@Dihedral?5defined?5only?5for?5STRING@
	push	1467					; 000005bbH

; 4822 :          kb_error(1320,"No_display is only for facets.\n",
; 4823 :          COMMAND_ERROR);

	call	_kb_error
	add	esp, 12					; 0000000cH

; 4824 :          break;
; 4825 :       }
; 4826 : } // end check_element_type()

	pop	ebp
	ret	0
$LN24@check_elem:

; 4765 :      break;
; 4766 : 
; 4767 :     case GET_AREA_NODE:
; 4768 :      if ( etype != FACET )

	cmp	DWORD PTR _etype$[ebp], 2
	je	$LN1@check_elem

; 4769 :          kb_error(1468,"Area only for facets.\n",COMMAND_ERROR);

	push	5
	push	OFFSET ??_C@_0BH@CFFJCELC@Area?5only?5for?5facets?4?6?$AA@
	push	1468					; 000005bcH

; 4822 :          kb_error(1320,"No_display is only for facets.\n",
; 4823 :          COMMAND_ERROR);

	call	_kb_error
	add	esp, 12					; 0000000cH

; 4824 :          break;
; 4825 :       }
; 4826 : } // end check_element_type()

	pop	ebp
	ret	0
$LN22@check_elem:

; 4770 :      break;
; 4771 : 
; 4772 :     case GET_EDGE_NODE:
; 4773 :      if ( etype != FACETEDGE )

	cmp	DWORD PTR _etype$[ebp], 4
	je	$LN1@check_elem

; 4774 :          kb_error(1469,"Edge only for facetedges.\n",COMMAND_ERROR);

	push	5
	push	OFFSET ??_C@_0BL@KLEOHFMJ@Edge?5only?5for?5facetedges?4?6?$AA@
	push	1469					; 000005bdH

; 4822 :          kb_error(1320,"No_display is only for facets.\n",
; 4823 :          COMMAND_ERROR);

	call	_kb_error
	add	esp, 12					; 0000000cH

; 4824 :          break;
; 4825 :       }
; 4826 : } // end check_element_type()

	pop	ebp
	ret	0
$LN20@check_elem:

; 4775 :      break;
; 4776 : 
; 4777 :     case GET_FACET_NODE:
; 4778 :      if ( etype != FACETEDGE )

	cmp	DWORD PTR _etype$[ebp], 4
	je	$LN1@check_elem

; 4779 :          kb_error(1470,"Facet only for facetedges.\n",COMMAND_ERROR);

	push	5
	push	OFFSET ??_C@_0BM@DCMEGDBD@Facet?5only?5for?5facetedges?4?6?$AA@
	push	1470					; 000005beH

; 4822 :          kb_error(1320,"No_display is only for facets.\n",
; 4823 :          COMMAND_ERROR);

	call	_kb_error
	add	esp, 12					; 0000000cH

; 4824 :          break;
; 4825 :       }
; 4826 : } // end check_element_type()

	pop	ebp
	ret	0
$LN18@check_elem:

; 4780 :      break;
; 4781 : 
; 4782 :     case GET_TARGET_NODE:
; 4783 :      if ( etype != BODY )

	cmp	DWORD PTR _etype$[ebp], 3
	je	$LN1@check_elem

; 4784 :          kb_error(1471,"Target only for bodies.\n",COMMAND_ERROR);

	push	5
	push	OFFSET ??_C@_0BJ@EFNOPFG@Target?5only?5for?5bodies?4?6?$AA@
	push	1471					; 000005bfH

; 4822 :          kb_error(1320,"No_display is only for facets.\n",
; 4823 :          COMMAND_ERROR);

	call	_kb_error
	add	esp, 12					; 0000000cH

; 4824 :          break;
; 4825 :       }
; 4826 : } // end check_element_type()

	pop	ebp
	ret	0
$LN16@check_elem:

; 4785 :      break;
; 4786 : 
; 4787 :     case GET_VOLCONST_NODE:
; 4788 :      if ( etype != BODY )

	cmp	DWORD PTR _etype$[ebp], 3
	je	$LN1@check_elem

; 4789 :          kb_error(1472,"Volconst only for bodies.\n",COMMAND_ERROR);

	push	5
	push	OFFSET ??_C@_0BL@OFNMICCI@Volconst?5only?5for?5bodies?4?6?$AA@
	push	1472					; 000005c0H

; 4822 :          kb_error(1320,"No_display is only for facets.\n",
; 4823 :          COMMAND_ERROR);

	call	_kb_error
	add	esp, 12					; 0000000cH

; 4824 :          break;
; 4825 :       }
; 4826 : } // end check_element_type()

	pop	ebp
	ret	0
$LN14@check_elem:

; 4790 :      break;
; 4791 : 
; 4792 :     case GET_VOLUME_NODE:
; 4793 :      if ( etype != BODY )

	cmp	DWORD PTR _etype$[ebp], 3
	je	$LN1@check_elem

; 4794 :          kb_error(1473,"Volume only for bodies.\n",COMMAND_ERROR);

	push	5
	push	OFFSET ??_C@_0BJ@DNPOAKCB@Volume?5only?5for?5bodies?4?6?$AA@
	push	1473					; 000005c1H

; 4822 :          kb_error(1320,"No_display is only for facets.\n",
; 4823 :          COMMAND_ERROR);

	call	_kb_error
	add	esp, 12					; 0000000cH

; 4824 :          break;
; 4825 :       }
; 4826 : } // end check_element_type()

	pop	ebp
	ret	0
$LN12@check_elem:

; 4795 :      break;
; 4796 : 
; 4797 :     case GET_DENSITY_NODE:
; 4798 :      if ( etype == VERTEX )

	cmp	DWORD PTR _etype$[ebp], 0
	jne	$LN1@check_elem

; 4799 :          kb_error(1474,"No density for vertices.\n",COMMAND_ERROR);

	push	5
	push	OFFSET ??_C@_0BK@INAMPMOC@No?5density?5for?5vertices?4?6?$AA@
	push	1474					; 000005c2H

; 4822 :          kb_error(1320,"No_display is only for facets.\n",
; 4823 :          COMMAND_ERROR);

	call	_kb_error
	add	esp, 12					; 0000000cH

; 4824 :          break;
; 4825 :       }
; 4826 : } // end check_element_type()

	pop	ebp
	ret	0
$LN10@check_elem:

; 4800 :      break;
; 4801 : 
; 4802 :     case SET_HIT_PARTNER_NODE:
; 4803 :      if ( etype != VERTEX )

	cmp	DWORD PTR _etype$[ebp], 0
	je	SHORT $LN1@check_elem

; 4804 :          kb_error(3003,"Hit_partner only for vertices.\n",
; 4805 :            COMMAND_ERROR);

	push	5
	push	OFFSET ??_C@_0CA@FHFDHGGE@Hit_partner?5only?5for?5vertices?4?6?$AA@
	push	3003					; 00000bbbH

; 4822 :          kb_error(1320,"No_display is only for facets.\n",
; 4823 :          COMMAND_ERROR);

	call	_kb_error
	add	esp, 12					; 0000000cH

; 4824 :          break;
; 4825 :       }
; 4826 : } // end check_element_type()

	pop	ebp
	ret	0
$LN8@check_elem:

; 4806 :      break;
; 4807 : 
; 4808 :     case SET_NO_REFINE_NODE:
; 4809 :      if ( etype == BODY || etype == VERTEX )

	mov	eax, DWORD PTR _etype$[ebp]
	cmp	eax, 3
	je	SHORT $LN6@check_elem
	test	eax, eax
	jne	SHORT $LN1@check_elem
$LN6@check_elem:

; 4810 :          kb_error(1494,"No no_refine for vertices or bodies.\n",
; 4811 :            COMMAND_ERROR);

	push	5
	push	OFFSET ??_C@_0CG@FHLFDHCM@No?5no_refine?5for?5vertices?5or?5bod@
	push	1494					; 000005d6H

; 4822 :          kb_error(1320,"No_display is only for facets.\n",
; 4823 :          COMMAND_ERROR);

	call	_kb_error
	add	esp, 12					; 0000000cH

; 4824 :          break;
; 4825 :       }
; 4826 : } // end check_element_type()

	pop	ebp
	ret	0
$LN5@check_elem:

; 4812 :      break;
; 4813 : 
; 4814 :     case SET_NO_TRANSFORM_NODE:
; 4815 :      if ( etype == BODY || etype == VERTEX )

	mov	eax, DWORD PTR _etype$[ebp]
	cmp	eax, 3
	je	SHORT $LN3@check_elem
	test	eax, eax
	jne	SHORT $LN1@check_elem
$LN3@check_elem:

; 4816 :          kb_error(3034,"No no_transform for vertices or bodies.\n",
; 4817 :            COMMAND_ERROR);

	push	5
	push	OFFSET ??_C@_0CJ@EDKJMKM@No?5no_transform?5for?5vertices?5or?5@
	push	3034					; 00000bdaH

; 4822 :          kb_error(1320,"No_display is only for facets.\n",
; 4823 :          COMMAND_ERROR);

	call	_kb_error
	add	esp, 12					; 0000000cH

; 4824 :          break;
; 4825 :       }
; 4826 : } // end check_element_type()

	pop	ebp
	ret	0
$LN2@check_elem:

; 4818 :      break;
; 4819 : 
; 4820 :     case SET_NO_DISPLAY_NODE:
; 4821 :      if ( etype != FACET )

	cmp	DWORD PTR _etype$[ebp], 2
	je	SHORT $LN1@check_elem

; 4822 :          kb_error(1320,"No_display is only for facets.\n",
; 4823 :          COMMAND_ERROR);

	push	5
	push	OFFSET ??_C@_0CA@EHOENKHA@No_display?5is?5only?5for?5facets?4?6?$AA@
	push	1320					; 00000528H
	call	_kb_error
	add	esp, 12					; 0000000cH
$LN1@check_elem:

; 4824 :          break;
; 4825 :       }
; 4826 : } // end check_element_type()

	pop	ebp
	ret	0
	npad	1
$LN71@check_elem:
	DD	$LN41@check_elem
	DD	$LN62@check_elem
	DD	$LN39@check_elem
	DD	$LN44@check_elem
	DD	$LN46@check_elem
	DD	$LN31@check_elem
	DD	$LN48@check_elem
	DD	$LN22@check_elem
	DD	$LN20@check_elem
	DD	$LN24@check_elem
	DD	$LN35@check_elem
	DD	$LN33@check_elem
	DD	$LN37@check_elem
	DD	$LN12@check_elem
	DD	$LN14@check_elem
	DD	$LN16@check_elem
	DD	$LN18@check_elem
	DD	$LN55@check_elem
	DD	$LN57@check_elem
	DD	$LN60@check_elem
	DD	$LN53@check_elem
	DD	$LN64@check_elem
	DD	$LN50@check_elem
	DD	$LN2@check_elem
	DD	$LN10@check_elem
	DD	$LN8@check_elem
	DD	$LN5@check_elem
	DD	$LN1@check_elem
$LN69@check_elem:
	DB	0
	DB	27					; 0000001bH
	DB	1
	DB	2
	DB	27					; 0000001bH
	DB	3
	DB	4
	DB	5
	DB	6
	DB	27					; 0000001bH
	DB	27					; 0000001bH
	DB	7
	DB	8
	DB	27					; 0000001bH
	DB	9
	DB	10					; 0000000aH
	DB	11					; 0000000bH
	DB	12					; 0000000cH
	DB	27					; 0000001bH
	DB	27					; 0000001bH
	DB	27					; 0000001bH
	DB	27					; 0000001bH
	DB	27					; 0000001bH
	DB	13					; 0000000dH
	DB	27					; 0000001bH
	DB	14					; 0000000eH
	DB	15					; 0000000fH
	DB	16					; 00000010H
	DB	27					; 0000001bH
	DB	27					; 0000001bH
	DB	27					; 0000001bH
	DB	27					; 0000001bH
	DB	27					; 0000001bH
	DB	27					; 0000001bH
	DB	17					; 00000011H
	DB	18					; 00000012H
	DB	18					; 00000012H
	DB	19					; 00000013H
	DB	19					; 00000013H
	DB	20					; 00000014H
	DB	21					; 00000015H
	DB	27					; 0000001bH
	DB	27					; 0000001bH
	DB	27					; 0000001bH
	DB	27					; 0000001bH
	DB	27					; 0000001bH
	DB	27					; 0000001bH
	DB	27					; 0000001bH
	DB	27					; 0000001bH
	DB	27					; 0000001bH
	DB	27					; 0000001bH
	DB	27					; 0000001bH
	DB	27					; 0000001bH
	DB	22					; 00000016H
	DB	27					; 0000001bH
	DB	27					; 0000001bH
	DB	27					; 0000001bH
	DB	27					; 0000001bH
	DB	27					; 0000001bH
	DB	27					; 0000001bH
	DB	27					; 0000001bH
	DB	27					; 0000001bH
	DB	27					; 0000001bH
	DB	27					; 0000001bH
	DB	27					; 0000001bH
	DB	27					; 0000001bH
	DB	27					; 0000001bH
	DB	27					; 0000001bH
	DB	27					; 0000001bH
	DB	27					; 0000001bH
	DB	27					; 0000001bH
	DB	27					; 0000001bH
	DB	27					; 0000001bH
	DB	27					; 0000001bH
	DB	27					; 0000001bH
	DB	27					; 0000001bH
	DB	27					; 0000001bH
	DB	27					; 0000001bH
	DB	27					; 0000001bH
	DB	27					; 0000001bH
	DB	27					; 0000001bH
	DB	27					; 0000001bH
	DB	27					; 0000001bH
	DB	27					; 0000001bH
	DB	27					; 0000001bH
	DB	27					; 0000001bH
	DB	27					; 0000001bH
	DB	27					; 0000001bH
	DB	27					; 0000001bH
	DB	27					; 0000001bH
	DB	27					; 0000001bH
	DB	27					; 0000001bH
	DB	27					; 0000001bH
	DB	27					; 0000001bH
	DB	27					; 0000001bH
	DB	27					; 0000001bH
	DB	27					; 0000001bH
	DB	27					; 0000001bH
	DB	27					; 0000001bH
	DB	27					; 0000001bH
	DB	27					; 0000001bH
	DB	27					; 0000001bH
	DB	27					; 0000001bH
	DB	27					; 0000001bH
	DB	27					; 0000001bH
	DB	27					; 0000001bH
	DB	23					; 00000017H
	DB	27					; 0000001bH
	DB	27					; 0000001bH
	DB	27					; 0000001bH
	DB	24					; 00000018H
	DB	27					; 0000001bH
	DB	27					; 0000001bH
	DB	27					; 0000001bH
	DB	25					; 00000019H
	DB	27					; 0000001bH
	DB	26					; 0000001aH
_check_element_type ENDP
_TEXT	ENDS
PUBLIC	_check_array_dims_same
EXTRN	_dymem:DWORD
EXTRN	_localbase:DWORD
; Function compile flags: /Ogtp
;	COMDAT _check_array_dims_same
_TEXT	SEGMENT
_left$ = 8						; size = 4
_afixed$ = 12						; size = 4
_right$ = 16						; size = 4
_bfixed$ = 20						; size = 4
_check_array_dims_same PROC				; COMDAT

; 4843 : {

	push	ebp
	mov	ebp, esp

; 4844 :   struct array *alvalue;
; 4845 :   struct array *arvalue;
; 4846 :   int adim,bdim;
; 4847 : 
; 4848 :   if ( (left & GTYPEMASK) == ATTRIBNAME )

	mov	eax, DWORD PTR _left$[ebp]
	push	ebx
	mov	ebx, DWORD PTR _localbase
	mov	ecx, eax
	push	esi
	and	ecx, -268435456				; f0000000H
	push	edi
	mov	edi, DWORD PTR _web+5652
	cmp	ecx, 1073741824				; 40000000H
	jne	SHORT $LN4@check_arra

; 4849 :   { struct extra *ex = EXTRAS(name_eltype(left)) + (left & GLOBMASK);
; 4850 :     alvalue = &(ex->array_spec);
; 4851 :     adim = alvalue->dim;

	mov	edx, eax
	sar	edx, 24					; 00000018H
	and	edx, 15					; 0000000fH
	and	eax, 16777215				; 00ffffffH
	imul	edx, 112				; 00000070H
	imul	eax, 240				; 000000f0H
	add	eax, DWORD PTR _web[edx+104]
	mov	edx, DWORD PTR _dymem
	mov	eax, DWORD PTR [eax+edx+76]

; 4852 :   }
; 4853 :   else

	jmp	SHORT $LN3@check_arra
$LN4@check_arra:

; 4854 :   { struct global *glvalue = globals(left);

	mov	edx, DWORD PTR _dymem
	mov	ecx, eax
	and	ecx, -16777216				; ff000000H
	cmp	ecx, 268435456				; 10000000H
	je	SHORT $LN7@check_arra
	cmp	ecx, 805306368				; 30000000H
	jne	SHORT $LN9@check_arra
	and	eax, 16777215				; 00ffffffH
	imul	eax, 224				; 000000e0H
	add	eax, DWORD PTR [ebx]
	jmp	SHORT $LN8@check_arra
$LN9@check_arra:
	cmp	ecx, 536870912				; 20000000H
	jne	SHORT $LN7@check_arra
	mov	ecx, DWORD PTR _web+5656
	and	eax, 16777215				; 00ffffffH
	mov	eax, DWORD PTR [ecx+eax*4]
	jmp	SHORT $LN8@check_arra
$LN7@check_arra:
	and	eax, 16777215				; 00ffffffH
	lea	eax, DWORD PTR [edi+eax*4]
	mov	eax, DWORD PTR [eax+edx]
$LN8@check_arra:

; 4855 :     adim = glvalue->attr.arrayptr->dim;

	mov	ecx, DWORD PTR [eax+168]
	mov	eax, DWORD PTR [ecx+4]
$LN3@check_arra:

; 4856 :   }
; 4857 :   if ( (right & GTYPEMASK) == ATTRIBNAME )

	mov	ecx, DWORD PTR _right$[ebp]
	mov	esi, ecx
	and	esi, -268435456				; f0000000H
	cmp	esi, 1073741824				; 40000000H

; 4858 :   { struct extra *ex = EXTRAS(name_eltype(right)) + (right & GLOBMASK);
; 4859 :     arvalue = &(ex->array_spec);
; 4860 :     bdim = arvalue->dim;

	mov	esi, ecx
	jne	SHORT $LN2@check_arra

; 4866 :  }
; 4867 : 
; 4868 :   return (adim-afixed) == (bdim-bfixed);

	sub	eax, DWORD PTR _afixed$[ebp]
	sar	esi, 24					; 00000018H
	and	ecx, 16777215				; 00ffffffH
	and	esi, 15					; 0000000fH
	imul	ecx, 240				; 000000f0H
	imul	esi, 112				; 00000070H
	add	ecx, DWORD PTR _web[esi+104]
	pop	edi
	mov	ecx, DWORD PTR [ecx+edx+76]
	sub	ecx, DWORD PTR _bfixed$[ebp]
	xor	edx, edx
	cmp	eax, ecx
	sete	dl
	pop	esi
	pop	ebx
	mov	eax, edx

; 4869 : } // end check_array_dims_same()

	pop	ebp
	ret	0
$LN2@check_arra:

; 4861 :  }
; 4862 :   else
; 4863 :   { struct global *grvalue = globals(right);

	and	esi, -16777216				; ff000000H
	cmp	esi, 268435456				; 10000000H
	je	SHORT $LN13@check_arra
	cmp	esi, 805306368				; 30000000H
	jne	SHORT $LN15@check_arra
	and	ecx, 16777215				; 00ffffffH
	imul	ecx, 224				; 000000e0H
	add	ecx, DWORD PTR [ebx]
	jmp	SHORT $LN14@check_arra
$LN15@check_arra:
	cmp	esi, 536870912				; 20000000H
	jne	SHORT $LN13@check_arra
	mov	edx, DWORD PTR _web+5656
	and	ecx, 16777215				; 00ffffffH
	mov	ecx, DWORD PTR [edx+ecx*4]
	jmp	SHORT $LN14@check_arra
$LN13@check_arra:
	and	ecx, 16777215				; 00ffffffH
	lea	ecx, DWORD PTR [edi+ecx*4]
	mov	ecx, DWORD PTR [ecx+edx]
$LN14@check_arra:

; 4864 :     arvalue = grvalue->attr.arrayptr;
; 4865 :     bdim = grvalue->attr.arrayptr->dim;

	mov	edx, DWORD PTR [ecx+168]
	mov	ecx, DWORD PTR [edx+4]

; 4866 :  }
; 4867 : 
; 4868 :   return (adim-afixed) == (bdim-bfixed);

	sub	eax, DWORD PTR _afixed$[ebp]
	sub	ecx, DWORD PTR _bfixed$[ebp]
	xor	edx, edx
	cmp	eax, ecx
	sete	dl
	pop	edi
	pop	esi
	pop	ebx
	mov	eax, edx

; 4869 : } // end check_array_dims_same()

	pop	ebp
	ret	0
_check_array_dims_same ENDP
_TEXT	ENDS
PUBLIC	_check_array_dims_for_mult
; Function compile flags: /Ogtp
;	COMDAT _check_array_dims_for_mult
_TEXT	SEGMENT
_left$ = 8						; size = 4
_afixed$ = 12						; size = 4
_right1$ = 16						; size = 4
_bfixed$ = 20						; size = 4
_right2$ = 24						; size = 4
_cfixed$ = 28						; size = 4
_check_array_dims_for_mult PROC				; COMDAT

; 4889 : {

	push	ebp
	mov	ebp, esp

; 4890 :   struct array *alvalue;
; 4891 :   struct array *ar1value,*ar2value;
; 4892 :   int adim,bdim,cdim;
; 4893 : 
; 4894 :   if ( (left & GTYPEMASK) == ATTRIBNAME )

	mov	eax, DWORD PTR _left$[ebp]
	push	ebx
	mov	ecx, eax
	push	esi
	and	ecx, -268435456				; f0000000H
	push	edi
	mov	edi, DWORD PTR _web+5652
	cmp	ecx, 1073741824				; 40000000H
	jne	SHORT $LN6@check_arra@2

; 4895 :   { struct extra *ex = EXTRAS(name_eltype(left)) + (left & GLOBMASK);
; 4896 :     alvalue = &(ex->array_spec);
; 4897 :     adim = alvalue->dim;

	mov	edx, eax
	sar	edx, 24					; 00000018H
	and	edx, 15					; 0000000fH
	and	eax, 16777215				; 00ffffffH
	imul	edx, 112				; 00000070H
	imul	eax, 240				; 000000f0H
	add	eax, DWORD PTR _web[edx+104]
	mov	edx, DWORD PTR _dymem
	mov	ebx, DWORD PTR [eax+edx+76]

; 4898 :   }
; 4899 :   else

	jmp	SHORT $LN5@check_arra@2
$LN6@check_arra@2:

; 4900 :   { struct global *glvalue = globals(left);

	mov	edx, DWORD PTR _dymem
	mov	ecx, eax
	and	ecx, -16777216				; ff000000H
	cmp	ecx, 268435456				; 10000000H
	je	SHORT $LN9@check_arra@2
	cmp	ecx, 805306368				; 30000000H
	jne	SHORT $LN11@check_arra@2
	mov	ecx, DWORD PTR _localbase
	and	eax, 16777215				; 00ffffffH
	imul	eax, 224				; 000000e0H
	add	eax, DWORD PTR [ecx]
	jmp	SHORT $LN10@check_arra@2
$LN11@check_arra@2:
	cmp	ecx, 536870912				; 20000000H
	jne	SHORT $LN9@check_arra@2
	mov	ecx, DWORD PTR _web+5656
	and	eax, 16777215				; 00ffffffH
	mov	eax, DWORD PTR [ecx+eax*4]
	jmp	SHORT $LN10@check_arra@2
$LN9@check_arra@2:
	and	eax, 16777215				; 00ffffffH
	lea	eax, DWORD PTR [edi+eax*4]
	mov	eax, DWORD PTR [eax+edx]
$LN10@check_arra@2:

; 4901 :     adim = glvalue->attr.arrayptr->dim;

	mov	ecx, DWORD PTR [eax+168]
	mov	ebx, DWORD PTR [ecx+4]
$LN5@check_arra@2:

; 4902 :   }
; 4903 : 
; 4904 :   if ( (right1 & GTYPEMASK) == ATTRIBNAME )

	mov	ecx, DWORD PTR _right1$[ebp]
	mov	eax, ecx
	and	eax, -268435456				; f0000000H
	cmp	eax, 1073741824				; 40000000H
	jne	SHORT $LN4@check_arra@2

; 4905 :   { struct extra *ex = EXTRAS(name_eltype(right1)) + (right1 & GLOBMASK);
; 4906 :     ar1value = &(ex->array_spec);
; 4907 :     bdim = ar1value->dim;

	mov	eax, ecx
	sar	eax, 24					; 00000018H
	and	eax, 15					; 0000000fH
	and	ecx, 16777215				; 00ffffffH
	imul	eax, 112				; 00000070H
	imul	ecx, 240				; 000000f0H
	add	ecx, DWORD PTR _web[eax+104]
	mov	eax, DWORD PTR [ecx+edx+76]

; 4908 :  }
; 4909 :   else

	jmp	SHORT $LN3@check_arra@2
$LN4@check_arra@2:

; 4910 :   { struct global *grvalue = globals(right1);

	mov	esi, ecx
	and	esi, -16777216				; ff000000H
	cmp	esi, 268435456				; 10000000H
	je	SHORT $LN15@check_arra@2
	cmp	esi, 805306368				; 30000000H
	jne	SHORT $LN17@check_arra@2
	mov	eax, DWORD PTR _localbase
	and	ecx, 16777215				; 00ffffffH
	imul	ecx, 224				; 000000e0H
	add	ecx, DWORD PTR [eax]
	jmp	SHORT $LN16@check_arra@2
$LN17@check_arra@2:
	cmp	esi, 536870912				; 20000000H
	jne	SHORT $LN15@check_arra@2
	mov	eax, DWORD PTR _web+5656
	and	ecx, 16777215				; 00ffffffH
	mov	ecx, DWORD PTR [eax+ecx*4]
	jmp	SHORT $LN16@check_arra@2
$LN15@check_arra@2:
	and	ecx, 16777215				; 00ffffffH
	lea	ecx, DWORD PTR [edi+ecx*4]
	mov	ecx, DWORD PTR [ecx+edx]
$LN16@check_arra@2:

; 4911 :     ar1value = grvalue->attr.arrayptr;
; 4912 :     bdim = grvalue->attr.arrayptr->dim;

	mov	eax, DWORD PTR [ecx+168]
	mov	eax, DWORD PTR [eax+4]
$LN3@check_arra@2:

; 4913 :  }
; 4914 : 
; 4915 :   if ( (right2 & GTYPEMASK) == ATTRIBNAME )

	mov	ecx, DWORD PTR _right2$[ebp]
	mov	esi, ecx
	and	esi, -268435456				; f0000000H
	cmp	esi, 1073741824				; 40000000H

; 4916 :   { struct extra *ex = EXTRAS(name_eltype(right2)) + (right2 & GLOBMASK);
; 4917 :     ar2value = &(ex->array_spec);
; 4918 :     cdim = ar2value->dim;

	mov	esi, ecx
	jne	SHORT $LN2@check_arra@2
	sar	esi, 24					; 00000018H
	and	ecx, 16777215				; 00ffffffH
	and	esi, 15					; 0000000fH
	imul	ecx, 240				; 000000f0H
	imul	esi, 112				; 00000070H
	add	ecx, DWORD PTR _web[esi+104]
	mov	ecx, DWORD PTR [ecx+edx+76]

; 4919 :  }
; 4920 :   else

	jmp	SHORT $LN1@check_arra@2
$LN2@check_arra@2:

; 4921 :   { struct global *grvalue = globals(right2);

	and	esi, -16777216				; ff000000H
	cmp	esi, 268435456				; 10000000H
	je	SHORT $LN21@check_arra@2
	cmp	esi, 805306368				; 30000000H
	jne	SHORT $LN23@check_arra@2
	mov	edx, DWORD PTR _localbase
	and	ecx, 16777215				; 00ffffffH
	imul	ecx, 224				; 000000e0H
	add	ecx, DWORD PTR [edx]
	jmp	SHORT $LN22@check_arra@2
$LN23@check_arra@2:
	cmp	esi, 536870912				; 20000000H
	jne	SHORT $LN21@check_arra@2
	mov	edx, DWORD PTR _web+5656
	and	ecx, 16777215				; 00ffffffH
	mov	ecx, DWORD PTR [edx+ecx*4]
	jmp	SHORT $LN22@check_arra@2
$LN21@check_arra@2:
	and	ecx, 16777215				; 00ffffffH
	lea	ecx, DWORD PTR [edi+ecx*4]
	mov	ecx, DWORD PTR [ecx+edx]
$LN22@check_arra@2:

; 4922 :     ar2value = grvalue->attr.arrayptr;
; 4923 :     cdim = grvalue->attr.arrayptr->dim;

	mov	edx, DWORD PTR [ecx+168]
	mov	ecx, DWORD PTR [edx+4]
$LN1@check_arra@2:

; 4924 :  }
; 4925 : 
; 4926 :   return (adim-afixed) == (bdim-bfixed) + (cdim-cfixed) - 2;

	sub	ecx, DWORD PTR _bfixed$[ebp]
	sub	ebx, DWORD PTR _afixed$[ebp]
	sub	ecx, DWORD PTR _cfixed$[ebp]
	pop	edi
	lea	eax, DWORD PTR [ecx+eax-2]
	xor	ecx, ecx
	cmp	ebx, eax
	sete	cl
	pop	esi
	pop	ebx
	mov	eax, ecx

; 4927 : } // end check_array_dims_for_mult()

	pop	ebp
	ret	0
_check_array_dims_for_mult ENDP
_TEXT	ENDS
PUBLIC	_check_recalc_attr
; Function compile flags: /Ogtp
;	COMDAT _check_recalc_attr
_TEXT	SEGMENT
_name_id$ = 8						; size = 4
_check_recalc_attr PROC					; COMDAT

; 4937 : {

	push	ebp
	mov	ebp, esp

; 4938 :   switch (name_id & GTYPEMASK)

	mov	eax, DWORD PTR _name_id$[ebp]
	mov	ecx, eax
	and	ecx, -268435456				; f0000000H
	cmp	ecx, 268435456				; 10000000H
	je	SHORT $LN1@check_reca
	cmp	ecx, 536870912				; 20000000H
	je	SHORT $LN1@check_reca
	cmp	ecx, 1073741824				; 40000000H
	je	SHORT $LN2@check_reca

; 4947 :       }
; 4948 :   }
; 4949 :   return 0;

	xor	eax, eax

; 4950 : } // end check_recalc_attr()

	pop	ebp
	ret	0
$LN2@check_reca:

; 4939 :   { case ATTRIBNAME:
; 4940 :     { struct extra *ex = EXTRAS(name_eltype(name_id)) + (name_id & GLOBMASK);
; 4941 :       return ex->flags & RECALC_ATTR;

	mov	edx, DWORD PTR _dymem
	mov	ecx, eax
	sar	ecx, 24					; 00000018H
	and	eax, 16777215				; 00ffffffH
	and	ecx, 15					; 0000000fH
	imul	eax, 240				; 000000f0H
	imul	ecx, 112				; 00000070H
	add	eax, DWORD PTR _web[ecx+104]
	mov	eax, DWORD PTR [eax+edx+232]
	and	eax, 8

; 4950 : } // end check_recalc_attr()

	pop	ebp
	ret	0
$LN1@check_reca:

; 4942 :     }
; 4943 :     case EPHGLOBAL:
; 4944 :     case PERMGLOBAL:
; 4945 :       { struct global *g = globals(name_id);

	mov	ecx, eax
	and	ecx, -16777216				; ff000000H
	cmp	ecx, 268435456				; 10000000H
	je	SHORT $LN7@check_reca
	cmp	ecx, 805306368				; 30000000H
	jne	SHORT $LN9@check_reca
	mov	ecx, DWORD PTR _localbase
	and	eax, 16777215				; 00ffffffH
	imul	eax, 224				; 000000e0H
	add	eax, DWORD PTR [ecx]

; 4946 :         return g->flags & ALWAYS_RECALC;

	mov	eax, DWORD PTR [eax+192]
	and	eax, 134217728				; 08000000H

; 4950 : } // end check_recalc_attr()

	pop	ebp
	ret	0
$LN9@check_reca:

; 4942 :     }
; 4943 :     case EPHGLOBAL:
; 4944 :     case PERMGLOBAL:
; 4945 :       { struct global *g = globals(name_id);

	cmp	ecx, 536870912				; 20000000H
	jne	SHORT $LN7@check_reca
	mov	edx, DWORD PTR _web+5656
	and	eax, 16777215				; 00ffffffH
	mov	eax, DWORD PTR [edx+eax*4]

; 4946 :         return g->flags & ALWAYS_RECALC;

	mov	eax, DWORD PTR [eax+192]
	and	eax, 134217728				; 08000000H

; 4950 : } // end check_recalc_attr()

	pop	ebp
	ret	0
$LN7@check_reca:

; 4942 :     }
; 4943 :     case EPHGLOBAL:
; 4944 :     case PERMGLOBAL:
; 4945 :       { struct global *g = globals(name_id);

	mov	ecx, DWORD PTR _web+5652
	and	eax, 16777215				; 00ffffffH
	lea	edx, DWORD PTR [ecx+eax*4]
	mov	eax, DWORD PTR _dymem
	mov	eax, DWORD PTR [edx+eax]

; 4946 :         return g->flags & ALWAYS_RECALC;

	mov	eax, DWORD PTR [eax+192]
	and	eax, 134217728				; 08000000H

; 4950 : } // end check_recalc_attr()

	pop	ebp
	ret	0
_check_recalc_attr ENDP
_TEXT	ENDS
PUBLIC	_check_dont_resize_attr
; Function compile flags: /Ogtp
;	COMDAT _check_dont_resize_attr
_TEXT	SEGMENT
_name_id$ = 8						; size = 4
_check_dont_resize_attr PROC				; COMDAT

; 4961 : {

	push	ebp
	mov	ebp, esp

; 4962 :   switch (name_id & GTYPEMASK)

	mov	eax, DWORD PTR _name_id$[ebp]
	mov	ecx, eax
	and	ecx, -268435456				; f0000000H
	cmp	ecx, 268435456				; 10000000H
	je	SHORT $LN1@check_dont
	cmp	ecx, 536870912				; 20000000H
	je	SHORT $LN1@check_dont

; 4968 :       }
; 4969 :   }
; 4970 :   return 0;

	xor	eax, eax

; 4971 : } // end check_dont_resize_attr()

	pop	ebp
	ret	0
$LN1@check_dont:

; 4963 :   { 
; 4964 :     case EPHGLOBAL:
; 4965 :     case PERMGLOBAL:
; 4966 :       { struct global *g = globals(name_id);

	mov	ecx, eax
	and	ecx, -16777216				; ff000000H
	cmp	ecx, 268435456				; 10000000H
	je	SHORT $LN6@check_dont
	cmp	ecx, 805306368				; 30000000H
	jne	SHORT $LN8@check_dont
	mov	ecx, DWORD PTR _localbase
	and	eax, 16777215				; 00ffffffH
	imul	eax, 224				; 000000e0H
	add	eax, DWORD PTR [ecx]

; 4967 :         return g->flags & DONT_RESIZE;

	mov	eax, DWORD PTR [eax+192]
	and	eax, 1073741824				; 40000000H

; 4971 : } // end check_dont_resize_attr()

	pop	ebp
	ret	0
$LN8@check_dont:

; 4963 :   { 
; 4964 :     case EPHGLOBAL:
; 4965 :     case PERMGLOBAL:
; 4966 :       { struct global *g = globals(name_id);

	cmp	ecx, 536870912				; 20000000H
	jne	SHORT $LN6@check_dont
	mov	edx, DWORD PTR _web+5656
	and	eax, 16777215				; 00ffffffH
	mov	eax, DWORD PTR [edx+eax*4]

; 4967 :         return g->flags & DONT_RESIZE;

	mov	eax, DWORD PTR [eax+192]
	and	eax, 1073741824				; 40000000H

; 4971 : } // end check_dont_resize_attr()

	pop	ebp
	ret	0
$LN6@check_dont:

; 4963 :   { 
; 4964 :     case EPHGLOBAL:
; 4965 :     case PERMGLOBAL:
; 4966 :       { struct global *g = globals(name_id);

	mov	ecx, DWORD PTR _web+5652
	and	eax, 16777215				; 00ffffffH
	lea	edx, DWORD PTR [ecx+eax*4]
	mov	eax, DWORD PTR _dymem
	mov	eax, DWORD PTR [edx+eax]

; 4967 :         return g->flags & DONT_RESIZE;

	mov	eax, DWORD PTR [eax+192]
	and	eax, 1073741824				; 40000000H

; 4971 : } // end check_dont_resize_attr()

	pop	ebp
	ret	0
_check_dont_resize_attr ENDP
_TEXT	ENDS
PUBLIC	??_C@_0BN@GLOMOJEF@?$CFs?5is?5a?5read?9only?5variable?4?6?$AA@ ; `string'
PUBLIC	??_C@_0BO@KBHFLGLJ@?$CFs?5is?5a?5read?9only?5attribute?4?6?$AA@ ; `string'
PUBLIC	_check_readonly_attr
;	COMDAT ??_C@_0BN@GLOMOJEF@?$CFs?5is?5a?5read?9only?5variable?4?6?$AA@
CONST	SEGMENT
??_C@_0BN@GLOMOJEF@?$CFs?5is?5a?5read?9only?5variable?4?6?$AA@ DB '%s is '
	DB	'a read-only variable.', 0aH, 00H		; `string'
CONST	ENDS
;	COMDAT ??_C@_0BO@KBHFLGLJ@?$CFs?5is?5a?5read?9only?5attribute?4?6?$AA@
CONST	SEGMENT
??_C@_0BO@KBHFLGLJ@?$CFs?5is?5a?5read?9only?5attribute?4?6?$AA@ DB '%s is'
	DB	' a read-only attribute.', 0aH, 00H		; `string'
; Function compile flags: /Ogtp
CONST	ENDS
;	COMDAT _check_readonly_attr
_TEXT	SEGMENT
_name_id$ = 8						; size = 4
_check_readonly_attr PROC				; COMDAT

; 4981 : {

	push	ebp
	mov	ebp, esp

; 4982 :   if ( (name_id & GTYPEMASK) == ATTRIBNAME )

	mov	eax, DWORD PTR _name_id$[ebp]
	mov	ecx, eax
	and	ecx, -268435456				; f0000000H
	cmp	ecx, 1073741824				; 40000000H
	jne	SHORT $LN4@check_read

; 4983 :   { struct extra *ex = EXTRAS(name_eltype(name_id)) + (name_id & GLOBMASK);

	mov	edx, eax
	sar	edx, 24					; 00000018H
	and	edx, 15					; 0000000fH
	imul	edx, 112				; 00000070H
	mov	ecx, DWORD PTR _web[edx+104]
	and	eax, 16777215				; 00ffffffH
	imul	eax, 240				; 000000f0H
	add	ecx, eax
	add	ecx, DWORD PTR _dymem

; 4984 :     if ( ex->flags & READ_ONLY_ATTR )

	test	BYTE PTR [ecx+232], 16			; 00000010H
	je	$LN1@check_read

; 4985 :     { sprintf(errmsg,"%s is a read-only attribute.\n",ex->name);

	push	ecx
	push	OFFSET ??_C@_0BO@KBHFLGLJ@?$CFs?5is?5a?5read?9only?5attribute?4?6?$AA@
	push	OFFSET _errmsg
	call	_sprintf

; 4986 :       kb_error(3017,errmsg,COMMAND_ERROR);

	push	5
	push	OFFSET _errmsg
	push	3017					; 00000bc9H

; 4994 :       kb_error(3018,errmsg,COMMAND_ERROR);

	call	_kb_error
	add	esp, 24					; 00000018H

; 4995 :     }
; 4996 :   }
; 4997 :     
; 4998 : } /* end check_readonly_attr() */

	pop	ebp
	ret	0
$LN4@check_read:

; 4987 :     }
; 4988 :   }
; 4989 :   else /* regular global */
; 4990 :   { struct global *g;
; 4991 :     g = globals(name_id);

	mov	ecx, eax
	and	ecx, -16777216				; ff000000H
	cmp	ecx, 268435456				; 10000000H
	je	SHORT $LN7@check_read
	cmp	ecx, 805306368				; 30000000H
	jne	SHORT $LN9@check_read
	mov	ecx, DWORD PTR _localbase
	and	eax, 16777215				; 00ffffffH
	imul	eax, 224				; 000000e0H
	add	eax, DWORD PTR [ecx]
	jmp	SHORT $LN8@check_read
$LN9@check_read:
	cmp	ecx, 536870912				; 20000000H
	jne	SHORT $LN7@check_read
	mov	edx, DWORD PTR _web+5656
	and	eax, 16777215				; 00ffffffH
	mov	eax, DWORD PTR [edx+eax*4]
	jmp	SHORT $LN8@check_read
$LN7@check_read:
	mov	ecx, DWORD PTR _web+5652
	and	eax, 16777215				; 00ffffffH
	lea	edx, DWORD PTR [ecx+eax*4]
	mov	eax, DWORD PTR _dymem
	mov	eax, DWORD PTR [edx+eax]
$LN8@check_read:

; 4992 :     if ( g->flags & READONLY )

	test	DWORD PTR [eax+192], 8388608		; 00800000H
	je	SHORT $LN1@check_read

; 4993 :     { sprintf(errmsg,"%s is a read-only variable.\n",g->name);

	push	eax
	push	OFFSET ??_C@_0BN@GLOMOJEF@?$CFs?5is?5a?5read?9only?5variable?4?6?$AA@
	push	OFFSET _errmsg
	call	_sprintf

; 4994 :       kb_error(3018,errmsg,COMMAND_ERROR);

	push	5
	push	OFFSET _errmsg
	push	3018					; 00000bcaH
	call	_kb_error
	add	esp, 24					; 00000018H
$LN1@check_read:

; 4995 :     }
; 4996 :   }
; 4997 :     
; 4998 : } /* end check_readonly_attr() */

	pop	ebp
	ret	0
_check_readonly_attr ENDP
_TEXT	ENDS
PUBLIC	??_C@_0DG@NEMAEDIL@__facet_normal?5term?5must?5be?5lone@ ; `string'
PUBLIC	??_C@_0DF@FLHOCFFH@__edge_vector?5term?5must?5be?5lone?5@ ; `string'
PUBLIC	??_C@_0DH@HOKEIMGL@__vertex_normal?5term?5must?5be?5lon@ ; `string'
PUBLIC	_check_special_attr
;	COMDAT ??_C@_0DG@NEMAEDIL@__facet_normal?5term?5must?5be?5lone@
CONST	SEGMENT
??_C@_0DG@NEMAEDIL@__facet_normal?5term?5must?5be?5lone@ DB '__facet_norm'
	DB	'al term must be lone term on right side.', 0aH, 00H ; `string'
CONST	ENDS
;	COMDAT ??_C@_0DF@FLHOCFFH@__edge_vector?5term?5must?5be?5lone?5@
CONST	SEGMENT
??_C@_0DF@FLHOCFFH@__edge_vector?5term?5must?5be?5lone?5@ DB '__edge_vect'
	DB	'or term must be lone term on right side.', 0aH, 00H ; `string'
CONST	ENDS
;	COMDAT ??_C@_0DH@HOKEIMGL@__vertex_normal?5term?5must?5be?5lon@
CONST	SEGMENT
??_C@_0DH@HOKEIMGL@__vertex_normal?5term?5must?5be?5lon@ DB '__vertex_nor'
	DB	'mal term must be lone term on right side.', 0aH, 00H ; `string'
; Function compile flags: /Ogtp
CONST	ENDS
;	COMDAT _check_special_attr
_TEXT	SEGMENT
_name_id$ = 8						; size = 4
_check_special_attr PROC				; COMDAT

; 5009 : {

	push	ebp
	mov	ebp, esp

; 5010 :   if ( (name_id & GTYPEMASK) == ATTRIBNAME )

	mov	eax, DWORD PTR _name_id$[ebp]
	mov	ecx, eax
	and	ecx, -268435456				; f0000000H
	cmp	ecx, 1073741824				; 40000000H
	jne	SHORT $LN1@check_spec

; 5011 :   { if ( name_id == set_name_eltype(V_NORMAL_ATTR,VERTEX) )

	cmp	eax, 1073741831				; 40000007H
	jne	SHORT $LN3@check_spec

; 5012 :       kb_error(3123,"__vertex_normal term must be lone term on right side.\n",
; 5013 :         COMMAND_ERROR);

	push	5
	push	OFFSET ??_C@_0DH@HOKEIMGL@__vertex_normal?5term?5must?5be?5lon@
	push	3123					; 00000c33H

; 5018 :       kb_error(3124,"__facet_normal term must be lone term on right side.\n",
; 5019 :         COMMAND_ERROR);

	call	_kb_error
	add	esp, 12					; 0000000cH

; 5020 :   }
; 5021 : } // end check_special_attr()

	pop	ebp
	ret	0
$LN3@check_spec:

; 5014 :     if ( name_id == set_name_eltype(E_VECTOR_ATTR,EDGE) )

	cmp	eax, 1090519042				; 41000002H
	jne	SHORT $LN2@check_spec

; 5015 :       kb_error(3024,"__edge_vector term must be lone term on right side.\n",
; 5016 :         COMMAND_ERROR);

	push	5
	push	OFFSET ??_C@_0DF@FLHOCFFH@__edge_vector?5term?5must?5be?5lone?5@
	push	3024					; 00000bd0H

; 5018 :       kb_error(3124,"__facet_normal term must be lone term on right side.\n",
; 5019 :         COMMAND_ERROR);

	call	_kb_error
	add	esp, 12					; 0000000cH

; 5020 :   }
; 5021 : } // end check_special_attr()

	pop	ebp
	ret	0
$LN2@check_spec:

; 5017 :     if ( name_id == set_name_eltype(F_NORMAL_ATTR,FACET) )

	cmp	eax, 1107296258				; 42000002H
	jne	SHORT $LN1@check_spec

; 5018 :       kb_error(3124,"__facet_normal term must be lone term on right side.\n",
; 5019 :         COMMAND_ERROR);

	push	5
	push	OFFSET ??_C@_0DG@NEMAEDIL@__facet_normal?5term?5must?5be?5lone@
	push	3124					; 00000c34H
	call	_kb_error
	add	esp, 12					; 0000000cH
$LN1@check_spec:

; 5020 :   }
; 5021 : } // end check_special_attr()

	pop	ebp
	ret	0
_check_special_attr ENDP
_TEXT	ENDS
PUBLIC	??_C@_0CA@LINGLBGC@Internal?5error?3?5lvalue?5type?5?$CFd?6?$AA@ ; `string'
PUBLIC	_convert_lvalue_to_rvalue
;	COMDAT ??_C@_0CA@LINGLBGC@Internal?5error?3?5lvalue?5type?5?$CFd?6?$AA@
CONST	SEGMENT
??_C@_0CA@LINGLBGC@Internal?5error?3?5lvalue?5type?5?$CFd?6?$AA@ DB 'Inte'
	DB	'rnal error: lvalue type %d', 0aH, 00H	; `string'
; Function compile flags: /Ogtp
CONST	ENDS
;	COMDAT _convert_lvalue_to_rvalue
_TEXT	SEGMENT
_list$ = 8						; size = 4
_convert_lvalue_to_rvalue PROC				; COMDAT

; 5034 : {

	push	ebp
	mov	ebp, esp

; 5035 :    switch ( list->type )

	mov	eax, DWORD PTR _list$[ebp]
	mov	edx, DWORD PTR [eax]
	mov	ecx, edx
	sub	ecx, 10701				; 000029cdH
	je	SHORT $LN2@convert_lv
	dec	ecx
	je	SHORT $LN3@convert_lv

; 5045 :        break;
; 5046 :      default:
; 5047 :        sprintf(errmsg,"Internal error: lvalue type %d\n",list->type);

	push	edx
	push	OFFSET ??_C@_0CA@LINGLBGC@Internal?5error?3?5lvalue?5type?5?$CFd?6?$AA@
	push	OFFSET _errmsg
	call	_sprintf

; 5048 :        kb_error(2883,errmsg,COMMAND_ERROR);

	push	5
	push	OFFSET _errmsg
	push	2883					; 00000b43H
	call	_kb_error
	add	esp, 24					; 00000018H

; 5049 :    }
; 5050 :  
; 5051 : } // end convert_lvalue_to_rvalue()

	pop	ebp
	ret	0
$LN3@convert_lv:

; 5036 :    { case SET_DELTA_NODE:
; 5037 :        list->type = PUSHDELTA_NODE;

	mov	DWORD PTR [eax], 10096			; 00002770H

; 5043 :        list->left = 0;
; 5044 :        list->stack_delta = 1;

	mov	DWORD PTR [eax+156], 1
	mov	DWORD PTR [eax+4], 0

; 5049 :    }
; 5050 :  
; 5051 : } // end convert_lvalue_to_rvalue()

	pop	ebp
	ret	0
$LN2@convert_lv:

; 5038 :        list->left = 0;
; 5039 :        list->stack_delta = 1;
; 5040 :        break;
; 5041 :      case SET_PARAM_SCALE_NODE:
; 5042 :        list->type = PUSH_PARAM_SCALE_NODE;

	mov	DWORD PTR [eax], 10097			; 00002771H

; 5043 :        list->left = 0;
; 5044 :        list->stack_delta = 1;

	mov	DWORD PTR [eax+156], 1
	mov	DWORD PTR [eax+4], 0

; 5049 :    }
; 5050 :  
; 5051 : } // end convert_lvalue_to_rvalue()

	pop	ebp
	ret	0
_convert_lvalue_to_rvalue ENDP
_TEXT	ENDS
PUBLIC	_exparse
EXTRN	_stack_usage:PROC
EXTRN	_KB_realloc:PROC
EXTRN	_exit_local_scope:PROC
EXTRN	_end_local_scope:PROC
EXTRN	_yyparse:PROC
EXTRN	_begin_local_scope:PROC
EXTRN	_init_local_scope:PROC
EXTRN	_backquote_flag:DWORD
EXTRN	_const_expr_flag:DWORD
EXTRN	_unput_tok:PROC
EXTRN	_tok:DWORD
EXTRN	_parens:DWORD
EXTRN	_in_quote:DWORD
EXTRN	_parse_error_flag:DWORD
EXTRN	_kb_calloc:PROC
EXTRN	_inputbufferspot:DWORD
EXTRN	_brace_depth:DWORD
; Function compile flags: /Ogtp
;	COMDAT _exparse
_TEXT	SEGMENT
_old_brace_depth$ = -16					; size = 4
_old_listmax$ = -12					; size = 4
_old_listtop$ = -8					; size = 4
_old_list$ = -4						; size = 4
_maxparam$ = 8						; size = 4
_enode$ = 12						; size = 4
_flag$ = 16						; size = 4
_exparse PROC						; COMDAT

; 51   : {

	push	ebp
	mov	ebp, esp
	sub	esp, 16					; 00000010H

; 52   :   int retval;
; 53   :   struct treenode *old_list = list;  /* for nested parsing */

	mov	eax, DWORD PTR _list

; 54   :   int old_listtop = listtop;

	mov	ecx, DWORD PTR _listtop

; 55   :   int old_listmax = listmax;

	mov	edx, DWORD PTR _listmax
	push	ebx

; 56   :   int old_brace_depth = brace_depth;
; 57   :   int old_inputbufferspot =  inputbufferspot;
; 58   : 
; 59   :   PROF_START(exparse);
; 60   : 
; 61   :   if ( enode->start )  // take care of memory leak for addload

	mov	ebx, DWORD PTR _enode$[ebp]
	push	esi
	mov	DWORD PTR _old_list$[ebp], eax
	mov	eax, DWORD PTR _brace_depth
	xor	esi, esi
	push	edi
	mov	edi, DWORD PTR _inputbufferspot
	mov	DWORD PTR _old_listtop$[ebp], ecx
	mov	DWORD PTR _old_listmax$[ebp], edx
	mov	DWORD PTR _old_brace_depth$[ebp], eax
	cmp	DWORD PTR [ebx], esi
	je	SHORT $LN17@exparse

; 62   :      free_expr(enode);

	push	ebx
	call	_free_expr
	add	esp, 4
$LN17@exparse:

; 63   : 
; 64   :   listmax = LISTMAX;
; 65   :   if ( permlist == NULL )

	mov	eax, DWORD PTR _permlist
	mov	DWORD PTR _listmax, 200			; 000000c8H
	cmp	eax, esi
	jne	SHORT $LN20@exparse

; 66   :      permlist = 
; 67   :       (struct treenode *)mycalloc(listmax,sizeof(struct treenode));

	push	67					; 00000043H
	push	OFFSET ??_C@_0L@OKHAMMPH@YEXPARSE?4C?$AA@
	push	168					; 000000a8H
	push	200					; 000000c8H
	call	_kb_calloc
	add	esp, 16					; 00000010H
	mov	DWORD PTR _permlist, eax
$LN20@exparse:

; 68   :   maxp = (NTYPE)maxparam;
; 69   : 
; 70   :   if ( flag == USERCOPY )

	cmp	DWORD PTR _flag$[ebp], 1
	mov	ecx, DWORD PTR _maxparam$[ebp]
	mov	DWORD PTR _maxp, ecx
	jne	SHORT $LN15@exparse

; 71   :   { enode->start = list = 
; 72   :       (struct treenode *)mycalloc(listmax,sizeof(struct treenode));

	mov	edx, DWORD PTR _listmax
	push	72					; 00000048H
	push	OFFSET ??_C@_0L@OKHAMMPH@YEXPARSE?4C?$AA@
	push	168					; 000000a8H
	push	edx
	call	_kb_calloc
	add	esp, 16					; 00000010H
$LN15@exparse:

; 73   :   }
; 74   :   else enode->start = list = permlist;

	mov	DWORD PTR _list, eax
	mov	DWORD PTR [ebx], eax

; 75   : 
; 76   :   list[1].type = SETUP_FRAME_NODE;

	mov	eax, DWORD PTR _list
	mov	DWORD PTR [eax+168], 10001		; 00002711H

; 77   :   listtop = 2;

	mov	DWORD PTR _listtop, 2

; 78   :   parse_error_flag = 0;

	mov	DWORD PTR _parse_error_flag, esi

; 79   :   brace_depth = parens = in_quote = 0;

	mov	DWORD PTR _in_quote, esi
	mov	DWORD PTR _parens, esi
	mov	DWORD PTR _brace_depth, esi

; 80   :   /* unput expression start token for yacc */
; 81   :   tok = EXPRESSION_START_TOK; unput_tok();

	mov	DWORD PTR _tok, 258			; 00000102H
	call	_unput_tok

; 82   : 
; 83   :   using_param_flag = 0;

	mov	DWORD PTR _using_param_flag, esi

; 84   :   if ( !const_expr_flag || backquote_flag )

	cmp	DWORD PTR _const_expr_flag, esi
	je	SHORT $LN12@exparse
	cmp	DWORD PTR _backquote_flag, esi
	je	SHORT $LN13@exparse
$LN12@exparse:

; 85   :   { 
; 86   :     /*local_nest_depth = 0;*/
; 87   :     init_local_scope(0,0);

	push	esi
	push	esi
	call	_init_local_scope
	add	esp, 8

; 88   :     begin_local_scope();

	call	_begin_local_scope
$LN13@exparse:

; 89   :   }
; 90   :   PROF_FINISH(exparse);
; 91   :   PROF_START(yyparse); 
; 92   :   retval = yyparse();  /* 0 for accept, 1 for error */

	call	_yyparse

; 93   :   inputbufferspot = old_inputbufferspot;

	mov	DWORD PTR _inputbufferspot, edi

; 94   :   PROF_FINISH(yyparse);
; 95   :   PROF_START(exparse);
; 96   :   if ( !const_expr_flag || backquote_flag )

	xor	edi, edi
	mov	esi, eax
	cmp	DWORD PTR _const_expr_flag, edi
	je	SHORT $LN10@exparse
	cmp	DWORD PTR _backquote_flag, edi
	je	SHORT $LN11@exparse
$LN10@exparse:

; 97   :   { end_local_scope();

	call	_end_local_scope

; 98   :     enode->locals = localbase;

	mov	ecx, DWORD PTR _localbase
	mov	DWORD PTR [ebx+8], ecx

; 99   :     if ( localbase )

	mov	eax, DWORD PTR _localbase
	cmp	eax, edi
	je	SHORT $LN9@exparse

; 100  :       localbase->flags |= LL_IN_USE;

	or	DWORD PTR [eax+20], 4
$LN9@exparse:

; 101  :     exit_local_scope();

	call	_exit_local_scope
$LN11@exparse:

; 102  :   } 
; 103  : 
; 104  :   if ( (tok != 0) && (tok != ',') && (tok != LEXERROR) )

	mov	eax, DWORD PTR _tok
	cmp	eax, edi
	je	SHORT $LN8@exparse
	cmp	eax, 44					; 0000002cH
	je	SHORT $LN8@exparse
	cmp	eax, 15004				; 00003a9cH
	je	SHORT $LN8@exparse

; 105  :   {
; 106  :     /* push back last token */
; 107  :     unput_tok();

	call	_unput_tok
$LN8@exparse:

; 108  :   }
; 109  : 
; 110  :   if ( (retval == 1) || parse_error_flag  || (listtop == 1) )

	mov	ecx, 1
	cmp	esi, ecx
	je	$LN6@exparse
	cmp	DWORD PTR _parse_error_flag, edi
	jne	$LN6@exparse
	mov	eax, DWORD PTR _listtop
	cmp	eax, ecx
	je	$LN6@exparse

; 118  :     goto exparse_exit;
; 119  :   }
; 120  : 
; 121  :   /* free excess list */
; 122  :   if ( flag == USERCOPY )

	cmp	DWORD PTR _flag$[ebp], ecx
	jne	SHORT $LN2@exparse

; 123  :     enode->start = list = (struct treenode *)kb_realloc((char *)list,
; 124  :      (listtop+2)*sizeof(struct treenode));

	mov	edx, DWORD PTR _list
	add	eax, 2
	imul	eax, 168				; 000000a8H
	push	124					; 0000007cH
	push	OFFSET ??_C@_0L@OKHAMMPH@YEXPARSE?4C?$AA@
	push	eax
	push	edx
	call	_KB_realloc
	mov	DWORD PTR _list, eax
	mov	DWORD PTR [ebx], eax
	mov	eax, DWORD PTR _listtop
	add	esp, 16					; 00000010H
$LN2@exparse:

; 125  :   
; 126  :   enode->root = list + listtop - 1;

	mov	ecx, DWORD PTR _list
	imul	eax, 168				; 000000a8H
	lea	edx, DWORD PTR [eax+ecx-168]
	mov	DWORD PTR [ebx+4], edx

; 127  :   list[0] = list[listtop-1];  /* root also in first spot */

	mov	eax, DWORD PTR _listtop
	mov	edi, DWORD PTR _list
	imul	eax, 168				; 000000a8H
	lea	esi, DWORD PTR [eax+edi-168]
	mov	ecx, 42					; 0000002aH
	rep movsd

; 128  :   list[0].left += listtop - 1;

	mov	ecx, DWORD PTR _listtop
	mov	eax, DWORD PTR _list
	dec	ecx
	add	DWORD PTR [eax+4], ecx

; 129  :   list[0].right += listtop - 1;

	mov	edx, DWORD PTR _listtop
	mov	eax, DWORD PTR _list
	dec	edx
	add	DWORD PTR [eax+8], edx

; 130  : 
; 131  :   /* put DONE marker after root */
; 132  :   list[listtop++].type = FINISHED_NODE;

	mov	eax, DWORD PTR _listtop
	mov	ecx, DWORD PTR _list
	imul	eax, 168				; 000000a8H
	mov	DWORD PTR [eax+ecx], 10386		; 00002892H
	inc	DWORD PTR _listtop

; 133  : 
; 134  :   /* figure stack usage */
; 135  :   stack_usage(enode);

	push	ebx
	call	_stack_usage

; 136  : 
; 137  :   enode->flag = flag;

	mov	eax, DWORD PTR _flag$[ebp]
	add	esp, 4
	mov	DWORD PTR [ebx+12], eax

; 138  :   if ( using_param_flag ) 

	cmp	DWORD PTR _using_param_flag, 0
	je	SHORT $LN1@exparse

; 139  :     enode->flag |= USING_PARAM_FLAG;

	or	eax, 512				; 00000200H
	mov	DWORD PTR [ebx+12], eax
$LN1@exparse:

; 140  : 
; 141  :   retval = listtop*sizeof(struct treenode);
; 142  : 
; 143  :   list = old_list;                /* for nested parsing */

	mov	edx, DWORD PTR _old_list$[ebp]

; 144  :   listtop = old_listtop;

	mov	ecx, DWORD PTR _old_listtop$[ebp]
	mov	eax, DWORD PTR _listtop
	pop	edi
	imul	eax, 168				; 000000a8H
	mov	DWORD PTR _list, edx

; 145  :   listmax = old_listmax;

	mov	edx, DWORD PTR _old_listmax$[ebp]
	mov	DWORD PTR _listtop, ecx

; 146  :   brace_depth = old_brace_depth;

	mov	ecx, DWORD PTR _old_brace_depth$[ebp]
	pop	esi
	mov	DWORD PTR _listmax, edx
	mov	DWORD PTR _brace_depth, ecx
	pop	ebx

; 147  : 
; 148  : exparse_exit:
; 149  :   PROF_FINISH(exparse);
; 150  :   return retval;
; 151  : 
; 152  : } // end exparse()

	mov	esp, ebp
	pop	ebp
	ret	0
$LN6@exparse:

; 111  :   { if ( flag == USERCOPY ) 

	cmp	DWORD PTR _flag$[ebp], ecx
	jne	SHORT $LN3@exparse

; 112  :     { myfree((char *)enode->start); 

	mov	edx, DWORD PTR [ebx]
	push	edx
	call	_myfree

; 113  :       if ( enode->start == list ) list = NULL;

	mov	eax, DWORD PTR [ebx]
	add	esp, 4
	cmp	eax, DWORD PTR _list
	jne	SHORT $LN4@exparse
	mov	DWORD PTR _list, edi
$LN4@exparse:

; 114  :       if ( enode->start == permlist ) permlist = NULL;

	mov	ecx, DWORD PTR [ebx]
	cmp	ecx, DWORD PTR _permlist
	jne	SHORT $LN3@exparse
	mov	DWORD PTR _permlist, edi
$LN3@exparse:

; 115  :     }
; 116  :     enode->start = NULL;

	mov	DWORD PTR [ebx], edi
	pop	edi
	pop	esi

; 117  :     retval = -1; 

	or	eax, -1
$exparse_exit$89406:
	pop	ebx

; 147  : 
; 148  : exparse_exit:
; 149  :   PROF_FINISH(exparse);
; 150  :   return retval;
; 151  : 
; 152  : } // end exparse()

	mov	esp, ebp
	pop	ebp
	ret	0
_exparse ENDP
_TEXT	ENDS
PUBLIC	??_C@_0FO@GLOCEABG@?$CC?$CFs?$CC?5is?5an?5indexed?5attribute?$DL?5in@ ; `string'
PUBLIC	??_C@_0CE@MNJJPJOP@Attribute?5?$CFs?5must?5have?5?$CFd?5indice@ ; `string'
PUBLIC	??_C@_0CN@KKOGLFKO@Internal?5error?3?5Unknown?5MAKENODE@ ; `string'
PUBLIC	??_C@_0DD@CMMHBHLH@Cannot?5use?5arithmetic?5assign?5wit@ ; `string'
PUBLIC	??_C@_0DA@DHKJDMLH@Cannot?5assign?5value?5to?5this?5attr@ ; `string'
PUBLIC	??_C@_0CN@BJGPMAKA@Noncontent?5only?5applies?5to?5edges@ ; `string'
PUBLIC	??_C@_0DE@NGJNLEL@No_transform?5does?5not?5apply?5to?5v@ ; `string'
PUBLIC	??_C@_0CD@ELNKFOCH@Hit_partner?5is?5only?5for?5vertices@ ; `string'
PUBLIC	??_C@_0CK@IOPEEGI@Use?5?8set?5body?5target?5?4?4?4?8?5to?5fix@ ; `string'
PUBLIC	??_C@_0BO@FCBOEPPP@No?5fixedness?5for?5facetedges?4?6?$AA@ ; `string'
PUBLIC	??_C@_0BL@KPLMFDOD@Pressure?5only?5for?5bodies?4?6?$AA@ ; `string'
PUBLIC	??_C@_0CO@IKCMNGON@Volume?5is?5read?9only?4?5Setting?5TAR@ ; `string'
PUBLIC	??_C@_0CA@DDNLCDCD@Target?5volume?5only?5for?5bodies?4?6?$AA@ ; `string'
PUBLIC	??_C@_0CI@IEJCGHPF@Frontbody?5or?5backbody?5only?5for?5f@ ; `string'
PUBLIC	??_C@_0EB@BHLIPGAE@Frontbody?5or?5backbody?5only?5for?5f@ ; `string'
PUBLIC	??_C@_0CG@PJFEHFFP@Front?5or?5back?5color?5only?5for?5fac@ ; `string'
PUBLIC	??_C@_0BK@NEICOOEL@Opacity?5only?5for?5facets?4?6?$AA@ ; `string'
PUBLIC	??_C@_0CI@JEPJACJN@Boundary?5parameters?5only?5for?5ver@ ; `string'
PUBLIC	??_C@_0CA@HENHFIIN@Coordinates?5only?5for?5vertices?4?6?$AA@ ; `string'
PUBLIC	??_C@_0CP@EEKPMBAG@Coordinate?5dimension?5exceeds?5spa@ ; `string'
PUBLIC	??_C@_0CA@ELLFACCD@Attribute?5?8?$CFs?8?5has?5?$CFd?5indexes?4?6?$AA@ ; `string'
PUBLIC	??_C@_0CF@IFBIOELO@Must?5use?5index?5with?5attribute?5?8?$CF@ ; `string'
PUBLIC	??_C@_0CH@NMIDINCN@Cannot?5use?5index?5with?5attribute?5@ ; `string'
PUBLIC	??_C@_0CE@CIKANACF@Invalid?5extra?5attribute?5name?5?8?$CFs@ ; `string'
PUBLIC	??_C@_0BL@LFPPAIJK@Attribute?5is?5not?5indexed?4?6?$AA@ ; `string'
PUBLIC	??_C@_0CP@EADLGAJE@Don?8t?5have?5element?5for?5attribute@ ; `string'
PUBLIC	??_C@_0CM@IJMBNBLJ@Attribute?5?$CFs?5must?5have?5at?5most?5?$CF@ ; `string'
PUBLIC	??_C@_0FA@KPBJMLGF@?8?$CFs?8?5attached?5to?5too?5many?5quanti@ ; `string'
PUBLIC	??_C@_0CH@IBIBGHBN@Vertexnormal?5can?5have?5only?5one?5i@ ; `string'
PUBLIC	??_C@_0CF@PPIHGAA@Coordinate?5can?5have?5only?5one?5ind@ ; `string'
PUBLIC	??_C@_0CA@HCCILBNN@Illegal?5attribute?5of?5variable?4?6?$AA@ ; `string'
PUBLIC	??_C@_0CC@HFNHMOA@Invalid?5user?5function?5number?3?5?$CFd@ ; `string'
PUBLIC	??_C@_0CA@IOKNLDFI@Coordinate?5number?5too?5high?3?5?$CFd?6?$AA@ ; `string'
PUBLIC	??_C@_0BP@MONDKFGG@Constant?5expression?5required?4?6?$AA@ ; `string'
PUBLIC	??_C@_0CB@HHFGMLDC@Exponent?51?4?5?5Did?5you?5mean?5this?$DP?6@ ; `string'
PUBLIC	??_C@_0CB@PGHDKOBF@Exponent?50?4?5?5Did?5you?5mean?5this?$DP?6@ ; `string'
PUBLIC	??_C@_0BO@DCHCJGFO@Constant?5folding?5not?5working?4?$AA@ ; `string'
PUBLIC	??_C@_0BK@PJJFIHAA@sqrt?5of?5negative?5number?4?6?$AA@ ; `string'
PUBLIC	??_C@_0BO@IJAOBLOA@acos?5argument?5out?5of?5bounds?4?6?$AA@ ; `string'
PUBLIC	??_C@_0BO@JJEBJFHA@asin?5argument?5out?5of?5bounds?4?6?$AA@ ; `string'
PUBLIC	__real@4000000000000000
PUBLIC	??_C@_0CC@EHDJDLDK@acosh?5argument?5is?5less?5than?51?40?4@ ; `string'
PUBLIC	__real@3fe0000000000000
PUBLIC	??_C@_0BJ@LEEEDPAJ@log?5of?5negative?5number?4?6?$AA@ ; `string'
PUBLIC	__real@4005bf0a8b145769
PUBLIC	__real@400921fb54442d18
PUBLIC	??_C@_0BA@HPOADLHK@Divide?5by?5zero?4?$AA@	; `string'
PUBLIC	__real@3ff0000000000000
PUBLIC	__real@0000000000000000
PUBLIC	??_C@_0CO@GPMAMBBE@Internal?5error?3?5Constant?5folding@ ; `string'
PUBLIC	_more_makenode
EXTRN	_tokname:PROC
EXTRN	_assigntype:DWORD
EXTRN	_kb_stricmp:PROC
EXTRN	_set_extra_name:BYTE
EXTRN	_attr_kind:DWORD
EXTRN	_elsym:DWORD
EXTRN	_read_method_instance:PROC
EXTRN	_read_quantity:PROC
EXTRN	_read_boundary:PROC
EXTRN	_kb_unput:PROC
EXTRN	_read_constraint:PROC
EXTRN	_datafile_flag:DWORD
EXTRN	_verb_flag:DWORD
EXTRN	_yytext:DWORD
EXTRN	_attach_method_num:PROC
EXTRN	_cur_quant:DWORD
EXTRN	_basic_gen_methods:BYTE
EXTRN	_gen_quant_list:DWORD
EXTRN	_meth_inst_list:DWORD
EXTRN	_reading_comp_quant_flag:DWORD
EXTRN	_userfunc:BYTE
EXTRN	_int_val:DWORD
EXTRN	_coord_num:DWORD
EXTRN	_incompleteEllipticF:PROC
EXTRN	_incompleteEllipticE:PROC
EXTRN	_ceil:PROC
EXTRN	_ellipticE:PROC
EXTRN	_ellipticK:PROC
EXTRN	_real_val:QWORD
EXTRN	__fltused:DWORD
EXTRN	__CIpow:PROC
EXTRN	__ftol2_sse:PROC
EXTRN	__CIatan2:PROC
EXTRN	__CIatan:PROC
EXTRN	__CItan:PROC
EXTRN	__CIacos:PROC
EXTRN	__CIcos:PROC
EXTRN	__CIasin:PROC
EXTRN	__CIsqrt:PROC
EXTRN	__CIsin:PROC
EXTRN	__CIlog:PROC
EXTRN	__CIexp:PROC
EXTRN	_floor:PROC
;	COMDAT ??_C@_0FO@GLOCEABG@?$CC?$CFs?$CC?5is?5an?5indexed?5attribute?$DL?5in@
CONST	SEGMENT
??_C@_0FO@GLOCEABG@?$CC?$CFs?$CC?5is?5an?5indexed?5attribute?$DL?5in@ DB '"'
	DB	'%s" is an indexed attribute; index is missing.  Or use elemen'
	DB	't name to print as full array.', 0aH, 00H	; `string'
CONST	ENDS
;	COMDAT ??_C@_0CE@MNJJPJOP@Attribute?5?$CFs?5must?5have?5?$CFd?5indice@
CONST	SEGMENT
??_C@_0CE@MNJJPJOP@Attribute?5?$CFs?5must?5have?5?$CFd?5indice@ DB 'Attri'
	DB	'bute %s must have %d indices.', 0aH, 00H	; `string'
CONST	ENDS
;	COMDAT ??_C@_0CN@KKOGLFKO@Internal?5error?3?5Unknown?5MAKENODE@
CONST	SEGMENT
??_C@_0CN@KKOGLFKO@Internal?5error?3?5Unknown?5MAKENODE@ DB 'Internal err'
	DB	'or: Unknown MAKENODE %d type %s', 0aH, 00H	; `string'
CONST	ENDS
;	COMDAT ??_C@_0DD@CMMHBHLH@Cannot?5use?5arithmetic?5assign?5wit@
CONST	SEGMENT
??_C@_0DD@CMMHBHLH@Cannot?5use?5arithmetic?5assign?5wit@ DB 'Cannot use a'
	DB	'rithmetic assign with this attribute.', 0aH, 00H ; `string'
CONST	ENDS
;	COMDAT ??_C@_0DA@DHKJDMLH@Cannot?5assign?5value?5to?5this?5attr@
CONST	SEGMENT
??_C@_0DA@DHKJDMLH@Cannot?5assign?5value?5to?5this?5attr@ DB 'Cannot assi'
	DB	'gn value to this attribute with :=.', 0aH, 00H ; `string'
CONST	ENDS
;	COMDAT ??_C@_0CN@BJGPMAKA@Noncontent?5only?5applies?5to?5edges@
CONST	SEGMENT
??_C@_0CN@BJGPMAKA@Noncontent?5only?5applies?5to?5edges@ DB 'Noncontent o'
	DB	'nly applies to edges or facets.', 0aH, 00H	; `string'
CONST	ENDS
;	COMDAT ??_C@_0DE@NGJNLEL@No_transform?5does?5not?5apply?5to?5v@
CONST	SEGMENT
??_C@_0DE@NGJNLEL@No_transform?5does?5not?5apply?5to?5v@ DB 'No_transform'
	DB	' does not apply to vertices or bodies.', 0aH, 00H ; `string'
CONST	ENDS
;	COMDAT ??_C@_0CD@ELNKFOCH@Hit_partner?5is?5only?5for?5vertices@
CONST	SEGMENT
??_C@_0CD@ELNKFOCH@Hit_partner?5is?5only?5for?5vertices@ DB 'Hit_partner '
	DB	'is only for vertices.', 0aH, 00H		; `string'
CONST	ENDS
;	COMDAT ??_C@_0CK@IOPEEGI@Use?5?8set?5body?5target?5?4?4?4?8?5to?5fix@
CONST	SEGMENT
??_C@_0CK@IOPEEGI@Use?5?8set?5body?5target?5?4?4?4?8?5to?5fix@ DB 'Use '''
	DB	'set body target ...'' to fix volume.', 0aH, 00H ; `string'
CONST	ENDS
;	COMDAT ??_C@_0BO@FCBOEPPP@No?5fixedness?5for?5facetedges?4?6?$AA@
CONST	SEGMENT
??_C@_0BO@FCBOEPPP@No?5fixedness?5for?5facetedges?4?6?$AA@ DB 'No fixedne'
	DB	'ss for facetedges.', 0aH, 00H		; `string'
CONST	ENDS
;	COMDAT ??_C@_0BL@KPLMFDOD@Pressure?5only?5for?5bodies?4?6?$AA@
CONST	SEGMENT
??_C@_0BL@KPLMFDOD@Pressure?5only?5for?5bodies?4?6?$AA@ DB 'Pressure only'
	DB	' for bodies.', 0aH, 00H			; `string'
CONST	ENDS
;	COMDAT ??_C@_0CO@IKCMNGON@Volume?5is?5read?9only?4?5Setting?5TAR@
CONST	SEGMENT
??_C@_0CO@IKCMNGON@Volume?5is?5read?9only?4?5Setting?5TAR@ DB 'Volume is '
	DB	'read-only. Setting TARGET instead.', 0aH, 00H ; `string'
CONST	ENDS
;	COMDAT ??_C@_0CA@DDNLCDCD@Target?5volume?5only?5for?5bodies?4?6?$AA@
CONST	SEGMENT
??_C@_0CA@DDNLCDCD@Target?5volume?5only?5for?5bodies?4?6?$AA@ DB 'Target '
	DB	'volume only for bodies.', 0aH, 00H		; `string'
CONST	ENDS
;	COMDAT ??_C@_0CI@IEJCGHPF@Frontbody?5or?5backbody?5only?5for?5f@
CONST	SEGMENT
??_C@_0CI@IEJCGHPF@Frontbody?5or?5backbody?5only?5for?5f@ DB 'Frontbody o'
	DB	'r backbody only for facets.', 0aH, 00H	; `string'
CONST	ENDS
;	COMDAT ??_C@_0EB@BHLIPGAE@Frontbody?5or?5backbody?5only?5for?5f@
CONST	SEGMENT
??_C@_0EB@BHLIPGAE@Frontbody?5or?5backbody?5only?5for?5f@ DB 'Frontbody o'
	DB	'r backbody only for facets or edges in string model.', 0aH, 00H ; `string'
CONST	ENDS
;	COMDAT ??_C@_0CG@PJFEHFFP@Front?5or?5back?5color?5only?5for?5fac@
CONST	SEGMENT
??_C@_0CG@PJFEHFFP@Front?5or?5back?5color?5only?5for?5fac@ DB 'Front or b'
	DB	'ack color only for facets.', 0aH, 00H	; `string'
CONST	ENDS
;	COMDAT ??_C@_0BK@NEICOOEL@Opacity?5only?5for?5facets?4?6?$AA@
CONST	SEGMENT
??_C@_0BK@NEICOOEL@Opacity?5only?5for?5facets?4?6?$AA@ DB 'Opacity only f'
	DB	'or facets.', 0aH, 00H			; `string'
CONST	ENDS
;	COMDAT ??_C@_0CI@JEPJACJN@Boundary?5parameters?5only?5for?5ver@
CONST	SEGMENT
??_C@_0CI@JEPJACJN@Boundary?5parameters?5only?5for?5ver@ DB 'Boundary par'
	DB	'ameters only for vertices.', 0aH, 00H	; `string'
CONST	ENDS
;	COMDAT ??_C@_0CA@HENHFIIN@Coordinates?5only?5for?5vertices?4?6?$AA@
CONST	SEGMENT
??_C@_0CA@HENHFIIN@Coordinates?5only?5for?5vertices?4?6?$AA@ DB 'Coordina'
	DB	'tes only for vertices.', 0aH, 00H		; `string'
CONST	ENDS
;	COMDAT ??_C@_0CP@EEKPMBAG@Coordinate?5dimension?5exceeds?5spa@
CONST	SEGMENT
??_C@_0CP@EEKPMBAG@Coordinate?5dimension?5exceeds?5spa@ DB 'Coordinate di'
	DB	'mension exceeds space dimension.', 0aH, 00H	; `string'
CONST	ENDS
;	COMDAT ??_C@_0CA@ELLFACCD@Attribute?5?8?$CFs?8?5has?5?$CFd?5indexes?4?6?$AA@
CONST	SEGMENT
??_C@_0CA@ELLFACCD@Attribute?5?8?$CFs?8?5has?5?$CFd?5indexes?4?6?$AA@ DB 'A'
	DB	'ttribute ''%s'' has %d indexes.', 0aH, 00H	; `string'
CONST	ENDS
;	COMDAT ??_C@_0CF@IFBIOELO@Must?5use?5index?5with?5attribute?5?8?$CF@
CONST	SEGMENT
??_C@_0CF@IFBIOELO@Must?5use?5index?5with?5attribute?5?8?$CF@ DB 'Must us'
	DB	'e index with attribute ''%s''.', 0aH, 00H	; `string'
CONST	ENDS
;	COMDAT ??_C@_0CH@NMIDINCN@Cannot?5use?5index?5with?5attribute?5@
CONST	SEGMENT
??_C@_0CH@NMIDINCN@Cannot?5use?5index?5with?5attribute?5@ DB 'Cannot use '
	DB	'index with attribute ''%s''.', 0aH, 00H	; `string'
CONST	ENDS
;	COMDAT ??_C@_0CE@CIKANACF@Invalid?5extra?5attribute?5name?5?8?$CFs@
CONST	SEGMENT
??_C@_0CE@CIKANACF@Invalid?5extra?5attribute?5name?5?8?$CFs@ DB 'Invalid '
	DB	'extra attribute name ''%s''.', 0aH, 00H	; `string'
CONST	ENDS
;	COMDAT ??_C@_0BL@LFPPAIJK@Attribute?5is?5not?5indexed?4?6?$AA@
CONST	SEGMENT
??_C@_0BL@LFPPAIJK@Attribute?5is?5not?5indexed?4?6?$AA@ DB 'Attribute is '
	DB	'not indexed.', 0aH, 00H			; `string'
CONST	ENDS
;	COMDAT ??_C@_0CP@EADLGAJE@Don?8t?5have?5element?5for?5attribute@
CONST	SEGMENT
??_C@_0CP@EADLGAJE@Don?8t?5have?5element?5for?5attribute@ DB 'Don''t have'
	DB	' element for attribute to apply to.', 0aH, 00H ; `string'
CONST	ENDS
;	COMDAT ??_C@_0CM@IJMBNBLJ@Attribute?5?$CFs?5must?5have?5at?5most?5?$CF@
CONST	SEGMENT
??_C@_0CM@IJMBNBLJ@Attribute?5?$CFs?5must?5have?5at?5most?5?$CF@ DB 'Attr'
	DB	'ibute %s must have at most %d indices.', 0aH, 00H ; `string'
CONST	ENDS
;	COMDAT ??_C@_0FA@KPBJMLGF@?8?$CFs?8?5attached?5to?5too?5many?5quanti@
CONST	SEGMENT
??_C@_0FA@KPBJMLGF@?8?$CFs?8?5attached?5to?5too?5many?5quanti@ DB '''%s'''
	DB	' attached to too many quantities. This version of Evolver per'
	DB	'mits only %d.', 0aH, 00H			; `string'
CONST	ENDS
;	COMDAT ??_C@_0CH@IBIBGHBN@Vertexnormal?5can?5have?5only?5one?5i@
CONST	SEGMENT
??_C@_0CH@IBIBGHBN@Vertexnormal?5can?5have?5only?5one?5i@ DB 'Vertexnorma'
	DB	'l can have only one index.', 0aH, 00H	; `string'
CONST	ENDS
;	COMDAT ??_C@_0CF@PPIHGAA@Coordinate?5can?5have?5only?5one?5ind@
CONST	SEGMENT
??_C@_0CF@PPIHGAA@Coordinate?5can?5have?5only?5one?5ind@ DB 'Coordinate c'
	DB	'an have only one index.', 0aH, 00H		; `string'
CONST	ENDS
;	COMDAT ??_C@_0CA@HCCILBNN@Illegal?5attribute?5of?5variable?4?6?$AA@
CONST	SEGMENT
??_C@_0CA@HCCILBNN@Illegal?5attribute?5of?5variable?4?6?$AA@ DB 'Illegal '
	DB	'attribute of variable.', 0aH, 00H		; `string'
CONST	ENDS
;	COMDAT ??_C@_0CC@HFNHMOA@Invalid?5user?5function?5number?3?5?$CFd@
CONST	SEGMENT
??_C@_0CC@HFNHMOA@Invalid?5user?5function?5number?3?5?$CFd@ DB 'Invalid u'
	DB	'ser function number: %d', 0aH, 00H		; `string'
CONST	ENDS
;	COMDAT ??_C@_0CA@IOKNLDFI@Coordinate?5number?5too?5high?3?5?$CFd?6?$AA@
CONST	SEGMENT
??_C@_0CA@IOKNLDFI@Coordinate?5number?5too?5high?3?5?$CFd?6?$AA@ DB 'Coor'
	DB	'dinate number too high: %d', 0aH, 00H	; `string'
CONST	ENDS
;	COMDAT ??_C@_0BP@MONDKFGG@Constant?5expression?5required?4?6?$AA@
CONST	SEGMENT
??_C@_0BP@MONDKFGG@Constant?5expression?5required?4?6?$AA@ DB 'Constant e'
	DB	'xpression required.', 0aH, 00H		; `string'
CONST	ENDS
;	COMDAT ??_C@_0CB@HHFGMLDC@Exponent?51?4?5?5Did?5you?5mean?5this?$DP?6@
CONST	SEGMENT
??_C@_0CB@HHFGMLDC@Exponent?51?4?5?5Did?5you?5mean?5this?$DP?6@ DB 'Expon'
	DB	'ent 1.  Did you mean this?', 0aH, 00H	; `string'
CONST	ENDS
;	COMDAT ??_C@_0CB@PGHDKOBF@Exponent?50?4?5?5Did?5you?5mean?5this?$DP?6@
CONST	SEGMENT
??_C@_0CB@PGHDKOBF@Exponent?50?4?5?5Did?5you?5mean?5this?$DP?6@ DB 'Expon'
	DB	'ent 0.  Did you mean this?', 0aH, 00H	; `string'
CONST	ENDS
;	COMDAT ??_C@_0BO@DCHCJGFO@Constant?5folding?5not?5working?4?$AA@
CONST	SEGMENT
??_C@_0BO@DCHCJGFO@Constant?5folding?5not?5working?4?$AA@ DB 'Constant fo'
	DB	'lding not working.', 00H			; `string'
CONST	ENDS
;	COMDAT ??_C@_0BK@PJJFIHAA@sqrt?5of?5negative?5number?4?6?$AA@
CONST	SEGMENT
??_C@_0BK@PJJFIHAA@sqrt?5of?5negative?5number?4?6?$AA@ DB 'sqrt of negati'
	DB	've number.', 0aH, 00H			; `string'
CONST	ENDS
;	COMDAT ??_C@_0BO@IJAOBLOA@acos?5argument?5out?5of?5bounds?4?6?$AA@
CONST	SEGMENT
??_C@_0BO@IJAOBLOA@acos?5argument?5out?5of?5bounds?4?6?$AA@ DB 'acos argu'
	DB	'ment out of bounds.', 0aH, 00H		; `string'
CONST	ENDS
;	COMDAT ??_C@_0BO@JJEBJFHA@asin?5argument?5out?5of?5bounds?4?6?$AA@
CONST	SEGMENT
??_C@_0BO@JJEBJFHA@asin?5argument?5out?5of?5bounds?4?6?$AA@ DB 'asin argu'
	DB	'ment out of bounds.', 0aH, 00H		; `string'
CONST	ENDS
;	COMDAT __real@4000000000000000
CONST	SEGMENT
__real@4000000000000000 DQ 04000000000000000r	; 2
CONST	ENDS
;	COMDAT ??_C@_0CC@EHDJDLDK@acosh?5argument?5is?5less?5than?51?40?4@
CONST	SEGMENT
??_C@_0CC@EHDJDLDK@acosh?5argument?5is?5less?5than?51?40?4@ DB 'acosh arg'
	DB	'ument is less than 1.0.', 0aH, 00H		; `string'
CONST	ENDS
;	COMDAT __real@3fe0000000000000
CONST	SEGMENT
__real@3fe0000000000000 DQ 03fe0000000000000r	; 0.5
CONST	ENDS
;	COMDAT ??_C@_0BJ@LEEEDPAJ@log?5of?5negative?5number?4?6?$AA@
CONST	SEGMENT
??_C@_0BJ@LEEEDPAJ@log?5of?5negative?5number?4?6?$AA@ DB 'log of negative'
	DB	' number.', 0aH, 00H				; `string'
CONST	ENDS
;	COMDAT __real@4005bf0a8b145769
CONST	SEGMENT
__real@4005bf0a8b145769 DQ 04005bf0a8b145769r	; 2.71828
CONST	ENDS
;	COMDAT __real@400921fb54442d18
CONST	SEGMENT
__real@400921fb54442d18 DQ 0400921fb54442d18r	; 3.14159
CONST	ENDS
;	COMDAT ??_C@_0BA@HPOADLHK@Divide?5by?5zero?4?$AA@
CONST	SEGMENT
??_C@_0BA@HPOADLHK@Divide?5by?5zero?4?$AA@ DB 'Divide by zero.', 00H ; `string'
CONST	ENDS
;	COMDAT __real@3ff0000000000000
CONST	SEGMENT
__real@3ff0000000000000 DQ 03ff0000000000000r	; 1
CONST	ENDS
;	COMDAT __real@0000000000000000
CONST	SEGMENT
__real@0000000000000000 DQ 00000000000000000r	; 0
CONST	ENDS
;	COMDAT ??_C@_0CO@GPMAMBBE@Internal?5error?3?5Constant?5folding@
CONST	SEGMENT
??_C@_0CO@GPMAMBBE@Internal?5error?3?5Constant?5folding@ DB 'Internal err'
	DB	'or: Constant folding not working.', 00H	; `string'
; Function compile flags: /Ogtp
CONST	ENDS
;	COMDAT _more_makenode
_TEXT	SEGMENT
tv4310 = -16						; size = 8
tv3644 = -16						; size = 8
tv1775 = -16						; size = 8
tv511 = -16						; size = 8
_p$90593 = -16						; size = 8
_x$90532 = -16						; size = 8
tv4309 = -8						; size = 8
tv4110 = -8						; size = 8
_x$90535 = -8						; size = 8
_x$90529 = -8						; size = 8
tv4509 = -4						; size = 4
tv5225 = 8						; size = 4
tv3651 = 8						; size = 4
_top$90908 = 8						; size = 4
_exnum$90771 = 8					; size = 4
_n$ = 8							; size = 4
_type$ = 8						; size = 4
_left$ = 12						; size = 4
_right$ = 16						; size = 4
_more_makenode PROC					; COMDAT

; 3059 : { int n,etype;

	push	ebp
	mov	ebp, esp
	sub	esp, 16					; 00000010H
	push	ebx
	push	esi

; 3060 : 
; 3061 :   switch (type)

	mov	esi, DWORD PTR _type$[ebp]
	push	edi
	cmp	esi, 10009				; 00002719H
	jg	$LN384@more_maken
	je	$LN329@more_maken
	lea	eax, DWORD PTR [esi-37]
	cmp	eax, 57					; 00000039H
	ja	$LN1@more_maken
	movzx	eax, BYTE PTR $LN405@more_maken[eax]
	jmp	DWORD PTR $LN491@more_maken[eax*4]
$LN206@more_maken:

; 3807 : 
; 3808 :     case '+':
; 3809 :         if ( is_constant(right) && is_constant(left) )

	mov	esi, DWORD PTR _right$[ebp]
	push	esi
	call	_is_constant
	mov	edi, DWORD PTR _left$[ebp]
	add	esp, 4
	test	eax, eax
	je	$LN205@more_maken
	push	edi
	call	_is_constant
	add	esp, 4
	test	eax, eax
	je	$LN205@more_maken

; 3810 :         { /* fold constants */
; 3811 :           
; 3812 :           listtop -= 2;

	mov	eax, DWORD PTR _listtop
	sub	eax, 2
	mov	DWORD PTR _listtop, eax

; 3813 :           if ( (left != listtop) || (right != listtop+1) )

	cmp	edi, eax
	jne	SHORT $LN203@more_maken
	lea	ecx, DWORD PTR [eax+1]
	cmp	esi, ecx
	je	SHORT $LN204@more_maken
$LN203@more_maken:

; 3814 :              kb_error(1436,"Internal error: Constant folding not working.",
; 3815 :                  COMMAND_ERROR);

	push	5
	push	OFFSET ??_C@_0CO@GPMAMBBE@Internal?5error?3?5Constant?5folding@
	push	1436					; 0000059cH
	call	_kb_error
	mov	eax, DWORD PTR _listtop
	add	esp, 12					; 0000000cH
$LN204@more_maken:

; 3816 :           list[listtop].op1.real = list[left].op1.real + list[right].op1.real;

	mov	ecx, DWORD PTR _list
	imul	edi, 168				; 000000a8H
	imul	esi, 168				; 000000a8H
	fld	QWORD PTR [edi+ecx+32]
	fadd	QWORD PTR [esi+ecx+32]
	imul	eax, 168				; 000000a8H
	fstp	QWORD PTR [eax+ecx+32]

; 3817 :           list[listtop].type = PUSHCONST_NODE;

	mov	edx, DWORD PTR _listtop
	mov	eax, DWORD PTR _list
	imul	edx, 168				; 000000a8H
	mov	DWORD PTR [edx+eax], 10095		; 0000276fH

; 3818 :           list[listtop].stack_delta = 1;

	mov	ecx, DWORD PTR _listtop
	mov	edx, DWORD PTR _list
	imul	ecx, 168				; 000000a8H
	mov	DWORD PTR [ecx+edx+156], 1
	jmp	$LN198@more_maken
$LN205@more_maken:

; 3819 :         }
; 3820 :         else if ( is_constant(right) && (list[right].op1.real==0.0) )

	push	esi
	call	_is_constant
	add	esp, 4
	test	eax, eax
	je	SHORT $LN201@more_maken
	mov	ecx, DWORD PTR _list
	mov	eax, esi
	imul	eax, 168				; 000000a8H
	fld	QWORD PTR [eax+ecx+32]
	fldz
	fucompp
	fnstsw	ax
	test	ah, 68					; 00000044H

; 3821 :           listtop -= 2; /* just leave left summand */

	jnp	SHORT $LN453@more_maken
$LN201@more_maken:

; 3822 :         else if ( is_constant(left) && (list[left].op1.real==0.0) )

	push	edi
	call	_is_constant
	mov	ecx, DWORD PTR _list
	add	esp, 4
	test	eax, eax
	je	SHORT $LN199@more_maken
	mov	edx, edi
	imul	edx, 168				; 000000a8H
	fld	QWORD PTR [edx+ecx+32]
	fldz
	fucompp
	fnstsw	ax
	test	ah, 68					; 00000044H
	jp	SHORT $LN199@more_maken
$LN480@more_maken:

; 3823 :         { subtree_swap(&left,&right);

	lea	eax, DWORD PTR _right$[ebp]
	push	eax
	lea	ecx, DWORD PTR _left$[ebp]
	push	ecx
	call	_subtree_swap
	add	esp, 8
$LN453@more_maken:

; 3824 :           listtop -= 2;

	sub	DWORD PTR _listtop, 2

; 3825 :         }
; 3826 :         else

	jmp	$LN198@more_maken
$LN199@more_maken:

; 3827 :         {
; 3828 :           list[listtop].right = right - listtop;

	mov	eax, DWORD PTR _listtop
	sub	esi, eax
	imul	eax, 168				; 000000a8H
	mov	DWORD PTR [eax+ecx+8], esi

; 3829 :           list[listtop].left = left - listtop;

	mov	eax, DWORD PTR _listtop
	mov	edx, DWORD PTR _list
	sub	edi, eax
	imul	eax, 168				; 000000a8H
	mov	DWORD PTR [eax+edx+4], edi

; 3830 :           list[listtop].type = PLUS_NODE;

	mov	eax, DWORD PTR _listtop
	mov	ecx, DWORD PTR _list
	imul	eax, 168				; 000000a8H
	mov	DWORD PTR [eax+ecx], 10122		; 0000278aH
$LN481@more_maken:

; 3831 :           list[listtop].stack_delta = -1;

	mov	edx, DWORD PTR _listtop
	mov	eax, DWORD PTR _list
	imul	edx, 168				; 000000a8H
	mov	DWORD PTR [edx+eax+156], -1

; 3832 :         }
; 3833 :         list[listtop].datatype = REAL_TYPE;
; 3834 :         break;

	jmp	$LN198@more_maken
$LN197@more_maken:

; 3835 : 
; 3836 :     case '-':
; 3837 :         if ( is_constant(right) && is_constant(left) )

	mov	esi, DWORD PTR _right$[ebp]
	push	esi
	call	_is_constant
	mov	edi, DWORD PTR _left$[ebp]
	add	esp, 4
	test	eax, eax
	je	$LN196@more_maken
	push	edi
	call	_is_constant
	add	esp, 4
	test	eax, eax
	je	$LN196@more_maken

; 3838 :         { /* fold constants */
; 3839 :           
; 3840 :           listtop -= 2;

	mov	eax, DWORD PTR _listtop
	sub	eax, 2
	mov	DWORD PTR _listtop, eax

; 3841 :           if ( (left != listtop) || (right != listtop+1) )

	cmp	edi, eax
	jne	SHORT $LN194@more_maken
	lea	edx, DWORD PTR [eax+1]
	cmp	esi, edx
	je	SHORT $LN195@more_maken
$LN194@more_maken:

; 3842 :              kb_error(1437,"Internal error: Constant folding not working.",
; 3843 :                 COMMAND_ERROR);

	push	5
	push	OFFSET ??_C@_0CO@GPMAMBBE@Internal?5error?3?5Constant?5folding@
	push	1437					; 0000059dH
$LN482@more_maken:
	call	_kb_error
	mov	eax, DWORD PTR _listtop
	add	esp, 12					; 0000000cH
$LN195@more_maken:

; 3844 :           list[listtop].op1.real = list[left].op1.real - list[right].op1.real;

	mov	ecx, DWORD PTR _list
	imul	edi, 168				; 000000a8H
	imul	esi, 168				; 000000a8H
	fld	QWORD PTR [edi+ecx+32]
	fsub	QWORD PTR [esi+ecx+32]
$LN483@more_maken:
	imul	eax, 168				; 000000a8H
	fstp	QWORD PTR [eax+ecx+32]

; 3845 :           list[listtop].type = PUSHCONST_NODE;

	mov	eax, DWORD PTR _listtop
	mov	ecx, DWORD PTR _list
	imul	eax, 168				; 000000a8H
	mov	DWORD PTR [eax+ecx], 10095		; 0000276fH

; 3846 :           list[listtop].stack_delta = 1;

	mov	edx, DWORD PTR _listtop
	mov	eax, DWORD PTR _list
	imul	edx, 168				; 000000a8H
	mov	DWORD PTR [edx+eax+156], 1
	jmp	$LN198@more_maken
$LN196@more_maken:

; 3847 :         }
; 3848 :         else if ( is_constant(right) && (list[right].op1.real==0.0) )

	push	esi
	call	_is_constant
	add	esp, 4
	test	eax, eax
	je	SHORT $LN192@more_maken
	mov	edx, DWORD PTR _list
	mov	ecx, esi
	imul	ecx, 168				; 000000a8H
	fld	QWORD PTR [ecx+edx+32]
	fldz
	fucompp
	fnstsw	ax
	test	ah, 68					; 00000044H

; 3849 :           listtop -= 2; /* just leave left summand */

	jnp	$LN453@more_maken
$LN192@more_maken:

; 3850 :         else if ( is_constant(left) && (list[left].op1.real==0.0) )

	push	edi
	call	_is_constant
	mov	ecx, DWORD PTR _list
	add	esp, 4
	test	eax, eax
	je	$LN190@more_maken
	mov	eax, edi
	imul	eax, 168				; 000000a8H
	fld	QWORD PTR [eax+ecx+32]
	fldz
	fucompp
	fnstsw	ax
	test	ah, 68					; 00000044H
	jp	SHORT $LN190@more_maken

; 3851 :         { subtree_swap(&left,&right);

	lea	ecx, DWORD PTR _right$[ebp]
	push	ecx
	lea	edx, DWORD PTR _left$[ebp]
	push	edx
	call	_subtree_swap

; 3852 :           listtop -= 1;

	mov	eax, DWORD PTR _listtop

; 3853 :           list[listtop].left = right - listtop;

	mov	ecx, DWORD PTR _right$[ebp]
	mov	edx, DWORD PTR _list
	dec	eax
	mov	DWORD PTR _listtop, eax
	sub	ecx, eax
	imul	eax, 168				; 000000a8H
	mov	DWORD PTR [eax+edx+4], ecx

; 3854 :           list[listtop].type = CHS_NODE;

	mov	eax, DWORD PTR _listtop
	mov	ecx, DWORD PTR _list
	imul	eax, 168				; 000000a8H
	mov	DWORD PTR [eax+ecx], 10160		; 000027b0H

; 3855 :           list[listtop].stack_delta = 0;

	mov	edx, DWORD PTR _listtop
	mov	eax, DWORD PTR _list
	add	esp, 8
	imul	edx, 168				; 000000a8H
	mov	DWORD PTR [edx+eax+156], 0

; 3856 :         }
; 3857 :         else

	jmp	$LN198@more_maken
$LN190@more_maken:

; 3858 :         {
; 3859 :           list[listtop].right = right - listtop;

	mov	eax, DWORD PTR _listtop
	sub	esi, eax
	imul	eax, 168				; 000000a8H
	mov	DWORD PTR [eax+ecx+8], esi

; 3860 :           list[listtop].left = left - listtop;

	mov	eax, DWORD PTR _listtop
	mov	ecx, DWORD PTR _list
	sub	edi, eax
	imul	eax, 168				; 000000a8H
	mov	DWORD PTR [eax+ecx+4], edi

; 3861 :           list[listtop].type = MINUS_NODE;

	mov	edx, DWORD PTR _listtop
	mov	eax, DWORD PTR _list
	imul	edx, 168				; 000000a8H
	mov	DWORD PTR [edx+eax], 10123		; 0000278bH

; 3862 :           list[listtop].stack_delta = -1;
; 3863 :         }
; 3864 :         list[listtop].datatype = REAL_TYPE;
; 3865 :         break;

	jmp	$LN475@more_maken
$LN188@more_maken:

; 3866 : 
; 3867 :     case '=':  /* equality as low priority minus */
; 3868 :         if ( is_constant(right) && is_constant(left) )

	mov	esi, DWORD PTR _right$[ebp]
	push	esi
	call	_is_constant
	mov	edi, DWORD PTR _left$[ebp]
	add	esp, 4
	test	eax, eax
	je	SHORT $LN187@more_maken
	push	edi
	call	_is_constant
	add	esp, 4
	test	eax, eax
	je	SHORT $LN187@more_maken

; 3869 :         { /* fold constants */
; 3870 :           
; 3871 :           listtop -= 2;

	mov	eax, DWORD PTR _listtop
	sub	eax, 2
	mov	DWORD PTR _listtop, eax

; 3872 :           if ( (left != listtop) || (right != listtop+1) )

	cmp	edi, eax
	jne	SHORT $LN185@more_maken
	lea	edx, DWORD PTR [eax+1]
	cmp	esi, edx
	je	$LN195@more_maken
$LN185@more_maken:

; 3873 :              kb_error(1438,"Internal error: Constant folding not working.",
; 3874 :                 COMMAND_ERROR);

	push	5
	push	OFFSET ??_C@_0CO@GPMAMBBE@Internal?5error?3?5Constant?5folding@
	push	1438					; 0000059eH

; 3875 :           list[listtop].op1.real = list[left].op1.real - list[right].op1.real;
; 3876 :           list[listtop].type = PUSHCONST_NODE;
; 3877 :           list[listtop].stack_delta = 1;

	jmp	$LN482@more_maken
$LN187@more_maken:

; 3878 :         }
; 3879 :         else if ( is_constant(right) && (list[right].op1.real==0.0) )

	push	esi
	call	_is_constant
	mov	ecx, DWORD PTR _list
	add	esp, 4
	test	eax, eax
	je	SHORT $LN183@more_maken
	mov	edx, esi
	imul	edx, 168				; 000000a8H
	fld	QWORD PTR [edx+ecx+32]
	fldz
	fucompp
	fnstsw	ax
	test	ah, 68					; 00000044H

; 3880 :           listtop -= 2; /* just leave left summand */
; 3881 :         else

	jnp	$LN453@more_maken
$LN183@more_maken:

; 3882 :         {
; 3883 :           list[listtop].right = right - listtop;

	mov	eax, DWORD PTR _listtop
	sub	esi, eax
	imul	eax, 168				; 000000a8H
	mov	DWORD PTR [eax+ecx+8], esi

; 3884 :           list[listtop].left = left - listtop;

	mov	eax, DWORD PTR _listtop
	mov	ecx, DWORD PTR _list
	sub	edi, eax
	imul	eax, 168				; 000000a8H
	mov	DWORD PTR [eax+ecx+4], edi

; 3885 :           list[listtop].type = EQUATE_NODE;

	mov	edx, DWORD PTR _listtop
	mov	eax, DWORD PTR _list
	imul	edx, 168				; 000000a8H
	mov	DWORD PTR [edx+eax], 10124		; 0000278cH

; 3886 :           list[listtop].stack_delta = -1;
; 3887 :         }
; 3888 :         list[listtop].datatype = REAL_TYPE;
; 3889 :         break;

	jmp	$LN475@more_maken
$LN181@more_maken:

; 3890 : 
; 3891 :     case '*':
; 3892 :         if ( is_constant(right) && is_constant(left) )

	mov	edi, DWORD PTR _right$[ebp]
	push	edi
	call	_is_constant
	mov	esi, DWORD PTR _left$[ebp]
	add	esp, 4
	test	eax, eax
	je	SHORT $LN180@more_maken
	push	esi
	call	_is_constant
	add	esp, 4
	test	eax, eax
	je	SHORT $LN180@more_maken

; 3893 :         { /* fold constants */
; 3894 :           
; 3895 :           listtop -= 2;

	mov	eax, DWORD PTR _listtop
	sub	eax, 2
	mov	DWORD PTR _listtop, eax

; 3896 :           if ( (left != listtop) || (right != listtop+1) )

	cmp	esi, eax
	jne	SHORT $LN178@more_maken
	lea	edx, DWORD PTR [eax+1]
	cmp	edi, edx
	je	SHORT $LN179@more_maken
$LN178@more_maken:

; 3897 :              kb_error(1439,"Internal error: Constant folding not working.",
; 3898 :                COMMAND_ERROR);

	push	5
	push	OFFSET ??_C@_0CO@GPMAMBBE@Internal?5error?3?5Constant?5folding@
	push	1439					; 0000059fH
	call	_kb_error
	mov	eax, DWORD PTR _listtop
	add	esp, 12					; 0000000cH
$LN179@more_maken:

; 3899 :           list[listtop].op1.real = list[left].op1.real * list[right].op1.real;

	mov	ecx, DWORD PTR _list
	imul	esi, 168				; 000000a8H
	imul	edi, 168				; 000000a8H
	fld	QWORD PTR [esi+ecx+32]
	fmul	QWORD PTR [edi+ecx+32]

; 3900 :           list[listtop].type = PUSHCONST_NODE;
; 3901 :           list[listtop].stack_delta = 1;

	jmp	$LN483@more_maken
$LN180@more_maken:

; 3902 :         }
; 3903 :         else if ( is_constant(left) && (list[left].op1.real==0.0) )

	push	esi
	call	_is_constant
	add	esp, 4
	test	eax, eax
	je	SHORT $LN176@more_maken
	mov	edx, DWORD PTR _list
	mov	ecx, esi
	imul	ecx, 168				; 000000a8H
	fld	QWORD PTR [ecx+edx+32]
	fldz
	fucompp
	fnstsw	ax
	test	ah, 68					; 00000044H
	jp	SHORT $LN176@more_maken

; 3904 :          { 
; 3905 :            listtop = left; /* just leave 0 */

	mov	DWORD PTR _listtop, esi
	jmp	$LN198@more_maken
$LN176@more_maken:

; 3906 :          }
; 3907 :         else if ( ( is_constant(right) && (list[right].op1.real==0.0) ) )

	push	edi
	call	_is_constant
	add	esp, 4
	test	eax, eax
	je	SHORT $LN174@more_maken
	mov	ecx, DWORD PTR _list
	mov	eax, edi
	imul	eax, 168				; 000000a8H
	fld	QWORD PTR [eax+ecx+32]
	fldz
	fucompp
	fnstsw	ax
	test	ah, 68					; 00000044H
	jp	SHORT $LN174@more_maken

; 3908 :          { subtree_swap(&left,&right);

	lea	edx, DWORD PTR _right$[ebp]
	push	edx
	lea	eax, DWORD PTR _left$[ebp]
	push	eax
	call	_subtree_swap

; 3909 :            listtop = right; /* just leave 0 */

	mov	ecx, DWORD PTR _right$[ebp]
	add	esp, 8
	mov	DWORD PTR _listtop, ecx
	jmp	$LN198@more_maken
$LN174@more_maken:

; 3910 :          }
; 3911 :         else if ( is_constant(right) && (list[right].op1.real==1.0) )

	push	edi
	call	_is_constant
	add	esp, 4
	test	eax, eax
	je	SHORT $LN172@more_maken
	mov	eax, DWORD PTR _list
	mov	edx, edi
	imul	edx, 168				; 000000a8H
	fld	QWORD PTR [edx+eax+32]
	fld1
	fucompp
	fnstsw	ax
	test	ah, 68					; 00000044H

; 3912 :            listtop -= 2; /* just leave left multiplicand */

	jnp	$LN453@more_maken
$LN172@more_maken:

; 3913 :         else if ( is_constant(left) && (list[left].op1.real==1.0) )

	push	esi
	call	_is_constant
	mov	ecx, DWORD PTR _list
	add	esp, 4
	test	eax, eax
	je	SHORT $LN170@more_maken
	mov	edx, esi
	imul	edx, 168				; 000000a8H
	fld	QWORD PTR [edx+ecx+32]
	fld1
	fucompp
	fnstsw	ax
	test	ah, 68					; 00000044H

; 3914 :         { subtree_swap(&left,&right);
; 3915 :           listtop -= 2;
; 3916 :         }
; 3917 :         else

	jnp	$LN480@more_maken
$LN170@more_maken:

; 3918 :         {
; 3919 :           list[listtop].right = right - listtop;

	mov	eax, DWORD PTR _listtop
	sub	edi, eax
	imul	eax, 168				; 000000a8H
	mov	DWORD PTR [eax+ecx+8], edi

; 3920 :           list[listtop].left = left - listtop;

	mov	eax, DWORD PTR _listtop
	mov	edx, DWORD PTR _list
	sub	esi, eax
	imul	eax, 168				; 000000a8H
	mov	DWORD PTR [eax+edx+4], esi

; 3921 :           list[listtop].type = TIMES_NODE;

	mov	eax, DWORD PTR _listtop
	mov	ecx, DWORD PTR _list
	imul	eax, 168				; 000000a8H
	mov	DWORD PTR [eax+ecx], 10125		; 0000278dH

; 3922 :           list[listtop].stack_delta = -1;
; 3923 :         }
; 3924 :         list[listtop].datatype = REAL_TYPE;
; 3925 :         break;

	jmp	$LN481@more_maken
$LN168@more_maken:

; 3926 : 
; 3927 :     case '/':
; 3928 :         if ( is_constant(right) && is_constant(left) )

	mov	edi, DWORD PTR _right$[ebp]
	push	edi
	call	_is_constant
	mov	esi, DWORD PTR _left$[ebp]
	add	esp, 4
	test	eax, eax
	je	$LN167@more_maken
	push	esi
	call	_is_constant
	add	esp, 4
	test	eax, eax
	je	$LN167@more_maken

; 3929 :         { /* fold constants */
; 3930 :           
; 3931 :           listtop -= 2;

	mov	ecx, DWORD PTR _listtop
	sub	ecx, 2
	mov	DWORD PTR _listtop, ecx

; 3932 :           if ( (left != listtop) || (right != listtop+1) )

	cmp	esi, ecx
	jne	SHORT $LN165@more_maken
	lea	edx, DWORD PTR [ecx+1]
	cmp	edi, edx
	je	SHORT $LN166@more_maken
$LN165@more_maken:

; 3933 :              kb_error(1440,"Internal error: Constant folding not working.",
; 3934 :                COMMAND_ERROR);

	push	5
	push	OFFSET ??_C@_0CO@GPMAMBBE@Internal?5error?3?5Constant?5folding@
	push	1440					; 000005a0H
	call	_kb_error
	mov	ecx, DWORD PTR _listtop
	add	esp, 12					; 0000000cH
$LN166@more_maken:

; 3935 :           if ( list[right].op1.real == 0.0 ) 

	mov	edx, DWORD PTR _list
	imul	edi, 168				; 000000a8H
	fld	QWORD PTR [edx+edi+32]
	fldz
	fucompp
	fnstsw	ax
	test	ah, 68					; 00000044H
	jp	SHORT $LN164@more_maken

; 3936 :           {
; 3937 :              kb_error(1441,"Divide by zero.",COMMAND_ERROR);

	push	5
	push	OFFSET ??_C@_0BA@HPOADLHK@Divide?5by?5zero?4?$AA@
	push	1441					; 000005a1H
	call	_kb_error
	mov	edx, DWORD PTR _list
	mov	ecx, DWORD PTR _listtop
	add	esp, 12					; 0000000cH
$LN164@more_maken:

; 3938 :           }
; 3939 :           list[listtop].op1.real = list[left].op1.real / list[right].op1.real;

	imul	esi, 168				; 000000a8H
	imul	ecx, 168				; 000000a8H
	fld	QWORD PTR [esi+edx+32]
	fdiv	QWORD PTR [edx+edi+32]
	fstp	QWORD PTR [ecx+edx+32]

; 3940 :           list[listtop].type = PUSHCONST_NODE;

	mov	eax, DWORD PTR _listtop
	mov	ecx, DWORD PTR _list
	imul	eax, 168				; 000000a8H
	mov	DWORD PTR [eax+ecx], 10095		; 0000276fH
	jmp	$LN198@more_maken
$LN167@more_maken:

; 3941 :         }
; 3942 :         else if  ( is_constant(left) && (list[left].op1.real==0.0) ) 

	push	esi
	call	_is_constant
	fldz
	add	esp, 4
	test	eax, eax
	je	SHORT $LN426@more_maken
	mov	eax, DWORD PTR _list
	mov	edx, esi
	imul	edx, 168				; 000000a8H
	fld	QWORD PTR [edx+eax+32]
	fld	ST(1)
	fucompp
	lea	ecx, DWORD PTR [edx+eax+32]
	fnstsw	ax
	test	ah, 68					; 00000044H
	jp	SHORT $LN426@more_maken

; 3943 :         { listtop = left; /* just leave 0 */

	mov	DWORD PTR _listtop, esi

; 3944 :           list[listtop].op1.real = 0.0;

	fstp	QWORD PTR [ecx]
$LN484@more_maken:

; 3945 :           list[listtop].type = PUSHCONST_NODE;

	mov	ecx, DWORD PTR _listtop
	mov	edx, DWORD PTR _list
	imul	ecx, 168				; 000000a8H
	mov	DWORD PTR [ecx+edx], 10095		; 0000276fH

; 3946 :           list[listtop].stack_delta = 1;

	mov	eax, DWORD PTR _listtop
	mov	ecx, DWORD PTR _list
	imul	eax, 168				; 000000a8H
	mov	DWORD PTR [eax+ecx+156], 1
	jmp	$LN198@more_maken
$LN426@more_maken:

; 3947 :         }
; 3948 :         else if ( is_constant(right) && (list[right].op1.real==0.0) )

	push	edi
	fstp	ST(0)
	call	_is_constant
	add	esp, 4
	test	eax, eax
	je	SHORT $LN160@more_maken
	mov	eax, DWORD PTR _list
	mov	edx, edi
	imul	edx, 168				; 000000a8H
	fld	QWORD PTR [edx+eax+32]
	fldz
	fucompp
	fnstsw	ax
	test	ah, 68					; 00000044H
	jp	SHORT $LN160@more_maken

; 3949 :            kb_error(1442,"Divide by zero.",COMMAND_ERROR);

	push	5
	push	OFFSET ??_C@_0BA@HPOADLHK@Divide?5by?5zero?4?$AA@
	push	1442					; 000005a2H
	call	_kb_error
	add	esp, 12					; 0000000cH
	jmp	$LN198@more_maken
$LN160@more_maken:

; 3950 :         else if ( is_constant(right) && (list[right].op1.real==1.0) )

	push	edi
	call	_is_constant
	mov	ecx, DWORD PTR _list
	add	esp, 4
	test	eax, eax
	je	SHORT $LN158@more_maken
	mov	edx, edi
	imul	edx, 168				; 000000a8H
	fld	QWORD PTR [edx+ecx+32]
	fld1
	fucompp
	fnstsw	ax
	test	ah, 68					; 00000044H

; 3951 :            listtop -= 2; /* just leave numerator */
; 3952 :         else

	jnp	$LN453@more_maken
$LN158@more_maken:

; 3953 :         {
; 3954 :           list[listtop].right = right - listtop;

	mov	eax, DWORD PTR _listtop
	sub	edi, eax
	imul	eax, 168				; 000000a8H
	mov	DWORD PTR [eax+ecx+8], edi

; 3955 :           list[listtop].left = left - listtop;

	mov	eax, DWORD PTR _listtop
	mov	ecx, DWORD PTR _list
	sub	esi, eax
	imul	eax, 168				; 000000a8H
	mov	DWORD PTR [eax+ecx+4], esi

; 3956 :           list[listtop].type = DIVIDE_NODE;

	mov	edx, DWORD PTR _listtop
	mov	eax, DWORD PTR _list
	imul	edx, 168				; 000000a8H
	mov	DWORD PTR [edx+eax], 10126		; 0000278eH

; 3957 :           list[listtop].stack_delta = -1;
; 3958 :         }
; 3959 :         list[listtop].datatype = REAL_TYPE;
; 3960 :         break;

	jmp	$LN475@more_maken
$LN156@more_maken:

; 3961 : 
; 3962 :     case '%':
; 3963 :         if ( is_constant(right) && is_constant(left) )

	mov	esi, DWORD PTR _right$[ebp]
	push	esi
	call	_is_constant
	mov	edi, DWORD PTR _left$[ebp]
	add	esp, 4
	test	eax, eax
	je	$LN155@more_maken
	push	edi
	call	_is_constant
	add	esp, 4
	test	eax, eax
	je	SHORT $LN155@more_maken

; 3964 :         { /* fold constants */
; 3965 :           listtop -= 2;

	mov	ebx, DWORD PTR _listtop
	sub	ebx, 2
	mov	DWORD PTR _listtop, ebx

; 3966 :           if ( (left != listtop) || (right != listtop+1) )

	cmp	edi, ebx
	jne	SHORT $LN153@more_maken
	lea	edx, DWORD PTR [ebx+1]
	cmp	esi, edx
	je	SHORT $LN154@more_maken
$LN153@more_maken:

; 3967 :              kb_error(1443,"Internal error: Constant folding not working.",
; 3968 :                COMMAND_ERROR);

	push	5
	push	OFFSET ??_C@_0CO@GPMAMBBE@Internal?5error?3?5Constant?5folding@
	push	1443					; 000005a3H
	call	_kb_error
	mov	ebx, DWORD PTR _listtop
	add	esp, 12					; 0000000cH
$LN154@more_maken:

; 3969 :           list[listtop].op1.real = list[left].op1.real - 
; 3970 :               floor(list[left].op1.real / list[right].op1.real)
; 3971 :               *list[right].op1.real;

	mov	eax, DWORD PTR _list
	imul	edi, 168				; 000000a8H
	imul	esi, 168				; 000000a8H
	fld	QWORD PTR [edi+eax+32]
	fst	QWORD PTR tv4110[ebp]
	fdiv	QWORD PTR [esi+eax+32]
	lea	esi, DWORD PTR [esi+eax+32]
	sub	esp, 8
	fstp	QWORD PTR [esp]
	call	_floor
	fmul	QWORD PTR [esi]
	mov	eax, DWORD PTR _list
	add	esp, 8
	imul	ebx, 168				; 000000a8H
	fsubr	QWORD PTR tv4110[ebp]
	fstp	QWORD PTR [ebx+eax+32]

; 3972 :           list[listtop].type = PUSHCONST_NODE;
; 3973 :           list[listtop].stack_delta = 1;
; 3974 :         }
; 3975 :         else

	jmp	$LN484@more_maken
$LN155@more_maken:

; 3976 :         { list[listtop].right = right - listtop;

	mov	eax, DWORD PTR _listtop
	mov	edx, DWORD PTR _list
	sub	esi, eax
	imul	eax, 168				; 000000a8H
	mov	DWORD PTR [eax+edx+8], esi

; 3977 :           list[listtop].left = left - listtop;

	mov	eax, DWORD PTR _listtop
	mov	ecx, DWORD PTR _list
	sub	edi, eax
	imul	eax, 168				; 000000a8H
	mov	DWORD PTR [eax+ecx+4], edi

; 3978 :           list[listtop].type = REALMOD_NODE;

	mov	edx, DWORD PTR _listtop
	mov	eax, DWORD PTR _list
	imul	edx, 168				; 000000a8H
	mov	DWORD PTR [edx+eax], 10127		; 0000278fH

; 3979 :           list[listtop].stack_delta = -1;
; 3980 :         }
; 3981 :         list[listtop].datatype = REAL_TYPE;
; 3982 :         break;

	jmp	$LN475@more_maken
$LN329@more_maken:

; 3082 :          }
; 3083 :          break;
; 3084 : 
; 3085 :     case SINGLE_LETTER_NODE:
; 3086 :          list[listtop].type = SINGLE_LETTER_NODE;

	mov	edx, DWORD PTR _listtop
	mov	eax, DWORD PTR _list
	imul	edx, 168				; 000000a8H
	mov	DWORD PTR [edx+eax], 10009		; 00002719H

; 3087 :          list[listtop].op1.letter = left;

	mov	ecx, DWORD PTR _listtop
	mov	edx, DWORD PTR _left$[ebp]
	imul	ecx, 168				; 000000a8H
	mov	eax, DWORD PTR _list
	pop	edi
	pop	esi
	mov	DWORD PTR [ecx+eax+32], edx
	pop	ebx

; 4627 : 
; 4628 :       }
; 4629 : } // end more_makenode()

	mov	esp, ebp
	pop	ebp
	ret	0
$LN384@more_maken:

; 3060 : 
; 3061 :   switch (type)

	cmp	esi, 10395				; 0000289bH
	jg	$LN385@more_maken
	je	$LN134@more_maken
	lea	eax, DWORD PTR [esi-10018]
	cmp	eax, 220				; 000000dcH
	ja	$LN1@more_maken
	movzx	ecx, BYTE PTR $LN406@more_maken[eax]
	jmp	DWORD PTR $LN492@more_maken[ecx*4]
$LN328@more_maken:

; 3088 :          break;
; 3089 : 
; 3090 :     case SINGLE_REDEFD_NODE:
; 3091 :          list[listtop].type = SINGLE_REDEFD_NODE;

	mov	edx, DWORD PTR _listtop
	mov	eax, DWORD PTR _list
	imul	edx, 168				; 000000a8H
	mov	DWORD PTR [edx+eax], 10032		; 00002730H

; 3092 :          list[listtop].op1.letter = left;

	mov	ecx, DWORD PTR _listtop
	mov	edx, DWORD PTR _left$[ebp]
	imul	ecx, 168				; 000000a8H
	mov	eax, DWORD PTR _list
	pop	edi
	pop	esi
	mov	DWORD PTR [ecx+eax+32], edx
	pop	ebx

; 4627 : 
; 4628 :       }
; 4629 : } // end more_makenode()

	mov	esp, ebp
	pop	ebp
	ret	0
$LN327@more_maken:

; 3093 :          break;
; 3094 : 
; 3095 :     case CMDLIST_NODE:  
; 3096 :          list[listtop].type = type;

	mov	ecx, DWORD PTR _listtop
	mov	edx, DWORD PTR _list
	imul	ecx, 168				; 000000a8H
	mov	DWORD PTR [ecx+edx], esi

; 3097 :          list[listtop].left = left - listtop;

	mov	eax, DWORD PTR _listtop
	mov	ecx, DWORD PTR _left$[ebp]
	mov	edx, DWORD PTR _list
	sub	ecx, eax
	imul	eax, 168				; 000000a8H
	mov	DWORD PTR [eax+edx+4], ecx

; 3098 :          if ( right ) list[listtop].right = right - listtop;

	mov	eax, DWORD PTR _right$[ebp]
	test	eax, eax
	je	$LN333@more_maken
	mov	ecx, DWORD PTR _listtop
	mov	edx, DWORD PTR _list
	sub	eax, ecx
	imul	ecx, 168				; 000000a8H
	pop	edi
	pop	esi
	mov	DWORD PTR [ecx+edx+8], eax
	pop	ebx

; 4627 : 
; 4628 :       }
; 4629 : } // end more_makenode()

	mov	esp, ebp
	pop	ebp
	ret	0
$LN325@more_maken:

; 3099 :          break;
; 3100 : 
; 3101 :     case COMMAND_BLOCK_NODE:  
; 3102 :          list[listtop].type = COMMAND_BLOCK_NODE;

	mov	eax, DWORD PTR _listtop
	mov	ecx, DWORD PTR _list
	imul	eax, 168				; 000000a8H

; 3103 :          list[listtop].left = left - listtop;

	mov	edx, DWORD PTR _left$[ebp]
	mov	DWORD PTR [eax+ecx], 10029		; 0000272dH
	mov	eax, DWORD PTR _listtop
	mov	ecx, DWORD PTR _list
	sub	edx, eax
	imul	eax, 168				; 000000a8H
	pop	edi
	pop	esi
	mov	DWORD PTR [eax+ecx+4], edx
	pop	ebx

; 4627 : 
; 4628 :       }
; 4629 : } // end more_makenode()

	mov	esp, ebp
	pop	ebp
	ret	0
$LN324@more_maken:

; 3104 :          break;
; 3105 : 
; 3106 :     case REPEAT_INIT_NODE:
; 3107 :          list[listtop].type = type;

	mov	edx, DWORD PTR _listtop
	mov	eax, DWORD PTR _list
	imul	edx, 168				; 000000a8H

; 3108 :          list[listtop].left = left - listtop;

	mov	ecx, DWORD PTR _left$[ebp]
	mov	DWORD PTR [edx+eax], esi
	mov	eax, DWORD PTR _listtop
	mov	edx, DWORD PTR _list
	sub	ecx, eax
	imul	eax, 168				; 000000a8H
	mov	DWORD PTR [eax+edx+4], ecx
$LN462@more_maken:

; 3109 :          list[listtop].stack_delta = +1;

	mov	eax, DWORD PTR _listtop
	mov	ecx, DWORD PTR _list
	imul	eax, 168				; 000000a8H
	pop	edi
	pop	esi
	mov	DWORD PTR [eax+ecx+156], 1
	pop	ebx

; 4627 : 
; 4628 :       }
; 4629 : } // end more_makenode()

	mov	esp, ebp
	pop	ebp
	ret	0
$LN323@more_maken:

; 3110 :          break;
; 3111 : 
; 3112 :     case REPEAT_NODE:
; 3113 :          list[listtop].type = REPEAT_NODE;

	mov	edx, DWORD PTR _listtop
	mov	eax, DWORD PTR _list
	imul	edx, 168				; 000000a8H
	mov	DWORD PTR [edx+eax], 10061		; 0000274dH

; 3114 :          list[listtop].left = left - listtop;

	mov	ecx, DWORD PTR _listtop
	mov	eax, DWORD PTR _left$[ebp]
	mov	esi, DWORD PTR _list
	mov	edx, eax
	sub	edx, ecx
	imul	ecx, 168				; 000000a8H
	mov	DWORD PTR [ecx+esi+4], edx

; 3115 :          list[listtop].right = right - listtop;

	mov	edx, DWORD PTR _listtop
	mov	ecx, DWORD PTR _right$[ebp]
	mov	edi, DWORD PTR _list
	mov	esi, ecx
	sub	esi, edx
	imul	edx, 168				; 000000a8H

; 3116 :          list[left].op1.skipsize = right+1-left; /* for skipping body */

	sub	ecx, eax
	imul	eax, 168				; 000000a8H
	mov	DWORD PTR [edx+edi+8], esi
	mov	edx, DWORD PTR _list
	inc	ecx
	mov	DWORD PTR [eax+edx+32], ecx

; 3117 :          list[listtop].stack_delta = -2;

	mov	eax, DWORD PTR _listtop
	mov	ecx, DWORD PTR _list
	imul	eax, 168				; 000000a8H
	pop	edi
	pop	esi
	mov	DWORD PTR [eax+ecx+156], -2		; fffffffeH
	pop	ebx

; 4627 : 
; 4628 :       }
; 4629 : } // end more_makenode()

	mov	esp, ebp
	pop	ebp
	ret	0
$LN321@more_maken:

; 3122 :          break;
; 3123 : 
; 3124 :       case COND_TEST_NODE:
; 3125 :          list[listtop].type = COND_TEST_NODE;

	mov	edx, DWORD PTR _listtop
	mov	eax, DWORD PTR _list
	imul	edx, 168				; 000000a8H

; 3126 :          list[listtop].left = left - listtop;

	mov	ecx, DWORD PTR _left$[ebp]
	mov	DWORD PTR [edx+eax], 10063		; 0000274fH

; 3127 :          /* inx will be target for false jmp */
; 3128 :          list[listtop].stack_delta = -1;
; 3129 :          break;

	jmp	$LN460@more_maken
$LN320@more_maken:

; 3130 : 
; 3131 :       case COND_EXPR_NODE:
; 3132 :          list[listtop].type = COND_EXPR_NODE;

	mov	edx, DWORD PTR _listtop
	mov	eax, DWORD PTR _list
	imul	edx, 168				; 000000a8H
	mov	DWORD PTR [edx+eax], 10065		; 00002751H

; 3133 :          list[listtop].left = left - listtop;

	mov	ecx, DWORD PTR _listtop
	mov	eax, DWORD PTR _left$[ebp]
	mov	esi, DWORD PTR _list
	mov	edx, eax
	sub	edx, ecx
	imul	ecx, 168				; 000000a8H
	mov	DWORD PTR [ecx+esi+4], edx

; 3134 :          list[listtop].right = right - listtop;

	mov	edx, DWORD PTR _listtop
	mov	ecx, DWORD PTR _right$[ebp]
	mov	edi, DWORD PTR _list
	mov	esi, ecx
	sub	esi, edx
	imul	edx, 168				; 000000a8H
	mov	DWORD PTR [edx+edi+8], esi

; 3135 :          list[left].op1.skipsize = listtop - left; /* to skip TRUE part */

	mov	edx, DWORD PTR _listtop
	mov	esi, DWORD PTR _list
	sub	edx, eax
	imul	eax, 168				; 000000a8H
	mov	DWORD PTR [eax+esi+32], edx

; 3136 :          list[listtop].stack_delta = -1;  /* since one expression skipped */

	mov	eax, DWORD PTR _listtop
	mov	edx, DWORD PTR _list
	imul	eax, 168				; 000000a8H
	mov	DWORD PTR [eax+edx+156], -1

; 3137 :          list[listtop].datatype = list[right].datatype;
; 3138 :          break;

	jmp	$LN455@more_maken
$LN306@more_maken:

; 3250 :          break;
; 3251 : 
; 3252 :     case PUSHCONST_NODE:
; 3253 :          list[listtop].type = PUSHCONST_NODE;

	mov	edx, DWORD PTR _listtop
	mov	eax, DWORD PTR _list
	imul	edx, 168				; 000000a8H
	mov	DWORD PTR [edx+eax], 10095		; 0000276fH

; 3254 :          list[listtop].op1.real = real_val;

	mov	ecx, DWORD PTR _listtop
	fld	QWORD PTR _real_val
	mov	edx, DWORD PTR _list
	imul	ecx, 168				; 000000a8H
	fstp	QWORD PTR [ecx+edx+32]

; 3255 :          list[listtop].stack_delta = 1;
; 3256 :          list[listtop].datatype = REAL_TYPE;
; 3257 :          break;

	jmp	$LN463@more_maken
$LN303@more_maken:

; 3266 : 
; 3267 :     case PUSH_METHOD_INSTANCE_NODE:
; 3268 :          list[listtop].type = type;
; 3269 :          list[listtop].op1.meth_id = left;
; 3270 :          list[listtop].flags |= EPHEMERAL;
; 3271 :          list[listtop].stack_delta = 1;
; 3272 :          list[listtop].datatype = REAL_TYPE;
; 3273 :          break;
; 3274 : 
; 3275 :     case PUSHPI_NODE:
; 3276 :          list[listtop].type = type;

	mov	eax, DWORD PTR _listtop

; 3277 :          list[listtop].op1.real = M_PI;

	fld	QWORD PTR __real@400921fb54442d18
	mov	ecx, DWORD PTR _list
	imul	eax, 168				; 000000a8H
	mov	DWORD PTR [eax+ecx], esi
	mov	edx, DWORD PTR _listtop
	mov	eax, DWORD PTR _list
	imul	edx, 168				; 000000a8H
	fstp	QWORD PTR [edx+eax+32]

; 3278 :          list[listtop].stack_delta = 1;
; 3279 :          list[listtop].datatype = REAL_TYPE;
; 3280 :          break;

	jmp	$LN463@more_maken
$LN302@more_maken:

; 3281 : 
; 3282 :     case PUSHE_NODE:
; 3283 :          list[listtop].type = type;

	mov	eax, DWORD PTR _listtop

; 3284 :          list[listtop].op1.real = M_E;

	fld	QWORD PTR __real@4005bf0a8b145769
	mov	ecx, DWORD PTR _list
	imul	eax, 168				; 000000a8H
	mov	DWORD PTR [eax+ecx], esi
	mov	edx, DWORD PTR _listtop
	mov	eax, DWORD PTR _list
	imul	edx, 168				; 000000a8H
	fstp	QWORD PTR [edx+eax+32]

; 3285 :          list[listtop].stack_delta = 1;
; 3286 :          list[listtop].datatype = REAL_TYPE;
; 3287 :          break;

	jmp	$LN463@more_maken
$LN301@more_maken:

; 3288 : 
; 3289 :     case PUSHG_NODE:
; 3290 :          list[listtop].type = type;

	mov	eax, DWORD PTR _listtop
	mov	ecx, DWORD PTR _list
	imul	eax, 168				; 000000a8H
	mov	DWORD PTR [eax+ecx], esi

; 3291 :          list[listtop].stack_delta = 1;
; 3292 :          list[listtop].datatype = REAL_TYPE;
; 3293 :          break;

	jmp	$LN465@more_maken
$LN297@more_maken:

; 3316 :          break;
; 3317 : 
; 3318 :     case EXP_NODE:
; 3319 :          if ( is_constant(left) )

	mov	edi, DWORD PTR _left$[ebp]
	push	edi
	call	_is_constant

; 3322 :            list[listtop].type = PUSHCONST_NODE;

	mov	edx, DWORD PTR _list
	add	esp, 4
	test	eax, eax
	mov	eax, DWORD PTR _listtop
	je	SHORT $LN296@more_maken

; 3320 :          { /* fold constants */
; 3321 :            listtop--;

	dec	eax
	mov	DWORD PTR _listtop, eax

; 3322 :            list[listtop].type = PUSHCONST_NODE;

	imul	eax, 168				; 000000a8H
	mov	DWORD PTR [eax+edx], 10095		; 0000276fH

; 3323 :            list[listtop].op1.real = exp(list[listtop].op1.real);

	mov	eax, DWORD PTR _listtop
	mov	ecx, DWORD PTR _list
	imul	eax, 168				; 000000a8H
	fld	QWORD PTR [eax+ecx+32]
	lea	esi, DWORD PTR [eax+ecx+32]
	call	__CIexp
	pop	edi
	fstp	QWORD PTR [esi]
	pop	esi
	pop	ebx

; 4627 : 
; 4628 :       }
; 4629 : } // end more_makenode()

	mov	esp, ebp
	pop	ebp
	ret	0
$LN296@more_maken:

; 3324 :            break;
; 3325 :          }
; 3326 :          list[listtop].left = left - listtop;

	sub	edi, eax
	imul	eax, 168				; 000000a8H
	mov	DWORD PTR [eax+edx+4], edi

; 3327 :          list[listtop].type = type;

	mov	eax, DWORD PTR _listtop
	mov	ecx, DWORD PTR _list
	imul	eax, 168				; 000000a8H
	mov	DWORD PTR [eax+ecx], esi

; 3328 :          list[listtop].datatype = REAL_TYPE;
; 3329 :          break;

	jmp	$LN470@more_maken
$LN295@more_maken:

; 3330 : 
; 3331 :     case LOG_NODE:
; 3332 :          if ( is_constant(left) )

	mov	edi, DWORD PTR _left$[ebp]
	push	edi
	call	_is_constant

; 3333 :          { /* fold constants */
; 3334 :            listtop--;
; 3335 :            list[listtop].type = PUSHCONST_NODE;

	mov	ecx, DWORD PTR _list
	add	esp, 4
	test	eax, eax
	mov	eax, DWORD PTR _listtop
	je	SHORT $LN294@more_maken

; 3336 :            if ( list[listtop].op1.real < 0.0 )

	fldz
	dec	eax
	mov	DWORD PTR _listtop, eax
	imul	eax, 168				; 000000a8H
	mov	DWORD PTR [eax+ecx], 10095		; 0000276fH
	mov	ecx, DWORD PTR _listtop
	mov	eax, DWORD PTR _list
	mov	edx, ecx
	imul	edx, 168				; 000000a8H
	fcomp	QWORD PTR [edx+eax+32]
	fnstsw	ax
	test	ah, 65					; 00000041H
	jne	SHORT $LN293@more_maken

; 3337 :              kb_error(1425,"log of negative number.\n", COMMAND_ERROR );

	push	5
	push	OFFSET ??_C@_0BJ@LEEEDPAJ@log?5of?5negative?5number?4?6?$AA@
	push	1425					; 00000591H
	call	_kb_error
	mov	ecx, DWORD PTR _listtop
	add	esp, 12					; 0000000cH
$LN293@more_maken:

; 3338 :            list[listtop].op1.real = log(list[listtop].op1.real);

	mov	edx, DWORD PTR _list
	imul	ecx, 168				; 000000a8H
	fld	QWORD PTR [ecx+edx+32]
	lea	esi, DWORD PTR [ecx+edx+32]
	call	__CIlog
	pop	edi
	fstp	QWORD PTR [esi]
	pop	esi
	pop	ebx

; 4627 : 
; 4628 :       }
; 4629 : } // end more_makenode()

	mov	esp, ebp
	pop	ebp
	ret	0
$LN294@more_maken:

; 3339 :            break;
; 3340 :          }
; 3341 :          list[listtop].left = left - listtop;

	sub	edi, eax
	imul	eax, 168				; 000000a8H
	mov	DWORD PTR [eax+ecx+4], edi

; 3342 :          list[listtop].type = type;

	mov	edx, DWORD PTR _listtop
	mov	eax, DWORD PTR _list
	imul	edx, 168				; 000000a8H
	mov	DWORD PTR [edx+eax], esi

; 3343 :          list[listtop].datatype = REAL_TYPE;
; 3344 :          break;

	jmp	$LN468@more_maken
$LN292@more_maken:

; 3345 : 
; 3346 :     case ABS_NODE:
; 3347 :          if ( is_constant(left) )

	mov	edi, DWORD PTR _left$[ebp]
	push	edi
	call	_is_constant

; 3350 :            list[listtop].type = PUSHCONST_NODE;

	mov	ecx, DWORD PTR _list
	add	esp, 4
	test	eax, eax
	mov	eax, DWORD PTR _listtop
	je	SHORT $LN294@more_maken

; 3348 :          { /* fold constants */
; 3349 :            listtop--;

	dec	eax
	mov	DWORD PTR _listtop, eax

; 3350 :            list[listtop].type = PUSHCONST_NODE;

	imul	eax, 168				; 000000a8H
	mov	DWORD PTR [eax+ecx], 10095		; 0000276fH

; 3351 :            list[listtop].op1.real = fabs(list[listtop].op1.real);

	mov	edx, DWORD PTR _listtop
	mov	eax, DWORD PTR _list
	imul	edx, 168				; 000000a8H
	fld	QWORD PTR [edx+eax+32]
	fabs
	fstp	QWORD PTR [edx+eax+32]
	lea	eax, DWORD PTR [edx+eax+32]
	pop	edi
	pop	esi
	pop	ebx

; 4627 : 
; 4628 :       }
; 4629 : } // end more_makenode()

	mov	esp, ebp
	pop	ebp
	ret	0
$LN290@more_maken:

; 3352 :            break;
; 3353 :          }
; 3354 :          list[listtop].left = left - listtop;
; 3355 :          list[listtop].type = type;
; 3356 :          list[listtop].datatype = REAL_TYPE;
; 3357 :          break;
; 3358 : 
; 3359 :     case SIN_NODE:
; 3360 :          if ( is_constant(left) )

	mov	edi, DWORD PTR _left$[ebp]
	push	edi
	call	_is_constant

; 3363 :            list[listtop].type = PUSHCONST_NODE;

	mov	ecx, DWORD PTR _list
	add	esp, 4
	test	eax, eax
	mov	eax, DWORD PTR _listtop
	je	$LN294@more_maken

; 3361 :          { /* fold constants */
; 3362 :            listtop--;

	dec	eax
	mov	DWORD PTR _listtop, eax

; 3363 :            list[listtop].type = PUSHCONST_NODE;

	imul	eax, 168				; 000000a8H
	mov	DWORD PTR [eax+ecx], 10095		; 0000276fH

; 3364 :            list[listtop].op1.real = sin(list[listtop].op1.real);

	mov	edx, DWORD PTR _listtop
	mov	eax, DWORD PTR _list
	imul	edx, 168				; 000000a8H
	fld	QWORD PTR [edx+eax+32]
	lea	esi, DWORD PTR [edx+eax+32]
	call	__CIsin
	pop	edi
	fstp	QWORD PTR [esi]
	pop	esi
	pop	ebx

; 4627 : 
; 4628 :       }
; 4629 : } // end more_makenode()

	mov	esp, ebp
	pop	ebp
	ret	0
$LN288@more_maken:

; 3365 :            break;
; 3366 :          }
; 3367 :          list[listtop].left = left - listtop;
; 3368 :          list[listtop].type = type;
; 3369 :          list[listtop].datatype = REAL_TYPE;
; 3370 :          break;
; 3371 : 
; 3372 :     case SINH_NODE:
; 3373 :          if ( is_constant(left) )

	mov	edi, DWORD PTR _left$[ebp]
	push	edi
	call	_is_constant

; 3377 :            x = exp(list[listtop].op1.real);

	mov	ecx, DWORD PTR _list
	add	esp, 4
	test	eax, eax
	mov	eax, DWORD PTR _listtop
	je	$LN294@more_maken

; 3374 :          { /* fold constants */
; 3375 :            REAL x;
; 3376 :            listtop--;

	dec	eax
	mov	DWORD PTR _listtop, eax

; 3377 :            x = exp(list[listtop].op1.real);

	imul	eax, 168				; 000000a8H
	fld	QWORD PTR [eax+ecx+32]
	lea	esi, DWORD PTR [eax+ecx]
	call	__CIexp

; 3379 :            list[listtop].op1.real = (x-1/x)/2;

	fld1
	fdiv	ST(0), ST(1)
	fsubp	ST(1), ST(0)
$LN479@more_maken:

; 3378 :            list[listtop].type = PUSHCONST_NODE;

	mov	DWORD PTR [esi], 10095			; 0000276fH
$LN472@more_maken:

; 3379 :            list[listtop].op1.real = (x-1/x)/2;

	fmul	QWORD PTR __real@3fe0000000000000
$LN473@more_maken:
	mov	edx, DWORD PTR _listtop
	mov	eax, DWORD PTR _list
	imul	edx, 168				; 000000a8H
	pop	edi
	pop	esi
	fstp	QWORD PTR [edx+eax+32]
	pop	ebx

; 4627 : 
; 4628 :       }
; 4629 : } // end more_makenode()

	mov	esp, ebp
	pop	ebp
	ret	0
$LN286@more_maken:

; 3380 :            break;
; 3381 :          }
; 3382 :          list[listtop].left = left - listtop;
; 3383 :          list[listtop].type = type;
; 3384 :          list[listtop].datatype = REAL_TYPE;
; 3385 :          break;
; 3386 : 
; 3387 :     case COSH_NODE:
; 3388 :          if ( is_constant(left) )

	mov	edi, DWORD PTR _left$[ebp]
	push	edi
	call	_is_constant

; 3392 :            x = exp(list[listtop].op1.real);

	mov	ecx, DWORD PTR _list
	add	esp, 4
	test	eax, eax
	mov	eax, DWORD PTR _listtop
	je	$LN294@more_maken

; 3389 :          { /* fold constants */
; 3390 :            REAL x;
; 3391 :            listtop--;

	dec	eax
	mov	DWORD PTR _listtop, eax

; 3392 :            x = exp(list[listtop].op1.real);

	imul	eax, 168				; 000000a8H
	fld	QWORD PTR [eax+ecx+32]
	lea	esi, DWORD PTR [eax+ecx]
	call	__CIexp

; 3393 :            list[listtop].type = PUSHCONST_NODE;
; 3394 :            list[listtop].op1.real = (x+1/x)/2;

	fld1
	fdiv	ST(0), ST(1)
	faddp	ST(1), ST(0)

; 3395 :            break;

	jmp	SHORT $LN479@more_maken
$LN284@more_maken:

; 3396 :          }
; 3397 :          list[listtop].left = left - listtop;
; 3398 :          list[listtop].type = type;
; 3399 :          list[listtop].datatype = REAL_TYPE;
; 3400 :          break;
; 3401 : 
; 3402 :     case TANH_NODE:
; 3403 :          if ( is_constant(left) )

	mov	edi, DWORD PTR _left$[ebp]
	push	edi
	call	_is_constant

; 3407 :            x = exp(list[listtop].op1.real);

	mov	ecx, DWORD PTR _list
	add	esp, 4
	test	eax, eax
	mov	eax, DWORD PTR _listtop
	je	$LN294@more_maken

; 3404 :          { /* fold constants */
; 3405 :            REAL x;
; 3406 :            listtop--;

	dec	eax
	mov	DWORD PTR _listtop, eax

; 3407 :            x = exp(list[listtop].op1.real);

	imul	eax, 168				; 000000a8H
	fld	QWORD PTR [eax+ecx+32]
	lea	esi, DWORD PTR [eax+ecx]
	call	__CIexp

; 3408 :            list[listtop].type = PUSHCONST_NODE;

	mov	DWORD PTR [esi], 10095			; 0000276fH

; 3409 :            list[listtop].op1.real = (x-1/x)/(x+1/x);

	fld1
	fdiv	ST(0), ST(1)
	fld	ST(1)
	fsub	ST(0), ST(1)
	fxch	ST(1)
	faddp	ST(2), ST(0)
	fdivrp	ST(1), ST(0)

; 3410 :            break;

	jmp	$LN473@more_maken
$LN282@more_maken:

; 3411 :          }
; 3412 :          list[listtop].left = left - listtop;
; 3413 :          list[listtop].type = type;
; 3414 :          list[listtop].datatype = REAL_TYPE;
; 3415 :          break;
; 3416 : 
; 3417 :     case ATANH_NODE:
; 3418 :          if ( is_constant(left) )

	mov	edi, DWORD PTR _left$[ebp]
	push	edi
	call	_is_constant

; 3422 :            x = list[listtop].op1.real;

	mov	ecx, DWORD PTR _list
	add	esp, 4
	test	eax, eax
	mov	eax, DWORD PTR _listtop
	je	$LN294@more_maken

; 3419 :          { /* fold constants */
; 3420 :            REAL x;
; 3421 :            listtop--;

	dec	eax
	mov	DWORD PTR _listtop, eax

; 3422 :            x = list[listtop].op1.real;

	imul	eax, 168				; 000000a8H
	fld	QWORD PTR [eax+ecx+32]

; 3423 :            list[listtop].type = PUSHCONST_NODE;

	mov	DWORD PTR [eax+ecx], 10095		; 0000276fH
	fst	QWORD PTR _x$90529[ebp]

; 3424 :            list[listtop].op1.real = (log(x+1)-log(1-x))/2;

	fadd	QWORD PTR __real@3ff0000000000000
	call	__CIlog
	fstp	QWORD PTR tv1775[ebp]
	fld1
	fsub	QWORD PTR _x$90529[ebp]
	call	__CIlog
	fsubr	QWORD PTR tv1775[ebp]

; 3425 :            break;

	jmp	$LN472@more_maken
$LN280@more_maken:

; 3426 :          }
; 3427 :          list[listtop].left = left - listtop;
; 3428 :          list[listtop].type = type;
; 3429 :          list[listtop].datatype = REAL_TYPE;
; 3430 :          break;
; 3431 : 
; 3432 :     case ASINH_NODE:
; 3433 :          if ( is_constant(left) )

	mov	edi, DWORD PTR _left$[ebp]
	push	edi
	call	_is_constant

; 3437 :            x = list[listtop].op1.real;

	mov	ecx, DWORD PTR _list
	add	esp, 4
	test	eax, eax
	mov	eax, DWORD PTR _listtop
	je	$LN294@more_maken

; 3434 :          { /* fold constants */
; 3435 :            REAL x;
; 3436 :            listtop--;

	dec	eax
	mov	DWORD PTR _listtop, eax

; 3437 :            x = list[listtop].op1.real;

	imul	eax, 168				; 000000a8H
	fld	QWORD PTR [eax+ecx+32]

; 3438 :            list[listtop].type = PUSHCONST_NODE;

	mov	DWORD PTR [eax+ecx], 10095		; 0000276fH
	fst	QWORD PTR _x$90532[ebp]

; 3439 :            list[listtop].op1.real = log(x + sqrt(x*x+1));

	fmul	ST(0), ST(0)
	fadd	QWORD PTR __real@3ff0000000000000
	call	__CIsqrt
	fadd	QWORD PTR _x$90532[ebp]
	call	__CIlog

; 3440 :            break;

	jmp	$LN473@more_maken
$LN278@more_maken:

; 3441 :          }
; 3442 :          list[listtop].left = left - listtop;
; 3443 :          list[listtop].type = type;
; 3444 :          list[listtop].datatype = REAL_TYPE;
; 3445 :          break;
; 3446 : 
; 3447 :     case ACOSH_NODE:
; 3448 :          if ( is_constant(left) )

	mov	edi, DWORD PTR _left$[ebp]
	push	edi
	call	_is_constant

; 3452 :            x = list[listtop].op1.real;

	mov	ecx, DWORD PTR _list
	add	esp, 4
	test	eax, eax
	mov	eax, DWORD PTR _listtop
	je	$LN294@more_maken

; 3449 :          { /* fold constants */
; 3450 :            REAL x;
; 3451 :            listtop--;

	dec	eax
	mov	DWORD PTR _listtop, eax

; 3452 :            x = list[listtop].op1.real;

	imul	eax, 168				; 000000a8H
	fld	QWORD PTR [eax+ecx+32]

; 3453 :            list[listtop].type = PUSHCONST_NODE;

	mov	DWORD PTR [eax+ecx], 10095		; 0000276fH
	fst	QWORD PTR _x$90535[ebp]

; 3454 :            if ( x < 1.0 )

	fld1
	fcomp	ST(1)
	fnstsw	ax
	test	ah, 65					; 00000041H
	jne	SHORT $LN276@more_maken

; 3455 :              kb_error(1424,"acosh argument is less than 1.0.\n", COMMAND_ERROR );

	push	5
	fstp	ST(0)
	push	OFFSET ??_C@_0CC@EHDJDLDK@acosh?5argument?5is?5less?5than?51?40?4@
	push	1424					; 00000590H
	call	_kb_error
	fld	QWORD PTR _x$90535[ebp]
	add	esp, 12					; 0000000cH
$LN276@more_maken:

; 3456 :            list[listtop].op1.real = 2*log(sqrt(x+1) + sqrt(x-1))-log(2.0);

	fsub	QWORD PTR __real@3ff0000000000000
	call	__CIsqrt
	fstp	QWORD PTR tv3644[ebp]
	fld	QWORD PTR _x$90535[ebp]
	fadd	QWORD PTR __real@3ff0000000000000
	call	__CIsqrt
	fadd	QWORD PTR tv3644[ebp]
	call	__CIlog
	fld	QWORD PTR __real@4000000000000000
	fmul	ST(1), ST(0)
	fxch	ST(1)
	fstp	QWORD PTR tv511[ebp]
	call	__CIlog
	fsubr	QWORD PTR tv511[ebp]

; 3457 :            break;

	jmp	$LN473@more_maken
$LN275@more_maken:

; 3458 :          }
; 3459 :          list[listtop].left = left - listtop;
; 3460 :          list[listtop].type = type;
; 3461 :          list[listtop].datatype = REAL_TYPE;
; 3462 :          break;
; 3463 : 
; 3464 :     case ASIN_NODE:
; 3465 :          if ( is_constant(left) )

	mov	edi, DWORD PTR _left$[ebp]
	push	edi
	call	_is_constant

; 3468 :            list[listtop].type = PUSHCONST_NODE;

	mov	ecx, DWORD PTR _list
	add	esp, 4
	test	eax, eax
	mov	eax, DWORD PTR _listtop
	je	$LN294@more_maken

; 3466 :          { /* fold constants */
; 3467 :            listtop--;

	dec	eax
	mov	DWORD PTR _listtop, eax

; 3468 :            list[listtop].type = PUSHCONST_NODE;

	imul	eax, 168				; 000000a8H
	mov	DWORD PTR [eax+ecx], 10095		; 0000276fH

; 3469 :            if ( fabs(list[listtop].op1.real) > 1.0 )

	mov	ecx, DWORD PTR _listtop
	mov	eax, DWORD PTR _list
	mov	edx, ecx
	imul	edx, 168				; 000000a8H
	fld	QWORD PTR [edx+eax+32]
	fabs
	fcomp	QWORD PTR __real@3ff0000000000000
	fnstsw	ax
	test	ah, 65					; 00000041H
	jne	SHORT $LN273@more_maken

; 3470 :              kb_error(1426,"asin argument out of bounds.\n", COMMAND_ERROR );

	push	5
	push	OFFSET ??_C@_0BO@JJEBJFHA@asin?5argument?5out?5of?5bounds?4?6?$AA@
	push	1426					; 00000592H
	call	_kb_error
	mov	ecx, DWORD PTR _listtop
	add	esp, 12					; 0000000cH
$LN273@more_maken:

; 3471 :            list[listtop].op1.real = asin(list[listtop].op1.real);

	mov	edx, DWORD PTR _list
	imul	ecx, 168				; 000000a8H
	fld	QWORD PTR [ecx+edx+32]
	lea	esi, DWORD PTR [ecx+edx+32]
	call	__CIasin
	pop	edi
	fstp	QWORD PTR [esi]
	pop	esi
	pop	ebx

; 4627 : 
; 4628 :       }
; 4629 : } // end more_makenode()

	mov	esp, ebp
	pop	ebp
	ret	0
$LN272@more_maken:

; 3472 :            break;
; 3473 :          }
; 3474 :          list[listtop].left = left - listtop;
; 3475 :          list[listtop].type = type;
; 3476 :          list[listtop].datatype = REAL_TYPE;
; 3477 :          break;
; 3478 : 
; 3479 :     case COS_NODE:
; 3480 :          if ( is_constant(left) )

	mov	edi, DWORD PTR _left$[ebp]
	push	edi
	call	_is_constant

; 3483 :            list[listtop].type = PUSHCONST_NODE;

	mov	ecx, DWORD PTR _list
	add	esp, 4
	test	eax, eax
	mov	eax, DWORD PTR _listtop
	je	$LN294@more_maken

; 3481 :          { /* fold constants */
; 3482 :            listtop--;

	dec	eax
	mov	DWORD PTR _listtop, eax

; 3483 :            list[listtop].type = PUSHCONST_NODE;

	imul	eax, 168				; 000000a8H
	mov	DWORD PTR [eax+ecx], 10095		; 0000276fH

; 3484 :            list[listtop].op1.real = cos(list[listtop].op1.real);

	mov	edx, DWORD PTR _listtop
	mov	eax, DWORD PTR _list
	imul	edx, 168				; 000000a8H
	fld	QWORD PTR [edx+eax+32]
	lea	esi, DWORD PTR [edx+eax+32]
	call	__CIcos
	pop	edi
	fstp	QWORD PTR [esi]
	pop	esi
	pop	ebx

; 4627 : 
; 4628 :       }
; 4629 : } // end more_makenode()

	mov	esp, ebp
	pop	ebp
	ret	0
$LN270@more_maken:

; 3485 :            break;
; 3486 :          }
; 3487 :          list[listtop].left = left - listtop;
; 3488 :          list[listtop].type = type;
; 3489 :          list[listtop].datatype = REAL_TYPE;
; 3490 :          break;
; 3491 : 
; 3492 :     case ACOS_NODE:
; 3493 :          if ( is_constant(left) )

	mov	edi, DWORD PTR _left$[ebp]
	push	edi
	call	_is_constant

; 3496 :            list[listtop].type = PUSHCONST_NODE;

	mov	ecx, DWORD PTR _list
	add	esp, 4
	test	eax, eax
	mov	eax, DWORD PTR _listtop
	je	$LN294@more_maken

; 3494 :          { /* fold constants */
; 3495 :            listtop--;

	dec	eax
	mov	DWORD PTR _listtop, eax

; 3496 :            list[listtop].type = PUSHCONST_NODE;

	imul	eax, 168				; 000000a8H
	mov	DWORD PTR [eax+ecx], 10095		; 0000276fH

; 3497 :            if ( fabs(list[listtop].op1.real) > 1.0 )

	mov	ecx, DWORD PTR _listtop
	mov	eax, DWORD PTR _list
	mov	edx, ecx
	imul	edx, 168				; 000000a8H
	fld	QWORD PTR [edx+eax+32]
	fabs
	fcomp	QWORD PTR __real@3ff0000000000000
	fnstsw	ax
	test	ah, 65					; 00000041H
	jne	SHORT $LN268@more_maken

; 3498 :              kb_error(1427,"acos argument out of bounds.\n", COMMAND_ERROR );

	push	5
	push	OFFSET ??_C@_0BO@IJAOBLOA@acos?5argument?5out?5of?5bounds?4?6?$AA@
	push	1427					; 00000593H
	call	_kb_error
	mov	ecx, DWORD PTR _listtop
	add	esp, 12					; 0000000cH
$LN268@more_maken:

; 3499 :            list[listtop].op1.real = acos(list[listtop].op1.real);

	mov	edx, DWORD PTR _list
	imul	ecx, 168				; 000000a8H
	fld	QWORD PTR [ecx+edx+32]
	lea	esi, DWORD PTR [ecx+edx+32]
	call	__CIacos
	pop	edi
	fstp	QWORD PTR [esi]
	pop	esi
	pop	ebx

; 4627 : 
; 4628 :       }
; 4629 : } // end more_makenode()

	mov	esp, ebp
	pop	ebp
	ret	0
$LN267@more_maken:

; 3500 :            break;
; 3501 :          }
; 3502 :          list[listtop].left = left - listtop;
; 3503 :          list[listtop].type = type;
; 3504 :          list[listtop].datatype = REAL_TYPE;
; 3505 :          break;
; 3506 : 
; 3507 :     case TAN_NODE:
; 3508 :          if ( is_constant(left) )

	mov	edi, DWORD PTR _left$[ebp]
	push	edi
	call	_is_constant

; 3511 :            list[listtop].type = PUSHCONST_NODE;

	mov	ecx, DWORD PTR _list
	add	esp, 4
	test	eax, eax
	mov	eax, DWORD PTR _listtop
	je	$LN294@more_maken

; 3509 :          { /* fold constants */
; 3510 :            listtop--;

	dec	eax
	mov	DWORD PTR _listtop, eax

; 3511 :            list[listtop].type = PUSHCONST_NODE;

	imul	eax, 168				; 000000a8H
	mov	DWORD PTR [eax+ecx], 10095		; 0000276fH

; 3512 :            list[listtop].op1.real = tan(list[listtop].op1.real);

	mov	edx, DWORD PTR _listtop
	mov	eax, DWORD PTR _list
	imul	edx, 168				; 000000a8H
	fld	QWORD PTR [edx+eax+32]
	lea	esi, DWORD PTR [edx+eax+32]
	call	__CItan
	pop	edi
	fstp	QWORD PTR [esi]
	pop	esi
	pop	ebx

; 4627 : 
; 4628 :       }
; 4629 : } // end more_makenode()

	mov	esp, ebp
	pop	ebp
	ret	0
$LN265@more_maken:

; 3513 :            break;
; 3514 :          }
; 3515 :          list[listtop].left = left - listtop;
; 3516 :          list[listtop].type = type;
; 3517 :          list[listtop].datatype = REAL_TYPE;
; 3518 :          break;
; 3519 : 
; 3520 :     case ATAN_NODE:
; 3521 :          if ( is_constant(left) )

	mov	edi, DWORD PTR _left$[ebp]
	push	edi
	call	_is_constant

; 3524 :            list[listtop].type = PUSHCONST_NODE;

	mov	ecx, DWORD PTR _list
	add	esp, 4
	test	eax, eax
	mov	eax, DWORD PTR _listtop
	je	$LN294@more_maken

; 3522 :          { /* fold constants */
; 3523 :            listtop--;

	dec	eax
	mov	DWORD PTR _listtop, eax

; 3524 :            list[listtop].type = PUSHCONST_NODE;

	imul	eax, 168				; 000000a8H
	mov	DWORD PTR [eax+ecx], 10095		; 0000276fH

; 3525 :            list[listtop].op1.real = atan(list[listtop].op1.real);

	mov	edx, DWORD PTR _listtop
	mov	eax, DWORD PTR _list
	imul	edx, 168				; 000000a8H
	fld	QWORD PTR [edx+eax+32]
	lea	esi, DWORD PTR [edx+eax+32]
	call	__CIatan
	pop	edi
	fstp	QWORD PTR [esi]
	pop	esi
	pop	ebx

; 4627 : 
; 4628 :       }
; 4629 : } // end more_makenode()

	mov	esp, ebp
	pop	ebp
	ret	0
$LN263@more_maken:

; 3526 :            break;
; 3527 :          }
; 3528 :          list[listtop].left = left - listtop;
; 3529 :          list[listtop].type = type;
; 3530 :          list[listtop].datatype = REAL_TYPE;
; 3531 :          break;
; 3532 : 
; 3533 :     case SQR_NODE:
; 3534 :          if ( is_constant(left) )

	mov	edi, DWORD PTR _left$[ebp]
	push	edi
	call	_is_constant

; 3537 :            list[listtop].type = PUSHCONST_NODE;

	mov	ecx, DWORD PTR _list
	add	esp, 4
	test	eax, eax
	mov	eax, DWORD PTR _listtop
	je	$LN294@more_maken

; 3535 :          { /* fold constants */
; 3536 :            listtop--;

	dec	eax
	mov	DWORD PTR _listtop, eax

; 3537 :            list[listtop].type = PUSHCONST_NODE;

	imul	eax, 168				; 000000a8H
	mov	DWORD PTR [eax+ecx], 10095		; 0000276fH

; 3538 :            list[listtop].op1.real = list[listtop].op1.real*list[listtop].op1.real;

	mov	edx, DWORD PTR _listtop
	mov	eax, DWORD PTR _list
	imul	edx, 168				; 000000a8H
	fld	QWORD PTR [edx+eax+32]
	fmul	ST(0), ST(0)
	fstp	QWORD PTR [edx+eax+32]
	lea	eax, DWORD PTR [edx+eax+32]
	pop	edi
	pop	esi
	pop	ebx

; 4627 : 
; 4628 :       }
; 4629 : } // end more_makenode()

	mov	esp, ebp
	pop	ebp
	ret	0
$LN261@more_maken:

; 3539 :            break;
; 3540 :          }
; 3541 :          list[listtop].left = left - listtop;
; 3542 :          list[listtop].type = type;
; 3543 :          list[listtop].datatype = REAL_TYPE;
; 3544 :          break;
; 3545 : 
; 3546 :     case SQRT_NODE:
; 3547 :          if ( is_constant(left) )

	mov	edi, DWORD PTR _left$[ebp]
	push	edi
	call	_is_constant

; 3548 :          { /* fold constants */
; 3549 :            listtop--;
; 3550 :            list[listtop].type = PUSHCONST_NODE;

	mov	ecx, DWORD PTR _list
	add	esp, 4
	test	eax, eax
	mov	eax, DWORD PTR _listtop
	je	$LN294@more_maken

; 3551 :            if ( list[listtop].op1.real < 0.0 )

	fldz
	dec	eax
	mov	DWORD PTR _listtop, eax
	imul	eax, 168				; 000000a8H
	mov	DWORD PTR [eax+ecx], 10095		; 0000276fH
	mov	ecx, DWORD PTR _listtop
	mov	eax, DWORD PTR _list
	mov	edx, ecx
	imul	edx, 168				; 000000a8H
	fcomp	QWORD PTR [edx+eax+32]
	fnstsw	ax
	test	ah, 65					; 00000041H
	jne	SHORT $LN259@more_maken

; 3552 :              kb_error(1428,"sqrt of negative number.\n", COMMAND_ERROR );

	push	5
	push	OFFSET ??_C@_0BK@PJJFIHAA@sqrt?5of?5negative?5number?4?6?$AA@
	push	1428					; 00000594H
	call	_kb_error
	mov	ecx, DWORD PTR _listtop
	add	esp, 12					; 0000000cH
$LN259@more_maken:

; 3553 :            list[listtop].op1.real = sqrt(list[listtop].op1.real);

	mov	edx, DWORD PTR _list
	imul	ecx, 168				; 000000a8H
	fld	QWORD PTR [ecx+edx+32]
	lea	esi, DWORD PTR [ecx+edx+32]
	call	__CIsqrt
	pop	edi
	fstp	QWORD PTR [esi]
	pop	esi
	pop	ebx

; 4627 : 
; 4628 :       }
; 4629 : } // end more_makenode()

	mov	esp, ebp
	pop	ebp
	ret	0
$LN258@more_maken:

; 3554 :            break;
; 3555 :          }
; 3556 :          list[listtop].left = left - listtop;
; 3557 :          list[listtop].type = type;
; 3558 :          list[listtop].datatype = REAL_TYPE;
; 3559 :          break;
; 3560 : 
; 3561 :     case ELLIPTICK_NODE:
; 3562 :          if ( is_constant(left) )

	mov	edi, DWORD PTR _left$[ebp]
	push	edi
	call	_is_constant

; 3565 :            list[listtop].type = PUSHCONST_NODE;

	mov	ecx, DWORD PTR _list
	add	esp, 4
	test	eax, eax
	mov	eax, DWORD PTR _listtop
	je	$LN294@more_maken

; 3563 :          { /* fold constants */
; 3564 :            listtop--;

	dec	eax
	mov	DWORD PTR _listtop, eax

; 3565 :            list[listtop].type = PUSHCONST_NODE;

	imul	eax, 168				; 000000a8H
	mov	DWORD PTR [eax+ecx], 10095		; 0000276fH

; 3566 :            list[listtop].op1.real = ellipticK(list[listtop].op1.real);

	mov	edx, DWORD PTR _listtop
	mov	eax, DWORD PTR _list
	imul	edx, 168				; 000000a8H
	sub	esp, 8
	fld	QWORD PTR [edx+eax+32]
	fstp	QWORD PTR [esp]
	call	_ellipticK
$LN474@more_maken:
	mov	ecx, DWORD PTR _listtop
	mov	edx, DWORD PTR _list
	add	esp, 8
	imul	ecx, 168				; 000000a8H
	pop	edi
	pop	esi
	fstp	QWORD PTR [ecx+edx+32]
	pop	ebx

; 4627 : 
; 4628 :       }
; 4629 : } // end more_makenode()

	mov	esp, ebp
	pop	ebp
	ret	0
$LN256@more_maken:

; 3567 :            break;
; 3568 :          }
; 3569 :          list[listtop].left = left - listtop;
; 3570 :          list[listtop].type = type;
; 3571 :          list[listtop].datatype = REAL_TYPE;
; 3572 :          break;
; 3573 : 
; 3574 :     case ELLIPTICE_NODE:
; 3575 :          if ( is_constant(left) )

	mov	edi, DWORD PTR _left$[ebp]
	push	edi
	call	_is_constant

; 3578 :            list[listtop].type = PUSHCONST_NODE;

	mov	ecx, DWORD PTR _list
	add	esp, 4
	test	eax, eax
	mov	eax, DWORD PTR _listtop
	je	$LN294@more_maken

; 3576 :          { /* fold constants */
; 3577 :            listtop--;

	dec	eax
	mov	DWORD PTR _listtop, eax

; 3578 :            list[listtop].type = PUSHCONST_NODE;

	imul	eax, 168				; 000000a8H
	mov	DWORD PTR [eax+ecx], 10095		; 0000276fH

; 3579 :            list[listtop].op1.real = ellipticE(list[listtop].op1.real);

	mov	edx, DWORD PTR _listtop
	mov	eax, DWORD PTR _list
	imul	edx, 168				; 000000a8H
	sub	esp, 8
	fld	QWORD PTR [edx+eax+32]
	fstp	QWORD PTR [esp]
	call	_ellipticE

; 3580 :            break;

	jmp	SHORT $LN474@more_maken
$LN254@more_maken:

; 3581 :          }
; 3582 :          list[listtop].left = left - listtop;
; 3583 :          list[listtop].type = type;
; 3584 :          list[listtop].datatype = REAL_TYPE;
; 3585 :          break;
; 3586 : 
; 3587 : 
; 3588 :     case CEIL_NODE:
; 3589 :          if ( is_constant(left) )

	mov	edi, DWORD PTR _left$[ebp]
	push	edi
	call	_is_constant

; 3592 :            list[listtop].type = PUSHCONST_NODE;

	mov	ecx, DWORD PTR _list
	add	esp, 4
	test	eax, eax
	mov	eax, DWORD PTR _listtop
	je	$LN294@more_maken

; 3590 :          { /* fold constants */
; 3591 :            listtop--;

	dec	eax
	mov	DWORD PTR _listtop, eax

; 3592 :            list[listtop].type = PUSHCONST_NODE;

	imul	eax, 168				; 000000a8H
	mov	DWORD PTR [eax+ecx], 10095		; 0000276fH

; 3593 :            list[listtop].op1.real = ceil(list[listtop].op1.real);

	mov	edx, DWORD PTR _listtop
	mov	eax, DWORD PTR _list
	imul	edx, 168				; 000000a8H
	sub	esp, 8
	fld	QWORD PTR [edx+eax+32]
	fstp	QWORD PTR [esp]
	call	_ceil

; 3594 :            break;

	jmp	$LN474@more_maken
$LN252@more_maken:

; 3595 :          }
; 3596 :          list[listtop].left = left - listtop;
; 3597 :          list[listtop].type = type;
; 3598 :          list[listtop].datatype = REAL_TYPE;
; 3599 :          break;
; 3600 : 
; 3601 :     case FLOOR_NODE:
; 3602 :          if ( is_constant(left) )

	mov	edi, DWORD PTR _left$[ebp]
	push	edi
	call	_is_constant

; 3605 :            list[listtop].type = PUSHCONST_NODE;

	mov	ecx, DWORD PTR _list
	add	esp, 4
	test	eax, eax
	mov	eax, DWORD PTR _listtop
	je	$LN294@more_maken

; 3603 :          { /* fold constants */
; 3604 :            listtop--;

	dec	eax
	mov	DWORD PTR _listtop, eax

; 3605 :            list[listtop].type = PUSHCONST_NODE;

	imul	eax, 168				; 000000a8H
	mov	DWORD PTR [eax+ecx], 10095		; 0000276fH

; 3606 :            list[listtop].op1.real = floor(list[listtop].op1.real);

	mov	edx, DWORD PTR _listtop
	mov	eax, DWORD PTR _list
	imul	edx, 168				; 000000a8H
	fld	QWORD PTR [edx+eax+32]
	lea	esi, DWORD PTR [edx+eax+32]
	sub	esp, 8
	fstp	QWORD PTR [esp]
	call	_floor
	add	esp, 8
	fstp	QWORD PTR [esi]
	pop	edi
	pop	esi
	pop	ebx

; 4627 : 
; 4628 :       }
; 4629 : } // end more_makenode()

	mov	esp, ebp
	pop	ebp
	ret	0
$LN250@more_maken:

; 3607 :            break;
; 3608 :          }
; 3609 :          list[listtop].left = left - listtop;
; 3610 :          list[listtop].type = type;
; 3611 :          list[listtop].datatype = REAL_TYPE;
; 3612 :          break;
; 3613 : 
; 3614 :     case CHS_NODE:
; 3615 :          if ( is_constant(left) )

	mov	edi, DWORD PTR _left$[ebp]
	push	edi
	call	_is_constant

; 3618 :            list[listtop].type = PUSHCONST_NODE;

	mov	ecx, DWORD PTR _list
	add	esp, 4
	test	eax, eax
	mov	eax, DWORD PTR _listtop
	je	$LN294@more_maken

; 3616 :          { /* fold constants */
; 3617 :            listtop--;

	dec	eax
	mov	DWORD PTR _listtop, eax

; 3618 :            list[listtop].type = PUSHCONST_NODE;

	imul	eax, 168				; 000000a8H
	mov	DWORD PTR [eax+ecx], 10095		; 0000276fH

; 3619 :            list[listtop].op1.real = -list[listtop].op1.real;

	mov	edx, DWORD PTR _listtop
	mov	eax, DWORD PTR _list
	imul	edx, 168				; 000000a8H
	fld	QWORD PTR [edx+eax+32]
	fchs
	fstp	QWORD PTR [edx+eax+32]
	lea	eax, DWORD PTR [edx+eax+32]
	pop	edi
	pop	esi
	pop	ebx

; 4627 : 
; 4628 :       }
; 4629 : } // end more_makenode()

	mov	esp, ebp
	pop	ebp
	ret	0
$LN248@more_maken:

; 3620 :            break;
; 3621 :          }
; 3622 :          list[listtop].left = left - listtop;
; 3623 :          list[listtop].type = type;
; 3624 :          list[listtop].datatype = REAL_TYPE;
; 3625 :          break;
; 3626 : 
; 3627 : 
; 3628 :     case MAXIMUM_NODE:
; 3629 :          if ( is_constant(right) && is_constant(left) )

	mov	edi, DWORD PTR _right$[ebp]
	push	edi
	call	_is_constant
	mov	ebx, DWORD PTR _left$[ebp]
	add	esp, 4
	test	eax, eax
	je	$LN247@more_maken
	push	ebx
	call	_is_constant
	add	esp, 4
	test	eax, eax
	je	$LN247@more_maken

; 3630 :          { /* fold constants */
; 3631 :            listtop -= 2;

	mov	esi, DWORD PTR _listtop
	sub	esi, 2
	mov	DWORD PTR _listtop, esi

; 3632 :            if ( (left != listtop) || (right != listtop+1) )

	cmp	ebx, esi
	jne	SHORT $LN245@more_maken
	lea	eax, DWORD PTR [esi+1]
	cmp	edi, eax
	je	SHORT $LN246@more_maken
$LN245@more_maken:

; 3633 :              kb_error(1429,"Constant folding not working.",COMMAND_ERROR);

	push	5
	push	OFFSET ??_C@_0BO@DCHCJGFO@Constant?5folding?5not?5working?4?$AA@
	push	1429					; 00000595H
	call	_kb_error
	mov	esi, DWORD PTR _listtop
	add	esp, 12					; 0000000cH
$LN246@more_maken:

; 3634 :            list[listtop].op1.real = 
; 3635 :              (list[left].op1.real > list[right].op1.real) ?
; 3636 :                 list[left].op1.real : list[right].op1.real;

	mov	ecx, DWORD PTR _list
	imul	edi, 168				; 000000a8H
	imul	ebx, 168				; 000000a8H
	fld	QWORD PTR [edi+ecx+32]
	fcomp	QWORD PTR [ebx+ecx+32]
	fnstsw	ax
	lea	edi, DWORD PTR [edi+ecx+32]
	lea	edx, DWORD PTR [ebx+ecx+32]
	test	ah, 5
	jp	SHORT $LN338@more_maken
	fld	QWORD PTR [edx]
	jmp	SHORT $LN339@more_maken
$LN338@more_maken:
	fld	QWORD PTR [edi]
$LN339@more_maken:
	imul	esi, 168				; 000000a8H
	fstp	QWORD PTR [esi+ecx+32]

; 3637 :            list[listtop].type = PUSHCONST_NODE;

	mov	ecx, DWORD PTR _listtop
	mov	edx, DWORD PTR _list
	imul	ecx, 168				; 000000a8H
	mov	DWORD PTR [ecx+edx], 10095		; 0000276fH

; 3638 :            list[listtop].stack_delta = 1;
; 3639 :            break;

	jmp	$LN462@more_maken
$LN247@more_maken:

; 3640 :          }
; 3641 :          list[listtop].right = right - listtop;

	mov	eax, DWORD PTR _listtop
	mov	edx, DWORD PTR _list
	sub	edi, eax
	imul	eax, 168				; 000000a8H
	mov	DWORD PTR [eax+edx+8], edi

; 3642 :          list[listtop].left = left - listtop;

	mov	eax, DWORD PTR _listtop
	mov	ecx, DWORD PTR _list
	sub	ebx, eax
	imul	eax, 168				; 000000a8H
	mov	DWORD PTR [eax+ecx+4], ebx
$LN476@more_maken:

; 3643 :          list[listtop].type = type;

	mov	edx, DWORD PTR _listtop
	mov	eax, DWORD PTR _list
	imul	edx, 168				; 000000a8H
	mov	DWORD PTR [edx+eax], esi
$LN475@more_maken:

; 3644 :          list[listtop].stack_delta = -1;

	mov	ecx, DWORD PTR _listtop
	mov	edx, DWORD PTR _list
	imul	ecx, 168				; 000000a8H
	mov	DWORD PTR [ecx+edx+156], -1
$LN198@more_maken:

; 3645 :          list[listtop].datatype = REAL_TYPE;

	mov	eax, DWORD PTR _listtop
	mov	ecx, DWORD PTR _list
	imul	eax, 168				; 000000a8H
	pop	edi
	pop	esi
	mov	DWORD PTR [eax+ecx+20], 1
	pop	ebx

; 4627 : 
; 4628 :       }
; 4629 : } // end more_makenode()

	mov	esp, ebp
	pop	ebp
	ret	0
$LN244@more_maken:

; 3646 :          break;
; 3647 : 
; 3648 :     case MINIMUM_NODE:
; 3649 :          if ( is_constant(right) && is_constant(left) )

	mov	edi, DWORD PTR _right$[ebp]
	push	edi
	call	_is_constant
	mov	ebx, DWORD PTR _left$[ebp]
	add	esp, 4
	test	eax, eax
	je	$LN243@more_maken
	push	ebx
	call	_is_constant
	add	esp, 4
	test	eax, eax
	je	$LN243@more_maken

; 3650 :          { /* fold constants */
; 3651 :            listtop -= 2;

	mov	esi, DWORD PTR _listtop
	sub	esi, 2
	mov	DWORD PTR _listtop, esi

; 3652 :            if ( (left != listtop) || (right != listtop+1) )

	cmp	ebx, esi
	jne	SHORT $LN241@more_maken
	lea	edx, DWORD PTR [esi+1]
	cmp	edi, edx
	je	SHORT $LN242@more_maken
$LN241@more_maken:

; 3653 :               kb_error(1430,"Internal error: Constant folding not working.",
; 3654 :                  COMMAND_ERROR);

	push	5
	push	OFFSET ??_C@_0CO@GPMAMBBE@Internal?5error?3?5Constant?5folding@
	push	1430					; 00000596H
	call	_kb_error
	mov	esi, DWORD PTR _listtop
	add	esp, 12					; 0000000cH
$LN242@more_maken:

; 3655 :            list[listtop].op1.real = 
; 3656 :              (list[left].op1.real < list[right].op1.real) ?
; 3657 :                 list[left].op1.real : list[right].op1.real;

	mov	ecx, DWORD PTR _list
	imul	edi, 168				; 000000a8H
	imul	ebx, 168				; 000000a8H
	fld	QWORD PTR [edi+ecx+32]
	fcomp	QWORD PTR [ebx+ecx+32]
	fnstsw	ax
	lea	edi, DWORD PTR [edi+ecx+32]
	lea	edx, DWORD PTR [ebx+ecx+32]
	test	ah, 65					; 00000041H
	jne	SHORT $LN340@more_maken
	fld	QWORD PTR [edx]
	jmp	SHORT $LN341@more_maken
$LN340@more_maken:
	fld	QWORD PTR [edi]
$LN341@more_maken:
	imul	esi, 168				; 000000a8H
	fstp	QWORD PTR [esi+ecx+32]

; 3658 :            list[listtop].type = PUSHCONST_NODE;

	mov	eax, DWORD PTR _listtop
	mov	ecx, DWORD PTR _list
	imul	eax, 168				; 000000a8H
	mov	DWORD PTR [eax+ecx], 10095		; 0000276fH
$LN477@more_maken:

; 3659 :            list[listtop].stack_delta = 1;

	mov	edx, DWORD PTR _listtop
	mov	eax, DWORD PTR _list
	imul	edx, 168				; 000000a8H
	pop	edi
	pop	esi
	mov	DWORD PTR [edx+eax+156], 1
	pop	ebx

; 4627 : 
; 4628 :       }
; 4629 : } // end more_makenode()

	mov	esp, ebp
	pop	ebp
	ret	0
$LN243@more_maken:

; 3660 :            break;
; 3661 :          }
; 3662 :          list[listtop].right = right - listtop;

	mov	eax, DWORD PTR _listtop
	mov	edx, DWORD PTR _list
	mov	ecx, edi

; 3663 :          list[listtop].left = left - listtop;
; 3664 :          list[listtop].type = type;
; 3665 :          list[listtop].stack_delta = -1;
; 3666 :          list[listtop].datatype = list[right].datatype;

	imul	edi, 168				; 000000a8H
	sub	ecx, eax
	imul	eax, 168				; 000000a8H
	mov	DWORD PTR [eax+edx+8], ecx
	mov	eax, DWORD PTR _listtop
	mov	ecx, DWORD PTR _list
	sub	ebx, eax
	imul	eax, 168				; 000000a8H
	mov	DWORD PTR [eax+ecx+4], ebx
	mov	edx, DWORD PTR _listtop
	mov	eax, DWORD PTR _list
	imul	edx, 168				; 000000a8H
	mov	DWORD PTR [edx+eax], esi
	mov	ecx, DWORD PTR _listtop
	mov	edx, DWORD PTR _list
	imul	ecx, 168				; 000000a8H
	mov	DWORD PTR [ecx+edx+156], -1
	mov	ecx, DWORD PTR _listtop
	mov	eax, DWORD PTR _list
	imul	ecx, 168				; 000000a8H
	mov	edx, DWORD PTR [edi+eax+20]
	pop	edi
	pop	esi
	mov	DWORD PTR [ecx+eax+20], edx
	pop	ebx

; 4627 : 
; 4628 :       }
; 4629 : } // end more_makenode()

	mov	esp, ebp
	pop	ebp
	ret	0
$LN240@more_maken:

; 3667 :          break;
; 3668 : 
; 3669 :     case ATAN2_NODE:
; 3670 :     case INCOMPLETE_ELLIPTICF_NODE:
; 3671 :     case INCOMPLETE_ELLIPTICE_NODE:
; 3672 :          if ( is_constant(right) && is_constant(left) )

	mov	edi, DWORD PTR _right$[ebp]
	push	edi
	call	_is_constant
	mov	ebx, DWORD PTR _left$[ebp]
	add	esp, 4
	test	eax, eax
	je	$LN247@more_maken
	push	ebx
	call	_is_constant
	add	esp, 4
	test	eax, eax
	je	$LN247@more_maken

; 3673 :          { /* fold constants */
; 3674 :            listtop -= 2;

	mov	eax, DWORD PTR _listtop
	sub	eax, 2
	mov	DWORD PTR _listtop, eax

; 3675 :            if ( (left != listtop) || (right != listtop+1) )

	cmp	ebx, eax
	jne	SHORT $LN237@more_maken
	inc	eax
	cmp	edi, eax
	je	SHORT $LN238@more_maken
$LN237@more_maken:

; 3676 :               kb_error(1431,"Internal error: Constant folding not working.",
; 3677 :                  COMMAND_ERROR);

	push	5
	push	OFFSET ??_C@_0CO@GPMAMBBE@Internal?5error?3?5Constant?5folding@
	push	1431					; 00000597H
	call	_kb_error
	add	esp, 12					; 0000000cH
$LN238@more_maken:

; 3678 :            switch(type)

	sub	esi, 10136				; 00002798H
	je	$LN234@more_maken
	sub	esi, 22					; 00000016H
	je	SHORT $LN233@more_maken
	dec	esi
	jne	$LN235@more_maken

; 3685 :              case INCOMPLETE_ELLIPTICE_NODE: list[listtop].op1.real = 
; 3686 :                 incompleteEllipticE(list[left].op1.real,list[right].op1.real);

	mov	eax, DWORD PTR _list
	imul	edi, 168				; 000000a8H
	imul	ebx, 168				; 000000a8H
	fld	QWORD PTR [edi+eax+32]
	sub	esp, 16					; 00000010H
	fstp	QWORD PTR [esp+8]
	fld	QWORD PTR [ebx+eax+32]
	fstp	QWORD PTR [esp]
	call	_incompleteEllipticE
	mov	eax, DWORD PTR _listtop
	mov	ecx, DWORD PTR _list
	add	esp, 16					; 00000010H
	imul	eax, 168				; 000000a8H
	fstp	QWORD PTR [eax+ecx+32]

; 3687 :               break;

	jmp	SHORT $LN235@more_maken
$LN233@more_maken:

; 3681 :               break;
; 3682 :              case INCOMPLETE_ELLIPTICF_NODE: list[listtop].op1.real = 
; 3683 :                 incompleteEllipticF(list[left].op1.real,list[right].op1.real);

	mov	eax, DWORD PTR _list
	imul	edi, 168				; 000000a8H
	imul	ebx, 168				; 000000a8H
	fld	QWORD PTR [edi+eax+32]
	sub	esp, 16					; 00000010H
	fstp	QWORD PTR [esp+8]
	fld	QWORD PTR [ebx+eax+32]
	fstp	QWORD PTR [esp]
	call	_incompleteEllipticF
	mov	edx, DWORD PTR _listtop
	mov	eax, DWORD PTR _list
	add	esp, 16					; 00000010H
	imul	edx, 168				; 000000a8H
	fstp	QWORD PTR [edx+eax+32]

; 3684 :                  break;

	jmp	SHORT $LN235@more_maken
$LN234@more_maken:

; 3679 :            { case ATAN2_NODE: list[listtop].op1.real = 
; 3680 :                 atan2(list[left].op1.real,list[right].op1.real);

	mov	esi, DWORD PTR _list
	imul	ebx, 168				; 000000a8H
	imul	edi, 168				; 000000a8H
	fld	QWORD PTR [ebx+esi+32]
	fld	QWORD PTR [edi+esi+32]
	call	__CIatan2
	mov	ecx, DWORD PTR _listtop
	imul	ecx, 168				; 000000a8H
	fstp	QWORD PTR [ecx+esi+32]
$LN235@more_maken:

; 3688 :            }
; 3689 :            list[listtop].type = PUSHCONST_NODE;

	mov	eax, DWORD PTR _listtop
	mov	edx, DWORD PTR _list
	imul	eax, 168				; 000000a8H
	mov	DWORD PTR [eax+edx], 10095		; 0000276fH

; 3690 :            list[listtop].stack_delta = 1;
; 3691 :            break;

	jmp	$LN462@more_maken
$LN231@more_maken:

; 3692 :          }
; 3693 :          list[listtop].right = right - listtop;
; 3694 :          list[listtop].left = left - listtop;
; 3695 :          list[listtop].type = type;
; 3696 :          list[listtop].stack_delta = -1;
; 3697 :          list[listtop].datatype = REAL_TYPE;
; 3698 :          break;
; 3699 : 
; 3700 :     case WRAP_COMPOSE_NODE:
; 3701 :          list[listtop].right = right - listtop;

	mov	eax, DWORD PTR _listtop
	mov	edx, DWORD PTR _right$[ebp]
	mov	ecx, DWORD PTR _list
	sub	edx, eax
	imul	eax, 168				; 000000a8H
	mov	DWORD PTR [eax+ecx+8], edx

; 3702 :          list[listtop].left = left - listtop;

	mov	eax, DWORD PTR _listtop
	mov	edx, DWORD PTR _left$[ebp]
	mov	ecx, DWORD PTR _list
	sub	edx, eax
	imul	eax, 168				; 000000a8H
	mov	DWORD PTR [eax+ecx+4], edx

; 3703 :          list[listtop].type = type;

	mov	edx, DWORD PTR _listtop
	mov	eax, DWORD PTR _list
	imul	edx, 168				; 000000a8H
	mov	DWORD PTR [edx+eax], esi

; 3704 :          list[listtop].stack_delta = -1;

	mov	ecx, DWORD PTR _listtop
	mov	edx, DWORD PTR _list
	imul	ecx, 168				; 000000a8H
	mov	DWORD PTR [ecx+edx+156], -1

; 3705 :          list[listtop].datatype = REAL_TYPE;

	mov	eax, DWORD PTR _listtop
	mov	ecx, DWORD PTR _list
	imul	eax, 168				; 000000a8H
	pop	edi
	pop	esi
	mov	DWORD PTR [eax+ecx+20], 1
	pop	ebx

; 4627 : 
; 4628 :       }
; 4629 : } // end more_makenode()

	mov	esp, ebp
	pop	ebp
	ret	0
$LN230@more_maken:

; 3706 :          break;
; 3707 : 
; 3708 :     case WRAP_INVERSE_NODE:
; 3709 :          list[listtop].left = left - listtop;

	mov	eax, DWORD PTR _listtop
	mov	edx, DWORD PTR _left$[ebp]
	mov	ecx, DWORD PTR _list
	sub	edx, eax
	imul	eax, 168				; 000000a8H
	mov	DWORD PTR [eax+ecx+4], edx

; 3710 :          list[listtop].type = type;

	mov	edx, DWORD PTR _listtop
	mov	eax, DWORD PTR _list
	imul	edx, 168				; 000000a8H
	mov	DWORD PTR [edx+eax], esi

; 3711 :          list[listtop].datatype = REAL_TYPE;
; 3712 :          break;

	jmp	$LN468@more_maken
$LN229@more_maken:

; 3713 : 
; 3714 :     case POW_NODE:
; 3715 :     case '^':
; 3716 :       if ( is_constant(right) )

	mov	edi, DWORD PTR _right$[ebp]
	push	edi
	call	_is_constant
	add	esp, 4
	test	eax, eax
	je	$LN227@more_maken

; 3717 :       { REAL p = list[right].op1.real;

	mov	ecx, DWORD PTR _list
	mov	eax, edi
	imul	eax, 168				; 000000a8H

; 3718 :         if ( floor(p) == p )

	sub	esp, 8
	fld	QWORD PTR [eax+ecx+32]
	fst	QWORD PTR _p$90593[ebp]
	fstp	QWORD PTR [esp]
	call	_floor
	fld	QWORD PTR _p$90593[ebp]
	add	esp, 8
	fld	ST(0)
	fucomp	ST(2)
	fnstsw	ax
	fstp	ST(1)
	test	ah, 68					; 00000044H
	jp	$LN434@more_maken

; 3719 :         { /* integer power */
; 3720 :           n = (int)p;

	call	__ftol2_sse
	mov	ebx, eax

; 3721 :           if ( n == 0 )

	test	ebx, ebx
	jne	SHORT $LN226@more_maken

; 3722 :           { kb_error(1432,"Exponent 0.  Did you mean this?\n",WARNING);

	push	2
	push	OFFSET ??_C@_0CB@PGHDKOBF@Exponent?50?4?5?5Did?5you?5mean?5this?$DP?6@
	push	1432					; 00000598H
	call	_kb_error

; 3723 :              listtop--;
; 3724 :              list[listtop].type = REPLACECONST_NODE;
; 3725 :              list[listtop].op1.real = 1.0;

	fld1
	mov	eax, DWORD PTR _listtop
	mov	edx, DWORD PTR _list
	dec	eax
	mov	DWORD PTR _listtop, eax
	imul	eax, 168				; 000000a8H
	mov	DWORD PTR [eax+edx], 10094		; 0000276eH
	mov	eax, DWORD PTR _listtop
	mov	ecx, DWORD PTR _list
	add	esp, 12					; 0000000cH
	imul	eax, 168				; 000000a8H
	pop	edi
	pop	esi
	fstp	QWORD PTR [eax+ecx+32]
	pop	ebx

; 4627 : 
; 4628 :       }
; 4629 : } // end more_makenode()

	mov	esp, ebp
	pop	ebp
	ret	0
$LN226@more_maken:

; 3726 :              break;
; 3727 :           }
; 3728 :           else if ( n == 1 )

	mov	edi, 1
	cmp	ebx, edi
	jne	SHORT $LN224@more_maken

; 3729 :           { /* leave alone */
; 3730 :              kb_error(1433,"Exponent 1.  Did you mean this?\n",WARNING);

	push	2
	push	OFFSET ??_C@_0CB@HHFGMLDC@Exponent?51?4?5?5Did?5you?5mean?5this?$DP?6@
	push	1433					; 00000599H
	call	_kb_error
	add	esp, 12					; 0000000cH

; 3731 :              listtop-=2;

	sub	DWORD PTR _listtop, 2
	pop	edi
	pop	esi
	pop	ebx

; 4627 : 
; 4628 :       }
; 4629 : } // end more_makenode()

	mov	esp, ebp
	pop	ebp
	ret	0
$LN224@more_maken:

; 3732 :              break;
; 3733 :           }
; 3734 :           else if ( n == 2 )
; 3735 :           { listtop--;
; 3736 :             if ( is_constant(left) )

	mov	esi, DWORD PTR _left$[ebp]
	push	esi
	cmp	ebx, 2
	jne	$LN222@more_maken
	sub	DWORD PTR _listtop, edi
	call	_is_constant

; 3738 :               list[listtop].type = PUSHCONST_NODE;

	mov	edx, DWORD PTR _list
	add	esp, 4
	test	eax, eax
	je	SHORT $LN221@more_maken

; 3737 :             { listtop--;

	mov	eax, DWORD PTR _listtop
	sub	eax, edi
	mov	DWORD PTR _listtop, eax

; 3738 :               list[listtop].type = PUSHCONST_NODE;

	imul	eax, 168				; 000000a8H
	mov	DWORD PTR [eax+edx], 10095		; 0000276fH

; 3739 :               list[listtop].op1.real *= list[listtop].op1.real;

	mov	eax, DWORD PTR _listtop
	mov	ecx, DWORD PTR _list
	imul	eax, 168				; 000000a8H
	fld	QWORD PTR [eax+ecx+32]
	fmul	ST(0), ST(0)
	fstp	QWORD PTR [eax+ecx+32]

; 3740 :               list[listtop].stack_delta = 1;

	mov	edx, DWORD PTR _listtop
	lea	eax, DWORD PTR [eax+ecx+32]
	imul	edx, 168				; 000000a8H
	mov	eax, DWORD PTR _list
	mov	DWORD PTR [edx+eax+156], edi
	pop	edi
	pop	esi
	pop	ebx

; 4627 : 
; 4628 :       }
; 4629 : } // end more_makenode()

	mov	esp, ebp
	pop	ebp
	ret	0
$LN221@more_maken:

; 3741 :             }
; 3742 :             else
; 3743 :             { list[listtop].type = SQR_NODE;

	mov	ecx, DWORD PTR _listtop
	imul	ecx, 168				; 000000a8H
	mov	DWORD PTR [ecx+edx], 10137		; 00002799H
$LN478@more_maken:

; 3744 :               list[listtop].left = left - listtop;

	mov	eax, DWORD PTR _listtop
	mov	ecx, DWORD PTR _list
	sub	esi, eax
	imul	eax, 168				; 000000a8H
	mov	DWORD PTR [eax+ecx+4], esi

; 3745 :               list[listtop].stack_delta = 0;

	mov	edx, DWORD PTR _listtop
	mov	eax, DWORD PTR _list
	imul	edx, 168				; 000000a8H
	pop	edi
	pop	esi
	mov	DWORD PTR [edx+eax+156], 0
	pop	ebx

; 4627 : 
; 4628 :       }
; 4629 : } // end more_makenode()

	mov	esp, ebp
	pop	ebp
	ret	0
$LN222@more_maken:

; 3746 :             }
; 3747 :             break;
; 3748 :           }
; 3749 :           else if ( n == -1 )

	cmp	ebx, -1
	jne	SHORT $LN218@more_maken

; 3750 :           { listtop--;

	sub	DWORD PTR _listtop, edi

; 3751 :             if ( is_constant(left) )

	call	_is_constant
	add	esp, 4
	test	eax, eax
	je	SHORT $LN217@more_maken

; 3752 :             { listtop--;

	mov	eax, DWORD PTR _listtop

; 3753 :               list[listtop].op1.real = 1./list[listtop].op1.real;

	fld1
	mov	ecx, DWORD PTR _list
	sub	eax, edi
	mov	DWORD PTR _listtop, eax
	imul	eax, 168				; 000000a8H
	fdiv	QWORD PTR [eax+ecx+32]
	lea	eax, DWORD PTR [eax+ecx+32]
	pop	edi
	pop	esi
	pop	ebx
	fstp	QWORD PTR [eax]

; 4627 : 
; 4628 :       }
; 4629 : } // end more_makenode()

	mov	esp, ebp
	pop	ebp
	ret	0
$LN217@more_maken:

; 3754 :             }
; 3755 :             else
; 3756 :             { list[listtop].type = INV_NODE;

	mov	edx, DWORD PTR _listtop
	mov	eax, DWORD PTR _list
	imul	edx, 168				; 000000a8H
	mov	DWORD PTR [edx+eax], 10161		; 000027b1H

; 3757 :               list[listtop].left = left - listtop;
; 3758 :               list[listtop].stack_delta = 0;
; 3759 :             }
; 3760 :             break;

	jmp	$LN478@more_maken
$LN218@more_maken:

; 3761 :           }
; 3762 : 
; 3763 :           /* general */
; 3764 :           if ( is_constant(left) )

	call	_is_constant

; 3770 :              list[listtop].type = PUSHCONST_NODE;

	mov	ecx, DWORD PTR _list
	add	esp, 4
	test	eax, eax
	mov	eax, DWORD PTR _listtop
	je	$LN215@more_maken

; 3765 :           { /* fold constants */
; 3766 :              int k;
; 3767 :              REAL x;
; 3768 : 
; 3769 :              listtop -= 2;

	sub	eax, 2
	mov	DWORD PTR _listtop, eax

; 3770 :              list[listtop].type = PUSHCONST_NODE;

	imul	eax, 168				; 000000a8H
	mov	DWORD PTR [eax+ecx], 10095		; 0000276fH

; 3771 :              list[listtop].stack_delta = 1;

	mov	edx, DWORD PTR _listtop
	mov	eax, DWORD PTR _list
	imul	edx, 168				; 000000a8H
	mov	DWORD PTR [edx+eax+156], edi

; 3772 :              if ( left != listtop )

	cmp	esi, DWORD PTR _listtop
	je	SHORT $LN214@more_maken

; 3773 :                kb_error(1434,"Internal error: Constant folding not working.",
; 3774 :                  COMMAND_ERROR);

	push	5
	push	OFFSET ??_C@_0CO@GPMAMBBE@Internal?5error?3?5Constant?5folding@
	push	1434					; 0000059aH
	call	_kb_error
	add	esp, 12					; 0000000cH
$LN214@more_maken:

; 3775 :              x = list[left].op1.real;

	mov	ecx, esi
	mov	esi, DWORD PTR _list
	imul	ecx, 168				; 000000a8H

; 3776 :              for ( k = 1 ; k < abs(n) ; k++ )

	mov	eax, ebx
	fld	QWORD PTR [esi+ecx+32]
	cdq
	xor	eax, edx
	sub	eax, edx
	cmp	eax, 1
	jle	SHORT $LN447@more_maken
	lea	edx, DWORD PTR [eax-1]
	cmp	edx, 4
	jl	SHORT $LC401@more_maken

; 3777 :                list[left].op1.real *= x;

	lea	edx, DWORD PTR [eax-5]
	shr	edx, 2
	inc	edx
	lea	edi, DWORD PTR [edx*4+1]
$LN413@more_maken:
	dec	edx
	fld	ST(0)
	fmul	QWORD PTR [ecx+esi+32]
	fstp	QWORD PTR [ecx+esi+32]
	mov	esi, DWORD PTR _list
	fld	ST(0)
	fmul	QWORD PTR [ecx+esi+32]
	fstp	QWORD PTR [ecx+esi+32]
	mov	esi, DWORD PTR _list
	fld	ST(0)
	fmul	QWORD PTR [ecx+esi+32]
	fstp	QWORD PTR [ecx+esi+32]
	mov	esi, DWORD PTR _list
	fld	ST(0)
	fmul	QWORD PTR [ecx+esi+32]
	fstp	QWORD PTR [ecx+esi+32]
	mov	esi, DWORD PTR _list
	jne	SHORT $LN413@more_maken
$LC401@more_maken:

; 3776 :              for ( k = 1 ; k < abs(n) ; k++ )

	cmp	edi, eax
	jge	SHORT $LN447@more_maken
	sub	eax, edi
$LC213@more_maken:
	dec	eax

; 3777 :                list[left].op1.real *= x;

	fld	ST(0)
	fmul	QWORD PTR [ecx+esi+32]
	fstp	QWORD PTR [ecx+esi+32]
	mov	esi, DWORD PTR _list
	jne	SHORT $LC213@more_maken
$LN447@more_maken:

; 3776 :              for ( k = 1 ; k < abs(n) ; k++ )

	fstp	ST(0)

; 3778 :              if ( n < 0 )

	test	ebx, ebx
	jns	$LN333@more_maken

; 3779 :                list[left].op1.real = 1/list[left].op1.real;

	fld1
	pop	edi
	fdiv	QWORD PTR [esi+ecx+32]
	fstp	QWORD PTR [esi+ecx+32]
	pop	esi
	pop	ebx

; 4627 : 
; 4628 :       }
; 4629 : } // end more_makenode()

	mov	esp, ebp
	pop	ebp
	ret	0
$LN215@more_maken:

; 3780 :              break;
; 3781 :           }
; 3782 :           listtop--; /* pop constant power */

	sub	eax, edi
	mov	DWORD PTR _listtop, eax

; 3783 :           list[listtop].left = left - listtop;

	sub	esi, eax
	imul	eax, 168				; 000000a8H
	mov	DWORD PTR [eax+ecx+4], esi

; 3784 :           list[listtop].op1.intpow = n;

	mov	edx, DWORD PTR _listtop
	mov	eax, DWORD PTR _list
	imul	edx, 168				; 000000a8H
	mov	DWORD PTR [edx+eax+32], ebx

; 3785 :           list[listtop].type = INTPOW_NODE;

	mov	ecx, DWORD PTR _listtop
	mov	edx, DWORD PTR _list
	imul	ecx, 168				; 000000a8H
	pop	edi
	pop	esi
	mov	DWORD PTR [ecx+edx], 10130		; 00002792H
	pop	ebx

; 4627 : 
; 4628 :       }
; 4629 : } // end more_makenode()

	mov	esp, ebp
	pop	ebp
	ret	0
$LN434@more_maken:

; 3718 :         if ( floor(p) == p )

	fstp	ST(0)
$LN227@more_maken:

; 3786 :           break;
; 3787 :         }
; 3788 :       }
; 3789 :       if ( is_constant(right) && is_constant(left) )

	push	edi
	call	_is_constant
	mov	ebx, DWORD PTR _left$[ebp]
	add	esp, 4
	test	eax, eax
	je	$LN209@more_maken
	push	ebx
	call	_is_constant
	add	esp, 4
	test	eax, eax
	je	$LN209@more_maken

; 3790 :         { /* fold constants */
; 3791 :           listtop -= 2;

	mov	esi, DWORD PTR _listtop
	sub	esi, 2
	mov	DWORD PTR _listtop, esi

; 3792 :           if ( (left != listtop) || (right != listtop+1) )

	cmp	ebx, esi
	jne	SHORT $LN207@more_maken
	lea	eax, DWORD PTR [esi+1]
	cmp	edi, eax
	je	SHORT $LN208@more_maken
$LN207@more_maken:

; 3793 :              kb_error(1435,"Internal error: Constant folding not working.",
; 3794 :                 COMMAND_ERROR);

	push	5
	push	OFFSET ??_C@_0CO@GPMAMBBE@Internal?5error?3?5Constant?5folding@
	push	1435					; 0000059bH
	call	_kb_error
	mov	esi, DWORD PTR _listtop
	add	esp, 12					; 0000000cH
$LN208@more_maken:

; 3795 :           list[listtop].op1.real = 
; 3796 :               pow(list[left].op1.real,list[right].op1.real);

	mov	eax, DWORD PTR _list
	imul	ebx, 168				; 000000a8H
	imul	edi, 168				; 000000a8H
	fld	QWORD PTR [ebx+eax+32]
	fld	QWORD PTR [edi+eax+32]
	call	__CIpow
	imul	esi, 168				; 000000a8H
	mov	ecx, DWORD PTR _list
	pop	edi
	fstp	QWORD PTR [esi+ecx+32]

; 3797 :           list[listtop].type = PUSHCONST_NODE;

	mov	edx, DWORD PTR _listtop
	mov	eax, DWORD PTR _list
	imul	edx, 168				; 000000a8H
	mov	DWORD PTR [edx+eax], 10095		; 0000276fH

; 3798 :           list[listtop].stack_delta = 1;

	mov	ecx, DWORD PTR _listtop
	mov	edx, DWORD PTR _list
	imul	ecx, 168				; 000000a8H
	pop	esi
	mov	DWORD PTR [ecx+edx+156], 1
	pop	ebx

; 4627 : 
; 4628 :       }
; 4629 : } // end more_makenode()

	mov	esp, ebp
	pop	ebp
	ret	0
$LN209@more_maken:

; 3799 :           break;
; 3800 :         }
; 3801 :       list[listtop].right = right - listtop;

	mov	eax, DWORD PTR _listtop
	mov	ecx, DWORD PTR _list
	sub	edi, eax
	imul	eax, 168				; 000000a8H
	mov	DWORD PTR [eax+ecx+8], edi

; 3802 :       list[listtop].left = left - listtop;

	mov	eax, DWORD PTR _listtop
	mov	edx, DWORD PTR _list
	sub	ebx, eax
	imul	eax, 168				; 000000a8H
	mov	DWORD PTR [eax+edx+4], ebx

; 3803 :       list[listtop].type = type;

	mov	eax, DWORD PTR _listtop
	mov	ecx, DWORD PTR _list
	imul	eax, 168				; 000000a8H
	mov	DWORD PTR [eax+ecx], esi
$LN487@more_maken:

; 3804 :       list[listtop].stack_delta = -1;

	mov	edx, DWORD PTR _listtop
	mov	eax, DWORD PTR _list
	imul	edx, 168				; 000000a8H
	mov	DWORD PTR [edx+eax+156], -1

; 3805 :       list[listtop].datatype = REAL_TYPE;
; 3806 :       break;

	jmp	$LN468@more_maken
$LN151@more_maken:

; 3983 : 
; 3984 :     case IMOD_NODE:
; 3985 :         if ( is_constant(right) && is_constant(left) )

	mov	esi, DWORD PTR _right$[ebp]
	push	esi
	call	_is_constant
	mov	edi, DWORD PTR _left$[ebp]
	add	esp, 4
	test	eax, eax
	je	$LN150@more_maken
	push	edi
	call	_is_constant
	add	esp, 4
	test	eax, eax
	je	$LN150@more_maken

; 3986 :         { /* fold constants */
; 3987 :           listtop -= 2;

	mov	ebx, DWORD PTR _listtop
	sub	ebx, 2
	mov	DWORD PTR _listtop, ebx

; 3988 :           if ( (left != listtop) || (right != listtop+1) )

	cmp	edi, ebx
	jne	SHORT $LN148@more_maken
	lea	eax, DWORD PTR [ebx+1]
	cmp	esi, eax
	je	SHORT $LN149@more_maken
$LN148@more_maken:

; 3989 :              kb_error(1444,"Internal error: Constant folding not working.",
; 3990 :                COMMAND_ERROR);

	push	5
	push	OFFSET ??_C@_0CO@GPMAMBBE@Internal?5error?3?5Constant?5folding@
	push	1444					; 000005a4H
	call	_kb_error
	mov	ebx, DWORD PTR _listtop
	add	esp, 12					; 0000000cH
$LN149@more_maken:

; 3991 :           list[listtop].op1.real = floor(list[left].op1.real) - 
; 3992 :               floor(floor(list[left].op1.real)/floor(list[right].op1.real))
; 3993 :               *floor(list[right].op1.real);

	mov	ecx, DWORD PTR _list
	imul	edi, 168				; 000000a8H
	sub	esp, 8
	fld	QWORD PTR [edi+ecx+32]
	fstp	QWORD PTR [esp]
	call	_floor
	imul	esi, 168				; 000000a8H
	fstp	QWORD PTR tv4309[ebp]
	mov	edi, DWORD PTR _list
	fld	QWORD PTR [esi+edi+32]
	fstp	QWORD PTR [esp]
	call	_floor
	fst	QWORD PTR tv4310[ebp]
	fdivr	QWORD PTR tv4309[ebp]
	fstp	QWORD PTR [esp]
	call	_floor
	fmul	QWORD PTR tv4310[ebp]
	add	esp, 8
	fsubr	QWORD PTR tv4309[ebp]
$LN488@more_maken:
	imul	ebx, 168				; 000000a8H
	fstp	QWORD PTR [ebx+edi+32]

; 3994 :           list[listtop].type = PUSHCONST_NODE;

	mov	edx, DWORD PTR _listtop
	mov	eax, DWORD PTR _list
	imul	edx, 168				; 000000a8H
	mov	DWORD PTR [edx+eax], 10095		; 0000276fH

; 3995 :           list[listtop].stack_delta = 1;

	mov	ecx, DWORD PTR _listtop
	mov	edx, DWORD PTR _list
	imul	ecx, 168				; 000000a8H
	mov	DWORD PTR [ecx+edx+156], 1

; 3996 :         }
; 3997 :         else

	jmp	$LN468@more_maken
$LN150@more_maken:

; 3998 :         { list[listtop].right = right - listtop;

	mov	eax, DWORD PTR _listtop
	mov	ecx, DWORD PTR _list
	sub	esi, eax
	imul	eax, 168				; 000000a8H
	mov	DWORD PTR [eax+ecx+8], esi

; 3999 :           list[listtop].left = left - listtop;

	mov	eax, DWORD PTR _listtop
	mov	edx, DWORD PTR _list
	sub	edi, eax
	imul	eax, 168				; 000000a8H
	mov	DWORD PTR [eax+edx+4], edi

; 4000 :           list[listtop].type = IMOD_NODE;

	mov	eax, DWORD PTR _listtop
	mov	ecx, DWORD PTR _list
	imul	eax, 168				; 000000a8H
	mov	DWORD PTR [eax+ecx], 10128		; 00002790H

; 4001 :           list[listtop].stack_delta = -1;
; 4002 :         }
; 4003 :         list[listtop].datatype = REAL_TYPE;
; 4004 :         break;

	jmp	$LN487@more_maken
$LN146@more_maken:

; 4005 : 
; 4006 :     case IDIV_NODE:
; 4007 :         if ( is_constant(right) && is_constant(left) )

	mov	esi, DWORD PTR _right$[ebp]
	push	esi
	call	_is_constant
	mov	edi, DWORD PTR _left$[ebp]
	add	esp, 4
	test	eax, eax
	je	$LN145@more_maken
	push	edi
	call	_is_constant
	add	esp, 4
	test	eax, eax
	je	SHORT $LN145@more_maken

; 4008 :         { /* fold constants */
; 4009 :           listtop -= 2;

	mov	ebx, DWORD PTR _listtop
	sub	ebx, 2
	mov	DWORD PTR _listtop, ebx

; 4010 :           if ( (left != listtop) || (right != listtop+1) )

	cmp	edi, ebx
	jne	SHORT $LN143@more_maken
	lea	eax, DWORD PTR [ebx+1]
	cmp	esi, eax
	je	SHORT $LN144@more_maken
$LN143@more_maken:

; 4011 :              kb_error(1445,"Internal error: Constant folding not working.",
; 4012 :                COMMAND_ERROR);

	push	5
	push	OFFSET ??_C@_0CO@GPMAMBBE@Internal?5error?3?5Constant?5folding@
	push	1445					; 000005a5H
	call	_kb_error
	mov	ebx, DWORD PTR _listtop
	add	esp, 12					; 0000000cH
$LN144@more_maken:

; 4013 :           list[listtop].op1.real = 
; 4014 :               (int)(list[left].op1.real)/(int)(list[right].op1.real);

	mov	ecx, DWORD PTR _list
	imul	edi, 168				; 000000a8H
	fld	QWORD PTR [edi+ecx+32]
	call	__ftol2_sse
	imul	esi, 168				; 000000a8H
	mov	edi, DWORD PTR _list
	mov	DWORD PTR tv5225[ebp], eax
	fld	QWORD PTR [esi+edi+32]
	call	__ftol2_sse
	mov	ecx, eax
	mov	eax, DWORD PTR tv5225[ebp]
	cdq
	idiv	ecx
	mov	DWORD PTR tv3651[ebp], eax
	fild	DWORD PTR tv3651[ebp]

; 4015 :           list[listtop].type = PUSHCONST_NODE;
; 4016 :           list[listtop].stack_delta = 1;
; 4017 :         }
; 4018 :         else

	jmp	$LN488@more_maken
$LN145@more_maken:

; 4019 :         { list[listtop].right = right - listtop;

	mov	eax, DWORD PTR _listtop
	mov	ecx, DWORD PTR _list
	sub	esi, eax
	imul	eax, 168				; 000000a8H
	mov	DWORD PTR [eax+ecx+8], esi

; 4020 :           list[listtop].left = left - listtop;

	mov	eax, DWORD PTR _listtop
	mov	edx, DWORD PTR _list
	sub	edi, eax
	imul	eax, 168				; 000000a8H
	mov	DWORD PTR [eax+edx+4], edi

; 4021 :           list[listtop].type = IDIV_NODE;

	mov	eax, DWORD PTR _listtop
	mov	ecx, DWORD PTR _list
	imul	eax, 168				; 000000a8H
	mov	DWORD PTR [eax+ecx], 10129		; 00002791H

; 4022 :           list[listtop].stack_delta = -1;
; 4023 :         }
; 4024 :         list[listtop].datatype = REAL_TYPE;
; 4025 :         break;

	jmp	$LN487@more_maken
$LN141@more_maken:

; 4026 : 
; 4027 :     case PUSHPARAM_NODE:
; 4028 :         if ( maxp == 0 )

	cmp	DWORD PTR _maxp, 0
	jne	SHORT $LN140@more_maken

; 4029 :           kb_error(1446,"Constant expression required.\n",EXPRESSION_ERROR);

	push	4
	push	OFFSET ??_C@_0BP@MONDKFGG@Constant?5expression?5required?4?6?$AA@
	push	1446					; 000005a6H
	call	_kb_error
	add	esp, 12					; 0000000cH
$LN140@more_maken:

; 4030 :         list[listtop].type = PUSHPARAM_NODE;

	mov	eax, DWORD PTR _listtop
	mov	ecx, DWORD PTR _list
	imul	eax, 168				; 000000a8H
	mov	DWORD PTR [eax+ecx], 10109		; 0000277dH

; 4031 :         list[listtop].op1.coordnum = n = coord_num-1;

	mov	edx, DWORD PTR _listtop
	mov	eax, DWORD PTR _coord_num
	imul	edx, 168				; 000000a8H
	mov	ecx, DWORD PTR _list
	dec	eax
	mov	DWORD PTR [edx+ecx+32], eax

; 4032 :         if ( (n < 0) || (n >= maxp) )

	test	eax, eax
	js	SHORT $LN138@more_maken
	cmp	eax, DWORD PTR _maxp
	jl	$LN465@more_maken
$LN138@more_maken:

; 4033 :         {
; 4034 :           sprintf(errmsg,"Coordinate number too high: %d\n",n+1);

	inc	eax
	push	eax
	push	OFFSET ??_C@_0CA@IOKNLDFI@Coordinate?5number?5too?5high?3?5?$CFd?6?$AA@
	push	OFFSET _errmsg
	call	_sprintf

; 4035 :           kb_error(1447,errmsg,EXPRESSION_ERROR);

	push	4
	push	OFFSET _errmsg
	push	1447					; 000005a7H
	call	_kb_error
	add	esp, 24					; 00000018H

; 4036 :         }
; 4037 :         list[listtop].stack_delta = 1;
; 4038 :         list[listtop].datatype = REAL_TYPE;
; 4039 :         break;

	jmp	$LN465@more_maken
$LN137@more_maken:

; 4040 : 
; 4041 :     case USERFUNC_NODE:
; 4042 :          list[listtop].type = USERFUNC_NODE;

	mov	edx, DWORD PTR _listtop
	mov	eax, DWORD PTR _list
	imul	edx, 168				; 000000a8H
	mov	DWORD PTR [edx+eax], 10110		; 0000277eH

; 4043 :          list[listtop].op1.userfunc = (NTYPE)int_val-1;

	mov	edx, DWORD PTR _listtop
	mov	ecx, DWORD PTR _int_val
	imul	edx, 168				; 000000a8H
	mov	eax, DWORD PTR _list
	dec	ecx
	mov	DWORD PTR [edx+eax+32], ecx

; 4044 :          if ( int_val < 1 || (userfunc[int_val-1] == NULL) )

	mov	eax, DWORD PTR _int_val
	mov	esi, 1
	cmp	eax, esi
	jl	SHORT $LN135@more_maken
	cmp	DWORD PTR _userfunc[eax*4-4], 0
	jne	SHORT $LN136@more_maken
$LN135@more_maken:

; 4045 :          { sprintf(errmsg,"Invalid user function number: %d\n",int_val);

	push	eax
	push	OFFSET ??_C@_0CC@HFNHMOA@Invalid?5user?5function?5number?3?5?$CFd@
	push	OFFSET _errmsg
	call	_sprintf

; 4046 :            kb_error(1448,errmsg,EXPRESSION_ERROR);

	push	4
	push	OFFSET _errmsg
	push	1448					; 000005a8H
	call	_kb_error
	add	esp, 24					; 00000018H
$LN136@more_maken:

; 4047 :          }     
; 4048 :          list[listtop].stack_delta = 1;

	mov	ecx, DWORD PTR _listtop
	mov	edx, DWORD PTR _list
	imul	ecx, 168				; 000000a8H
	mov	DWORD PTR [ecx+edx+156], esi

; 4049 :          list[listtop].datatype = REAL_TYPE;

	mov	eax, DWORD PTR _listtop
	mov	ecx, DWORD PTR _list
	imul	eax, 168				; 000000a8H
	pop	edi
	mov	DWORD PTR [eax+ecx+20], esi
	pop	esi
	pop	ebx

; 4627 : 
; 4628 :       }
; 4629 : } // end more_makenode()

	mov	esp, ebp
	pop	ebp
	ret	0
$LN116@more_maken:

; 4143 : 
; 4144 :     case DYNAMIC_LOAD_FUNC_NODE:
; 4145 :          list[listtop].type = DYNAMIC_LOAD_FUNC_NODE;

	mov	edx, DWORD PTR _listtop
	mov	eax, DWORD PTR _list
	imul	edx, 168				; 000000a8H

; 4146 :          list[listtop].op1.funcptr = globals(left)->value.funcptr;

	mov	ecx, DWORD PTR _left$[ebp]
	mov	DWORD PTR [edx+eax], 10111		; 0000277fH
	mov	eax, ecx
	and	eax, -16777216				; ff000000H
	cmp	eax, 268435456				; 10000000H
	jne	SHORT $LN346@more_maken
	mov	eax, DWORD PTR _web+5652
	mov	edx, ecx
	and	edx, 16777215				; 00ffffffH
	lea	edx, DWORD PTR [eax+edx*4]
	mov	eax, DWORD PTR _dymem
	mov	eax, DWORD PTR [edx+eax]
	jmp	SHORT $LN343@more_maken
$LN346@more_maken:
	cmp	eax, 805306368				; 30000000H
	jne	SHORT $LN344@more_maken
	mov	edx, DWORD PTR _localbase
	mov	eax, ecx
	and	eax, 16777215				; 00ffffffH
	imul	eax, 224				; 000000e0H
	add	eax, DWORD PTR [edx]
	jmp	SHORT $LN343@more_maken
$LN344@more_maken:
	cmp	eax, 536870912				; 20000000H
	mov	eax, ecx
	jne	SHORT $LN342@more_maken
	mov	edx, DWORD PTR _web+5656
	and	eax, 16777215				; 00ffffffH
	mov	eax, DWORD PTR [edx+eax*4]
	jmp	SHORT $LN343@more_maken
$LN342@more_maken:
	mov	edx, DWORD PTR _web+5652
	and	eax, 16777215				; 00ffffffH
	lea	eax, DWORD PTR [edx+eax*4]
	mov	edx, DWORD PTR _dymem
	mov	eax, DWORD PTR [eax+edx]
$LN343@more_maken:
	mov	edx, DWORD PTR _listtop
	mov	eax, DWORD PTR [eax+64]
	imul	edx, 168				; 000000a8H
	mov	esi, DWORD PTR _list
	mov	DWORD PTR [edx+esi+32], eax

; 4147 :          list[listtop].op2.name_id = left;

	mov	edx, DWORD PTR _listtop
	mov	eax, DWORD PTR _list
	imul	edx, 168				; 000000a8H
	mov	DWORD PTR [edx+eax+136], ecx

; 4148 :          list[listtop].stack_delta = 1;
; 4149 :          list[listtop].datatype = REAL_TYPE;
; 4150 :          break;

	jmp	$LN463@more_maken
$LN114@more_maken:

; 4151 : 
; 4152 :     case PUSHDELTA_NODE:
; 4153 :     case PUSH_PARAM_SCALE_NODE:
; 4154 :     case PUSH_PARAM_FIXED_NODE:
; 4155 :     case PUSH_PARAM_VELOCITY_NODE:
; 4156 :     case PUSH_PARAM_FORCE_NODE:
; 4157 :          list[listtop].type = type;
; 4158 :          list[listtop].op1.name_id = left;
; 4159 :          list[listtop].flags |= EPHEMERAL;
; 4160 :          list[listtop].stack_delta = 1;
; 4161 :          list[listtop].datatype = REAL_TYPE;
; 4162 :          break;
; 4163 : 
; 4164 :     case PUSH_PARAM_EXTRA_NODE:  
; 4165 :          if ( (right != V_VELOCITY_ATTR) && (right != V_FORCE_ATTR) )

	mov	edi, DWORD PTR _right$[ebp]
	cmp	edi, 4
	je	SHORT $LN113@more_maken
	cmp	edi, 3
	je	SHORT $LN113@more_maken

; 4166 :            kb_error(2473,"Illegal attribute of variable.\n",COMMAND_ERROR);

	push	5
	push	OFFSET ??_C@_0CA@HCCILBNN@Illegal?5attribute?5of?5variable?4?6?$AA@
	push	2473					; 000009a9H
	call	_kb_error
	add	esp, 12					; 0000000cH
$LN113@more_maken:

; 4167 :          list[listtop].type = type;

	mov	eax, DWORD PTR _listtop
	mov	ecx, DWORD PTR _list
	imul	eax, 168				; 000000a8H
	mov	DWORD PTR [eax+ecx], esi

; 4168 :          list[listtop].op1.name_id = left; /* which parameter */

	mov	edx, DWORD PTR _listtop
	mov	eax, DWORD PTR _list
	imul	edx, 168				; 000000a8H
	mov	ecx, DWORD PTR _left$[ebp]
	mov	DWORD PTR [edx+eax+32], ecx

; 4169 :          list[listtop].op2.extranum = right; /* which attribute */

	mov	edx, DWORD PTR _listtop
	mov	eax, DWORD PTR _list
	imul	edx, 168				; 000000a8H
	mov	DWORD PTR [edx+eax+136], edi

; 4170 :          list[listtop].flags |= EPHEMERAL;

	mov	ecx, DWORD PTR _listtop
	mov	edx, DWORD PTR _list
	imul	ecx, 168				; 000000a8H
	or	DWORD PTR [ecx+edx+24], 64		; 00000040H
	lea	eax, DWORD PTR [ecx+edx+24]

; 4171 :          list[listtop].stack_delta = 1;
; 4172 :          list[listtop].datatype = REAL_TYPE;
; 4173 :          break;

	jmp	$LN463@more_maken
$LN112@more_maken:

; 4174 : 
; 4175 :     case PUSHGLOBAL_NODE:
; 4176 :        { 
; 4177 :          struct global *g = globals(left);

	mov	ecx, DWORD PTR _left$[ebp]
	mov	eax, ecx
	and	eax, -16777216				; ff000000H
	cmp	eax, 268435456				; 10000000H
	jne	SHORT $LN352@more_maken
	mov	edx, DWORD PTR _web+5652
	mov	eax, ecx
	and	eax, 16777215				; 00ffffffH
	lea	eax, DWORD PTR [edx+eax*4]
	mov	edx, DWORD PTR _dymem
	mov	esi, DWORD PTR [eax+edx]
	jmp	SHORT $LN349@more_maken
$LN352@more_maken:
	cmp	eax, 805306368				; 30000000H
	jne	SHORT $LN350@more_maken
	mov	eax, DWORD PTR _localbase
	mov	esi, ecx
	and	esi, 16777215				; 00ffffffH
	imul	esi, 224				; 000000e0H
	add	esi, DWORD PTR [eax]
	jmp	SHORT $LN349@more_maken
$LN350@more_maken:
	mov	edx, ecx
	and	edx, 16777215				; 00ffffffH
	cmp	eax, 536870912				; 20000000H
	jne	SHORT $LN348@more_maken
	mov	eax, DWORD PTR _web+5656
	mov	esi, DWORD PTR [eax+edx*4]
	jmp	SHORT $LN349@more_maken
$LN348@more_maken:
	mov	eax, DWORD PTR _web+5652
	lea	edx, DWORD PTR [eax+edx*4]
	mov	eax, DWORD PTR _dymem
	mov	esi, DWORD PTR [edx+eax]
$LN349@more_maken:

; 4178 :          list[listtop].type = PUSHGLOBAL_NODE;

	mov	edx, DWORD PTR _listtop
	mov	eax, DWORD PTR _list
	imul	edx, 168				; 000000a8H
	mov	DWORD PTR [edx+eax], 10102		; 00002776H

; 4179 :          list[listtop].op1.name_id = left;

	mov	edx, DWORD PTR _listtop
	mov	eax, DWORD PTR _list
	imul	edx, 168				; 000000a8H
	mov	DWORD PTR [edx+eax+32], ecx

; 4180 :          list[listtop].flags |= EPHEMERAL;

	mov	edx, DWORD PTR _listtop
	mov	eax, DWORD PTR _list
	imul	edx, 168				; 000000a8H
	or	DWORD PTR [edx+eax+24], 64		; 00000040H

; 4181 :          if ( (g->flags & METHOD_NAME) && reading_comp_quant_flag )

	test	DWORD PTR [esi+192], 1024		; 00000400H
	lea	eax, DWORD PTR [edx+eax+24]
	je	SHORT $LN111@more_maken
	cmp	DWORD PTR _reading_comp_quant_flag, 0
	je	SHORT $LN111@more_maken

; 4182 :          { struct method_instance *mi=METH_INSTANCE(left);

	mov	eax, ecx
	cdq
	xor	eax, edx
	sub	eax, edx
	imul	eax, 2928				; 00000b70H
	add	eax, DWORD PTR _meth_inst_list

; 4183 :            mi->flags |= Q_COMPOUND;
; 4184 :            quant_flags[basic_gen_methods[mi->gen_method].type] 
; 4185 :             |= GEN_QUANT(cur_quant)->flags &
; 4186 :                      (Q_ENERGY|Q_FIXED|Q_INFO|Q_CONSERVED);
; 4187 :            attach_method_num(cur_quant,left);

	push	ecx
	or	DWORD PTR [eax+140], 256		; 00000100H
	mov	eax, DWORD PTR [eax+148]
	mov	ebx, DWORD PTR _gen_quant_list
	lea	edx, DWORD PTR [eax+eax*4]
	shl	edx, 5
	mov	eax, DWORD PTR _basic_gen_methods[edx+128]
	mov	edx, DWORD PTR _cur_quant
	mov	edi, edx
	imul	edi, 368				; 00000170H
	mov	edi, DWORD PTR [edi+ebx+136]
	and	edi, 15					; 0000000fH
	or	DWORD PTR _web[eax*4+5628], edi
	push	edx
	call	_attach_method_num
	add	esp, 8
$LN111@more_maken:

; 4188 :          }
; 4189 :          list[listtop].datatype = (g->type <= MAX_NUMERIC_TYPE) ? REAL_TYPE :
; 4190 :            g->type;

	mov	esi, DWORD PTR [esi+200]
	cmp	esi, 10					; 0000000aH
	jg	SHORT $LN354@more_maken
	mov	esi, 1
$LN354@more_maken:
	mov	eax, DWORD PTR _listtop
	mov	ecx, DWORD PTR _list
	imul	eax, 168				; 000000a8H
	mov	DWORD PTR [eax+ecx+20], esi

; 4191 :          list[listtop].stack_delta = 1;
; 4192 :          break;

	jmp	$LN477@more_maken
$LN110@more_maken:

; 4193 :        }
; 4194 :      
; 4195 :     case PUSH_PERM_GLOBAL_NODE:
; 4196 :     case PERM_STRINGGLOBAL_NODE:
; 4197 :        { struct global *g;
; 4198 :          list[listtop].type = type;

	mov	ecx, DWORD PTR _listtop
	mov	edx, DWORD PTR _list
	imul	ecx, 168				; 000000a8H

; 4199 :          list[listtop].op1.name_id = left;

	mov	eax, DWORD PTR _left$[ebp]
	mov	DWORD PTR [ecx+edx], esi
	mov	ecx, DWORD PTR _listtop
	mov	edx, DWORD PTR _list
	imul	ecx, 168				; 000000a8H
	mov	DWORD PTR [ecx+edx+32], eax

; 4200 :          list[listtop].stack_delta = 1;

	mov	ecx, DWORD PTR _listtop
	mov	edx, DWORD PTR _list
	imul	ecx, 168				; 000000a8H
	mov	DWORD PTR [ecx+edx+156], 1

; 4201 :          g = globals(left);

	mov	ecx, eax
	and	ecx, -16777216				; ff000000H
	cmp	ecx, 268435456				; 10000000H
	je	SHORT $LN356@more_maken
	cmp	ecx, 805306368				; 30000000H
	jne	SHORT $LN358@more_maken
	mov	ecx, DWORD PTR _localbase
	and	eax, 16777215				; 00ffffffH
	imul	eax, 224				; 000000e0H
	add	eax, DWORD PTR [ecx]
	jmp	SHORT $LN357@more_maken
$LN358@more_maken:
	cmp	ecx, 536870912				; 20000000H
	jne	SHORT $LN356@more_maken
	mov	edx, DWORD PTR _web+5656
	and	eax, 16777215				; 00ffffffH
	mov	eax, DWORD PTR [edx+eax*4]
	jmp	SHORT $LN357@more_maken
$LN356@more_maken:
	mov	ecx, DWORD PTR _web+5652
	and	eax, 16777215				; 00ffffffH
	lea	edx, DWORD PTR [ecx+eax*4]
	mov	eax, DWORD PTR _dymem
	mov	eax, DWORD PTR [edx+eax]
$LN357@more_maken:

; 4202 :          list[listtop].datatype = g->type <= MAX_NUMERIC_TYPE ? REAL_TYPE :
; 4203 :             g->type;

	mov	eax, DWORD PTR [eax+200]
	cmp	eax, 10					; 0000000aH
	jg	$LN362@more_maken
	mov	eax, 1

; 4204 :          break;

	jmp	$LN362@more_maken
$LN109@more_maken:

; 4205 :        }
; 4206 :        
; 4207 :     case PERM_PROCEDURE_NODE:
; 4208 :          list[listtop].type = type;

	mov	eax, DWORD PTR _listtop
	mov	ecx, DWORD PTR _list
	imul	eax, 168				; 000000a8H
	mov	DWORD PTR [eax+ecx], esi

; 4209 :          list[listtop].op1.name_id = left;

	mov	edx, DWORD PTR _listtop
	mov	eax, DWORD PTR _left$[ebp]
	imul	edx, 168				; 000000a8H
	mov	ecx, DWORD PTR _list
	pop	edi
	pop	esi
	mov	DWORD PTR [edx+ecx+32], eax
	pop	ebx

; 4627 : 
; 4628 :       }
; 4629 : } // end more_makenode()

	mov	esp, ebp
	pop	ebp
	ret	0
$LN108@more_maken:

; 4210 :          break;
; 4211 : 
; 4212 :     case STRINGGLOBAL_NODE:
; 4213 :          list[listtop].type = type;

	mov	edx, DWORD PTR _listtop
	mov	eax, DWORD PTR _list
	imul	edx, 168				; 000000a8H
	mov	DWORD PTR [edx+eax], esi

; 4214 :          list[listtop].op1.name_id = left;

	mov	ecx, DWORD PTR _listtop
	mov	edx, DWORD PTR _list
	imul	ecx, 168				; 000000a8H
	mov	eax, DWORD PTR _left$[ebp]
	mov	DWORD PTR [ecx+edx+32], eax

; 4215 :          list[listtop].flags |= EPHEMERAL;

	mov	ecx, DWORD PTR _listtop
	mov	edx, DWORD PTR _list
	imul	ecx, 168				; 000000a8H
	or	DWORD PTR [ecx+edx+24], 64		; 00000040H
	lea	eax, DWORD PTR [ecx+edx+24]

; 4216 :          list[listtop].stack_delta = 1;

	mov	eax, DWORD PTR _listtop
	mov	ecx, DWORD PTR _list
	imul	eax, 168				; 000000a8H
	mov	DWORD PTR [eax+ecx+156], 1

; 4217 :          list[listtop].datatype = STRING_TYPE;

	mov	edx, DWORD PTR _listtop
	mov	eax, DWORD PTR _list
	imul	edx, 168				; 000000a8H
	pop	edi
	pop	esi
	mov	DWORD PTR [edx+eax+20], 11		; 0000000bH
	pop	ebx

; 4627 : 
; 4628 :       }
; 4629 : } // end more_makenode()

	mov	esp, ebp
	pop	ebp
	ret	0
$LN107@more_maken:

; 4218 :          break;
; 4219 : 
; 4220 :     case PROCEDURE_NODE:
; 4221 :          list[listtop].type = type;

	mov	ecx, DWORD PTR _listtop
	mov	edx, DWORD PTR _list
	imul	ecx, 168				; 000000a8H
	mov	DWORD PTR [ecx+edx], esi

; 4222 :          list[listtop].op1.name_id = left;

	mov	eax, DWORD PTR _listtop
	mov	ecx, DWORD PTR _list
	imul	eax, 168				; 000000a8H
	mov	edx, DWORD PTR _left$[ebp]
	mov	DWORD PTR [eax+ecx+32], edx

; 4223 :          list[listtop].flags |= EPHEMERAL;

	mov	eax, DWORD PTR _listtop
	mov	ecx, DWORD PTR _list
	imul	eax, 168				; 000000a8H
	or	DWORD PTR [eax+ecx+24], 64		; 00000040H
	pop	edi
	lea	eax, DWORD PTR [eax+ecx+24]
	pop	esi
	pop	ebx

; 4627 : 
; 4628 :       }
; 4629 : } // end more_makenode()

	mov	esp, ebp
	pop	ebp
	ret	0
$LN104@more_maken:

; 4238 :          break;
; 4239 : 
; 4240 :         
; 4241 :         
; 4242 :     case ON_CONSTRAINT_NODE:
; 4243 :     case HIT_CONSTRAINT_NODE:
; 4244 :     case ON_BOUNDARY_NODE:
; 4245 :     case CONSTRAINT_VALUE_NODE:
; 4246 :          list[listtop].type = type;

	mov	edx, DWORD PTR _listtop
	mov	eax, DWORD PTR _list
	imul	edx, 168				; 000000a8H

; 4247 :          list[listtop].left = left - listtop;

	mov	ecx, DWORD PTR _left$[ebp]
	mov	DWORD PTR [edx+eax], esi
	mov	eax, DWORD PTR _listtop
	mov	edx, DWORD PTR _list
	sub	ecx, eax
	imul	eax, 168				; 000000a8H
	mov	DWORD PTR [eax+edx+4], ecx

; 4248 :          list[listtop].flags |= EPHEMERAL;

	mov	eax, DWORD PTR _listtop
	mov	ecx, DWORD PTR _list
	imul	eax, 168				; 000000a8H
	or	DWORD PTR [eax+ecx+24], 64		; 00000040H
	lea	eax, DWORD PTR [eax+ecx+24]

; 4249 :          list[listtop].stack_delta = 0;
; 4250 :          list[listtop].datatype = REAL_TYPE;
; 4251 :          break;

	jmp	$LN469@more_maken
$LN103@more_maken:

; 4252 : 
; 4253 :     case ON_CONSTRAINT_NAME_NODE:
; 4254 :     case HIT_CONSTRAINT_NAME_NODE:
; 4255 :     case CONSTRAINT_NAME_VALUE_NODE:
; 4256 :          list[listtop].type = type;

	mov	eax, DWORD PTR _listtop
	mov	ecx, DWORD PTR _list
	imul	eax, 168				; 000000a8H
	mov	DWORD PTR [eax+ecx], esi

; 4257 :          list[listtop].op3.connum = globals(left)->value.cnum; 

	mov	eax, DWORD PTR _left$[ebp]
	mov	ecx, eax
	and	ecx, -16777216				; ff000000H
	cmp	ecx, 268435456				; 10000000H
	je	SHORT $LN370@more_maken
	cmp	ecx, 805306368				; 30000000H
	jne	SHORT $LN372@more_maken
	mov	edx, DWORD PTR _localbase
	and	eax, 16777215				; 00ffffffH
	imul	eax, 224				; 000000e0H
	add	eax, DWORD PTR [edx]
	jmp	SHORT $LN371@more_maken
$LN372@more_maken:
	cmp	ecx, 536870912				; 20000000H
	jne	SHORT $LN370@more_maken
	mov	ecx, DWORD PTR _web+5656
	and	eax, 16777215				; 00ffffffH
	mov	eax, DWORD PTR [ecx+eax*4]
	jmp	SHORT $LN371@more_maken
$LN370@more_maken:
	mov	edx, DWORD PTR _web+5652
	mov	ecx, DWORD PTR _dymem
	and	eax, 16777215				; 00ffffffH
	lea	eax, DWORD PTR [edx+eax*4]
	mov	eax, DWORD PTR [eax+ecx]
$LN371@more_maken:
	mov	edx, DWORD PTR _listtop
	mov	eax, DWORD PTR [eax+64]
	imul	edx, 168				; 000000a8H
	mov	ecx, DWORD PTR _list
	mov	DWORD PTR [edx+ecx+140], eax

; 4258 :                                      /* actual constraint number */
; 4259 :          list[listtop].flags |= EPHEMERAL;
; 4260 :          list[listtop].stack_delta = 1;
; 4261 :          list[listtop].datatype = REAL_TYPE;
; 4262 :          break;

	jmp	$LN486@more_maken
$LN101@more_maken:

; 4263 : 
; 4264 :     case ON_BOUNDARY_NAME_NODE:
; 4265 :          list[listtop].type = type;
; 4266 :          list[listtop].op3.bdrynum = globals(left)->value.bnum;
; 4267 :          list[listtop].flags |= EPHEMERAL;
; 4268 :          list[listtop].stack_delta = 1;
; 4269 :          list[listtop].datatype = REAL_TYPE;
; 4270 :          break;
; 4271 : 
; 4272 :     case ON_QUANTITY_NODE:
; 4273 :          list[listtop].type = type;

	mov	eax, DWORD PTR _listtop
	mov	ecx, DWORD PTR _list
	imul	eax, 168				; 000000a8H
	mov	DWORD PTR [eax+ecx], esi

; 4274 :          list[listtop].op2.quant_id = left;

	mov	edx, DWORD PTR _listtop
	mov	eax, DWORD PTR _list
	imul	edx, 168				; 000000a8H
	mov	ecx, DWORD PTR _left$[ebp]
	mov	DWORD PTR [edx+eax+136], ecx

; 4275 :          list[listtop].stack_delta = 1;
; 4276 :          list[listtop].datatype = REAL_TYPE;
; 4277 :          break;

	jmp	$LN465@more_maken
$LN100@more_maken:

; 4278 : 
; 4279 :     case ON_METHOD_INSTANCE_NODE:
; 4280 :          list[listtop].type = type;

	mov	edx, DWORD PTR _listtop
	mov	eax, DWORD PTR _list
	imul	edx, 168				; 000000a8H
	mov	DWORD PTR [edx+eax], esi

; 4281 :          list[listtop].op2.meth_id = left;

	mov	eax, DWORD PTR _left$[ebp]

; 4282 :          list[listtop].stack_delta = 1;
; 4283 :          list[listtop].datatype = REAL_TYPE;
; 4284 :          break;

	jmp	$LN485@more_maken
$LN99@more_maken:

; 4285 : 
; 4286 :     case INDEXED_COORD_NODE:
; 4287 :          list[listtop].type = type;

	mov	eax, DWORD PTR _listtop
	mov	ecx, DWORD PTR _list
	imul	eax, 168				; 000000a8H
	mov	DWORD PTR [eax+ecx], esi

; 4288 :          list[listtop].left = left - listtop;   

	mov	eax, DWORD PTR _left$[ebp]
	mov	ecx, DWORD PTR _listtop
	mov	esi, DWORD PTR _list
	mov	edx, eax

; 4289 :          if ( list[left].op5.indexcount != 1 )

	imul	eax, 168				; 000000a8H
	sub	edx, ecx
	imul	ecx, 168				; 000000a8H
	mov	DWORD PTR [ecx+esi+4], edx
	mov	ecx, DWORD PTR _list
	mov	esi, 1
	cmp	DWORD PTR [eax+ecx+152], esi
	je	SHORT $LN98@more_maken

; 4290 :            kb_error(2568,"Coordinate can have only one index.\n",COMMAND_ERROR);

	push	5
	push	OFFSET ??_C@_0CF@PPIHGAA@Coordinate?5can?5have?5only?5one?5ind@
	push	2568					; 00000a08H
	call	_kb_error
	add	esp, 12					; 0000000cH
$LN98@more_maken:

; 4291 :          list[listtop].datatype = REAL_TYPE;

	mov	edx, DWORD PTR _listtop
	mov	eax, DWORD PTR _list
	imul	edx, 168				; 000000a8H
	pop	edi
	mov	DWORD PTR [edx+eax+20], esi
	pop	esi
	pop	ebx

; 4627 : 
; 4628 :       }
; 4629 : } // end more_makenode()

	mov	esp, ebp
	pop	ebp
	ret	0
$LN97@more_maken:

; 4292 :          break;
; 4293 : 
; 4294 :     case PRINT_VERTEXNORMAL_NODE:
; 4295 :          list[listtop].type = type;

	mov	ecx, DWORD PTR _listtop
	mov	edx, DWORD PTR _list
	imul	ecx, 168				; 000000a8H
	mov	DWORD PTR [ecx+edx], esi

; 4296 :          list[listtop].left = left - listtop;    /* element */

	mov	eax, DWORD PTR _listtop
	mov	ecx, DWORD PTR _left$[ebp]
	mov	edx, DWORD PTR _list
	sub	ecx, eax
	imul	eax, 168				; 000000a8H
	pop	edi
	pop	esi
	mov	DWORD PTR [eax+edx+4], ecx
	pop	ebx

; 4627 : 
; 4628 :       }
; 4629 : } // end more_makenode()

	mov	esp, ebp
	pop	ebp
	ret	0
$LN96@more_maken:

; 4297 :          break;
; 4298 : 
; 4299 :     case GET_VERTEXNORMAL_NODE:
; 4300 :          list[listtop].type = type;

	mov	eax, DWORD PTR _listtop
	mov	ecx, DWORD PTR _list
	imul	eax, 168				; 000000a8H
	mov	DWORD PTR [eax+ecx], esi

; 4301 :          list[listtop].left = left - listtop;    /* index set */

	mov	eax, DWORD PTR _left$[ebp]
	mov	ecx, DWORD PTR _listtop
	mov	esi, DWORD PTR _list
	mov	edx, eax

; 4302 :          if ( list[left].op5.indexcount != 1 )

	imul	eax, 168				; 000000a8H
	sub	edx, ecx
	imul	ecx, 168				; 000000a8H
	mov	DWORD PTR [ecx+esi+4], edx
	mov	ecx, DWORD PTR _list
	mov	esi, 1
	cmp	DWORD PTR [eax+ecx+152], esi
	je	$LN98@more_maken

; 4303 :            kb_error(2569,"Vertexnormal can have only one index.\n",
; 4304 :               COMMAND_ERROR);

	push	5
	push	OFFSET ??_C@_0CH@IBIBGHBN@Vertexnormal?5can?5have?5only?5one?5i@
	push	2569					; 00000a09H
	call	_kb_error

; 4305 :          list[listtop].datatype = REAL_TYPE;

	mov	edx, DWORD PTR _listtop
	mov	eax, DWORD PTR _list
	add	esp, 12					; 0000000cH
	imul	edx, 168				; 000000a8H
	pop	edi
	mov	DWORD PTR [edx+eax+20], esi
	pop	esi
	pop	ebx

; 4627 : 
; 4628 :       }
; 4629 : } // end more_makenode()

	mov	esp, ebp
	pop	ebp
	ret	0
$LN89@more_maken:

; 4346 :             }
; 4347 :             break;
; 4348 : 
; 4349 :      case QUALIFIED_ATTRIBUTE_NODE:
; 4350 :           list[listtop].type = QUALIFIED_ATTRIBUTE_NODE;

	mov	ecx, DWORD PTR _listtop
	mov	edx, DWORD PTR _list
	imul	ecx, 168				; 000000a8H

; 4351 :           list[listtop].left = left-listtop;

	mov	eax, DWORD PTR _left$[ebp]
	mov	DWORD PTR [ecx+edx], 10238		; 000027feH
	mov	ecx, DWORD PTR _listtop
	mov	esi, DWORD PTR _list
	mov	edx, eax

; 4352 :           list[listtop].right = right-listtop;
; 4353 :           list[listtop].datatype = REAL_TYPE;
; 4354 :           etype = list[left].op1.eltype; /* element type */

	imul	eax, 168				; 000000a8H
	sub	edx, ecx
	imul	ecx, 168				; 000000a8H
	mov	DWORD PTR [ecx+esi+4], edx
	mov	edx, DWORD PTR _listtop
	mov	ecx, DWORD PTR _right$[ebp]
	mov	edi, DWORD PTR _list
	mov	esi, ecx

; 4355 :           /* element type error checking */
; 4356 :           check_element_type(list[right].type,etype);

	imul	ecx, 168				; 000000a8H
	sub	esi, edx
	imul	edx, 168				; 000000a8H
	mov	DWORD PTR [edx+edi+8], esi
	mov	edx, DWORD PTR _listtop
	mov	esi, DWORD PTR _list
	imul	edx, 168				; 000000a8H
	mov	DWORD PTR [edx+esi+20], 1
	mov	edx, DWORD PTR _list
	mov	eax, DWORD PTR [eax+edx+32]
	mov	ecx, DWORD PTR [ecx+edx]
	push	eax
	push	ecx
	call	_check_element_type
	add	esp, 8
	pop	edi
	pop	esi
	pop	ebx

; 4627 : 
; 4628 :       }
; 4629 : } // end more_makenode()

	mov	esp, ebp
	pop	ebp
	ret	0
$LN4@more_maken:

; 4585 :            } 
; 4586 :          }
; 4587 :          break;
; 4588 : 
; 4589 :      case EQ_NODE:
; 4590 :      case NE_NODE:
; 4591 :      case GE_NODE:
; 4592 :      case LE_NODE:
; 4593 :      case GT_NODE:
; 4594 :      case LT_NODE:
; 4595 :          list[listtop].right = right - listtop;

	mov	eax, DWORD PTR _listtop
	mov	edx, DWORD PTR _right$[ebp]
	mov	ecx, DWORD PTR _list
	sub	edx, eax
	imul	eax, 168				; 000000a8H
	mov	DWORD PTR [eax+ecx+8], edx

; 4596 :          list[listtop].left = left - listtop;

	mov	eax, DWORD PTR _listtop
	mov	edx, DWORD PTR _left$[ebp]
	mov	ecx, DWORD PTR _list
	sub	edx, eax
	imul	eax, 168				; 000000a8H
	mov	DWORD PTR [eax+ecx+4], edx

; 4597 :          list[listtop].type = type;
; 4598 :          list[listtop].stack_delta = -1;
; 4599 :          list[listtop].datatype = REAL_TYPE;
; 4600 :          break;

	jmp	$LN476@more_maken
$LN3@more_maken:

; 4601 : 
; 4602 :      case AND_NODE:  /* for short-circuit evaluation, have to move test */
; 4603 :      case OR_NODE:    /* node between operands */
; 4604 :       { int top;
; 4605 :          top = listtop;

	mov	eax, DWORD PTR _listtop

; 4606 :          list[listtop].type = type;

	mov	edx, DWORD PTR _list
	mov	DWORD PTR _top$90908[ebp], eax
	imul	eax, 168				; 000000a8H
	mov	DWORD PTR [eax+edx], esi

; 4607 :          subtree_swap(&right,&top);

	lea	eax, DWORD PTR _top$90908[ebp]
	push	eax
	lea	ecx, DWORD PTR _right$[ebp]
	push	ecx
	call	_subtree_swap

; 4608 :          list[top].right = right - top;

	mov	eax, DWORD PTR _top$90908[ebp]
	mov	esi, DWORD PTR _list
	mov	edx, DWORD PTR _right$[ebp]
	mov	ecx, eax
	imul	ecx, 168				; 000000a8H
	sub	edx, eax
	mov	DWORD PTR [ecx+esi+8], edx

; 4609 :          list[top].left = left - top;

	mov	esi, DWORD PTR _list
	mov	edx, DWORD PTR _left$[ebp]
	sub	edx, eax
	mov	DWORD PTR [ecx+esi+4], edx

; 4610 :          list[top].op1.skipsize = listtop - top;

	mov	edx, DWORD PTR _listtop
	mov	esi, DWORD PTR _list
	sub	edx, eax
	mov	DWORD PTR [ecx+esi+32], edx

; 4611 :          listtop++;

	mov	ecx, DWORD PTR _listtop

; 4612 :          list[listtop].type = CONJUNCTION_END_NODE;

	mov	edx, DWORD PTR _list
	inc	ecx
	mov	DWORD PTR _listtop, ecx
	imul	ecx, 168				; 000000a8H
	mov	DWORD PTR [ecx+edx], 10119		; 00002787H

; 4613 :          list[listtop].left = top - listtop;

	mov	ecx, DWORD PTR _listtop
	mov	edx, DWORD PTR _list
	sub	eax, ecx
	add	esp, 8
	imul	ecx, 168				; 000000a8H
	mov	DWORD PTR [ecx+edx+4], eax

; 4614 :          list[listtop].stack_delta = -1;
; 4615 :          list[listtop].datatype = REAL_TYPE;
; 4616 :          break;

	jmp	$LN471@more_maken
$LN2@more_maken:

; 4617 :       }
; 4618 :      case NOT_NODE:
; 4619 :          list[listtop].left = left - listtop;

	mov	eax, DWORD PTR _listtop
	mov	ecx, DWORD PTR _left$[ebp]
	mov	edx, DWORD PTR _list
	sub	ecx, eax
	imul	eax, 168				; 000000a8H
	mov	DWORD PTR [eax+edx+4], ecx

; 4620 :          list[listtop].type = type;

	mov	eax, DWORD PTR _listtop
	mov	ecx, DWORD PTR _list
	imul	eax, 168				; 000000a8H
	mov	DWORD PTR [eax+ecx], esi

; 4621 :          list[listtop].datatype = REAL_TYPE;
; 4622 :          break;

	jmp	$LN470@more_maken
$LN134@more_maken:

; 4050 :          break;
; 4051 : 
; 4052 :     case VIEW_MATRIX_NODE:
; 4053 :          list[listtop].right = right - listtop;

	mov	eax, DWORD PTR _listtop
	mov	ecx, DWORD PTR _right$[ebp]
	mov	edx, DWORD PTR _list
	sub	ecx, eax
	imul	eax, 168				; 000000a8H
	mov	DWORD PTR [eax+edx+8], ecx

; 4054 :          list[listtop].left = left - listtop;

	mov	eax, DWORD PTR _listtop
	mov	ecx, DWORD PTR _left$[ebp]
	mov	edx, DWORD PTR _list
	sub	ecx, eax
	imul	eax, 168				; 000000a8H
	mov	DWORD PTR [eax+edx+4], ecx

; 4055 :          list[listtop].type = type;

	mov	eax, DWORD PTR _listtop
	mov	ecx, DWORD PTR _list
	imul	eax, 168				; 000000a8H
	mov	DWORD PTR [eax+ecx], 10395		; 0000289bH

; 4056 :          list[listtop].stack_delta = -1;
; 4057 :          list[listtop].datatype = REAL_TYPE;
; 4058 :          break;

	jmp	$LN487@more_maken
$LN385@more_maken:

; 3060 : 
; 3061 :   switch (type)

	cmp	esi, 10676				; 000029b4H
	jg	$LN386@more_maken
	je	$LN322@more_maken
	lea	eax, DWORD PTR [esi-10410]
	cmp	eax, 251				; 000000fbH
	ja	$LN1@more_maken
	movzx	eax, BYTE PTR $LN407@more_maken[eax]
	jmp	DWORD PTR $LN493@more_maken[eax*4]
$LN332@more_maken:

; 3062 :   {
; 3063 :     case QUOTATION_NODE:
; 3064 :          list[listtop].type = type;

	mov	ecx, DWORD PTR _listtop
	mov	edx, DWORD PTR _list
	imul	ecx, 168				; 000000a8H
	mov	DWORD PTR [ecx+edx], esi

; 3065 :          list[listtop].op1.string = 
; 3066 :             (char*)mycalloc(strlen(yytext)+1,sizeof(char));

	mov	eax, DWORD PTR _yytext
	lea	edx, DWORD PTR [eax+1]
$LL408@more_maken:
	mov	cl, BYTE PTR [eax]
	inc	eax
	test	cl, cl
	jne	SHORT $LL408@more_maken
	push	3066					; 00000bfaH
	sub	eax, edx
	push	OFFSET ??_C@_0L@OKHAMMPH@YEXPARSE?4C?$AA@
	inc	eax
	push	1
	push	eax
	call	_kb_calloc
	mov	ecx, DWORD PTR _listtop
	mov	edx, DWORD PTR _list
	imul	ecx, 168				; 000000a8H
	mov	DWORD PTR [ecx+edx+32], eax

; 3067 :          list[listtop].flags |= HAS_STRING;

	mov	eax, DWORD PTR _listtop
	mov	ecx, DWORD PTR _list
	imul	eax, 168				; 000000a8H
	or	DWORD PTR [eax+ecx+24], 32		; 00000020H

; 3068 :          strcpy(list[listtop].op1.string,yytext);

	mov	edx, DWORD PTR _listtop
	lea	eax, DWORD PTR [eax+ecx+24]
	mov	eax, DWORD PTR _list
	mov	ecx, DWORD PTR _yytext
	add	esp, 16					; 00000010H
	imul	edx, 168				; 000000a8H
	mov	edx, DWORD PTR [edx+eax+32]
	npad	3
$LL337@more_maken:
	mov	al, BYTE PTR [ecx]
	mov	BYTE PTR [edx], al
	inc	ecx
	inc	edx
	test	al, al
	jne	SHORT $LL337@more_maken

; 3069 :          list[listtop].stack_delta = 1;

	mov	ecx, DWORD PTR _listtop
	mov	edx, DWORD PTR _list
	imul	ecx, 168				; 000000a8H
	mov	DWORD PTR [ecx+edx+156], 1

; 3070 :          list[listtop].datatype = STRING_TYPE;

	mov	eax, DWORD PTR _listtop
	mov	ecx, DWORD PTR _list
	imul	eax, 168				; 000000a8H
	pop	edi
	pop	esi
	mov	DWORD PTR [eax+ecx+20], 11		; 0000000bH
	pop	ebx

; 4627 : 
; 4628 :       }
; 4629 : } // end more_makenode()

	mov	esp, ebp
	pop	ebp
	ret	0
$LN318@more_maken:

; 3146 :          break;
; 3147 :       
; 3148 :     case SIZEOF_ATTR_NODE: /* current attribute dimension */
; 3149 :          list[listtop].type = SIZEOF_ATTR_NODE;

	mov	edx, DWORD PTR _listtop
	mov	eax, DWORD PTR _list
	imul	edx, 168				; 000000a8H
	mov	DWORD PTR [edx+eax], 10420		; 000028b4H

; 3150 :          list[listtop].op1.extranum = left;  /* attr num */

	mov	ecx, DWORD PTR _listtop
	mov	eax, DWORD PTR _left$[ebp]
	imul	ecx, 168				; 000000a8H
	mov	edx, DWORD PTR _list
	mov	DWORD PTR [ecx+edx+32], eax

; 3151 :          list[listtop].op2.eltype = right; /* etype */

	mov	eax, DWORD PTR _right$[ebp]
$LN485@more_maken:
	mov	ecx, DWORD PTR _listtop
	mov	edx, DWORD PTR _list
	imul	ecx, 168				; 000000a8H
	mov	DWORD PTR [ecx+edx+136], eax
$LN463@more_maken:

; 3152 :          list[listtop].stack_delta = 1;

	mov	ecx, DWORD PTR _listtop
	mov	edx, DWORD PTR _list
	imul	ecx, 168				; 000000a8H
	mov	eax, 1
	mov	DWORD PTR [ecx+edx+156], eax
$LN362@more_maken:

; 3153 :          list[listtop].datatype = REAL_TYPE;

	mov	ecx, DWORD PTR _listtop
	mov	edx, DWORD PTR _list
	imul	ecx, 168				; 000000a8H
	pop	edi
	pop	esi
	mov	DWORD PTR [ecx+edx+20], eax
	pop	ebx

; 4627 : 
; 4628 :       }
; 4629 : } // end more_makenode()

	mov	esp, ebp
	pop	ebp
	ret	0
$LN317@more_maken:

; 3154 :          break;
; 3155 : 
; 3156 :     case SIZEOF_ARRAY_NODE: /* current array total size */
; 3157 :          list[listtop].type = SIZEOF_ARRAY_NODE;

	mov	eax, DWORD PTR _listtop
	mov	ecx, DWORD PTR _list
	imul	eax, 168				; 000000a8H
	mov	DWORD PTR [eax+ecx], 10421		; 000028b5H
$LN466@more_maken:

; 3158 :          list[listtop].op1.name_id = left;  /* array id */

	mov	edx, DWORD PTR _listtop
	mov	eax, DWORD PTR _list
	imul	edx, 168				; 000000a8H
	mov	ecx, DWORD PTR _left$[ebp]
	mov	DWORD PTR [edx+eax+32], ecx
$LN465@more_maken:

; 3159 :          list[listtop].stack_delta = 1;

	mov	edx, DWORD PTR _listtop
	mov	ecx, DWORD PTR _list
	imul	edx, 168				; 000000a8H
	mov	eax, 1
	mov	DWORD PTR [edx+ecx+156], eax

; 3160 :          list[listtop].datatype = REAL_TYPE;

	mov	edx, DWORD PTR _listtop
	mov	ecx, DWORD PTR _list
	imul	edx, 168				; 000000a8H
	pop	edi
	pop	esi
	mov	DWORD PTR [edx+ecx+20], eax
	pop	ebx

; 4627 : 
; 4628 :       }
; 4629 : } // end more_makenode()

	mov	esp, ebp
	pop	ebp
	ret	0
$LN316@more_maken:

; 3161 :          break;
; 3162 : 
; 3163 :     case SIZEOF_STRING_NODE: /* string length */
; 3164 :          list[listtop].type = SIZEOF_STRING_NODE;

	mov	edx, DWORD PTR _listtop
	mov	eax, DWORD PTR _list
	imul	edx, 168				; 000000a8H

; 3165 :          list[listtop].left = left-listtop;  /* string expr */

	mov	ecx, DWORD PTR _left$[ebp]
	mov	DWORD PTR [edx+eax], 10422		; 000028b6H
	mov	eax, DWORD PTR _listtop
	mov	edx, DWORD PTR _list
	sub	ecx, eax
	imul	eax, 168				; 000000a8H
	mov	DWORD PTR [eax+edx+4], ecx

; 3166 :          list[listtop].stack_delta = 1;
; 3167 :          list[listtop].datatype = REAL_TYPE;
; 3168 :          break;

	jmp	$LN463@more_maken
$LN315@more_maken:

; 3169 : 
; 3170 : 
; 3171 :     case DEFINE_CONSTRAINT_NODE:
; 3172 :        { int old_verb_flag;
; 3173 :          struct treenode *old_list;
; 3174 :          int retval;
; 3175 :          list[listtop].type = type;

	mov	eax, DWORD PTR _listtop
	mov	ecx, DWORD PTR _list
	imul	eax, 168				; 000000a8H
	mov	DWORD PTR [eax+ecx], esi

; 3176 :          /* Parse-time evaluation and construction of quantity */
; 3177 : 	     datafile_flag = PRETEND_DATAFILE; 
; 3178 :          old_verb_flag = verb_flag; verb_flag = 0; 

	mov	edi, DWORD PTR _verb_flag

; 3179 :          old_list = list;

	mov	esi, DWORD PTR _list
	xor	ebx, ebx
	mov	DWORD PTR _datafile_flag, 2
	mov	DWORD PTR _verb_flag, ebx

; 3180 :          retval = read_constraint(); 

	call	_read_constraint
$LN467@more_maken:

; 3181 :          list = old_list;
; 3182 :          list[listtop].op1.con_id = retval;

	mov	edx, DWORD PTR _listtop
	imul	edx, 168				; 000000a8H
	mov	DWORD PTR _list, esi
	mov	DWORD PTR [edx+esi+32], eax

; 3183 : 	     datafile_flag = NOT_DATAFILE;
; 3184 :          verb_flag = old_verb_flag;
; 3185 :          if ( tok == ';' ) /* in case reentrant parser ate ';' */

	cmp	DWORD PTR _tok, 59			; 0000003bH
	mov	DWORD PTR _datafile_flag, ebx
	mov	DWORD PTR _verb_flag, edi
	jne	$LN333@more_maken

; 3186 :             kb_unput(';');

	push	59					; 0000003bH
	call	_kb_unput
	add	esp, 4
	pop	edi
	pop	esi
	pop	ebx

; 4627 : 
; 4628 :       }
; 4629 : } // end more_makenode()

	mov	esp, ebp
	pop	ebp
	ret	0
$LN313@more_maken:

; 3187 :        }
; 3188 :          break;
; 3189 : 
; 3190 :     case DEFINE_BOUNDARY_NODE:
; 3191 :        { int old_verb_flag;
; 3192 :          int retval;
; 3193 :          struct treenode *old_list;
; 3194 :          list[listtop].type = type;

	mov	eax, DWORD PTR _listtop
	mov	ecx, DWORD PTR _list
	imul	eax, 168				; 000000a8H
	mov	DWORD PTR [eax+ecx], esi

; 3195 :          /* Parse-time evaluation and construction of quantity */
; 3196 : 		 datafile_flag = PRETEND_DATAFILE; old_verb_flag = verb_flag; verb_flag = 0; 

	mov	edi, DWORD PTR _verb_flag

; 3197 :          old_list = list;

	mov	esi, DWORD PTR _list
	xor	ebx, ebx
	mov	DWORD PTR _datafile_flag, 2
	mov	DWORD PTR _verb_flag, ebx

; 3198 :          retval = read_boundary(); 

	call	_read_boundary

; 3199 :          list = old_list;
; 3200 :          list[listtop].op1.bdry_id = retval;
; 3201 : 		 datafile_flag = NOT_DATAFILE;
; 3202 :          verb_flag = old_verb_flag;
; 3203 :          if ( tok == ';' ) /* in case reentrant parser ate ';' */
; 3204 :             kb_unput(';');
; 3205 :        }
; 3206 :          break;

	jmp	SHORT $LN467@more_maken
$LN311@more_maken:

; 3207 : 
; 3208 :     case DEFINE_QUANTITY_NODE:
; 3209 :        { int old_verb_flag;
; 3210 :          struct treenode *old_list;
; 3211 :          int retval;
; 3212 :          list[listtop].type = type;

	mov	eax, DWORD PTR _listtop
	mov	ecx, DWORD PTR _list
	imul	eax, 168				; 000000a8H
	mov	DWORD PTR [eax+ecx], esi

; 3213 :          /* Parse-time evaluation and construction of quantity */
; 3214 : 		 datafile_flag = 1; old_verb_flag = verb_flag; verb_flag = 0; 

	mov	edi, DWORD PTR _verb_flag

; 3215 :          old_list = list;

	mov	esi, DWORD PTR _list
	xor	ebx, ebx
	mov	DWORD PTR _datafile_flag, 1
	mov	DWORD PTR _verb_flag, ebx

; 3216 :          retval = read_quantity(); // calls exec(), so wipes "list" at exit

	call	_read_quantity

; 3217 :          list = old_list;
; 3218 :          list[listtop].op1.quant_id = retval;
; 3219 : 		 datafile_flag = 0;
; 3220 :          verb_flag = old_verb_flag;
; 3221 :          if ( tok == ';' ) /* in case reentrant parser ate ';' */
; 3222 :             kb_unput(';');
; 3223 :        }
; 3224 :          break;

	jmp	$LN467@more_maken
$LN309@more_maken:

; 3225 : 
; 3226 :     case DEFINE_METHOD_INSTANCE_NODE:
; 3227 :        { int old_verb_flag;
; 3228 :          int retval;
; 3229 :          struct treenode *old_list;
; 3230 :          list[listtop].type = type;

	mov	eax, DWORD PTR _listtop
	mov	ecx, DWORD PTR _list
	imul	eax, 168				; 000000a8H
	mov	DWORD PTR [eax+ecx], esi

; 3231 :          /* Parse-time evaluation and construction of quantity */
; 3232 : 		 datafile_flag = 1; old_verb_flag = verb_flag; verb_flag = 0; 

	mov	edi, DWORD PTR _verb_flag

; 3233 :          old_list = list;

	mov	esi, DWORD PTR _list
	xor	ebx, ebx
	mov	DWORD PTR _datafile_flag, 1
	mov	DWORD PTR _verb_flag, ebx

; 3234 :          retval = read_method_instance(); 

	call	_read_method_instance

; 3235 :          list = old_list;
; 3236 :          list[listtop].op1.quant_id = retval;
; 3237 : 		 datafile_flag = 0;
; 3238 :          verb_flag = old_verb_flag;
; 3239 :          if ( tok == ';' ) /* in case reentrant parser ate ';' */
; 3240 :             kb_unput(';');
; 3241 :        }
; 3242 :          break;

	jmp	$LN467@more_maken
$LN307@more_maken:

; 3243 : 
; 3244 :     case IS_DEFINED_NODE:
; 3245 :          /* Parse-time evaluation. */
; 3246 :          list[listtop].type = type;

	mov	eax, DWORD PTR _listtop
	mov	ecx, DWORD PTR _list
	imul	eax, 168				; 000000a8H

; 3247 :          list[listtop].left = left-listtop; 

	mov	edx, DWORD PTR _left$[ebp]
	mov	DWORD PTR [eax+ecx], esi
	mov	eax, DWORD PTR _listtop
	mov	ecx, DWORD PTR _list
	sub	edx, eax
	imul	eax, 168				; 000000a8H
	mov	DWORD PTR [eax+ecx+4], edx
$LN469@more_maken:

; 3248 :          list[listtop].stack_delta = 0;

	mov	edx, DWORD PTR _listtop
	mov	eax, DWORD PTR _list
	imul	edx, 168				; 000000a8H
	mov	DWORD PTR [edx+eax+156], 0
$LN468@more_maken:

; 3249 :          list[listtop].datatype = REAL_TYPE;

	mov	ecx, DWORD PTR _listtop
	mov	edx, DWORD PTR _list
	imul	ecx, 168				; 000000a8H
	pop	edi
	pop	esi
	mov	DWORD PTR [ecx+edx+20], 1
	pop	ebx

; 4627 : 
; 4628 :       }
; 4629 : } // end more_makenode()

	mov	esp, ebp
	pop	ebp
	ret	0
$LN305@more_maken:

; 3258 : 
; 3259 :     case PUSH_NAMED_QUANTITY_NODE:
; 3260 :          list[listtop].type = type;

	mov	eax, DWORD PTR _listtop
	mov	ecx, DWORD PTR _list
	imul	eax, 168				; 000000a8H
	mov	DWORD PTR [eax+ecx], esi

; 3261 :          list[listtop].op1.quant_id = left;

	mov	edx, DWORD PTR _listtop
	mov	eax, DWORD PTR _list
	imul	edx, 168				; 000000a8H
	mov	ecx, DWORD PTR _left$[ebp]
	mov	DWORD PTR [edx+eax+32], ecx
$LN486@more_maken:

; 3262 :          list[listtop].flags |= EPHEMERAL;

	mov	edx, DWORD PTR _listtop
	mov	eax, DWORD PTR _list
	imul	edx, 168				; 000000a8H
	or	DWORD PTR [edx+eax+24], 64		; 00000040H
	lea	eax, DWORD PTR [edx+eax+24]

; 3263 :          list[listtop].stack_delta = 1;
; 3264 :          list[listtop].datatype = REAL_TYPE;
; 3265 :          break;

	jmp	$LN463@more_maken
$LN300@more_maken:

; 3294 : 
; 3295 :     case DATE_AND_TIME_NODE:
; 3296 :     case EVOLVER_VERSION_NODE:
; 3297 :          list[listtop].type = type;

	mov	eax, DWORD PTR _listtop
	mov	ecx, DWORD PTR _list
	imul	eax, 168				; 000000a8H
	mov	DWORD PTR [eax+ecx], esi

; 3298 :          list[listtop].stack_delta = 1;

	mov	edx, DWORD PTR _listtop
	mov	eax, DWORD PTR _list
	imul	edx, 168				; 000000a8H
	mov	DWORD PTR [edx+eax+156], 1

; 3299 :          list[listtop].datatype = STRING_TYPE;

	mov	ecx, DWORD PTR _listtop
	mov	edx, DWORD PTR _list
	imul	ecx, 168				; 000000a8H
	pop	edi
	pop	esi
	mov	DWORD PTR [ecx+edx+20], 11		; 0000000bH
	pop	ebx

; 4627 : 
; 4628 :       }
; 4629 : } // end more_makenode()

	mov	esp, ebp
	pop	ebp
	ret	0
$LN299@more_maken:

; 3300 :          break;
; 3301 : 
; 3302 :     case TOGGLEVALUE_NODE:
; 3303 :          list[listtop].type = type;

	mov	eax, DWORD PTR _listtop
	mov	ecx, DWORD PTR _list
	imul	eax, 168				; 000000a8H
	mov	DWORD PTR [eax+ecx], esi

; 3304 :          list[listtop].op1.toggle_id = left; /* which toggle */
; 3305 :          list[listtop].stack_delta = 1;
; 3306 :          list[listtop].datatype = REAL_TYPE;
; 3307 :          break;

	jmp	$LN466@more_maken
$LN298@more_maken:

; 3308 : 
; 3309 :     case GET_TORUS_PERIODS_NODE:
; 3310 :     case GET_INVERSE_PERIODS_NODE:
; 3311 :          list[listtop].type = type;

	mov	edx, DWORD PTR _listtop
	mov	eax, DWORD PTR _list
	imul	edx, 168				; 000000a8H

; 3312 :          list[listtop].left = left - listtop;

	mov	ecx, DWORD PTR _left$[ebp]
	mov	DWORD PTR [edx+eax], esi
	mov	eax, DWORD PTR _listtop
	mov	edx, DWORD PTR _list
	sub	ecx, eax
	imul	eax, 168				; 000000a8H
	mov	DWORD PTR [eax+edx+4], ecx

; 3313 :          list[listtop].right = right - listtop;

	mov	eax, DWORD PTR _listtop
	mov	ecx, DWORD PTR _right$[ebp]
	mov	edx, DWORD PTR _list
	sub	ecx, eax
	imul	eax, 168				; 000000a8H
	mov	DWORD PTR [eax+edx+8], ecx
$LN471@more_maken:

; 3314 :          list[listtop].stack_delta = -1;

	mov	eax, DWORD PTR _listtop
	mov	ecx, DWORD PTR _list
	imul	eax, 168				; 000000a8H
	mov	DWORD PTR [eax+ecx+156], -1
$LN470@more_maken:

; 3315 :          list[listtop].datatype = REAL_TYPE;

	mov	edx, DWORD PTR _listtop
	mov	eax, DWORD PTR _list
	imul	edx, 168				; 000000a8H
	pop	edi
	pop	esi
	mov	DWORD PTR [edx+eax+20], 1
	pop	ebx

; 4627 : 
; 4628 :       }
; 4629 : } // end more_makenode()

	mov	esp, ebp
	pop	ebp
	ret	0
$LN133@more_maken:

; 4059 : 
; 4060 :     case GET_INTERNAL_NODE:
; 4061 :          list[listtop].type = GET_INTERNAL_NODE;

	mov	ecx, DWORD PTR _listtop
	mov	edx, DWORD PTR _list
	imul	ecx, 168				; 000000a8H
	mov	DWORD PTR [ecx+edx], 10413		; 000028adH

; 4062 :          list[listtop].op1.name_id = left;

	mov	eax, DWORD PTR _listtop
	mov	ecx, DWORD PTR _list
	imul	eax, 168				; 000000a8H
	mov	edx, DWORD PTR _left$[ebp]
	mov	DWORD PTR [eax+ecx+32], edx

; 4063 :          list[listtop].stack_delta = 1;
; 4064 :          list[listtop].datatype = REAL_TYPE;
; 4065 :          break;

	jmp	$LN463@more_maken
$LN131@more_maken:

; 4066 : 
; 4067 :     case PUSHQPRESSURE_NODE:
; 4068 :     case PUSHQTARGET_NODE:
; 4069 :     case PUSHQVALUE_NODE:
; 4070 :     case PUSHQMODULUS_NODE:
; 4071 :     case PUSHQTOLERANCE_NODE:
; 4072 :     case PUSHMMODULUS_NODE:
; 4073 :     case PUSHQVOLCONST_NODE:
; 4074 :     case PUSHQFIXED_NODE:
; 4075 :     case PUSHQENERGY_NODE:
; 4076 :     case PUSHQCONSERVED_NODE:
; 4077 :     case PUSHQINFO_ONLY_NODE:
; 4078 :          list[listtop].type = type;
; 4079 :          list[listtop].op1.quant_id = left;
; 4080 :          list[listtop].stack_delta = 1;
; 4081 :          list[listtop].datatype = REAL_TYPE;
; 4082 :          break;
; 4083 : 
; 4084 :     case PUSHMVALUE_NODE:
; 4085 :          list[listtop].type = type;

	mov	edx, DWORD PTR _listtop
	mov	eax, DWORD PTR _list
	imul	edx, 168				; 000000a8H

; 4086 :          list[listtop].op1.meth_id = left;

	mov	ebx, DWORD PTR _left$[ebp]
	mov	DWORD PTR [edx+eax], esi
	mov	ecx, DWORD PTR _listtop
	mov	edx, DWORD PTR _list
	imul	ecx, 168				; 000000a8H
	mov	DWORD PTR [ecx+edx+32], ebx

; 4087 :          if ( reading_comp_quant_flag ) 

	cmp	DWORD PTR _reading_comp_quant_flag, 0
	je	$LN463@more_maken

; 4088 :          { int i;
; 4089 :            struct gen_quant *q = GEN_QUANT(cur_quant);

	mov	esi, DWORD PTR _cur_quant

; 4090 :            struct method_instance *mi = METH_INSTANCE(left);

	mov	eax, ebx
	imul	esi, 368				; 00000170H
	add	esi, DWORD PTR _gen_quant_list
	cdq
	xor	eax, edx
	sub	eax, edx
	imul	eax, 2928				; 00000b70H
	add	eax, DWORD PTR _meth_inst_list

; 4091 :            mi->flags |= Q_COMPOUND;
; 4092 : 
; 4093 :            /* see if in quantity's list */
; 4094 :            for ( i = 0 ; i < q->method_count ; i++ )

	xor	ecx, ecx
	or	DWORD PTR [eax+140], 256		; 00000100H
	mov	edx, DWORD PTR [esi+240]
	test	edx, edx
	jle	SHORT $LN419@more_maken

; 4088 :          { int i;
; 4089 :            struct gen_quant *q = GEN_QUANT(cur_quant);

	mov	edi, DWORD PTR [esi+244]
	npad	2
$LL129@more_maken:

; 4095 :              if ( q->meth_inst[i] == left ) 

	cmp	DWORD PTR [edi], ebx
	je	SHORT $LN419@more_maken

; 4091 :            mi->flags |= Q_COMPOUND;
; 4092 : 
; 4093 :            /* see if in quantity's list */
; 4094 :            for ( i = 0 ; i < q->method_count ; i++ )

	inc	ecx
	add	edi, 4
	cmp	ecx, edx
	jl	SHORT $LL129@more_maken
$LN419@more_maken:

; 4096 :                 break;
; 4097 :            if ( i == q->method_count )

	cmp	ecx, edx
	jne	$LN463@more_maken

; 4098 :            {  int j; 
; 4099 :               /* add to list */
; 4100 :               for ( j = 0 ; j < MMAXQUANTS ; j++ )

	xor	ecx, ecx
	lea	edx, DWORD PTR [eax+152]
	npad	4
$LL124@more_maken:

; 4101 :                  if ( mi->quants[j] == -1 )

	cmp	DWORD PTR [edx], -1
	je	SHORT $LN394@more_maken

; 4098 :            {  int j; 
; 4099 :               /* add to list */
; 4100 :               for ( j = 0 ; j < MMAXQUANTS ; j++ )

	inc	ecx
	add	edx, 4
	cmp	ecx, 8
	jl	SHORT $LL124@more_maken

; 4428 :                 if ( stricmp(ex->name,set_extra_name) == 0 ) break;

	jmp	SHORT $LN122@more_maken
$LN394@more_maken:

; 4102 :                  { mi->quants[j] = cur_quant;

	mov	edx, DWORD PTR _cur_quant
	mov	DWORD PTR [eax+ecx*4+152], edx

; 4103 :                    mi->quants_index[j] = q->method_count;

	mov	edx, DWORD PTR [esi+240]
	mov	DWORD PTR [eax+ecx*4+184], edx
$LN122@more_maken:

; 4104 :                    break;
; 4105 :                  }
; 4106 :               if ( j == MMAXQUANTS )

	cmp	ecx, 8
	jne	SHORT $LN120@more_maken

; 4107 :               { sprintf(errmsg,"'%s' attached to too many quantities. This version of Evolver permits only %d.\n",
; 4108 :                    mi->name,MMAXQUANTS);

	push	ecx
	push	eax
	push	OFFSET ??_C@_0FA@KPBJMLGF@?8?$CFs?8?5attached?5to?5too?5many?5quanti@
	push	OFFSET _errmsg
	call	_sprintf

; 4109 :                 kb_error(4865,errmsg,DATAFILE_ERROR);

	push	6
	push	OFFSET _errmsg
	push	4865					; 00001301H
	call	_kb_error
	add	esp, 28					; 0000001cH
$LN120@more_maken:

; 4110 :               }
; 4111 : 			  attach_method_num(cur_quant,left);

	mov	eax, DWORD PTR _cur_quant
	push	ebx
	push	eax
	call	_attach_method_num
	add	esp, 8

; 4112 :            }
; 4113 :          }
; 4114 :          list[listtop].stack_delta = 1;
; 4115 :          list[listtop].datatype = REAL_TYPE;
; 4116 :          break;

	jmp	$LN463@more_maken
$LN106@more_maken:

; 4224 :          break;
; 4225 : 
; 4226 :     case SET_CONSTRAINT_GLOBAL_NODE:
; 4227 :     case UNSET_CONSTRAINT_GLOBAL_NODE:
; 4228 :          list[listtop].type = type;

	mov	eax, DWORD PTR _listtop
	mov	ecx, DWORD PTR _list
	imul	eax, 168				; 000000a8H

; 4229 :          list[listtop].left = left - listtop;

	mov	edx, DWORD PTR _left$[ebp]
	mov	DWORD PTR [eax+ecx], esi
	mov	eax, DWORD PTR _listtop
	mov	ecx, DWORD PTR _list
	sub	edx, eax
	imul	eax, 168				; 000000a8H
	mov	DWORD PTR [eax+ecx+4], edx

; 4230 :          list[listtop].stack_delta = -1;

	mov	edx, DWORD PTR _listtop
	mov	eax, DWORD PTR _list
	imul	edx, 168				; 000000a8H
	pop	edi
	pop	esi
	mov	DWORD PTR [edx+eax+156], -1
	pop	ebx

; 4627 : 
; 4628 :       }
; 4629 : } // end more_makenode()

	mov	esp, ebp
	pop	ebp
	ret	0
$LN105@more_maken:

; 4231 :          break;
; 4232 : 
; 4233 :     case SET_CONSTRAINT_NAME_GLOBAL_NODE:
; 4234 :     case UNSET_CONSTRAINT_NAME_GLOBAL_NODE:
; 4235 :          list[listtop].type = type;

	mov	ecx, DWORD PTR _listtop
	mov	edx, DWORD PTR _list
	imul	ecx, 168				; 000000a8H
	mov	DWORD PTR [ecx+edx], esi

; 4236 :          list[listtop].stack_delta = 0;

	mov	eax, DWORD PTR _listtop
	mov	ecx, DWORD PTR _list
	imul	eax, 168				; 000000a8H
	mov	DWORD PTR [eax+ecx+156], 0

; 4237 :          list[listtop].op3.connum = globals(left)->value.cnum; 

	mov	eax, DWORD PTR _left$[ebp]
	mov	ecx, eax
	and	ecx, -16777216				; ff000000H
	cmp	ecx, 268435456				; 10000000H
	je	SHORT $LN364@more_maken
	cmp	ecx, 805306368				; 30000000H
	jne	SHORT $LN366@more_maken
	mov	edx, DWORD PTR _localbase
	and	eax, 16777215				; 00ffffffH
	imul	eax, 224				; 000000e0H
	add	eax, DWORD PTR [edx]
	jmp	SHORT $LN365@more_maken
$LN366@more_maken:
	cmp	ecx, 536870912				; 20000000H
	jne	SHORT $LN364@more_maken
	mov	ecx, DWORD PTR _web+5656
	and	eax, 16777215				; 00ffffffH
	mov	eax, DWORD PTR [ecx+eax*4]
	jmp	SHORT $LN365@more_maken
$LN364@more_maken:
	mov	edx, DWORD PTR _web+5652
	mov	ecx, DWORD PTR _dymem
	and	eax, 16777215				; 00ffffffH
	lea	eax, DWORD PTR [edx+eax*4]
	mov	eax, DWORD PTR [eax+ecx]
$LN365@more_maken:
	mov	edx, DWORD PTR _listtop
	mov	eax, DWORD PTR [eax+64]
	imul	edx, 168				; 000000a8H
	mov	ecx, DWORD PTR _list
	pop	edi
	pop	esi
	mov	DWORD PTR [edx+ecx+140], eax
	pop	ebx

; 4627 : 
; 4628 :       }
; 4629 : } // end more_makenode()

	mov	esp, ebp
	pop	ebp
	ret	0
$LN92@more_maken:

; 4324 :             }
; 4325 :             break;
; 4326 : 
; 4327 :      case PRINT_ATTR_ARRAY_NODE:  /* print element attribute array or slice */
; 4328 :             { struct extra *ex;
; 4329 :               int exnum;
; 4330 :               etype = int_val >> YYTYPESHIFT;

	mov	ecx, DWORD PTR _int_val
	mov	eax, ecx
	sar	eax, 25					; 00000019H

; 4331 :               exnum = int_val & YYSHIFTMASK;
; 4332 :               ex = EXTRAS(etype) + exnum;

	mov	edx, eax
	imul	edx, 112				; 00000070H
	and	ecx, 33554431				; 01ffffffH
	mov	edi, ecx
	mov	DWORD PTR _exnum$90771[ebp], ecx
	imul	edi, 240				; 000000f0H
	mov	ecx, DWORD PTR _web[edx+104]

; 4333 :               list[listtop].type = type;

	mov	edx, DWORD PTR _listtop
	imul	edx, 168				; 000000a8H
	add	ecx, edi
	mov	edi, DWORD PTR _list
	add	ecx, DWORD PTR _dymem
	mov	DWORD PTR [edx+edi], esi

; 4334 :               list[listtop].op5.indexcount = right ? list[right].op5.indexcount : 0; /* indices */

	mov	edx, DWORD PTR _right$[ebp]
	mov	edi, DWORD PTR _list
	test	edx, edx
	je	SHORT $LN382@more_maken
	mov	esi, edx
	imul	esi, 168				; 000000a8H
	mov	esi, DWORD PTR [esi+edi+152]
	jmp	SHORT $LN383@more_maken
$LN382@more_maken:
	xor	esi, esi
$LN383@more_maken:
	mov	ebx, DWORD PTR _listtop
	imul	ebx, 168				; 000000a8H
	mov	DWORD PTR [ebx+edi+152], esi

; 4335 :               list[listtop].op2.eltype = etype;

	mov	esi, DWORD PTR _listtop
	mov	edi, DWORD PTR _list
	imul	esi, 168				; 000000a8H
	mov	DWORD PTR [esi+edi+136], eax

; 4336 :               list[listtop].op3.extranum = exnum;  /* which extra */

	mov	eax, DWORD PTR _listtop
	mov	esi, DWORD PTR _list
	imul	eax, 168				; 000000a8H
	mov	edi, DWORD PTR _exnum$90771[ebp]
	mov	DWORD PTR [eax+esi+140], edi

; 4337 :               list[listtop].left = left - listtop;  /* element */

	mov	eax, DWORD PTR _listtop
	mov	esi, DWORD PTR _left$[ebp]
	mov	edi, DWORD PTR _list
	sub	esi, eax
	imul	eax, 168				; 000000a8H
	mov	DWORD PTR [eax+edi+4], esi

; 4338 :               if ( right ) list[listtop].right = right - listtop;  /* index */

	test	edx, edx
	je	SHORT $LN91@more_maken
	mov	eax, DWORD PTR _listtop
	mov	edi, DWORD PTR _list
	mov	esi, edx
	sub	esi, eax
	imul	eax, 168				; 000000a8H
	mov	DWORD PTR [eax+edi+8], esi
$LN91@more_maken:

; 4339 :               if ( ex->array_spec.dim < list[right].op5.indexcount )

	mov	eax, DWORD PTR [ecx+76]
	imul	edx, 168				; 000000a8H
	mov	esi, DWORD PTR _list
	cmp	eax, DWORD PTR [edx+esi+152]
	jge	SHORT $LN90@more_maken

; 4340 :               { sprintf(errmsg,"Attribute %s must have at most %d indices.\n",
; 4341 :                  ex->name,ex->array_spec.dim);

	push	eax
	push	ecx
	push	OFFSET ??_C@_0CM@IJMBNBLJ@Attribute?5?$CFs?5must?5have?5at?5most?5?$CF@
	push	OFFSET _errmsg
	call	_sprintf

; 4342 :                 kb_error(2644,errmsg,COMMAND_ERROR);

	push	5
	push	OFFSET _errmsg
	push	2644					; 00000a54H
	call	_kb_error
	add	esp, 28					; 0000001cH
$LN90@more_maken:

; 4343 :               }
; 4344 :               list[listtop].flags |= EPHEMERAL;

	mov	ecx, DWORD PTR _listtop
	mov	edx, DWORD PTR _list
	imul	ecx, 168				; 000000a8H
	or	DWORD PTR [ecx+edx+24], 64		; 00000040H
	lea	eax, DWORD PTR [ecx+edx+24]

; 4345 :               list[listtop].stack_delta = -list[listtop].op5.indexcount;

	mov	eax, DWORD PTR _listtop
	mov	ecx, DWORD PTR _list
	imul	eax, 168				; 000000a8H
	mov	edx, DWORD PTR [eax+ecx+152]
	pop	edi
	neg	edx
	pop	esi
	mov	DWORD PTR [eax+ecx+156], edx
	pop	ebx

; 4627 : 
; 4628 :       }
; 4629 : } // end more_makenode()

	mov	esp, ebp
	pop	ebp
	ret	0
$LN78@more_maken:

; 4397 : 
; 4398 :      case SET_ATTRIBUTE_NODE:
; 4399 :      case SET_ATTRIBUTE_L_NODE:
; 4400 :      case SET_ATTRIBUTE_A_NODE:
; 4401 :           if ( elsym == NULL )

	cmp	DWORD PTR _elsym, 0
	jne	SHORT $LN77@more_maken

; 4402 :               kb_error(1477,"Don't have element for attribute to apply to.\n",
; 4403 :                     COMMAND_ERROR);

	push	5
	push	OFFSET ??_C@_0CP@EADLGAJE@Don?8t?5have?5element?5for?5attribute@
	push	1477					; 000005c5H
	call	_kb_error
	add	esp, 12					; 0000000cH
$LN77@more_maken:

; 4404 :           list[listtop].type = type;

	mov	eax, DWORD PTR _listtop
	mov	ecx, DWORD PTR _list
	imul	eax, 168				; 000000a8H
	mov	DWORD PTR [eax+ecx], esi

; 4405 :           if ( left ) list[listtop].left = left-listtop;  /* value */

	mov	eax, DWORD PTR _left$[ebp]
	test	eax, eax
	je	SHORT $LN76@more_maken
	mov	ecx, DWORD PTR _listtop
	mov	edx, DWORD PTR _list
	sub	eax, ecx
	imul	ecx, 168				; 000000a8H
	mov	DWORD PTR [ecx+edx+4], eax
$LN76@more_maken:

; 4406 :           if ( right )

	mov	eax, DWORD PTR _right$[ebp]
	test	eax, eax
	je	SHORT $LN71@more_maken

; 4407 :           { /* index; check which attributes are legal */
; 4408 :             list[listtop].right = right-listtop;

	mov	edx, DWORD PTR _list
	mov	ecx, eax
	mov	eax, DWORD PTR _listtop
	sub	ecx, eax
	imul	eax, 168				; 000000a8H
	mov	DWORD PTR [eax+edx+8], ecx

; 4409 :             switch ( attr_kind )

	mov	eax, DWORD PTR _attr_kind
	sub	eax, 10315				; 0000284bH
	je	SHORT $LN71@more_maken
	sub	eax, 11					; 0000000bH
	je	SHORT $LN71@more_maken
	sub	eax, 8
	je	SHORT $LN72@more_maken

; 4412 :                  break;
; 4413 :                case SET_COORD_1_NODE: case SET_PARAM_1_NODE: break;
; 4414 :                default: kb_error(1478,"Attribute is not indexed.\n",COMMAND_ERROR);

	push	5
	push	OFFSET ??_C@_0BL@LFPPAIJK@Attribute?5is?5not?5indexed?4?6?$AA@
	push	1478					; 000005c6H
	call	_kb_error
	add	esp, 12					; 0000000cH
	jmp	SHORT $LN71@more_maken
$LN72@more_maken:

; 4410 :              { case SET_EXTRA_ATTR_NODE: 
; 4411 :                  list[listtop].flags |= EPHEMERAL;

	mov	eax, DWORD PTR _listtop
	mov	ecx, DWORD PTR _list
	imul	eax, 168				; 000000a8H
	or	DWORD PTR [eax+ecx+24], 64		; 00000040H
	lea	eax, DWORD PTR [eax+ecx+24]
$LN71@more_maken:

; 4415 :              }
; 4416 :           }
; 4417 :           list[listtop].op1.localnum = elsym->localnum; 

	mov	edx, DWORD PTR _listtop
	mov	eax, DWORD PTR _elsym
	imul	edx, 168				; 000000a8H
	mov	ecx, DWORD PTR [eax+68]
	mov	eax, DWORD PTR _list
	mov	DWORD PTR [edx+eax+32], ecx

; 4418 :           list[listtop].op2.attr_kind = attr_kind;

	mov	ecx, DWORD PTR _listtop
	mov	eax, DWORD PTR _list
	imul	ecx, 168				; 000000a8H
	mov	edx, DWORD PTR _attr_kind
	mov	DWORD PTR [ecx+eax+136], edx

; 4419 :          /* to node */
; 4420 :           /* error checking on attributes and element types */
; 4421 :           etype = elsym->type;

	mov	ecx, DWORD PTR _elsym
	mov	ebx, DWORD PTR [ecx+64]

; 4422 :           switch ( attr_kind )

	mov	ecx, DWORD PTR _attr_kind
	lea	eax, DWORD PTR [ecx-10265]
	cmp	eax, 187				; 000000bbH
	ja	$LN15@more_maken
	movzx	edx, BYTE PTR $LN409@more_maken[eax]
	jmp	DWORD PTR $LN494@more_maken[edx*4]
$LN67@more_maken:

; 4423 :           {
; 4424 :             case SET_EXTRA_ATTR_NODE:
; 4425 :             { struct extra *ex;
; 4426 :               ex = EXTRAS(etype);

	mov	eax, ebx
	imul	eax, 112				; 00000070H
	mov	edi, DWORD PTR _web[eax+104]
	add	edi, DWORD PTR _dymem

; 4427 :               for ( n = 0 ; n < web.skel[etype].extra_count ; n++,ex++ )

	cmp	DWORD PTR _web[eax+108], 0
	mov	DWORD PTR tv4509[ebp], eax
	mov	DWORD PTR _n$[ebp], 0
	jle	SHORT $LN395@more_maken
$LL66@more_maken:

; 4428 :                 if ( stricmp(ex->name,set_extra_name) == 0 ) break;

	push	OFFSET _set_extra_name
	push	edi
	call	_kb_stricmp
	add	esp, 8
	test	eax, eax
	je	SHORT $LN417@more_maken

; 4427 :               for ( n = 0 ; n < web.skel[etype].extra_count ; n++,ex++ )

	mov	eax, DWORD PTR _n$[ebp]
	mov	ecx, DWORD PTR tv4509[ebp]
	inc	eax
	add	edi, 240				; 000000f0H
	mov	DWORD PTR _n$[ebp], eax
	cmp	eax, DWORD PTR _web[ecx+108]
	jl	SHORT $LL66@more_maken
$LN417@more_maken:
	mov	eax, DWORD PTR tv4509[ebp]
$LN395@more_maken:

; 4429 :               if ( n == web.skel[etype].extra_count )

	mov	edx, DWORD PTR _n$[ebp]
	cmp	edx, DWORD PTR _web[eax+108]
	jne	SHORT $LN62@more_maken

; 4430 :               { sprintf(errmsg,"Invalid extra attribute name '%s'.\n",
; 4431 :                 set_extra_name);

	push	OFFSET _set_extra_name
	push	OFFSET ??_C@_0CE@CIKANACF@Invalid?5extra?5attribute?5name?5?8?$CFs@
	push	OFFSET _errmsg
	call	_sprintf

; 4432 :                 kb_error(1479,errmsg,COMMAND_ERROR);

	push	5
	push	OFFSET _errmsg
	push	1479					; 000005c7H
	call	_kb_error
	add	esp, 24					; 00000018H
$LN62@more_maken:

; 4433 :               }
; 4434 :               list[listtop].op3.extra_info = (etype << ESHIFT) + n;

	mov	eax, DWORD PTR _listtop
	mov	ecx, DWORD PTR _list
	imul	eax, 168				; 000000a8H
	shl	ebx, 12					; 0000000cH
	add	ebx, DWORD PTR _n$[ebp]
	mov	DWORD PTR [eax+ecx+140], ebx

; 4435 :               if ( !(ex->flags & DIMENSIONED_ATTR) && right )

	mov	eax, DWORD PTR _right$[ebp]
	mov	bl, 4
	test	BYTE PTR [edi+232], bl
	jne	SHORT $LN490@more_maken
	test	eax, eax
	je	SHORT $LN61@more_maken

; 4436 :               { sprintf(errmsg,"Cannot use index with attribute '%s'.\n",ex->name);

	push	edi
	push	OFFSET ??_C@_0CH@NMIDINCN@Cannot?5use?5index?5with?5attribute?5@
	push	OFFSET _errmsg
	call	_sprintf

; 4437 :                 kb_error(2499,errmsg,COMMAND_ERROR);

	push	5
	push	OFFSET _errmsg
	push	2499					; 000009c3H
	call	_kb_error
	mov	eax, DWORD PTR _right$[ebp]
	add	esp, 24					; 00000018H
$LN61@more_maken:

; 4438 :               }
; 4439 :               if ( (ex->flags & DIMENSIONED_ATTR) && !right )

	test	BYTE PTR [edi+232], bl
	je	SHORT $LN60@more_maken
$LN490@more_maken:
	test	eax, eax
	jne	SHORT $LN404@more_maken

; 4440 :               { sprintf(errmsg,"Must use index with attribute '%s'.\n",ex->name);

	push	edi
	push	OFFSET ??_C@_0CF@IFBIOELO@Must?5use?5index?5with?5attribute?5?8?$CF@
	push	OFFSET _errmsg
	call	_sprintf

; 4441 :                 kb_error(1481,errmsg,COMMAND_ERROR);

	push	5
	push	OFFSET _errmsg
	push	1481					; 000005c9H
	call	_kb_error
	add	esp, 24					; 00000018H

; 4442 :               }
; 4443 :               if ( right && (list[right].op5.indexcount != ex->array_spec.dim) )

	jmp	SHORT $LN415@more_maken
$LN60@more_maken:
	test	eax, eax
	je	SHORT $LN415@more_maken
$LN404@more_maken:
	mov	ecx, DWORD PTR [edi+76]
	imul	eax, 168				; 000000a8H
	mov	edx, DWORD PTR _list
	cmp	DWORD PTR [eax+edx+152], ecx
	je	SHORT $LN415@more_maken

; 4444 :               { sprintf(errmsg,"Attribute '%s' has %d indexes.\n",
; 4445 :                      ex->name,ex->array_spec.dim);

	push	ecx
	push	edi
	push	OFFSET ??_C@_0CA@ELLFACCD@Attribute?5?8?$CFs?8?5has?5?$CFd?5indexes?4?6?$AA@
	push	OFFSET _errmsg
	call	_sprintf

; 4446 :                 kb_error(2498,errmsg,COMMAND_ERROR);

	push	5
	push	OFFSET _errmsg
	push	2498					; 000009c2H
	call	_kb_error
	add	esp, 28					; 0000001cH
$LN415@more_maken:

; 4447 :               }
; 4448 :             list[listtop].stack_delta = -1-ex->array_spec.dim;

	mov	ecx, DWORD PTR _listtop
	mov	edx, DWORD PTR _list
	or	eax, -1
	sub	eax, DWORD PTR [edi+76]
	imul	ecx, 168				; 000000a8H
	mov	DWORD PTR [ecx+edx+156], eax

; 4449 :             }
; 4450 :             break;

	jmp	$LN15@more_maken
$LN58@more_maken:

; 4451 :           case SET_WRAP_NODE:
; 4452 :             if ( etype != EDGE )

	cmp	ebx, 1
	je	SHORT $LN57@more_maken

; 4453 :             kb_error(2239,"Wrap only for edges.\n",COMMAND_ERROR);

	push	5
	push	OFFSET ??_C@_0BG@MIBFLFMI@Wrap?5only?5for?5edges?4?6?$AA@
	push	2239					; 000008bfH
$LN458@more_maken:
	call	_kb_error
	add	esp, 12					; 0000000cH
$LN57@more_maken:

; 4454 :             list[listtop].stack_delta = -1;

	mov	eax, DWORD PTR _listtop
	mov	ecx, DWORD PTR _list
	imul	eax, 168				; 000000a8H
	mov	DWORD PTR [eax+ecx+156], -1

; 4455 :             break;

	jmp	$LN15@more_maken
$LN56@more_maken:

; 4456 :           case SET_COORD_NODE: case SET_COORD_1_NODE: case SET_COORD_2_NODE:
; 4457 :           case SET_COORD_3_NODE: case SET_COORD_4_NODE: case SET_COORD_5_NODE:
; 4458 :           case SET_COORD_6_NODE: case SET_COORD_7_NODE: case SET_COORD_8_NODE:
; 4459 :             if ( attr_kind-SET_COORD_1_NODE >= SDIM )

	add	ecx, -10315				; ffffd7b5H
	cmp	ecx, DWORD PTR _web+616
	jl	SHORT $LN55@more_maken

; 4460 :              kb_error(2543,"Coordinate dimension exceeds space dimension.\n",
; 4461 :                COMMAND_ERROR);

	push	5
	push	OFFSET ??_C@_0CP@EEKPMBAG@Coordinate?5dimension?5exceeds?5spa@
	push	2543					; 000009efH
	call	_kb_error
	add	esp, 12					; 0000000cH
$LN55@more_maken:

; 4462 :             if ( etype != VERTEX )

	test	ebx, ebx
	je	SHORT $LN54@more_maken

; 4463 :               kb_error(1482,"Coordinates only for vertices.\n",COMMAND_ERROR);

	push	5
	push	OFFSET ??_C@_0CA@HENHFIIN@Coordinates?5only?5for?5vertices?4?6?$AA@
	push	1482					; 000005caH
$LN459@more_maken:
	call	_kb_error
	add	esp, 12					; 0000000cH
$LN54@more_maken:

; 4464 :             list[listtop].stack_delta = -1;

	mov	edx, DWORD PTR _listtop
	mov	eax, DWORD PTR _list
	imul	edx, 168				; 000000a8H
	mov	DWORD PTR [edx+eax+156], -1

; 4465 :             break;

	jmp	$LN15@more_maken
$LN53@more_maken:

; 4466 :           case SET_PARAM_NODE: case SET_PARAM_1_NODE: case SET_PARAM_2_NODE:
; 4467 :           case SET_PARAM_3_NODE: case SET_PARAM_4_NODE:
; 4468 :             if ( etype != VERTEX )

	test	ebx, ebx
	je	SHORT $LN52@more_maken

; 4469 :               kb_error(1483,"Boundary parameters only for vertices.\n",COMMAND_ERROR);

	push	5
	push	OFFSET ??_C@_0CI@JEPJACJN@Boundary?5parameters?5only?5for?5ver@
	push	1483					; 000005cbH
	call	_kb_error
	add	esp, 12					; 0000000cH
$LN52@more_maken:

; 4470 :             list[listtop].stack_delta = -1;

	mov	ecx, DWORD PTR _listtop
	mov	edx, DWORD PTR _list
	imul	ecx, 168				; 000000a8H
	mov	DWORD PTR [ecx+edx+156], -1

; 4471 :             break;

	jmp	$LN15@more_maken
$LN51@more_maken:

; 4472 :           case SET_OPACITY_NODE:
; 4473 :             if ( etype != FACET )

	cmp	ebx, 2
	je	$LN57@more_maken

; 4474 :               kb_error(1485,"Opacity only for facets.\n",COMMAND_ERROR);

	push	5
	push	OFFSET ??_C@_0BK@NEICOOEL@Opacity?5only?5for?5facets?4?6?$AA@
	push	1485					; 000005cdH

; 4475 :             list[listtop].stack_delta = -1;
; 4476 :             break;

	jmp	$LN458@more_maken
$LN49@more_maken:

; 4477 :           case SET_FRONTCOLOR_NODE:
; 4478 :           case SET_BACKCOLOR_NODE:
; 4479 :             if ( (etype != FACET) )

	cmp	ebx, 2
	je	SHORT $LN54@more_maken

; 4480 :               kb_error(1304,"Front or back color only for facets.\n",COMMAND_ERROR);

	push	5
	push	OFFSET ??_C@_0CG@PJFEHFFP@Front?5or?5back?5color?5only?5for?5fac@
	push	1304					; 00000518H
	call	_kb_error

; 4481 :             list[listtop].stack_delta = -1;

	mov	edx, DWORD PTR _listtop
	mov	eax, DWORD PTR _list
	add	esp, 12					; 0000000cH
	imul	edx, 168				; 000000a8H
	mov	DWORD PTR [edx+eax+156], -1

; 4482 :             break;

	jmp	$LN15@more_maken
$LN47@more_maken:

; 4483 :           case SET_FRONTBODY_NODE:
; 4484 :           case SET_BACKBODY_NODE:
; 4485 :             if ( web.representation == STRING )

