; Listing generated by Microsoft (R) Optimizing Compiler Version 16.00.40219.01 

	TITLE	C:\levolver\yonkang-sefit\levolver\ev_ogl\YTAB.C
	.686P
	.XMM
	include listing.inc
	.model	flat

INCLUDELIB LIBCMT
INCLUDELIB OLDNAMES

PUBLIC	??_C@_08JFAFOPOC@bdryname?$AA@			; `string'
PUBLIC	??_C@_07HGKEELDD@conname?$AA@			; `string'
PUBLIC	??_C@_0M@HJCKMIEE@unsetattrib?$AA@		; `string'
PUBLIC	??_C@_05EPBFLBEJ@unset?$AA@			; `string'
PUBLIC	??_C@_0L@LPFMIECM@array_attr?$AA@		; `string'
PUBLIC	??_C@_03MBLDOBKB@?$EA35?$AA@			; `string'
PUBLIC	??_C@_03NIKINAOA@?$EA34?$AA@			; `string'
PUBLIC	??_C@_03JHOJEGCH@?$EA33?$AA@			; `string'
PUBLIC	??_C@_03IOPCHHGG@?$EA32?$AA@			; `string'
PUBLIC	??_C@_08BOBFKCGH@assignop?$AA@			; `string'
PUBLIC	??_C@_0L@CEEICBIL@setattribb?$AA@		; `string'
PUBLIC	??_C@_09FPDOCNIH@setattrib?$AA@			; `string'
PUBLIC	??_C@_0L@IFOEBJHC@set_attrib?$AA@		; `string'
PUBLIC	??_C@_03KCHOJKKI@set?$AA@			; `string'
PUBLIC	??_C@_03KFNPCEKF@?$EA31?$AA@			; `string'
PUBLIC	??_C@_03LMMEBFOE@?$EA30?$AA@			; `string'
PUBLIC	??_C@_03GMMEMEJK@?$EA29?$AA@			; `string'
PUBLIC	??_C@_03HFNPPFNL@?$EA28?$AA@			; `string'
PUBLIC	??_C@_03PCEHOJBE@?$EA27?$AA@			; `string'
PUBLIC	??_C@_0M@MLKHEMKL@foreachhead?$AA@		; `string'
PUBLIC	??_C@_09LLMBGFJN@histotype?$AA@			; `string'
PUBLIC	??_C@_09EIIGLG@aggregate?$AA@			; `string'
PUBLIC	??_C@_03OLFMNIFF@?$EA26?$AA@			; `string'
PUBLIC	??_C@_03MAHBILJG@?$EA25?$AA@			; `string'
PUBLIC	??_C@_0M@PHHGPIHH@signed_expr?$AA@		; `string'
PUBLIC	??_C@_0L@GBLBEEOE@fullattrib?$AA@		; `string'
PUBLIC	??_C@_0L@IAJJFGDE@ggetattrib?$AA@		; `string'
PUBLIC	??_C@_09HBHLAMBF@getattrib?$AA@			; `string'
PUBLIC	??_C@_0M@MFHFMEMC@sprintfhead?$AA@		; `string'
PUBLIC	??_C@_0L@GFDCAEPA@stringexpr?$AA@		; `string'
PUBLIC	??_C@_0BB@DMJIENMC@quotation_concat?$AA@	; `string'
PUBLIC	??_C@_06FHLCKAHH@toggle?$AA@			; `string'
PUBLIC	??_C@_0M@IOBGIBEC@element_gen?$AA@		; `string'
PUBLIC	??_C@_07KPBDECCC@singlep?$AA@			; `string'
PUBLIC	??_C@_06EJFMBPJF@single?$AA@			; `string'
PUBLIC	??_C@_08CKJFGDBG@multiple?$AA@			; `string'
PUBLIC	??_C@_06JCDFNCEJ@eltype?$AA@			; `string'
PUBLIC	??_C@_04EDAJKPKH@verb?$AA@			; `string'
PUBLIC	??_C@_07FKIHKFAH@elindex?$AA@			; `string'
PUBLIC	??_C@_03NJGKLKNH@?$EA24?$AA@			; `string'
PUBLIC	??_C@_09IMNBGAIE@backquote?$AA@			; `string'
PUBLIC	??_C@_05IJDJACGD@print?$AA@			; `string'
PUBLIC	??_C@_03JGCLCMBA@?$EA23?$AA@			; `string'
PUBLIC	??_C@_0O@CGGIBPIO@errprintfhead?$AA@		; `string'
PUBLIC	??_C@_0BB@LKKMKFOH@binaryprintfhead?$AA@	; `string'
PUBLIC	??_C@_0L@IGPDOAEF@printfhead?$AA@		; `string'
PUBLIC	??_C@_08NNDNJBEA@exprlist?$AA@			; `string'
PUBLIC	??_C@_03IPDABNFB@?$EA22?$AA@			; `string'
PUBLIC	??_C@_03KEBNEOJC@?$EA21?$AA@			; `string'
PUBLIC	??_C@_03LNAGHPND@?$EA20?$AA@			; `string'
PUBLIC	??_C@_07HNDCJMNA@localid?$AA@			; `string'
PUBLIC	??_C@_0M@BGJBOJMD@localidlist?$AA@		; `string'
PUBLIC	??_C@_03GOICHKMD@?$EA19?$AA@			; `string'
PUBLIC	??_C@_03HHJJELIC@?$EA18?$AA@			; `string'
PUBLIC	??_C@_03PAABFHEN@?$EA17?$AA@			; `string'
PUBLIC	??_C@_03OJBKGGAM@?$EA16?$AA@			; `string'
PUBLIC	??_C@_03MCDHDFMP@?$EA15?$AA@			; `string'
PUBLIC	??_C@_03NLCMAEIO@?$EA14?$AA@			; `string'
PUBLIC	??_C@_0P@FEFPNHMH@new_permlvalue?$AA@		; `string'
PUBLIC	??_C@_09GNEFBEHK@newlvalue?$AA@			; `string'
PUBLIC	??_C@_03JEGNJCEJ@?$EA13?$AA@			; `string'
PUBLIC	??_C@_03INHGKDAI@?$EA12?$AA@			; `string'
PUBLIC	??_C@_08DGEBAIAN@defextra?$AA@			; `string'
PUBLIC	??_C@_07EPCMGBPO@extraat?$AA@			; `string'
PUBLIC	??_C@_09BEJENGBP@arraylist?$AA@			; `string'
PUBLIC	??_C@_0L@LMDBCDGA@arrayrexpr?$AA@		; `string'
PUBLIC	??_C@_0BE@HIDHLDKA@arraylvalueindexset?$AA@	; `string'
PUBLIC	??_C@_0M@JFFHFDGO@arraylvalue?$AA@		; `string'
PUBLIC	??_C@_09PAAPBJEP@arraydecl?$AA@			; `string'
PUBLIC	??_C@_0N@CMIBEALM@dimensionset?$AA@		; `string'
PUBLIC	??_C@_08LOPAIJHN@indexset?$AA@			; `string'
PUBLIC	??_C@_03KGFLPAML@?$EA11?$AA@			; `string'
PUBLIC	??_C@_03LPEAMBIK@?$EA10?$AA@			; `string'
PUBLIC	??_C@_0O@IBFBLOKK@procedurename?$AA@		; `string'
PUBLIC	??_C@_02HOKACGJH@?$EA9?$AA@			; `string'
PUBLIC	??_C@_02GHLLBHNG@?$EA8?$AA@			; `string'
PUBLIC	??_C@_0N@KPAKNOD@functionname?$AA@		; `string'
PUBLIC	??_C@_09ONLDGANJ@protobody?$AA@			; `string'
PUBLIC	??_C@_0N@INMLDOPG@argliststart?$AA@		; `string'
PUBLIC	??_C@_07OPJCDGGN@arglist?$AA@			; `string'
PUBLIC	??_C@_08LECBEIMG@argident?$AA@			; `string'
PUBLIC	??_C@_08IJKJONLA@datatype?$AA@			; `string'
PUBLIC	??_C@_05LOHGPBPM@rexpr?$AA@			; `string'
PUBLIC	??_C@_06GMOMMLND@lvalue?$AA@			; `string'
PUBLIC	??_C@_0L@DEIMIIAN@elidassign?$AA@		; `string'
PUBLIC	??_C@_0BA@MPALAJHM@permidentassign?$AA@		; `string'
PUBLIC	??_C@_0M@LEGEABPP@identassign?$AA@		; `string'
PUBLIC	??_C@_02OACDALBJ@?$EA7?$AA@			; `string'
PUBLIC	??_C@_02PJDIDKFI@?$EA6?$AA@			; `string'
PUBLIC	??_C@_06KFEFOKAJ@estart?$AA@			; `string'
PUBLIC	??_C@_0BC@DHMBNGHN@single_letter_cmd?$AA@	; `string'
PUBLIC	??_C@_06HIKMJFFO@fortop?$AA@			; `string'
PUBLIC	??_C@_07FKHDCNGF@forhead?$AA@			; `string'
PUBLIC	??_C@_08HHFNHOOF@forentry?$AA@			; `string'
PUBLIC	??_C@_02NCBFGJJL@?$EA5?$AA@			; `string'
PUBLIC	??_C@_06JPGMBPB@dohead?$AA@			; `string'
PUBLIC	??_C@_02MLAOFINK@?$EA4?$AA@			; `string'
PUBLIC	??_C@_09NJOOBNDF@whilehead?$AA@			; `string'
PUBLIC	??_C@_02IEEPMOBN@?$EA3?$AA@			; `string'
PUBLIC	??_C@_06EPCOPBPJ@ifhead?$AA@			; `string'
PUBLIC	??_C@_0BA@LBJGNDAL@commandlistterm?$AA@		; `string'
PUBLIC	??_C@_0M@MCFKJOEK@commandlist?$AA@		; `string'
PUBLIC	??_C@_0M@ECNODOJO@commandterm?$AA@		; `string'
PUBLIC	??_C@_0N@ELFDIHLE@commandsemic?$AA@		; `string'
PUBLIC	??_C@_0L@LIJODAAG@onecommand?$AA@		; `string'
PUBLIC	??_C@_02JNFEPPFM@?$EA2?$AA@			; `string'
PUBLIC	??_C@_0N@OBIOPDKO@commandblock?$AA@		; `string'
PUBLIC	??_C@_08BPLPECIC@commands?$AA@			; `string'
PUBLIC	??_C@_08KMFPLNMN@vcommand?$AA@			; `string'
PUBLIC	??_C@_07KMMNMMFF@command?$AA@			; `string'
PUBLIC	??_C@_0M@IFHNINHJ@commandline?$AA@		; `string'
PUBLIC	??_C@_02LGHJKMJP@?$EA1?$AA@			; `string'
PUBLIC	??_C@_05MLFKBFFK@whole?$AA@			; `string'
PUBLIC	??_C@_07IJIIKIJB@$accept?$AA@			; `string'
PUBLIC	??_C@_03EJABIIMB@?8?$EA?8?$AA@			; `string'
PUBLIC	??_C@_0L@PFEJBFNJ@EPRINT_TOK?$AA@		; `string'
PUBLIC	??_C@_0O@MCJACOFD@INCREMENT_TOK?$AA@		; `string'
PUBLIC	??_C@_03FPLJAGLL@?8?$FO?8?$AA@			; `string'
PUBLIC	??_C@_08FLDDNFIG@IDIV_TOK?$AA@			; `string'
PUBLIC	??_C@_07IEDBDPCM@DOT_TOK?$AA@			; `string'
PUBLIC	??_C@_03KIKAENM@?8?1?8?$AA@			; `string'
PUBLIC	??_C@_03MEBMGDH@?8?$CK?8?$AA@			; `string'
PUBLIC	??_C@_08GJLCFIAH@IMOD_TOK?$AA@			; `string'
PUBLIC	??_C@_03HBNIBAK@?8?$CF?8?$AA@			; `string'
PUBLIC	??_C@_03JAONALC@?8?9?8?$AA@			; `string'
PUBLIC	??_C@_03NIDKMAA@?8?$CL?8?$AA@			; `string'
PUBLIC	??_C@_0BH@LCAILNDJ@ON_METHOD_INSTANCE_TOK?$AA@	; `string'
PUBLIC	??_C@_0BA@HBKGMKCG@ON_QUANTITY_TOK?$AA@		; `string'
PUBLIC	??_C@_0BA@JMJONOBI@ON_BOUNDARY_TOK?$AA@		; `string'
PUBLIC	??_C@_0BD@DKIHCAE@HIT_CONSTRAINT_TOK?$AA@	; `string'
PUBLIC	??_C@_0BC@NBBDHPCK@ON_CONSTRAINT_TOK?$AA@	; `string'
PUBLIC	??_C@_06CFBFDNNB@EQ_TOK?$AA@			; `string'
PUBLIC	??_C@_06CIMKDIIP@LE_TOK?$AA@			; `string'
PUBLIC	??_C@_06CKMNGMHF@GE_TOK?$AA@			; `string'
PUBLIC	??_C@_06LPFFCJKG@NE_TOK?$AA@			; `string'
PUBLIC	??_C@_03BEOKBJPF@?8?$DM?8?$AA@			; `string'
PUBLIC	??_C@_03BHGOMNJL@?8?$DO?8?$AA@			; `string'
PUBLIC	??_C@_07BFPBCDOE@NOT_TOK?$AA@			; `string'
PUBLIC	??_C@_07GJHADIGH@AND_TOK?$AA@			; `string'
PUBLIC	??_C@_06HPBBADB@OR_TOK?$AA@			; `string'
PUBLIC	??_C@_03BAGHGFEH@?8?3?8?$AA@			; `string'
PUBLIC	??_C@_03BGKMKHKM@?8?$DP?8?$AA@			; `string'
PUBLIC	??_C@_03BFCIHDMC@?8?$DN?8?$AA@			; `string'
PUBLIC	??_C@_08CIAOIOJC@ELSE_TOK?$AA@			; `string'
PUBLIC	??_C@_08HJDGIPGN@THEN_TOK?$AA@			; `string'
PUBLIC	??_C@_08LHFBJNFF@PIPE_TOK?$AA@			; `string'
PUBLIC	??_C@_0N@PGMIMBEK@ASSIGNOP_TOK?$AA@		; `string'
PUBLIC	??_C@_03HBEMMOCB@?8?$GA?8?$AA@			; `string'
PUBLIC	??_C@_03OAHHIGO@?8?$CJ?8?$AA@			; `string'
PUBLIC	??_C@_03PMFBCFJ@?8?$CI?8?$AA@			; `string'
PUBLIC	??_C@_03GFLCPOAC@?8?$HN?8?$AA@			; `string'
PUBLIC	??_C@_03GBDPICLA@?8?$HL?8?$AA@			; `string'
PUBLIC	??_C@_03FNPPLIOC@?8?$FN?8?$AA@			; `string'
PUBLIC	??_C@_03FJHCMEFA@?8?$FL?8?$AA@			; `string'
PUBLIC	??_C@_03BBKFAPHA@?8?$DL?8?$AA@			; `string'
PUBLIC	??_C@_03LEIGOOL@?8?4?8?$AA@			; `string'
PUBLIC	??_C@_03IMMLKIF@?8?0?8?$AA@			; `string'
PUBLIC	??_C@_0BG@MLIGLOGC@MAKE_THREAD_LISTS_TOK?$AA@	; `string'
PUBLIC	??_C@_0M@NLBHDOHI@DETORUS_TOK?$AA@		; `string'
PUBLIC	??_C@_0O@OAEGJJCB@PROFILING_TOK?$AA@		; `string'
PUBLIC	??_C@_0BE@JFCNFILA@ARRAY_ATTRIBUTE_TOK?$AA@	; `string'
PUBLIC	??_C@_0BD@MAKEFPMF@VALID_BOUNDARY_TOK?$AA@	; `string'
PUBLIC	??_C@_0BF@HPDKCLPE@VALID_CONSTRAINT_TOK?$AA@	; `string'
PUBLIC	??_C@_0BE@EDGDLMGI@RESET_PROFILING_TOK?$AA@	; `string'
PUBLIC	??_C@_0BH@JBMPOCAC@UNSUPPRESS_WARNING_TOK?$AA@	; `string'
PUBLIC	??_C@_0BF@DMAAIILB@SUPPRESS_WARNING_TOK?$AA@	; `string'
PUBLIC	??_C@_0BA@FEGFCLEA@DELETE_TEXT_TOK?$AA@		; `string'
PUBLIC	??_C@_0BB@MLCILBDO@DISPLAY_TEXT_TOK?$AA@	; `string'
PUBLIC	??_C@_0BB@PJOGAEHB@REPLACE_LOAD_TOK?$AA@	; `string'
PUBLIC	??_C@_0BC@LKDFHNKK@SIMPLEX_TO_FE_TOK?$AA@	; `string'
PUBLIC	??_C@_0M@PGOFIFIB@ADDLOAD_TOK?$AA@		; `string'
PUBLIC	??_C@_0N@ECDNPNHI@WHEREAMI_TOK?$AA@		; `string'
PUBLIC	??_C@_0P@OJJIDFAJ@BREAKPOINT_TOK?$AA@		; `string'
PUBLIC	??_C@_09NIOGCOHE@ABORT_TOK?$AA@			; `string'
PUBLIC	??_C@_0P@HMMIALNL@SUBCOMMAND_TOK?$AA@		; `string'
PUBLIC	??_C@_0BH@DEOGPAHC@MATRIX_DETERMINANT_TOK?$AA@	; `string'
PUBLIC	??_C@_0P@MLDCEPJO@INTEGER_AT_TOK?$AA@		; `string'
PUBLIC	??_C@_0BE@LLFKAAHP@LEAD_INTEGER_AT_TOK?$AA@	; `string'
PUBLIC	??_C@_0L@IJJPIEBB@GLOBAL_TOK?$AA@		; `string'
PUBLIC	??_C@_0BD@FICACJCO@MEAN_CURVATURE_TOK?$AA@	; `string'
PUBLIC	??_C@_0BD@CBHMPLEB@METIS_READJUST_TOK?$AA@	; `string'
PUBLIC	??_C@_0BA@JAEDGCFL@REPARTITION_TOK?$AA@		; `string'
PUBLIC	??_C@_0BC@FIAGCEKC@FREE_DISCARDS_TOK?$AA@	; `string'
PUBLIC	??_C@_0BB@OKPMPKMC@DUMP_MEMLIST_TOK?$AA@	; `string'
PUBLIC	??_C@_0BC@HDKBMLLD@BINARY_PRINTF_TOK?$AA@	; `string'
PUBLIC	??_C@_0BD@DPPLOOOH@MATRIX_INVERSE_TOK?$AA@	; `string'
PUBLIC	??_C@_0BE@MAHLNE@MATRIX_MULTIPLY_TOK?$AA@	; `string'
PUBLIC	??_C@_0BI@LLECFGEC@REVERSE_ORIENTATION_TOK?$AA@	; `string'
PUBLIC	??_C@_0P@IJBPCGPK@BODY_METIS_TOK?$AA@		; `string'
PUBLIC	??_C@_0BC@KPLFCIOK@ELEMENT_IDENT_TOK?$AA@	; `string'
PUBLIC	??_C@_0N@OFOIHKCD@GO_COUNT_TOK?$AA@		; `string'
PUBLIC	??_C@_0O@NACIBGPC@MID_FACET_TOK?$AA@		; `string'
PUBLIC	??_C@_0N@PIOCLEMK@MID_EDGE_TOK?$AA@		; `string'
PUBLIC	??_C@_0BC@MMIBKKJK@VALID_ELEMENT_TOK?$AA@	; `string'
PUBLIC	??_C@_0BB@MOBABKKJ@RESET_COUNTS_TOK?$AA@	; `string'
PUBLIC	??_C@_0BB@MEDAAPMI@MERGE_VERTEX_TOK?$AA@	; `string'
PUBLIC	??_C@_0BA@GCAFJNHA@MERGE_FACET_TOK?$AA@		; `string'
PUBLIC	??_C@_0P@GIGCBOHD@MERGE_EDGE_TOK?$AA@		; `string'
PUBLIC	??_C@_0BA@HDGBDGCO@T1_EDGESWAP_TOK?$AA@		; `string'
PUBLIC	??_C@_0BC@CNAHJPN@MPI_TASK_ATTR_TOK?$AA@	; `string'
PUBLIC	??_C@_0P@KIBGGICK@PROCEDURES_TOK?$AA@		; `string'
PUBLIC	??_C@_0N@GMFEGIIE@SHOWVERB_TOK?$AA@		; `string'
PUBLIC	??_C@_0BF@KEDDKBIM@POP_QUAD_TO_QUAD_TOK?$AA@	; `string'
PUBLIC	??_C@_0BE@DMIKMHHD@POP_EDGE_TO_TRI_TOK?$AA@	; `string'
PUBLIC	??_C@_0BE@ILAEFKAC@POP_TRI_TO_EDGE_TOK?$AA@	; `string'
PUBLIC	??_C@_0BE@EFHMMFCB@PROCEDURE_IDENT_TOK?$AA@	; `string'
PUBLIC	??_C@_0BC@JFBKMIGF@BOUNDARY_NAME_TOK?$AA@	; `string'
PUBLIC	??_C@_0BE@EEHLHEPJ@CONSTRAINT_NAME_TOK?$AA@	; `string'
PUBLIC	??_C@_0BB@GBLBLBGI@RENUMBER_ALL_TOK?$AA@	; `string'
PUBLIC	??_C@_0BE@LINDMPOG@REORDER_STORAGE_TOK?$AA@	; `string'
PUBLIC	??_C@_0BB@IPHJGNKO@HESSIAN_SEEK_TOK?$AA@	; `string'
PUBLIC	??_C@_0BD@MHLHMFDK@DIRICHLET_SEEK_TOK?$AA@	; `string'
PUBLIC	??_C@_0BB@GCNDBOOB@SOBOLEV_SEEK_TOK?$AA@	; `string'
PUBLIC	??_C@_0BK@DKIFNFJO@VIEW_TRANSFORM_PARITY_TOK?$AA@ ; `string'
PUBLIC	??_C@_0M@DFKKLNEE@SOBOLEV_TOK?$AA@		; `string'
PUBLIC	??_C@_0O@EILCMAJF@DIRICHLET_TOK?$AA@		; `string'
PUBLIC	??_C@_0BG@KHEPGOMH@INTERNAL_VARIABLE_TOK?$AA@	; `string'
PUBLIC	??_C@_0P@NONHHGEL@P_VELOCITY_TOK?$AA@		; `string'
PUBLIC	??_C@_0M@GKIKGNBD@P_FORCE_TOK?$AA@		; `string'
PUBLIC	??_C@_0BE@NKAHAADP@BACKQUOTE_COMMA_TOK?$AA@	; `string'
PUBLIC	??_C@_0BP@DILMPLFK@VIEW_TRANSFORM_SWAP_COLORS_TOK?$AA@ ; `string'
PUBLIC	??_C@_09PONDIGIE@PHASE_TOK?$AA@			; `string'
PUBLIC	??_C@_0BA@EKDLGBIG@PERM_ASSIGN_TOK?$AA@		; `string'
PUBLIC	??_C@_0O@KBCCNLID@NODISPLAY_TOK?$AA@		; `string'
PUBLIC	??_C@_0P@LMFADJDG@IS_DEFINED_TOK?$AA@		; `string'
PUBLIC	??_C@_0P@CCPGCKCC@CLOSE_SHOW_TOK?$AA@		; `string'
PUBLIC	??_C@_0BE@GGIFBJEI@VIEW_TRANSFORMS_TOK?$AA@	; `string'
PUBLIC	??_C@_0L@BBMCJOCG@JIGGLE_TOK?$AA@		; `string'
PUBLIC	??_C@_0BB@MCMKMLNJ@REDIRECT_ERR_TOK?$AA@	; `string'
PUBLIC	??_C@_0BK@PDEECJJN@RAWEST_VERTEX_AVERAGE_TOK?$AA@ ; `string'
PUBLIC	??_C@_0O@OMGGDAPF@TOLERANCE_TOK?$AA@		; `string'
PUBLIC	??_C@_0BB@DOEHBNCA@REDIRECTOVER_TOK?$AA@	; `string'
PUBLIC	??_C@_0N@KLJNKJEP@OPTIMIZE_TOK?$AA@		; `string'
PUBLIC	??_C@_0BF@MODDFIEA@REDIRECTOVER_ERR_TOK?$AA@	; `string'
PUBLIC	??_C@_0BH@KILBGCBH@RAW_VERTEX_AVERAGE_TOK?$AA@	; `string'
PUBLIC	??_C@_0BE@EOFLEPDM@METHOD_INSTANCE_TOK?$AA@	; `string'
PUBLIC	??_C@_0BD@ELBCCGPJ@VERTEX_AVERAGE_TOK?$AA@	; `string'
PUBLIC	??_C@_08EIDANOB@HELP_TOK?$AA@			; `string'
PUBLIC	??_C@_0N@DCJOCMCA@PERMLOAD_TOK?$AA@		; `string'
PUBLIC	??_C@_0P@NKBDPGIB@PERM_IDENT_TOK?$AA@		; `string'
PUBLIC	??_C@_0BG@BFKHJEEJ@DYNAMIC_LOAD_FUNC_TOK?$AA@	; `string'
PUBLIC	??_C@_0BD@KMNDPHCD@PROCEDURE_WORD_TOK?$AA@	; `string'
PUBLIC	??_C@_0BD@JONHINGP@PERM_PROCEDURE_TOK?$AA@	; `string'
PUBLIC	??_C@_08DBDPGBGI@LOAD_TOK?$AA@			; `string'
PUBLIC	??_C@_0N@GEOKEKFC@QUANTITY_TOK?$AA@		; `string'
PUBLIC	??_C@_09EMMOOKEJ@NOTCH_TOK?$AA@			; `string'
PUBLIC	??_C@_08DIHLMEGK@DUMP_TOK?$AA@			; `string'
PUBLIC	??_C@_0BB@HPLMDLJJ@GAP_CONSTANT_TOK?$AA@	; `string'
PUBLIC	??_C@_0L@BEFJCNLG@PDELTA_TOK?$AA@		; `string'
PUBLIC	??_C@_0M@KMNEBKKL@NEWBODY_TOK?$AA@		; `string'
PUBLIC	??_C@_0BE@OEGMLJBJ@INVERSE_PERIODS_TOK?$AA@	; `string'
PUBLIC	??_C@_09KHLLGAHD@VALUE_TOK?$AA@			; `string'
PUBLIC	??_C@_0L@EFNAKCMM@TARGET_TOK?$AA@		; `string'
PUBLIC	??_C@_0M@NDGADGHD@MODULUS_TOK?$AA@		; `string'
PUBLIC	??_C@_0BD@NELBLNII@FACET_CROSSCUT_TOK?$AA@	; `string'
PUBLIC	??_C@_0N@KELBAFGP@NEWFACET_TOK?$AA@		; `string'
PUBLIC	??_C@_0M@NACDLDEJ@NEWEDGE_TOK?$AA@		; `string'
PUBLIC	??_C@_0O@EJPOLGKF@NEWVERTEX_TOK?$AA@		; `string'
PUBLIC	??_C@_0N@HMOBKBAA@REDIRECT_TOK?$AA@		; `string'
PUBLIC	??_C@_0N@JHHBOPLG@COLORMAP_TOK?$AA@		; `string'
PUBLIC	??_C@_0M@JDJNMAEE@THICKEN_TOK?$AA@		; `string'
PUBLIC	??_C@_0BD@EICAKJNN@FUNCTION_IDENT_TOK?$AA@	; `string'
PUBLIC	??_C@_0BG@JIENBDGP@PERM_STRINGGLOBAL_TOK?$AA@	; `string'
PUBLIC	??_C@_0O@JFFKOKOE@COLORFILE_TOK?$AA@		; `string'
PUBLIC	??_C@_0N@KCBHIKPC@BACKBODY_TOK?$AA@		; `string'
PUBLIC	??_C@_0O@IFKEOLFG@FRONTBODY_TOK?$AA@		; `string'
PUBLIC	??_C@_0BA@KGBKHCMC@HIT_PARTNER_TOK?$AA@		; `string'
PUBLIC	??_C@_07BAENNLEM@FOR_TOK?$AA@			; `string'
PUBLIC	??_C@_0P@IGFDPKNM@NONCONTENT_TOK?$AA@		; `string'
PUBLIC	??_C@_0L@DPKDMLBO@STRING_TOK?$AA@		; `string'
PUBLIC	??_C@_0BB@LGIDMAPC@NO_TRANSFORM_TOK?$AA@	; `string'
PUBLIC	??_C@_0O@GOKJKHMH@NO_REFINE_TOK?$AA@		; `string'
PUBLIC	??_C@_06LKLOFFIO@DO_TOK?$AA@			; `string'
PUBLIC	??_C@_09FOHMGKGP@WHILE_TOK?$AA@			; `string'
PUBLIC	??_C@_06PMGGGFIG@IF_TOK?$AA@			; `string'
PUBLIC	??_C@_0BB@BHJIHDDJ@CENTEROFMASS_TOK?$AA@	; `string'
PUBLIC	??_C@_0BF@KCFAPGJP@WARNING_MESSAGES_TOK?$AA@	; `string'
PUBLIC	??_C@_08LBPCKFFB@QUIT_TOK?$AA@			; `string'
PUBLIC	??_C@_0P@OKAAHMI@AREA_FIXED_TOK?$AA@		; `string'
PUBLIC	??_C@_0BB@MBMGIPGF@LOGHISTOGRAM_TOK?$AA@	; `string'
PUBLIC	??_C@_0O@OAKCOPBN@HISTOGRAM_TOK?$AA@		; `string'
PUBLIC	??_C@_0BB@HBMGBJKA@EQUIANGULATE_TOK?$AA@	; `string'
PUBLIC	??_C@_0BB@OEHCHJNI@STRINGGLOBAL_TOK?$AA@	; `string'
PUBLIC	??_C@_0M@NCJIGPNO@FOREACH_TOK?$AA@		; `string'
PUBLIC	??_C@_0O@PGFHAECA@PROCEDURE_TOK?$AA@		; `string'
PUBLIC	??_C@_0L@IOAJKNDF@ASSIGN_TOK?$AA@		; `string'
PUBLIC	??_C@_0O@FHEAPHIJ@INFO_ONLY_TOK?$AA@		; `string'
PUBLIC	??_C@_0O@BCIMBOGK@CONSERVED_TOK?$AA@		; `string'
PUBLIC	??_C@_0L@MFIPAEK@ENERGY_TOK?$AA@		; `string'
PUBLIC	??_C@_0BA@BIDICDDJ@AXIAL_POINT_TOK?$AA@		; `string'
PUBLIC	??_C@_0P@PNFFCAHL@SHOW_TRANS_TOK?$AA@		; `string'
PUBLIC	??_C@_0O@CPPPGFPH@SHOW_EXPR_TOK?$AA@		; `string'
PUBLIC	??_C@_09DCELFBHJ@LOCAL_TOK?$AA@			; `string'
PUBLIC	??_C@_0BC@FCPEGHD@DATE_AND_TIME_TOK?$AA@	; `string'
PUBLIC	??_C@_0P@MJEKKDEI@ARRAYIDENT_TOK?$AA@		; `string'
PUBLIC	??_C@_0BA@JOPBDGEE@WRAP_VERTEX_TOK?$AA@		; `string'
PUBLIC	??_C@_0N@KMJBHFNJ@DIHEDRAL_TOK?$AA@		; `string'
PUBLIC	??_C@_0M@CILJCLHG@EXPRINT_TOK?$AA@		; `string'
PUBLIC	??_C@_0N@LAJCGPLB@FUNCTION_TOK?$AA@		; `string'
PUBLIC	??_C@_0BB@CAPOLJBG@METIS_FACTOR_TOK?$AA@	; `string'
PUBLIC	??_C@_0BG@MHAGINLF@CONVERT_TO_QUANTS_TOK?$AA@	; `string'
PUBLIC	??_C@_0M@NMEKOHLH@SPRINTF_TOK?$AA@		; `string'
PUBLIC	??_C@_0BE@MBNIINNA@BINARY_OFF_FILE_TOK?$AA@	; `string'
PUBLIC	??_C@_0BC@IBHLDHJF@PARALLEL_EXEC_TOK?$AA@	; `string'
PUBLIC	??_C@_0N@ICHHIFGF@OOGLFILE_TOK?$AA@		; `string'
PUBLIC	??_C@_0BI@DIPLELKP@TRANSFORM_EXPR_VERB_TOK?$AA@	; `string'
PUBLIC	??_C@_0L@OJDOAEJE@RETURN_TOK?$AA@		; `string'
PUBLIC	??_C@_0N@IDEILLME@LAGRANGE_TOK?$AA@		; `string'
PUBLIC	??_C@_0O@DDOKJBIG@BACKCOLOR_TOK?$AA@		; `string'
PUBLIC	??_C@_0BG@PPMPGIJF@SINGLE_LETTER_ARG_TOK?$AA@	; `string'
PUBLIC	??_C@_0BC@FGKAFAEA@RAWEST_VERAVG_TOK?$AA@	; `string'
PUBLIC	??_C@_0O@JNDFFBPJ@TASK_EXEC_TOK?$AA@		; `string'
PUBLIC	??_C@_0BA@GHBFFFMK@METHOD_NAME_TOK?$AA@		; `string'
PUBLIC	??_C@_0BC@JPIMHHMI@SINGLE_REDEFD_TOK?$AA@	; `string'
PUBLIC	??_C@_0P@OCHGEFBG@FRONTCOLOR_TOK?$AA@		; `string'
PUBLIC	??_C@_0BB@KAJICLHM@SQ_MEAN_CURV_TOK?$AA@	; `string'
PUBLIC	??_C@_0L@DCALECHB@OMETIS_TOK?$AA@		; `string'
PUBLIC	??_C@_0BA@LCNFMHPK@ORIENTATION_TOK?$AA@		; `string'
PUBLIC	??_C@_0N@IJNCFOGM@BOUNDARY_TOK?$AA@		; `string'
PUBLIC	??_C@_0L@MBECIJFL@REBODY_TOK?$AA@		; `string'
PUBLIC	??_C@_0N@OKEECHJD@BURCHARD_TOK?$AA@		; `string'
PUBLIC	??_C@_0L@PGJEELMD@PSCALE_TOK?$AA@		; `string'
PUBLIC	??_C@_09GCHEPHN@SCALE_TOK?$AA@			; `string'
PUBLIC	??_C@_0P@KKJKDFFK@KEYLOGFILE_TOK?$AA@		; `string'
PUBLIC	??_C@_0L@ICNCDBPD@KMETIS_TOK?$AA@		; `string'
PUBLIC	??_C@_09PPLGHGMC@METIS_TOK?$AA@			; `string'
PUBLIC	??_C@_0P@IEFCCJPL@BOTTOMINFO_TOK?$AA@		; `string'
PUBLIC	??_C@_08HBBNPNDO@BARE_TOK?$AA@			; `string'
PUBLIC	??_C@_0BD@IOAEMMN@TRANSFORM_EXPR_TOK?$AA@	; `string'
PUBLIC	??_C@_0L@GMKPKOAA@SIZEOF_TOK?$AA@		; `string'
PUBLIC	??_C@_0N@HAMDNMNC@CONTINUE_TOK?$AA@		; `string'
PUBLIC	??_C@_09KKGHPNND@BREAK_TOK?$AA@			; `string'
PUBLIC	??_C@_07LLNFJIGA@AVG_TOK?$AA@			; `string'
PUBLIC	??_C@_07BFDIJHMN@SUM_TOK?$AA@			; `string'
PUBLIC	??_C@_09GAFJMCEH@COUNT_TOK?$AA@			; `string'
PUBLIC	??_C@_07FKODDAMA@MIN_TOK?$AA@			; `string'
PUBLIC	??_C@_07LMIDJPCB@MAX_TOK?$AA@			; `string'
PUBLIC	??_C@_09NKFLHJOO@PRINT_TOK?$AA@			; `string'
PUBLIC	??_C@_0BA@PINCIBFB@NONNEGATIVE_TOK?$AA@		; `string'
PUBLIC	??_C@_0BA@FBPMDEOH@NONPOSITIVE_TOK?$AA@		; `string'
PUBLIC	??_C@_0O@EBENAPNG@ERRPRINTF_TOK?$AA@		; `string'
PUBLIC	??_C@_0L@IHPNBIMI@PRINTF_TOK?$AA@		; `string'
PUBLIC	??_C@_0BE@MONPEINN@TRANSFORM_DEPTH_TOK?$AA@	; `string'
PUBLIC	??_C@_0BA@CODCPDBO@EXTRAPOLATE_TOK?$AA@		; `string'
PUBLIC	??_C@_0O@JOKMLPAE@DIFFUSION_TOK?$AA@		; `string'
PUBLIC	??_C@_0BE@IGIKNCPE@EVOLVER_VERSION_TOK?$AA@	; `string'
PUBLIC	??_C@_0O@CGOONBPK@QUADRATIC_TOK?$AA@		; `string'
PUBLIC	??_C@_0L@GIPFLGKA@LINEAR_TOK?$AA@		; `string'
PUBLIC	??_C@_0P@KLGJOHED@EDGEDIVIDE_TOK?$AA@		; `string'
PUBLIC	??_C@_0M@MMJNIGOJ@GRAVITY_TOK?$AA@		; `string'
PUBLIC	??_C@_0N@IHHPLJIM@EDGEWEED_TOK?$AA@		; `string'
PUBLIC	??_C@_0N@PFGEICLN@AREAWEED_TOK?$AA@		; `string'
PUBLIC	??_C@_0BG@MFDEEJNJ@NO_HESSIAN_NORMAL_TOK?$AA@	; `string'
PUBLIC	??_C@_08CKIPLKK@EXEC_TOK?$AA@			; `string'
PUBLIC	??_C@_0P@NNNEAIAP@EIGENPROBE_TOK?$AA@		; `string'
PUBLIC	??_C@_0M@KLDBABAE@LANCZOS_TOK?$AA@		; `string'
PUBLIC	??_C@_0BB@CEGEBFJP@TRIPLE_POINT_TOK?$AA@	; `string'
PUBLIC	??_C@_0BA@HKAAKKDP@TETRA_POINT_TOK?$AA@		; `string'
PUBLIC	??_C@_0L@JJAEAHIL@SYSTEM_TOK?$AA@		; `string'
PUBLIC	??_C@_07OHFBECOL@POP_TOK?$AA@			; `string'
PUBLIC	??_C@_0BB@EELIJEO@VERTEXNORMAL_TOK?$AA@		; `string'
PUBLIC	??_C@_08EPGBAEMO@MOVE_TOK?$AA@			; `string'
PUBLIC	??_C@_08JPGICBIO@RITZ_TOK?$AA@			; `string'
PUBLIC	??_C@_0O@LFALPICA@ATTRIBUTE_TOK?$AA@		; `string'
PUBLIC	??_C@_09BOMOCDGB@UTEST_TOK?$AA@			; `string'
PUBLIC	??_C@_0N@KGFDFJOF@AUTOCHOP_TOK?$AA@		; `string'
PUBLIC	??_C@_0BC@NHGLDCGL@NORMAL_VECTOR_TOK?$AA@	; `string'
PUBLIC	??_C@_0BB@OFAFBGMM@FLUSH_COUNTS_TOK?$AA@	; `string'
PUBLIC	??_C@_0N@BAJGGNME@DATATYPE_TOK?$AA@		; `string'
PUBLIC	??_C@_09CCLIGMME@UPLUS_TOK?$AA@			; `string'
PUBLIC	??_C@_0L@MMOGECPG@DEFINE_TOK?$AA@		; `string'
PUBLIC	??_C@_0BD@PAJJNGDF@STABILITY_TEST_TOK?$AA@	; `string'
PUBLIC	??_C@_09NPGILKCF@ALICE_TOK?$AA@			; `string'
PUBLIC	??_C@_0BC@JEJAMIBH@QUOTED_LETTER_TOK?$AA@	; `string'
PUBLIC	??_C@_09KHNHEDKI@CHDIR_TOK?$AA@			; `string'
PUBLIC	??_C@_0L@HLFGJCBH@COUNTS_TOK?$AA@		; `string'
PUBLIC	??_C@_0P@HNKHEBON@RAW_VERAVG_TOK?$AA@		; `string'
PUBLIC	??_C@_0BA@IFOCAJLC@LONG_JIGGLE_TOK?$AA@		; `string'
PUBLIC	??_C@_0BC@JLLKBANK@SINGLE_LETTER_TOK?$AA@	; `string'
PUBLIC	??_C@_08PPJJDAML@SELF_TOK?$AA@			; `string'
PUBLIC	??_C@_0N@BIOGPJFD@GEOMPIPE_TOK?$AA@		; `string'
PUBLIC	??_C@_07CNNMFDJ@OFF_TOK?$AA@			; `string'
PUBLIC	??_C@_06HDOFNCNB@ON_TOK?$AA@			; `string'
PUBLIC	??_C@_08JJNFHAAG@ZOOM_TOK?$AA@			; `string'
PUBLIC	??_C@_08MEPNOEED@READ_TOK?$AA@			; `string'
PUBLIC	??_C@_09OLNEEPCL@CHECK_TOK?$AA@			; `string'
PUBLIC	??_C@_0N@OMAHEGJ@SHOW_VOL_TOK?$AA@		; `string'
PUBLIC	??_C@_06ILFGEPBD@GO_TOK?$AA@			; `string'
PUBLIC	??_C@_0BI@JKMHGOPP@VALUE_OF_CONSTRAINT_TOK?$AA@	; `string'
PUBLIC	??_C@_09KKIBAPAO@PAUSE_TOK?$AA@			; `string'
PUBLIC	??_C@_0BC@JFNIDHMD@QUANTITY_NAME_TOK?$AA@	; `string'
PUBLIC	??_C@_0BA@FMGNPKEN@TOGGLEVALUE_TOK?$AA@		; `string'
PUBLIC	??_C@_0P@EGJLJFC@TOGGLENAME_TOK?$AA@		; `string'
PUBLIC	??_C@_09BNMDOPJG@UNFIX_TOK?$AA@			; `string'
PUBLIC	??_C@_07NCAGMNBA@FIX_TOK?$AA@			; `string'
PUBLIC	??_C@_0BA@EJCJPPGH@STRINGARRAY_TOK?$AA@		; `string'
PUBLIC	??_C@_0N@IIAFLKEI@EDGESWAP_TOK?$AA@		; `string'
PUBLIC	??_C@_09GMGGELCL@SHOWQ_TOK?$AA@			; `string'
PUBLIC	??_C@_0L@FCBBOALA@RECALC_TOK?$AA@		; `string'
PUBLIC	??_C@_0L@IKKFEMHO@REFINE_TOK?$AA@		; `string'
PUBLIC	??_C@_0L@MNMJBOKH@DELETE_TOK?$AA@		; `string'
PUBLIC	??_C@_08JNPOOOLJ@SHOW_TOK?$AA@			; `string'
PUBLIC	??_C@_08EMHOHJD@LIST_TOK?$AA@			; `string'
PUBLIC	??_C@_09DODCJILD@WHERE_TOK?$AA@			; `string'
PUBLIC	??_C@_0N@GFOEIJLF@DISSOLVE_TOK?$AA@		; `string'
PUBLIC	??_C@_09COIKBLIF@COORD_TOK?$AA@			; `string'
PUBLIC	??_C@_0P@HHPIFFLE@CONSTRAINT_TOK?$AA@		; `string'
PUBLIC	??_C@_0N@PHNMLNPF@PRESSURE_TOK?$AA@		; `string'
PUBLIC	??_C@_0M@IHFCJLJD@DENSITY_TOK?$AA@		; `string'
PUBLIC	??_C@_09GPLODDDJ@FIXED_TOK?$AA@			; `string'
PUBLIC	??_C@_07FGDPFIFA@SET_TOK?$AA@			; `string'
PUBLIC	??_C@_0M@HBFKECKJ@NO_DUMP_TOK?$AA@		; `string'
PUBLIC	??_C@_0BD@FKFKHOHL@HESSIAN_SADDLE_TOK?$AA@	; `string'
PUBLIC	??_C@_0M@NACPBJAN@VALENCE_TOK?$AA@		; `string'
PUBLIC	??_C@_0M@HEKKEOOI@OPACITY_TOK?$AA@		; `string'
PUBLIC	??_C@_0M@EGGHDCCH@TOPINFO_TOK?$AA@		; `string'
PUBLIC	??_C@_09JJPKHKNG@UNSET_TOK?$AA@			; `string'
PUBLIC	??_C@_0O@HDBHPJOE@QUOTATION_TOK?$AA@		; `string'
PUBLIC	??_C@_08GAFDNJLD@WRAP_TOK?$AA@			; `string'
PUBLIC	??_C@_0P@KOIADPHD@FACETEDGES_TOK?$AA@		; `string'
PUBLIC	??_C@_0N@CJPCEPEG@ORIGINAL_TOK?$AA@		; `string'
PUBLIC	??_C@_07CNPHAFGP@TAG_TOK?$AA@			; `string'
PUBLIC	??_C@_07LJFNBENL@OID_TOK?$AA@			; `string'
PUBLIC	??_C@_06LBKOMEIN@ID_TOK?$AA@			; `string'
PUBLIC	??_C@_0L@KCIMBLFC@VOLUME_TOK?$AA@		; `string'
PUBLIC	??_C@_08IDEMBHGF@AREA_TOK?$AA@			; `string'
PUBLIC	??_C@_0L@KHEHMDMH@LENGTH_TOK?$AA@		; `string'
PUBLIC	??_C@_0L@JNEKLGBN@NORMAL_TOK?$AA@		; `string'
PUBLIC	??_C@_0P@OGKPOJNL@POSTSCRIPT_TOK?$AA@		; `string'
PUBLIC	??_C@_0BB@NAKAMDFM@HESSIAN_MENU_TOK?$AA@	; `string'
PUBLIC	??_C@_0L@MKAPIFIG@BODIES_TOK?$AA@		; `string'
PUBLIC	??_C@_0L@JGHICJEL@FACETS_TOK?$AA@		; `string'
PUBLIC	??_C@_09MOIOHOMJ@EDGES_TOK?$AA@			; `string'
PUBLIC	??_C@_0N@LOGEBPOP@VERTICES_TOK?$AA@		; `string'
PUBLIC	??_C@_0BC@BDOBENHH@TORUS_PERIODS_TOK?$AA@	; `string'
PUBLIC	??_C@_0N@JMLFHHMF@VOLCONST_TOK?$AA@		; `string'
PUBLIC	??_C@_0M@HLDNFNAA@HESSIAN_TOK?$AA@		; `string'
PUBLIC	??_C@_09HDIDAAOO@COLOR_TOK?$AA@			; `string'
PUBLIC	??_C@_09CHDHIOJC@SHELL_TOK?$AA@			; `string'
PUBLIC	??_C@_0L@NFGDPGHD@UMINUS_TOK?$AA@		; `string'
PUBLIC	??_C@_09IJJFPNHI@IDENT_TOK?$AA@			; `string'
PUBLIC	??_C@_0N@LGEOHBPO@FIXEDVOL_TOK?$AA@		; `string'
PUBLIC	??_C@_0BE@HJFGHHDA@EXTRA_ATTRIBUTE_TOK?$AA@	; `string'
PUBLIC	??_C@_09HAEMKIFH@TOTAL_TOK?$AA@			; `string'
PUBLIC	??_C@_0L@CIPOCKCP@SYMBOL_TOK?$AA@		; `string'
PUBLIC	??_C@_09LMFGAJJN@PARAM_TOK?$AA@			; `string'
PUBLIC	??_C@_05MKAHPIFE@G_TOK?$AA@			; `string'
PUBLIC	??_C@_05IHMPFJFP@E_TOK?$AA@			; `string'
PUBLIC	??_C@_06PPHGAOEO@PI_TOK?$AA@			; `string'
PUBLIC	??_C@_0M@FJJGIJFE@LOGFILE_TOK?$AA@		; `string'
PUBLIC	??_C@_0BB@ELDBDBED@DATAFILENAME_TOK?$AA@	; `string'
PUBLIC	??_C@_08PMANPAJL@MIDV_TOK?$AA@			; `string'
PUBLIC	??_C@_0N@OOEDLCO@USERFUNC_TOK?$AA@		; `string'
PUBLIC	??_C@_0BC@NKIAPJMA@IS_CONSTRAINT_TOK?$AA@	; `string'
PUBLIC	??_C@_07PKFEHCFD@POW_TOK?$AA@			; `string'
PUBLIC	??_C@_0O@NGKKCGPK@MATHFUNC2_TOK?$AA@		; `string'
PUBLIC	??_C@_0N@FPDHDHNA@MATHFUNC_TOK?$AA@		; `string'
PUBLIC	??_C@_0N@GJADPHEC@REDEFINE_TOK?$AA@		; `string'
PUBLIC	??_C@_0N@NLEFEGNA@NEWIDENT_TOK?$AA@		; `string'
PUBLIC	??_C@_0BC@IGAGNLAB@SIGNED_NUMBER_TOK?$AA@	; `string'
PUBLIC	??_C@_08CIKOGGCO@REAL_TOK?$AA@			; `string'
PUBLIC	??_C@_0M@GLGOECGI@INTEGER_TOK?$AA@		; `string'
PUBLIC	??_C@_0BB@EAMCGJMI@LEAD_INTEGER_TOK?$AA@	; `string'
PUBLIC	??_C@_0BD@JNHBHIMC@ON_ASSIGN_CALL_TOK?$AA@	; `string'
PUBLIC	??_C@_0BA@DIDJOOKL@VIEW_MATRIX_TOK?$AA@		; `string'
PUBLIC	??_C@_0N@BAAEJACA@GEOMVIEW_TOK?$AA@		; `string'
PUBLIC	??_C@_0M@JLMMBPPJ@HISTORY_TOK?$AA@		; `string'
PUBLIC	??_C@_0BC@CMIMJJFD@COMMAND_START_TOK?$AA@	; `string'
PUBLIC	??_C@_0BF@PNGPAGJP@EXPRESSION_START_TOK?$AA@	; `string'
PUBLIC	??_C@_0L@HFCILFIM@$undefined?$AA@		; `string'
PUBLIC	??_C@_05KKCIMGE@error?$AA@			; `string'
PUBLIC	??_C@_04ECLMMOJO@$end?$AA@			; `string'
PUBLIC	_temp_array_number
_DATA	SEGMENT
COMM	_yydebug:DWORD
COMM	_help_flag:DWORD
_DATA	ENDS
;	COMDAT ??_C@_08JFAFOPOC@bdryname?$AA@
CONST	SEGMENT
??_C@_08JFAFOPOC@bdryname?$AA@ DB 'bdryname', 00H	; `string'
CONST	ENDS
;	COMDAT ??_C@_07HGKEELDD@conname?$AA@
CONST	SEGMENT
??_C@_07HGKEELDD@conname?$AA@ DB 'conname', 00H		; `string'
CONST	ENDS
;	COMDAT ??_C@_0M@HJCKMIEE@unsetattrib?$AA@
CONST	SEGMENT
??_C@_0M@HJCKMIEE@unsetattrib?$AA@ DB 'unsetattrib', 00H ; `string'
CONST	ENDS
;	COMDAT ??_C@_05EPBFLBEJ@unset?$AA@
CONST	SEGMENT
??_C@_05EPBFLBEJ@unset?$AA@ DB 'unset', 00H		; `string'
CONST	ENDS
;	COMDAT ??_C@_0L@LPFMIECM@array_attr?$AA@
CONST	SEGMENT
??_C@_0L@LPFMIECM@array_attr?$AA@ DB 'array_attr', 00H	; `string'
CONST	ENDS
;	COMDAT ??_C@_03MBLDOBKB@?$EA35?$AA@
CONST	SEGMENT
??_C@_03MBLDOBKB@?$EA35?$AA@ DB '@35', 00H		; `string'
CONST	ENDS
;	COMDAT ??_C@_03NIKINAOA@?$EA34?$AA@
CONST	SEGMENT
??_C@_03NIKINAOA@?$EA34?$AA@ DB '@34', 00H		; `string'
CONST	ENDS
;	COMDAT ??_C@_03JHOJEGCH@?$EA33?$AA@
CONST	SEGMENT
??_C@_03JHOJEGCH@?$EA33?$AA@ DB '@33', 00H		; `string'
CONST	ENDS
;	COMDAT ??_C@_03IOPCHHGG@?$EA32?$AA@
CONST	SEGMENT
??_C@_03IOPCHHGG@?$EA32?$AA@ DB '@32', 00H		; `string'
CONST	ENDS
;	COMDAT ??_C@_08BOBFKCGH@assignop?$AA@
CONST	SEGMENT
??_C@_08BOBFKCGH@assignop?$AA@ DB 'assignop', 00H	; `string'
CONST	ENDS
;	COMDAT ??_C@_0L@CEEICBIL@setattribb?$AA@
CONST	SEGMENT
??_C@_0L@CEEICBIL@setattribb?$AA@ DB 'setattribb', 00H	; `string'
CONST	ENDS
;	COMDAT ??_C@_09FPDOCNIH@setattrib?$AA@
CONST	SEGMENT
??_C@_09FPDOCNIH@setattrib?$AA@ DB 'setattrib', 00H	; `string'
CONST	ENDS
;	COMDAT ??_C@_0L@IFOEBJHC@set_attrib?$AA@
CONST	SEGMENT
??_C@_0L@IFOEBJHC@set_attrib?$AA@ DB 'set_attrib', 00H	; `string'
CONST	ENDS
;	COMDAT ??_C@_03KCHOJKKI@set?$AA@
CONST	SEGMENT
??_C@_03KCHOJKKI@set?$AA@ DB 'set', 00H			; `string'
CONST	ENDS
;	COMDAT ??_C@_03KFNPCEKF@?$EA31?$AA@
CONST	SEGMENT
??_C@_03KFNPCEKF@?$EA31?$AA@ DB '@31', 00H		; `string'
CONST	ENDS
;	COMDAT ??_C@_03LMMEBFOE@?$EA30?$AA@
CONST	SEGMENT
??_C@_03LMMEBFOE@?$EA30?$AA@ DB '@30', 00H		; `string'
CONST	ENDS
;	COMDAT ??_C@_03GMMEMEJK@?$EA29?$AA@
CONST	SEGMENT
??_C@_03GMMEMEJK@?$EA29?$AA@ DB '@29', 00H		; `string'
CONST	ENDS
;	COMDAT ??_C@_03HFNPPFNL@?$EA28?$AA@
CONST	SEGMENT
??_C@_03HFNPPFNL@?$EA28?$AA@ DB '@28', 00H		; `string'
CONST	ENDS
;	COMDAT ??_C@_03PCEHOJBE@?$EA27?$AA@
CONST	SEGMENT
??_C@_03PCEHOJBE@?$EA27?$AA@ DB '@27', 00H		; `string'
CONST	ENDS
;	COMDAT ??_C@_0M@MLKHEMKL@foreachhead?$AA@
CONST	SEGMENT
??_C@_0M@MLKHEMKL@foreachhead?$AA@ DB 'foreachhead', 00H ; `string'
CONST	ENDS
;	COMDAT ??_C@_09LLMBGFJN@histotype?$AA@
CONST	SEGMENT
??_C@_09LLMBGFJN@histotype?$AA@ DB 'histotype', 00H	; `string'
CONST	ENDS
;	COMDAT ??_C@_09EIIGLG@aggregate?$AA@
CONST	SEGMENT
??_C@_09EIIGLG@aggregate?$AA@ DB 'aggregate', 00H	; `string'
CONST	ENDS
;	COMDAT ??_C@_03OLFMNIFF@?$EA26?$AA@
CONST	SEGMENT
??_C@_03OLFMNIFF@?$EA26?$AA@ DB '@26', 00H		; `string'
CONST	ENDS
;	COMDAT ??_C@_03MAHBILJG@?$EA25?$AA@
CONST	SEGMENT
??_C@_03MAHBILJG@?$EA25?$AA@ DB '@25', 00H		; `string'
CONST	ENDS
;	COMDAT ??_C@_0M@PHHGPIHH@signed_expr?$AA@
CONST	SEGMENT
??_C@_0M@PHHGPIHH@signed_expr?$AA@ DB 'signed_expr', 00H ; `string'
CONST	ENDS
;	COMDAT ??_C@_0L@GBLBEEOE@fullattrib?$AA@
CONST	SEGMENT
??_C@_0L@GBLBEEOE@fullattrib?$AA@ DB 'fullattrib', 00H	; `string'
CONST	ENDS
;	COMDAT ??_C@_0L@IAJJFGDE@ggetattrib?$AA@
CONST	SEGMENT
??_C@_0L@IAJJFGDE@ggetattrib?$AA@ DB 'ggetattrib', 00H	; `string'
CONST	ENDS
;	COMDAT ??_C@_09HBHLAMBF@getattrib?$AA@
CONST	SEGMENT
??_C@_09HBHLAMBF@getattrib?$AA@ DB 'getattrib', 00H	; `string'
CONST	ENDS
;	COMDAT ??_C@_0M@MFHFMEMC@sprintfhead?$AA@
CONST	SEGMENT
??_C@_0M@MFHFMEMC@sprintfhead?$AA@ DB 'sprintfhead', 00H ; `string'
CONST	ENDS
;	COMDAT ??_C@_0L@GFDCAEPA@stringexpr?$AA@
CONST	SEGMENT
??_C@_0L@GFDCAEPA@stringexpr?$AA@ DB 'stringexpr', 00H	; `string'
CONST	ENDS
;	COMDAT ??_C@_0BB@DMJIENMC@quotation_concat?$AA@
CONST	SEGMENT
??_C@_0BB@DMJIENMC@quotation_concat?$AA@ DB 'quotation_concat', 00H ; `string'
CONST	ENDS
;	COMDAT ??_C@_06FHLCKAHH@toggle?$AA@
CONST	SEGMENT
??_C@_06FHLCKAHH@toggle?$AA@ DB 'toggle', 00H		; `string'
CONST	ENDS
;	COMDAT ??_C@_0M@IOBGIBEC@element_gen?$AA@
CONST	SEGMENT
??_C@_0M@IOBGIBEC@element_gen?$AA@ DB 'element_gen', 00H ; `string'
CONST	ENDS
;	COMDAT ??_C@_07KPBDECCC@singlep?$AA@
CONST	SEGMENT
??_C@_07KPBDECCC@singlep?$AA@ DB 'singlep', 00H		; `string'
CONST	ENDS
;	COMDAT ??_C@_06EJFMBPJF@single?$AA@
CONST	SEGMENT
??_C@_06EJFMBPJF@single?$AA@ DB 'single', 00H		; `string'
CONST	ENDS
;	COMDAT ??_C@_08CKJFGDBG@multiple?$AA@
CONST	SEGMENT
??_C@_08CKJFGDBG@multiple?$AA@ DB 'multiple', 00H	; `string'
CONST	ENDS
;	COMDAT ??_C@_06JCDFNCEJ@eltype?$AA@
CONST	SEGMENT
??_C@_06JCDFNCEJ@eltype?$AA@ DB 'eltype', 00H		; `string'
CONST	ENDS
;	COMDAT ??_C@_04EDAJKPKH@verb?$AA@
CONST	SEGMENT
??_C@_04EDAJKPKH@verb?$AA@ DB 'verb', 00H		; `string'
CONST	ENDS
;	COMDAT ??_C@_07FKIHKFAH@elindex?$AA@
CONST	SEGMENT
??_C@_07FKIHKFAH@elindex?$AA@ DB 'elindex', 00H		; `string'
CONST	ENDS
;	COMDAT ??_C@_03NJGKLKNH@?$EA24?$AA@
CONST	SEGMENT
??_C@_03NJGKLKNH@?$EA24?$AA@ DB '@24', 00H		; `string'
CONST	ENDS
;	COMDAT ??_C@_09IMNBGAIE@backquote?$AA@
CONST	SEGMENT
??_C@_09IMNBGAIE@backquote?$AA@ DB 'backquote', 00H	; `string'
CONST	ENDS
;	COMDAT ??_C@_05IJDJACGD@print?$AA@
CONST	SEGMENT
??_C@_05IJDJACGD@print?$AA@ DB 'print', 00H		; `string'
CONST	ENDS
;	COMDAT ??_C@_03JGCLCMBA@?$EA23?$AA@
CONST	SEGMENT
??_C@_03JGCLCMBA@?$EA23?$AA@ DB '@23', 00H		; `string'
CONST	ENDS
;	COMDAT ??_C@_0O@CGGIBPIO@errprintfhead?$AA@
CONST	SEGMENT
??_C@_0O@CGGIBPIO@errprintfhead?$AA@ DB 'errprintfhead', 00H ; `string'
CONST	ENDS
;	COMDAT ??_C@_0BB@LKKMKFOH@binaryprintfhead?$AA@
CONST	SEGMENT
??_C@_0BB@LKKMKFOH@binaryprintfhead?$AA@ DB 'binaryprintfhead', 00H ; `string'
CONST	ENDS
;	COMDAT ??_C@_0L@IGPDOAEF@printfhead?$AA@
CONST	SEGMENT
??_C@_0L@IGPDOAEF@printfhead?$AA@ DB 'printfhead', 00H	; `string'
CONST	ENDS
;	COMDAT ??_C@_08NNDNJBEA@exprlist?$AA@
CONST	SEGMENT
??_C@_08NNDNJBEA@exprlist?$AA@ DB 'exprlist', 00H	; `string'
CONST	ENDS
;	COMDAT ??_C@_03IPDABNFB@?$EA22?$AA@
CONST	SEGMENT
??_C@_03IPDABNFB@?$EA22?$AA@ DB '@22', 00H		; `string'
CONST	ENDS
;	COMDAT ??_C@_03KEBNEOJC@?$EA21?$AA@
CONST	SEGMENT
??_C@_03KEBNEOJC@?$EA21?$AA@ DB '@21', 00H		; `string'
CONST	ENDS
;	COMDAT ??_C@_03LNAGHPND@?$EA20?$AA@
CONST	SEGMENT
??_C@_03LNAGHPND@?$EA20?$AA@ DB '@20', 00H		; `string'
CONST	ENDS
;	COMDAT ??_C@_07HNDCJMNA@localid?$AA@
CONST	SEGMENT
??_C@_07HNDCJMNA@localid?$AA@ DB 'localid', 00H		; `string'
CONST	ENDS
;	COMDAT ??_C@_0M@BGJBOJMD@localidlist?$AA@
CONST	SEGMENT
??_C@_0M@BGJBOJMD@localidlist?$AA@ DB 'localidlist', 00H ; `string'
CONST	ENDS
;	COMDAT ??_C@_03GOICHKMD@?$EA19?$AA@
CONST	SEGMENT
??_C@_03GOICHKMD@?$EA19?$AA@ DB '@19', 00H		; `string'
CONST	ENDS
;	COMDAT ??_C@_03HHJJELIC@?$EA18?$AA@
CONST	SEGMENT
??_C@_03HHJJELIC@?$EA18?$AA@ DB '@18', 00H		; `string'
CONST	ENDS
;	COMDAT ??_C@_03PAABFHEN@?$EA17?$AA@
CONST	SEGMENT
??_C@_03PAABFHEN@?$EA17?$AA@ DB '@17', 00H		; `string'
CONST	ENDS
;	COMDAT ??_C@_03OJBKGGAM@?$EA16?$AA@
CONST	SEGMENT
??_C@_03OJBKGGAM@?$EA16?$AA@ DB '@16', 00H		; `string'
CONST	ENDS
;	COMDAT ??_C@_03MCDHDFMP@?$EA15?$AA@
CONST	SEGMENT
??_C@_03MCDHDFMP@?$EA15?$AA@ DB '@15', 00H		; `string'
CONST	ENDS
;	COMDAT ??_C@_03NLCMAEIO@?$EA14?$AA@
CONST	SEGMENT
??_C@_03NLCMAEIO@?$EA14?$AA@ DB '@14', 00H		; `string'
CONST	ENDS
;	COMDAT ??_C@_0P@FEFPNHMH@new_permlvalue?$AA@
CONST	SEGMENT
??_C@_0P@FEFPNHMH@new_permlvalue?$AA@ DB 'new_permlvalue', 00H ; `string'
CONST	ENDS
;	COMDAT ??_C@_09GNEFBEHK@newlvalue?$AA@
CONST	SEGMENT
??_C@_09GNEFBEHK@newlvalue?$AA@ DB 'newlvalue', 00H	; `string'
CONST	ENDS
;	COMDAT ??_C@_03JEGNJCEJ@?$EA13?$AA@
CONST	SEGMENT
??_C@_03JEGNJCEJ@?$EA13?$AA@ DB '@13', 00H		; `string'
CONST	ENDS
;	COMDAT ??_C@_03INHGKDAI@?$EA12?$AA@
CONST	SEGMENT
??_C@_03INHGKDAI@?$EA12?$AA@ DB '@12', 00H		; `string'
CONST	ENDS
;	COMDAT ??_C@_08DGEBAIAN@defextra?$AA@
CONST	SEGMENT
??_C@_08DGEBAIAN@defextra?$AA@ DB 'defextra', 00H	; `string'
CONST	ENDS
;	COMDAT ??_C@_07EPCMGBPO@extraat?$AA@
CONST	SEGMENT
??_C@_07EPCMGBPO@extraat?$AA@ DB 'extraat', 00H		; `string'
CONST	ENDS
;	COMDAT ??_C@_09BEJENGBP@arraylist?$AA@
CONST	SEGMENT
??_C@_09BEJENGBP@arraylist?$AA@ DB 'arraylist', 00H	; `string'
CONST	ENDS
;	COMDAT ??_C@_0L@LMDBCDGA@arrayrexpr?$AA@
CONST	SEGMENT
??_C@_0L@LMDBCDGA@arrayrexpr?$AA@ DB 'arrayrexpr', 00H	; `string'
CONST	ENDS
;	COMDAT ??_C@_0BE@HIDHLDKA@arraylvalueindexset?$AA@
CONST	SEGMENT
??_C@_0BE@HIDHLDKA@arraylvalueindexset?$AA@ DB 'arraylvalueindexset', 00H ; `string'
CONST	ENDS
;	COMDAT ??_C@_0M@JFFHFDGO@arraylvalue?$AA@
CONST	SEGMENT
??_C@_0M@JFFHFDGO@arraylvalue?$AA@ DB 'arraylvalue', 00H ; `string'
CONST	ENDS
;	COMDAT ??_C@_09PAAPBJEP@arraydecl?$AA@
CONST	SEGMENT
??_C@_09PAAPBJEP@arraydecl?$AA@ DB 'arraydecl', 00H	; `string'
CONST	ENDS
;	COMDAT ??_C@_0N@CMIBEALM@dimensionset?$AA@
CONST	SEGMENT
??_C@_0N@CMIBEALM@dimensionset?$AA@ DB 'dimensionset', 00H ; `string'
CONST	ENDS
;	COMDAT ??_C@_08LOPAIJHN@indexset?$AA@
CONST	SEGMENT
??_C@_08LOPAIJHN@indexset?$AA@ DB 'indexset', 00H	; `string'
CONST	ENDS
;	COMDAT ??_C@_03KGFLPAML@?$EA11?$AA@
CONST	SEGMENT
??_C@_03KGFLPAML@?$EA11?$AA@ DB '@11', 00H		; `string'
CONST	ENDS
;	COMDAT ??_C@_03LPEAMBIK@?$EA10?$AA@
CONST	SEGMENT
??_C@_03LPEAMBIK@?$EA10?$AA@ DB '@10', 00H		; `string'
CONST	ENDS
;	COMDAT ??_C@_0O@IBFBLOKK@procedurename?$AA@
CONST	SEGMENT
??_C@_0O@IBFBLOKK@procedurename?$AA@ DB 'procedurename', 00H ; `string'
CONST	ENDS
;	COMDAT ??_C@_02HOKACGJH@?$EA9?$AA@
CONST	SEGMENT
??_C@_02HOKACGJH@?$EA9?$AA@ DB '@9', 00H		; `string'
CONST	ENDS
;	COMDAT ??_C@_02GHLLBHNG@?$EA8?$AA@
CONST	SEGMENT
??_C@_02GHLLBHNG@?$EA8?$AA@ DB '@8', 00H		; `string'
CONST	ENDS
;	COMDAT ??_C@_0N@KPAKNOD@functionname?$AA@
CONST	SEGMENT
??_C@_0N@KPAKNOD@functionname?$AA@ DB 'functionname', 00H ; `string'
CONST	ENDS
;	COMDAT ??_C@_09ONLDGANJ@protobody?$AA@
CONST	SEGMENT
??_C@_09ONLDGANJ@protobody?$AA@ DB 'protobody', 00H	; `string'
CONST	ENDS
;	COMDAT ??_C@_0N@INMLDOPG@argliststart?$AA@
CONST	SEGMENT
??_C@_0N@INMLDOPG@argliststart?$AA@ DB 'argliststart', 00H ; `string'
CONST	ENDS
;	COMDAT ??_C@_07OPJCDGGN@arglist?$AA@
CONST	SEGMENT
??_C@_07OPJCDGGN@arglist?$AA@ DB 'arglist', 00H		; `string'
CONST	ENDS
;	COMDAT ??_C@_08LECBEIMG@argident?$AA@
CONST	SEGMENT
??_C@_08LECBEIMG@argident?$AA@ DB 'argident', 00H	; `string'
CONST	ENDS
;	COMDAT ??_C@_08IJKJONLA@datatype?$AA@
CONST	SEGMENT
??_C@_08IJKJONLA@datatype?$AA@ DB 'datatype', 00H	; `string'
CONST	ENDS
;	COMDAT ??_C@_05LOHGPBPM@rexpr?$AA@
CONST	SEGMENT
??_C@_05LOHGPBPM@rexpr?$AA@ DB 'rexpr', 00H		; `string'
CONST	ENDS
;	COMDAT ??_C@_06GMOMMLND@lvalue?$AA@
CONST	SEGMENT
??_C@_06GMOMMLND@lvalue?$AA@ DB 'lvalue', 00H		; `string'
CONST	ENDS
;	COMDAT ??_C@_0L@DEIMIIAN@elidassign?$AA@
CONST	SEGMENT
??_C@_0L@DEIMIIAN@elidassign?$AA@ DB 'elidassign', 00H	; `string'
CONST	ENDS
;	COMDAT ??_C@_0BA@MPALAJHM@permidentassign?$AA@
CONST	SEGMENT
??_C@_0BA@MPALAJHM@permidentassign?$AA@ DB 'permidentassign', 00H ; `string'
CONST	ENDS
;	COMDAT ??_C@_0M@LEGEABPP@identassign?$AA@
CONST	SEGMENT
??_C@_0M@LEGEABPP@identassign?$AA@ DB 'identassign', 00H ; `string'
CONST	ENDS
;	COMDAT ??_C@_02OACDALBJ@?$EA7?$AA@
CONST	SEGMENT
??_C@_02OACDALBJ@?$EA7?$AA@ DB '@7', 00H		; `string'
CONST	ENDS
;	COMDAT ??_C@_02PJDIDKFI@?$EA6?$AA@
CONST	SEGMENT
??_C@_02PJDIDKFI@?$EA6?$AA@ DB '@6', 00H		; `string'
CONST	ENDS
;	COMDAT ??_C@_06KFEFOKAJ@estart?$AA@
CONST	SEGMENT
??_C@_06KFEFOKAJ@estart?$AA@ DB 'estart', 00H		; `string'
CONST	ENDS
;	COMDAT ??_C@_0BC@DHMBNGHN@single_letter_cmd?$AA@
CONST	SEGMENT
??_C@_0BC@DHMBNGHN@single_letter_cmd?$AA@ DB 'single_letter_cmd', 00H ; `string'
CONST	ENDS
;	COMDAT ??_C@_06HIKMJFFO@fortop?$AA@
CONST	SEGMENT
??_C@_06HIKMJFFO@fortop?$AA@ DB 'fortop', 00H		; `string'
CONST	ENDS
;	COMDAT ??_C@_07FKHDCNGF@forhead?$AA@
CONST	SEGMENT
??_C@_07FKHDCNGF@forhead?$AA@ DB 'forhead', 00H		; `string'
CONST	ENDS
;	COMDAT ??_C@_08HHFNHOOF@forentry?$AA@
CONST	SEGMENT
??_C@_08HHFNHOOF@forentry?$AA@ DB 'forentry', 00H	; `string'
CONST	ENDS
;	COMDAT ??_C@_02NCBFGJJL@?$EA5?$AA@
CONST	SEGMENT
??_C@_02NCBFGJJL@?$EA5?$AA@ DB '@5', 00H		; `string'
CONST	ENDS
;	COMDAT ??_C@_06JPGMBPB@dohead?$AA@
CONST	SEGMENT
??_C@_06JPGMBPB@dohead?$AA@ DB 'dohead', 00H		; `string'
CONST	ENDS
;	COMDAT ??_C@_02MLAOFINK@?$EA4?$AA@
CONST	SEGMENT
??_C@_02MLAOFINK@?$EA4?$AA@ DB '@4', 00H		; `string'
CONST	ENDS
;	COMDAT ??_C@_09NJOOBNDF@whilehead?$AA@
CONST	SEGMENT
??_C@_09NJOOBNDF@whilehead?$AA@ DB 'whilehead', 00H	; `string'
CONST	ENDS
;	COMDAT ??_C@_02IEEPMOBN@?$EA3?$AA@
CONST	SEGMENT
??_C@_02IEEPMOBN@?$EA3?$AA@ DB '@3', 00H		; `string'
CONST	ENDS
;	COMDAT ??_C@_06EPCOPBPJ@ifhead?$AA@
CONST	SEGMENT
??_C@_06EPCOPBPJ@ifhead?$AA@ DB 'ifhead', 00H		; `string'
CONST	ENDS
;	COMDAT ??_C@_0BA@LBJGNDAL@commandlistterm?$AA@
CONST	SEGMENT
??_C@_0BA@LBJGNDAL@commandlistterm?$AA@ DB 'commandlistterm', 00H ; `string'
CONST	ENDS
;	COMDAT ??_C@_0M@MCFKJOEK@commandlist?$AA@
CONST	SEGMENT
??_C@_0M@MCFKJOEK@commandlist?$AA@ DB 'commandlist', 00H ; `string'
CONST	ENDS
;	COMDAT ??_C@_0M@ECNODOJO@commandterm?$AA@
CONST	SEGMENT
??_C@_0M@ECNODOJO@commandterm?$AA@ DB 'commandterm', 00H ; `string'
CONST	ENDS
;	COMDAT ??_C@_0N@ELFDIHLE@commandsemic?$AA@
CONST	SEGMENT
??_C@_0N@ELFDIHLE@commandsemic?$AA@ DB 'commandsemic', 00H ; `string'
CONST	ENDS
;	COMDAT ??_C@_0L@LIJODAAG@onecommand?$AA@
CONST	SEGMENT
??_C@_0L@LIJODAAG@onecommand?$AA@ DB 'onecommand', 00H	; `string'
CONST	ENDS
;	COMDAT ??_C@_02JNFEPPFM@?$EA2?$AA@
CONST	SEGMENT
??_C@_02JNFEPPFM@?$EA2?$AA@ DB '@2', 00H		; `string'
CONST	ENDS
;	COMDAT ??_C@_0N@OBIOPDKO@commandblock?$AA@
CONST	SEGMENT
??_C@_0N@OBIOPDKO@commandblock?$AA@ DB 'commandblock', 00H ; `string'
CONST	ENDS
;	COMDAT ??_C@_08BPLPECIC@commands?$AA@
CONST	SEGMENT
??_C@_08BPLPECIC@commands?$AA@ DB 'commands', 00H	; `string'
CONST	ENDS
;	COMDAT ??_C@_08KMFPLNMN@vcommand?$AA@
CONST	SEGMENT
??_C@_08KMFPLNMN@vcommand?$AA@ DB 'vcommand', 00H	; `string'
CONST	ENDS
;	COMDAT ??_C@_07KMMNMMFF@command?$AA@
CONST	SEGMENT
??_C@_07KMMNMMFF@command?$AA@ DB 'command', 00H		; `string'
CONST	ENDS
;	COMDAT ??_C@_0M@IFHNINHJ@commandline?$AA@
CONST	SEGMENT
??_C@_0M@IFHNINHJ@commandline?$AA@ DB 'commandline', 00H ; `string'
CONST	ENDS
;	COMDAT ??_C@_02LGHJKMJP@?$EA1?$AA@
CONST	SEGMENT
??_C@_02LGHJKMJP@?$EA1?$AA@ DB '@1', 00H		; `string'
CONST	ENDS
;	COMDAT ??_C@_05MLFKBFFK@whole?$AA@
CONST	SEGMENT
??_C@_05MLFKBFFK@whole?$AA@ DB 'whole', 00H		; `string'
CONST	ENDS
;	COMDAT ??_C@_07IJIIKIJB@$accept?$AA@
CONST	SEGMENT
??_C@_07IJIIKIJB@$accept?$AA@ DB '$accept', 00H		; `string'
CONST	ENDS
;	COMDAT ??_C@_03EJABIIMB@?8?$EA?8?$AA@
CONST	SEGMENT
??_C@_03EJABIIMB@?8?$EA?8?$AA@ DB '''@''', 00H		; `string'
CONST	ENDS
;	COMDAT ??_C@_0L@PFEJBFNJ@EPRINT_TOK?$AA@
CONST	SEGMENT
??_C@_0L@PFEJBFNJ@EPRINT_TOK?$AA@ DB 'EPRINT_TOK', 00H	; `string'
CONST	ENDS
;	COMDAT ??_C@_0O@MCJACOFD@INCREMENT_TOK?$AA@
CONST	SEGMENT
??_C@_0O@MCJACOFD@INCREMENT_TOK?$AA@ DB 'INCREMENT_TOK', 00H ; `string'
CONST	ENDS
;	COMDAT ??_C@_03FPLJAGLL@?8?$FO?8?$AA@
CONST	SEGMENT
??_C@_03FPLJAGLL@?8?$FO?8?$AA@ DB '''^''', 00H		; `string'
CONST	ENDS
;	COMDAT ??_C@_08FLDDNFIG@IDIV_TOK?$AA@
CONST	SEGMENT
??_C@_08FLDDNFIG@IDIV_TOK?$AA@ DB 'IDIV_TOK', 00H	; `string'
CONST	ENDS
;	COMDAT ??_C@_07IEDBDPCM@DOT_TOK?$AA@
CONST	SEGMENT
??_C@_07IEDBDPCM@DOT_TOK?$AA@ DB 'DOT_TOK', 00H		; `string'
CONST	ENDS
;	COMDAT ??_C@_03KIKAENM@?8?1?8?$AA@
CONST	SEGMENT
??_C@_03KIKAENM@?8?1?8?$AA@ DB '''/''', 00H		; `string'
CONST	ENDS
;	COMDAT ??_C@_03MEBMGDH@?8?$CK?8?$AA@
CONST	SEGMENT
??_C@_03MEBMGDH@?8?$CK?8?$AA@ DB '''*''', 00H		; `string'
CONST	ENDS
;	COMDAT ??_C@_08GJLCFIAH@IMOD_TOK?$AA@
CONST	SEGMENT
??_C@_08GJLCFIAH@IMOD_TOK?$AA@ DB 'IMOD_TOK', 00H	; `string'
CONST	ENDS
;	COMDAT ??_C@_03HBNIBAK@?8?$CF?8?$AA@
CONST	SEGMENT
??_C@_03HBNIBAK@?8?$CF?8?$AA@ DB '''%''', 00H		; `string'
CONST	ENDS
;	COMDAT ??_C@_03JAONALC@?8?9?8?$AA@
CONST	SEGMENT
??_C@_03JAONALC@?8?9?8?$AA@ DB '''-''', 00H		; `string'
CONST	ENDS
;	COMDAT ??_C@_03NIDKMAA@?8?$CL?8?$AA@
CONST	SEGMENT
??_C@_03NIDKMAA@?8?$CL?8?$AA@ DB '''+''', 00H		; `string'
CONST	ENDS
;	COMDAT ??_C@_0BH@LCAILNDJ@ON_METHOD_INSTANCE_TOK?$AA@
CONST	SEGMENT
??_C@_0BH@LCAILNDJ@ON_METHOD_INSTANCE_TOK?$AA@ DB 'ON_METHOD_INSTANCE_TOK'
	DB	00H						; `string'
CONST	ENDS
;	COMDAT ??_C@_0BA@HBKGMKCG@ON_QUANTITY_TOK?$AA@
CONST	SEGMENT
??_C@_0BA@HBKGMKCG@ON_QUANTITY_TOK?$AA@ DB 'ON_QUANTITY_TOK', 00H ; `string'
CONST	ENDS
;	COMDAT ??_C@_0BA@JMJONOBI@ON_BOUNDARY_TOK?$AA@
CONST	SEGMENT
??_C@_0BA@JMJONOBI@ON_BOUNDARY_TOK?$AA@ DB 'ON_BOUNDARY_TOK', 00H ; `string'
CONST	ENDS
;	COMDAT ??_C@_0BD@DKIHCAE@HIT_CONSTRAINT_TOK?$AA@
CONST	SEGMENT
??_C@_0BD@DKIHCAE@HIT_CONSTRAINT_TOK?$AA@ DB 'HIT_CONSTRAINT_TOK', 00H ; `string'
CONST	ENDS
;	COMDAT ??_C@_0BC@NBBDHPCK@ON_CONSTRAINT_TOK?$AA@
CONST	SEGMENT
??_C@_0BC@NBBDHPCK@ON_CONSTRAINT_TOK?$AA@ DB 'ON_CONSTRAINT_TOK', 00H ; `string'
CONST	ENDS
;	COMDAT ??_C@_06CFBFDNNB@EQ_TOK?$AA@
CONST	SEGMENT
??_C@_06CFBFDNNB@EQ_TOK?$AA@ DB 'EQ_TOK', 00H		; `string'
CONST	ENDS
;	COMDAT ??_C@_06CIMKDIIP@LE_TOK?$AA@
CONST	SEGMENT
??_C@_06CIMKDIIP@LE_TOK?$AA@ DB 'LE_TOK', 00H		; `string'
CONST	ENDS
;	COMDAT ??_C@_06CKMNGMHF@GE_TOK?$AA@
CONST	SEGMENT
??_C@_06CKMNGMHF@GE_TOK?$AA@ DB 'GE_TOK', 00H		; `string'
CONST	ENDS
;	COMDAT ??_C@_06LPFFCJKG@NE_TOK?$AA@
CONST	SEGMENT
??_C@_06LPFFCJKG@NE_TOK?$AA@ DB 'NE_TOK', 00H		; `string'
CONST	ENDS
;	COMDAT ??_C@_03BEOKBJPF@?8?$DM?8?$AA@
CONST	SEGMENT
??_C@_03BEOKBJPF@?8?$DM?8?$AA@ DB '''<''', 00H		; `string'
CONST	ENDS
;	COMDAT ??_C@_03BHGOMNJL@?8?$DO?8?$AA@
CONST	SEGMENT
??_C@_03BHGOMNJL@?8?$DO?8?$AA@ DB '''>''', 00H		; `string'
CONST	ENDS
;	COMDAT ??_C@_07BFPBCDOE@NOT_TOK?$AA@
CONST	SEGMENT
??_C@_07BFPBCDOE@NOT_TOK?$AA@ DB 'NOT_TOK', 00H		; `string'
CONST	ENDS
;	COMDAT ??_C@_07GJHADIGH@AND_TOK?$AA@
CONST	SEGMENT
??_C@_07GJHADIGH@AND_TOK?$AA@ DB 'AND_TOK', 00H		; `string'
CONST	ENDS
;	COMDAT ??_C@_06HPBBADB@OR_TOK?$AA@
CONST	SEGMENT
??_C@_06HPBBADB@OR_TOK?$AA@ DB 'OR_TOK', 00H		; `string'
CONST	ENDS
;	COMDAT ??_C@_03BAGHGFEH@?8?3?8?$AA@
CONST	SEGMENT
??_C@_03BAGHGFEH@?8?3?8?$AA@ DB ''':''', 00H		; `string'
CONST	ENDS
;	COMDAT ??_C@_03BGKMKHKM@?8?$DP?8?$AA@
CONST	SEGMENT
??_C@_03BGKMKHKM@?8?$DP?8?$AA@ DB '''?''', 00H		; `string'
CONST	ENDS
;	COMDAT ??_C@_03BFCIHDMC@?8?$DN?8?$AA@
CONST	SEGMENT
??_C@_03BFCIHDMC@?8?$DN?8?$AA@ DB '''=''', 00H		; `string'
CONST	ENDS
;	COMDAT ??_C@_08CIAOIOJC@ELSE_TOK?$AA@
CONST	SEGMENT
??_C@_08CIAOIOJC@ELSE_TOK?$AA@ DB 'ELSE_TOK', 00H	; `string'
CONST	ENDS
;	COMDAT ??_C@_08HJDGIPGN@THEN_TOK?$AA@
CONST	SEGMENT
??_C@_08HJDGIPGN@THEN_TOK?$AA@ DB 'THEN_TOK', 00H	; `string'
CONST	ENDS
;	COMDAT ??_C@_08LHFBJNFF@PIPE_TOK?$AA@
CONST	SEGMENT
??_C@_08LHFBJNFF@PIPE_TOK?$AA@ DB 'PIPE_TOK', 00H	; `string'
CONST	ENDS
;	COMDAT ??_C@_0N@PGMIMBEK@ASSIGNOP_TOK?$AA@
CONST	SEGMENT
??_C@_0N@PGMIMBEK@ASSIGNOP_TOK?$AA@ DB 'ASSIGNOP_TOK', 00H ; `string'
CONST	ENDS
;	COMDAT ??_C@_03HBEMMOCB@?8?$GA?8?$AA@
CONST	SEGMENT
??_C@_03HBEMMOCB@?8?$GA?8?$AA@ DB '''`''', 00H		; `string'
CONST	ENDS
;	COMDAT ??_C@_03OAHHIGO@?8?$CJ?8?$AA@
CONST	SEGMENT
??_C@_03OAHHIGO@?8?$CJ?8?$AA@ DB ''')''', 00H		; `string'
CONST	ENDS
;	COMDAT ??_C@_03PMFBCFJ@?8?$CI?8?$AA@
CONST	SEGMENT
??_C@_03PMFBCFJ@?8?$CI?8?$AA@ DB '''(''', 00H		; `string'
CONST	ENDS
;	COMDAT ??_C@_03GFLCPOAC@?8?$HN?8?$AA@
CONST	SEGMENT
??_C@_03GFLCPOAC@?8?$HN?8?$AA@ DB '''}''', 00H		; `string'
CONST	ENDS
;	COMDAT ??_C@_03GBDPICLA@?8?$HL?8?$AA@
CONST	SEGMENT
??_C@_03GBDPICLA@?8?$HL?8?$AA@ DB '''{''', 00H		; `string'
CONST	ENDS
;	COMDAT ??_C@_03FNPPLIOC@?8?$FN?8?$AA@
CONST	SEGMENT
??_C@_03FNPPLIOC@?8?$FN?8?$AA@ DB ''']''', 00H		; `string'
CONST	ENDS
;	COMDAT ??_C@_03FJHCMEFA@?8?$FL?8?$AA@
CONST	SEGMENT
??_C@_03FJHCMEFA@?8?$FL?8?$AA@ DB '''[''', 00H		; `string'
CONST	ENDS
;	COMDAT ??_C@_03BBKFAPHA@?8?$DL?8?$AA@
CONST	SEGMENT
??_C@_03BBKFAPHA@?8?$DL?8?$AA@ DB ''';''', 00H		; `string'
CONST	ENDS
;	COMDAT ??_C@_03LEIGOOL@?8?4?8?$AA@
CONST	SEGMENT
??_C@_03LEIGOOL@?8?4?8?$AA@ DB '''.''', 00H		; `string'
CONST	ENDS
;	COMDAT ??_C@_03IMMLKIF@?8?0?8?$AA@
CONST	SEGMENT
??_C@_03IMMLKIF@?8?0?8?$AA@ DB ''',''', 00H		; `string'
CONST	ENDS
;	COMDAT ??_C@_0BG@MLIGLOGC@MAKE_THREAD_LISTS_TOK?$AA@
CONST	SEGMENT
??_C@_0BG@MLIGLOGC@MAKE_THREAD_LISTS_TOK?$AA@ DB 'MAKE_THREAD_LISTS_TOK', 00H ; `string'
CONST	ENDS
;	COMDAT ??_C@_0M@NLBHDOHI@DETORUS_TOK?$AA@
CONST	SEGMENT
??_C@_0M@NLBHDOHI@DETORUS_TOK?$AA@ DB 'DETORUS_TOK', 00H ; `string'
CONST	ENDS
;	COMDAT ??_C@_0O@OAEGJJCB@PROFILING_TOK?$AA@
CONST	SEGMENT
??_C@_0O@OAEGJJCB@PROFILING_TOK?$AA@ DB 'PROFILING_TOK', 00H ; `string'
CONST	ENDS
;	COMDAT ??_C@_0BE@JFCNFILA@ARRAY_ATTRIBUTE_TOK?$AA@
CONST	SEGMENT
??_C@_0BE@JFCNFILA@ARRAY_ATTRIBUTE_TOK?$AA@ DB 'ARRAY_ATTRIBUTE_TOK', 00H ; `string'
CONST	ENDS
;	COMDAT ??_C@_0BD@MAKEFPMF@VALID_BOUNDARY_TOK?$AA@
CONST	SEGMENT
??_C@_0BD@MAKEFPMF@VALID_BOUNDARY_TOK?$AA@ DB 'VALID_BOUNDARY_TOK', 00H ; `string'
CONST	ENDS
;	COMDAT ??_C@_0BF@HPDKCLPE@VALID_CONSTRAINT_TOK?$AA@
CONST	SEGMENT
??_C@_0BF@HPDKCLPE@VALID_CONSTRAINT_TOK?$AA@ DB 'VALID_CONSTRAINT_TOK', 00H ; `string'
CONST	ENDS
;	COMDAT ??_C@_0BE@EDGDLMGI@RESET_PROFILING_TOK?$AA@
CONST	SEGMENT
??_C@_0BE@EDGDLMGI@RESET_PROFILING_TOK?$AA@ DB 'RESET_PROFILING_TOK', 00H ; `string'
CONST	ENDS
;	COMDAT ??_C@_0BH@JBMPOCAC@UNSUPPRESS_WARNING_TOK?$AA@
CONST	SEGMENT
??_C@_0BH@JBMPOCAC@UNSUPPRESS_WARNING_TOK?$AA@ DB 'UNSUPPRESS_WARNING_TOK'
	DB	00H						; `string'
CONST	ENDS
;	COMDAT ??_C@_0BF@DMAAIILB@SUPPRESS_WARNING_TOK?$AA@
CONST	SEGMENT
??_C@_0BF@DMAAIILB@SUPPRESS_WARNING_TOK?$AA@ DB 'SUPPRESS_WARNING_TOK', 00H ; `string'
CONST	ENDS
;	COMDAT ??_C@_0BA@FEGFCLEA@DELETE_TEXT_TOK?$AA@
CONST	SEGMENT
??_C@_0BA@FEGFCLEA@DELETE_TEXT_TOK?$AA@ DB 'DELETE_TEXT_TOK', 00H ; `string'
CONST	ENDS
;	COMDAT ??_C@_0BB@MLCILBDO@DISPLAY_TEXT_TOK?$AA@
CONST	SEGMENT
??_C@_0BB@MLCILBDO@DISPLAY_TEXT_TOK?$AA@ DB 'DISPLAY_TEXT_TOK', 00H ; `string'
CONST	ENDS
;	COMDAT ??_C@_0BB@PJOGAEHB@REPLACE_LOAD_TOK?$AA@
CONST	SEGMENT
??_C@_0BB@PJOGAEHB@REPLACE_LOAD_TOK?$AA@ DB 'REPLACE_LOAD_TOK', 00H ; `string'
CONST	ENDS
;	COMDAT ??_C@_0BC@LKDFHNKK@SIMPLEX_TO_FE_TOK?$AA@
CONST	SEGMENT
??_C@_0BC@LKDFHNKK@SIMPLEX_TO_FE_TOK?$AA@ DB 'SIMPLEX_TO_FE_TOK', 00H ; `string'
CONST	ENDS
;	COMDAT ??_C@_0M@PGOFIFIB@ADDLOAD_TOK?$AA@
CONST	SEGMENT
??_C@_0M@PGOFIFIB@ADDLOAD_TOK?$AA@ DB 'ADDLOAD_TOK', 00H ; `string'
CONST	ENDS
;	COMDAT ??_C@_0N@ECDNPNHI@WHEREAMI_TOK?$AA@
CONST	SEGMENT
??_C@_0N@ECDNPNHI@WHEREAMI_TOK?$AA@ DB 'WHEREAMI_TOK', 00H ; `string'
CONST	ENDS
;	COMDAT ??_C@_0P@OJJIDFAJ@BREAKPOINT_TOK?$AA@
CONST	SEGMENT
??_C@_0P@OJJIDFAJ@BREAKPOINT_TOK?$AA@ DB 'BREAKPOINT_TOK', 00H ; `string'
CONST	ENDS
;	COMDAT ??_C@_09NIOGCOHE@ABORT_TOK?$AA@
CONST	SEGMENT
??_C@_09NIOGCOHE@ABORT_TOK?$AA@ DB 'ABORT_TOK', 00H	; `string'
CONST	ENDS
;	COMDAT ??_C@_0P@HMMIALNL@SUBCOMMAND_TOK?$AA@
CONST	SEGMENT
??_C@_0P@HMMIALNL@SUBCOMMAND_TOK?$AA@ DB 'SUBCOMMAND_TOK', 00H ; `string'
CONST	ENDS
;	COMDAT ??_C@_0BH@DEOGPAHC@MATRIX_DETERMINANT_TOK?$AA@
CONST	SEGMENT
??_C@_0BH@DEOGPAHC@MATRIX_DETERMINANT_TOK?$AA@ DB 'MATRIX_DETERMINANT_TOK'
	DB	00H						; `string'
CONST	ENDS
;	COMDAT ??_C@_0P@MLDCEPJO@INTEGER_AT_TOK?$AA@
CONST	SEGMENT
??_C@_0P@MLDCEPJO@INTEGER_AT_TOK?$AA@ DB 'INTEGER_AT_TOK', 00H ; `string'
CONST	ENDS
;	COMDAT ??_C@_0BE@LLFKAAHP@LEAD_INTEGER_AT_TOK?$AA@
CONST	SEGMENT
??_C@_0BE@LLFKAAHP@LEAD_INTEGER_AT_TOK?$AA@ DB 'LEAD_INTEGER_AT_TOK', 00H ; `string'
CONST	ENDS
;	COMDAT ??_C@_0L@IJJPIEBB@GLOBAL_TOK?$AA@
CONST	SEGMENT
??_C@_0L@IJJPIEBB@GLOBAL_TOK?$AA@ DB 'GLOBAL_TOK', 00H	; `string'
CONST	ENDS
;	COMDAT ??_C@_0BD@FICACJCO@MEAN_CURVATURE_TOK?$AA@
CONST	SEGMENT
??_C@_0BD@FICACJCO@MEAN_CURVATURE_TOK?$AA@ DB 'MEAN_CURVATURE_TOK', 00H ; `string'
CONST	ENDS
;	COMDAT ??_C@_0BD@CBHMPLEB@METIS_READJUST_TOK?$AA@
CONST	SEGMENT
??_C@_0BD@CBHMPLEB@METIS_READJUST_TOK?$AA@ DB 'METIS_READJUST_TOK', 00H ; `string'
CONST	ENDS
;	COMDAT ??_C@_0BA@JAEDGCFL@REPARTITION_TOK?$AA@
CONST	SEGMENT
??_C@_0BA@JAEDGCFL@REPARTITION_TOK?$AA@ DB 'REPARTITION_TOK', 00H ; `string'
CONST	ENDS
;	COMDAT ??_C@_0BC@FIAGCEKC@FREE_DISCARDS_TOK?$AA@
CONST	SEGMENT
??_C@_0BC@FIAGCEKC@FREE_DISCARDS_TOK?$AA@ DB 'FREE_DISCARDS_TOK', 00H ; `string'
CONST	ENDS
;	COMDAT ??_C@_0BB@OKPMPKMC@DUMP_MEMLIST_TOK?$AA@
CONST	SEGMENT
??_C@_0BB@OKPMPKMC@DUMP_MEMLIST_TOK?$AA@ DB 'DUMP_MEMLIST_TOK', 00H ; `string'
CONST	ENDS
;	COMDAT ??_C@_0BC@HDKBMLLD@BINARY_PRINTF_TOK?$AA@
CONST	SEGMENT
??_C@_0BC@HDKBMLLD@BINARY_PRINTF_TOK?$AA@ DB 'BINARY_PRINTF_TOK', 00H ; `string'
CONST	ENDS
;	COMDAT ??_C@_0BD@DPPLOOOH@MATRIX_INVERSE_TOK?$AA@
CONST	SEGMENT
??_C@_0BD@DPPLOOOH@MATRIX_INVERSE_TOK?$AA@ DB 'MATRIX_INVERSE_TOK', 00H ; `string'
CONST	ENDS
;	COMDAT ??_C@_0BE@MAHLNE@MATRIX_MULTIPLY_TOK?$AA@
CONST	SEGMENT
??_C@_0BE@MAHLNE@MATRIX_MULTIPLY_TOK?$AA@ DB 'MATRIX_MULTIPLY_TOK', 00H ; `string'
CONST	ENDS
;	COMDAT ??_C@_0BI@LLECFGEC@REVERSE_ORIENTATION_TOK?$AA@
CONST	SEGMENT
??_C@_0BI@LLECFGEC@REVERSE_ORIENTATION_TOK?$AA@ DB 'REVERSE_ORIENTATION_T'
	DB	'OK', 00H					; `string'
CONST	ENDS
;	COMDAT ??_C@_0P@IJBPCGPK@BODY_METIS_TOK?$AA@
CONST	SEGMENT
??_C@_0P@IJBPCGPK@BODY_METIS_TOK?$AA@ DB 'BODY_METIS_TOK', 00H ; `string'
CONST	ENDS
;	COMDAT ??_C@_0BC@KPLFCIOK@ELEMENT_IDENT_TOK?$AA@
CONST	SEGMENT
??_C@_0BC@KPLFCIOK@ELEMENT_IDENT_TOK?$AA@ DB 'ELEMENT_IDENT_TOK', 00H ; `string'
CONST	ENDS
;	COMDAT ??_C@_0N@OFOIHKCD@GO_COUNT_TOK?$AA@
CONST	SEGMENT
??_C@_0N@OFOIHKCD@GO_COUNT_TOK?$AA@ DB 'GO_COUNT_TOK', 00H ; `string'
CONST	ENDS
;	COMDAT ??_C@_0O@NACIBGPC@MID_FACET_TOK?$AA@
CONST	SEGMENT
??_C@_0O@NACIBGPC@MID_FACET_TOK?$AA@ DB 'MID_FACET_TOK', 00H ; `string'
CONST	ENDS
;	COMDAT ??_C@_0N@PIOCLEMK@MID_EDGE_TOK?$AA@
CONST	SEGMENT
??_C@_0N@PIOCLEMK@MID_EDGE_TOK?$AA@ DB 'MID_EDGE_TOK', 00H ; `string'
CONST	ENDS
;	COMDAT ??_C@_0BC@MMIBKKJK@VALID_ELEMENT_TOK?$AA@
CONST	SEGMENT
??_C@_0BC@MMIBKKJK@VALID_ELEMENT_TOK?$AA@ DB 'VALID_ELEMENT_TOK', 00H ; `string'
CONST	ENDS
;	COMDAT ??_C@_0BB@MOBABKKJ@RESET_COUNTS_TOK?$AA@
CONST	SEGMENT
??_C@_0BB@MOBABKKJ@RESET_COUNTS_TOK?$AA@ DB 'RESET_COUNTS_TOK', 00H ; `string'
CONST	ENDS
;	COMDAT ??_C@_0BB@MEDAAPMI@MERGE_VERTEX_TOK?$AA@
CONST	SEGMENT
??_C@_0BB@MEDAAPMI@MERGE_VERTEX_TOK?$AA@ DB 'MERGE_VERTEX_TOK', 00H ; `string'
CONST	ENDS
;	COMDAT ??_C@_0BA@GCAFJNHA@MERGE_FACET_TOK?$AA@
CONST	SEGMENT
??_C@_0BA@GCAFJNHA@MERGE_FACET_TOK?$AA@ DB 'MERGE_FACET_TOK', 00H ; `string'
CONST	ENDS
;	COMDAT ??_C@_0P@GIGCBOHD@MERGE_EDGE_TOK?$AA@
CONST	SEGMENT
??_C@_0P@GIGCBOHD@MERGE_EDGE_TOK?$AA@ DB 'MERGE_EDGE_TOK', 00H ; `string'
CONST	ENDS
;	COMDAT ??_C@_0BA@HDGBDGCO@T1_EDGESWAP_TOK?$AA@
CONST	SEGMENT
??_C@_0BA@HDGBDGCO@T1_EDGESWAP_TOK?$AA@ DB 'T1_EDGESWAP_TOK', 00H ; `string'
CONST	ENDS
;	COMDAT ??_C@_0BC@CNAHJPN@MPI_TASK_ATTR_TOK?$AA@
CONST	SEGMENT
??_C@_0BC@CNAHJPN@MPI_TASK_ATTR_TOK?$AA@ DB 'MPI_TASK_ATTR_TOK', 00H ; `string'
CONST	ENDS
;	COMDAT ??_C@_0P@KIBGGICK@PROCEDURES_TOK?$AA@
CONST	SEGMENT
??_C@_0P@KIBGGICK@PROCEDURES_TOK?$AA@ DB 'PROCEDURES_TOK', 00H ; `string'
CONST	ENDS
;	COMDAT ??_C@_0N@GMFEGIIE@SHOWVERB_TOK?$AA@
CONST	SEGMENT
??_C@_0N@GMFEGIIE@SHOWVERB_TOK?$AA@ DB 'SHOWVERB_TOK', 00H ; `string'
CONST	ENDS
;	COMDAT ??_C@_0BF@KEDDKBIM@POP_QUAD_TO_QUAD_TOK?$AA@
CONST	SEGMENT
??_C@_0BF@KEDDKBIM@POP_QUAD_TO_QUAD_TOK?$AA@ DB 'POP_QUAD_TO_QUAD_TOK', 00H ; `string'
CONST	ENDS
;	COMDAT ??_C@_0BE@DMIKMHHD@POP_EDGE_TO_TRI_TOK?$AA@
CONST	SEGMENT
??_C@_0BE@DMIKMHHD@POP_EDGE_TO_TRI_TOK?$AA@ DB 'POP_EDGE_TO_TRI_TOK', 00H ; `string'
CONST	ENDS
;	COMDAT ??_C@_0BE@ILAEFKAC@POP_TRI_TO_EDGE_TOK?$AA@
CONST	SEGMENT
??_C@_0BE@ILAEFKAC@POP_TRI_TO_EDGE_TOK?$AA@ DB 'POP_TRI_TO_EDGE_TOK', 00H ; `string'
CONST	ENDS
;	COMDAT ??_C@_0BE@EFHMMFCB@PROCEDURE_IDENT_TOK?$AA@
CONST	SEGMENT
??_C@_0BE@EFHMMFCB@PROCEDURE_IDENT_TOK?$AA@ DB 'PROCEDURE_IDENT_TOK', 00H ; `string'
CONST	ENDS
;	COMDAT ??_C@_0BC@JFBKMIGF@BOUNDARY_NAME_TOK?$AA@
CONST	SEGMENT
??_C@_0BC@JFBKMIGF@BOUNDARY_NAME_TOK?$AA@ DB 'BOUNDARY_NAME_TOK', 00H ; `string'
CONST	ENDS
;	COMDAT ??_C@_0BE@EEHLHEPJ@CONSTRAINT_NAME_TOK?$AA@
CONST	SEGMENT
??_C@_0BE@EEHLHEPJ@CONSTRAINT_NAME_TOK?$AA@ DB 'CONSTRAINT_NAME_TOK', 00H ; `string'
CONST	ENDS
;	COMDAT ??_C@_0BB@GBLBLBGI@RENUMBER_ALL_TOK?$AA@
CONST	SEGMENT
??_C@_0BB@GBLBLBGI@RENUMBER_ALL_TOK?$AA@ DB 'RENUMBER_ALL_TOK', 00H ; `string'
CONST	ENDS
;	COMDAT ??_C@_0BE@LINDMPOG@REORDER_STORAGE_TOK?$AA@
CONST	SEGMENT
??_C@_0BE@LINDMPOG@REORDER_STORAGE_TOK?$AA@ DB 'REORDER_STORAGE_TOK', 00H ; `string'
CONST	ENDS
;	COMDAT ??_C@_0BB@IPHJGNKO@HESSIAN_SEEK_TOK?$AA@
CONST	SEGMENT
??_C@_0BB@IPHJGNKO@HESSIAN_SEEK_TOK?$AA@ DB 'HESSIAN_SEEK_TOK', 00H ; `string'
CONST	ENDS
;	COMDAT ??_C@_0BD@MHLHMFDK@DIRICHLET_SEEK_TOK?$AA@
CONST	SEGMENT
??_C@_0BD@MHLHMFDK@DIRICHLET_SEEK_TOK?$AA@ DB 'DIRICHLET_SEEK_TOK', 00H ; `string'
CONST	ENDS
;	COMDAT ??_C@_0BB@GCNDBOOB@SOBOLEV_SEEK_TOK?$AA@
CONST	SEGMENT
??_C@_0BB@GCNDBOOB@SOBOLEV_SEEK_TOK?$AA@ DB 'SOBOLEV_SEEK_TOK', 00H ; `string'
CONST	ENDS
;	COMDAT ??_C@_0BK@DKIFNFJO@VIEW_TRANSFORM_PARITY_TOK?$AA@
CONST	SEGMENT
??_C@_0BK@DKIFNFJO@VIEW_TRANSFORM_PARITY_TOK?$AA@ DB 'VIEW_TRANSFORM_PARI'
	DB	'TY_TOK', 00H				; `string'
CONST	ENDS
;	COMDAT ??_C@_0M@DFKKLNEE@SOBOLEV_TOK?$AA@
CONST	SEGMENT
??_C@_0M@DFKKLNEE@SOBOLEV_TOK?$AA@ DB 'SOBOLEV_TOK', 00H ; `string'
CONST	ENDS
;	COMDAT ??_C@_0O@EILCMAJF@DIRICHLET_TOK?$AA@
CONST	SEGMENT
??_C@_0O@EILCMAJF@DIRICHLET_TOK?$AA@ DB 'DIRICHLET_TOK', 00H ; `string'
CONST	ENDS
;	COMDAT ??_C@_0BG@KHEPGOMH@INTERNAL_VARIABLE_TOK?$AA@
CONST	SEGMENT
??_C@_0BG@KHEPGOMH@INTERNAL_VARIABLE_TOK?$AA@ DB 'INTERNAL_VARIABLE_TOK', 00H ; `string'
CONST	ENDS
;	COMDAT ??_C@_0P@NONHHGEL@P_VELOCITY_TOK?$AA@
CONST	SEGMENT
??_C@_0P@NONHHGEL@P_VELOCITY_TOK?$AA@ DB 'P_VELOCITY_TOK', 00H ; `string'
CONST	ENDS
;	COMDAT ??_C@_0M@GKIKGNBD@P_FORCE_TOK?$AA@
CONST	SEGMENT
??_C@_0M@GKIKGNBD@P_FORCE_TOK?$AA@ DB 'P_FORCE_TOK', 00H ; `string'
CONST	ENDS
;	COMDAT ??_C@_0BE@NKAHAADP@BACKQUOTE_COMMA_TOK?$AA@
CONST	SEGMENT
??_C@_0BE@NKAHAADP@BACKQUOTE_COMMA_TOK?$AA@ DB 'BACKQUOTE_COMMA_TOK', 00H ; `string'
CONST	ENDS
;	COMDAT ??_C@_0BP@DILMPLFK@VIEW_TRANSFORM_SWAP_COLORS_TOK?$AA@
CONST	SEGMENT
??_C@_0BP@DILMPLFK@VIEW_TRANSFORM_SWAP_COLORS_TOK?$AA@ DB 'VIEW_TRANSFORM'
	DB	'_SWAP_COLORS_TOK', 00H			; `string'
CONST	ENDS
;	COMDAT ??_C@_09PONDIGIE@PHASE_TOK?$AA@
CONST	SEGMENT
??_C@_09PONDIGIE@PHASE_TOK?$AA@ DB 'PHASE_TOK', 00H	; `string'
CONST	ENDS
;	COMDAT ??_C@_0BA@EKDLGBIG@PERM_ASSIGN_TOK?$AA@
CONST	SEGMENT
??_C@_0BA@EKDLGBIG@PERM_ASSIGN_TOK?$AA@ DB 'PERM_ASSIGN_TOK', 00H ; `string'
CONST	ENDS
;	COMDAT ??_C@_0O@KBCCNLID@NODISPLAY_TOK?$AA@
CONST	SEGMENT
??_C@_0O@KBCCNLID@NODISPLAY_TOK?$AA@ DB 'NODISPLAY_TOK', 00H ; `string'
CONST	ENDS
;	COMDAT ??_C@_0P@LMFADJDG@IS_DEFINED_TOK?$AA@
CONST	SEGMENT
??_C@_0P@LMFADJDG@IS_DEFINED_TOK?$AA@ DB 'IS_DEFINED_TOK', 00H ; `string'
CONST	ENDS
;	COMDAT ??_C@_0P@CCPGCKCC@CLOSE_SHOW_TOK?$AA@
CONST	SEGMENT
??_C@_0P@CCPGCKCC@CLOSE_SHOW_TOK?$AA@ DB 'CLOSE_SHOW_TOK', 00H ; `string'
CONST	ENDS
;	COMDAT ??_C@_0BE@GGIFBJEI@VIEW_TRANSFORMS_TOK?$AA@
CONST	SEGMENT
??_C@_0BE@GGIFBJEI@VIEW_TRANSFORMS_TOK?$AA@ DB 'VIEW_TRANSFORMS_TOK', 00H ; `string'
CONST	ENDS
;	COMDAT ??_C@_0L@BBMCJOCG@JIGGLE_TOK?$AA@
CONST	SEGMENT
??_C@_0L@BBMCJOCG@JIGGLE_TOK?$AA@ DB 'JIGGLE_TOK', 00H	; `string'
CONST	ENDS
;	COMDAT ??_C@_0BB@MCMKMLNJ@REDIRECT_ERR_TOK?$AA@
CONST	SEGMENT
??_C@_0BB@MCMKMLNJ@REDIRECT_ERR_TOK?$AA@ DB 'REDIRECT_ERR_TOK', 00H ; `string'
CONST	ENDS
;	COMDAT ??_C@_0BK@PDEECJJN@RAWEST_VERTEX_AVERAGE_TOK?$AA@
CONST	SEGMENT
??_C@_0BK@PDEECJJN@RAWEST_VERTEX_AVERAGE_TOK?$AA@ DB 'RAWEST_VERTEX_AVERA'
	DB	'GE_TOK', 00H				; `string'
CONST	ENDS
;	COMDAT ??_C@_0O@OMGGDAPF@TOLERANCE_TOK?$AA@
CONST	SEGMENT
??_C@_0O@OMGGDAPF@TOLERANCE_TOK?$AA@ DB 'TOLERANCE_TOK', 00H ; `string'
CONST	ENDS
;	COMDAT ??_C@_0BB@DOEHBNCA@REDIRECTOVER_TOK?$AA@
CONST	SEGMENT
??_C@_0BB@DOEHBNCA@REDIRECTOVER_TOK?$AA@ DB 'REDIRECTOVER_TOK', 00H ; `string'
CONST	ENDS
;	COMDAT ??_C@_0N@KLJNKJEP@OPTIMIZE_TOK?$AA@
CONST	SEGMENT
??_C@_0N@KLJNKJEP@OPTIMIZE_TOK?$AA@ DB 'OPTIMIZE_TOK', 00H ; `string'
CONST	ENDS
;	COMDAT ??_C@_0BF@MODDFIEA@REDIRECTOVER_ERR_TOK?$AA@
CONST	SEGMENT
??_C@_0BF@MODDFIEA@REDIRECTOVER_ERR_TOK?$AA@ DB 'REDIRECTOVER_ERR_TOK', 00H ; `string'
CONST	ENDS
;	COMDAT ??_C@_0BH@KILBGCBH@RAW_VERTEX_AVERAGE_TOK?$AA@
CONST	SEGMENT
??_C@_0BH@KILBGCBH@RAW_VERTEX_AVERAGE_TOK?$AA@ DB 'RAW_VERTEX_AVERAGE_TOK'
	DB	00H						; `string'
CONST	ENDS
;	COMDAT ??_C@_0BE@EOFLEPDM@METHOD_INSTANCE_TOK?$AA@
CONST	SEGMENT
??_C@_0BE@EOFLEPDM@METHOD_INSTANCE_TOK?$AA@ DB 'METHOD_INSTANCE_TOK', 00H ; `string'
CONST	ENDS
;	COMDAT ??_C@_0BD@ELBCCGPJ@VERTEX_AVERAGE_TOK?$AA@
CONST	SEGMENT
??_C@_0BD@ELBCCGPJ@VERTEX_AVERAGE_TOK?$AA@ DB 'VERTEX_AVERAGE_TOK', 00H ; `string'
CONST	ENDS
;	COMDAT ??_C@_08EIDANOB@HELP_TOK?$AA@
CONST	SEGMENT
??_C@_08EIDANOB@HELP_TOK?$AA@ DB 'HELP_TOK', 00H	; `string'
CONST	ENDS
;	COMDAT ??_C@_0N@DCJOCMCA@PERMLOAD_TOK?$AA@
CONST	SEGMENT
??_C@_0N@DCJOCMCA@PERMLOAD_TOK?$AA@ DB 'PERMLOAD_TOK', 00H ; `string'
CONST	ENDS
;	COMDAT ??_C@_0P@NKBDPGIB@PERM_IDENT_TOK?$AA@
CONST	SEGMENT
??_C@_0P@NKBDPGIB@PERM_IDENT_TOK?$AA@ DB 'PERM_IDENT_TOK', 00H ; `string'
CONST	ENDS
;	COMDAT ??_C@_0BG@BFKHJEEJ@DYNAMIC_LOAD_FUNC_TOK?$AA@
CONST	SEGMENT
??_C@_0BG@BFKHJEEJ@DYNAMIC_LOAD_FUNC_TOK?$AA@ DB 'DYNAMIC_LOAD_FUNC_TOK', 00H ; `string'
CONST	ENDS
;	COMDAT ??_C@_0BD@KMNDPHCD@PROCEDURE_WORD_TOK?$AA@
CONST	SEGMENT
??_C@_0BD@KMNDPHCD@PROCEDURE_WORD_TOK?$AA@ DB 'PROCEDURE_WORD_TOK', 00H ; `string'
CONST	ENDS
;	COMDAT ??_C@_0BD@JONHINGP@PERM_PROCEDURE_TOK?$AA@
CONST	SEGMENT
??_C@_0BD@JONHINGP@PERM_PROCEDURE_TOK?$AA@ DB 'PERM_PROCEDURE_TOK', 00H ; `string'
CONST	ENDS
;	COMDAT ??_C@_08DBDPGBGI@LOAD_TOK?$AA@
CONST	SEGMENT
??_C@_08DBDPGBGI@LOAD_TOK?$AA@ DB 'LOAD_TOK', 00H	; `string'
CONST	ENDS
;	COMDAT ??_C@_0N@GEOKEKFC@QUANTITY_TOK?$AA@
CONST	SEGMENT
??_C@_0N@GEOKEKFC@QUANTITY_TOK?$AA@ DB 'QUANTITY_TOK', 00H ; `string'
CONST	ENDS
;	COMDAT ??_C@_09EMMOOKEJ@NOTCH_TOK?$AA@
CONST	SEGMENT
??_C@_09EMMOOKEJ@NOTCH_TOK?$AA@ DB 'NOTCH_TOK', 00H	; `string'
CONST	ENDS
;	COMDAT ??_C@_08DIHLMEGK@DUMP_TOK?$AA@
CONST	SEGMENT
??_C@_08DIHLMEGK@DUMP_TOK?$AA@ DB 'DUMP_TOK', 00H	; `string'
CONST	ENDS
;	COMDAT ??_C@_0BB@HPLMDLJJ@GAP_CONSTANT_TOK?$AA@
CONST	SEGMENT
??_C@_0BB@HPLMDLJJ@GAP_CONSTANT_TOK?$AA@ DB 'GAP_CONSTANT_TOK', 00H ; `string'
CONST	ENDS
;	COMDAT ??_C@_0L@BEFJCNLG@PDELTA_TOK?$AA@
CONST	SEGMENT
??_C@_0L@BEFJCNLG@PDELTA_TOK?$AA@ DB 'PDELTA_TOK', 00H	; `string'
CONST	ENDS
;	COMDAT ??_C@_0M@KMNEBKKL@NEWBODY_TOK?$AA@
CONST	SEGMENT
??_C@_0M@KMNEBKKL@NEWBODY_TOK?$AA@ DB 'NEWBODY_TOK', 00H ; `string'
CONST	ENDS
;	COMDAT ??_C@_0BE@OEGMLJBJ@INVERSE_PERIODS_TOK?$AA@
CONST	SEGMENT
??_C@_0BE@OEGMLJBJ@INVERSE_PERIODS_TOK?$AA@ DB 'INVERSE_PERIODS_TOK', 00H ; `string'
CONST	ENDS
;	COMDAT ??_C@_09KHLLGAHD@VALUE_TOK?$AA@
CONST	SEGMENT
??_C@_09KHLLGAHD@VALUE_TOK?$AA@ DB 'VALUE_TOK', 00H	; `string'
CONST	ENDS
;	COMDAT ??_C@_0L@EFNAKCMM@TARGET_TOK?$AA@
CONST	SEGMENT
??_C@_0L@EFNAKCMM@TARGET_TOK?$AA@ DB 'TARGET_TOK', 00H	; `string'
CONST	ENDS
;	COMDAT ??_C@_0M@NDGADGHD@MODULUS_TOK?$AA@
CONST	SEGMENT
??_C@_0M@NDGADGHD@MODULUS_TOK?$AA@ DB 'MODULUS_TOK', 00H ; `string'
CONST	ENDS
;	COMDAT ??_C@_0BD@NELBLNII@FACET_CROSSCUT_TOK?$AA@
CONST	SEGMENT
??_C@_0BD@NELBLNII@FACET_CROSSCUT_TOK?$AA@ DB 'FACET_CROSSCUT_TOK', 00H ; `string'
CONST	ENDS
;	COMDAT ??_C@_0N@KELBAFGP@NEWFACET_TOK?$AA@
CONST	SEGMENT
??_C@_0N@KELBAFGP@NEWFACET_TOK?$AA@ DB 'NEWFACET_TOK', 00H ; `string'
CONST	ENDS
;	COMDAT ??_C@_0M@NACDLDEJ@NEWEDGE_TOK?$AA@
CONST	SEGMENT
??_C@_0M@NACDLDEJ@NEWEDGE_TOK?$AA@ DB 'NEWEDGE_TOK', 00H ; `string'
CONST	ENDS
;	COMDAT ??_C@_0O@EJPOLGKF@NEWVERTEX_TOK?$AA@
CONST	SEGMENT
??_C@_0O@EJPOLGKF@NEWVERTEX_TOK?$AA@ DB 'NEWVERTEX_TOK', 00H ; `string'
CONST	ENDS
;	COMDAT ??_C@_0N@HMOBKBAA@REDIRECT_TOK?$AA@
CONST	SEGMENT
??_C@_0N@HMOBKBAA@REDIRECT_TOK?$AA@ DB 'REDIRECT_TOK', 00H ; `string'
CONST	ENDS
;	COMDAT ??_C@_0N@JHHBOPLG@COLORMAP_TOK?$AA@
CONST	SEGMENT
??_C@_0N@JHHBOPLG@COLORMAP_TOK?$AA@ DB 'COLORMAP_TOK', 00H ; `string'
CONST	ENDS
;	COMDAT ??_C@_0M@JDJNMAEE@THICKEN_TOK?$AA@
CONST	SEGMENT
??_C@_0M@JDJNMAEE@THICKEN_TOK?$AA@ DB 'THICKEN_TOK', 00H ; `string'
CONST	ENDS
;	COMDAT ??_C@_0BD@EICAKJNN@FUNCTION_IDENT_TOK?$AA@
CONST	SEGMENT
??_C@_0BD@EICAKJNN@FUNCTION_IDENT_TOK?$AA@ DB 'FUNCTION_IDENT_TOK', 00H ; `string'
CONST	ENDS
;	COMDAT ??_C@_0BG@JIENBDGP@PERM_STRINGGLOBAL_TOK?$AA@
CONST	SEGMENT
??_C@_0BG@JIENBDGP@PERM_STRINGGLOBAL_TOK?$AA@ DB 'PERM_STRINGGLOBAL_TOK', 00H ; `string'
CONST	ENDS
;	COMDAT ??_C@_0O@JFFKOKOE@COLORFILE_TOK?$AA@
CONST	SEGMENT
??_C@_0O@JFFKOKOE@COLORFILE_TOK?$AA@ DB 'COLORFILE_TOK', 00H ; `string'
CONST	ENDS
;	COMDAT ??_C@_0N@KCBHIKPC@BACKBODY_TOK?$AA@
CONST	SEGMENT
??_C@_0N@KCBHIKPC@BACKBODY_TOK?$AA@ DB 'BACKBODY_TOK', 00H ; `string'
CONST	ENDS
;	COMDAT ??_C@_0O@IFKEOLFG@FRONTBODY_TOK?$AA@
CONST	SEGMENT
??_C@_0O@IFKEOLFG@FRONTBODY_TOK?$AA@ DB 'FRONTBODY_TOK', 00H ; `string'
CONST	ENDS
;	COMDAT ??_C@_0BA@KGBKHCMC@HIT_PARTNER_TOK?$AA@
CONST	SEGMENT
??_C@_0BA@KGBKHCMC@HIT_PARTNER_TOK?$AA@ DB 'HIT_PARTNER_TOK', 00H ; `string'
CONST	ENDS
;	COMDAT ??_C@_07BAENNLEM@FOR_TOK?$AA@
CONST	SEGMENT
??_C@_07BAENNLEM@FOR_TOK?$AA@ DB 'FOR_TOK', 00H		; `string'
CONST	ENDS
;	COMDAT ??_C@_0P@IGFDPKNM@NONCONTENT_TOK?$AA@
CONST	SEGMENT
??_C@_0P@IGFDPKNM@NONCONTENT_TOK?$AA@ DB 'NONCONTENT_TOK', 00H ; `string'
CONST	ENDS
;	COMDAT ??_C@_0L@DPKDMLBO@STRING_TOK?$AA@
CONST	SEGMENT
??_C@_0L@DPKDMLBO@STRING_TOK?$AA@ DB 'STRING_TOK', 00H	; `string'
CONST	ENDS
;	COMDAT ??_C@_0BB@LGIDMAPC@NO_TRANSFORM_TOK?$AA@
CONST	SEGMENT
??_C@_0BB@LGIDMAPC@NO_TRANSFORM_TOK?$AA@ DB 'NO_TRANSFORM_TOK', 00H ; `string'
CONST	ENDS
;	COMDAT ??_C@_0O@GOKJKHMH@NO_REFINE_TOK?$AA@
CONST	SEGMENT
??_C@_0O@GOKJKHMH@NO_REFINE_TOK?$AA@ DB 'NO_REFINE_TOK', 00H ; `string'
CONST	ENDS
;	COMDAT ??_C@_06LKLOFFIO@DO_TOK?$AA@
CONST	SEGMENT
??_C@_06LKLOFFIO@DO_TOK?$AA@ DB 'DO_TOK', 00H		; `string'
CONST	ENDS
;	COMDAT ??_C@_09FOHMGKGP@WHILE_TOK?$AA@
CONST	SEGMENT
??_C@_09FOHMGKGP@WHILE_TOK?$AA@ DB 'WHILE_TOK', 00H	; `string'
CONST	ENDS
;	COMDAT ??_C@_06PMGGGFIG@IF_TOK?$AA@
CONST	SEGMENT
??_C@_06PMGGGFIG@IF_TOK?$AA@ DB 'IF_TOK', 00H		; `string'
CONST	ENDS
;	COMDAT ??_C@_0BB@BHJIHDDJ@CENTEROFMASS_TOK?$AA@
CONST	SEGMENT
??_C@_0BB@BHJIHDDJ@CENTEROFMASS_TOK?$AA@ DB 'CENTEROFMASS_TOK', 00H ; `string'
CONST	ENDS
;	COMDAT ??_C@_0BF@KCFAPGJP@WARNING_MESSAGES_TOK?$AA@
CONST	SEGMENT
??_C@_0BF@KCFAPGJP@WARNING_MESSAGES_TOK?$AA@ DB 'WARNING_MESSAGES_TOK', 00H ; `string'
CONST	ENDS
;	COMDAT ??_C@_08LBPCKFFB@QUIT_TOK?$AA@
CONST	SEGMENT
??_C@_08LBPCKFFB@QUIT_TOK?$AA@ DB 'QUIT_TOK', 00H	; `string'
CONST	ENDS
;	COMDAT ??_C@_0P@OKAAHMI@AREA_FIXED_TOK?$AA@
CONST	SEGMENT
??_C@_0P@OKAAHMI@AREA_FIXED_TOK?$AA@ DB 'AREA_FIXED_TOK', 00H ; `string'
CONST	ENDS
;	COMDAT ??_C@_0BB@MBMGIPGF@LOGHISTOGRAM_TOK?$AA@
CONST	SEGMENT
??_C@_0BB@MBMGIPGF@LOGHISTOGRAM_TOK?$AA@ DB 'LOGHISTOGRAM_TOK', 00H ; `string'
CONST	ENDS
;	COMDAT ??_C@_0O@OAKCOPBN@HISTOGRAM_TOK?$AA@
CONST	SEGMENT
??_C@_0O@OAKCOPBN@HISTOGRAM_TOK?$AA@ DB 'HISTOGRAM_TOK', 00H ; `string'
CONST	ENDS
;	COMDAT ??_C@_0BB@HBMGBJKA@EQUIANGULATE_TOK?$AA@
CONST	SEGMENT
??_C@_0BB@HBMGBJKA@EQUIANGULATE_TOK?$AA@ DB 'EQUIANGULATE_TOK', 00H ; `string'
CONST	ENDS
;	COMDAT ??_C@_0BB@OEHCHJNI@STRINGGLOBAL_TOK?$AA@
CONST	SEGMENT
??_C@_0BB@OEHCHJNI@STRINGGLOBAL_TOK?$AA@ DB 'STRINGGLOBAL_TOK', 00H ; `string'
CONST	ENDS
;	COMDAT ??_C@_0M@NCJIGPNO@FOREACH_TOK?$AA@
CONST	SEGMENT
??_C@_0M@NCJIGPNO@FOREACH_TOK?$AA@ DB 'FOREACH_TOK', 00H ; `string'
CONST	ENDS
;	COMDAT ??_C@_0O@PGFHAECA@PROCEDURE_TOK?$AA@
CONST	SEGMENT
??_C@_0O@PGFHAECA@PROCEDURE_TOK?$AA@ DB 'PROCEDURE_TOK', 00H ; `string'
CONST	ENDS
;	COMDAT ??_C@_0L@IOAJKNDF@ASSIGN_TOK?$AA@
CONST	SEGMENT
??_C@_0L@IOAJKNDF@ASSIGN_TOK?$AA@ DB 'ASSIGN_TOK', 00H	; `string'
CONST	ENDS
;	COMDAT ??_C@_0O@FHEAPHIJ@INFO_ONLY_TOK?$AA@
CONST	SEGMENT
??_C@_0O@FHEAPHIJ@INFO_ONLY_TOK?$AA@ DB 'INFO_ONLY_TOK', 00H ; `string'
CONST	ENDS
;	COMDAT ??_C@_0O@BCIMBOGK@CONSERVED_TOK?$AA@
CONST	SEGMENT
??_C@_0O@BCIMBOGK@CONSERVED_TOK?$AA@ DB 'CONSERVED_TOK', 00H ; `string'
CONST	ENDS
;	COMDAT ??_C@_0L@MFIPAEK@ENERGY_TOK?$AA@
CONST	SEGMENT
??_C@_0L@MFIPAEK@ENERGY_TOK?$AA@ DB 'ENERGY_TOK', 00H	; `string'
CONST	ENDS
;	COMDAT ??_C@_0BA@BIDICDDJ@AXIAL_POINT_TOK?$AA@
CONST	SEGMENT
??_C@_0BA@BIDICDDJ@AXIAL_POINT_TOK?$AA@ DB 'AXIAL_POINT_TOK', 00H ; `string'
CONST	ENDS
;	COMDAT ??_C@_0P@PNFFCAHL@SHOW_TRANS_TOK?$AA@
CONST	SEGMENT
??_C@_0P@PNFFCAHL@SHOW_TRANS_TOK?$AA@ DB 'SHOW_TRANS_TOK', 00H ; `string'
CONST	ENDS
;	COMDAT ??_C@_0O@CPPPGFPH@SHOW_EXPR_TOK?$AA@
CONST	SEGMENT
??_C@_0O@CPPPGFPH@SHOW_EXPR_TOK?$AA@ DB 'SHOW_EXPR_TOK', 00H ; `string'
CONST	ENDS
;	COMDAT ??_C@_09DCELFBHJ@LOCAL_TOK?$AA@
CONST	SEGMENT
??_C@_09DCELFBHJ@LOCAL_TOK?$AA@ DB 'LOCAL_TOK', 00H	; `string'
CONST	ENDS
;	COMDAT ??_C@_0BC@FCPEGHD@DATE_AND_TIME_TOK?$AA@
CONST	SEGMENT
??_C@_0BC@FCPEGHD@DATE_AND_TIME_TOK?$AA@ DB 'DATE_AND_TIME_TOK', 00H ; `string'
CONST	ENDS
;	COMDAT ??_C@_0P@MJEKKDEI@ARRAYIDENT_TOK?$AA@
CONST	SEGMENT
??_C@_0P@MJEKKDEI@ARRAYIDENT_TOK?$AA@ DB 'ARRAYIDENT_TOK', 00H ; `string'
CONST	ENDS
;	COMDAT ??_C@_0BA@JOPBDGEE@WRAP_VERTEX_TOK?$AA@
CONST	SEGMENT
??_C@_0BA@JOPBDGEE@WRAP_VERTEX_TOK?$AA@ DB 'WRAP_VERTEX_TOK', 00H ; `string'
CONST	ENDS
;	COMDAT ??_C@_0N@KMJBHFNJ@DIHEDRAL_TOK?$AA@
CONST	SEGMENT
??_C@_0N@KMJBHFNJ@DIHEDRAL_TOK?$AA@ DB 'DIHEDRAL_TOK', 00H ; `string'
CONST	ENDS
;	COMDAT ??_C@_0M@CILJCLHG@EXPRINT_TOK?$AA@
CONST	SEGMENT
??_C@_0M@CILJCLHG@EXPRINT_TOK?$AA@ DB 'EXPRINT_TOK', 00H ; `string'
CONST	ENDS
;	COMDAT ??_C@_0N@LAJCGPLB@FUNCTION_TOK?$AA@
CONST	SEGMENT
??_C@_0N@LAJCGPLB@FUNCTION_TOK?$AA@ DB 'FUNCTION_TOK', 00H ; `string'
CONST	ENDS
;	COMDAT ??_C@_0BB@CAPOLJBG@METIS_FACTOR_TOK?$AA@
CONST	SEGMENT
??_C@_0BB@CAPOLJBG@METIS_FACTOR_TOK?$AA@ DB 'METIS_FACTOR_TOK', 00H ; `string'
CONST	ENDS
;	COMDAT ??_C@_0BG@MHAGINLF@CONVERT_TO_QUANTS_TOK?$AA@
CONST	SEGMENT
??_C@_0BG@MHAGINLF@CONVERT_TO_QUANTS_TOK?$AA@ DB 'CONVERT_TO_QUANTS_TOK', 00H ; `string'
CONST	ENDS
;	COMDAT ??_C@_0M@NMEKOHLH@SPRINTF_TOK?$AA@
CONST	SEGMENT
??_C@_0M@NMEKOHLH@SPRINTF_TOK?$AA@ DB 'SPRINTF_TOK', 00H ; `string'
CONST	ENDS
;	COMDAT ??_C@_0BE@MBNIINNA@BINARY_OFF_FILE_TOK?$AA@
CONST	SEGMENT
??_C@_0BE@MBNIINNA@BINARY_OFF_FILE_TOK?$AA@ DB 'BINARY_OFF_FILE_TOK', 00H ; `string'
CONST	ENDS
;	COMDAT ??_C@_0BC@IBHLDHJF@PARALLEL_EXEC_TOK?$AA@
CONST	SEGMENT
??_C@_0BC@IBHLDHJF@PARALLEL_EXEC_TOK?$AA@ DB 'PARALLEL_EXEC_TOK', 00H ; `string'
CONST	ENDS
;	COMDAT ??_C@_0N@ICHHIFGF@OOGLFILE_TOK?$AA@
CONST	SEGMENT
??_C@_0N@ICHHIFGF@OOGLFILE_TOK?$AA@ DB 'OOGLFILE_TOK', 00H ; `string'
CONST	ENDS
;	COMDAT ??_C@_0BI@DIPLELKP@TRANSFORM_EXPR_VERB_TOK?$AA@
CONST	SEGMENT
??_C@_0BI@DIPLELKP@TRANSFORM_EXPR_VERB_TOK?$AA@ DB 'TRANSFORM_EXPR_VERB_T'
	DB	'OK', 00H					; `string'
CONST	ENDS
;	COMDAT ??_C@_0L@OJDOAEJE@RETURN_TOK?$AA@
CONST	SEGMENT
??_C@_0L@OJDOAEJE@RETURN_TOK?$AA@ DB 'RETURN_TOK', 00H	; `string'
CONST	ENDS
;	COMDAT ??_C@_0N@IDEILLME@LAGRANGE_TOK?$AA@
CONST	SEGMENT
??_C@_0N@IDEILLME@LAGRANGE_TOK?$AA@ DB 'LAGRANGE_TOK', 00H ; `string'
CONST	ENDS
;	COMDAT ??_C@_0O@DDOKJBIG@BACKCOLOR_TOK?$AA@
CONST	SEGMENT
??_C@_0O@DDOKJBIG@BACKCOLOR_TOK?$AA@ DB 'BACKCOLOR_TOK', 00H ; `string'
CONST	ENDS
;	COMDAT ??_C@_0BG@PPMPGIJF@SINGLE_LETTER_ARG_TOK?$AA@
CONST	SEGMENT
??_C@_0BG@PPMPGIJF@SINGLE_LETTER_ARG_TOK?$AA@ DB 'SINGLE_LETTER_ARG_TOK', 00H ; `string'
CONST	ENDS
;	COMDAT ??_C@_0BC@FGKAFAEA@RAWEST_VERAVG_TOK?$AA@
CONST	SEGMENT
??_C@_0BC@FGKAFAEA@RAWEST_VERAVG_TOK?$AA@ DB 'RAWEST_VERAVG_TOK', 00H ; `string'
CONST	ENDS
;	COMDAT ??_C@_0O@JNDFFBPJ@TASK_EXEC_TOK?$AA@
CONST	SEGMENT
??_C@_0O@JNDFFBPJ@TASK_EXEC_TOK?$AA@ DB 'TASK_EXEC_TOK', 00H ; `string'
CONST	ENDS
;	COMDAT ??_C@_0BA@GHBFFFMK@METHOD_NAME_TOK?$AA@
CONST	SEGMENT
??_C@_0BA@GHBFFFMK@METHOD_NAME_TOK?$AA@ DB 'METHOD_NAME_TOK', 00H ; `string'
CONST	ENDS
;	COMDAT ??_C@_0BC@JPIMHHMI@SINGLE_REDEFD_TOK?$AA@
CONST	SEGMENT
??_C@_0BC@JPIMHHMI@SINGLE_REDEFD_TOK?$AA@ DB 'SINGLE_REDEFD_TOK', 00H ; `string'
CONST	ENDS
;	COMDAT ??_C@_0P@OCHGEFBG@FRONTCOLOR_TOK?$AA@
CONST	SEGMENT
??_C@_0P@OCHGEFBG@FRONTCOLOR_TOK?$AA@ DB 'FRONTCOLOR_TOK', 00H ; `string'
CONST	ENDS
;	COMDAT ??_C@_0BB@KAJICLHM@SQ_MEAN_CURV_TOK?$AA@
CONST	SEGMENT
??_C@_0BB@KAJICLHM@SQ_MEAN_CURV_TOK?$AA@ DB 'SQ_MEAN_CURV_TOK', 00H ; `string'
CONST	ENDS
;	COMDAT ??_C@_0L@DCALECHB@OMETIS_TOK?$AA@
CONST	SEGMENT
??_C@_0L@DCALECHB@OMETIS_TOK?$AA@ DB 'OMETIS_TOK', 00H	; `string'
CONST	ENDS
;	COMDAT ??_C@_0BA@LCNFMHPK@ORIENTATION_TOK?$AA@
CONST	SEGMENT
??_C@_0BA@LCNFMHPK@ORIENTATION_TOK?$AA@ DB 'ORIENTATION_TOK', 00H ; `string'
CONST	ENDS
;	COMDAT ??_C@_0N@IJNCFOGM@BOUNDARY_TOK?$AA@
CONST	SEGMENT
??_C@_0N@IJNCFOGM@BOUNDARY_TOK?$AA@ DB 'BOUNDARY_TOK', 00H ; `string'
CONST	ENDS
;	COMDAT ??_C@_0L@MBECIJFL@REBODY_TOK?$AA@
CONST	SEGMENT
??_C@_0L@MBECIJFL@REBODY_TOK?$AA@ DB 'REBODY_TOK', 00H	; `string'
CONST	ENDS
;	COMDAT ??_C@_0N@OKEECHJD@BURCHARD_TOK?$AA@
CONST	SEGMENT
??_C@_0N@OKEECHJD@BURCHARD_TOK?$AA@ DB 'BURCHARD_TOK', 00H ; `string'
CONST	ENDS
;	COMDAT ??_C@_0L@PGJEELMD@PSCALE_TOK?$AA@
CONST	SEGMENT
??_C@_0L@PGJEELMD@PSCALE_TOK?$AA@ DB 'PSCALE_TOK', 00H	; `string'
CONST	ENDS
;	COMDAT ??_C@_09GCHEPHN@SCALE_TOK?$AA@
CONST	SEGMENT
??_C@_09GCHEPHN@SCALE_TOK?$AA@ DB 'SCALE_TOK', 00H	; `string'
CONST	ENDS
;	COMDAT ??_C@_0P@KKJKDFFK@KEYLOGFILE_TOK?$AA@
CONST	SEGMENT
??_C@_0P@KKJKDFFK@KEYLOGFILE_TOK?$AA@ DB 'KEYLOGFILE_TOK', 00H ; `string'
CONST	ENDS
;	COMDAT ??_C@_0L@ICNCDBPD@KMETIS_TOK?$AA@
CONST	SEGMENT
??_C@_0L@ICNCDBPD@KMETIS_TOK?$AA@ DB 'KMETIS_TOK', 00H	; `string'
CONST	ENDS
;	COMDAT ??_C@_09PPLGHGMC@METIS_TOK?$AA@
CONST	SEGMENT
??_C@_09PPLGHGMC@METIS_TOK?$AA@ DB 'METIS_TOK', 00H	; `string'
CONST	ENDS
;	COMDAT ??_C@_0P@IEFCCJPL@BOTTOMINFO_TOK?$AA@
CONST	SEGMENT
??_C@_0P@IEFCCJPL@BOTTOMINFO_TOK?$AA@ DB 'BOTTOMINFO_TOK', 00H ; `string'
CONST	ENDS
;	COMDAT ??_C@_08HBBNPNDO@BARE_TOK?$AA@
CONST	SEGMENT
??_C@_08HBBNPNDO@BARE_TOK?$AA@ DB 'BARE_TOK', 00H	; `string'
CONST	ENDS
;	COMDAT ??_C@_0BD@IOAEMMN@TRANSFORM_EXPR_TOK?$AA@
CONST	SEGMENT
??_C@_0BD@IOAEMMN@TRANSFORM_EXPR_TOK?$AA@ DB 'TRANSFORM_EXPR_TOK', 00H ; `string'
CONST	ENDS
;	COMDAT ??_C@_0L@GMKPKOAA@SIZEOF_TOK?$AA@
CONST	SEGMENT
??_C@_0L@GMKPKOAA@SIZEOF_TOK?$AA@ DB 'SIZEOF_TOK', 00H	; `string'
CONST	ENDS
;	COMDAT ??_C@_0N@HAMDNMNC@CONTINUE_TOK?$AA@
CONST	SEGMENT
??_C@_0N@HAMDNMNC@CONTINUE_TOK?$AA@ DB 'CONTINUE_TOK', 00H ; `string'
CONST	ENDS
;	COMDAT ??_C@_09KKGHPNND@BREAK_TOK?$AA@
CONST	SEGMENT
??_C@_09KKGHPNND@BREAK_TOK?$AA@ DB 'BREAK_TOK', 00H	; `string'
CONST	ENDS
;	COMDAT ??_C@_07LLNFJIGA@AVG_TOK?$AA@
CONST	SEGMENT
??_C@_07LLNFJIGA@AVG_TOK?$AA@ DB 'AVG_TOK', 00H		; `string'
CONST	ENDS
;	COMDAT ??_C@_07BFDIJHMN@SUM_TOK?$AA@
CONST	SEGMENT
??_C@_07BFDIJHMN@SUM_TOK?$AA@ DB 'SUM_TOK', 00H		; `string'
CONST	ENDS
;	COMDAT ??_C@_09GAFJMCEH@COUNT_TOK?$AA@
CONST	SEGMENT
??_C@_09GAFJMCEH@COUNT_TOK?$AA@ DB 'COUNT_TOK', 00H	; `string'
CONST	ENDS
;	COMDAT ??_C@_07FKODDAMA@MIN_TOK?$AA@
CONST	SEGMENT
??_C@_07FKODDAMA@MIN_TOK?$AA@ DB 'MIN_TOK', 00H		; `string'
CONST	ENDS
;	COMDAT ??_C@_07LMIDJPCB@MAX_TOK?$AA@
CONST	SEGMENT
??_C@_07LMIDJPCB@MAX_TOK?$AA@ DB 'MAX_TOK', 00H		; `string'
CONST	ENDS
;	COMDAT ??_C@_09NKFLHJOO@PRINT_TOK?$AA@
CONST	SEGMENT
??_C@_09NKFLHJOO@PRINT_TOK?$AA@ DB 'PRINT_TOK', 00H	; `string'
CONST	ENDS
;	COMDAT ??_C@_0BA@PINCIBFB@NONNEGATIVE_TOK?$AA@
CONST	SEGMENT
??_C@_0BA@PINCIBFB@NONNEGATIVE_TOK?$AA@ DB 'NONNEGATIVE_TOK', 00H ; `string'
CONST	ENDS
;	COMDAT ??_C@_0BA@FBPMDEOH@NONPOSITIVE_TOK?$AA@
CONST	SEGMENT
??_C@_0BA@FBPMDEOH@NONPOSITIVE_TOK?$AA@ DB 'NONPOSITIVE_TOK', 00H ; `string'
CONST	ENDS
;	COMDAT ??_C@_0O@EBENAPNG@ERRPRINTF_TOK?$AA@
CONST	SEGMENT
??_C@_0O@EBENAPNG@ERRPRINTF_TOK?$AA@ DB 'ERRPRINTF_TOK', 00H ; `string'
CONST	ENDS
;	COMDAT ??_C@_0L@IHPNBIMI@PRINTF_TOK?$AA@
CONST	SEGMENT
??_C@_0L@IHPNBIMI@PRINTF_TOK?$AA@ DB 'PRINTF_TOK', 00H	; `string'
CONST	ENDS
;	COMDAT ??_C@_0BE@MONPEINN@TRANSFORM_DEPTH_TOK?$AA@
CONST	SEGMENT
??_C@_0BE@MONPEINN@TRANSFORM_DEPTH_TOK?$AA@ DB 'TRANSFORM_DEPTH_TOK', 00H ; `string'
CONST	ENDS
;	COMDAT ??_C@_0BA@CODCPDBO@EXTRAPOLATE_TOK?$AA@
CONST	SEGMENT
??_C@_0BA@CODCPDBO@EXTRAPOLATE_TOK?$AA@ DB 'EXTRAPOLATE_TOK', 00H ; `string'
CONST	ENDS
;	COMDAT ??_C@_0O@JOKMLPAE@DIFFUSION_TOK?$AA@
CONST	SEGMENT
??_C@_0O@JOKMLPAE@DIFFUSION_TOK?$AA@ DB 'DIFFUSION_TOK', 00H ; `string'
CONST	ENDS
;	COMDAT ??_C@_0BE@IGIKNCPE@EVOLVER_VERSION_TOK?$AA@
CONST	SEGMENT
??_C@_0BE@IGIKNCPE@EVOLVER_VERSION_TOK?$AA@ DB 'EVOLVER_VERSION_TOK', 00H ; `string'
CONST	ENDS
;	COMDAT ??_C@_0O@CGOONBPK@QUADRATIC_TOK?$AA@
CONST	SEGMENT
??_C@_0O@CGOONBPK@QUADRATIC_TOK?$AA@ DB 'QUADRATIC_TOK', 00H ; `string'
CONST	ENDS
;	COMDAT ??_C@_0L@GIPFLGKA@LINEAR_TOK?$AA@
CONST	SEGMENT
??_C@_0L@GIPFLGKA@LINEAR_TOK?$AA@ DB 'LINEAR_TOK', 00H	; `string'
CONST	ENDS
;	COMDAT ??_C@_0P@KLGJOHED@EDGEDIVIDE_TOK?$AA@
CONST	SEGMENT
??_C@_0P@KLGJOHED@EDGEDIVIDE_TOK?$AA@ DB 'EDGEDIVIDE_TOK', 00H ; `string'
CONST	ENDS
;	COMDAT ??_C@_0M@MMJNIGOJ@GRAVITY_TOK?$AA@
CONST	SEGMENT
??_C@_0M@MMJNIGOJ@GRAVITY_TOK?$AA@ DB 'GRAVITY_TOK', 00H ; `string'
CONST	ENDS
;	COMDAT ??_C@_0N@IHHPLJIM@EDGEWEED_TOK?$AA@
CONST	SEGMENT
??_C@_0N@IHHPLJIM@EDGEWEED_TOK?$AA@ DB 'EDGEWEED_TOK', 00H ; `string'
CONST	ENDS
;	COMDAT ??_C@_0N@PFGEICLN@AREAWEED_TOK?$AA@
CONST	SEGMENT
??_C@_0N@PFGEICLN@AREAWEED_TOK?$AA@ DB 'AREAWEED_TOK', 00H ; `string'
CONST	ENDS
;	COMDAT ??_C@_0BG@MFDEEJNJ@NO_HESSIAN_NORMAL_TOK?$AA@
CONST	SEGMENT
??_C@_0BG@MFDEEJNJ@NO_HESSIAN_NORMAL_TOK?$AA@ DB 'NO_HESSIAN_NORMAL_TOK', 00H ; `string'
CONST	ENDS
;	COMDAT ??_C@_08CKIPLKK@EXEC_TOK?$AA@
CONST	SEGMENT
??_C@_08CKIPLKK@EXEC_TOK?$AA@ DB 'EXEC_TOK', 00H	; `string'
CONST	ENDS
;	COMDAT ??_C@_0P@NNNEAIAP@EIGENPROBE_TOK?$AA@
CONST	SEGMENT
??_C@_0P@NNNEAIAP@EIGENPROBE_TOK?$AA@ DB 'EIGENPROBE_TOK', 00H ; `string'
CONST	ENDS
;	COMDAT ??_C@_0M@KLDBABAE@LANCZOS_TOK?$AA@
CONST	SEGMENT
??_C@_0M@KLDBABAE@LANCZOS_TOK?$AA@ DB 'LANCZOS_TOK', 00H ; `string'
CONST	ENDS
;	COMDAT ??_C@_0BB@CEGEBFJP@TRIPLE_POINT_TOK?$AA@
CONST	SEGMENT
??_C@_0BB@CEGEBFJP@TRIPLE_POINT_TOK?$AA@ DB 'TRIPLE_POINT_TOK', 00H ; `string'
CONST	ENDS
;	COMDAT ??_C@_0BA@HKAAKKDP@TETRA_POINT_TOK?$AA@
CONST	SEGMENT
??_C@_0BA@HKAAKKDP@TETRA_POINT_TOK?$AA@ DB 'TETRA_POINT_TOK', 00H ; `string'
CONST	ENDS
;	COMDAT ??_C@_0L@JJAEAHIL@SYSTEM_TOK?$AA@
CONST	SEGMENT
??_C@_0L@JJAEAHIL@SYSTEM_TOK?$AA@ DB 'SYSTEM_TOK', 00H	; `string'
CONST	ENDS
;	COMDAT ??_C@_07OHFBECOL@POP_TOK?$AA@
CONST	SEGMENT
??_C@_07OHFBECOL@POP_TOK?$AA@ DB 'POP_TOK', 00H		; `string'
CONST	ENDS
;	COMDAT ??_C@_0BB@EELIJEO@VERTEXNORMAL_TOK?$AA@
CONST	SEGMENT
??_C@_0BB@EELIJEO@VERTEXNORMAL_TOK?$AA@ DB 'VERTEXNORMAL_TOK', 00H ; `string'
CONST	ENDS
;	COMDAT ??_C@_08EPGBAEMO@MOVE_TOK?$AA@
CONST	SEGMENT
??_C@_08EPGBAEMO@MOVE_TOK?$AA@ DB 'MOVE_TOK', 00H	; `string'
CONST	ENDS
;	COMDAT ??_C@_08JPGICBIO@RITZ_TOK?$AA@
CONST	SEGMENT
??_C@_08JPGICBIO@RITZ_TOK?$AA@ DB 'RITZ_TOK', 00H	; `string'
CONST	ENDS
;	COMDAT ??_C@_0O@LFALPICA@ATTRIBUTE_TOK?$AA@
CONST	SEGMENT
??_C@_0O@LFALPICA@ATTRIBUTE_TOK?$AA@ DB 'ATTRIBUTE_TOK', 00H ; `string'
CONST	ENDS
;	COMDAT ??_C@_09BOMOCDGB@UTEST_TOK?$AA@
CONST	SEGMENT
??_C@_09BOMOCDGB@UTEST_TOK?$AA@ DB 'UTEST_TOK', 00H	; `string'
CONST	ENDS
;	COMDAT ??_C@_0N@KGFDFJOF@AUTOCHOP_TOK?$AA@
CONST	SEGMENT
??_C@_0N@KGFDFJOF@AUTOCHOP_TOK?$AA@ DB 'AUTOCHOP_TOK', 00H ; `string'
CONST	ENDS
;	COMDAT ??_C@_0BC@NHGLDCGL@NORMAL_VECTOR_TOK?$AA@
CONST	SEGMENT
??_C@_0BC@NHGLDCGL@NORMAL_VECTOR_TOK?$AA@ DB 'NORMAL_VECTOR_TOK', 00H ; `string'
CONST	ENDS
;	COMDAT ??_C@_0BB@OFAFBGMM@FLUSH_COUNTS_TOK?$AA@
CONST	SEGMENT
??_C@_0BB@OFAFBGMM@FLUSH_COUNTS_TOK?$AA@ DB 'FLUSH_COUNTS_TOK', 00H ; `string'
CONST	ENDS
;	COMDAT ??_C@_0N@BAJGGNME@DATATYPE_TOK?$AA@
CONST	SEGMENT
??_C@_0N@BAJGGNME@DATATYPE_TOK?$AA@ DB 'DATATYPE_TOK', 00H ; `string'
CONST	ENDS
;	COMDAT ??_C@_09CCLIGMME@UPLUS_TOK?$AA@
CONST	SEGMENT
??_C@_09CCLIGMME@UPLUS_TOK?$AA@ DB 'UPLUS_TOK', 00H	; `string'
CONST	ENDS
;	COMDAT ??_C@_0L@MMOGECPG@DEFINE_TOK?$AA@
CONST	SEGMENT
??_C@_0L@MMOGECPG@DEFINE_TOK?$AA@ DB 'DEFINE_TOK', 00H	; `string'
CONST	ENDS
;	COMDAT ??_C@_0BD@PAJJNGDF@STABILITY_TEST_TOK?$AA@
CONST	SEGMENT
??_C@_0BD@PAJJNGDF@STABILITY_TEST_TOK?$AA@ DB 'STABILITY_TEST_TOK', 00H ; `string'
CONST	ENDS
;	COMDAT ??_C@_09NPGILKCF@ALICE_TOK?$AA@
CONST	SEGMENT
??_C@_09NPGILKCF@ALICE_TOK?$AA@ DB 'ALICE_TOK', 00H	; `string'
CONST	ENDS
;	COMDAT ??_C@_0BC@JEJAMIBH@QUOTED_LETTER_TOK?$AA@
CONST	SEGMENT
??_C@_0BC@JEJAMIBH@QUOTED_LETTER_TOK?$AA@ DB 'QUOTED_LETTER_TOK', 00H ; `string'
CONST	ENDS
;	COMDAT ??_C@_09KHNHEDKI@CHDIR_TOK?$AA@
CONST	SEGMENT
??_C@_09KHNHEDKI@CHDIR_TOK?$AA@ DB 'CHDIR_TOK', 00H	; `string'
CONST	ENDS
;	COMDAT ??_C@_0L@HLFGJCBH@COUNTS_TOK?$AA@
CONST	SEGMENT
??_C@_0L@HLFGJCBH@COUNTS_TOK?$AA@ DB 'COUNTS_TOK', 00H	; `string'
CONST	ENDS
;	COMDAT ??_C@_0P@HNKHEBON@RAW_VERAVG_TOK?$AA@
CONST	SEGMENT
??_C@_0P@HNKHEBON@RAW_VERAVG_TOK?$AA@ DB 'RAW_VERAVG_TOK', 00H ; `string'
CONST	ENDS
;	COMDAT ??_C@_0BA@IFOCAJLC@LONG_JIGGLE_TOK?$AA@
CONST	SEGMENT
??_C@_0BA@IFOCAJLC@LONG_JIGGLE_TOK?$AA@ DB 'LONG_JIGGLE_TOK', 00H ; `string'
CONST	ENDS
;	COMDAT ??_C@_0BC@JLLKBANK@SINGLE_LETTER_TOK?$AA@
CONST	SEGMENT
??_C@_0BC@JLLKBANK@SINGLE_LETTER_TOK?$AA@ DB 'SINGLE_LETTER_TOK', 00H ; `string'
CONST	ENDS
;	COMDAT ??_C@_08PPJJDAML@SELF_TOK?$AA@
CONST	SEGMENT
??_C@_08PPJJDAML@SELF_TOK?$AA@ DB 'SELF_TOK', 00H	; `string'
CONST	ENDS
;	COMDAT ??_C@_0N@BIOGPJFD@GEOMPIPE_TOK?$AA@
CONST	SEGMENT
??_C@_0N@BIOGPJFD@GEOMPIPE_TOK?$AA@ DB 'GEOMPIPE_TOK', 00H ; `string'
CONST	ENDS
;	COMDAT ??_C@_07CNNMFDJ@OFF_TOK?$AA@
CONST	SEGMENT
??_C@_07CNNMFDJ@OFF_TOK?$AA@ DB 'OFF_TOK', 00H		; `string'
CONST	ENDS
;	COMDAT ??_C@_06HDOFNCNB@ON_TOK?$AA@
CONST	SEGMENT
??_C@_06HDOFNCNB@ON_TOK?$AA@ DB 'ON_TOK', 00H		; `string'
CONST	ENDS
;	COMDAT ??_C@_08JJNFHAAG@ZOOM_TOK?$AA@
CONST	SEGMENT
??_C@_08JJNFHAAG@ZOOM_TOK?$AA@ DB 'ZOOM_TOK', 00H	; `string'
CONST	ENDS
;	COMDAT ??_C@_08MEPNOEED@READ_TOK?$AA@
CONST	SEGMENT
??_C@_08MEPNOEED@READ_TOK?$AA@ DB 'READ_TOK', 00H	; `string'
CONST	ENDS
;	COMDAT ??_C@_09OLNEEPCL@CHECK_TOK?$AA@
CONST	SEGMENT
??_C@_09OLNEEPCL@CHECK_TOK?$AA@ DB 'CHECK_TOK', 00H	; `string'
CONST	ENDS
;	COMDAT ??_C@_0N@OMAHEGJ@SHOW_VOL_TOK?$AA@
CONST	SEGMENT
??_C@_0N@OMAHEGJ@SHOW_VOL_TOK?$AA@ DB 'SHOW_VOL_TOK', 00H ; `string'
CONST	ENDS
;	COMDAT ??_C@_06ILFGEPBD@GO_TOK?$AA@
CONST	SEGMENT
??_C@_06ILFGEPBD@GO_TOK?$AA@ DB 'GO_TOK', 00H		; `string'
CONST	ENDS
;	COMDAT ??_C@_0BI@JKMHGOPP@VALUE_OF_CONSTRAINT_TOK?$AA@
CONST	SEGMENT
??_C@_0BI@JKMHGOPP@VALUE_OF_CONSTRAINT_TOK?$AA@ DB 'VALUE_OF_CONSTRAINT_T'
	DB	'OK', 00H					; `string'
CONST	ENDS
;	COMDAT ??_C@_09KKIBAPAO@PAUSE_TOK?$AA@
CONST	SEGMENT
??_C@_09KKIBAPAO@PAUSE_TOK?$AA@ DB 'PAUSE_TOK', 00H	; `string'
CONST	ENDS
;	COMDAT ??_C@_0BC@JFNIDHMD@QUANTITY_NAME_TOK?$AA@
CONST	SEGMENT
??_C@_0BC@JFNIDHMD@QUANTITY_NAME_TOK?$AA@ DB 'QUANTITY_NAME_TOK', 00H ; `string'
CONST	ENDS
;	COMDAT ??_C@_0BA@FMGNPKEN@TOGGLEVALUE_TOK?$AA@
CONST	SEGMENT
??_C@_0BA@FMGNPKEN@TOGGLEVALUE_TOK?$AA@ DB 'TOGGLEVALUE_TOK', 00H ; `string'
CONST	ENDS
;	COMDAT ??_C@_0P@EGJLJFC@TOGGLENAME_TOK?$AA@
CONST	SEGMENT
??_C@_0P@EGJLJFC@TOGGLENAME_TOK?$AA@ DB 'TOGGLENAME_TOK', 00H ; `string'
CONST	ENDS
;	COMDAT ??_C@_09BNMDOPJG@UNFIX_TOK?$AA@
CONST	SEGMENT
??_C@_09BNMDOPJG@UNFIX_TOK?$AA@ DB 'UNFIX_TOK', 00H	; `string'
CONST	ENDS
;	COMDAT ??_C@_07NCAGMNBA@FIX_TOK?$AA@
CONST	SEGMENT
??_C@_07NCAGMNBA@FIX_TOK?$AA@ DB 'FIX_TOK', 00H		; `string'
CONST	ENDS
;	COMDAT ??_C@_0BA@EJCJPPGH@STRINGARRAY_TOK?$AA@
CONST	SEGMENT
??_C@_0BA@EJCJPPGH@STRINGARRAY_TOK?$AA@ DB 'STRINGARRAY_TOK', 00H ; `string'
CONST	ENDS
;	COMDAT ??_C@_0N@IIAFLKEI@EDGESWAP_TOK?$AA@
CONST	SEGMENT
??_C@_0N@IIAFLKEI@EDGESWAP_TOK?$AA@ DB 'EDGESWAP_TOK', 00H ; `string'
CONST	ENDS
;	COMDAT ??_C@_09GMGGELCL@SHOWQ_TOK?$AA@
CONST	SEGMENT
??_C@_09GMGGELCL@SHOWQ_TOK?$AA@ DB 'SHOWQ_TOK', 00H	; `string'
CONST	ENDS
;	COMDAT ??_C@_0L@FCBBOALA@RECALC_TOK?$AA@
CONST	SEGMENT
??_C@_0L@FCBBOALA@RECALC_TOK?$AA@ DB 'RECALC_TOK', 00H	; `string'
CONST	ENDS
;	COMDAT ??_C@_0L@IKKFEMHO@REFINE_TOK?$AA@
CONST	SEGMENT
??_C@_0L@IKKFEMHO@REFINE_TOK?$AA@ DB 'REFINE_TOK', 00H	; `string'
CONST	ENDS
;	COMDAT ??_C@_0L@MNMJBOKH@DELETE_TOK?$AA@
CONST	SEGMENT
??_C@_0L@MNMJBOKH@DELETE_TOK?$AA@ DB 'DELETE_TOK', 00H	; `string'
CONST	ENDS
;	COMDAT ??_C@_08JNPOOOLJ@SHOW_TOK?$AA@
CONST	SEGMENT
??_C@_08JNPOOOLJ@SHOW_TOK?$AA@ DB 'SHOW_TOK', 00H	; `string'
CONST	ENDS
;	COMDAT ??_C@_08EMHOHJD@LIST_TOK?$AA@
CONST	SEGMENT
??_C@_08EMHOHJD@LIST_TOK?$AA@ DB 'LIST_TOK', 00H	; `string'
CONST	ENDS
;	COMDAT ??_C@_09DODCJILD@WHERE_TOK?$AA@
CONST	SEGMENT
??_C@_09DODCJILD@WHERE_TOK?$AA@ DB 'WHERE_TOK', 00H	; `string'
CONST	ENDS
;	COMDAT ??_C@_0N@GFOEIJLF@DISSOLVE_TOK?$AA@
CONST	SEGMENT
??_C@_0N@GFOEIJLF@DISSOLVE_TOK?$AA@ DB 'DISSOLVE_TOK', 00H ; `string'
CONST	ENDS
;	COMDAT ??_C@_09COIKBLIF@COORD_TOK?$AA@
CONST	SEGMENT
??_C@_09COIKBLIF@COORD_TOK?$AA@ DB 'COORD_TOK', 00H	; `string'
CONST	ENDS
;	COMDAT ??_C@_0P@HHPIFFLE@CONSTRAINT_TOK?$AA@
CONST	SEGMENT
??_C@_0P@HHPIFFLE@CONSTRAINT_TOK?$AA@ DB 'CONSTRAINT_TOK', 00H ; `string'
CONST	ENDS
;	COMDAT ??_C@_0N@PHNMLNPF@PRESSURE_TOK?$AA@
CONST	SEGMENT
??_C@_0N@PHNMLNPF@PRESSURE_TOK?$AA@ DB 'PRESSURE_TOK', 00H ; `string'
CONST	ENDS
;	COMDAT ??_C@_0M@IHFCJLJD@DENSITY_TOK?$AA@
CONST	SEGMENT
??_C@_0M@IHFCJLJD@DENSITY_TOK?$AA@ DB 'DENSITY_TOK', 00H ; `string'
CONST	ENDS
;	COMDAT ??_C@_09GPLODDDJ@FIXED_TOK?$AA@
CONST	SEGMENT
??_C@_09GPLODDDJ@FIXED_TOK?$AA@ DB 'FIXED_TOK', 00H	; `string'
CONST	ENDS
;	COMDAT ??_C@_07FGDPFIFA@SET_TOK?$AA@
CONST	SEGMENT
??_C@_07FGDPFIFA@SET_TOK?$AA@ DB 'SET_TOK', 00H		; `string'
CONST	ENDS
;	COMDAT ??_C@_0M@HBFKECKJ@NO_DUMP_TOK?$AA@
CONST	SEGMENT
??_C@_0M@HBFKECKJ@NO_DUMP_TOK?$AA@ DB 'NO_DUMP_TOK', 00H ; `string'
CONST	ENDS
;	COMDAT ??_C@_0BD@FKFKHOHL@HESSIAN_SADDLE_TOK?$AA@
CONST	SEGMENT
??_C@_0BD@FKFKHOHL@HESSIAN_SADDLE_TOK?$AA@ DB 'HESSIAN_SADDLE_TOK', 00H ; `string'
CONST	ENDS
;	COMDAT ??_C@_0M@NACPBJAN@VALENCE_TOK?$AA@
CONST	SEGMENT
??_C@_0M@NACPBJAN@VALENCE_TOK?$AA@ DB 'VALENCE_TOK', 00H ; `string'
CONST	ENDS
;	COMDAT ??_C@_0M@HEKKEOOI@OPACITY_TOK?$AA@
CONST	SEGMENT
??_C@_0M@HEKKEOOI@OPACITY_TOK?$AA@ DB 'OPACITY_TOK', 00H ; `string'
CONST	ENDS
;	COMDAT ??_C@_0M@EGGHDCCH@TOPINFO_TOK?$AA@
CONST	SEGMENT
??_C@_0M@EGGHDCCH@TOPINFO_TOK?$AA@ DB 'TOPINFO_TOK', 00H ; `string'
CONST	ENDS
;	COMDAT ??_C@_09JJPKHKNG@UNSET_TOK?$AA@
CONST	SEGMENT
??_C@_09JJPKHKNG@UNSET_TOK?$AA@ DB 'UNSET_TOK', 00H	; `string'
CONST	ENDS
;	COMDAT ??_C@_0O@HDBHPJOE@QUOTATION_TOK?$AA@
CONST	SEGMENT
??_C@_0O@HDBHPJOE@QUOTATION_TOK?$AA@ DB 'QUOTATION_TOK', 00H ; `string'
CONST	ENDS
;	COMDAT ??_C@_08GAFDNJLD@WRAP_TOK?$AA@
CONST	SEGMENT
??_C@_08GAFDNJLD@WRAP_TOK?$AA@ DB 'WRAP_TOK', 00H	; `string'
CONST	ENDS
;	COMDAT ??_C@_0P@KOIADPHD@FACETEDGES_TOK?$AA@
CONST	SEGMENT
??_C@_0P@KOIADPHD@FACETEDGES_TOK?$AA@ DB 'FACETEDGES_TOK', 00H ; `string'
CONST	ENDS
;	COMDAT ??_C@_0N@CJPCEPEG@ORIGINAL_TOK?$AA@
CONST	SEGMENT
??_C@_0N@CJPCEPEG@ORIGINAL_TOK?$AA@ DB 'ORIGINAL_TOK', 00H ; `string'
CONST	ENDS
;	COMDAT ??_C@_07CNPHAFGP@TAG_TOK?$AA@
CONST	SEGMENT
??_C@_07CNPHAFGP@TAG_TOK?$AA@ DB 'TAG_TOK', 00H		; `string'
CONST	ENDS
;	COMDAT ??_C@_07LJFNBENL@OID_TOK?$AA@
CONST	SEGMENT
??_C@_07LJFNBENL@OID_TOK?$AA@ DB 'OID_TOK', 00H		; `string'
CONST	ENDS
;	COMDAT ??_C@_06LBKOMEIN@ID_TOK?$AA@
CONST	SEGMENT
??_C@_06LBKOMEIN@ID_TOK?$AA@ DB 'ID_TOK', 00H		; `string'
CONST	ENDS
;	COMDAT ??_C@_0L@KCIMBLFC@VOLUME_TOK?$AA@
CONST	SEGMENT
??_C@_0L@KCIMBLFC@VOLUME_TOK?$AA@ DB 'VOLUME_TOK', 00H	; `string'
CONST	ENDS
;	COMDAT ??_C@_08IDEMBHGF@AREA_TOK?$AA@
CONST	SEGMENT
??_C@_08IDEMBHGF@AREA_TOK?$AA@ DB 'AREA_TOK', 00H	; `string'
CONST	ENDS
;	COMDAT ??_C@_0L@KHEHMDMH@LENGTH_TOK?$AA@
CONST	SEGMENT
??_C@_0L@KHEHMDMH@LENGTH_TOK?$AA@ DB 'LENGTH_TOK', 00H	; `string'
CONST	ENDS
;	COMDAT ??_C@_0L@JNEKLGBN@NORMAL_TOK?$AA@
CONST	SEGMENT
??_C@_0L@JNEKLGBN@NORMAL_TOK?$AA@ DB 'NORMAL_TOK', 00H	; `string'
CONST	ENDS
;	COMDAT ??_C@_0P@OGKPOJNL@POSTSCRIPT_TOK?$AA@
CONST	SEGMENT
??_C@_0P@OGKPOJNL@POSTSCRIPT_TOK?$AA@ DB 'POSTSCRIPT_TOK', 00H ; `string'
CONST	ENDS
;	COMDAT ??_C@_0BB@NAKAMDFM@HESSIAN_MENU_TOK?$AA@
CONST	SEGMENT
??_C@_0BB@NAKAMDFM@HESSIAN_MENU_TOK?$AA@ DB 'HESSIAN_MENU_TOK', 00H ; `string'
CONST	ENDS
;	COMDAT ??_C@_0L@MKAPIFIG@BODIES_TOK?$AA@
CONST	SEGMENT
??_C@_0L@MKAPIFIG@BODIES_TOK?$AA@ DB 'BODIES_TOK', 00H	; `string'
CONST	ENDS
;	COMDAT ??_C@_0L@JGHICJEL@FACETS_TOK?$AA@
CONST	SEGMENT
??_C@_0L@JGHICJEL@FACETS_TOK?$AA@ DB 'FACETS_TOK', 00H	; `string'
CONST	ENDS
;	COMDAT ??_C@_09MOIOHOMJ@EDGES_TOK?$AA@
CONST	SEGMENT
??_C@_09MOIOHOMJ@EDGES_TOK?$AA@ DB 'EDGES_TOK', 00H	; `string'
CONST	ENDS
;	COMDAT ??_C@_0N@LOGEBPOP@VERTICES_TOK?$AA@
CONST	SEGMENT
??_C@_0N@LOGEBPOP@VERTICES_TOK?$AA@ DB 'VERTICES_TOK', 00H ; `string'
CONST	ENDS
;	COMDAT ??_C@_0BC@BDOBENHH@TORUS_PERIODS_TOK?$AA@
CONST	SEGMENT
??_C@_0BC@BDOBENHH@TORUS_PERIODS_TOK?$AA@ DB 'TORUS_PERIODS_TOK', 00H ; `string'
CONST	ENDS
;	COMDAT ??_C@_0N@JMLFHHMF@VOLCONST_TOK?$AA@
CONST	SEGMENT
??_C@_0N@JMLFHHMF@VOLCONST_TOK?$AA@ DB 'VOLCONST_TOK', 00H ; `string'
CONST	ENDS
;	COMDAT ??_C@_0M@HLDNFNAA@HESSIAN_TOK?$AA@
CONST	SEGMENT
??_C@_0M@HLDNFNAA@HESSIAN_TOK?$AA@ DB 'HESSIAN_TOK', 00H ; `string'
CONST	ENDS
;	COMDAT ??_C@_09HDIDAAOO@COLOR_TOK?$AA@
CONST	SEGMENT
??_C@_09HDIDAAOO@COLOR_TOK?$AA@ DB 'COLOR_TOK', 00H	; `string'
CONST	ENDS
;	COMDAT ??_C@_09CHDHIOJC@SHELL_TOK?$AA@
CONST	SEGMENT
??_C@_09CHDHIOJC@SHELL_TOK?$AA@ DB 'SHELL_TOK', 00H	; `string'
CONST	ENDS
;	COMDAT ??_C@_0L@NFGDPGHD@UMINUS_TOK?$AA@
CONST	SEGMENT
??_C@_0L@NFGDPGHD@UMINUS_TOK?$AA@ DB 'UMINUS_TOK', 00H	; `string'
CONST	ENDS
;	COMDAT ??_C@_09IJJFPNHI@IDENT_TOK?$AA@
CONST	SEGMENT
??_C@_09IJJFPNHI@IDENT_TOK?$AA@ DB 'IDENT_TOK', 00H	; `string'
CONST	ENDS
;	COMDAT ??_C@_0N@LGEOHBPO@FIXEDVOL_TOK?$AA@
CONST	SEGMENT
??_C@_0N@LGEOHBPO@FIXEDVOL_TOK?$AA@ DB 'FIXEDVOL_TOK', 00H ; `string'
CONST	ENDS
;	COMDAT ??_C@_0BE@HJFGHHDA@EXTRA_ATTRIBUTE_TOK?$AA@
CONST	SEGMENT
??_C@_0BE@HJFGHHDA@EXTRA_ATTRIBUTE_TOK?$AA@ DB 'EXTRA_ATTRIBUTE_TOK', 00H ; `string'
CONST	ENDS
;	COMDAT ??_C@_09HAEMKIFH@TOTAL_TOK?$AA@
CONST	SEGMENT
??_C@_09HAEMKIFH@TOTAL_TOK?$AA@ DB 'TOTAL_TOK', 00H	; `string'
CONST	ENDS
;	COMDAT ??_C@_0L@CIPOCKCP@SYMBOL_TOK?$AA@
CONST	SEGMENT
??_C@_0L@CIPOCKCP@SYMBOL_TOK?$AA@ DB 'SYMBOL_TOK', 00H	; `string'
CONST	ENDS
;	COMDAT ??_C@_09LMFGAJJN@PARAM_TOK?$AA@
CONST	SEGMENT
??_C@_09LMFGAJJN@PARAM_TOK?$AA@ DB 'PARAM_TOK', 00H	; `string'
CONST	ENDS
;	COMDAT ??_C@_05MKAHPIFE@G_TOK?$AA@
CONST	SEGMENT
??_C@_05MKAHPIFE@G_TOK?$AA@ DB 'G_TOK', 00H		; `string'
CONST	ENDS
;	COMDAT ??_C@_05IHMPFJFP@E_TOK?$AA@
CONST	SEGMENT
??_C@_05IHMPFJFP@E_TOK?$AA@ DB 'E_TOK', 00H		; `string'
CONST	ENDS
;	COMDAT ??_C@_06PPHGAOEO@PI_TOK?$AA@
CONST	SEGMENT
??_C@_06PPHGAOEO@PI_TOK?$AA@ DB 'PI_TOK', 00H		; `string'
CONST	ENDS
;	COMDAT ??_C@_0M@FJJGIJFE@LOGFILE_TOK?$AA@
CONST	SEGMENT
??_C@_0M@FJJGIJFE@LOGFILE_TOK?$AA@ DB 'LOGFILE_TOK', 00H ; `string'
CONST	ENDS
;	COMDAT ??_C@_0BB@ELDBDBED@DATAFILENAME_TOK?$AA@
CONST	SEGMENT
??_C@_0BB@ELDBDBED@DATAFILENAME_TOK?$AA@ DB 'DATAFILENAME_TOK', 00H ; `string'
CONST	ENDS
;	COMDAT ??_C@_08PMANPAJL@MIDV_TOK?$AA@
CONST	SEGMENT
??_C@_08PMANPAJL@MIDV_TOK?$AA@ DB 'MIDV_TOK', 00H	; `string'
CONST	ENDS
;	COMDAT ??_C@_0N@OOEDLCO@USERFUNC_TOK?$AA@
CONST	SEGMENT
??_C@_0N@OOEDLCO@USERFUNC_TOK?$AA@ DB 'USERFUNC_TOK', 00H ; `string'
CONST	ENDS
;	COMDAT ??_C@_0BC@NKIAPJMA@IS_CONSTRAINT_TOK?$AA@
CONST	SEGMENT
??_C@_0BC@NKIAPJMA@IS_CONSTRAINT_TOK?$AA@ DB 'IS_CONSTRAINT_TOK', 00H ; `string'
CONST	ENDS
;	COMDAT ??_C@_07PKFEHCFD@POW_TOK?$AA@
CONST	SEGMENT
??_C@_07PKFEHCFD@POW_TOK?$AA@ DB 'POW_TOK', 00H		; `string'
CONST	ENDS
;	COMDAT ??_C@_0O@NGKKCGPK@MATHFUNC2_TOK?$AA@
CONST	SEGMENT
??_C@_0O@NGKKCGPK@MATHFUNC2_TOK?$AA@ DB 'MATHFUNC2_TOK', 00H ; `string'
CONST	ENDS
;	COMDAT ??_C@_0N@FPDHDHNA@MATHFUNC_TOK?$AA@
CONST	SEGMENT
??_C@_0N@FPDHDHNA@MATHFUNC_TOK?$AA@ DB 'MATHFUNC_TOK', 00H ; `string'
CONST	ENDS
;	COMDAT ??_C@_0N@GJADPHEC@REDEFINE_TOK?$AA@
CONST	SEGMENT
??_C@_0N@GJADPHEC@REDEFINE_TOK?$AA@ DB 'REDEFINE_TOK', 00H ; `string'
CONST	ENDS
;	COMDAT ??_C@_0N@NLEFEGNA@NEWIDENT_TOK?$AA@
CONST	SEGMENT
??_C@_0N@NLEFEGNA@NEWIDENT_TOK?$AA@ DB 'NEWIDENT_TOK', 00H ; `string'
CONST	ENDS
;	COMDAT ??_C@_0BC@IGAGNLAB@SIGNED_NUMBER_TOK?$AA@
CONST	SEGMENT
??_C@_0BC@IGAGNLAB@SIGNED_NUMBER_TOK?$AA@ DB 'SIGNED_NUMBER_TOK', 00H ; `string'
CONST	ENDS
;	COMDAT ??_C@_08CIKOGGCO@REAL_TOK?$AA@
CONST	SEGMENT
??_C@_08CIKOGGCO@REAL_TOK?$AA@ DB 'REAL_TOK', 00H	; `string'
CONST	ENDS
;	COMDAT ??_C@_0M@GLGOECGI@INTEGER_TOK?$AA@
CONST	SEGMENT
??_C@_0M@GLGOECGI@INTEGER_TOK?$AA@ DB 'INTEGER_TOK', 00H ; `string'
CONST	ENDS
;	COMDAT ??_C@_0BB@EAMCGJMI@LEAD_INTEGER_TOK?$AA@
CONST	SEGMENT
??_C@_0BB@EAMCGJMI@LEAD_INTEGER_TOK?$AA@ DB 'LEAD_INTEGER_TOK', 00H ; `string'
CONST	ENDS
;	COMDAT ??_C@_0BD@JNHBHIMC@ON_ASSIGN_CALL_TOK?$AA@
CONST	SEGMENT
??_C@_0BD@JNHBHIMC@ON_ASSIGN_CALL_TOK?$AA@ DB 'ON_ASSIGN_CALL_TOK', 00H ; `string'
CONST	ENDS
;	COMDAT ??_C@_0BA@DIDJOOKL@VIEW_MATRIX_TOK?$AA@
CONST	SEGMENT
??_C@_0BA@DIDJOOKL@VIEW_MATRIX_TOK?$AA@ DB 'VIEW_MATRIX_TOK', 00H ; `string'
CONST	ENDS
;	COMDAT ??_C@_0N@BAAEJACA@GEOMVIEW_TOK?$AA@
CONST	SEGMENT
??_C@_0N@BAAEJACA@GEOMVIEW_TOK?$AA@ DB 'GEOMVIEW_TOK', 00H ; `string'
CONST	ENDS
;	COMDAT ??_C@_0M@JLMMBPPJ@HISTORY_TOK?$AA@
CONST	SEGMENT
??_C@_0M@JLMMBPPJ@HISTORY_TOK?$AA@ DB 'HISTORY_TOK', 00H ; `string'
CONST	ENDS
;	COMDAT ??_C@_0BC@CMIMJJFD@COMMAND_START_TOK?$AA@
CONST	SEGMENT
??_C@_0BC@CMIMJJFD@COMMAND_START_TOK?$AA@ DB 'COMMAND_START_TOK', 00H ; `string'
CONST	ENDS
;	COMDAT ??_C@_0BF@PNGPAGJP@EXPRESSION_START_TOK?$AA@
CONST	SEGMENT
??_C@_0BF@PNGPAGJP@EXPRESSION_START_TOK?$AA@ DB 'EXPRESSION_START_TOK', 00H ; `string'
CONST	ENDS
;	COMDAT ??_C@_0L@HFCILFIM@$undefined?$AA@
CONST	SEGMENT
??_C@_0L@HFCILFIM@$undefined?$AA@ DB '$undefined', 00H	; `string'
CONST	ENDS
;	COMDAT ??_C@_05KKCIMGE@error?$AA@
CONST	SEGMENT
??_C@_05KKCIMGE@error?$AA@ DB 'error', 00H		; `string'
CONST	ENDS
;	COMDAT ??_C@_04ECLMMOJO@$end?$AA@
CONST	SEGMENT
??_C@_04ECLMMOJO@$end?$AA@ DB '$end', 00H		; `string'
CONST	ENDS
_DATA	SEGMENT
_temp_array_number DD 01H
	ORG $+4
_yytranslate DW	00H
	DW	02H
	DW	02H
	DW	02H
	DW	02H
	DW	02H
	DW	02H
	DW	02H
	DW	02H
	DW	02H
	DW	02H
	DW	02H
	DW	02H
	DW	02H
	DW	02H
	DW	02H
	DW	02H
	DW	02H
	DW	02H
	DW	02H
	DW	02H
	DW	02H
	DW	02H
	DW	02H
	DW	02H
	DW	02H
	DW	02H
	DW	02H
	DW	02H
	DW	02H
	DW	02H
	DW	02H
	DW	02H
	DW	02H
	DW	02H
	DW	02H
	DW	02H
	DW	015cH
	DW	02H
	DW	02H
	DW	0142H
	DW	0143H
	DW	015eH
	DW	015aH
	DW	013bH
	DW	015bH
	DW	013cH
	DW	015fH
	DW	02H
	DW	02H
	DW	02H
	DW	02H
	DW	02H
	DW	02H
	DW	02H
	DW	02H
	DW	02H
	DW	02H
	DW	014bH
	DW	013dH
	DW	0150H
	DW	0149H
	DW	014fH
	DW	014aH
	DW	0165H
	DW	02H
	DW	02H
	DW	02H
	DW	02H
	DW	02H
	DW	02H
	DW	02H
	DW	02H
	DW	02H
	DW	02H
	DW	02H
	DW	02H
	DW	02H
	DW	02H
	DW	02H
	DW	02H
	DW	02H
	DW	02H
	DW	02H
	DW	02H
	DW	02H
	DW	02H
	DW	02H
	DW	02H
	DW	02H
	DW	02H
	DW	013eH
	DW	02H
	DW	013fH
	DW	0162H
	DW	02H
	DW	0144H
	DW	02H
	DW	02H
	DW	02H
	DW	02H
	DW	02H
	DW	02H
	DW	02H
	DW	02H
	DW	02H
	DW	02H
	DW	02H
	DW	02H
	DW	02H
	DW	02H
	DW	02H
	DW	02H
	DW	02H
	DW	02H
	DW	02H
	DW	02H
	DW	02H
	DW	02H
	DW	02H
	DW	02H
	DW	02H
	DW	02H
	DW	0140H
	DW	02H
	DW	0141H
	DW	02H
	DW	02H
	DW	02H
	DW	02H
	DW	02H
	DW	02H
	DW	02H
	DW	02H
	DW	02H
	DW	02H
	DW	02H
	DW	02H
	DW	02H
	DW	02H
	DW	02H
	DW	02H
	DW	02H
	DW	02H
	DW	02H
	DW	02H
	DW	02H
	DW	02H
	DW	02H
	DW	02H
	DW	02H
	DW	02H
	DW	02H
	DW	02H
	DW	02H
	DW	02H
	DW	02H
	DW	02H
	DW	02H
	DW	02H
	DW	02H
	DW	02H
	DW	02H
	DW	02H
	DW	02H
	DW	02H
	DW	02H
	DW	02H
	DW	02H
	DW	02H
	DW	02H
	DW	02H
	DW	02H
	DW	02H
	DW	02H
	DW	02H
	DW	02H
	DW	02H
	DW	02H
	DW	02H
	DW	02H
	DW	02H
	DW	02H
	DW	02H
	DW	02H
	DW	02H
	DW	02H
	DW	02H
	DW	02H
	DW	02H
	DW	02H
	DW	02H
	DW	02H
	DW	02H
	DW	02H
	DW	02H
	DW	02H
	DW	02H
	DW	02H
	DW	02H
	DW	02H
	DW	02H
	DW	02H
	DW	02H
	DW	02H
	DW	02H
	DW	02H
	DW	02H
	DW	02H
	DW	02H
	DW	02H
	DW	02H
	DW	02H
	DW	02H
	DW	02H
	DW	02H
	DW	02H
	DW	02H
	DW	02H
	DW	02H
	DW	02H
	DW	02H
	DW	02H
	DW	02H
	DW	02H
	DW	02H
	DW	02H
	DW	02H
	DW	02H
	DW	02H
	DW	02H
	DW	02H
	DW	02H
	DW	02H
	DW	02H
	DW	02H
	DW	02H
	DW	02H
	DW	02H
	DW	02H
	DW	02H
	DW	02H
	DW	02H
	DW	02H
	DW	02H
	DW	02H
	DW	02H
	DW	02H
	DW	02H
	DW	02H
	DW	02H
	DW	02H
	DW	02H
	DW	02H
	DW	02H
	DW	02H
	DW	01H
	DW	02H
	DW	03H
	DW	04H
	DW	05H
	DW	06H
	DW	07H
	DW	08H
	DW	09H
	DW	0aH
	DW	0bH
	DW	0cH
	DW	0dH
	DW	0eH
	DW	0fH
	DW	010H
	DW	011H
	DW	012H
	DW	013H
	DW	014H
	DW	015H
	DW	016H
	DW	017H
	DW	018H
	DW	019H
	DW	01aH
	DW	01bH
	DW	01cH
	DW	01dH
	DW	01eH
	DW	01fH
	DW	020H
	DW	021H
	DW	022H
	DW	023H
	DW	024H
	DW	025H
	DW	026H
	DW	027H
	DW	028H
	DW	029H
	DW	02aH
	DW	02bH
	DW	02cH
	DW	02dH
	DW	02eH
	DW	02fH
	DW	030H
	DW	031H
	DW	032H
	DW	033H
	DW	034H
	DW	035H
	DW	036H
	DW	037H
	DW	038H
	DW	039H
	DW	03aH
	DW	03bH
	DW	03cH
	DW	03dH
	DW	03eH
	DW	03fH
	DW	040H
	DW	041H
	DW	042H
	DW	043H
	DW	044H
	DW	045H
	DW	046H
	DW	047H
	DW	048H
	DW	049H
	DW	04aH
	DW	04bH
	DW	04cH
	DW	04dH
	DW	04eH
	DW	04fH
	DW	050H
	DW	051H
	DW	052H
	DW	053H
	DW	054H
	DW	055H
	DW	056H
	DW	057H
	DW	058H
	DW	059H
	DW	05aH
	DW	05bH
	DW	05cH
	DW	05dH
	DW	05eH
	DW	05fH
	DW	060H
	DW	061H
	DW	062H
	DW	063H
	DW	064H
	DW	065H
	DW	066H
	DW	067H
	DW	068H
	DW	069H
	DW	06aH
	DW	06bH
	DW	06cH
	DW	06dH
	DW	06eH
	DW	06fH
	DW	070H
	DW	071H
	DW	072H
	DW	073H
	DW	074H
	DW	075H
	DW	076H
	DW	077H
	DW	078H
	DW	079H
	DW	07aH
	DW	07bH
	DW	07cH
	DW	07dH
	DW	07eH
	DW	07fH
	DW	080H
	DW	081H
	DW	082H
	DW	083H
	DW	084H
	DW	085H
	DW	086H
	DW	087H
	DW	088H
	DW	089H
	DW	08aH
	DW	08bH
	DW	08cH
	DW	08dH
	DW	08eH
	DW	08fH
	DW	090H
	DW	091H
	DW	092H
	DW	093H
	DW	094H
	DW	095H
	DW	096H
	DW	097H
	DW	098H
	DW	099H
	DW	09aH
	DW	09bH
	DW	09cH
	DW	09dH
	DW	09eH
	DW	09fH
	DW	0a0H
	DW	0a1H
	DW	0a2H
	DW	0a3H
	DW	0a4H
	DW	0a5H
	DW	0a6H
	DW	0a7H
	DW	0a8H
	DW	0a9H
	DW	0aaH
	DW	0abH
	DW	0acH
	DW	0adH
	DW	0aeH
	DW	0afH
	DW	0b0H
	DW	0b1H
	DW	0b2H
	DW	0b3H
	DW	0b4H
	DW	0b5H
	DW	0b6H
	DW	0b7H
	DW	0b8H
	DW	0b9H
	DW	0baH
	DW	0bbH
	DW	0bcH
	DW	0bdH
	DW	0beH
	DW	0bfH
	DW	0c0H
	DW	0c1H
	DW	0c2H
	DW	0c3H
	DW	0c4H
	DW	0c5H
	DW	0c6H
	DW	0c7H
	DW	0c8H
	DW	0c9H
	DW	0caH
	DW	0cbH
	DW	0ccH
	DW	0cdH
	DW	0ceH
	DW	0cfH
	DW	0d0H
	DW	0d1H
	DW	0d2H
	DW	0d3H
	DW	0d4H
	DW	0d5H
	DW	0d6H
	DW	0d7H
	DW	0d8H
	DW	0d9H
	DW	0daH
	DW	0dbH
	DW	0dcH
	DW	0ddH
	DW	0deH
	DW	0dfH
	DW	0e0H
	DW	0e1H
	DW	0e2H
	DW	0e3H
	DW	0e4H
	DW	0e5H
	DW	0e6H
	DW	0e7H
	DW	0e8H
	DW	0e9H
	DW	0eaH
	DW	0ebH
	DW	0ecH
	DW	0edH
	DW	0eeH
	DW	0efH
	DW	0f0H
	DW	0f1H
	DW	0f2H
	DW	0f3H
	DW	0f4H
	DW	0f5H
	DW	0f6H
	DW	0f7H
	DW	0f8H
	DW	0f9H
	DW	0faH
	DW	0fbH
	DW	0fcH
	DW	0fdH
	DW	0feH
	DW	0ffH
	DW	0100H
	DW	0101H
	DW	0102H
	DW	0103H
	DW	0104H
	DW	0105H
	DW	0106H
	DW	0107H
	DW	0108H
	DW	0109H
	DW	010aH
	DW	010bH
	DW	010cH
	DW	010dH
	DW	010eH
	DW	010fH
	DW	0110H
	DW	0111H
	DW	0112H
	DW	0113H
	DW	0114H
	DW	0115H
	DW	0116H
	DW	0117H
	DW	0118H
	DW	0119H
	DW	011aH
	DW	011bH
	DW	011cH
	DW	011dH
	DW	011eH
	DW	011fH
	DW	0120H
	DW	0121H
	DW	0122H
	DW	0123H
	DW	0124H
	DW	0125H
	DW	0126H
	DW	0127H
	DW	0128H
	DW	0129H
	DW	012aH
	DW	012bH
	DW	012cH
	DW	012dH
	DW	012eH
	DW	012fH
	DW	0130H
	DW	0131H
	DW	0132H
	DW	0133H
	DW	0134H
	DW	0135H
	DW	0136H
	DW	0137H
	DW	0138H
	DW	0139H
	DW	013aH
	DW	0145H
	DW	0146H
	DW	0147H
	DW	0148H
	DW	014cH
	DW	014dH
	DW	014eH
	DW	0151H
	DW	0152H
	DW	0153H
	DW	0154H
	DW	0155H
	DW	0156H
	DW	0157H
	DW	0158H
	DW	0159H
	DW	015dH
	DW	0160H
	DW	0161H
	DW	0163H
	DW	0164H
	ORG $+2
_yyprhs	DW	00H
	DW	00H
	DW	03H
	DW	05H
	DW	06H
	DW	0aH
	DW	0cH
	DW	0eH
	DW	012H
	DW	016H
	DW	01aH
	DW	01eH
	DW	022H
	DW	026H
	DW	02aH
	DW	02eH
	DW	032H
	DW	036H
	DW	03aH
	DW	03eH
	DW	042H
	DW	045H
	DW	048H
	DW	04aH
	DW	04cH
	DW	04eH
	DW	051H
	DW	054H
	DW	056H
	DW	059H
	DW	05cH
	DW	05fH
	DW	061H
	DW	063H
	DW	064H
	DW	069H
	DW	06cH
	DW	070H
	DW	072H
	DW	074H
	DW	076H
	DW	079H
	DW	07cH
	DW	07eH
	DW	081H
	DW	083H
	DW	085H
	DW	087H
	DW	08aH
	DW	08dH
	DW	08eH
	DW	094H
	DW	097H
	DW	099H
	DW	09dH
	DW	0a0H
	DW	0a2H
	DW	0a5H
	DW	0a8H
	DW	0aaH
	DW	0adH
	DW	0b0H
	DW	0b3H
	DW	0b5H
	DW	0b8H
	DW	0bbH
	DW	0beH
	DW	0c0H
	DW	0c3H
	DW	0c6H
	DW	0c9H
	DW	0cbH
	DW	0ceH
	DW	0d1H
	DW	0d4H
	DW	0d7H
	DW	0daH
	DW	0ddH
	DW	0e0H
	DW	0e2H
	DW	0e5H
	DW	0e7H
	DW	0eaH
	DW	0edH
	DW	0efH
	DW	0f2H
	DW	0f5H
	DW	0f7H
	DW	0faH
	DW	0fdH
	DW	0ffH
	DW	0101H
	DW	0104H
	DW	0107H
	DW	0108H
	DW	010dH
	DW	0110H
	DW	0113H
	DW	0114H
	DW	0118H
	DW	011cH
	DW	011fH
	DW	0122H
	DW	0126H
	DW	012aH
	DW	012dH
	DW	0131H
	DW	0134H
	DW	0137H
	DW	013aH
	DW	013eH
	DW	0141H
	DW	0144H
	DW	0146H
	DW	0148H
	DW	014aH
	DW	014cH
	DW	014fH
	DW	0152H
	DW	0154H
	DW	0157H
	DW	015aH
	DW	015dH
	DW	0160H
	DW	0162H
	DW	0165H
	DW	0168H
	DW	016bH
	DW	016fH
	DW	0172H
	DW	0175H
	DW	0179H
	DW	017cH
	DW	017fH
	DW	0182H
	DW	0185H
	DW	0188H
	DW	018bH
	DW	018eH
	DW	0193H
	DW	0196H
	DW	0199H
	DW	019cH
	DW	019fH
	DW	01a2H
	DW	01a5H
	DW	01a8H
	DW	01abH
	DW	01aeH
	DW	01b1H
	DW	01b4H
	DW	01b7H
	DW	01b9H
	DW	01bcH
	DW	01bfH
	DW	01c2H
	DW	01c5H
	DW	01c8H
	DW	01cbH
	DW	01ceH
	DW	01d5H
	DW	01d8H
	DW	01dbH
	DW	01e2H
	DW	01e5H
	DW	01ecH
	DW	01efH
	DW	01f2H
	DW	01f5H
	DW	01f8H
	DW	01faH
	DW	01fdH
	DW	0200H
	DW	0202H
	DW	0205H
	DW	0208H
	DW	020aH
	DW	020cH
	DW	020fH
	DW	0211H
	DW	0213H
	DW	0215H
	DW	0217H
	DW	0219H
	DW	021bH
	DW	021dH
	DW	021fH
	DW	0221H
	DW	0223H
	DW	0225H
	DW	0227H
	DW	0229H
	DW	022dH
	DW	0230H
	DW	0233H
	DW	0236H
	DW	0239H
	DW	023bH
	DW	023dH
	DW	0240H
	DW	0242H
	DW	0244H
	DW	0246H
	DW	0248H
	DW	024aH
	DW	024cH
	DW	024eH
	DW	0250H
	DW	0252H
	DW	0254H
	DW	0256H
	DW	0258H
	DW	025aH
	DW	025cH
	DW	025eH
	DW	0260H
	DW	0262H
	DW	0264H
	DW	0266H
	DW	0268H
	DW	026aH
	DW	026cH
	DW	026eH
	DW	0270H
	DW	0273H
	DW	0276H
	DW	0279H
	DW	027cH
	DW	0280H
	DW	0283H
	DW	0287H
	DW	028aH
	DW	028eH
	DW	0291H
	DW	0295H
	DW	0298H
	DW	029aH
	DW	029dH
	DW	029fH
	DW	02a2H
	DW	02a4H
	DW	02a7H
	DW	02a9H
	DW	02abH
	DW	02adH
	DW	02b0H
	DW	02b4H
	DW	02b5H
	DW	02baH
	DW	02bdH
	DW	02c1H
	DW	02c2H
	DW	02c7H
	DW	02cbH
	DW	02cfH
	DW	02d3H
	DW	02d7H
	DW	02daH
	DW	02dfH
	DW	02e4H
	DW	02e9H
	DW	02eeH
	DW	02f2H
	DW	02f6H
	DW	02faH
	DW	02feH
	DW	0302H
	DW	0306H
	DW	030aH
	DW	030eH
	DW	0312H
	DW	0315H
	DW	0318H
	DW	031bH
	DW	031eH
	DW	0322H
	DW	0325H
	DW	032bH
	DW	0331H
	DW	0337H
	DW	033dH
	DW	0343H
	DW	0347H
	DW	034bH
	DW	0350H
	DW	0355H
	DW	035aH
	DW	035fH
	DW	0364H
	DW	0368H
	DW	036cH
	DW	0370H
	DW	0374H
	DW	0378H
	DW	037bH
	DW	037eH
	DW	0381H
	DW	0384H
	DW	0387H
	DW	038aH
	DW	038dH
	DW	0390H
	DW	0393H
	DW	0396H
	DW	0399H
	DW	039cH
	DW	039fH
	DW	03a2H
	DW	03a5H
	DW	03a8H
	DW	03abH
	DW	03aeH
	DW	03b0H
	DW	03b3H
	DW	03b7H
	DW	03baH
	DW	03bdH
	DW	03c0H
	DW	03c3H
	DW	03c7H
	DW	03caH
	DW	03ceH
	DW	03d2H
	DW	03d5H
	DW	03d9H
	DW	03dcH
	DW	03dfH
	DW	03e2H
	DW	03e5H
	DW	03ebH
	DW	03efH
	DW	03f3H
	DW	03f8H
	DW	03fdH
	DW	0402H
	DW	0407H
	DW	040cH
	DW	0411H
	DW	0415H
	DW	0417H
	DW	041bH
	DW	041fH
	DW	0423H
	DW	0425H
	DW	0429H
	DW	042eH
	DW	0432H
	DW	0435H
	DW	0438H
	DW	043cH
	DW	043fH
	DW	0442H
	DW	0445H
	DW	0447H
	DW	0449H
	DW	044bH
	DW	044dH
	DW	044fH
	DW	0451H
	DW	0453H
	DW	0455H
	DW	0457H
	DW	0459H
	DW	045bH
	DW	045dH
	DW	0460H
	DW	0464H
	DW	0469H
	DW	046cH
	DW	046fH
	DW	0473H
	DW	0478H
	DW	047bH
	DW	047eH
	DW	0480H
	DW	0482H
	DW	0483H
	DW	0485H
	DW	0487H
	DW	0488H
	DW	0489H
	DW	0491H
	DW	0493H
	DW	0495H
	DW	0496H
	DW	0497H
	DW	049eH
	DW	04a2H
	DW	04a5H
	DW	04a8H
	DW	04aaH
	DW	04aeH
	DW	04b2H
	DW	04b5H
	DW	04b8H
	DW	04bbH
	DW	04bfH
	DW	04c4H
	DW	04c8H
	DW	04cdH
	DW	04d2H
	DW	04d7H
	DW	04dcH
	DW	04deH
	DW	04e0H
	DW	04e2H
	DW	04e4H
	DW	04e7H
	DW	04efH
	DW	04f3H
	DW	04f6H
	DW	04f9H
	DW	04fdH
	DW	0501H
	DW	0504H
	DW	0508H
	DW	050cH
	DW	050fH
	DW	0511H
	DW	0513H
	DW	0515H
	DW	0517H
	DW	051bH
	DW	051fH
	DW	0522H
	DW	0526H
	DW	052aH
	DW	052cH
	DW	052eH
	DW	0534H
	DW	053aH
	DW	053dH
	DW	053eH
	DW	053fH
	DW	0547H
	DW	0549H
	DW	054cH
	DW	054fH
	DW	0552H
	DW	0555H
	DW	0558H
	DW	055bH
	DW	055eH
	DW	055fH
	DW	0564H
	DW	0567H
	DW	056aH
	DW	056dH
	DW	0571H
	DW	0574H
	DW	0577H
	DW	057aH
	DW	057dH
	DW	0580H
	DW	0581H
	DW	0585H
	DW	0586H
	DW	058cH
	DW	0590H
	DW	0591H
	DW	0597H
	DW	059bH
	DW	059cH
	DW	05a1H
	DW	05a2H
	DW	05a7H
	DW	05abH
	DW	05afH
	DW	05b2H
	DW	05b5H
	DW	05b7H
	DW	05bbH
	DW	05bdH
	DW	05bfH
	DW	05c1H
	DW	05c3H
	DW	05c5H
	DW	05c7H
	DW	05c9H
	DW	05cbH
	DW	05cdH
	DW	05cfH
	DW	05d1H
	DW	05d2H
	DW	05d7H
	DW	05d8H
	DW	05ddH
	DW	05deH
	DW	05e3H
	DW	05e6H
	DW	05e9H
	DW	05edH
	DW	05f1H
	DW	05f3H
	DW	05f7H
	DW	05fbH
	DW	05fdH
	DW	0600H
	DW	0603H
	DW	0606H
	DW	0609H
	DW	060cH
	DW	060fH
	DW	0611H
	DW	0615H
	DW	0619H
	DW	061bH
	DW	061fH
	DW	0623H
	DW	0625H
	DW	0629H
	DW	062aH
	DW	062fH
	DW	0631H
	DW	0634H
	DW	0637H
	DW	063aH
	DW	063dH
	DW	0640H
	DW	0643H
	DW	0646H
	DW	064aH
	DW	064dH
	DW	0650H
	DW	0653H
	DW	0656H
	DW	0659H
	DW	065cH
	DW	065fH
	DW	0661H
	DW	0662H
	DW	0668H
	DW	066bH
	DW	066fH
	DW	0674H
	DW	0677H
	DW	067bH
	DW	0680H
	DW	0683H
	DW	068aH
	DW	068dH
	DW	0692H
	DW	0695H
	DW	069cH
	DW	06a3H
	DW	06aaH
	DW	06adH
	DW	06b8H
	DW	06bbH
	DW	06bdH
	DW	06c2H
	DW	06c5H
	DW	06caH
	DW	06cdH
	DW	06d4H
	DW	06d7H
	DW	06dcH
	DW	06dfH
	DW	06e4H
	DW	06e7H
	DW	06e9H
	DW	06ecH
	DW	06eeH
	DW	06f2H
	DW	06f4H
	DW	06f7H
	DW	06f9H
	DW	06fcH
	DW	0704H
	DW	0707H
	DW	070cH
	DW	070fH
	DW	0714H
	DW	0717H
	DW	071eH
	DW	0721H
	DW	0728H
	DW	072bH
	DW	0732H
	DW	0735H
	DW	073eH
	DW	0741H
	DW	0749H
	DW	074fH
	DW	0753H
	DW	0758H
	DW	075fH
	DW	0762H
	DW	0768H
	DW	076cH
	DW	076eH
	DW	0771H
	DW	0773H
	DW	0776H
	DW	0778H
	DW	077aH
	DW	077cH
	DW	077fH
	DW	0782H
	DW	0785H
	DW	0787H
	DW	078aH
	DW	078cH
	DW	078fH
	DW	0791H
	DW	0794H
	DW	0796H
	DW	0799H
	DW	079bH
	DW	079eH
	DW	07a0H
	DW	07a3H
	DW	07a5H
	DW	07a8H
	DW	07aaH
	DW	07adH
	DW	07afH
	DW	07b2H
	DW	07b4H
	DW	07b7H
	DW	07b9H
	DW	07bbH
	DW	07beH
	DW	07c1H
	DW	07c4H
	DW	07c7H
	DW	07caH
	DW	07cdH
	DW	07cfH
	DW	07d1H
	DW	07d3H
	DW	07d5H
	DW	07d7H
	DW	07d9H
	DW	07dcH
	DW	07e1H
	DW	07e5H
	DW	07eaH
	DW	07ecH
	DW	07eeH
	DW	07f0H
	DW	07f3H
	DW	07f5H
	DW	07fbH
	DW	0800H
	DW	0806H
	DW	0808H
	DW	080bH
	DW	080dH
	DW	0810H
	DW	0813H
	DW	0816H
	DW	0819H
	DW	081cH
	DW	0820H
	DW	0824H
	DW	0826H
	DW	0828H
	DW	082aH
	DW	082dH
	DW	082fH
	DW	0831H
	DW	0833H
	DW	0835H
	DW	0837H
	DW	0839H
	DW	083bH
	DW	083dH
	DW	0840H
	DW	0843H
	DW	0845H
	DW	0849H
	DW	084dH
	DW	084fH
	DW	0851H
	DW	0853H
	DW	0855H
	DW	0857H
	DW	0859H
	DW	085bH
	DW	085dH
	DW	085fH
	DW	0861H
	DW	0863H
	DW	0865H
	DW	0867H
	DW	0869H
	DW	086bH
	DW	086dH
	DW	086fH
	DW	0871H
	DW	0873H
	DW	0875H
	DW	0877H
	DW	0879H
	DW	087bH
	DW	087dH
	DW	087fH
	DW	0881H
	DW	0883H
	DW	0885H
	DW	0887H
	DW	0889H
	DW	088bH
	DW	088dH
	DW	088fH
	DW	0891H
	DW	0893H
	DW	0895H
	DW	0897H
	DW	0899H
	DW	089bH
	DW	089dH
	DW	089fH
	DW	08a1H
	DW	08a3H
	DW	08a5H
	DW	08a7H
	DW	08a9H
	DW	08abH
	DW	08adH
	DW	08b0H
	DW	08b3H
	DW	08b6H
	DW	08b9H
	DW	08bcH
	DW	08bfH
	DW	08c2H
	DW	08c5H
	DW	08c8H
	DW	08cbH
	DW	08ceH
	DW	08d1H
	DW	08d4H
	DW	08d7H
	DW	08daH
	DW	08ddH
	DW	08dfH
	DW	08e2H
	DW	08e5H
	DW	08eaH
	DW	08edH
	DW	08f1H
	DW	08f6H
	DW	08fbH
	DW	0900H
	DW	0903H
	DW	0905H
	DW	0907H
	DW	0909H
	DW	090cH
	DW	090fH
	DW	0913H
	DW	0916H
	DW	0918H
	DW	091aH
	DW	091cH
	DW	091eH
	DW	0922H
	DW	0926H
	DW	0928H
	DW	092bH
	DW	092fH
	DW	0933H
	DW	0937H
	DW	093bH
	DW	093fH
	DW	0943H
	DW	0947H
	DW	094bH
	DW	094fH
	DW	0953H
	DW	0957H
	DW	095bH
	DW	095eH
	DW	0962H
	DW	0966H
	DW	0969H
	DW	096bH
	DW	096dH
	DW	096fH
	DW	0971H
	DW	0973H
	DW	0975H
	DW	0977H
	DW	0979H
	DW	097bH
	DW	0980H
	DW	0983H
	DW	098aH
	DW	098cH
	DW	0990H
	DW	0994H
	DW	0998H
	DW	099cH
	DW	09a0H
	DW	09a4H
	DW	09a8H
	DW	09acH
	DW	09b0H
	DW	09b4H
	DW	09b8H
	DW	09bcH
	DW	09c0H
	DW	09c4H
	DW	09c8H
	DW	09ccH
	DW	09d0H
	DW	09d5H
	DW	09daH
	DW	09deH
	DW	09e2H
	DW	09e6H
	DW	09eaH
	DW	09eeH
	DW	09f2H
	DW	09f6H
	DW	09faH
	DW	09feH
	DW	0a02H
	DW	0a06H
	DW	0a0aH
	DW	0a0eH
	DW	0a12H
	DW	0a16H
	DW	0a1aH
	DW	0a1eH
	DW	0a21H
	DW	0a24H
	DW	0a27H
	DW	0a2aH
	DW	0a2dH
	DW	0a2eH
	DW	0a2fH
	DW	0a37H
	DW	0a3bH
	DW	0a3dH
	DW	0a3fH
	DW	0a41H
	DW	0a43H
	DW	0a45H
	DW	0a47H
	DW	0a49H
	DW	0a4cH
	DW	0a4fH
	DW	0a51H
	DW	0a56H
	DW	0a59H
	DW	0a5aH
	DW	0a5eH
	DW	0a60H
	DW	0a63H
	DW	0a64H
	DW	0a68H
	DW	0a6bH
	DW	0a6cH
	DW	0a74H
	DW	0a75H
	DW	0a7dH
	DW	0a7eH
	DW	0a82H
	DW	0a84H
	DW	0a86H
	DW	0a88H
	DW	0a8aH
	DW	0a8cH
	DW	0a8eH
	DW	0a90H
	DW	0a92H
	DW	0a94H
	DW	0a96H
	DW	0a98H
	DW	0a9aH
	DW	0a9cH
	DW	0aa0H
	DW	0aa6H
	DW	0aa8H
	DW	0aaaH
	DW	0aacH
	DW	0aaeH
	DW	0ab0H
	DW	0ab2H
	DW	0ab4H
	DW	0ab6H
	DW	0ab8H
	DW	0abaH
	DW	0abcH
	DW	0abeH
	DW	0ac0H
	DW	0ac2H
	DW	0ac4H
	DW	0ac6H
	DW	0ac8H
	DW	0acaH
	DW	0accH
	DW	0aceH
	DW	0ad1H
	DW	0ad3H
	DW	0ad5H
	DW	0ad7H
	DW	0ad9H
	DW	0adaH
	DW	0ae1H
	DW	0ae2H
	DW	0aeaH
	DW	0aebH
	DW	0af1H
	DW	0af2H
	DW	0af9H
	DW	0afeH
	DW	0b04H
	DW	0b06H
	DW	0b09H
	DW	0b0fH
	DW	0b14H
	DW	0b1bH
	DW	0b23H
	DW	0b2aH
	DW	0b31H
	DW	0b39H
	DW	0b3eH
	DW	0b43H
	DW	0b4aH
	DW	0b51H
	DW	0b56H
	DW	0b5bH
	DW	0b62H
	DW	0b69H
	DW	0b6dH
	DW	0b71H
	DW	0b77H
	DW	0b7dH
	DW	0b81H
	DW	0b85H
	DW	0b8bH
	DW	0b91H
	DW	0b94H
	DW	0b96H
	DW	0b98H
	DW	0b9aH
	DW	0b9cH
	DW	0b9eH
	DW	0ba0H
	DW	0ba2H
	DW	0ba4H
	DW	0ba6H
	DW	0ba8H
	DW	0baaH
	DW	0bacH
	DW	0baeH
	DW	0bb0H
	DW	0bb2H
	DW	0bb4H
	DW	0bb6H
	DW	0bb8H
	DW	0bbaH
	DW	0bbcH
	DW	0bc0H
	DW	0bc6H
	DW	0bc8H
	DW	0bccH
	DW	0bceH
	DW	0bd3H
	DW	0bdaH
	DW	0be0H
	DW	0be2H
	DW	0be6H
	DW	0be8H
	DW	0bedH
	DW	0bf3H
	DW	0bfaH
	DW	0bfdH
	DW	0bffH
	DW	0c02H
	ORG $+4
_yyrhs	DW	0167H
	DW	00H
	DW	0ffffH
	DW	04H
	DW	0ffffH
	DW	0ffffH
	DW	04H
	DW	0168H
	DW	0169H
	DW	0ffffH
	DW	016cH
	DW	0ffffH
	DW	016bH
	DW	0ffffH
	DW	016aH
	DW	0146H
	DW	01baH
	DW	0ffffH
	DW	016aH
	DW	0146H
	DW	01H
	DW	0ffffH
	DW	016aH
	DW	0d5H
	DW	01baH
	DW	0ffffH
	DW	016aH
	DW	0d5H
	DW	01H
	DW	0ffffH
	DW	016aH
	DW	0f3H
	DW	01baH
	DW	0ffffH
	DW	016aH
	DW	0f3H
	DW	01H
	DW	0ffffH
	DW	016aH
	DW	0f0H
	DW	01baH
	DW	0ffffH
	DW	016aH
	DW	0f0H
	DW	01H
	DW	0ffffH
	DW	016aH
	DW	0eeH
	DW	01baH
	DW	0ffffH
	DW	016aH
	DW	0eeH
	DW	01H
	DW	0ffffH
	DW	012bH
	DW	0bbH
	DW	0185H
	DW	0ffffH
	DW	012bH
	DW	0d2H
	DW	0185H
	DW	0ffffH
	DW	012bH
	DW	010aH
	DW	0185H
	DW	0ffffH
	DW	012bH
	DW	01H
	DW	0ffffH
	DW	037H
	DW	012bH
	DW	0ffffH
	DW	012cH
	DW	0ffffH
	DW	01H
	DW	0ffffH
	DW	0bbH
	DW	0ffffH
	DW	0bbH
	DW	0185H
	DW	0ffffH
	DW	0bbH
	DW	01H
	DW	0ffffH
	DW	0e5H
	DW	0ffffH
	DW	0e5H
	DW	0185H
	DW	0ffffH
	DW	0e5H
	DW	01H
	DW	0ffffH
	DW	016aH
	DW	01H
	DW	0ffffH
	DW	0172H
	DW	0ffffH
	DW	0173H
	DW	0ffffH
	DW	0ffffH
	DW	0140H
	DW	016eH
	DW	016cH
	DW	0141H
	DW	0ffffH
	DW	0140H
	DW	0141H
	DW	0ffffH
	DW	0140H
	DW	01H
	DW	0141H
	DW	0ffffH
	DW	0170H
	DW	0ffffH
	DW	016aH
	DW	0ffffH
	DW	016dH
	DW	0ffffH
	DW	016dH
	DW	0185H
	DW	0ffffH
	DW	016dH
	DW	01H
	DW	0ffffH
	DW	013dH
	DW	0ffffH
	DW	016aH
	DW	013dH
	DW	0ffffH
	DW	0170H
	DW	0ffffH
	DW	016aH
	DW	0ffffH
	DW	0171H
	DW	0ffffH
	DW	0173H
	DW	016aH
	DW	0ffffH
	DW	0173H
	DW	0171H
	DW	0ffffH
	DW	0ffffH
	DW	0c5H
	DW	0185H
	DW	0175H
	DW	0147H
	DW	016aH
	DW	0ffffH
	DW	0c5H
	DW	01H
	DW	0ffffH
	DW	0174H
	DW	0ffffH
	DW	0174H
	DW	0148H
	DW	016aH
	DW	0ffffH
	DW	0148H
	DW	01H
	DW	0ffffH
	DW	014aH
	DW	0ffffH
	DW	06H
	DW	01baH
	DW	0ffffH
	DW	06H
	DW	01b8H
	DW	0ffffH
	DW	06H
	DW	0ffffH
	DW	06H
	DW	01H
	DW	0ffffH
	DW	05bH
	DW	01baH
	DW	0ffffH
	DW	05bH
	DW	01b8H
	DW	0ffffH
	DW	05bH
	DW	0ffffH
	DW	05bH
	DW	01H
	DW	0ffffH
	DW	016H
	DW	01baH
	DW	0ffffH
	DW	016H
	DW	01b8H
	DW	0ffffH
	DW	016H
	DW	0ffffH
	DW	016H
	DW	01H
	DW	0ffffH
	DW	094H
	DW	01baH
	DW	0ffffH
	DW	094H
	DW	01b8H
	DW	0ffffH
	DW	094H
	DW	0ffffH
	DW	094H
	DW	01H
	DW	0ffffH
	DW	02bH
	DW	01baH
	DW	0ffffH
	DW	02bH
	DW	01H
	DW	0ffffH
	DW	0a9H
	DW	01baH
	DW	0ffffH
	DW	0a9H
	DW	01H
	DW	0ffffH
	DW	0a7H
	DW	01baH
	DW	0ffffH
	DW	0a7H
	DW	01H
	DW	0ffffH
	DW	05H
	DW	0ffffH
	DW	05H
	DW	01H
	DW	0ffffH
	DW	0a5H
	DW	0ffffH
	DW	0a5H
	DW	0185H
	DW	0ffffH
	DW	0a5H
	DW	01H
	DW	0ffffH
	DW	08cH
	DW	0ffffH
	DW	08cH
	DW	0aH
	DW	0ffffH
	DW	08cH
	DW	01H
	DW	0ffffH
	DW	08dH
	DW	0ffffH
	DW	08dH
	DW	0aH
	DW	0ffffH
	DW	08dH
	DW	01H
	DW	0ffffH
	DW	054H
	DW	0ffffH
	DW	0119H
	DW	0ffffH
	DW	054H
	DW	0185H
	DW	0ffffH
	DW	054H
	DW	01H
	DW	0ffffH
	DW	0ffffH
	DW	0c6H
	DW	0185H
	DW	0177H
	DW	0c7H
	DW	0ffffH
	DW	0176H
	DW	016aH
	DW	0ffffH
	DW	0c6H
	DW	01H
	DW	0ffffH
	DW	0ffffH
	DW	0c7H
	DW	0179H
	DW	016fH
	DW	0ffffH
	DW	0178H
	DW	0c6H
	DW	0185H
	DW	0ffffH
	DW	0178H
	DW	01H
	DW	0ffffH
	DW	0c7H
	DW	01H
	DW	0ffffH
	DW	0ccH
	DW	0142H
	DW	0170H
	DW	0ffffH
	DW	017aH
	DW	0185H
	DW	013dH
	DW	0ffffH
	DW	017aH
	DW	013dH
	DW	0ffffH
	DW	017bH
	DW	016aH
	DW	0143H
	DW	0ffffH
	DW	017bH
	DW	0143H
	DW	0ffffH
	DW	017cH
	DW	016aH
	DW	0ffffH
	DW	0ccH
	DW	01H
	DW	0ffffH
	DW	0ccH
	DW	0142H
	DW	01H
	DW	0ffffH
	DW	017aH
	DW	01H
	DW	0ffffH
	DW	017bH
	DW	01H
	DW	0ffffH
	DW	05dH
	DW	0ffffH
	DW	062H
	DW	0ffffH
	DW	017dH
	DW	0ffffH
	DW	09eH
	DW	0ffffH
	DW	09eH
	DW	0185H
	DW	0ffffH
	DW	09eH
	DW	01H
	DW	0ffffH
	DW	0a2H
	DW	0ffffH
	DW	017dH
	DW	0185H
	DW	0ffffH
	DW	017dH
	DW	01H
	DW	0ffffH
	DW	0a2H
	DW	0185H
	DW	0ffffH
	DW	0a2H
	DW	01H
	DW	0ffffH
	DW	057H
	DW	0ffffH
	DW	057H
	DW	01baH
	DW	0ffffH
	DW	057H
	DW	01H
	DW	0ffffH
	DW	081H
	DW	0185H
	DW	0ffffH
	DW	081H
	DW	0baH
	DW	0185H
	DW	0ffffH
	DW	081H
	DW	01H
	DW	0ffffH
	DW	0a6H
	DW	01baH
	DW	0ffffH
	DW	0a6H
	DW	0baH
	DW	01baH
	DW	0ffffH
	DW	0a6H
	DW	01H
	DW	0ffffH
	DW	071H
	DW	01baH
	DW	0ffffH
	DW	071H
	DW	01H
	DW	0ffffH
	DW	076H
	DW	01baH
	DW	0ffffH
	DW	076H
	DW	01H
	DW	0ffffH
	DW	0a8H
	DW	01baH
	DW	0ffffH
	DW	0a8H
	DW	01H
	DW	0ffffH
	DW	0a0H
	DW	0185H
	DW	013bH
	DW	01baH
	DW	0ffffH
	DW	0a0H
	DW	01H
	DW	0ffffH
	DW	061H
	DW	01baH
	DW	0ffffH
	DW	061H
	DW	01H
	DW	0ffffH
	DW	092H
	DW	0185H
	DW	0ffffH
	DW	092H
	DW	01H
	DW	0ffffH
	DW	093H
	DW	0185H
	DW	0ffffH
	DW	093H
	DW	01H
	DW	0ffffH
	DW	0123H
	DW	0185H
	DW	0ffffH
	DW	0123H
	DW	01H
	DW	0ffffH
	DW	011bH
	DW	0185H
	DW	0ffffH
	DW	011bH
	DW	01H
	DW	0ffffH
	DW	09bH
	DW	0185H
	DW	0ffffH
	DW	09bH
	DW	0ffffH
	DW	09bH
	DW	01H
	DW	0ffffH
	DW	079H
	DW	0185H
	DW	0ffffH
	DW	079H
	DW	01H
	DW	0ffffH
	DW	078H
	DW	0185H
	DW	0ffffH
	DW	078H
	DW	01H
	DW	0ffffH
	DW	07bH
	DW	0185H
	DW	0ffffH
	DW	07bH
	DW	01H
	DW	0ffffH
	DW	074H
	DW	0142H
	DW	0185H
	DW	013bH
	DW	0185H
	DW	0143H
	DW	0ffffH
	DW	074H
	DW	0185H
	DW	0ffffH
	DW	074H
	DW	01H
	DW	0ffffH
	DW	06dH
	DW	0142H
	DW	0185H
	DW	013bH
	DW	0185H
	DW	0143H
	DW	0ffffH
	DW	06dH
	DW	01H
	DW	0ffffH
	DW	075H
	DW	0142H
	DW	0185H
	DW	013bH
	DW	0185H
	DW	0143H
	DW	0ffffH
	DW	075H
	DW	0185H
	DW	0ffffH
	DW	075H
	DW	01H
	DW	0ffffH
	DW	06eH
	DW	0185H
	DW	0ffffH
	DW	06eH
	DW	01H
	DW	0ffffH
	DW	03bH
	DW	0ffffH
	DW	03bH
	DW	0185H
	DW	0ffffH
	DW	03bH
	DW	01H
	DW	0ffffH
	DW	0105H
	DW	0ffffH
	DW	0105H
	DW	0185H
	DW	0ffffH
	DW	0105H
	DW	01H
	DW	0ffffH
	DW	060H
	DW	0ffffH
	DW	0c2H
	DW	0ffffH
	DW	0c2H
	DW	0185H
	DW	0ffffH
	DW	0129H
	DW	0ffffH
	DW	012aH
	DW	0ffffH
	DW	0139H
	DW	0ffffH
	DW	013aH
	DW	0ffffH
	DW	012eH
	DW	0ffffH
	DW	0106H
	DW	0ffffH
	DW	0107H
	DW	0ffffH
	DW	0120H
	DW	0ffffH
	DW	0121H
	DW	0ffffH
	DW	0122H
	DW	0ffffH
	DW	080H
	DW	0ffffH
	DW	098H
	DW	0ffffH
	DW	058H
	DW	0ffffH
	DW	058H
	DW	0185H
	DW	0185H
	DW	0ffffH
	DW	058H
	DW	01H
	DW	0ffffH
	DW	097H
	DW	0aH
	DW	0ffffH
	DW	0a4H
	DW	0185H
	DW	0ffffH
	DW	0a4H
	DW	01H
	DW	0ffffH
	DW	055H
	DW	0ffffH
	DW	052H
	DW	0ffffH
	DW	086H
	DW	0138H
	DW	0ffffH
	DW	0134H
	DW	0ffffH
	DW	068H
	DW	0ffffH
	DW	0115H
	DW	0ffffH
	DW	056H
	DW	0ffffH
	DW	04aH
	DW	0ffffH
	DW	05eH
	DW	0ffffH
	DW	05fH
	DW	0ffffH
	DW	0a1H
	DW	0ffffH
	DW	063H
	DW	0ffffH
	DW	07cH
	DW	0ffffH
	DW	07dH
	DW	0ffffH
	DW	064H
	DW	0ffffH
	DW	06bH
	DW	0ffffH
	DW	021H
	DW	0ffffH
	DW	0abH
	DW	0ffffH
	DW	0acH
	DW	0ffffH
	DW	0100H
	DW	0ffffH
	DW	0104H
	DW	0ffffH
	DW	0101H
	DW	0ffffH
	DW	0103H
	DW	0ffffH
	DW	023H
	DW	0ffffH
	DW	02aH
	DW	0ffffH
	DW	0eaH
	DW	0ffffH
	DW	049H
	DW	0ffffH
	DW	045H
	DW	038H
	DW	0ffffH
	DW	045H
	DW	091H
	DW	0ffffH
	DW	045H
	DW	06cH
	DW	0ffffH
	DW	045H
	DW	010fH
	DW	0ffffH
	DW	045H
	DW	099H
	DW	0185H
	DW	0ffffH
	DW	045H
	DW	0109H
	DW	0ffffH
	DW	045H
	DW	041H
	DW	0185H
	DW	0ffffH
	DW	045H
	DW	0108H
	DW	0ffffH
	DW	045H
	DW	0e3H
	DW	051H
	DW	0ffffH
	DW	045H
	DW	051H
	DW	0ffffH
	DW	045H
	DW	0ecH
	DW	09fH
	DW	0ffffH
	DW	045H
	DW	09fH
	DW	0ffffH
	DW	0f6H
	DW	0ffffH
	DW	04fH
	DW	01b8H
	DW	0ffffH
	DW	04fH
	DW	0ffffH
	DW	0efH
	DW	01b8H
	DW	0ffffH
	DW	0efH
	DW	0ffffH
	DW	06aH
	DW	01b8H
	DW	0ffffH
	DW	06aH
	DW	0ffffH
	DW	0f4H
	DW	0ffffH
	DW	03H
	DW	0ffffH
	DW	017eH
	DW	0185H
	DW	0ffffH
	DW	017eH
	DW	0185H
	DW	013bH
	DW	0ffffH
	DW	0ffffH
	DW	0ffH
	DW	01ceH
	DW	017fH
	DW	0185H
	DW	0ffffH
	DW	0ffH
	DW	0163H
	DW	0ffffH
	DW	0ffH
	DW	01ceH
	DW	01H
	DW	0ffffH
	DW	0ffffH
	DW	03dH
	DW	0ffH
	DW	0180H
	DW	0185H
	DW	0ffffH
	DW	03dH
	DW	0ffH
	DW	01H
	DW	0ffffH
	DW	03dH
	DW	07aH
	DW	0185H
	DW	0ffffH
	DW	03dH
	DW	07aH
	DW	01H
	DW	0ffffH
	DW	07aH
	DW	01ceH
	DW	0185H
	DW	0ffffH
	DW	07aH
	DW	01H
	DW	0ffffH
	DW	03dH
	DW	041H
	DW	0185H
	DW	0125H
	DW	0ffffH
	DW	037H
	DW	041H
	DW	0185H
	DW	0125H
	DW	0ffffH
	DW	03dH
	DW	041H
	DW	0108H
	DW	0125H
	DW	0ffffH
	DW	037H
	DW	041H
	DW	0108H
	DW	0125H
	DW	0ffffH
	DW	03dH
	DW	0108H
	DW	0125H
	DW	0ffffH
	DW	037H
	DW	0108H
	DW	0125H
	DW	0ffffH
	DW	03dH
	DW	095H
	DW	0185H
	DW	0ffffH
	DW	03dH
	DW	095H
	DW	01H
	DW	0ffffH
	DW	095H
	DW	01ceH
	DW	0185H
	DW	0ffffH
	DW	095H
	DW	01ceH
	DW	01H
	DW	0ffffH
	DW	03dH
	DW	07fH
	DW	0185H
	DW	0ffffH
	DW	03dH
	DW	07fH
	DW	01H
	DW	0ffffH
	DW	0e0H
	DW	01ceH
	DW	0185H
	DW	0ffffH
	DW	0e0H
	DW	01H
	DW	0ffffH
	DW	0e2H
	DW	0185H
	DW	0ffffH
	DW	0e2H
	DW	01H
	DW	0ffffH
	DW	06aH
	DW	0185H
	DW	0ffffH
	DW	06aH
	DW	0baH
	DW	0185H
	DW	0ffffH
	DW	06aH
	DW	01H
	DW	0ffffH
	DW	051H
	DW	013cH
	DW	0dbH
	DW	01ceH
	DW	0185H
	DW	0ffffH
	DW	051H
	DW	013cH
	DW	0daH
	DW	01ceH
	DW	0185H
	DW	0ffffH
	DW	051H
	DW	013cH
	DW	0f1H
	DW	01ceH
	DW	0185H
	DW	0ffffH
	DW	09fH
	DW	013cH
	DW	0daH
	DW	01ceH
	DW	0185H
	DW	0ffffH
	DW	051H
	DW	013cH
	DW	024H
	DW	01ceH
	DW	0185H
	DW	0ffffH
	DW	051H
	DW	013cH
	DW	01H
	DW	0ffffH
	DW	09fH
	DW	013cH
	DW	01H
	DW	0ffffH
	DW	03dH
	DW	051H
	DW	0dbH
	DW	0185H
	DW	0ffffH
	DW	03dH
	DW	051H
	DW	0daH
	DW	0185H
	DW	0ffffH
	DW	03dH
	DW	051H
	DW	0f1H
	DW	0185H
	DW	0ffffH
	DW	03dH
	DW	09fH
	DW	0daH
	DW	0185H
	DW	0ffffH
	DW	03dH
	DW	051H
	DW	024H
	DW	0185H
	DW	0ffffH
	DW	03dH
	DW	051H
	DW	03eH
	DW	0ffffH
	DW	03dH
	DW	051H
	DW	0b9H
	DW	0ffffH
	DW	03dH
	DW	051H
	DW	0b7H
	DW	0ffffH
	DW	03dH
	DW	051H
	DW	0b8H
	DW	0ffffH
	DW	03dH
	DW	051H
	DW	01H
	DW	0ffffH
	DW	0132H
	DW	0185H
	DW	0ffffH
	DW	0132H
	DW	01H
	DW	0ffffH
	DW	0133H
	DW	0185H
	DW	0ffffH
	DW	0133H
	DW	01H
	DW	0ffffH
	DW	0e4H
	DW	01baH
	DW	0ffffH
	DW	0e4H
	DW	0185H
	DW	0ffffH
	DW	0e4H
	DW	01H
	DW	0ffffH
	DW	012dH
	DW	01baH
	DW	0ffffH
	DW	012dH
	DW	0185H
	DW	0ffffH
	DW	012dH
	DW	01H
	DW	0ffffH
	DW	012fH
	DW	01baH
	DW	0ffffH
	DW	012fH
	DW	0185H
	DW	0ffffH
	DW	012fH
	DW	01H
	DW	0ffffH
	DW	0e9H
	DW	01baH
	DW	0ffffH
	DW	0e9H
	DW	0185H
	DW	0ffffH
	DW	0e9H
	DW	01H
	DW	0ffffH
	DW	0e1H
	DW	01baH
	DW	0ffffH
	DW	0e1H
	DW	0185H
	DW	0ffffH
	DW	0e1H
	DW	0ffffH
	DW	0e1H
	DW	01H
	DW	0ffffH
	DW	0d0H
	DW	0baH
	DW	01baH
	DW	0ffffH
	DW	0efH
	DW	0185H
	DW	0ffffH
	DW	0efH
	DW	01H
	DW	0ffffH
	DW	01fH
	DW	0baH
	DW	0ffffH
	DW	0e8H
	DW	0f9H
	DW	0ffffH
	DW	0bdH
	DW	0baH
	DW	01baH
	DW	0ffffH
	DW	0181H
	DW	01baH
	DW	0ffffH
	DW	0bdH
	DW	0baH
	DW	0185H
	DW	0ffffH
	DW	0d1H
	DW	0f9H
	DW	01baH
	DW	0ffffH
	DW	0bdH
	DW	0f9H
	DW	0ffffH
	DW	0d1H
	DW	0baH
	DW	01baH
	DW	0ffffH
	DW	0181H
	DW	0185H
	DW	0ffffH
	DW	0182H
	DW	0185H
	DW	0ffffH
	DW	011aH
	DW	0baH
	DW	0ffffH
	DW	0183H
	DW	0185H
	DW	0ffffH
	DW	01fH
	DW	013cH
	DW	08H
	DW	0baH
	DW	010aH
	DW	0ffffH
	DW	01fH
	DW	013cH
	DW	0dfH
	DW	0ffffH
	DW	01fH
	DW	013cH
	DW	096H
	DW	0ffffH
	DW	01fH
	DW	013cH
	DW	03cH
	DW	059H
	DW	0ffffH
	DW	01fH
	DW	013cH
	DW	03cH
	DW	05aH
	DW	0ffffH
	DW	01fH
	DW	013cH
	DW	03cH
	DW	01H
	DW	0ffffH
	DW	0b1H
	DW	013cH
	DW	03cH
	DW	059H
	DW	0ffffH
	DW	0b1H
	DW	013cH
	DW	03cH
	DW	05aH
	DW	0ffffH
	DW	0b1H
	DW	013cH
	DW	03cH
	DW	01H
	DW	0ffffH
	DW	0184H
	DW	01ceH
	DW	0185H
	DW	0ffffH
	DW	062H
	DW	0ffffH
	DW	01fH
	DW	013cH
	DW	03eH
	DW	0ffffH
	DW	01fH
	DW	013cH
	DW	0feH
	DW	0ffffH
	DW	01fH
	DW	013cH
	DW	0fdH
	DW	0ffffH
	DW	0184H
	DW	0ffffH
	DW	01fH
	DW	013cH
	DW	01H
	DW	0ffffH
	DW	01fH
	DW	013cH
	DW	08H
	DW	01H
	DW	0ffffH
	DW	01fH
	DW	0145H
	DW	0185H
	DW	0ffffH
	DW	01fH
	DW	0163H
	DW	0ffffH
	DW	0163H
	DW	01fH
	DW	0ffffH
	DW	01fH
	DW	0baH
	DW	01H
	DW	0ffffH
	DW	01fH
	DW	0154H
	DW	0ffffH
	DW	0dH
	DW	0154H
	DW	0ffffH
	DW	01fH
	DW	01H
	DW	0ffffH
	DW	067H
	DW	0ffffH
	DW	0caH
	DW	0ffffH
	DW	0dH
	DW	0ffffH
	DW	01fH
	DW	0ffffH
	DW	0b1H
	DW	0ffffH
	DW	0bbH
	DW	0ffffH
	DW	0d2H
	DW	0ffffH
	DW	0bdH
	DW	0ffffH
	DW	051H
	DW	0ffffH
	DW	09fH
	DW	0ffffH
	DW	0108H
	DW	0ffffH
	DW	0109H
	DW	0ffffH
	DW	0142H
	DW	0143H
	DW	0ffffH
	DW	0142H
	DW	0186H
	DW	0187H
	DW	0ffffH
	DW	0189H
	DW	013bH
	DW	0186H
	DW	0187H
	DW	0ffffH
	DW	0142H
	DW	01H
	DW	0ffffH
	DW	0142H
	DW	0186H
	DW	0ffffH
	DW	0189H
	DW	013bH
	DW	01H
	DW	0ffffH
	DW	0189H
	DW	013bH
	DW	0186H
	DW	01H
	DW	0ffffH
	DW	0189H
	DW	01H
	DW	0ffffH
	DW	0189H
	DW	0143H
	DW	0ffffH
	DW	016dH
	DW	0ffffH
	DW	013dH
	DW	0ffffH
	DW	0ffffH
	DW	0dH
	DW	0ffffH
	DW	0d2H
	DW	0ffffH
	DW	0ffffH
	DW	0ffffH
	DW	0adH
	DW	0186H
	DW	018bH
	DW	018cH
	DW	0188H
	DW	018dH
	DW	018aH
	DW	0ffffH
	DW	0dH
	DW	0ffffH
	DW	010aH
	DW	0ffffH
	DW	0ffffH
	DW	0ffffH
	DW	0e6H
	DW	018eH
	DW	018fH
	DW	0188H
	DW	0190H
	DW	018aH
	DW	0ffffH
	DW	0adH
	DW	0186H
	DW	01H
	DW	0ffffH
	DW	0adH
	DW	01H
	DW	0ffffH
	DW	0e6H
	DW	01H
	DW	0ffffH
	DW	0adH
	DW	0ffffH
	DW	065H
	DW	01fH
	DW	0186H
	DW	0ffffH
	DW	065H
	DW	0dH
	DW	0186H
	DW	0ffffH
	DW	065H
	DW	01fH
	DW	0ffffH
	DW	065H
	DW	0dH
	DW	0ffffH
	DW	065H
	DW	0bdH
	DW	0ffffH
	DW	013eH
	DW	0185H
	DW	013fH
	DW	0ffffH
	DW	0191H
	DW	013eH
	DW	0185H
	DW	013fH
	DW	0ffffH
	DW	013eH
	DW	0185H
	DW	013fH
	DW	0ffffH
	DW	0192H
	DW	013eH
	DW	0185H
	DW	013fH
	DW	0ffffH
	DW	065H
	DW	0b1H
	DW	0186H
	DW	0192H
	DW	0ffffH
	DW	065H
	DW	0dH
	DW	0186H
	DW	0192H
	DW	0ffffH
	DW	065H
	DW	01fH
	DW	0186H
	DW	0192H
	DW	0ffffH
	DW	0193H
	DW	0ffffH
	DW	0b1H
	DW	0ffffH
	DW	06fH
	DW	0ffffH
	DW	0137H
	DW	0ffffH
	DW	01b6H
	DW	0137H
	DW	0ffffH
	DW	01b6H
	DW	041H
	DW	013eH
	DW	0185H
	DW	013fH
	DW	013cH
	DW	02cH
	DW	0ffffH
	DW	01b6H
	DW	041H
	DW	01H
	DW	0ffffH
	DW	01b6H
	DW	01H
	DW	0ffffH
	DW	0194H
	DW	0191H
	DW	0ffffH
	DW	0195H
	DW	01ceH
	DW	0185H
	DW	0ffffH
	DW	0195H
	DW	0baH
	DW	01baH
	DW	0ffffH
	DW	0195H
	DW	0163H
	DW	0ffffH
	DW	0194H
	DW	01ceH
	DW	0185H
	DW	0ffffH
	DW	0194H
	DW	0160H
	DW	0194H
	DW	0ffffH
	DW	0194H
	DW	0191H
	DW	0ffffH
	DW	0194H
	DW	0ffffH
	DW	0185H
	DW	0ffffH
	DW	01baH
	DW	0ffffH
	DW	0196H
	DW	0ffffH
	DW	0197H
	DW	013bH
	DW	0196H
	DW	0ffffH
	DW	0140H
	DW	0197H
	DW	0141H
	DW	0ffffH
	DW	0140H
	DW	0141H
	DW	0ffffH
	DW	0194H
	DW	01ceH
	DW	0196H
	DW	0ffffH
	DW	0195H
	DW	01ceH
	DW	0196H
	DW	0ffffH
	DW	01dH
	DW	0ffffH
	DW	0137H
	DW	0ffffH
	DW	065H
	DW	01b3H
	DW	06cH
	DW	0198H
	DW	0186H
	DW	0ffffH
	DW	065H
	DW	01b3H
	DW	06cH
	DW	0dH
	DW	0186H
	DW	0ffffH
	DW	0199H
	DW	0192H
	DW	0ffffH
	DW	0ffffH
	DW	0ffffH
	DW	0199H
	DW	0adH
	DW	019aH
	DW	0140H
	DW	019bH
	DW	016cH
	DW	0141H
	DW	0ffffH
	DW	0199H
	DW	0ffffH
	DW	065H
	DW	0e3H
	DW	0ffffH
	DW	065H
	DW	0ecH
	DW	0ffffH
	DW	065H
	DW	041H
	DW	0ffffH
	DW	065H
	DW	099H
	DW	0ffffH
	DW	065H
	DW	01H
	DW	0ffffH
	DW	0dH
	DW	0baH
	DW	0ffffH
	DW	0dH
	DW	0f9H
	DW	0ffffH
	DW	0ffffH
	DW	03dH
	DW	0dH
	DW	019eH
	DW	0baH
	DW	0ffffH
	DW	03dH
	DW	0dH
	DW	0ffffH
	DW	0dH
	DW	01H
	DW	0ffffH
	DW	0dH
	DW	01H
	DW	0ffffH
	DW	0dH
	DW	0baH
	DW	01H
	DW	0ffffH
	DW	019cH
	DW	01baH
	DW	0ffffH
	DW	019cH
	DW	0185H
	DW	0ffffH
	DW	019cH
	DW	01H
	DW	0ffffH
	DW	019dH
	DW	01baH
	DW	0ffffH
	DW	019dH
	DW	0185H
	DW	0ffffH
	DW	0ffffH
	DW	019cH
	DW	019fH
	DW	016bH
	DW	0ffffH
	DW	0ffffH
	DW	019cH
	DW	0140H
	DW	01a0H
	DW	016cH
	DW	0141H
	DW	0ffffH
	DW	019cH
	DW	0140H
	DW	0141H
	DW	0ffffH
	DW	0ffffH
	DW	019dH
	DW	0140H
	DW	01a1H
	DW	016cH
	DW	0141H
	DW	0ffffH
	DW	019dH
	DW	0140H
	DW	0141H
	DW	0ffffH
	DW	0ffffH
	DW	0bbH
	DW	0baH
	DW	01a2H
	DW	016aH
	DW	0ffffH
	DW	0ffffH
	DW	0e5H
	DW	0f9H
	DW	01a3H
	DW	016aH
	DW	0ffffH
	DW	0bbH
	DW	0baH
	DW	01H
	DW	0ffffH
	DW	0bbH
	DW	0f9H
	DW	01H
	DW	0ffffH
	DW	0181H
	DW	0140H
	DW	0ffffH
	DW	0b3H
	DW	01a4H
	DW	0ffffH
	DW	01a5H
	DW	0ffffH
	DW	01a4H
	DW	013bH
	DW	01a5H
	DW	0ffffH
	DW	0dH
	DW	0ffffH
	DW	01fH
	DW	0ffffH
	DW	0b1H
	DW	0ffffH
	DW	0bbH
	DW	0ffffH
	DW	0d2H
	DW	0ffffH
	DW	0bdH
	DW	0ffffH
	DW	051H
	DW	0ffffH
	DW	09fH
	DW	0ffffH
	DW	0108H
	DW	0ffffH
	DW	0109H
	DW	0ffffH
	DW	01H
	DW	0ffffH
	DW	0ffffH
	DW	05dH
	DW	0eH
	DW	01a6H
	DW	016aH
	DW	0ffffH
	DW	0ffffH
	DW	0a2H
	DW	0eH
	DW	01a7H
	DW	016aH
	DW	0ffffH
	DW	0ffffH
	DW	09eH
	DW	0eH
	DW	01a8H
	DW	016aH
	DW	0ffffH
	DW	05dH
	DW	0eH
	DW	0ffffH
	DW	09eH
	DW	0eH
	DW	0ffffH
	DW	0185H
	DW	013bH
	DW	01a9H
	DW	0ffffH
	DW	0185H
	DW	013bH
	DW	01H
	DW	0ffffH
	DW	0185H
	DW	0ffffH
	DW	01baH
	DW	013bH
	DW	01a9H
	DW	0ffffH
	DW	01baH
	DW	013bH
	DW	01H
	DW	0ffffH
	DW	01baH
	DW	0ffffH
	DW	082H
	DW	01baH
	DW	0ffffH
	DW	082H
	DW	01H
	DW	0ffffH
	DW	011fH
	DW	01baH
	DW	0ffffH
	DW	011fH
	DW	01H
	DW	0ffffH
	DW	083H
	DW	01baH
	DW	0ffffH
	DW	083H
	DW	01H
	DW	0ffffH
	DW	01aaH
	DW	0ffffH
	DW	01aaH
	DW	013bH
	DW	01a9H
	DW	0ffffH
	DW	01aaH
	DW	013bH
	DW	01H
	DW	0ffffH
	DW	01abH
	DW	0ffffH
	DW	01abH
	DW	013bH
	DW	01a9H
	DW	0ffffH
	DW	01abH
	DW	013bH
	DW	01H
	DW	0ffffH
	DW	01acH
	DW	0ffffH
	DW	01acH
	DW	013bH
	DW	01a9H
	DW	0ffffH
	DW	0ffffH
	DW	01acH
	DW	013bH
	DW	01H
	DW	01adH
	DW	0ffffH
	DW	086H
	DW	0ffffH
	DW	01aeH
	DW	0e6H
	DW	0ffffH
	DW	01aeH
	DW	01baH
	DW	0ffffH
	DW	01aeH
	DW	0bbH
	DW	0ffffH
	DW	01aeH
	DW	0d2H
	DW	0ffffH
	DW	01aeH
	DW	010aH
	DW	0ffffH
	DW	01aeH
	DW	0e5H
	DW	0ffffH
	DW	0aeH
	DW	0bbH
	DW	0ffffH
	DW	01aeH
	DW	01b6H
	DW	01bdH
	DW	0ffffH
	DW	01aeH
	DW	0185H
	DW	0ffffH
	DW	01aeH
	DW	05dH
	DW	0ffffH
	DW	01aeH
	DW	0a2H
	DW	0ffffH
	DW	01aeH
	DW	09eH
	DW	0ffffH
	DW	01aeH
	DW	01H
	DW	0ffffH
	DW	0b5H
	DW	01baH
	DW	0ffffH
	DW	0b5H
	DW	01H
	DW	0ffffH
	DW	0144H
	DW	0ffffH
	DW	0ffffH
	DW	01afH
	DW	016cH
	DW	0fcH
	DW	01b0H
	DW	0185H
	DW	0ffffH
	DW	01afH
	DW	01H
	DW	0ffffH
	DW	0d2H
	DW	0142H
	DW	0143H
	DW	0ffffH
	DW	0d2H
	DW	0142H
	DW	01a9H
	DW	0143H
	DW	0ffffH
	DW	0d2H
	DW	01H
	DW	0ffffH
	DW	010aH
	DW	0142H
	DW	0143H
	DW	0ffffH
	DW	010aH
	DW	0142H
	DW	01a9H
	DW	0143H
	DW	0ffffH
	DW	010aH
	DW	01H
	DW	0ffffH
	DW	0b0H
	DW	0142H
	DW	0185H
	DW	013bH
	DW	0185H
	DW	0143H
	DW	0ffffH
	DW	0b0H
	DW	01H
	DW	0ffffH
	DW	0102H
	DW	013eH
	DW	0185H
	DW	013fH
	DW	0ffffH
	DW	0102H
	DW	01H
	DW	0ffffH
	DW	012H
	DW	013eH
	DW	0185H
	DW	013fH
	DW	013cH
	DW	084H
	DW	0ffffH
	DW	012H
	DW	013eH
	DW	0185H
	DW	013fH
	DW	013cH
	DW	085H
	DW	0ffffH
	DW	012H
	DW	013eH
	DW	0185H
	DW	013fH
	DW	013cH
	DW	03eH
	DW	0ffffH
	DW	012H
	DW	01H
	DW	0ffffH
	DW	0130H
	DW	0142H
	DW	0185H
	DW	013bH
	DW	0185H
	DW	013bH
	DW	0185H
	DW	013bH
	DW	01baH
	DW	0143H
	DW	0ffffH
	DW	0130H
	DW	01H
	DW	0ffffH
	DW	0130H
	DW	0ffffH
	DW	0131H
	DW	0142H
	DW	0185H
	DW	0143H
	DW	0ffffH
	DW	0131H
	DW	01H
	DW	0ffffH
	DW	0d6H
	DW	0142H
	DW	01a9H
	DW	0143H
	DW	0ffffH
	DW	0d6H
	DW	01H
	DW	0ffffH
	DW	0d7H
	DW	0142H
	DW	0185H
	DW	013bH
	DW	0185H
	DW	0143H
	DW	0ffffH
	DW	0d7H
	DW	01H
	DW	0ffffH
	DW	0d9H
	DW	0142H
	DW	01a9H
	DW	0143H
	DW	0ffffH
	DW	0d9H
	DW	01H
	DW	0ffffH
	DW	0d8H
	DW	0142H
	DW	01a9H
	DW	0143H
	DW	0ffffH
	DW	0d8H
	DW	01H
	DW	0ffffH
	DW	0deH
	DW	0ffffH
	DW	0deH
	DW	01H
	DW	0ffffH
	DW	0185H
	DW	0ffffH
	DW	0185H
	DW	0165H
	DW	0185H
	DW	0ffffH
	DW	0127H
	DW	0ffffH
	DW	020H
	DW	0127H
	DW	0ffffH
	DW	0126H
	DW	0ffffH
	DW	020H
	DW	0126H
	DW	0ffffH
	DW	0116H
	DW	0142H
	DW	01b3H
	DW	013eH
	DW	01b1H
	DW	013fH
	DW	0143H
	DW	0ffffH
	DW	0116H
	DW	01H
	DW	0ffffH
	DW	0135H
	DW	0142H
	DW	0185H
	DW	0143H
	DW	0ffffH
	DW	0135H
	DW	01H
	DW	0ffffH
	DW	0136H
	DW	0142H
	DW	0185H
	DW	0143H
	DW	0ffffH
	DW	0136H
	DW	01H
	DW	0ffffH
	DW	0114H
	DW	0142H
	DW	0185H
	DW	013bH
	DW	0185H
	DW	0143H
	DW	0ffffH
	DW	0114H
	DW	01H
	DW	0ffffH
	DW	0112H
	DW	0142H
	DW	0185H
	DW	013bH
	DW	0185H
	DW	0143H
	DW	0ffffH
	DW	0112H
	DW	01H
	DW	0ffffH
	DW	0113H
	DW	0142H
	DW	0185H
	DW	013bH
	DW	0185H
	DW	0143H
	DW	0ffffH
	DW	0113H
	DW	01H
	DW	0ffffH
	DW	011dH
	DW	0142H
	DW	0194H
	DW	013bH
	DW	0194H
	DW	013bH
	DW	0194H
	DW	0143H
	DW	0ffffH
	DW	011dH
	DW	01H
	DW	0ffffH
	DW	011dH
	DW	0142H
	DW	0194H
	DW	013bH
	DW	0194H
	DW	013bH
	DW	01H
	DW	0ffffH
	DW	011dH
	DW	0142H
	DW	0194H
	DW	013bH
	DW	01H
	DW	0ffffH
	DW	011dH
	DW	0142H
	DW	01H
	DW	0ffffH
	DW	0128H
	DW	0142H
	DW	0194H
	DW	0143H
	DW	0ffffH
	DW	011eH
	DW	0142H
	DW	0194H
	DW	013bH
	DW	0194H
	DW	0143H
	DW	0ffffH
	DW	011eH
	DW	01H
	DW	0ffffH
	DW	011eH
	DW	0142H
	DW	0194H
	DW	013bH
	DW	01H
	DW	0ffffH
	DW	011eH
	DW	0142H
	DW	01H
	DW	0ffffH
	DW	045H
	DW	0ffffH
	DW	045H
	DW	01H
	DW	0ffffH
	DW	047H
	DW	0ffffH
	DW	047H
	DW	01H
	DW	0ffffH
	DW	0ebH
	DW	0ffffH
	DW	0edH
	DW	0ffffH
	DW	0f2H
	DW	0ffffH
	DW	0ebH
	DW	01H
	DW	0ffffH
	DW	0edH
	DW	01H
	DW	0ffffH
	DW	0f2H
	DW	01H
	DW	0ffffH
	DW	043H
	DW	0ffffH
	DW	043H
	DW	01H
	DW	0ffffH
	DW	011cH
	DW	0ffffH
	DW	011cH
	DW	01H
	DW	0ffffH
	DW	048H
	DW	0ffffH
	DW	048H
	DW	01H
	DW	0ffffH
	DW	04bH
	DW	0ffffH
	DW	04bH
	DW	01H
	DW	0ffffH
	DW	0111H
	DW	0ffffH
	DW	0111H
	DW	01H
	DW	0ffffH
	DW	0beH
	DW	0ffffH
	DW	0beH
	DW	01H
	DW	0ffffH
	DW	070H
	DW	0ffffH
	DW	070H
	DW	01H
	DW	0ffffH
	DW	010bH
	DW	0ffffH
	DW	010bH
	DW	01H
	DW	0ffffH
	DW	010cH
	DW	0ffffH
	DW	010cH
	DW	01H
	DW	0ffffH
	DW	010dH
	DW	0ffffH
	DW	010dH
	DW	01H
	DW	0ffffH
	DW	04dH
	DW	0ffffH
	DW	04eH
	DW	0ffffH
	DW	04dH
	DW	01fH
	DW	0ffffH
	DW	04eH
	DW	01fH
	DW	0ffffH
	DW	04dH
	DW	051H
	DW	0ffffH
	DW	04eH
	DW	051H
	DW	0ffffH
	DW	04dH
	DW	01H
	DW	0ffffH
	DW	04eH
	DW	01H
	DW	0ffffH
	DW	026H
	DW	0ffffH
	DW	027H
	DW	0ffffH
	DW	028H
	DW	0ffffH
	DW	029H
	DW	0ffffH
	DW	034H
	DW	0ffffH
	DW	01b3H
	DW	0ffffH
	DW	01b6H
	DW	01b3H
	DW	0ffffH
	DW	01b3H
	DW	013eH
	DW	01b1H
	DW	013fH
	DW	0ffffH
	DW	01b3H
	DW	013eH
	DW	01H
	DW	0ffffH
	DW	01b3H
	DW	013eH
	DW	0185H
	DW	01H
	DW	0ffffH
	DW	01bH
	DW	0ffffH
	DW	05cH
	DW	0ffffH
	DW	011aH
	DW	0ffffH
	DW	01b5H
	DW	013cH
	DW	0ffffH
	DW	01b5H
	DW	0ffffH
	DW	01b6H
	DW	01b3H
	DW	013eH
	DW	0185H
	DW	013fH
	DW	0ffffH
	DW	01b6H
	DW	01b3H
	DW	013eH
	DW	01H
	DW	0ffffH
	DW	01b6H
	DW	01b3H
	DW	013eH
	DW	0185H
	DW	01H
	DW	0ffffH
	DW	01b6H
	DW	0ffffH
	DW	01b5H
	DW	0dH
	DW	0ffffH
	DW	01b4H
	DW	0ffffH
	DW	01b4H
	DW	0dH
	DW	0ffffH
	DW	01b5H
	DW	0bbH
	DW	0ffffH
	DW	01b4H
	DW	0bbH
	DW	0ffffH
	DW	01b5H
	DW	01fH
	DW	0ffffH
	DW	01b4H
	DW	01fH
	DW	0ffffH
	DW	01b7H
	DW	044H
	DW	0185H
	DW	0ffffH
	DW	01b7H
	DW	044H
	DW	01H
	DW	0ffffH
	DW	059H
	DW	0ffffH
	DW	05aH
	DW	0ffffH
	DW	036H
	DW	0ffffH
	DW	01b9H
	DW	036H
	DW	0ffffH
	DW	01b9H
	DW	0ffffH
	DW	0bdH
	DW	0ffffH
	DW	0d1H
	DW	0ffffH
	DW	015H
	DW	0ffffH
	DW	0c3H
	DW	0ffffH
	DW	0b2H
	DW	0ffffH
	DW	08fH
	DW	0ffffH
	DW	07eH
	DW	0ffffH
	DW	0aaH
	DW	01baH
	DW	0ffffH
	DW	0aaH
	DW	01H
	DW	0ffffH
	DW	01bbH
	DW	0ffffH
	DW	01bbH
	DW	013bH
	DW	01a9H
	DW	0ffffH
	DW	01bbH
	DW	013bH
	DW	01H
	DW	0ffffH
	DW	042H
	DW	0ffffH
	DW	01aH
	DW	0ffffH
	DW	02dH
	DW	0ffffH
	DW	0124H
	DW	0ffffH
	DW	046H
	DW	0ffffH
	DW	09aH
	DW	0ffffH
	DW	09cH
	DW	0ffffH
	DW	0afH
	DW	0ffffH
	DW	03aH
	DW	0ffffH
	DW	02eH
	DW	0ffffH
	DW	02fH
	DW	0ffffH
	DW	024H
	DW	0ffffH
	DW	0dbH
	DW	0ffffH
	DW	0110H
	DW	0ffffH
	DW	03fH
	DW	0ffffH
	DW	040H
	DW	0ffffH
	DW	030H
	DW	0ffffH
	DW	031H
	DW	0ffffH
	DW	022H
	DW	0ffffH
	DW	09dH
	DW	0ffffH
	DW	0a3H
	DW	0ffffH
	DW	0cfH
	DW	0ffffH
	DW	0ceH
	DW	0ffffH
	DW	033H
	DW	0ffffH
	DW	03eH
	DW	0ffffH
	DW	0c4H
	DW	0ffffH
	DW	0c8H
	DW	0ffffH
	DW	0c9H
	DW	0ffffH
	DW	0cdH
	DW	0ffffH
	DW	0cbH
	DW	0ffffH
	DW	0f8H
	DW	0ffffH
	DW	01eH
	DW	0ffffH
	DW	077H
	DW	0ffffH
	DW	0b6H
	DW	0ffffH
	DW	073H
	DW	0ffffH
	DW	072H
	DW	0ffffH
	DW	014H
	DW	0ffffH
	DW	035H
	DW	0ffffH
	DW	0117H
	DW	0ffffH
	DW	0118H
	DW	0ffffH
	DW	090H
	DW	0ffffH
	DW	0faH
	DW	0ffffH
	DW	051H
	DW	0ffffH
	DW	09fH
	DW	0ffffH
	DW	039H
	DW	0ffffH
	DW	01dH
	DW	0ffffH
	DW	01bcH
	DW	0ffffH
	DW	01bdH
	DW	0ffffH
	DW	01bdH
	DW	0191H
	DW	0ffffH
	DW	0155H
	DW	0108H
	DW	0ffffH
	DW	0155H
	DW	0185H
	DW	0ffffH
	DW	0155H
	DW	01H
	DW	0ffffH
	DW	053H
	DW	0108H
	DW	0ffffH
	DW	053H
	DW	0185H
	DW	0ffffH
	DW	0157H
	DW	0109H
	DW	0ffffH
	DW	0157H
	DW	0185H
	DW	0ffffH
	DW	0157H
	DW	01H
	DW	0ffffH
	DW	0156H
	DW	0108H
	DW	0ffffH
	DW	0156H
	DW	0185H
	DW	0ffffH
	DW	0156H
	DW	01H
	DW	0ffffH
	DW	0158H
	DW	051H
	DW	0ffffH
	DW	0158H
	DW	01H
	DW	0ffffH
	DW	0159H
	DW	09fH
	DW	0ffffH
	DW	0159H
	DW	01H
	DW	0ffffH
	DW	01beH
	DW	0ffffH
	DW	01b6H
	DW	01beH
	DW	0ffffH
	DW	01b6H
	DW	0dH
	DW	0ffffH
	DW	0f7H
	DW	0142H
	DW	01baH
	DW	0143H
	DW	0ffffH
	DW	0f7H
	DW	01H
	DW	0ffffH
	DW	0f7H
	DW	0142H
	DW	01baH
	DW	0ffffH
	DW	08eH
	DW	0142H
	DW	0137H
	DW	0143H
	DW	0ffffH
	DW	08eH
	DW	0142H
	DW	0b1H
	DW	0143H
	DW	0ffffH
	DW	08eH
	DW	0142H
	DW	01baH
	DW	0143H
	DW	0ffffH
	DW	08eH
	DW	01H
	DW	0ffffH
	DW	050H
	DW	0ffffH
	DW	06aH
	DW	0ffffH
	DW	0a4H
	DW	0ffffH
	DW	0164H
	DW	0185H
	DW	0ffffH
	DW	0164H
	DW	01H
	DW	0ffffH
	DW	0142H
	DW	0185H
	DW	0143H
	DW	0ffffH
	DW	0142H
	DW	01H
	DW	0ffffH
	DW	0ffH
	DW	0ffffH
	DW	095H
	DW	0ffffH
	DW	01fH
	DW	0ffffH
	DW	0e8H
	DW	0ffffH
	DW	01fH
	DW	013cH
	DW	01dH
	DW	0ffffH
	DW	01fH
	DW	013cH
	DW	01H
	DW	0ffffH
	DW	0e7H
	DW	0ffffH
	DW	01cH
	DW	051H
	DW	0ffffH
	DW	051H
	DW	013cH
	DW	040H
	DW	0ffffH
	DW	051H
	DW	013cH
	DW	0daH
	DW	0ffffH
	DW	051H
	DW	013cH
	DW	0f1H
	DW	0ffffH
	DW	09fH
	DW	013cH
	DW	0daH
	DW	0ffffH
	DW	051H
	DW	013cH
	DW	0dbH
	DW	0ffffH
	DW	051H
	DW	013cH
	DW	0dcH
	DW	0ffffH
	DW	09fH
	DW	013cH
	DW	0dcH
	DW	0ffffH
	DW	051H
	DW	013cH
	DW	024H
	DW	0ffffH
	DW	051H
	DW	013cH
	DW	03eH
	DW	0ffffH
	DW	051H
	DW	013cH
	DW	0b7H
	DW	0ffffH
	DW	051H
	DW	013cH
	DW	0b9H
	DW	0ffffH
	DW	051H
	DW	013cH
	DW	0b8H
	DW	0ffffH
	DW	051H
	DW	01H
	DW	0ffffH
	DW	051H
	DW	013cH
	DW	01H
	DW	0ffffH
	DW	09fH
	DW	013cH
	DW	01H
	DW	0ffffH
	DW	09fH
	DW	01H
	DW	0ffffH
	DW	0aH
	DW	0ffffH
	DW	09H
	DW	0ffffH
	DW	0bH
	DW	0ffffH
	DW	0cH
	DW	0ffffH
	DW	01bfH
	DW	0ffffH
	DW	017H
	DW	0ffffH
	DW	018H
	DW	0ffffH
	DW	019H
	DW	0ffffH
	DW	013H
	DW	0ffffH
	DW	0fH
	DW	0142H
	DW	0185H
	DW	0143H
	DW	0ffffH
	DW	0fH
	DW	01H
	DW	0ffffH
	DW	010H
	DW	0142H
	DW	0185H
	DW	013bH
	DW	0185H
	DW	0143H
	DW	0ffffH
	DW	010H
	DW	0ffffH
	DW	0185H
	DW	015aH
	DW	0185H
	DW	0ffffH
	DW	0185H
	DW	015bH
	DW	0185H
	DW	0ffffH
	DW	0185H
	DW	0149H
	DW	0185H
	DW	0ffffH
	DW	0185H
	DW	015fH
	DW	0185H
	DW	0ffffH
	DW	0185H
	DW	015eH
	DW	0185H
	DW	0ffffH
	DW	0185H
	DW	015cH
	DW	0185H
	DW	0ffffH
	DW	0185H
	DW	015dH
	DW	0185H
	DW	0ffffH
	DW	0185H
	DW	0161H
	DW	0185H
	DW	0ffffH
	DW	0185H
	DW	0162H
	DW	0185H
	DW	0ffffH
	DW	0185H
	DW	0150H
	DW	0185H
	DW	0ffffH
	DW	0185H
	DW	014fH
	DW	0185H
	DW	0ffffH
	DW	0185H
	DW	0151H
	DW	0185H
	DW	0ffffH
	DW	0185H
	DW	0154H
	DW	0185H
	DW	0ffffH
	DW	0185H
	DW	0153H
	DW	0185H
	DW	0ffffH
	DW	0185H
	DW	0152H
	DW	0185H
	DW	0ffffH
	DW	0185H
	DW	014dH
	DW	0185H
	DW	0ffffH
	DW	0185H
	DW	014cH
	DW	0185H
	DW	0ffffH
	DW	0185H
	DW	015aH
	DW	0194H
	DW	01H
	DW	0ffffH
	DW	0185H
	DW	015bH
	DW	0194H
	DW	01H
	DW	0ffffH
	DW	0185H
	DW	015aH
	DW	01H
	DW	0ffffH
	DW	0185H
	DW	015bH
	DW	01H
	DW	0ffffH
	DW	0185H
	DW	0149H
	DW	01H
	DW	0ffffH
	DW	0185H
	DW	015fH
	DW	01H
	DW	0ffffH
	DW	0185H
	DW	015eH
	DW	01H
	DW	0ffffH
	DW	0185H
	DW	015cH
	DW	01H
	DW	0ffffH
	DW	0185H
	DW	015dH
	DW	01H
	DW	0ffffH
	DW	0185H
	DW	0161H
	DW	01H
	DW	0ffffH
	DW	0185H
	DW	0162H
	DW	01H
	DW	0ffffH
	DW	0185H
	DW	0150H
	DW	01H
	DW	0ffffH
	DW	0185H
	DW	014fH
	DW	01H
	DW	0ffffH
	DW	0185H
	DW	0151H
	DW	01H
	DW	0ffffH
	DW	0185H
	DW	0154H
	DW	01H
	DW	0ffffH
	DW	0185H
	DW	0153H
	DW	01H
	DW	0ffffH
	DW	0185H
	DW	0152H
	DW	01H
	DW	0ffffH
	DW	0185H
	DW	014dH
	DW	01H
	DW	0ffffH
	DW	0185H
	DW	014cH
	DW	01H
	DW	0ffffH
	DW	020H
	DW	0185H
	DW	0ffffH
	DW	020H
	DW	01H
	DW	0ffffH
	DW	066H
	DW	0185H
	DW	0ffffH
	DW	014eH
	DW	0185H
	DW	0ffffH
	DW	014eH
	DW	01H
	DW	0ffffH
	DW	0ffffH
	DW	0ffffH
	DW	0185H
	DW	014aH
	DW	01c0H
	DW	0185H
	DW	014bH
	DW	01c1H
	DW	0185H
	DW	0ffffH
	DW	0185H
	DW	014aH
	DW	01H
	DW	0ffffH
	DW	087H
	DW	0ffffH
	DW	088H
	DW	0ffffH
	DW	08aH
	DW	0ffffH
	DW	08bH
	DW	0ffffH
	DW	089H
	DW	0ffffH
	DW	0bfH
	DW	0ffffH
	DW	0c0H
	DW	0ffffH
	DW	0bfH
	DW	01H
	DW	0ffffH
	DW	0c0H
	DW	01H
	DW	0ffffH
	DW	0bcH
	DW	0ffffH
	DW	01c4H
	DW	01b7H
	DW	0c7H
	DW	016aH
	DW	0ffffH
	DW	0bcH
	DW	01H
	DW	0ffffH
	DW	0ffffH
	DW	010eH
	DW	01c5H
	DW	01b7H
	DW	0ffffH
	DW	010eH
	DW	0ffffH
	DW	010eH
	DW	01H
	DW	0ffffH
	DW	0ffffH
	DW	0b4H
	DW	01c6H
	DW	01b7H
	DW	0ffffH
	DW	0b4H
	DW	01H
	DW	0ffffH
	DW	0ffffH
	DW	01c3H
	DW	01c7H
	DW	0142H
	DW	01b7H
	DW	013bH
	DW	0185H
	DW	0143H
	DW	0ffffH
	DW	0ffffH
	DW	01c2H
	DW	01c8H
	DW	0142H
	DW	01b7H
	DW	013bH
	DW	0185H
	DW	0143H
	DW	0ffffH
	DW	0ffffH
	DW	01b2H
	DW	01c9H
	DW	01b7H
	DW	0ffffH
	DW	03dH
	DW	0ffffH
	DW	0c8H
	DW	0ffffH
	DW	0c9H
	DW	0ffffH
	DW	0c4H
	DW	0ffffH
	DW	0cdH
	DW	0ffffH
	DW	03eH
	DW	0ffffH
	DW	090H
	DW	0ffffH
	DW	0cbH
	DW	0ffffH
	DW	0f8H
	DW	0ffffH
	DW	0b6H
	DW	0ffffH
	DW	072H
	DW	0ffffH
	DW	077H
	DW	0ffffH
	DW	073H
	DW	0ffffH
	DW	01caH
	DW	01b7H
	DW	01cbH
	DW	0ffffH
	DW	01caH
	DW	01b7H
	DW	01cbH
	DW	044H
	DW	0185H
	DW	0ffffH
	DW	0ceH
	DW	0ffffH
	DW	0cfH
	DW	0ffffH
	DW	022H
	DW	0ffffH
	DW	09dH
	DW	0ffffH
	DW	0a3H
	DW	0ffffH
	DW	03fH
	DW	0ffffH
	DW	033H
	DW	0ffffH
	DW	024H
	DW	0ffffH
	DW	02fH
	DW	0ffffH
	DW	0dbH
	DW	0ffffH
	DW	040H
	DW	0ffffH
	DW	039H
	DW	0ffffH
	DW	041H
	DW	0ffffH
	DW	099H
	DW	0ffffH
	DW	042H
	DW	0ffffH
	DW	01aH
	DW	0ffffH
	DW	0faH
	DW	0ffffH
	DW	01dH
	DW	0ffffH
	DW	09aH
	DW	0ffffH
	DW	035H
	DW	0ffffH
	DW	013cH
	DW	01ccH
	DW	0ffffH
	DW	01ccH
	DW	0ffffH
	DW	0baH
	DW	0ffffH
	DW	0145H
	DW	0ffffH
	DW	0154H
	DW	0ffffH
	DW	0ffffH
	DW	01b5H
	DW	013cH
	DW	01ccH
	DW	01cfH
	DW	01ceH
	DW	0185H
	DW	0ffffH
	DW	0ffffH
	DW	01b5H
	DW	013cH
	DW	01ccH
	DW	01d0H
	DW	0191H
	DW	01ceH
	DW	0185H
	DW	0ffffH
	DW	0ffffH
	DW	01b5H
	DW	013cH
	DW	01ccH
	DW	01d1H
	DW	0163H
	DW	0ffffH
	DW	0ffffH
	DW	01b5H
	DW	013cH
	DW	01ccH
	DW	01d2H
	DW	0191H
	DW	0163H
	DW	0ffffH
	DW	01caH
	DW	01b7H
	DW	01cdH
	DW	0185H
	DW	0ffffH
	DW	01caH
	DW	01b7H
	DW	01cdH
	DW	0191H
	DW	0185H
	DW	0ffffH
	DW	0137H
	DW	0ffffH
	DW	013cH
	DW	0137H
	DW	0ffffH
	DW	01caH
	DW	01b7H
	DW	01d3H
	DW	0191H
	DW	0185H
	DW	0ffffH
	DW	01caH
	DW	01b7H
	DW	01d3H
	DW	0185H
	DW	0ffffH
	DW	01caH
	DW	01b7H
	DW	01d3H
	DW	0185H
	DW	044H
	DW	0185H
	DW	0ffffH
	DW	01caH
	DW	01b7H
	DW	01d3H
	DW	0191H
	DW	0185H
	DW	044H
	DW	0185H
	DW	0ffffH
	DW	01caH
	DW	01b7H
	DW	01d3H
	DW	0194H
	DW	044H
	DW	0185H
	DW	0ffffH
	DW	01caH
	DW	01b7H
	DW	01cdH
	DW	0185H
	DW	044H
	DW	0185H
	DW	0ffffH
	DW	01caH
	DW	01b7H
	DW	01cdH
	DW	0191H
	DW	0185H
	DW	044H
	DW	0185H
	DW	0ffffH
	DW	01caH
	DW	01b7H
	DW	0e3H
	DW	051H
	DW	0ffffH
	DW	01d4H
	DW	01b7H
	DW	0e3H
	DW	051H
	DW	0ffffH
	DW	01caH
	DW	01b7H
	DW	0e3H
	DW	051H
	DW	044H
	DW	0185H
	DW	0ffffH
	DW	01d4H
	DW	01b7H
	DW	0e3H
	DW	051H
	DW	044H
	DW	0185H
	DW	0ffffH
	DW	01caH
	DW	01b7H
	DW	0ecH
	DW	09fH
	DW	0ffffH
	DW	01d4H
	DW	01b7H
	DW	0ecH
	DW	09fH
	DW	0ffffH
	DW	01caH
	DW	01b7H
	DW	0ecH
	DW	09fH
	DW	044H
	DW	0185H
	DW	0ffffH
	DW	01d4H
	DW	01b7H
	DW	0ecH
	DW	09fH
	DW	044H
	DW	0185H
	DW	0ffffH
	DW	01caH
	DW	01b7H
	DW	051H
	DW	0ffffH
	DW	01d4H
	DW	01b7H
	DW	051H
	DW	0ffffH
	DW	01caH
	DW	01b7H
	DW	051H
	DW	044H
	DW	0185H
	DW	0ffffH
	DW	01d4H
	DW	01b7H
	DW	051H
	DW	044H
	DW	0185H
	DW	0ffffH
	DW	01caH
	DW	01b7H
	DW	09fH
	DW	0ffffH
	DW	01d4H
	DW	01b7H
	DW	09fH
	DW	0ffffH
	DW	01caH
	DW	01b7H
	DW	09fH
	DW	044H
	DW	0185H
	DW	0ffffH
	DW	01d4H
	DW	01b7H
	DW	09fH
	DW	044H
	DW	0185H
	DW	0ffffH
	DW	01caH
	DW	01H
	DW	0ffffH
	DW	037H
	DW	0ffffH
	DW	03eH
	DW	0ffffH
	DW	0c4H
	DW	0ffffH
	DW	0cdH
	DW	0ffffH
	DW	090H
	DW	0ffffH
	DW	0c8H
	DW	0ffffH
	DW	0c9H
	DW	0ffffH
	DW	0cbH
	DW	0ffffH
	DW	0f8H
	DW	0ffffH
	DW	03fH
	DW	0ffffH
	DW	02fH
	DW	0ffffH
	DW	0dbH
	DW	0ffffH
	DW	040H
	DW	0ffffH
	DW	073H
	DW	0ffffH
	DW	077H
	DW	0ffffH
	DW	072H
	DW	0ffffH
	DW	0b6H
	DW	0ffffH
	DW	0ceH
	DW	0ffffH
	DW	0cfH
	DW	0ffffH
	DW	029H
	DW	0ffffH
	DW	01d4H
	DW	01b7H
	DW	01d5H
	DW	0ffffH
	DW	01d4H
	DW	01b7H
	DW	01d5H
	DW	044H
	DW	0185H
	DW	0ffffH
	DW	0108H
	DW	0ffffH
	DW	01d4H
	DW	01b7H
	DW	01d6H
	DW	0ffffH
	DW	0108H
	DW	0ffffH
	DW	01d4H
	DW	01b7H
	DW	041H
	DW	0185H
	DW	0ffffH
	DW	01d4H
	DW	01b7H
	DW	041H
	DW	0185H
	DW	044H
	DW	0185H
	DW	0ffffH
	DW	01d4H
	DW	01b7H
	DW	01d6H
	DW	044H
	DW	0185H
	DW	0ffffH
	DW	0109H
	DW	0ffffH
	DW	01d4H
	DW	01b7H
	DW	01d7H
	DW	0ffffH
	DW	0109H
	DW	0ffffH
	DW	01d4H
	DW	01b7H
	DW	099H
	DW	0185H
	DW	0ffffH
	DW	01d4H
	DW	01b7H
	DW	01d7H
	DW	044H
	DW	0185H
	DW	0ffffH
	DW	01d4H
	DW	01b7H
	DW	099H
	DW	0185H
	DW	044H
	DW	0185H
	DW	0ffffH
	DW	037H
	DW	01H
	DW	0ffffH
	DW	03H
	DW	0ffffH
	DW	0eaH
	DW	0c6H
	DW	0ffffH
	DW	0eaH
	DW	01H
	DW	0ffffH
	ORG $+6
_yyrline DW	00H
	DW	0ddH
	DW	0ddH
	DW	0dfH
	DW	0deH
	DW	0e1H
	DW	0e3H
	DW	0e6H
	DW	0ebH
	DW	0efH
	DW	0f5H
	DW	0f9H
	DW	0ffH
	DW	0103H
	DW	0109H
	DW	010dH
	DW	0113H
	DW	0118H
	DW	011bH
	DW	011eH
	DW	0121H
	DW	0125H
	DW	0127H
	DW	012aH
	DW	012cH
	DW	012eH
	DW	0136H
	DW	013cH
	DW	013eH
	DW	0146H
	DW	014bH
	DW	014dH
	DW	014fH
	DW	0151H
	DW	0151H
	DW	0154H
	DW	0156H
	DW	015aH
	DW	015cH
	DW	015eH
	DW	0160H
	DW	0168H
	DW	0170H
	DW	0171H
	DW	0173H
	DW	0175H
	DW	0177H
	DW	0179H
	DW	017cH
	DW	017fH
	DW	017fH
	DW	0182H
	DW	0185H
	DW	0187H
	DW	0189H
	DW	018bH
	DW	0190H
	DW	0191H
	DW	0192H
	DW	0193H
	DW	0196H
	DW	0197H
	DW	0198H
	DW	0199H
	DW	019cH
	DW	019dH
	DW	019eH
	DW	019fH
	DW	01a2H
	DW	01a3H
	DW	01a4H
	DW	01a5H
	DW	01a8H
	DW	01a9H
	DW	01acH
	DW	01adH
	DW	01b0H
	DW	01b1H
	DW	01b4H
	DW	01b5H
	DW	01b8H
	DW	01bdH
	DW	01c2H
	DW	01c5H
	DW	01c6H
	DW	01c7H
	DW	01caH
	DW	01cbH
	DW	01ccH
	DW	01cfH
	DW	01d1H
	DW	01d9H
	DW	01e0H
	DW	01e3H
	DW	01e2H
	DW	01e8H
	DW	01eaH
	DW	01eeH
	DW	01eeH
	DW	01f2H
	DW	01f5H
	DW	01f8H
	DW	01fbH
	DW	01feH
	DW	0200H
	DW	0207H
	DW	0208H
	DW	020cH
	DW	020eH
	DW	0211H
	DW	0214H
	DW	0217H
	DW	021cH
	DW	021dH
	DW	021fH
	DW	0221H
	DW	0223H
	DW	022bH
	DW	022eH
	DW	0230H
	DW	0238H
	DW	023bH
	DW	0252H
	DW	0257H
	DW	0259H
	DW	025bH
	DW	025fH
	DW	0262H
	DW	0265H
	DW	0268H
	DW	026aH
	DW	026cH
	DW	026fH
	DW	0271H
	DW	0274H
	DW	0276H
	DW	0279H
	DW	027bH
	DW	027eH
	DW	0281H
	DW	0284H
	DW	0286H
	DW	0289H
	DW	028bH
	DW	028dH
	DW	028fH
	DW	0291H
	DW	0294H
	DW	0296H
	DW	0298H
	DW	029aH
	DW	029cH
	DW	029eH
	DW	02a1H
	DW	02a3H
	DW	02a6H
	DW	02a8H
	DW	02abH
	DW	02adH
	DW	02b0H
	DW	02b3H
	DW	02b5H
	DW	02b9H
	DW	02bcH
	DW	02bfH
	DW	02c2H
	DW	02c3H
	DW	02c7H
	DW	02c8H
	DW	02cbH
	DW	02ccH
	DW	02cdH
	DW	02d1H
	DW	02d2H
	DW	02d3H
	DW	02d7H
	DW	02d9H
	DW	02daH
	DW	02dcH
	DW	02deH
	DW	02e0H
	DW	02e2H
	DW	02e4H
	DW	02e6H
	DW	02e8H
	DW	02eaH
	DW	02ecH
	DW	02eeH
	DW	02f0H
	DW	02f2H
	DW	02f5H
	DW	02f6H
	DW	02f7H
	DW	02faH
	DW	02fdH
	DW	02feH
	DW	0301H
	DW	0302H
	DW	0303H
	DW	0304H
	DW	0305H
	DW	0306H
	DW	0307H
	DW	0308H
	DW	0309H
	DW	030aH
	DW	030bH
	DW	030cH
	DW	030dH
	DW	030eH
	DW	030fH
	DW	0310H
	DW	0311H
	DW	0312H
	DW	0313H
	DW	0314H
	DW	0315H
	DW	0316H
	DW	0317H
	DW	0318H
	DW	0319H
	DW	031aH
	DW	031bH
	DW	031cH
	DW	031dH
	DW	031eH
	DW	031fH
	DW	0320H
	DW	0322H
	DW	0327H
	DW	0329H
	DW	032eH
	DW	0330H
	DW	0332H
	DW	0334H
	DW	0336H
	DW	0337H
	DW	0338H
	DW	0339H
	DW	033aH
	DW	033bH
	DW	033cH
	DW	033dH
	DW	0340H
	DW	0342H
	DW	0344H
	DW	0347H
	DW	0347H
	DW	034aH
	DW	0352H
	DW	0355H
	DW	0355H
	DW	0358H
	DW	035bH
	DW	035cH
	DW	035fH
	DW	0362H
	DW	0366H
	DW	0368H
	DW	036aH
	DW	036cH
	DW	036eH
	DW	0370H
	DW	0373H
	DW	0375H
	DW	0378H
	DW	037aH
	DW	037dH
	DW	037fH
	DW	0383H
	DW	0386H
	DW	038aH
	DW	038bH
	DW	038eH
	DW	038fH
	DW	0390H
	DW	0394H
	DW	0396H
	DW	0398H
	DW	039aH
	DW	039cH
	DW	039eH
	DW	03a1H
	DW	03a5H
	DW	03a7H
	DW	03a9H
	DW	03acH
	DW	03aeH
	DW	03b1H
	DW	03b3H
	DW	03b5H
	DW	03b7H
	DW	03baH
	DW	03c7H
	DW	03c9H
	DW	03cbH
	DW	03cdH
	DW	03d1H
	DW	03d2H
	DW	03d7H
	DW	03daH
	DW	03dbH
	DW	03e0H
	DW	03e3H
	DW	03e4H
	DW	03e9H
	DW	03ecH
	DW	03edH
	DW	03f2H
	DW	03f5H
	DW	03f6H
	DW	03fbH
	DW	03fcH
	DW	03ffH
	DW	0402H
	DW	0403H
	DW	0406H
	DW	0408H
	DW	040aH
	DW	040cH
	DW	0414H
	DW	0417H
	DW	0419H
	DW	041cH
	DW	041fH
	DW	0422H
	DW	0425H
	DW	0427H
	DW	042aH
	DW	042cH
	DW	042dH
	DW	042fH
	DW	0430H
	DW	0431H
	DW	0432H
	DW	0433H
	DW	0434H
	DW	0436H
	DW	044aH
	DW	0450H
	DW	0453H
	DW	0455H
	DW	0458H
	DW	045bH
	DW	045eH
	DW	0462H
	DW	046fH
	DW	0472H
	DW	0475H
	DW	0478H
	DW	047dH
	DW	0482H
	DW	0486H
	DW	0488H
	DW	048aH
	DW	048bH
	DW	0493H
	DW	049bH
	DW	04a3H
	DW	04abH
	DW	04b3H
	DW	04bbH
	DW	04c3H
	DW	04cbH
	DW	04d5H
	DW	04d8H
	DW	04dbH
	DW	04deH
	DW	04e5H
	DW	04e8H
	DW	04ecH
	DW	04efH
	DW	04f2H
	DW	04f6H
	DW	04f7H
	DW	04f8H
	DW	04fdH
	DW	04feH
	DW	0501H
	DW	0506H
	DW	0500H
	DW	052cH
	DW	052dH
	DW	0530H
	DW	0534H
	DW	052fH
	DW	0547H
	DW	0549H
	DW	054bH
	DW	054dH
	DW	0551H
	DW	0552H
	DW	0557H
	DW	0558H
	DW	055cH
	DW	055fH
	DW	0560H
	DW	0562H
	DW	0563H
	DW	0566H
	DW	056dH
	DW	0574H
	DW	057bH
	DW	0585H
	DW	058dH
	DW	0599H
	DW	05b3H
	DW	05d4H
	DW	05ebH
	DW	05f0H
	DW	05f6H
	DW	05fbH
	DW	060aH
	DW	0619H
	DW	0623H
	DW	0650H
	DW	0657H
	DW	068eH
	DW	0699H
	DW	06a5H
	DW	06aeH
	DW	06b7H
	DW	06c1H
	DW	06cbH
	DW	06d5H
	DW	06e3H
	DW	06f5H
	DW	06f6H
	DW	06f8H
	DW	0709H
	DW	0717H
	DW	071cH
	DW	0721H
	DW	071bH
	DW	0731H
	DW	0734H
	DW	0735H
	DW	0737H
	DW	0738H
	DW	073bH
	DW	073eH
	DW	0746H
	DW	074eH
	DW	074eH
	DW	0755H
	DW	075eH
	DW	0761H
	DW	0765H
	DW	0768H
	DW	076cH
	DW	0771H
	DW	0775H
	DW	077bH
	DW	0781H
	DW	0781H
	DW	078dH
	DW	078dH
	DW	0799H
	DW	07a0H
	DW	07a0H
	DW	07adH
	DW	07b5H
	DW	07b5H
	DW	07c2H
	DW	07c1H
	DW	07d0H
	DW	07d3H
	DW	07d7H
	DW	07e0H
	DW	07e1H
	DW	07e2H
	DW	07e5H
	DW	07e8H
	DW	07f1H
	DW	07faH
	DW	0803H
	DW	080cH
	DW	0815H
	DW	081eH
	DW	0827H
	DW	0830H
	DW	083aH
	DW	0840H
	DW	083fH
	DW	0847H
	DW	0846H
	DW	084fH
	DW	084eH
	DW	0855H
	DW	0857H
	DW	085bH
	DW	085cH
	DW	085eH
	DW	085fH
	DW	0860H
	DW	0862H
	DW	0866H
	DW	0867H
	DW	0869H
	DW	086aH
	DW	086cH
	DW	086eH
	DW	0870H
	DW	0875H
	DW	087fH
	DW	0882H
	DW	0887H
	DW	088fH
	DW	0892H
	DW	0898H
	DW	08a0H
	DW	08a0H
	DW	08a4H
	DW	08a5H
	DW	08a6H
	DW	08a7H
	DW	08a8H
	DW	08a9H
	DW	08aaH
	DW	08acH
	DW	08aeH
	DW	08f8H
	DW	0904H
	DW	0905H
	DW	0906H
	DW	0907H
	DW	090cH
	DW	090dH
	DW	0910H
	DW	0917H
	DW	0916H
	DW	0920H
	DW	0928H
	DW	092eH
	DW	0934H
	DW	0938H
	DW	093dH
	DW	0942H
	DW	0947H
	DW	094aH
	DW	0950H
	DW	0955H
	DW	095aH
	DW	0960H
	DW	0966H
	DW	096cH
	DW	0972H
	DW	097bH
	DW	097fH
	DW	0983H
	DW	0987H
	DW	098dH
	DW	0990H
	DW	0994H
	DW	099aH
	DW	099eH
	DW	09a6H
	DW	09a9H
	DW	09acH
	DW	09afH
	DW	09b0H
	DW	09b3H
	DW	09b4H
	DW	09b5H
	DW	09b6H
	DW	09b7H
	DW	09b8H
	DW	09baH
	DW	09bcH
	DW	09c0H
	DW	09c2H
	DW	09c7H
	DW	09c9H
	DW	09ceH
	DW	09d1H
	DW	09d5H
	DW	09d8H
	DW	09dcH
	DW	09dfH
	DW	09e3H
	DW	09e6H
	DW	09ebH
	DW	09f0H
	DW	09f5H
	DW	09faH
	DW	09feH
	DW	0a01H
	DW	0a05H
	DW	0a09H
	DW	0a0fH
	DW	0a11H
	DW	0a1fH
	DW	0a21H
	DW	0a25H
	DW	0a26H
	DW	0a27H
	DW	0a29H
	DW	0a2cH
	DW	0a2fH
	DW	0a33H
	DW	0a34H
	DW	0a38H
	DW	0a39H
	DW	0a3dH
	DW	0a3eH
	DW	0a43H
	DW	0a44H
	DW	0a49H
	DW	0a4aH
	DW	0a4eH
	DW	0a50H
	DW	0a54H
	DW	0a55H
	DW	0a59H
	DW	0a5aH
	DW	0a5fH
	DW	0a60H
	DW	0a64H
	DW	0a65H
	DW	0a69H
	DW	0a6aH
	DW	0a6cH
	DW	0a6dH
	DW	0a6eH
	DW	0a71H
	DW	0a74H
	DW	0a78H
	DW	0a7dH
	DW	0a7eH
	DW	0a7fH
	DW	0a80H
	DW	0a81H
	DW	0a82H
	DW	0a88H
	DW	0a97H
	DW	0a9bH
	DW	0a9dH
	DW	0aa1H
	DW	0aa3H
	DW	0aacH
	DW	0ab0H
	DW	0ab1H
	DW	0ab2H
	DW	0ab7H
	DW	0ab9H
	DW	0ac0H
	DW	0accH
	DW	0addH
	DW	0aecH
	DW	0afdH
	DW	0affH
	DW	0b01H
	DW	0b03H
	DW	0b05H
	DW	0b09H
	DW	0b0dH
	DW	0b0eH
	DW	0b10H
	DW	0b11H
	DW	0b19H
	DW	0b1aH
	DW	0b1cH
	DW	0b1dH
	DW	0b1eH
	DW	0b1fH
	DW	0b20H
	DW	0b21H
	DW	0b22H
	DW	0b24H
	DW	0b26H
	DW	0b2bH
	DW	0b33H
	DW	0b37H
	DW	0b38H
	DW	0b39H
	DW	0b3aH
	DW	0b3bH
	DW	0b3cH
	DW	0b3dH
	DW	0b3eH
	DW	0b3fH
	DW	0b40H
	DW	0b41H
	DW	0b42H
	DW	0b43H
	DW	0b44H
	DW	0b45H
	DW	0b46H
	DW	0b47H
	DW	0b48H
	DW	0b49H
	DW	0b4aH
	DW	0b4bH
	DW	0b4cH
	DW	0b4dH
	DW	0b4eH
	DW	0b4fH
	DW	0b50H
	DW	0b51H
	DW	0b52H
	DW	0b53H
	DW	0b54H
	DW	0b55H
	DW	0b56H
	DW	0b57H
	DW	0b58H
	DW	0b59H
	DW	0b5aH
	DW	0b5bH
	DW	0b5cH
	DW	0b5dH
	DW	0b5eH
	DW	0b5fH
	DW	0b60H
	DW	0b61H
	DW	0b62H
	DW	0b63H
	DW	0b65H
	DW	0b6eH
	DW	0b72H
	DW	0b80H
	DW	0b9cH
	DW	0ba0H
	DW	0ba5H
	DW	0ba9H
	DW	0badH
	DW	0bb3H
	DW	0bb7H
	DW	0bbcH
	DW	0bc0H
	DW	0bc4H
	DW	0bc9H
	DW	0bcdH
	DW	0bd1H
	DW	0bd5H
	DW	0bd9H
	DW	0bddH
	DW	0beeH
	DW	0bf5H
	DW	0bfbH
	DW	0bfdH
	DW	0bffH
	DW	0c04H
	DW	0c0cH
	DW	0c0eH
	DW	0c10H
	DW	0c18H
	DW	0c19H
	DW	0c1aH
	DW	0c1bH
	DW	0c1cH
	DW	0c1fH
	DW	0c20H
	DW	0c22H
	DW	0c23H
	DW	0c24H
	DW	0c25H
	DW	0c27H
	DW	0c29H
	DW	0c2eH
	DW	0c2fH
	DW	0c30H
	DW	0c31H
	DW	0c32H
	DW	0c33H
	DW	0c34H
	DW	0c35H
	DW	0c36H
	DW	0c37H
	DW	0c38H
	DW	0c39H
	DW	0c3aH
	DW	0c3bH
	DW	0c3dH
	DW	0c46H
	DW	0c4cH
	DW	0c50H
	DW	0c58H
	DW	0c59H
	DW	0c5eH
	DW	0c5fH
	DW	0c60H
	DW	0c61H
	DW	0c62H
	DW	0c63H
	DW	0c64H
	DW	0c65H
	DW	0c66H
	DW	0c6aH
	DW	0c6cH
	DW	0c72H
	DW	0c82H
	DW	0c91H
	DW	0c96H
	DW	0ca8H
	DW	0cc0H
	DW	0cc1H
	DW	0cc2H
	DW	0cc3H
	DW	0cc4H
	DW	0cc5H
	DW	0cc6H
	DW	0cc7H
	DW	0cc8H
	DW	0cc9H
	DW	0ccaH
	DW	0ccbH
	DW	0cccH
	DW	0cceH
	DW	0cd0H
	DW	0cd2H
	DW	0cd4H
	DW	0cd6H
	DW	0cd8H
	DW	0cdaH
	DW	0cdcH
	DW	0cdeH
	DW	0ce0H
	DW	0ce2H
	DW	0ce4H
	DW	0ce6H
	DW	0ce8H
	DW	0ceaH
	DW	0cecH
	DW	0ceeH
	DW	0cf0H
	DW	0cf4H
	DW	0d02H
	DW	0d04H
	DW	0d05H
	DW	0d06H
	DW	0d0bH
	DW	0d0dH
	DW	0d0aH
	DW	0d17H
	DW	0d1dH
	DW	0d1eH
	DW	0d1fH
	DW	0d20H
	DW	0d21H
	DW	0d22H
	DW	0d23H
	DW	0d24H
	DW	0d26H
	DW	0d29H
	DW	0d2bH
	DW	0d32H
	DW	0d36H
	DW	0d36H
	DW	0d3bH
	DW	0d3cH
	DW	0d3fH
	DW	0d3fH
	DW	0d44H
	DW	0d48H
	DW	0d47H
	DW	0d51H
	DW	0d50H
	DW	0d5dH
	DW	0d5cH
	DW	0d67H
	DW	0d6aH
	DW	0d6bH
	DW	0d6cH
	DW	0d6dH
	DW	0d6eH
	DW	0d6fH
	DW	0d70H
	DW	0d71H
	DW	0d72H
	DW	0d73H
	DW	0d74H
	DW	0d75H
	DW	0d77H
	DW	0d7eH
	DW	0d89H
	DW	0d8aH
	DW	0d8bH
	DW	0d8cH
	DW	0d8dH
	DW	0d8eH
	DW	0d8fH
	DW	0d90H
	DW	0d91H
	DW	0d92H
	DW	0d93H
	DW	0d94H
	DW	0d9eH
	DW	0d9fH
	DW	0da0H
	DW	0da1H
	DW	0da2H
	DW	0da3H
	DW	0da7H
	DW	0da8H
	DW	0da9H
	DW	0daaH
	DW	0dabH
	DW	0dacH
	DW	0dadH
	DW	0db1H
	DW	0db1H
	DW	0dc3H
	DW	0dc3H
	DW	0dd6H
	DW	0dd6H
	DW	0de9H
	DW	0de9H
	DW	0dfcH
	DW	0e09H
	DW	0e18H
	DW	0e19H
	DW	0e1bH
	DW	0e35H
	DW	0e4cH
	DW	0e70H
	DW	0e9bH
	DW	0ebaH
	DW	0ed0H
	DW	0ee6H
	DW	0ef0H
	DW	0efaH
	DW	0f0bH
	DW	0f1dH
	DW	0f27H
	DW	0f31H
	DW	0f41H
	DW	0f53H
	DW	0f5dH
	DW	0f67H
	DW	0f78H
	DW	0f8aH
	DW	0f94H
	DW	0f9eH
	DW	0fafH
	DW	0fc1H
	DW	0fccH
	DW	0fcdH
	DW	0fceH
	DW	0fcfH
	DW	0fd0H
	DW	0fd1H
	DW	0fd2H
	DW	0fd3H
	DW	0fd4H
	DW	0fd5H
	DW	0fd6H
	DW	0fd7H
	DW	0fd8H
	DW	0fd9H
	DW	0fdaH
	DW	0fdbH
	DW	0fdcH
	DW	0fddH
	DW	0fdeH
	DW	0fdfH
	DW	0fe0H
	DW	0fe7H
	DW	0ff1H
	DW	0ff3H
	DW	0ffeH
	DW	01001H
	DW	0100aH
	DW	0101aH
	DW	0102aH
	DW	0102bH
	DW	01035H
	DW	01037H
	DW	01040H
	DW	01050H
	DW	01061H
	DW	01066H
	DW	01068H
	DW	0106bH
	ORG $+4
_yytname DD	FLAT:??_C@_04ECLMMOJO@$end?$AA@
	DD	FLAT:??_C@_05KKCIMGE@error?$AA@
	DD	FLAT:??_C@_0L@HFCILFIM@$undefined?$AA@
	DD	FLAT:??_C@_0BF@PNGPAGJP@EXPRESSION_START_TOK?$AA@
	DD	FLAT:??_C@_0BC@CMIMJJFD@COMMAND_START_TOK?$AA@
	DD	FLAT:??_C@_0M@JLMMBPPJ@HISTORY_TOK?$AA@
	DD	FLAT:??_C@_0N@BAAEJACA@GEOMVIEW_TOK?$AA@
	DD	FLAT:??_C@_0BA@DIDJOOKL@VIEW_MATRIX_TOK?$AA@
	DD	FLAT:??_C@_0BD@JNHBHIMC@ON_ASSIGN_CALL_TOK?$AA@
	DD	FLAT:??_C@_0BB@EAMCGJMI@LEAD_INTEGER_TOK?$AA@
	DD	FLAT:??_C@_0M@GLGOECGI@INTEGER_TOK?$AA@
	DD	FLAT:??_C@_08CIKOGGCO@REAL_TOK?$AA@
	DD	FLAT:??_C@_0BC@IGAGNLAB@SIGNED_NUMBER_TOK?$AA@
	DD	FLAT:??_C@_0N@NLEFEGNA@NEWIDENT_TOK?$AA@
	DD	FLAT:??_C@_0N@GJADPHEC@REDEFINE_TOK?$AA@
	DD	FLAT:??_C@_0N@FPDHDHNA@MATHFUNC_TOK?$AA@
	DD	FLAT:??_C@_0O@NGKKCGPK@MATHFUNC2_TOK?$AA@
	DD	FLAT:??_C@_07PKFEHCFD@POW_TOK?$AA@
	DD	FLAT:??_C@_0BC@NKIAPJMA@IS_CONSTRAINT_TOK?$AA@
	DD	FLAT:??_C@_0N@OOEDLCO@USERFUNC_TOK?$AA@
	DD	FLAT:??_C@_08PMANPAJL@MIDV_TOK?$AA@
	DD	FLAT:??_C@_0BB@ELDBDBED@DATAFILENAME_TOK?$AA@
	DD	FLAT:??_C@_0M@FJJGIJFE@LOGFILE_TOK?$AA@
	DD	FLAT:??_C@_06PPHGAOEO@PI_TOK?$AA@
	DD	FLAT:??_C@_05IHMPFJFP@E_TOK?$AA@
	DD	FLAT:??_C@_05MKAHPIFE@G_TOK?$AA@
	DD	FLAT:??_C@_09LMFGAJJN@PARAM_TOK?$AA@
	DD	FLAT:??_C@_0L@CIPOCKCP@SYMBOL_TOK?$AA@
	DD	FLAT:??_C@_09HAEMKIFH@TOTAL_TOK?$AA@
	DD	FLAT:??_C@_0BE@HJFGHHDA@EXTRA_ATTRIBUTE_TOK?$AA@
	DD	FLAT:??_C@_0N@LGEOHBPO@FIXEDVOL_TOK?$AA@
	DD	FLAT:??_C@_09IJJFPNHI@IDENT_TOK?$AA@
	DD	FLAT:??_C@_0L@NFGDPGHD@UMINUS_TOK?$AA@
	DD	FLAT:??_C@_09CHDHIOJC@SHELL_TOK?$AA@
	DD	FLAT:??_C@_09HDIDAAOO@COLOR_TOK?$AA@
	DD	FLAT:??_C@_0M@HLDNFNAA@HESSIAN_TOK?$AA@
	DD	FLAT:??_C@_0N@JMLFHHMF@VOLCONST_TOK?$AA@
	DD	FLAT:??_C@_0BC@BDOBENHH@TORUS_PERIODS_TOK?$AA@
	DD	FLAT:??_C@_0N@LOGEBPOP@VERTICES_TOK?$AA@
	DD	FLAT:??_C@_09MOIOHOMJ@EDGES_TOK?$AA@
	DD	FLAT:??_C@_0L@JGHICJEL@FACETS_TOK?$AA@
	DD	FLAT:??_C@_0L@MKAPIFIG@BODIES_TOK?$AA@
	DD	FLAT:??_C@_0BB@NAKAMDFM@HESSIAN_MENU_TOK?$AA@
	DD	FLAT:??_C@_0P@OGKPOJNL@POSTSCRIPT_TOK?$AA@
	DD	FLAT:??_C@_0L@JNEKLGBN@NORMAL_TOK?$AA@
	DD	FLAT:??_C@_0L@KHEHMDMH@LENGTH_TOK?$AA@
	DD	FLAT:??_C@_08IDEMBHGF@AREA_TOK?$AA@
	DD	FLAT:??_C@_0L@KCIMBLFC@VOLUME_TOK?$AA@
	DD	FLAT:??_C@_06LBKOMEIN@ID_TOK?$AA@
	DD	FLAT:??_C@_07LJFNBENL@OID_TOK?$AA@
	DD	FLAT:??_C@_07CNPHAFGP@TAG_TOK?$AA@
	DD	FLAT:??_C@_0N@CJPCEPEG@ORIGINAL_TOK?$AA@
	DD	FLAT:??_C@_0P@KOIADPHD@FACETEDGES_TOK?$AA@
	DD	FLAT:??_C@_08GAFDNJLD@WRAP_TOK?$AA@
	DD	FLAT:??_C@_0O@HDBHPJOE@QUOTATION_TOK?$AA@
	DD	FLAT:??_C@_09JJPKHKNG@UNSET_TOK?$AA@
	DD	FLAT:??_C@_0M@EGGHDCCH@TOPINFO_TOK?$AA@
	DD	FLAT:??_C@_0M@HEKKEOOI@OPACITY_TOK?$AA@
	DD	FLAT:??_C@_0M@NACPBJAN@VALENCE_TOK?$AA@
	DD	FLAT:??_C@_0BD@FKFKHOHL@HESSIAN_SADDLE_TOK?$AA@
	DD	FLAT:??_C@_0M@HBFKECKJ@NO_DUMP_TOK?$AA@
	DD	FLAT:??_C@_07FGDPFIFA@SET_TOK?$AA@
	DD	FLAT:??_C@_09GPLODDDJ@FIXED_TOK?$AA@
	DD	FLAT:??_C@_0M@IHFCJLJD@DENSITY_TOK?$AA@
	DD	FLAT:??_C@_0N@PHNMLNPF@PRESSURE_TOK?$AA@
	DD	FLAT:??_C@_0P@HHPIFFLE@CONSTRAINT_TOK?$AA@
	DD	FLAT:??_C@_09COIKBLIF@COORD_TOK?$AA@
	DD	FLAT:??_C@_0N@GFOEIJLF@DISSOLVE_TOK?$AA@
	DD	FLAT:??_C@_09DODCJILD@WHERE_TOK?$AA@
	DD	FLAT:??_C@_08EMHOHJD@LIST_TOK?$AA@
	DD	FLAT:??_C@_08JNPOOOLJ@SHOW_TOK?$AA@
	DD	FLAT:??_C@_0L@MNMJBOKH@DELETE_TOK?$AA@
	DD	FLAT:??_C@_0L@IKKFEMHO@REFINE_TOK?$AA@
	DD	FLAT:??_C@_0L@FCBBOALA@RECALC_TOK?$AA@
	DD	FLAT:??_C@_09GMGGELCL@SHOWQ_TOK?$AA@
	DD	FLAT:??_C@_0N@IIAFLKEI@EDGESWAP_TOK?$AA@
	DD	FLAT:??_C@_0BA@EJCJPPGH@STRINGARRAY_TOK?$AA@
	DD	FLAT:??_C@_07NCAGMNBA@FIX_TOK?$AA@
	DD	FLAT:??_C@_09BNMDOPJG@UNFIX_TOK?$AA@
	DD	FLAT:??_C@_0P@EGJLJFC@TOGGLENAME_TOK?$AA@
	DD	FLAT:??_C@_0BA@FMGNPKEN@TOGGLEVALUE_TOK?$AA@
	DD	FLAT:??_C@_0BC@JFNIDHMD@QUANTITY_NAME_TOK?$AA@
	DD	FLAT:??_C@_09KKIBAPAO@PAUSE_TOK?$AA@
	DD	FLAT:??_C@_0BI@JKMHGOPP@VALUE_OF_CONSTRAINT_TOK?$AA@
	DD	FLAT:??_C@_06ILFGEPBD@GO_TOK?$AA@
	DD	FLAT:??_C@_0N@OMAHEGJ@SHOW_VOL_TOK?$AA@
	DD	FLAT:??_C@_09OLNEEPCL@CHECK_TOK?$AA@
	DD	FLAT:??_C@_08MEPNOEED@READ_TOK?$AA@
	DD	FLAT:??_C@_08JJNFHAAG@ZOOM_TOK?$AA@
	DD	FLAT:??_C@_06HDOFNCNB@ON_TOK?$AA@
	DD	FLAT:??_C@_07CNNMFDJ@OFF_TOK?$AA@
	DD	FLAT:??_C@_0N@BIOGPJFD@GEOMPIPE_TOK?$AA@
	DD	FLAT:??_C@_08PPJJDAML@SELF_TOK?$AA@
	DD	FLAT:??_C@_0BC@JLLKBANK@SINGLE_LETTER_TOK?$AA@
	DD	FLAT:??_C@_0BA@IFOCAJLC@LONG_JIGGLE_TOK?$AA@
	DD	FLAT:??_C@_0P@HNKHEBON@RAW_VERAVG_TOK?$AA@
	DD	FLAT:??_C@_0L@HLFGJCBH@COUNTS_TOK?$AA@
	DD	FLAT:??_C@_09KHNHEDKI@CHDIR_TOK?$AA@
	DD	FLAT:??_C@_0BC@JEJAMIBH@QUOTED_LETTER_TOK?$AA@
	DD	FLAT:??_C@_09NPGILKCF@ALICE_TOK?$AA@
	DD	FLAT:??_C@_0BD@PAJJNGDF@STABILITY_TEST_TOK?$AA@
	DD	FLAT:??_C@_0L@MMOGECPG@DEFINE_TOK?$AA@
	DD	FLAT:??_C@_09CCLIGMME@UPLUS_TOK?$AA@
	DD	FLAT:??_C@_0N@BAJGGNME@DATATYPE_TOK?$AA@
	DD	FLAT:??_C@_0BB@OFAFBGMM@FLUSH_COUNTS_TOK?$AA@
	DD	FLAT:??_C@_0BC@NHGLDCGL@NORMAL_VECTOR_TOK?$AA@
	DD	FLAT:??_C@_0N@KGFDFJOF@AUTOCHOP_TOK?$AA@
	DD	FLAT:??_C@_09BOMOCDGB@UTEST_TOK?$AA@
	DD	FLAT:??_C@_0O@LFALPICA@ATTRIBUTE_TOK?$AA@
	DD	FLAT:??_C@_08JPGICBIO@RITZ_TOK?$AA@
	DD	FLAT:??_C@_08EPGBAEMO@MOVE_TOK?$AA@
	DD	FLAT:??_C@_0BB@EELIJEO@VERTEXNORMAL_TOK?$AA@
	DD	FLAT:??_C@_07OHFBECOL@POP_TOK?$AA@
	DD	FLAT:??_C@_0L@JJAEAHIL@SYSTEM_TOK?$AA@
	DD	FLAT:??_C@_0BA@HKAAKKDP@TETRA_POINT_TOK?$AA@
	DD	FLAT:??_C@_0BB@CEGEBFJP@TRIPLE_POINT_TOK?$AA@
	DD	FLAT:??_C@_0M@KLDBABAE@LANCZOS_TOK?$AA@
	DD	FLAT:??_C@_0P@NNNEAIAP@EIGENPROBE_TOK?$AA@
	DD	FLAT:??_C@_08CKIPLKK@EXEC_TOK?$AA@
	DD	FLAT:??_C@_0BG@MFDEEJNJ@NO_HESSIAN_NORMAL_TOK?$AA@
	DD	FLAT:??_C@_0N@PFGEICLN@AREAWEED_TOK?$AA@
	DD	FLAT:??_C@_0N@IHHPLJIM@EDGEWEED_TOK?$AA@
	DD	FLAT:??_C@_0M@MMJNIGOJ@GRAVITY_TOK?$AA@
	DD	FLAT:??_C@_0P@KLGJOHED@EDGEDIVIDE_TOK?$AA@
	DD	FLAT:??_C@_0L@GIPFLGKA@LINEAR_TOK?$AA@
	DD	FLAT:??_C@_0O@CGOONBPK@QUADRATIC_TOK?$AA@
	DD	FLAT:??_C@_0BE@IGIKNCPE@EVOLVER_VERSION_TOK?$AA@
	DD	FLAT:??_C@_0O@JOKMLPAE@DIFFUSION_TOK?$AA@
	DD	FLAT:??_C@_0BA@CODCPDBO@EXTRAPOLATE_TOK?$AA@
	DD	FLAT:??_C@_0BE@MONPEINN@TRANSFORM_DEPTH_TOK?$AA@
	DD	FLAT:??_C@_0L@IHPNBIMI@PRINTF_TOK?$AA@
	DD	FLAT:??_C@_0O@EBENAPNG@ERRPRINTF_TOK?$AA@
	DD	FLAT:??_C@_0BA@FBPMDEOH@NONPOSITIVE_TOK?$AA@
	DD	FLAT:??_C@_0BA@PINCIBFB@NONNEGATIVE_TOK?$AA@
	DD	FLAT:??_C@_09NKFLHJOO@PRINT_TOK?$AA@
	DD	FLAT:??_C@_07LMIDJPCB@MAX_TOK?$AA@
	DD	FLAT:??_C@_07FKODDAMA@MIN_TOK?$AA@
	DD	FLAT:??_C@_09GAFJMCEH@COUNT_TOK?$AA@
	DD	FLAT:??_C@_07BFDIJHMN@SUM_TOK?$AA@
	DD	FLAT:??_C@_07LLNFJIGA@AVG_TOK?$AA@
	DD	FLAT:??_C@_09KKGHPNND@BREAK_TOK?$AA@
	DD	FLAT:??_C@_0N@HAMDNMNC@CONTINUE_TOK?$AA@
	DD	FLAT:??_C@_0L@GMKPKOAA@SIZEOF_TOK?$AA@
	DD	FLAT:??_C@_0BD@IOAEMMN@TRANSFORM_EXPR_TOK?$AA@
	DD	FLAT:??_C@_08HBBNPNDO@BARE_TOK?$AA@
	DD	FLAT:??_C@_0P@IEFCCJPL@BOTTOMINFO_TOK?$AA@
	DD	FLAT:??_C@_09PPLGHGMC@METIS_TOK?$AA@
	DD	FLAT:??_C@_0L@ICNCDBPD@KMETIS_TOK?$AA@
	DD	FLAT:??_C@_0P@KKJKDFFK@KEYLOGFILE_TOK?$AA@
	DD	FLAT:??_C@_09GCHEPHN@SCALE_TOK?$AA@
	DD	FLAT:??_C@_0L@PGJEELMD@PSCALE_TOK?$AA@
	DD	FLAT:??_C@_0N@OKEECHJD@BURCHARD_TOK?$AA@
	DD	FLAT:??_C@_0L@MBECIJFL@REBODY_TOK?$AA@
	DD	FLAT:??_C@_0N@IJNCFOGM@BOUNDARY_TOK?$AA@
	DD	FLAT:??_C@_0BA@LCNFMHPK@ORIENTATION_TOK?$AA@
	DD	FLAT:??_C@_0L@DCALECHB@OMETIS_TOK?$AA@
	DD	FLAT:??_C@_0BB@KAJICLHM@SQ_MEAN_CURV_TOK?$AA@
	DD	FLAT:??_C@_0P@OCHGEFBG@FRONTCOLOR_TOK?$AA@
	DD	FLAT:??_C@_0BC@JPIMHHMI@SINGLE_REDEFD_TOK?$AA@
	DD	FLAT:??_C@_0BA@GHBFFFMK@METHOD_NAME_TOK?$AA@
	DD	FLAT:??_C@_0O@JNDFFBPJ@TASK_EXEC_TOK?$AA@
	DD	FLAT:??_C@_0BC@FGKAFAEA@RAWEST_VERAVG_TOK?$AA@
	DD	FLAT:??_C@_0BG@PPMPGIJF@SINGLE_LETTER_ARG_TOK?$AA@
	DD	FLAT:??_C@_0O@DDOKJBIG@BACKCOLOR_TOK?$AA@
	DD	FLAT:??_C@_0N@IDEILLME@LAGRANGE_TOK?$AA@
	DD	FLAT:??_C@_0L@OJDOAEJE@RETURN_TOK?$AA@
	DD	FLAT:??_C@_0BI@DIPLELKP@TRANSFORM_EXPR_VERB_TOK?$AA@
	DD	FLAT:??_C@_0N@ICHHIFGF@OOGLFILE_TOK?$AA@
	DD	FLAT:??_C@_0BC@IBHLDHJF@PARALLEL_EXEC_TOK?$AA@
	DD	FLAT:??_C@_0BE@MBNIINNA@BINARY_OFF_FILE_TOK?$AA@
	DD	FLAT:??_C@_0M@NMEKOHLH@SPRINTF_TOK?$AA@
	DD	FLAT:??_C@_0BG@MHAGINLF@CONVERT_TO_QUANTS_TOK?$AA@
	DD	FLAT:??_C@_0BB@CAPOLJBG@METIS_FACTOR_TOK?$AA@
	DD	FLAT:??_C@_0N@LAJCGPLB@FUNCTION_TOK?$AA@
	DD	FLAT:??_C@_0M@CILJCLHG@EXPRINT_TOK?$AA@
	DD	FLAT:??_C@_0N@KMJBHFNJ@DIHEDRAL_TOK?$AA@
	DD	FLAT:??_C@_0BA@JOPBDGEE@WRAP_VERTEX_TOK?$AA@
	DD	FLAT:??_C@_0P@MJEKKDEI@ARRAYIDENT_TOK?$AA@
	DD	FLAT:??_C@_0BC@FCPEGHD@DATE_AND_TIME_TOK?$AA@
	DD	FLAT:??_C@_09DCELFBHJ@LOCAL_TOK?$AA@
	DD	FLAT:??_C@_0O@CPPPGFPH@SHOW_EXPR_TOK?$AA@
	DD	FLAT:??_C@_0P@PNFFCAHL@SHOW_TRANS_TOK?$AA@
	DD	FLAT:??_C@_0BA@BIDICDDJ@AXIAL_POINT_TOK?$AA@
	DD	FLAT:??_C@_0L@MFIPAEK@ENERGY_TOK?$AA@
	DD	FLAT:??_C@_0O@BCIMBOGK@CONSERVED_TOK?$AA@
	DD	FLAT:??_C@_0O@FHEAPHIJ@INFO_ONLY_TOK?$AA@
	DD	FLAT:??_C@_0L@IOAJKNDF@ASSIGN_TOK?$AA@
	DD	FLAT:??_C@_0O@PGFHAECA@PROCEDURE_TOK?$AA@
	DD	FLAT:??_C@_0M@NCJIGPNO@FOREACH_TOK?$AA@
	DD	FLAT:??_C@_0BB@OEHCHJNI@STRINGGLOBAL_TOK?$AA@
	DD	FLAT:??_C@_0BB@HBMGBJKA@EQUIANGULATE_TOK?$AA@
	DD	FLAT:??_C@_0O@OAKCOPBN@HISTOGRAM_TOK?$AA@
	DD	FLAT:??_C@_0BB@MBMGIPGF@LOGHISTOGRAM_TOK?$AA@
	DD	FLAT:??_C@_0P@OKAAHMI@AREA_FIXED_TOK?$AA@
	DD	FLAT:??_C@_08LBPCKFFB@QUIT_TOK?$AA@
	DD	FLAT:??_C@_0BF@KCFAPGJP@WARNING_MESSAGES_TOK?$AA@
	DD	FLAT:??_C@_0BB@BHJIHDDJ@CENTEROFMASS_TOK?$AA@
	DD	FLAT:??_C@_06PMGGGFIG@IF_TOK?$AA@
	DD	FLAT:??_C@_09FOHMGKGP@WHILE_TOK?$AA@
	DD	FLAT:??_C@_06LKLOFFIO@DO_TOK?$AA@
	DD	FLAT:??_C@_0O@GOKJKHMH@NO_REFINE_TOK?$AA@
	DD	FLAT:??_C@_0BB@LGIDMAPC@NO_TRANSFORM_TOK?$AA@
	DD	FLAT:??_C@_0L@DPKDMLBO@STRING_TOK?$AA@
	DD	FLAT:??_C@_0P@IGFDPKNM@NONCONTENT_TOK?$AA@
	DD	FLAT:??_C@_07BAENNLEM@FOR_TOK?$AA@
	DD	FLAT:??_C@_0BA@KGBKHCMC@HIT_PARTNER_TOK?$AA@
	DD	FLAT:??_C@_0O@IFKEOLFG@FRONTBODY_TOK?$AA@
	DD	FLAT:??_C@_0N@KCBHIKPC@BACKBODY_TOK?$AA@
	DD	FLAT:??_C@_0O@JFFKOKOE@COLORFILE_TOK?$AA@
	DD	FLAT:??_C@_0BG@JIENBDGP@PERM_STRINGGLOBAL_TOK?$AA@
	DD	FLAT:??_C@_0BD@EICAKJNN@FUNCTION_IDENT_TOK?$AA@
	DD	FLAT:??_C@_0M@JDJNMAEE@THICKEN_TOK?$AA@
	DD	FLAT:??_C@_0N@JHHBOPLG@COLORMAP_TOK?$AA@
	DD	FLAT:??_C@_0N@HMOBKBAA@REDIRECT_TOK?$AA@
	DD	FLAT:??_C@_0O@EJPOLGKF@NEWVERTEX_TOK?$AA@
	DD	FLAT:??_C@_0M@NACDLDEJ@NEWEDGE_TOK?$AA@
	DD	FLAT:??_C@_0N@KELBAFGP@NEWFACET_TOK?$AA@
	DD	FLAT:??_C@_0BD@NELBLNII@FACET_CROSSCUT_TOK?$AA@
	DD	FLAT:??_C@_0M@NDGADGHD@MODULUS_TOK?$AA@
	DD	FLAT:??_C@_0L@EFNAKCMM@TARGET_TOK?$AA@
	DD	FLAT:??_C@_09KHLLGAHD@VALUE_TOK?$AA@
	DD	FLAT:??_C@_0BE@OEGMLJBJ@INVERSE_PERIODS_TOK?$AA@
	DD	FLAT:??_C@_0M@KMNEBKKL@NEWBODY_TOK?$AA@
	DD	FLAT:??_C@_0L@BEFJCNLG@PDELTA_TOK?$AA@
	DD	FLAT:??_C@_0BB@HPLMDLJJ@GAP_CONSTANT_TOK?$AA@
	DD	FLAT:??_C@_08DIHLMEGK@DUMP_TOK?$AA@
	DD	FLAT:??_C@_09EMMOOKEJ@NOTCH_TOK?$AA@
	DD	FLAT:??_C@_0N@GEOKEKFC@QUANTITY_TOK?$AA@
	DD	FLAT:??_C@_08DBDPGBGI@LOAD_TOK?$AA@
	DD	FLAT:??_C@_0BD@JONHINGP@PERM_PROCEDURE_TOK?$AA@
	DD	FLAT:??_C@_0BD@KMNDPHCD@PROCEDURE_WORD_TOK?$AA@
	DD	FLAT:??_C@_0BG@BFKHJEEJ@DYNAMIC_LOAD_FUNC_TOK?$AA@
	DD	FLAT:??_C@_0P@NKBDPGIB@PERM_IDENT_TOK?$AA@
	DD	FLAT:??_C@_0N@DCJOCMCA@PERMLOAD_TOK?$AA@
	DD	FLAT:??_C@_08EIDANOB@HELP_TOK?$AA@
	DD	FLAT:??_C@_0BD@ELBCCGPJ@VERTEX_AVERAGE_TOK?$AA@
	DD	FLAT:??_C@_0BE@EOFLEPDM@METHOD_INSTANCE_TOK?$AA@
	DD	FLAT:??_C@_0BH@KILBGCBH@RAW_VERTEX_AVERAGE_TOK?$AA@
	DD	FLAT:??_C@_0BF@MODDFIEA@REDIRECTOVER_ERR_TOK?$AA@
	DD	FLAT:??_C@_0N@KLJNKJEP@OPTIMIZE_TOK?$AA@
	DD	FLAT:??_C@_0BB@DOEHBNCA@REDIRECTOVER_TOK?$AA@
	DD	FLAT:??_C@_0O@OMGGDAPF@TOLERANCE_TOK?$AA@
	DD	FLAT:??_C@_0BK@PDEECJJN@RAWEST_VERTEX_AVERAGE_TOK?$AA@
	DD	FLAT:??_C@_0BB@MCMKMLNJ@REDIRECT_ERR_TOK?$AA@
	DD	FLAT:??_C@_0L@BBMCJOCG@JIGGLE_TOK?$AA@
	DD	FLAT:??_C@_0BE@GGIFBJEI@VIEW_TRANSFORMS_TOK?$AA@
	DD	FLAT:??_C@_0P@CCPGCKCC@CLOSE_SHOW_TOK?$AA@
	DD	FLAT:??_C@_0P@LMFADJDG@IS_DEFINED_TOK?$AA@
	DD	FLAT:??_C@_0O@KBCCNLID@NODISPLAY_TOK?$AA@
	DD	FLAT:??_C@_0BA@EKDLGBIG@PERM_ASSIGN_TOK?$AA@
	DD	FLAT:??_C@_09PONDIGIE@PHASE_TOK?$AA@
	DD	FLAT:??_C@_0BP@DILMPLFK@VIEW_TRANSFORM_SWAP_COLORS_TOK?$AA@
	DD	FLAT:??_C@_0BE@NKAHAADP@BACKQUOTE_COMMA_TOK?$AA@
	DD	FLAT:??_C@_0M@GKIKGNBD@P_FORCE_TOK?$AA@
	DD	FLAT:??_C@_0P@NONHHGEL@P_VELOCITY_TOK?$AA@
	DD	FLAT:??_C@_0BG@KHEPGOMH@INTERNAL_VARIABLE_TOK?$AA@
	DD	FLAT:??_C@_0O@EILCMAJF@DIRICHLET_TOK?$AA@
	DD	FLAT:??_C@_0M@DFKKLNEE@SOBOLEV_TOK?$AA@
	DD	FLAT:??_C@_0BK@DKIFNFJO@VIEW_TRANSFORM_PARITY_TOK?$AA@
	DD	FLAT:??_C@_0BB@GCNDBOOB@SOBOLEV_SEEK_TOK?$AA@
	DD	FLAT:??_C@_0BD@MHLHMFDK@DIRICHLET_SEEK_TOK?$AA@
	DD	FLAT:??_C@_0BB@IPHJGNKO@HESSIAN_SEEK_TOK?$AA@
	DD	FLAT:??_C@_0BE@LINDMPOG@REORDER_STORAGE_TOK?$AA@
	DD	FLAT:??_C@_0BB@GBLBLBGI@RENUMBER_ALL_TOK?$AA@
	DD	FLAT:??_C@_0BE@EEHLHEPJ@CONSTRAINT_NAME_TOK?$AA@
	DD	FLAT:??_C@_0BC@JFBKMIGF@BOUNDARY_NAME_TOK?$AA@
	DD	FLAT:??_C@_0BE@EFHMMFCB@PROCEDURE_IDENT_TOK?$AA@
	DD	FLAT:??_C@_0BE@ILAEFKAC@POP_TRI_TO_EDGE_TOK?$AA@
	DD	FLAT:??_C@_0BE@DMIKMHHD@POP_EDGE_TO_TRI_TOK?$AA@
	DD	FLAT:??_C@_0BF@KEDDKBIM@POP_QUAD_TO_QUAD_TOK?$AA@
	DD	FLAT:??_C@_0N@GMFEGIIE@SHOWVERB_TOK?$AA@
	DD	FLAT:??_C@_0P@KIBGGICK@PROCEDURES_TOK?$AA@
	DD	FLAT:??_C@_0BC@CNAHJPN@MPI_TASK_ATTR_TOK?$AA@
	DD	FLAT:??_C@_0BA@HDGBDGCO@T1_EDGESWAP_TOK?$AA@
	DD	FLAT:??_C@_0P@GIGCBOHD@MERGE_EDGE_TOK?$AA@
	DD	FLAT:??_C@_0BA@GCAFJNHA@MERGE_FACET_TOK?$AA@
	DD	FLAT:??_C@_0BB@MEDAAPMI@MERGE_VERTEX_TOK?$AA@
	DD	FLAT:??_C@_0BB@MOBABKKJ@RESET_COUNTS_TOK?$AA@
	DD	FLAT:??_C@_0BC@MMIBKKJK@VALID_ELEMENT_TOK?$AA@
	DD	FLAT:??_C@_0N@PIOCLEMK@MID_EDGE_TOK?$AA@
	DD	FLAT:??_C@_0O@NACIBGPC@MID_FACET_TOK?$AA@
	DD	FLAT:??_C@_0N@OFOIHKCD@GO_COUNT_TOK?$AA@
	DD	FLAT:??_C@_0BC@KPLFCIOK@ELEMENT_IDENT_TOK?$AA@
	DD	FLAT:??_C@_0P@IJBPCGPK@BODY_METIS_TOK?$AA@
	DD	FLAT:??_C@_0BI@LLECFGEC@REVERSE_ORIENTATION_TOK?$AA@
	DD	FLAT:??_C@_0BE@MAHLNE@MATRIX_MULTIPLY_TOK?$AA@
	DD	FLAT:??_C@_0BD@DPPLOOOH@MATRIX_INVERSE_TOK?$AA@
	DD	FLAT:??_C@_0BC@HDKBMLLD@BINARY_PRINTF_TOK?$AA@
	DD	FLAT:??_C@_0BB@OKPMPKMC@DUMP_MEMLIST_TOK?$AA@
	DD	FLAT:??_C@_0BC@FIAGCEKC@FREE_DISCARDS_TOK?$AA@
	DD	FLAT:??_C@_0BA@JAEDGCFL@REPARTITION_TOK?$AA@
	DD	FLAT:??_C@_0BD@CBHMPLEB@METIS_READJUST_TOK?$AA@
	DD	FLAT:??_C@_0BD@FICACJCO@MEAN_CURVATURE_TOK?$AA@
	DD	FLAT:??_C@_0L@IJJPIEBB@GLOBAL_TOK?$AA@
	DD	FLAT:??_C@_0BE@LLFKAAHP@LEAD_INTEGER_AT_TOK?$AA@
	DD	FLAT:??_C@_0P@MLDCEPJO@INTEGER_AT_TOK?$AA@
	DD	FLAT:??_C@_0BH@DEOGPAHC@MATRIX_DETERMINANT_TOK?$AA@
	DD	FLAT:??_C@_0P@HMMIALNL@SUBCOMMAND_TOK?$AA@
	DD	FLAT:??_C@_09NIOGCOHE@ABORT_TOK?$AA@
	DD	FLAT:??_C@_0P@OJJIDFAJ@BREAKPOINT_TOK?$AA@
	DD	FLAT:??_C@_0N@ECDNPNHI@WHEREAMI_TOK?$AA@
	DD	FLAT:??_C@_0M@PGOFIFIB@ADDLOAD_TOK?$AA@
	DD	FLAT:??_C@_0BC@LKDFHNKK@SIMPLEX_TO_FE_TOK?$AA@
	DD	FLAT:??_C@_0BB@PJOGAEHB@REPLACE_LOAD_TOK?$AA@
	DD	FLAT:??_C@_0BB@MLCILBDO@DISPLAY_TEXT_TOK?$AA@
	DD	FLAT:??_C@_0BA@FEGFCLEA@DELETE_TEXT_TOK?$AA@
	DD	FLAT:??_C@_0BF@DMAAIILB@SUPPRESS_WARNING_TOK?$AA@
	DD	FLAT:??_C@_0BH@JBMPOCAC@UNSUPPRESS_WARNING_TOK?$AA@
	DD	FLAT:??_C@_0BE@EDGDLMGI@RESET_PROFILING_TOK?$AA@
	DD	FLAT:??_C@_0BF@HPDKCLPE@VALID_CONSTRAINT_TOK?$AA@
	DD	FLAT:??_C@_0BD@MAKEFPMF@VALID_BOUNDARY_TOK?$AA@
	DD	FLAT:??_C@_0BE@JFCNFILA@ARRAY_ATTRIBUTE_TOK?$AA@
	DD	FLAT:??_C@_0O@OAEGJJCB@PROFILING_TOK?$AA@
	DD	FLAT:??_C@_0M@NLBHDOHI@DETORUS_TOK?$AA@
	DD	FLAT:??_C@_0BG@MLIGLOGC@MAKE_THREAD_LISTS_TOK?$AA@
	DD	FLAT:??_C@_03IMMLKIF@?8?0?8?$AA@
	DD	FLAT:??_C@_03LEIGOOL@?8?4?8?$AA@
	DD	FLAT:??_C@_03BBKFAPHA@?8?$DL?8?$AA@
	DD	FLAT:??_C@_03FJHCMEFA@?8?$FL?8?$AA@
	DD	FLAT:??_C@_03FNPPLIOC@?8?$FN?8?$AA@
	DD	FLAT:??_C@_03GBDPICLA@?8?$HL?8?$AA@
	DD	FLAT:??_C@_03GFLCPOAC@?8?$HN?8?$AA@
	DD	FLAT:??_C@_03PMFBCFJ@?8?$CI?8?$AA@
	DD	FLAT:??_C@_03OAHHIGO@?8?$CJ?8?$AA@
	DD	FLAT:??_C@_03HBEMMOCB@?8?$GA?8?$AA@
	DD	FLAT:??_C@_0N@PGMIMBEK@ASSIGNOP_TOK?$AA@
	DD	FLAT:??_C@_08LHFBJNFF@PIPE_TOK?$AA@
	DD	FLAT:??_C@_08HJDGIPGN@THEN_TOK?$AA@
	DD	FLAT:??_C@_08CIAOIOJC@ELSE_TOK?$AA@
	DD	FLAT:??_C@_03BFCIHDMC@?8?$DN?8?$AA@
	DD	FLAT:??_C@_03BGKMKHKM@?8?$DP?8?$AA@
	DD	FLAT:??_C@_03BAGHGFEH@?8?3?8?$AA@
	DD	FLAT:??_C@_06HPBBADB@OR_TOK?$AA@
	DD	FLAT:??_C@_07GJHADIGH@AND_TOK?$AA@
	DD	FLAT:??_C@_07BFPBCDOE@NOT_TOK?$AA@
	DD	FLAT:??_C@_03BHGOMNJL@?8?$DO?8?$AA@
	DD	FLAT:??_C@_03BEOKBJPF@?8?$DM?8?$AA@
	DD	FLAT:??_C@_06LPFFCJKG@NE_TOK?$AA@
	DD	FLAT:??_C@_06CKMNGMHF@GE_TOK?$AA@
	DD	FLAT:??_C@_06CIMKDIIP@LE_TOK?$AA@
	DD	FLAT:??_C@_06CFBFDNNB@EQ_TOK?$AA@
	DD	FLAT:??_C@_0BC@NBBDHPCK@ON_CONSTRAINT_TOK?$AA@
	DD	FLAT:??_C@_0BD@DKIHCAE@HIT_CONSTRAINT_TOK?$AA@
	DD	FLAT:??_C@_0BA@JMJONOBI@ON_BOUNDARY_TOK?$AA@
	DD	FLAT:??_C@_0BA@HBKGMKCG@ON_QUANTITY_TOK?$AA@
	DD	FLAT:??_C@_0BH@LCAILNDJ@ON_METHOD_INSTANCE_TOK?$AA@
	DD	FLAT:??_C@_03NIDKMAA@?8?$CL?8?$AA@
	DD	FLAT:??_C@_03JAONALC@?8?9?8?$AA@
	DD	FLAT:??_C@_03HBNIBAK@?8?$CF?8?$AA@
	DD	FLAT:??_C@_08GJLCFIAH@IMOD_TOK?$AA@
	DD	FLAT:??_C@_03MEBMGDH@?8?$CK?8?$AA@
	DD	FLAT:??_C@_03KIKAENM@?8?1?8?$AA@
	DD	FLAT:??_C@_07IEDBDPCM@DOT_TOK?$AA@
	DD	FLAT:??_C@_08FLDDNFIG@IDIV_TOK?$AA@
	DD	FLAT:??_C@_03FPLJAGLL@?8?$FO?8?$AA@
	DD	FLAT:??_C@_0O@MCJACOFD@INCREMENT_TOK?$AA@
	DD	FLAT:??_C@_0L@PFEJBFNJ@EPRINT_TOK?$AA@
	DD	FLAT:??_C@_03EJABIIMB@?8?$EA?8?$AA@
	DD	FLAT:??_C@_07IJIIKIJB@$accept?$AA@
	DD	FLAT:??_C@_05MLFKBFFK@whole?$AA@
	DD	FLAT:??_C@_02LGHJKMJP@?$EA1?$AA@
	DD	FLAT:??_C@_0M@IFHNINHJ@commandline?$AA@
	DD	FLAT:??_C@_07KMMNMMFF@command?$AA@
	DD	FLAT:??_C@_08KMFPLNMN@vcommand?$AA@
	DD	FLAT:??_C@_08BPLPECIC@commands?$AA@
	DD	FLAT:??_C@_0N@OBIOPDKO@commandblock?$AA@
	DD	FLAT:??_C@_02JNFEPPFM@?$EA2?$AA@
	DD	FLAT:??_C@_0L@LIJODAAG@onecommand?$AA@
	DD	FLAT:??_C@_0N@ELFDIHLE@commandsemic?$AA@
	DD	FLAT:??_C@_0M@ECNODOJO@commandterm?$AA@
	DD	FLAT:??_C@_0M@MCFKJOEK@commandlist?$AA@
	DD	FLAT:??_C@_0BA@LBJGNDAL@commandlistterm?$AA@
	DD	FLAT:??_C@_06EPCOPBPJ@ifhead?$AA@
	DD	FLAT:??_C@_02IEEPMOBN@?$EA3?$AA@
	DD	FLAT:??_C@_09NJOOBNDF@whilehead?$AA@
	DD	FLAT:??_C@_02MLAOFINK@?$EA4?$AA@
	DD	FLAT:??_C@_06JPGMBPB@dohead?$AA@
	DD	FLAT:??_C@_02NCBFGJJL@?$EA5?$AA@
	DD	FLAT:??_C@_08HHFNHOOF@forentry?$AA@
	DD	FLAT:??_C@_07FKHDCNGF@forhead?$AA@
	DD	FLAT:??_C@_06HIKMJFFO@fortop?$AA@
	DD	FLAT:??_C@_0BC@DHMBNGHN@single_letter_cmd?$AA@
	DD	FLAT:??_C@_06KFEFOKAJ@estart?$AA@
	DD	FLAT:??_C@_02PJDIDKFI@?$EA6?$AA@
	DD	FLAT:??_C@_02OACDALBJ@?$EA7?$AA@
	DD	FLAT:??_C@_0M@LEGEABPP@identassign?$AA@
	DD	FLAT:??_C@_0BA@MPALAJHM@permidentassign?$AA@
	DD	FLAT:??_C@_0L@DEIMIIAN@elidassign?$AA@
	DD	FLAT:??_C@_06GMOMMLND@lvalue?$AA@
	DD	FLAT:??_C@_05LOHGPBPM@rexpr?$AA@
	DD	FLAT:??_C@_08IJKJONLA@datatype?$AA@
	DD	FLAT:??_C@_08LECBEIMG@argident?$AA@
	DD	FLAT:??_C@_07OPJCDGGN@arglist?$AA@
	DD	FLAT:??_C@_0N@INMLDOPG@argliststart?$AA@
	DD	FLAT:??_C@_09ONLDGANJ@protobody?$AA@
	DD	FLAT:??_C@_0N@KPAKNOD@functionname?$AA@
	DD	FLAT:??_C@_02GHLLBHNG@?$EA8?$AA@
	DD	FLAT:??_C@_02HOKACGJH@?$EA9?$AA@
	DD	FLAT:??_C@_0O@IBFBLOKK@procedurename?$AA@
	DD	FLAT:??_C@_03LPEAMBIK@?$EA10?$AA@
	DD	FLAT:??_C@_03KGFLPAML@?$EA11?$AA@
	DD	FLAT:??_C@_08LOPAIJHN@indexset?$AA@
	DD	FLAT:??_C@_0N@CMIBEALM@dimensionset?$AA@
	DD	FLAT:??_C@_09PAAPBJEP@arraydecl?$AA@
	DD	FLAT:??_C@_0M@JFFHFDGO@arraylvalue?$AA@
	DD	FLAT:??_C@_0BE@HIDHLDKA@arraylvalueindexset?$AA@
	DD	FLAT:??_C@_0L@LMDBCDGA@arrayrexpr?$AA@
	DD	FLAT:??_C@_09BEJENGBP@arraylist?$AA@
	DD	FLAT:??_C@_07EPCMGBPO@extraat?$AA@
	DD	FLAT:??_C@_08DGEBAIAN@defextra?$AA@
	DD	FLAT:??_C@_03INHGKDAI@?$EA12?$AA@
	DD	FLAT:??_C@_03JEGNJCEJ@?$EA13?$AA@
	DD	FLAT:??_C@_09GNEFBEHK@newlvalue?$AA@
	DD	FLAT:??_C@_0P@FEFPNHMH@new_permlvalue?$AA@
	DD	FLAT:??_C@_03NLCMAEIO@?$EA14?$AA@
	DD	FLAT:??_C@_03MCDHDFMP@?$EA15?$AA@
	DD	FLAT:??_C@_03OJBKGGAM@?$EA16?$AA@
	DD	FLAT:??_C@_03PAABFHEN@?$EA17?$AA@
	DD	FLAT:??_C@_03HHJJELIC@?$EA18?$AA@
	DD	FLAT:??_C@_03GOICHKMD@?$EA19?$AA@
	DD	FLAT:??_C@_0M@BGJBOJMD@localidlist?$AA@
	DD	FLAT:??_C@_07HNDCJMNA@localid?$AA@
	DD	FLAT:??_C@_03LNAGHPND@?$EA20?$AA@
	DD	FLAT:??_C@_03KEBNEOJC@?$EA21?$AA@
	DD	FLAT:??_C@_03IPDABNFB@?$EA22?$AA@
	DD	FLAT:??_C@_08NNDNJBEA@exprlist?$AA@
	DD	FLAT:??_C@_0L@IGPDOAEF@printfhead?$AA@
	DD	FLAT:??_C@_0BB@LKKMKFOH@binaryprintfhead?$AA@
	DD	FLAT:??_C@_0O@CGGIBPIO@errprintfhead?$AA@
	DD	FLAT:??_C@_03JGCLCMBA@?$EA23?$AA@
	DD	FLAT:??_C@_05IJDJACGD@print?$AA@
	DD	FLAT:??_C@_09IMNBGAIE@backquote?$AA@
	DD	FLAT:??_C@_03NJGKLKNH@?$EA24?$AA@
	DD	FLAT:??_C@_07FKIHKFAH@elindex?$AA@
	DD	FLAT:??_C@_04EDAJKPKH@verb?$AA@
	DD	FLAT:??_C@_06JCDFNCEJ@eltype?$AA@
	DD	FLAT:??_C@_08CKJFGDBG@multiple?$AA@
	DD	FLAT:??_C@_06EJFMBPJF@single?$AA@
	DD	FLAT:??_C@_07KPBDECCC@singlep?$AA@
	DD	FLAT:??_C@_0M@IOBGIBEC@element_gen?$AA@
	DD	FLAT:??_C@_06FHLCKAHH@toggle?$AA@
	DD	FLAT:??_C@_0BB@DMJIENMC@quotation_concat?$AA@
	DD	FLAT:??_C@_0L@GFDCAEPA@stringexpr?$AA@
	DD	FLAT:??_C@_0M@MFHFMEMC@sprintfhead?$AA@
	DD	FLAT:??_C@_09HBHLAMBF@getattrib?$AA@
	DD	FLAT:??_C@_0L@IAJJFGDE@ggetattrib?$AA@
	DD	FLAT:??_C@_0L@GBLBEEOE@fullattrib?$AA@
	DD	FLAT:??_C@_0M@PHHGPIHH@signed_expr?$AA@
	DD	FLAT:??_C@_03MAHBILJG@?$EA25?$AA@
	DD	FLAT:??_C@_03OLFMNIFF@?$EA26?$AA@
	DD	FLAT:??_C@_09EIIGLG@aggregate?$AA@
	DD	FLAT:??_C@_09LLMBGFJN@histotype?$AA@
	DD	FLAT:??_C@_0M@MLKHEMKL@foreachhead?$AA@
	DD	FLAT:??_C@_03PCEHOJBE@?$EA27?$AA@
	DD	FLAT:??_C@_03HFNPPFNL@?$EA28?$AA@
	DD	FLAT:??_C@_03GMMEMEJK@?$EA29?$AA@
	DD	FLAT:??_C@_03LMMEBFOE@?$EA30?$AA@
	DD	FLAT:??_C@_03KFNPCEKF@?$EA31?$AA@
	DD	FLAT:??_C@_03KCHOJKKI@set?$AA@
	DD	FLAT:??_C@_0L@IFOEBJHC@set_attrib?$AA@
	DD	FLAT:??_C@_09FPDOCNIH@setattrib?$AA@
	DD	FLAT:??_C@_0L@CEEICBIL@setattribb?$AA@
	DD	FLAT:??_C@_08BOBFKCGH@assignop?$AA@
	DD	FLAT:??_C@_03IOPCHHGG@?$EA32?$AA@
	DD	FLAT:??_C@_03JHOJEGCH@?$EA33?$AA@
	DD	FLAT:??_C@_03NIKINAOA@?$EA34?$AA@
	DD	FLAT:??_C@_03MBLDOBKB@?$EA35?$AA@
	DD	FLAT:??_C@_0L@LPFMIECM@array_attr?$AA@
	DD	FLAT:??_C@_05EPBFLBEJ@unset?$AA@
	DD	FLAT:??_C@_0M@HJCKMIEE@unsetattrib?$AA@
	DD	FLAT:??_C@_07HGKEELDD@conname?$AA@
	DD	FLAT:??_C@_08JFAFOPOC@bdryname?$AA@
	DD	00H
	ORG $+4
_yyr1	DW	00H
	DW	0166H
	DW	0167H
	DW	0168H
	DW	0167H
	DW	0169H
	DW	016aH
	DW	016aH
	DW	016aH
	DW	016aH
	DW	016aH
	DW	016aH
	DW	016aH
	DW	016aH
	DW	016aH
	DW	016aH
	DW	016aH
	DW	016bH
	DW	016bH
	DW	016bH
	DW	016bH
	DW	016bH
	DW	016bH
	DW	016bH
	DW	016bH
	DW	016bH
	DW	016bH
	DW	016bH
	DW	016bH
	DW	016bH
	DW	016aH
	DW	016cH
	DW	016cH
	DW	016eH
	DW	016dH
	DW	016dH
	DW	016dH
	DW	016fH
	DW	016fH
	DW	016aH
	DW	016aH
	DW	016aH
	DW	0170H
	DW	0170H
	DW	0171H
	DW	0172H
	DW	0173H
	DW	0172H
	DW	0173H
	DW	0175H
	DW	0174H
	DW	016bH
	DW	016bH
	DW	016bH
	DW	016bH
	DW	016bH
	DW	016aH
	DW	016aH
	DW	016aH
	DW	016aH
	DW	016aH
	DW	016aH
	DW	016aH
	DW	016aH
	DW	016aH
	DW	016aH
	DW	016aH
	DW	016aH
	DW	016aH
	DW	016aH
	DW	016aH
	DW	016aH
	DW	016bH
	DW	016bH
	DW	016bH
	DW	016bH
	DW	016bH
	DW	016bH
	DW	016bH
	DW	016bH
	DW	016bH
	DW	016bH
	DW	016bH
	DW	016bH
	DW	016bH
	DW	016bH
	DW	016bH
	DW	016bH
	DW	016bH
	DW	016bH
	DW	016bH
	DW	016bH
	DW	016bH
	DW	0177H
	DW	0176H
	DW	016bH
	DW	016bH
	DW	0179H
	DW	0178H
	DW	016bH
	DW	016bH
	DW	016aH
	DW	017aH
	DW	017bH
	DW	017bH
	DW	017cH
	DW	017cH
	DW	016bH
	DW	016bH
	DW	016bH
	DW	017bH
	DW	017cH
	DW	017dH
	DW	017dH
	DW	016bH
	DW	016bH
	DW	016bH
	DW	016bH
	DW	016bH
	DW	016bH
	DW	016bH
	DW	016bH
	DW	016bH
	DW	016bH
	DW	016bH
	DW	016bH
	DW	016aH
	DW	016aH
	DW	016aH
	DW	016bH
	DW	016bH
	DW	016bH
	DW	016bH
	DW	016bH
	DW	016bH
	DW	016bH
	DW	016bH
	DW	016bH
	DW	016bH
	DW	016bH
	DW	016bH
	DW	016bH
	DW	016bH
	DW	016bH
	DW	016bH
	DW	016bH
	DW	016bH
	DW	016bH
	DW	016bH
	DW	016bH
	DW	016aH
	DW	016aH
	DW	016aH
	DW	016bH
	DW	016bH
	DW	016bH
	DW	016bH
	DW	016bH
	DW	016bH
	DW	016bH
	DW	016bH
	DW	016bH
	DW	016bH
	DW	016bH
	DW	016bH
	DW	016bH
	DW	016bH
	DW	016bH
	DW	016bH
	DW	016bH
	DW	016bH
	DW	016bH
	DW	016bH
	DW	016bH
	DW	016bH
	DW	016bH
	DW	016bH
	DW	016bH
	DW	016bH
	DW	016bH
	DW	016bH
	DW	016bH
	DW	016bH
	DW	016bH
	DW	016bH
	DW	016bH
	DW	016bH
	DW	016bH
	DW	016bH
	DW	016bH
	DW	016bH
	DW	016bH
	DW	016bH
	DW	016bH
	DW	016bH
	DW	016bH
	DW	016bH
	DW	016bH
	DW	016bH
	DW	016bH
	DW	016bH
	DW	016bH
	DW	016bH
	DW	016bH
	DW	016bH
	DW	016bH
	DW	016bH
	DW	016bH
	DW	016bH
	DW	016bH
	DW	016bH
	DW	016bH
	DW	016bH
	DW	016bH
	DW	016bH
	DW	016bH
	DW	016bH
	DW	016bH
	DW	016bH
	DW	016bH
	DW	016bH
	DW	016bH
	DW	016bH
	DW	016bH
	DW	016bH
	DW	016bH
	DW	016bH
	DW	016bH
	DW	016bH
	DW	016bH
	DW	016bH
	DW	016bH
	DW	016bH
	DW	016bH
	DW	016bH
	DW	016bH
	DW	016bH
	DW	016bH
	DW	016bH
	DW	016bH
	DW	016bH
	DW	016bH
	DW	016bH
	DW	017eH
	DW	0167H
	DW	0167H
	DW	017fH
	DW	016aH
	DW	016aH
	DW	016aH
	DW	0180H
	DW	016bH
	DW	016bH
	DW	016bH
	DW	016bH
	DW	016aH
	DW	016aH
	DW	016bH
	DW	016bH
	DW	016bH
	DW	016bH
	DW	016bH
	DW	016bH
	DW	016bH
	DW	016bH
	DW	016aH
	DW	016aH
	DW	016bH
	DW	016bH
	DW	016aH
	DW	016aH
	DW	016bH
	DW	016bH
	DW	016aH
	DW	016aH
	DW	016aH
	DW	016aH
	DW	016aH
	DW	016aH
	DW	016aH
	DW	016aH
	DW	016aH
	DW	016aH
	DW	016aH
	DW	016aH
	DW	016aH
	DW	016aH
	DW	016aH
	DW	016aH
	DW	016aH
	DW	016aH
	DW	016aH
	DW	016aH
	DW	016aH
	DW	016aH
	DW	016aH
	DW	016aH
	DW	016bH
	DW	016bH
	DW	016bH
	DW	016bH
	DW	016bH
	DW	016bH
	DW	016bH
	DW	016bH
	DW	016bH
	DW	016bH
	DW	016bH
	DW	016bH
	DW	016bH
	DW	016bH
	DW	016bH
	DW	016bH
	DW	016aH
	DW	016bH
	DW	016aH
	DW	0181H
	DW	0182H
	DW	016aH
	DW	016aH
	DW	016aH
	DW	016aH
	DW	016aH
	DW	016aH
	DW	016aH
	DW	016aH
	DW	0183H
	DW	016aH
	DW	016aH
	DW	0184H
	DW	0184H
	DW	016aH
	DW	016aH
	DW	016aH
	DW	016aH
	DW	016aH
	DW	016aH
	DW	016aH
	DW	0185H
	DW	0185H
	DW	0185H
	DW	0185H
	DW	0185H
	DW	016aH
	DW	016aH
	DW	016aH
	DW	016aH
	DW	016aH
	DW	016aH
	DW	016aH
	DW	016aH
	DW	016aH
	DW	0186H
	DW	0186H
	DW	0187H
	DW	0187H
	DW	0187H
	DW	0187H
	DW	0187H
	DW	0187H
	DW	0187H
	DW	0187H
	DW	0187H
	DW	0187H
	DW	0188H
	DW	0189H
	DW	0189H
	DW	0188H
	DW	0189H
	DW	0189H
	DW	0189H
	DW	0189H
	DW	0188H
	DW	018aH
	DW	018aH
	DW	018aH
	DW	018bH
	DW	018bH
	DW	018cH
	DW	018dH
	DW	016bH
	DW	018eH
	DW	018eH
	DW	018fH
	DW	0190H
	DW	016bH
	DW	016bH
	DW	016bH
	DW	016bH
	DW	016bH
	DW	016bH
	DW	016bH
	DW	016bH
	DW	016bH
	DW	016bH
	DW	0191H
	DW	0191H
	DW	0192H
	DW	0192H
	DW	0193H
	DW	0193H
	DW	0193H
	DW	016bH
	DW	0194H
	DW	0194H
	DW	0194H
	DW	0194H
	DW	0194H
	DW	0194H
	DW	0194H
	DW	0195H
	DW	016bH
	DW	016bH
	DW	016bH
	DW	016bH
	DW	0185H
	DW	0185H
	DW	0185H
	DW	0196H
	DW	0196H
	DW	0197H
	DW	0197H
	DW	0196H
	DW	0196H
	DW	016bH
	DW	016bH
	DW	0198H
	DW	0198H
	DW	0199H
	DW	0199H
	DW	016bH
	DW	019aH
	DW	019bH
	DW	016bH
	DW	016bH
	DW	016bH
	DW	016bH
	DW	016bH
	DW	016bH
	DW	016bH
	DW	019cH
	DW	019dH
	DW	019eH
	DW	019cH
	DW	019cH
	DW	016aH
	DW	0185H
	DW	016aH
	DW	016aH
	DW	016aH
	DW	016aH
	DW	016aH
	DW	016aH
	DW	019fH
	DW	016aH
	DW	01a0H
	DW	016aH
	DW	016aH
	DW	01a1H
	DW	016aH
	DW	016aH
	DW	01a2H
	DW	016aH
	DW	01a3H
	DW	016aH
	DW	016aH
	DW	016aH
	DW	016aH
	DW	016bH
	DW	01a4H
	DW	01a4H
	DW	01a5H
	DW	01a5H
	DW	01a5H
	DW	01a5H
	DW	01a5H
	DW	01a5H
	DW	01a5H
	DW	01a5H
	DW	01a5H
	DW	01a5H
	DW	01a5H
	DW	01a6H
	DW	016bH
	DW	01a7H
	DW	016bH
	DW	01a8H
	DW	016bH
	DW	016bH
	DW	016bH
	DW	01a9H
	DW	01a9H
	DW	01a9H
	DW	01a9H
	DW	01a9H
	DW	01a9H
	DW	01aaH
	DW	01aaH
	DW	01abH
	DW	01abH
	DW	01acH
	DW	01acH
	DW	016bH
	DW	016bH
	DW	016bH
	DW	016bH
	DW	016bH
	DW	016bH
	DW	016bH
	DW	016bH
	DW	01adH
	DW	016bH
	DW	01aeH
	DW	016bH
	DW	016bH
	DW	016bH
	DW	016bH
	DW	016bH
	DW	016bH
	DW	016bH
	DW	016bH
	DW	016bH
	DW	016bH
	DW	016bH
	DW	016bH
	DW	016bH
	DW	016bH
	DW	016bH
	DW	01afH
	DW	01b0H
	DW	0185H
	DW	0185H
	DW	0185H
	DW	0185H
	DW	0185H
	DW	016bH
	DW	016bH
	DW	016bH
	DW	016bH
	DW	016bH
	DW	0185H
	DW	0185H
	DW	0185H
	DW	0185H
	DW	0185H
	DW	0185H
	DW	0185H
	DW	0185H
	DW	016aH
	DW	016aH
	DW	016aH
	DW	0185H
	DW	0185H
	DW	0185H
	DW	0185H
	DW	0185H
	DW	0185H
	DW	0185H
	DW	0185H
	DW	0185H
	DW	0185H
	DW	01b1H
	DW	01b1H
	DW	01b1H
	DW	01b1H
	DW	01b1H
	DW	01b1H
	DW	0185H
	DW	0185H
	DW	0185H
	DW	0185H
	DW	0185H
	DW	0185H
	DW	016bH
	DW	016bH
	DW	016bH
	DW	016bH
	DW	016bH
	DW	016bH
	DW	016bH
	DW	016bH
	DW	016bH
	DW	016bH
	DW	016bH
	DW	0185H
	DW	0185H
	DW	0185H
	DW	0185H
	DW	0185H
	DW	01b2H
	DW	016bH
	DW	01b2H
	DW	016bH
	DW	01b2H
	DW	01b2H
	DW	01b2H
	DW	016bH
	DW	016bH
	DW	016bH
	DW	01b2H
	DW	016bH
	DW	01b2H
	DW	016bH
	DW	01b2H
	DW	016bH
	DW	01b2H
	DW	016bH
	DW	01b2H
	DW	016bH
	DW	01b2H
	DW	016bH
	DW	01b2H
	DW	016bH
	DW	01b2H
	DW	016bH
	DW	01b2H
	DW	016bH
	DW	01b2H
	DW	016bH
	DW	01b2H
	DW	01b2H
	DW	016bH
	DW	016bH
	DW	016bH
	DW	016bH
	DW	016bH
	DW	016bH
	DW	01b3H
	DW	01b3H
	DW	01b3H
	DW	01b3H
	DW	01b3H
	DW	01b4H
	DW	01b4H
	DW	01b5H
	DW	01b5H
	DW	01b5H
	DW	01b5H
	DW	01b5H
	DW	01b5H
	DW	01b6H
	DW	01b6H
	DW	01b5H
	DW	01b5H
	DW	01b5H
	DW	01b7H
	DW	01b7H
	DW	01b7H
	DW	01b7H
	DW	01b7H
	DW	01b7H
	DW	01b7H
	DW	01b7H
	DW	01b7H
	DW	01b7H
	DW	01b8H
	DW	01b8H
	DW	01b9H
	DW	01b9H
	DW	01baH
	DW	01baH
	DW	01baH
	DW	01baH
	DW	01baH
	DW	01baH
	DW	01baH
	DW	01baH
	DW	01bbH
	DW	01bbH
	DW	01baH
	DW	01baH
	DW	01baH
	DW	01bcH
	DW	01bcH
	DW	01bcH
	DW	01bcH
	DW	01bcH
	DW	01bcH
	DW	01bcH
	DW	01bcH
	DW	01bcH
	DW	01bcH
	DW	01bcH
	DW	01bcH
	DW	01bcH
	DW	01bcH
	DW	01bcH
	DW	01bcH
	DW	01bcH
	DW	01bcH
	DW	01bcH
	DW	01bcH
	DW	01bcH
	DW	01bcH
	DW	01bcH
	DW	01bcH
	DW	01bcH
	DW	01bcH
	DW	01bcH
	DW	01bcH
	DW	01bcH
	DW	01bcH
	DW	01bcH
	DW	01bcH
	DW	01bcH
	DW	01bcH
	DW	01bcH
	DW	01bcH
	DW	01bcH
	DW	01bcH
	DW	01bcH
	DW	01bcH
	DW	01bcH
	DW	01bcH
	DW	01bcH
	DW	01bcH
	DW	01bcH
	DW	01bcH
	DW	01bdH
	DW	01beH
	DW	01beH
	DW	01beH
	DW	01beH
	DW	01beH
	DW	01beH
	DW	01beH
	DW	01beH
	DW	01beH
	DW	01beH
	DW	01beH
	DW	01beH
	DW	01beH
	DW	01beH
	DW	01beH
	DW	01beH
	DW	01beH
	DW	0185H
	DW	0185H
	DW	0185H
	DW	0185H
	DW	0185H
	DW	0185H
	DW	0185H
	DW	0185H
	DW	0185H
	DW	0185H
	DW	0185H
	DW	0185H
	DW	0185H
	DW	0185H
	DW	0185H
	DW	0185H
	DW	0185H
	DW	0185H
	DW	0185H
	DW	0185H
	DW	0185H
	DW	0185H
	DW	0185H
	DW	0185H
	DW	0185H
	DW	0185H
	DW	0185H
	DW	0185H
	DW	0185H
	DW	0185H
	DW	0185H
	DW	0185H
	DW	0185H
	DW	0185H
	DW	0185H
	DW	0185H
	DW	0185H
	DW	0185H
	DW	0185H
	DW	0185H
	DW	0185H
	DW	0185H
	DW	0185H
	DW	0185H
	DW	01bfH
	DW	0185H
	DW	0185H
	DW	0185H
	DW	0185H
	DW	0185H
	DW	0185H
	DW	0185H
	DW	0185H
	DW	0185H
	DW	0185H
	DW	0185H
	DW	0185H
	DW	0185H
	DW	0185H
	DW	0185H
	DW	0185H
	DW	0185H
	DW	0185H
	DW	0185H
	DW	0185H
	DW	0185H
	DW	0185H
	DW	0185H
	DW	0185H
	DW	0185H
	DW	0185H
	DW	0185H
	DW	0185H
	DW	0185H
	DW	0185H
	DW	0185H
	DW	0185H
	DW	0185H
	DW	0185H
	DW	0185H
	DW	0185H
	DW	0185H
	DW	0185H
	DW	0185H
	DW	0185H
	DW	0185H
	DW	0185H
	DW	0185H
	DW	0185H
	DW	0185H
	DW	0185H
	DW	0185H
	DW	0185H
	DW	0185H
	DW	0185H
	DW	01c0H
	DW	01c1H
	DW	0185H
	DW	0185H
	DW	01c2H
	DW	01c2H
	DW	01c2H
	DW	01c2H
	DW	01c2H
	DW	01c3H
	DW	01c3H
	DW	016bH
	DW	016bH
	DW	01c4H
	DW	016bH
	DW	016bH
	DW	01c5H
	DW	016bH
	DW	016bH
	DW	016bH
	DW	01c6H
	DW	016bH
	DW	016bH
	DW	01c7H
	DW	016bH
	DW	01c8H
	DW	0185H
	DW	01c9H
	DW	016bH
	DW	01caH
	DW	01cbH
	DW	01cbH
	DW	01cbH
	DW	01cbH
	DW	01cbH
	DW	01cbH
	DW	01cbH
	DW	01cbH
	DW	01cbH
	DW	01cbH
	DW	01cbH
	DW	01cbH
	DW	016bH
	DW	016bH
	DW	01ccH
	DW	01ccH
	DW	01ccH
	DW	01ccH
	DW	01ccH
	DW	01ccH
	DW	01ccH
	DW	01ccH
	DW	01ccH
	DW	01ccH
	DW	01ccH
	DW	01ccH
	DW	01ccH
	DW	01ccH
	DW	01ccH
	DW	01ccH
	DW	01ccH
	DW	01ccH
	DW	01ccH
	DW	01ccH
	DW	01cdH
	DW	01cdH
	DW	01ceH
	DW	01ceH
	DW	01ceH
	DW	01cfH
	DW	016aH
	DW	01d0H
	DW	016aH
	DW	01d1H
	DW	016aH
	DW	01d2H
	DW	016aH
	DW	016bH
	DW	016bH
	DW	01d3H
	DW	01d3H
	DW	016bH
	DW	016bH
	DW	016bH
	DW	016bH
	DW	016bH
	DW	016bH
	DW	016bH
	DW	016bH
	DW	016bH
	DW	016bH
	DW	016bH
	DW	016bH
	DW	016bH
	DW	016bH
	DW	016bH
	DW	016bH
	DW	016bH
	DW	016bH
	DW	016bH
	DW	016bH
	DW	016bH
	DW	016bH
	DW	016bH
	DW	016bH
	DW	01d4H
	DW	01d5H
	DW	01d5H
	DW	01d5H
	DW	01d5H
	DW	01d5H
	DW	01d5H
	DW	01d5H
	DW	01d5H
	DW	01d5H
	DW	01d5H
	DW	01d5H
	DW	01d5H
	DW	01d5H
	DW	01d5H
	DW	01d5H
	DW	01d5H
	DW	01d5H
	DW	01d5H
	DW	01d5H
	DW	016bH
	DW	016bH
	DW	01d6H
	DW	016bH
	DW	0185H
	DW	016bH
	DW	016bH
	DW	016bH
	DW	01d7H
	DW	016bH
	DW	0185H
	DW	016bH
	DW	016bH
	DW	016bH
	DW	016bH
	DW	0167H
	DW	016bH
	DW	016bH
	ORG $+4
_yyr2	DB	00H
	DB	02H
	DB	01H
	DB	00H
	DB	03H
	DB	01H
	DB	01H
	DB	03H
	DB	03H
	DB	03H
	DB	03H
	DB	03H
	DB	03H
	DB	03H
	DB	03H
	DB	03H
	DB	03H
	DB	03H
	DB	03H
	DB	03H
	DB	02H
	DB	02H
	DB	01H
	DB	01H
	DB	01H
	DB	02H
	DB	02H
	DB	01H
	DB	02H
	DB	02H
	DB	02H
	DB	01H
	DB	01H
	DB	00H
	DB	04H
	DB	02H
	DB	03H
	DB	01H
	DB	01H
	DB	01H
	DB	02H
	DB	02H
	DB	01H
	DB	02H
	DB	01H
	DB	01H
	DB	01H
	DB	02H
	DB	02H
	DB	00H
	DB	05H
	DB	02H
	DB	01H
	DB	03H
	DB	02H
	DB	01H
	DB	02H
	DB	02H
	DB	01H
	DB	02H
	DB	02H
	DB	02H
	DB	01H
	DB	02H
	DB	02H
	DB	02H
	DB	01H
	DB	02H
	DB	02H
	DB	02H
	DB	01H
	DB	02H
	DB	02H
	DB	02H
	DB	02H
	DB	02H
	DB	02H
	DB	02H
	DB	01H
	DB	02H
	DB	01H
	DB	02H
	DB	02H
	DB	01H
	DB	02H
	DB	02H
	DB	01H
	DB	02H
	DB	02H
	DB	01H
	DB	01H
	DB	02H
	DB	02H
	DB	00H
	DB	04H
	DB	02H
	DB	02H
	DB	00H
	DB	03H
	DB	03H
	DB	02H
	DB	02H
	DB	03H
	DB	03H
	DB	02H
	DB	03H
	DB	02H
	DB	02H
	DB	02H
	DB	03H
	DB	02H
	DB	02H
	DB	01H
	DB	01H
	DB	01H
	DB	01H
	DB	02H
	DB	02H
	DB	01H
	DB	02H
	DB	02H
	DB	02H
	DB	02H
	DB	01H
	DB	02H
	DB	02H
	DB	02H
	DB	03H
	DB	02H
	DB	02H
	DB	03H
	DB	02H
	DB	02H
	DB	02H
	DB	02H
	DB	02H
	DB	02H
	DB	02H
	DB	04H
	DB	02H
	DB	02H
	DB	02H
	DB	02H
	DB	02H
	DB	02H
	DB	02H
	DB	02H
	DB	02H
	DB	02H
	DB	02H
	DB	02H
	DB	01H
	DB	02H
	DB	02H
	DB	02H
	DB	02H
	DB	02H
	DB	02H
	DB	02H
	DB	06H
	DB	02H
	DB	02H
	DB	06H
	DB	02H
	DB	06H
	DB	02H
	DB	02H
	DB	02H
	DB	02H
	DB	01H
	DB	02H
	DB	02H
	DB	01H
	DB	02H
	DB	02H
	DB	01H
	DB	01H
	DB	02H
	DB	01H
	DB	01H
	DB	01H
	DB	01H
	DB	01H
	DB	01H
	DB	01H
	DB	01H
	DB	01H
	DB	01H
	DB	01H
	DB	01H
	DB	01H
	DB	03H
	DB	02H
	DB	02H
	DB	02H
	DB	02H
	DB	01H
	DB	01H
	DB	02H
	DB	01H
	DB	01H
	DB	01H
	DB	01H
	DB	01H
	DB	01H
	DB	01H
	DB	01H
	DB	01H
	DB	01H
	DB	01H
	DB	01H
	DB	01H
	DB	01H
	DB	01H
	DB	01H
	DB	01H
	DB	01H
	DB	01H
	DB	01H
	DB	01H
	DB	01H
	DB	01H
	DB	01H
	DB	02H
	DB	02H
	DB	02H
	DB	02H
	DB	03H
	DB	02H
	DB	03H
	DB	02H
	DB	03H
	DB	02H
	DB	03H
	DB	02H
	DB	01H
	DB	02H
	DB	01H
	DB	02H
	DB	01H
	DB	02H
	DB	01H
	DB	01H
	DB	01H
	DB	02H
	DB	03H
	DB	00H
	DB	04H
	DB	02H
	DB	03H
	DB	00H
	DB	04H
	DB	03H
	DB	03H
	DB	03H
	DB	03H
	DB	02H
	DB	04H
	DB	04H
	DB	04H
	DB	04H
	DB	03H
	DB	03H
	DB	03H
	DB	03H
	DB	03H
	DB	03H
	DB	03H
	DB	03H
	DB	03H
	DB	02H
	DB	02H
	DB	02H
	DB	02H
	DB	03H
	DB	02H
	DB	05H
	DB	05H
	DB	05H
	DB	05H
	DB	05H
	DB	03H
	DB	03H
	DB	04H
	DB	04H
	DB	04H
	DB	04H
	DB	04H
	DB	03H
	DB	03H
	DB	03H
	DB	03H
	DB	03H
	DB	02H
	DB	02H
	DB	02H
	DB	02H
	DB	02H
	DB	02H
	DB	02H
	DB	02H
	DB	02H
	DB	02H
	DB	02H
	DB	02H
	DB	02H
	DB	02H
	DB	02H
	DB	02H
	DB	02H
	DB	02H
	DB	01H
	DB	02H
	DB	03H
	DB	02H
	DB	02H
	DB	02H
	DB	02H
	DB	03H
	DB	02H
	DB	03H
	DB	03H
	DB	02H
	DB	03H
	DB	02H
	DB	02H
	DB	02H
	DB	02H
	DB	05H
	DB	03H
	DB	03H
	DB	04H
	DB	04H
	DB	04H
	DB	04H
	DB	04H
	DB	04H
	DB	03H
	DB	01H
	DB	03H
	DB	03H
	DB	03H
	DB	01H
	DB	03H
	DB	04H
	DB	03H
	DB	02H
	DB	02H
	DB	03H
	DB	02H
	DB	02H
	DB	02H
	DB	01H
	DB	01H
	DB	01H
	DB	01H
	DB	01H
	DB	01H
	DB	01H
	DB	01H
	DB	01H
	DB	01H
	DB	01H
	DB	01H
	DB	02H
	DB	03H
	DB	04H
	DB	02H
	DB	02H
	DB	03H
	DB	04H
	DB	02H
	DB	02H
	DB	01H
	DB	01H
	DB	00H
	DB	01H
	DB	01H
	DB	00H
	DB	00H
	DB	07H
	DB	01H
	DB	01H
	DB	00H
	DB	00H
	DB	06H
	DB	03H
	DB	02H
	DB	02H
	DB	01H
	DB	03H
	DB	03H
	DB	02H
	DB	02H
	DB	02H
	DB	03H
	DB	04H
	DB	03H
	DB	04H
	DB	04H
	DB	04H
	DB	04H
	DB	01H
	DB	01H
	DB	01H
	DB	01H
	DB	02H
	DB	07H
	DB	03H
	DB	02H
	DB	02H
	DB	03H
	DB	03H
	DB	02H
	DB	03H
	DB	03H
	DB	02H
	DB	01H
	DB	01H
	DB	01H
	DB	01H
	DB	03H
	DB	03H
	DB	02H
	DB	03H
	DB	03H
	DB	01H
	DB	01H
	DB	05H
	DB	05H
	DB	02H
	DB	00H
	DB	00H
	DB	07H
	DB	01H
	DB	02H
	DB	02H
	DB	02H
	DB	02H
	DB	02H
	DB	02H
	DB	02H
	DB	00H
	DB	04H
	DB	02H
	DB	02H
	DB	02H
	DB	03H
	DB	02H
	DB	02H
	DB	02H
	DB	02H
	DB	02H
	DB	00H
	DB	03H
	DB	00H
	DB	05H
	DB	03H
	DB	00H
	DB	05H
	DB	03H
	DB	00H
	DB	04H
	DB	00H
	DB	04H
	DB	03H
	DB	03H
	DB	02H
	DB	02H
	DB	01H
	DB	03H
	DB	01H
	DB	01H
	DB	01H
	DB	01H
	DB	01H
	DB	01H
	DB	01H
	DB	01H
	DB	01H
	DB	01H
	DB	01H
	DB	00H
	DB	04H
	DB	00H
	DB	04H
	DB	00H
	DB	04H
	DB	02H
	DB	02H
	DB	03H
	DB	03H
	DB	01H
	DB	03H
	DB	03H
	DB	01H
	DB	02H
	DB	02H
	DB	02H
	DB	02H
	DB	02H
	DB	02H
	DB	01H
	DB	03H
	DB	03H
	DB	01H
	DB	03H
	DB	03H
	DB	01H
	DB	03H
	DB	00H
	DB	04H
	DB	01H
	DB	02H
	DB	02H
	DB	02H
	DB	02H
	DB	02H
	DB	02H
	DB	02H
	DB	03H
	DB	02H
	DB	02H
	DB	02H
	DB	02H
	DB	02H
	DB	02H
	DB	02H
	DB	01H
	DB	00H
	DB	05H
	DB	02H
	DB	03H
	DB	04H
	DB	02H
	DB	03H
	DB	04H
	DB	02H
	DB	06H
	DB	02H
	DB	04H
	DB	02H
	DB	06H
	DB	06H
	DB	06H
	DB	02H
	DB	0aH
	DB	02H
	DB	01H
	DB	04H
	DB	02H
	DB	04H
	DB	02H
	DB	06H
	DB	02H
	DB	04H
	DB	02H
	DB	04H
	DB	02H
	DB	01H
	DB	02H
	DB	01H
	DB	03H
	DB	01H
	DB	02H
	DB	01H
	DB	02H
	DB	07H
	DB	02H
	DB	04H
	DB	02H
	DB	04H
	DB	02H
	DB	06H
	DB	02H
	DB	06H
	DB	02H
	DB	06H
	DB	02H
	DB	08H
	DB	02H
	DB	07H
	DB	05H
	DB	03H
	DB	04H
	DB	06H
	DB	02H
	DB	05H
	DB	03H
	DB	01H
	DB	02H
	DB	01H
	DB	02H
	DB	01H
	DB	01H
	DB	01H
	DB	02H
	DB	02H
	DB	02H
	DB	01H
	DB	02H
	DB	01H
	DB	02H
	DB	01H
	DB	02H
	DB	01H
	DB	02H
	DB	01H
	DB	02H
	DB	01H
	DB	02H
	DB	01H
	DB	02H
	DB	01H
	DB	02H
	DB	01H
	DB	02H
	DB	01H
	DB	02H
	DB	01H
	DB	01H
	DB	02H
	DB	02H
	DB	02H
	DB	02H
	DB	02H
	DB	02H
	DB	01H
	DB	01H
	DB	01H
	DB	01H
	DB	01H
	DB	01H
	DB	02H
	DB	04H
	DB	03H
	DB	04H
	DB	01H
	DB	01H
	DB	01H
	DB	02H
	DB	01H
	DB	05H
	DB	04H
	DB	05H
	DB	01H
	DB	02H
	DB	01H
	DB	02H
	DB	02H
	DB	02H
	DB	02H
	DB	02H
	DB	03H
	DB	03H
	DB	01H
	DB	01H
	DB	01H
	DB	02H
	DB	01H
	DB	01H
	DB	01H
	DB	01H
	DB	01H
	DB	01H
	DB	01H
	DB	01H
	DB	02H
	DB	02H
	DB	01H
	DB	03H
	DB	03H
	DB	01H
	DB	01H
	DB	01H
	DB	01H
	DB	01H
	DB	01H
	DB	01H
	DB	01H
	DB	01H
	DB	01H
	DB	01H
	DB	01H
	DB	01H
	DB	01H
	DB	01H
	DB	01H
	DB	01H
	DB	01H
	DB	01H
	DB	01H
	DB	01H
	DB	01H
	DB	01H
	DB	01H
	DB	01H
	DB	01H
	DB	01H
	DB	01H
	DB	01H
	DB	01H
	DB	01H
	DB	01H
	DB	01H
	DB	01H
	DB	01H
	DB	01H
	DB	01H
	DB	01H
	DB	01H
	DB	01H
	DB	01H
	DB	01H
	DB	01H
	DB	01H
	DB	01H
	DB	01H
	DB	01H
	DB	01H
	DB	02H
	DB	02H
	DB	02H
	DB	02H
	DB	02H
	DB	02H
	DB	02H
	DB	02H
	DB	02H
	DB	02H
	DB	02H
	DB	02H
	DB	02H
	DB	02H
	DB	02H
	DB	02H
	DB	01H
	DB	02H
	DB	02H
	DB	04H
	DB	02H
	DB	03H
	DB	04H
	DB	04H
	DB	04H
	DB	02H
	DB	01H
	DB	01H
	DB	01H
	DB	02H
	DB	02H
	DB	03H
	DB	02H
	DB	01H
	DB	01H
	DB	01H
	DB	01H
	DB	03H
	DB	03H
	DB	01H
	DB	02H
	DB	03H
	DB	03H
	DB	03H
	DB	03H
	DB	03H
	DB	03H
	DB	03H
	DB	03H
	DB	03H
	DB	03H
	DB	03H
	DB	03H
	DB	02H
	DB	03H
	DB	03H
	DB	02H
	DB	01H
	DB	01H
	DB	01H
	DB	01H
	DB	01H
	DB	01H
	DB	01H
	DB	01H
	DB	01H
	DB	04H
	DB	02H
	DB	06H
	DB	01H
	DB	03H
	DB	03H
	DB	03H
	DB	03H
	DB	03H
	DB	03H
	DB	03H
	DB	03H
	DB	03H
	DB	03H
	DB	03H
	DB	03H
	DB	03H
	DB	03H
	DB	03H
	DB	03H
	DB	03H
	DB	04H
	DB	04H
	DB	03H
	DB	03H
	DB	03H
	DB	03H
	DB	03H
	DB	03H
	DB	03H
	DB	03H
	DB	03H
	DB	03H
	DB	03H
	DB	03H
	DB	03H
	DB	03H
	DB	03H
	DB	03H
	DB	03H
	DB	02H
	DB	02H
	DB	02H
	DB	02H
	DB	02H
	DB	00H
	DB	00H
	DB	07H
	DB	03H
	DB	01H
	DB	01H
	DB	01H
	DB	01H
	DB	01H
	DB	01H
	DB	01H
	DB	02H
	DB	02H
	DB	01H
	DB	04H
	DB	02H
	DB	00H
	DB	03H
	DB	01H
	DB	02H
	DB	00H
	DB	03H
	DB	02H
	DB	00H
	DB	07H
	DB	00H
	DB	07H
	DB	00H
	DB	03H
	DB	01H
	DB	01H
	DB	01H
	DB	01H
	DB	01H
	DB	01H
	DB	01H
	DB	01H
	DB	01H
	DB	01H
	DB	01H
	DB	01H
	DB	01H
	DB	03H
	DB	05H
	DB	01H
	DB	01H
	DB	01H
	DB	01H
	DB	01H
	DB	01H
	DB	01H
	DB	01H
	DB	01H
	DB	01H
	DB	01H
	DB	01H
	DB	01H
	DB	01H
	DB	01H
	DB	01H
	DB	01H
	DB	01H
	DB	01H
	DB	01H
	DB	02H
	DB	01H
	DB	01H
	DB	01H
	DB	01H
	DB	00H
	DB	06H
	DB	00H
	DB	07H
	DB	00H
	DB	05H
	DB	00H
	DB	06H
	DB	04H
	DB	05H
	DB	01H
	DB	02H
	DB	05H
	DB	04H
	DB	06H
	DB	07H
	DB	06H
	DB	06H
	DB	07H
	DB	04H
	DB	04H
	DB	06H
	DB	06H
	DB	04H
	DB	04H
	DB	06H
	DB	06H
	DB	03H
	DB	03H
	DB	05H
	DB	05H
	DB	03H
	DB	03H
	DB	05H
	DB	05H
	DB	02H
	DB	01H
	DB	01H
	DB	01H
	DB	01H
	DB	01H
	DB	01H
	DB	01H
	DB	01H
	DB	01H
	DB	01H
	DB	01H
	DB	01H
	DB	01H
	DB	01H
	DB	01H
	DB	01H
	DB	01H
	DB	01H
	DB	01H
	DB	01H
	DB	03H
	DB	05H
	DB	01H
	DB	03H
	DB	01H
	DB	04H
	DB	06H
	DB	05H
	DB	01H
	DB	03H
	DB	01H
	DB	04H
	DB	05H
	DB	06H
	DB	02H
	DB	01H
	DB	02H
	DB	02H
	ORG $+2
_yydefact DW	00H
	DW	0f3H
	DW	03H
	DW	00H
	DW	00H
	DW	00H
	DW	01H
	DW	030aH
	DW	0309H
	DW	030bH
	DW	030cH
	DW	00H
	DW	00H
	DW	0315H
	DW	00H
	DW	0311H
	DW	02c4H
	DW	030eH
	DW	030fH
	DW	0310H
	DW	02a1H
	DW	027dH
	DW	00H
	DW	02cdH
	DW	02bfH
	DW	02f3H
	DW	00H
	DW	02b2H
	DW	02abH
	DW	0273H
	DW	0274H
	DW	0275H
	DW	0276H
	DW	02a2H
	DW	02a9H
	DW	02aaH
	DW	02b0H
	DW	02b1H
	DW	02b7H
	DW	0277H
	DW	02c5H
	DW	02ccH
	DW	02a8H
	DW	02b8H
	DW	02aeH
	DW	02afH
	DW	02a0H
	DW	02a4H
	DW	02eaH
	DW	00H
	DW	00H
	DW	027eH
	DW	0152H
	DW	00H
	DW	02ebH
	DW	0194H
	DW	02c3H
	DW	02c2H
	DW	02c0H
	DW	0343H
	DW	0344H
	DW	0347H
	DW	0345H
	DW	0346H
	DW	00H
	DW	02c8H
	DW	02f2H
	DW	02a5H
	DW	02a6H
	DW	02b3H
	DW	00H
	DW	02b4H
	DW	02ecH
	DW	02a7H
	DW	0193H
	DW	02c1H
	DW	02b9H
	DW	02baH
	DW	02bbH
	DW	02bdH
	DW	02bcH
	DW	02b6H
	DW	02b5H
	DW	00H
	DW	00H
	DW	00H
	DW	00H
	DW	00H
	DW	02acH
	DW	00H
	DW	02f7H
	DW	02f4H
	DW	00H
	DW	02beH
	DW	02c9H
	DW	02f1H
	DW	00H
	DW	03c0H
	DW	03c6H
	DW	02adH
	DW	00H
	DW	02c6H
	DW	02c7H
	DW	027fH
	DW	00H
	DW	02a3H
	DW	00H
	DW	00H
	DW	00H
	DW	00H
	DW	0195H
	DW	00H
	DW	0210H
	DW	00H
	DW	00H
	DW	00H
	DW	00H
	DW	00H
	DW	00H
	DW	00H
	DW	0156H
	DW	0f4H
	DW	01a1H
	DW	00H
	DW	00H
	DW	0281H
	DW	00H
	DW	02ceH
	DW	02cfH
	DW	02e0H
	DW	030dH
	DW	0358H
	DW	017H
	DW	00H
	DW	00H
	DW	00H
	DW	00H
	DW	00H
	DW	0d4H
	DW	0dbH
	DW	0dcH
	DW	00H
	DW	00H
	DW	00H
	DW	035cH
	DW	00H
	DW	00H
	DW	00H
	DW	00H
	DW	0deH
	DW	0cbH
	DW	00H
	DW	00H
	DW	00H
	DW	0edH
	DW	00H
	DW	0c5H
	DW	00H
	DW	0c4H
	DW	0caH
	DW	00H
	DW	00H
	DW	00H
	DW	070H
	DW	0ccH
	DW	0cdH
	DW	0afH
	DW	00H
	DW	071H
	DW	0cfH
	DW	0d2H
	DW	00H
	DW	0c8H
	DW	00H
	DW	0d3H
	DW	00H
	DW	00H
	DW	00H
	DW	00H
	DW	00H
	DW	00H
	DW	00H
	DW	00H
	DW	00H
	DW	00H
	DW	00H
	DW	0d0H
	DW	0d1H
	DW	0bcH
	DW	00H
	DW	00H
	DW	00H
	DW	0200H
	DW	00H
	DW	00H
	DW	00H
	DW	00H
	DW	00H
	DW	00H
	DW	00H
	DW	0bdH
	DW	00H
	DW	00H
	DW	00H
	DW	00H
	DW	0ceH
	DW	00H
	DW	00H
	DW	00H
	DW	00H
	DW	00H
	DW	00H
	DW	00H
	DW	0d5H
	DW	0d6H
	DW	00H
	DW	00H
	DW	00H
	DW	0193H
	DW	00H
	DW	00H
	DW	00H
	DW	00H
	DW	00H
	DW	00H
	DW	00H
	DW	00H
	DW	00H
	DW	0b0H
	DW	00H
	DW	00H
	DW	00H
	DW	00H
	DW	00H
	DW	00H
	DW	00H
	DW	00H
	DW	00H
	DW	00H
	DW	00H
	DW	00H
	DW	00H
	DW	00H
	DW	00H
	DW	00H
	DW	00H
	DW	00H
	DW	00H
	DW	0f2H
	DW	0ebH
	DW	00H
	DW	0d7H
	DW	0d9H
	DW	0daH
	DW	0d8H
	DW	00H
	DW	0b7H
	DW	0b8H
	DW	00H
	DW	00H
	DW	00H
	DW	00H
	DW	00H
	DW	00H
	DW	00H
	DW	00H
	DW	00H
	DW	0c9H
	DW	05aH
	DW	027fH
	DW	00H
	DW	00H
	DW	00H
	DW	00H
	DW	0b9H
	DW	0baH
	DW	0bbH
	DW	00H
	DW	0b2H
	DW	0b3H
	DW	00H
	DW	016H
	DW	00H
	DW	0b6H
	DW	00H
	DW	0224H
	DW	00H
	DW	00H
	DW	00H
	DW	0c7H
	DW	0b4H
	DW	0b5H
	DW	02aH
	DW	00H
	DW	00H
	DW	037H
	DW	00H
	DW	04H
	DW	00H
	DW	06H
	DW	05H
	DW	00H
	DW	02cH
	DW	02eH
	DW	01fH
	DW	00H
	DW	034H
	DW	00H
	DW	00H
	DW	00H
	DW	00H
	DW	00H
	DW	00H
	DW	00H
	DW	00H
	DW	00H
	DW	00H
	DW	0192H
	DW	00H
	DW	00H
	DW	01b2H
	DW	00H
	DW	00H
	DW	01f6H
	DW	01f9H
	DW	01fcH
	DW	00H
	DW	035aH
	DW	0281H
	DW	00H
	DW	0356H
	DW	00H
	DW	00H
	DW	00H
	DW	01beH
	DW	0313H
	DW	00H
	DW	00H
	DW	0221H
	DW	00H
	DW	02f8H
	DW	00H
	DW	033bH
	DW	033aH
	DW	0305H
	DW	00H
	DW	02d4H
	DW	02d5H
	DW	033cH
	DW	02e9H
	DW	00H
	DW	0308H
	DW	00H
	DW	0216H
	DW	00H
	DW	0228H
	DW	00H
	DW	022aH
	DW	00H
	DW	022eH
	DW	00H
	DW	022cH
	DW	00H
	DW	0230H
	DW	02e4H
	DW	00H
	DW	021dH
	DW	00H
	DW	0238H
	DW	00H
	DW	024aH
	DW	00H
	DW	00H
	DW	0223H
	DW	00H
	DW	023aH
	DW	00H
	DW	023cH
	DW	00H
	DW	02f0H
	DW	00H
	DW	033eH
	DW	033dH
	DW	02d3H
	DW	02d1H
	DW	02d2H
	DW	02dbH
	DW	02d9H
	DW	02daH
	DW	02d8H
	DW	02d6H
	DW	02d7H
	DW	02ddH
	DW	02dcH
	DW	02dfH
	DW	02deH
	DW	02eeH
	DW	02edH
	DW	0f5H
	DW	00H
	DW	00H
	DW	00H
	DW	00H
	DW	00H
	DW	00H
	DW	00H
	DW	00H
	DW	00H
	DW	00H
	DW	00H
	DW	00H
	DW	00H
	DW	00H
	DW	00H
	DW	00H
	DW	00H
	DW	00H
	DW	00H
	DW	00H
	DW	01a0H
	DW	0213H
	DW	00H
	DW	00H
	DW	0280H
	DW	0199H
	DW	02e2H
	DW	00H
	DW	02caH
	DW	02cbH
	DW	0196H
	DW	00H
	DW	02e1H
	DW	02d0H
	DW	00H
	DW	04fH
	DW	03bH
	DW	0296H
	DW	0291H
	DW	028fH
	DW	0290H
	DW	029aH
	DW	0299H
	DW	00H
	DW	0298H
	DW	0294H
	DW	0297H
	DW	0295H
	DW	039H
	DW	0293H
	DW	038H
	DW	029dH
	DW	01bdH
	DW	00H
	DW	01b9H
	DW	015eH
	DW	043H
	DW	041H
	DW	040H
	DW	015fH
	DW	00H
	DW	00H
	DW	00H
	DW	015dH
	DW	015aH
	DW	049H
	DW	048H
	DW	03caH
	DW	00H
	DW	00H
	DW	015H
	DW	0abH
	DW	0aaH
	DW	01bcH
	DW	00H
	DW	00H
	DW	00H
	DW	00H
	DW	00H
	DW	00H
	DW	00H
	DW	00H
	DW	0258H
	DW	024eH
	DW	0dfH
	DW	00H
	DW	0e8H
	DW	0e1H
	DW	0e0H
	DW	00H
	DW	0eaH
	DW	00H
	DW	00H
	DW	0e6H
	DW	0e4H
	DW	0e2H
	DW	0250H
	DW	025cH
	DW	025eH
	DW	0271H
	DW	026dH
	DW	026fH
	DW	0272H
	DW	026eH
	DW	0270H
	DW	0ecH
	DW	00H
	DW	05cH
	DW	05bH
	DW	07dH
	DW	07cH
	DW	0c0H
	DW	00H
	DW	03fH
	DW	03dH
	DW	03cH
	DW	01e2H
	DW	08dH
	DW	08cH
	DW	01b7H
	DW	0189H
	DW	0188H
	DW	01b5H
	DW	01b6H
	DW	00H
	DW	018aH
	DW	01b3H
	DW	01b4H
	DW	00H
	DW	0113H
	DW	00H
	DW	0111H
	DW	0f0H
	DW	0a3H
	DW	00H
	DW	0a8H
	DW	0a7H
	DW	0264H
	DW	085H
	DW	084H
	DW	0a1H
	DW	00H
	DW	0a0H
	DW	0a6H
	DW	00H
	DW	0a5H
	DW	087H
	DW	086H
	DW	09cH
	DW	09bH
	DW	09aH
	DW	099H
	DW	0100H
	DW	0381H
	DW	0382H
	DW	0383H
	DW	00H
	DW	09eH
	DW	09dH
	DW	080H
	DW	00H
	DW	07eH
	DW	01f1H
	DW	01f0H
	DW	01f5H
	DW	01f4H
	DW	0c6H
	DW	055H
	DW	054H
	DW	058H
	DW	057H
	DW	08fH
	DW	08eH
	DW	091H
	DW	090H
	DW	047H
	DW	045H
	DW	044H
	DW	00H
	DW	0c1H
	DW	098H
	DW	096H
	DW	075H
	DW	01e6H
	DW	074H
	DW	00H
	DW	08bH
	DW	00H
	DW	07aH
	DW	01e4H
	DW	079H
	DW	0c3H
	DW	0c2H
	DW	052H
	DW	051H
	DW	083H
	DW	00H
	DW	081H
	DW	04dH
	DW	04cH
	DW	089H
	DW	088H
	DW	04bH
	DW	04aH
	DW	0183H
	DW	0160H
	DW	0161H
	DW	00H
	DW	0207H
	DW	021bH
	DW	00H
	DW	00H
	DW	01e1H
	DW	01d7H
	DW	01d8H
	DW	01ddH
	DW	01deH
	DW	01d9H
	DW	01daH
	DW	01dcH
	DW	01dbH
	DW	01dfH
	DW	01e0H
	DW	01d4H
	DW	01d5H
	DW	0355H
	DW	00H
	DW	020fH
	DW	020eH
	DW	01aH
	DW	00H
	DW	00H
	DW	019H
	DW	034eH
	DW	00H
	DW	0142H
	DW	0262H
	DW	034aH
	DW	034bH
	DW	0b1H
	DW	033H
	DW	031H
	DW	060H
	DW	05dH
	DW	065H
	DW	00H
	DW	06cH
	DW	00H
	DW	00H
	DW	00H
	DW	00H
	DW	010eH
	DW	00H
	DW	0138H
	DW	0136H
	DW	0135H
	DW	0110H
	DW	010fH
	DW	012bH
	DW	012aH
	DW	0129H
	DW	01dH
	DW	01cfH
	DW	01cH
	DW	0184H
	DW	017dH
	DW	017eH
	DW	017fH
	DW	013dH
	DW	0134H
	DW	0133H
	DW	0132H
	DW	03cdH
	DW	03ccH
	DW	0254H
	DW	0255H
	DW	013bH
	DW	013aH
	DW	0eeH
	DW	0256H
	DW	0f8H
	DW	00H
	DW	0aeH
	DW	0adH
	DW	0219H
	DW	00H
	DW	0266H
	DW	0268H
	DW	026aH
	DW	0352H
	DW	00H
	DW	0260H
	DW	0240H
	DW	00H
	DW	0242H
	DW	00H
	DW	023eH
	DW	00H
	DW	0146H
	DW	095H
	DW	094H
	DW	025aH
	DW	0244H
	DW	00H
	DW	01f3H
	DW	01f2H
	DW	093H
	DW	092H
	DW	014H
	DW	00H
	DW	00H
	DW	00H
	DW	012eH
	DW	012dH
	DW	012cH
	DW	0131H
	DW	0130H
	DW	012fH
	DW	0226H
	DW	00H
	DW	0126H
	DW	0125H
	DW	0128H
	DW	0127H
	DW	00H
	DW	023H
	DW	00H
	DW	036H
	DW	015bH
	DW	01eH
	DW	00H
	DW	00H
	DW	00H
	DW	00H
	DW	02bH
	DW	00H
	DW	029H
	DW	028H
	DW	00H
	DW	030H
	DW	00H
	DW	00H
	DW	064H
	DW	00H
	DW	06eH
	DW	068H
	DW	00H
	DW	06fH
	DW	06aH
	DW	00H
	DW	00H
	DW	078H
	DW	077H
	DW	01d3H
	DW	0144H
	DW	013fH
	DW	0145H
	DW	0147H
	DW	00H
	DW	019aH
	DW	00H
	DW	0381H
	DW	019dH
	DW	00H
	DW	01afH
	DW	00H
	DW	01aeH
	DW	01c2H
	DW	01c7H
	DW	01c1H
	DW	00H
	DW	01c0H
	DW	01caH
	DW	01c4H
	DW	01c3H
	DW	00H
	DW	00H
	DW	00H
	DW	020dH
	DW	020aH
	DW	020cH
	DW	020bH
	DW	0203H
	DW	00H
	DW	0206H
	DW	0201H
	DW	0205H
	DW	0209H
	DW	00H
	DW	0202H
	DW	00H
	DW	0280H
	DW	00H
	DW	0278H
	DW	0287H
	DW	0281H
	DW	0285H
	DW	00H
	DW	03a7H
	DW	00H
	DW	00H
	DW	00H
	DW	00H
	DW	00H
	DW	02f6H
	DW	02f5H
	DW	0153H
	DW	014aH
	DW	0149H
	DW	0155H
	DW	0154H
	DW	0306H
	DW	0300H
	DW	0301H
	DW	02f9H
	DW	0302H
	DW	0304H
	DW	0303H
	DW	02faH
	DW	02fdH
	DW	02feH
	DW	02fbH
	DW	00H
	DW	00H
	DW	00H
	DW	0307H
	DW	02fcH
	DW	02ffH
	DW	0214H
	DW	01ecH
	DW	00H
	DW	01efH
	DW	00H
	DW	00H
	DW	00H
	DW	00H
	DW	02e5H
	DW	00H
	DW	00H
	DW	024cH
	DW	00H
	DW	00H
	DW	00H
	DW	00H
	DW	00H
	DW	02efH
	DW	032bH
	DW	0318H
	DW	0342H
	DW	00H
	DW	0339H
	DW	0326H
	DW	0338H
	DW	0325H
	DW	0333H
	DW	0320H
	DW	0332H
	DW	031fH
	DW	0334H
	DW	0321H
	DW	0337H
	DW	0324H
	DW	0336H
	DW	0323H
	DW	0335H
	DW	0322H
	DW	0329H
	DW	0316H
	DW	00H
	DW	032aH
	DW	0317H
	DW	00H
	DW	032eH
	DW	031bH
	DW	032fH
	DW	031cH
	DW	032dH
	DW	031aH
	DW	032cH
	DW	0319H
	DW	0330H
	DW	031dH
	DW	0331H
	DW	031eH
	DW	00H
	DW	019fH
	DW	00H
	DW	0211H
	DW	027bH
	DW	00H
	DW	0235H
	DW	0233H
	DW	00H
	DW	00H
	DW	0198H
	DW	00H
	DW	00H
	DW	00H
	DW	029cH
	DW	029bH
	DW	0292H
	DW	00H
	DW	01bfH
	DW	015cH
	DW	0157H
	DW	00H
	DW	00H
	DW	0159H
	DW	03c0H
	DW	00H
	DW	0106H
	DW	00H
	DW	03c0H
	DW	00H
	DW	0124H
	DW	00H
	DW	0120H
	DW	0122H
	DW	0123H
	DW	0121H
	DW	00H
	DW	00H
	DW	00H
	DW	0feH
	DW	0fdH
	DW	010cH
	DW	010bH
	DW	0108H
	DW	0107H
	DW	00H
	DW	0fcH
	DW	00H
	DW	0105H
	DW	0e5H
	DW	0e3H
	DW	0e7H
	DW	0e9H
	DW	0119H
	DW	00H
	DW	00H
	DW	00H
	DW	00H
	DW	0bfH
	DW	00H
	DW	0187H
	DW	0186H
	DW	00H
	DW	00H
	DW	0112H
	DW	00H
	DW	00H
	DW	00H
	DW	0ffH
	DW	07fH
	DW	010aH
	DW	0109H
	DW	00H
	DW	011aH
	DW	00H
	DW	00H
	DW	00H
	DW	082H
	DW	0182H
	DW	0178H
	DW	0179H
	DW	017aH
	DW	00H
	DW	00H
	DW	00H
	DW	0354H
	DW	01d1H
	DW	00H
	DW	01d2H
	DW	0140H
	DW	013eH
	DW	00H
	DW	00H
	DW	00H
	DW	062H
	DW	025H
	DW	017H
	DW	00H
	DW	066H
	DW	0139H
	DW	0143H
	DW	0141H
	DW	010dH
	DW	00H
	DW	00H
	DW	0f9H
	DW	00H
	DW	0217H
	DW	00H
	DW	0350H
	DW	00H
	DW	00H
	DW	00H
	DW	0247H
	DW	00H
	DW	011H
	DW	012H
	DW	013H
	DW	00H
	DW	024H
	DW	00H
	DW	0aH
	DW	09H
	DW	010H
	DW	0fH
	DW	0eH
	DW	0dH
	DW	0cH
	DW	0bH
	DW	08H
	DW	07H
	DW	00H
	DW	063H
	DW	067H
	DW	069H
	DW	0151H
	DW	00H
	DW	019eH
	DW	01a8H
	DW	01a3H
	DW	019cH
	DW	019bH
	DW	01a9H
	DW	00H
	DW	00H
	DW	00H
	DW	01c9H
	DW	00H
	DW	035cH
	DW	0f1H
	DW	00H
	DW	061H
	DW	00H
	DW	0efH
	DW	01c6H
	DW	01ccH
	DW	00H
	DW	01f8H
	DW	01f7H
	DW	01fbH
	DW	01faH
	DW	01feH
	DW	01fdH
	DW	02cfH
	DW	035bH
	DW	037aH
	DW	037cH
	DW	036dH
	DW	0372H
	DW	0373H
	DW	0371H
	DW	037eH
	DW	0376H
	DW	0370H
	DW	0375H
	DW	0377H
	DW	0379H
	DW	0378H
	DW	037dH
	DW	036eH
	DW	036fH
	DW	036bH
	DW	036cH
	DW	0374H
	DW	037bH
	DW	0384H
	DW	00H
	DW	0288H
	DW	028cH
	DW	028aH
	DW	0286H
	DW	028bH
	DW	0289H
	DW	0279H
	DW	00H
	DW	00H
	DW	0361H
	DW	039fH
	DW	0366H
	DW	0368H
	DW	0367H
	DW	0362H
	DW	03a3H
	DW	0365H
	DW	035fH
	DW	035dH
	DW	035eH
	DW	0363H
	DW	0360H
	DW	00H
	DW	00H
	DW	0364H
	DW	038eH
	DW	00H
	DW	0369H
	DW	0380H
	DW	00H
	DW	00H
	DW	03bbH
	DW	03b2H
	DW	03a9H
	DW	03b1H
	DW	03b4H
	DW	00H
	DW	03a0H
	DW	03b7H
	DW	03b5H
	DW	03b6H
	DW	03acH
	DW	00H
	DW	03a4H
	DW	03b8H
	DW	03aaH
	DW	03adH
	DW	03aeH
	DW	03afH
	DW	03abH
	DW	03b9H
	DW	03baH
	DW	03b3H
	DW	00H
	DW	00H
	DW	03b0H
	DW	03beH
	DW	03c4H
	DW	03bcH
	DW	03bfH
	DW	03c5H
	DW	0312H
	DW	00H
	DW	00H
	DW	02e7H
	DW	02e6H
	DW	02e8H
	DW	00H
	DW	0215H
	DW	00H
	DW	0227H
	DW	00H
	DW	022dH
	DW	022bH
	DW	02e3H
	DW	021cH
	DW	00H
	DW	00H
	DW	0248H
	DW	00H
	DW	0239H
	DW	023bH
	DW	00H
	DW	0327H
	DW	0328H
	DW	018bH
	DW	00H
	DW	00H
	DW	0236H
	DW	0234H
	DW	027cH
	DW	00H
	DW	027aH
	DW	00H
	DW	0283H
	DW	00H
	DW	00H
	DW	029fH
	DW	029eH
	DW	0158H
	DW	00H
	DW	014dH
	DW	014bH
	DW	014cH
	DW	0104H
	DW	0102H
	DW	01bbH
	DW	0103H
	DW	0101H
	DW	011fH
	DW	011cH
	DW	011bH
	DW	011dH
	DW	011eH
	DW	0fbH
	DW	00H
	DW	00H
	DW	00H
	DW	00H
	DW	00H
	DW	0190H
	DW	0191H
	DW	018fH
	DW	00H
	DW	01aaH
	DW	01abH
	DW	00H
	DW	00H
	DW	00H
	DW	00H
	DW	00H
	DW	00H
	DW	08aH
	DW	00H
	DW	00H
	DW	00H
	DW	0150H
	DW	014eH
	DW	014fH
	DW	01d6H
	DW	00H
	DW	00H
	DW	05eH
	DW	00H
	DW	00H
	DW	0180H
	DW	00H
	DW	0f7H
	DW	0218H
	DW	00H
	DW	00H
	DW	00H
	DW	00H
	DW	0225H
	DW	022H
	DW	01a7H
	DW	01a2H
	DW	01a4H
	DW	00H
	DW	01b0H
	DW	018dH
	DW	00H
	DW	00H
	DW	00H
	DW	01ffH
	DW	00H
	DW	00H
	DW	00H
	DW	00H
	DW	00H
	DW	028eH
	DW	028dH
	DW	00H
	DW	00H
	DW	00H
	DW	0397H
	DW	039bH
	DW	038fH
	DW	037fH
	DW	00H
	DW	038cH
	DW	00H
	DW	0391H
	DW	00H
	DW	01a1H
	DW	03c1H
	DW	00H
	DW	03c7H
	DW	00H
	DW	0398H
	DW	039cH
	DW	00H
	DW	00H
	DW	00H
	DW	00H
	DW	00H
	DW	01ebH
	DW	01eaH
	DW	01eeH
	DW	01edH
	DW	00H
	DW	0231H
	DW	00H
	DW	024bH
	DW	00H
	DW	00H
	DW	0340H
	DW	018cH
	DW	0212H
	DW	0232H
	DW	00H
	DW	0284H
	DW	0282H
	DW	00H
	DW	0148H
	DW	0118H
	DW	0115H
	DW	0114H
	DW	0116H
	DW	01adH
	DW	01acH
	DW	00H
	DW	00H
	DW	00H
	DW	0117H
	DW	017bH
	DW	00H
	DW	00H
	DW	016fH
	DW	016cH
	DW	0170H
	DW	0177H
	DW	0173H
	DW	00H
	DW	0174H
	DW	00H
	DW	00H
	DW	00H
	DW	0246H
	DW	00H
	DW	00H
	DW	01a6H
	DW	00H
	DW	018eH
	DW	01c8H
	DW	01cbH
	DW	00H
	DW	00H
	DW	0389H
	DW	00H
	DW	00H
	DW	03a1H
	DW	03a5H
	DW	00H
	DW	00H
	DW	036aH
	DW	00H
	DW	038dH
	DW	00H
	DW	0390H
	DW	00H
	DW	00H
	DW	03a2H
	DW	00H
	DW	03a6H
	DW	00H
	DW	00H
	DW	03bdH
	DW	03c3H
	DW	03c8H
	DW	0314H
	DW	0220H
	DW	021eH
	DW	021fH
	DW	0229H
	DW	00H
	DW	0249H
	DW	00H
	DW	00H
	DW	00H
	DW	00H
	DW	0a2H
	DW	09fH
	DW	0a4H
	DW	0177H
	DW	021aH
	DW	0162H
	DW	0163H
	DW	0168H
	DW	0169H
	DW	0164H
	DW	0165H
	DW	0167H
	DW	0166H
	DW	016aH
	DW	016bH
	DW	016dH
	DW	0176H
	DW	0175H
	DW	0181H
	DW	0171H
	DW	00H
	DW	023fH
	DW	0241H
	DW	023dH
	DW	00H
	DW	01a5H
	DW	00H
	DW	0385H
	DW	00H
	DW	038bH
	DW	00H
	DW	0399H
	DW	039dH
	DW	0395H
	DW	00H
	DW	0392H
	DW	00H
	DW	0394H
	DW	03c2H
	DW	03c9H
	DW	039aH
	DW	039eH
	DW	0237H
	DW	00H
	DW	0341H
	DW	0197H
	DW	0359H
	DW	017cH
	DW	0172H
	DW	016eH
	DW	0245H
	DW	00H
	DW	01b1H
	DW	0387H
	DW	0357H
	DW	0396H
	DW	0393H
	DW	00H
	DW	0243H
	DW	00H
	DW	0222H
_yydefgoto DW	0ffffH
	DW	03H
	DW	05H
	DW	0129H
	DW	012aH
	DW	012bH
	DW	012cH
	DW	012dH
	DW	02d5H
	DW	03d1H
	DW	012eH
	DW	012fH
	DW	0130H
	DW	0131H
	DW	0132H
	DW	03ceH
	DW	0133H
	DW	03cfH
	DW	0134H
	DW	0284H
	DW	0135H
	DW	0136H
	DW	0137H
	DW	0138H
	DW	04H
	DW	03ddH
	DW	03a2H
	DW	0139H
	DW	013aH
	DW	013bH
	DW	078H
	DW	033cH
	DW	025eH
	DW	0556H
	DW	04bfH
	DW	04c0H
	DW	0559H
	DW	03c4H
	DW	04b4H
	DW	054aH
	DW	029aH
	DW	03dbH
	DW	0515H
	DW	01a3H
	DW	02fdH
	DW	013dH
	DW	07aH
	DW	013fH
	DW	03fdH
	DW	04ccH
	DW	04acH
	DW	0140H
	DW	0402H
	DW	0520H
	DW	0141H
	DW	0142H
	DW	038eH
	DW	0301H
	DW	0406H
	DW	040fH
	DW	03caH
	DW	03daH
	DW	026eH
	DW	026fH
	DW	03aeH
	DW	03bfH
	DW	03bbH
	DW	033dH
	DW	0143H
	DW	0144H
	DW	0145H
	DW	04d2H
	DW	0146H
	DW	07bH
	DW	0485H
	DW	037cH
	DW	0147H
	DW	07cH
	DW	0319H
	DW	07dH
	DW	07eH
	DW	031cH
	DW	0213H
	DW	01c0H
	DW	033eH
	DW	01c2H
	DW	07fH
	DW	080H
	DW	081H
	DW	082H
	DW	0350H
	DW	0544H
	DW	083H
	DW	014aH
	DW	014bH
	DW	02b1H
	DW	0271H
	DW	0317H
	DW	01b1H
	DW	0315H
	DW	014cH
	DW	0449H
	DW	042cH
	DW	044bH
	DW	022bH
	DW	04d3H
	DW	04d4H
	DW	04d5H
	DW	04d6H
	DW	044cH
	DW	014dH
	DW	0468H
	DW	0469H
	DW	046aH
	ORG $+4
_yypact	DD	08aH
	DD	067H
	DD	096H
	DD	098H
	DD	098e5H
	DD	08050H
	DD	0fffffb36H
	DD	0fffffb36H
	DD	0fffffb36H
	DD	0fffffb36H
	DD	0fffffb36H
	DD	070H
	DD	010H
	DD	0ffffff35H
	DD	0cH
	DD	0fffffb36H
	DD	0fffffb36H
	DD	0fffffb36H
	DD	0fffffb36H
	DD	0fffffb36H
	DD	0fffffb36H
	DD	0fffffb36H
	DD	04fH
	DD	0fffffb36H
	DD	0fffffb36H
	DD	0ffffff5eH
	DD	03cebH
	DD	0fffffb36H
	DD	0fffffb36H
	DD	0fffffb36H
	DD	0fffffb36H
	DD	0fffffb36H
	DD	0fffffb36H
	DD	0fffffb36H
	DD	0fffffb36H
	DD	0fffffb36H
	DD	0fffffb36H
	DD	0fffffb36H
	DD	0fffffb36H
	DD	0fffffb36H
	DD	0fffffb36H
	DD	0fffffb36H
	DD	0fffffb36H
	DD	0fffffb36H
	DD	0fffffb36H
	DD	0fffffb36H
	DD	0fffffb36H
	DD	0fffffb36H
	DD	0fffffb36H
	DD	0919H
	DD	09a38H
	DD	0fffffb36H
	DD	0fffffb36H
	DD	098e5H
	DD	0fffffb36H
	DD	0fffffb36H
	DD	0fffffb36H
	DD	0fffffb36H
	DD	0fffffb36H
	DD	0fffffb36H
	DD	0fffffb36H
	DD	0fffffb36H
	DD	0fffffb36H
	DD	0fffffb36H
	DD	011H
	DD	0fffffb36H
	DD	0fffffb36H
	DD	0fffffb36H
	DD	0fffffb36H
	DD	0fffffb36H
	DD	0a7fH
	DD	0fffffb36H
	DD	0fffffb36H
	DD	0fffffb36H
	DD	0fffffb36H
	DD	0fffffb36H
	DD	0fffffb36H
	DD	0fffffb36H
	DD	0fffffb36H
	DD	0fffffb36H
	DD	0fffffb36H
	DD	0fffffb36H
	DD	0fffffb36H
	DD	01aH
	DD	01eH
	DD	01fH
	DD	02fH
	DD	039H
	DD	0fffffb36H
	DD	0be5H
	DD	0fffffb36H
	DD	0fffffb36H
	DD	03aH
	DD	0fffffb36H
	DD	0fffffb36H
	DD	0fffffb36H
	DD	01dH
	DD	0fffffb36H
	DD	0fffffb36H
	DD	0fffffb36H
	DD	03bH
	DD	0fffffb36H
	DD	0fffffb36H
	DD	0fffffb36H
	DD	040H
	DD	0fffffb36H
	DD	0ffffff59H
	DD	045H
	DD	047H
	DD	048H
	DD	0fffffb36H
	DD	03e3eH
	DD	0fffffb36H
	DD	03f91H
	DD	040e4H
	DD	04237H
	DD	0438aH
	DD	046H
	DD	035H
	DD	044ddH
	DD	0fffffb36H
	DD	0a2bcH
	DD	0ffffff16H
	DD	0818eH
	DD	0ffffff6fH
	DD	0ffffff75H
	DD	09e2cH
	DD	0fffffb36H
	DD	0ffffff78H
	DD	0fffffb36H
	DD	0fffffb36H
	DD	0fffffb36H
	DD	0fffffb36H
	DD	05dcH
	DD	09de4H
	DD	0fH
	DD	0a02bH
	DD	023H
	DD	0fffffb36H
	DD	0fffffb36H
	DD	0fffffb36H
	DD	01060H
	DD	0495H
	DD	01690H
	DD	0335H
	DD	01abH
	DD	0a29eH
	DD	0382H
	DD	03bfH
	DD	0fffffb36H
	DD	0fffffb36H
	DD	0437H
	DD	04dfH
	DD	05bcH
	DD	049H
	DD	0ffffff7cH
	DD	0fffffb36H
	DD	017e3H
	DD	0fffffb36H
	DD	0fffffb36H
	DD	04ceH
	DD	01936H
	DD	0a08dH
	DD	0acH
	DD	0fffffb36H
	DD	0fffffb36H
	DD	0fffffb36H
	DD	012faH
	DD	0fffffb36H
	DD	0fffffb36H
	DD	0fffffb36H
	DD	01230H
	DD	0fffffb36H
	DD	0e9eH
	DD	0fffffb36H
	DD	05dH
	DD	04630H
	DD	05cbH
	DD	01306H
	DD	04783H
	DD	048d6H
	DD	01446H
	DD	04a29H
	DD	04b7cH
	DD	013H
	DD	04ccfH
	DD	0fffffb36H
	DD	0fffffb36H
	DD	0fffffb36H
	DD	03a45H
	DD	0144dH
	DD	01599H
	DD	0ffffff86H
	DD	0f3H
	DD	02edH
	DD	04e22H
	DD	04f75H
	DD	0a0a4H
	DD	0ffffffd2H
	DD	0b7H
	DD	0fffffb36H
	DD	01a89H
	DD	01297H
	DD	0ffffff87H
	DD	050c8H
	DD	0fffffb36H
	DD	013eaH
	DD	0521bH
	DD	01bdcH
	DD	0dbaH
	DD	015a0H
	DD	016f3H
	DD	016ffH
	DD	0fffffb36H
	DD	0fffffb36H
	DD	03dH
	DD	01bH
	DD	065H
	DD	0ffffff88H
	DD	013c5H
	DD	06ddH
	DD	0183fH
	DD	0ff1H
	DD	0a1dH
	DD	0ffffff89H
	DD	0b83H
	DD	069H
	DD	06bH
	DD	098e5H
	DD	0536eH
	DD	054c1H
	DD	082ccH
	DD	071H
	DD	0dH
	DD	0ffffff9bH
	DD	019H
	DD	0d4bH
	DD	05614H
	DD	02a61H
	DD	0153dH
	DD	016H
	DD	0ffffffe2H
	DD	02bb4H
	DD	08d1H
	DD	0c42H
	DD	0c9eH
	DD	01144H
	DD	0ce9H
	DD	0fffffb36H
	DD	0fffffb36H
	DD	0ffffffd0H
	DD	0fffffb36H
	DD	0fffffb36H
	DD	0fffffb36H
	DD	0fffffb36H
	DD	01d2fH
	DD	0fffffb36H
	DD	0fffffb36H
	DD	073H
	DD	0d7cH
	DD	0dcbH
	DD	0dd0H
	DD	01c3H
	DD	0e29H
	DD	079H
	DD	07cH
	DD	07dH
	DD	0fffffb36H
	DD	0fffffb36H
	DD	032H
	DD	05767H
	DD	01022H
	DD	07eH
	DD	018f4H
	DD	0fffffb36H
	DD	0fffffb36H
	DD	0fffffb36H
	DD	058baH
	DD	0fffffb36H
	DD	0fffffb36H
	DD	024H
	DD	0fffffb36H
	DD	02d07H
	DD	0fffffb36H
	DD	02e5aH
	DD	0fffffb36H
	DD	07fH
	DD	05a0dH
	DD	05b60H
	DD	0fffffb36H
	DD	0fffffb36H
	DD	0fffffb36H
	DD	0fffffb36H
	DD	07f12H
	DD	0dbH
	DD	0fffffb36H
	DD	0d1H
	DD	0fffffb36H
	DD	0159H
	DD	0fffffb36H
	DD	0fffffb36H
	DD	01e82H
	DD	0fffffb36H
	DD	0fffffb36H
	DD	0fffffb36H
	DD	02679H
	DD	0ffffffadH
	DD	0867fH
	DD	03eH
	DD	03b98H
	DD	0840aH
	DD	0867fH
	DD	01fd5H
	DD	08ba7H
	DD	098e5H
	DD	098e5H
	DD	0ffffffd2H
	DD	0fffffb36H
	DD	0ffffff90H
	DD	0108H
	DD	0ffffff7dH
	DD	023d7H
	DD	08cfaH
	DD	0ffffffbcH
	DD	0ffffffbdH
	DD	0ffffffbfH
	DD	027bbH
	DD	0fffffb36H
	DD	0ffffffc2H
	DD	022bH
	DD	0fffffb36H
	DD	055eH
	DD	01071H
	DD	055eH
	DD	0fffffb36H
	DD	0fffffb36H
	DD	098e5H
	DD	098e5H
	DD	0fffffb36H
	DD	098e5H
	DD	0fffffb36H
	DD	057dH
	DD	0fffffb36H
	DD	0ffffffa4H
	DD	0fffffb36H
	DD	01756H
	DD	0fffffb36H
	DD	0171H
	DD	0ffffffa4H
	DD	0fffffb36H
	DD	02fbH
	DD	0fffffb36H
	DD	025H
	DD	0fffffb36H
	DD	08e4dH
	DD	0fffffb36H
	DD	09246H
	DD	0fffffb36H
	DD	098e5H
	DD	0fffffb36H
	DD	09246H
	DD	0fffffb36H
	DD	09246H
	DD	0fffffb36H
	DD	0fffffb36H
	DD	0c17H
	DD	0fffffb36H
	DD	098e5H
	DD	0fffffb36H
	DD	06aH
	DD	0fffffb36H
	DD	04e7H
	DD	0ad1H
	DD	0fffffb36H
	DD	098e5H
	DD	0fffffb36H
	DD	098e5H
	DD	0fffffb36H
	DD	098e5H
	DD	0fffffb36H
	DD	0a4e1H
	DD	0fffffb36H
	DD	064dH
	DD	0fffffb36H
	DD	0fffffb36H
	DD	0171H
	DD	0fffffb36H
	DD	0fffffb36H
	DD	0171H
	DD	0fffffb36H
	DD	0fffffb36H
	DD	0171H
	DD	0fffffb36H
	DD	0fffffb36H
	DD	0fffffb36H
	DD	0fffffb36H
	DD	0fffffb36H
	DD	0fffffb36H
	DD	0fffffb36H
	DD	05cb3H
	DD	05e06H
	DD	05f59H
	DD	060acH
	DD	061ffH
	DD	06352H
	DD	064a5H
	DD	065f8H
	DD	0674bH
	DD	0689eH
	DD	069f1H
	DD	06b44H
	DD	06c97H
	DD	06deaH
	DD	06f3dH
	DD	07090H
	DD	071e3H
	DD	07336H
	DD	098e5H
	DD	0ad1H
	DD	0ffffffcbH
	DD	0b3H
	DD	018H
	DD	0379fH
	DD	0fffffb36H
	DD	0fffffb36H
	DD	0fffffb36H
	DD	031H
	DD	0fffffb36H
	DD	0fffffb36H
	DD	0fffffb36H
	DD	0ffffffcfH
	DD	0fffffb36H
	DD	0ffffffcbH
	DD	0ffffffd8H
	DD	0fffffb36H
	DD	0fffffb36H
	DD	0fffffb36H
	DD	0fffffb36H
	DD	0fffffb36H
	DD	0fffffb36H
	DD	0fffffb36H
	DD	0fffffb36H
	DD	01992H
	DD	0fffffb36H
	DD	0fffffb36H
	DD	0fffffb36H
	DD	0fffffb36H
	DD	0fffffb36H
	DD	0e8H
	DD	0fffffb36H
	DD	0ffffffe4H
	DD	0fffffb36H
	DD	02533H
	DD	0fffffb36H
	DD	0fffffb36H
	DD	0fffffb36H
	DD	0fffffb36H
	DD	0fffffb36H
	DD	0fffffb36H
	DD	0290eH
	DD	059H
	DD	098e5H
	DD	0fffffb36H
	DD	0fffffb36H
	DD	0fffffb36H
	DD	0fffffb36H
	DD	0fffffb36H
	DD	09b8bH
	DD	0fffffffdH
	DD	0fffffb36H
	DD	0fffffb36H
	DD	0a6e5H
	DD	072H
	DD	09cdeH
	DD	01caH
	DD	07489H
	DD	075dcH
	DD	0772fH
	DD	055H
	DD	07882H
	DD	04bH
	DD	0fffffb36H
	DD	0fffffb36H
	DD	0fffffb36H
	DD	098e5H
	DD	0fffffb36H
	DD	0fffffb36H
	DD	0fffffb36H
	DD	098e5H
	DD	0fffffb36H
	DD	0e1H
	DD	0a5H
	DD	0fffffb36H
	DD	0fffffb36H
	DD	0fffffb36H
	DD	0fffffb36H
	DD	0fffffb36H
	DD	0fffffb36H
	DD	0fffffb36H
	DD	0fffffb36H
	DD	0fffffb36H
	DD	0fffffb36H
	DD	0fffffb36H
	DD	0fffffb36H
	DD	0fffffb36H
	DD	034H
	DD	0fffffb36H
	DD	0a6e5H
	DD	0fffffb36H
	DD	0fffffb36H
	DD	0fffffb36H
	DD	088f8H
	DD	0fffffb36H
	DD	0fffffb36H
	DD	0fffffb36H
	DD	0324H
	DD	0fffffb36H
	DD	0fffffb36H
	DD	0fffffb36H
	DD	0ffffffc5H
	DD	0ffffffc5H
	DD	0fffffb36H
	DD	0fffffb36H
	DD	0ffffffc5H
	DD	0fffffb36H
	DD	0fffffb36H
	DD	0fffffb36H
	DD	0ddH
	DD	0fffffb36H
	DD	098e5H
	DD	0a6e5H
	DD	0fffffb36H
	DD	0fffffb36H
	DD	098e5H
	DD	0fffffb36H
	DD	0a6e5H
	DD	0fffffb36H
	DD	0fffffb36H
	DD	0fffffb36H
	DD	0fffffb36H
	DD	03e3eH
	DD	0a6e5H
	DD	0fffffb36H
	DD	03e3eH
	DD	0a6e5H
	DD	0fffffb36H
	DD	0fffffb36H
	DD	0fffffb36H
	DD	0a6e5H
	DD	0fffffb36H
	DD	0a6e5H
	DD	0fffffb36H
	DD	0fffffb36H
	DD	0fffffb36H
	DD	0fffffb36H
	DD	098e5H
	DD	0fffffb36H
	DD	0a6e5H
	DD	0fffffb36H
	DD	098e5H
	DD	0a6e5H
	DD	0fffffb36H
	DD	0fffffb36H
	DD	0fffffb36H
	DD	0fffffb36H
	DD	0fffffb36H
	DD	0fffffb36H
	DD	0fffffb36H
	DD	0fffffb36H
	DD	0fffffb36H
	DD	0fffffb36H
	DD	0a6e5H
	DD	0fffffb36H
	DD	0a6e5H
	DD	0fffffb36H
	DD	0fffffb36H
	DD	0fffffb36H
	DD	079d5H
	DD	0fffffb36H
	DD	0fffffb36H
	DD	0a6e5H
	DD	0fffffb36H
	DD	038fH
	DD	0a6e5H
	DD	043H
	DD	0fffffb36H
	DD	0a2d6H
	DD	0fffffb36H
	DD	0fffffb36H
	DD	0a6e5H
	DD	0fffffb36H
	DD	0a6e5H
	DD	0fffffb36H
	DD	0a6e5H
	DD	0fffffb36H
	DD	0c17H
	DD	0fffffb36H
	DD	0fffffb36H
	DD	0fffffb36H
	DD	0fffffb36H
	DD	0fffffb36H
	DD	0fffffb36H
	DD	0fffffb36H
	DD	0fffffb36H
	DD	0fffffb36H
	DD	0fffffb36H
	DD	041H
	DD	0fffffb36H
	DD	0fffffb36H
	DD	098e5H
	DD	0121H
	DD	0fffffb36H
	DD	0fffffb36H
	DD	0fffffb36H
	DD	0fffffb36H
	DD	0fffffb36H
	DD	0fffffb36H
	DD	0fffffb36H
	DD	0fffffb36H
	DD	0fffffb36H
	DD	0fffffb36H
	DD	0fffffb36H
	DD	02aH
	DD	0fffffb36H
	DD	0fffffb36H
	DD	055eH
	DD	0fffffb36H
	DD	0fffffb36H
	DD	0fffffb36H
	DD	087b6H
	DD	0174H
	DD	0a6e5H
	DD	0fffffb36H
	DD	09246H
	DD	0fffffb36H
	DD	0fffffb36H
	DD	0fffffb36H
	DD	0fffffb36H
	DD	0a6e5H
	DD	0fffffb36H
	DD	0a6e5H
	DD	0fffffb36H
	DD	0a6e5H
	DD	0fffffb36H
	DD	08050H
	DD	0fffffb36H
	DD	08541H
	DD	0c17H
	DD	0c17H
	DD	0c17H
	DD	0fffffb36H
	DD	098e5H
	DD	0fffffb36H
	DD	0a6e5H
	DD	0fffffb36H
	DD	0fffffb36H
	DD	0a6e5H
	DD	0fffffb36H
	DD	0a6e5H
	DD	0fffffb36H
	DD	0fffffb36H
	DD	0fffffb36H
	DD	0a6e5H
	DD	0fffffb36H
	DD	0fffffb36H
	DD	0fffffb36H
	DD	0fffffb36H
	DD	0fffffb36H
	DD	0fffffb36H
	DD	0a6e5H
	DD	0fffffb36H
	DD	0fffffb36H
	DD	0fffffb36H
	DD	0fffffb36H
	DD	0fffffb36H
	DD	0fffffb36H
	DD	0a6e5H
	DD	0fffffb36H
	DD	0fffffb36H
	DD	0fffffb36H
	DD	07b28H
	DD	0fffffb36H
	DD	0a6e5H
	DD	0fffffb36H
	DD	08fa0H
	DD	0fffffb36H
	DD	0fffffb36H
	DD	0fffffb36H
	DD	0fffffb36H
	DD	055eH
	DD	0fffffb36H
	DD	0fffffb36H
	DD	098e5H
	DD	0fffffb36H
	DD	098e5H
	DD	0fffffb36H
	DD	098e5H
	DD	0fffffb36H
	DD	0fffffb36H
	DD	0a6e5H
	DD	0fffffb36H
	DD	0fffffb36H
	DD	05aaH
	DD	0fffffb36H
	DD	0fffffb36H
	DD	0fffffb36H
	DD	0a6e5H
	DD	0fffffb36H
	DD	098e5H
	DD	098e5H
	DD	098e5H
	DD	0fffffb36H
	DD	0a6e5H
	DD	0fffffb36H
	DD	0fffffb36H
	DD	0a6e5H
	DD	0fffffb36H
	DD	0fffffb36H
	DD	098e5H
	DD	0fffffb36H
	DD	0a6e5H
	DD	0fffffb36H
	DD	0a6e5H
	DD	037H
	DD	0fffffb36H
	DD	08050H
	DD	0fffffb36H
	DD	0fffffb36H
	DD	0fffffb36H
	DD	01999H
	DD	01ae5H
	DD	01aecH
	DD	01c38H
	DD	0fffffb36H
	DD	01c3fH
	DD	0fffffb36H
	DD	0a6e5H
	DD	01a4H
	DD	0fffffb36H
	DD	0867fH
	DD	08e2H
	DD	0fffffb36H
	DD	098e5H
	DD	0fffffb36H
	DD	0fffffb36H
	DD	0a40eH
	DD	013aH
	DD	0fffffb36H
	DD	0183H
	DD	0daaH
	DD	0fffffb36H
	DD	0a6e5H
	DD	0fffffb36H
	DD	0a6e5H
	DD	0fffffb36H
	DD	0a6e5H
	DD	0a6e5H
	DD	098e5H
	DD	0ffffffcbH
	DD	090f3H
	DD	0c17H
	DD	0fffffb36H
	DD	090f3H
	DD	0fffffb36H
	DD	098e5H
	DD	04eH
	DD	0fffffb36H
	DD	06dH
	DD	0a6e5H
	DD	09f52H
	DD	0fffffb36H
	DD	06fH
	DD	0a6e5H
	DD	0fffffb36H
	DD	02fadH
	DD	03100H
	DD	03253H
	DD	0fffffb36H
	DD	0fffffb36H
	DD	0fffffb36H
	DD	0fffffb36H
	DD	0fffffb36H
	DD	04c6H
	DD	0fffffb36H
	DD	0fffffb36H
	DD	0fffffb36H
	DD	0a6e5H
	DD	09e2cH
	DD	0fffffb36H
	DD	055eH
	DD	0a301H
	DD	074H
	DD	0ffffff6fH
	DD	04aH
	DD	014H
	DD	06aH
	DD	012H
	DD	0fffffb36H
	DD	0a169H
	DD	0a299H
	DD	0a4feH
	DD	0a2f0H
	DD	0a428H
	DD	0fffffb36H
	DD	0fffffb36H
	DD	0fffffb36H
	DD	0fffffb36H
	DD	0fffffb36H
	DD	0fffffb36H
	DD	0fffffb36H
	DD	0fffffb36H
	DD	0fffffb36H
	DD	0fffffb36H
	DD	0fffffb36H
	DD	0fffffb36H
	DD	0fffffb36H
	DD	0fffffb36H
	DD	0fffffb36H
	DD	0fffffb36H
	DD	0fffffb36H
	DD	0fffffb36H
	DD	03cH
	DD	06eH
	DD	07aH
	DD	0fffffb36H
	DD	0fffffb36H
	DD	0fffffb36H
	DD	0fffffb36H
	DD	0a30aH
	DD	082H
	DD	08fH
	DD	08dH
	DD	0a324H
	DD	093H
	DD	099H
	DD	09aH
	DD	0a442H
	DD	09dH
	DD	0fffffb36H
	DD	0a7H
	DD	0a4H
	DD	0a33eH
	DD	0a51bH
	DD	0a538H
	DD	0fffffb36H
	DD	0fffffb36H
	DD	0274bH
	DD	0fffffb36H
	DD	098e5H
	DD	0fffffb36H
	DD	027a6H
	DD	0fffffb36H
	DD	064dH
	DD	0fffffb36H
	DD	064dH
	DD	0fffffb36H
	DD	064dH
	DD	0fffffb36H
	DD	064dH
	DD	0fffffb36H
	DD	064dH
	DD	0fffffb36H
	DD	064dH
	DD	0fffffb36H
	DD	064dH
	DD	0fffffb36H
	DD	0ffffff49H
	DD	0624H
	DD	0fffffb36H
	DD	0ffffff49H
	DD	07b0H
	DD	0fffffb36H
	DD	0bfH
	DD	0fffffb36H
	DD	0bfH
	DD	0fffffb36H
	DD	0ffffffa4H
	DD	0fffffb36H
	DD	0ffffffa4H
	DD	0fffffb36H
	DD	0ffffffa4H
	DD	0fffffb36H
	DD	0fffffb36H
	DD	0a45cH
	DD	0fffffb36H
	DD	098e5H
	DD	0fffffb36H
	DD	0fffffb36H
	DD	038f2H
	DD	0fffffb36H
	DD	0fffffb36H
	DD	01d9H
	DD	07bH
	DD	0fffffb36H
	DD	098e5H
	DD	07c7bH
	DD	055eH
	DD	0fffffb36H
	DD	0fffffb36H
	DD	0fffffb36H
	DD	033a6H
	DD	0fffffb36H
	DD	0fffffb36H
	DD	0fffffb36H
	DD	03fH
	DD	063H
	DD	0a6e5H
	DD	097H
	DD	0a065H
	DD	0fffffb36H
	DD	012eH
	DD	0ccH
	DD	0a1a4H
	DD	0fffffb36H
	DD	098e5H
	DD	0fffffb36H
	DD	0fffffb36H
	DD	0fffffb36H
	DD	0fffffb36H
	DD	098e5H
	DD	098e5H
	DD	098e5H
	DD	0fffffb36H
	DD	0a6e5H
	DD	0fffffb36H
	DD	0a6e5H
	DD	0fffffb36H
	DD	0a6e5H
	DD	098e5H
	DD	0fffffb36H
	DD	098e5H
	DD	0fffffb36H
	DD	0a6e5H
	DD	0a6e5H
	DD	0fffffb36H
	DD	0fffffb36H
	DD	0fffffb36H
	DD	0ffffffd2H
	DD	0ffffffd2H
	DD	0ffffffd2H
	DD	0ffffffd2H
	DD	0a6e5H
	DD	0867fH
	DD	0b4H
	DD	0b4H
	DD	0b4H
	DD	042H
	DD	0a6e5H
	DD	0a358H
	DD	0a277H
	DD	0a2a2H
	DD	0a6e5H
	DD	0a6e5H
	DD	0fffffb36H
	DD	0a6e5H
	DD	0867fH
	DD	0fffffb36H
	DD	0ffffffd2H
	DD	0c17H
	DD	0867fH
	DD	0fffffb36H
	DD	0fffffb36H
	DD	0fffffb36H
	DD	0fffffb36H
	DD	0fffffb36H
	DD	0a372H
	DD	077H
	DD	013c5H
	DD	01afH
	DD	0fffffb36H
	DD	0867fH
	DD	0fffffb36H
	DD	0a6e5H
	DD	0fffffb36H
	DD	0afH
	DD	0131H
	DD	0127H
	DD	0fffffb36H
	DD	0fffffb36H
	DD	02bH
	DD	02fdH
	DD	0fffffb36H
	DD	0fffffb36H
	DD	0fffffb36H
	DD	0fffffb36H
	DD	0a6e5H
	DD	0867fH
	DD	0b8H
	DD	0fffffb36H
	DD	098e5H
	DD	0fffffb36H
	DD	0bcH
	DD	01afH
	DD	0a38cH
	DD	0a3a6H
	DD	0a3c0H
	DD	0fffffb36H
	DD	0c6H
	DD	0a6e5H
	DD	0a6e5H
	DD	0a6e5H
	DD	0a555H
	DD	0fffffb36H
	DD	0c1H
	DD	0fffffb36H
	DD	0fffffb36H
	DD	0fffffb36H
	DD	0fffffb36H
	DD	0fffffb36H
	DD	0fffffb36H
	DD	0fffffb36H
	DD	0fffffb36H
	DD	0fffffb36H
	DD	0fffffb36H
	DD	0e56H
	DD	0a6e5H
	DD	0fffffb36H
	DD	0fffffb36H
	DD	0a6e5H
	DD	08a54H
	DD	0a6e5H
	DD	0fffffb36H
	DD	0fffffb36H
	DD	0fffffb36H
	DD	0a6e5H
	DD	0fffffb36H
	DD	0c5H
	DD	0a476H
	DD	098e5H
	DD	0fffffb36H
	DD	08050H
	DD	022H
	DD	049H
	DD	02128H
	DD	0fffffb36H
	DD	0227bH
	DD	09399H
	DD	0fffffb36H
	DD	0fffffb36H
	DD	08050H
	DD	0fffffb36H
	DD	0fffffb36H
	DD	0fffffb36H
	DD	0fffffb36H
	DD	0fffffb36H
	DD	0fffffb36H
	DD	032fH
	DD	01afH
	DD	0fffffb36H
	DD	0fffffb36H
	DD	0fffffb36H
	DD	0fffffb36H
	DD	0fffffb36H
	DD	0fffffb36H
	DD	0fffffb36H
	DD	0fffffb36H
	DD	0fffffb36H
	DD	0fffffb36H
	DD	0fffffb36H
	DD	0fffffb36H
	DD	0fffffb36H
	DD	0fffffb36H
	DD	0fffffb36H
	DD	0fffffb36H
	DD	0fffffb36H
	DD	0fffffb36H
	DD	0fffffb36H
	DD	0fffffb36H
	DD	0fffffef6H
	DD	055eH
	DD	0fffffb36H
	DD	0fffffb36H
	DD	0fffffb36H
	DD	0fffffb36H
	DD	0fffffb36H
	DD	0fffffb36H
	DD	0ffffffcfH
	DD	07dceH
	DD	0867fH
	DD	0fffffb36H
	DD	01c2H
	DD	0fffffb36H
	DD	0fffffb36H
	DD	0fffffb36H
	DD	0fffffb36H
	DD	01c5H
	DD	0fffffb36H
	DD	0fffffb36H
	DD	0fffffb36H
	DD	0fffffb36H
	DD	0fffffb36H
	DD	0fffffb36H
	DD	01b9H
	DD	016fH
	DD	0fffffb36H
	DD	0fffffb36H
	DD	0a27fH
	DD	01ccH
	DD	0fffffb36H
	DD	0963fH
	DD	0963fH
	DD	0fffffb36H
	DD	0fffffb36H
	DD	0fffffb36H
	DD	0fffffb36H
	DD	0fffffb36H
	DD	098e5H
	DD	01ceH
	DD	0fffffb36H
	DD	0fffffb36H
	DD	0fffffb36H
	DD	0fffffb36H
	DD	098e5H
	DD	01cfH
	DD	0fffffb36H
	DD	0fffffb36H
	DD	0fffffb36H
	DD	0fffffb36H
	DD	0fffffb36H
	DD	0fffffb36H
	DD	0fffffb36H
	DD	0fffffb36H
	DD	0fffffb36H
	DD	01c8H
	DD	0175H
	DD	0fffffb36H
	DD	0fffffb36H
	DD	0fffffb36H
	DD	01d2H
	DD	01d8H
	DD	01deH
	DD	0fffffb36H
	DD	098e5H
	DD	0e9H
	DD	0fffffb36H
	DD	0fffffb36H
	DD	0fffffb36H
	DD	034f9H
	DD	0fffffb36H
	DD	0364cH
	DD	0fffffb36H
	DD	098e5H
	DD	0fffffb36H
	DD	0fffffb36H
	DD	0fffffb36H
	DD	0fffffb36H
	DD	094ecH
	DD	0681H
	DD	0fffffb36H
	DD	098e5H
	DD	0fffffb36H
	DD	0fffffb36H
	DD	0a6cbH
	DD	0fffffb36H
	DD	0fffffb36H
	DD	0fffffb36H
	DD	0a490H
	DD	098e5H
	DD	0fffffb36H
	DD	0fffffb36H
	DD	0fffffb36H
	DD	098e5H
	DD	0fffffb36H
	DD	0a4aaH
	DD	0fffffb36H
	DD	020bH
	DD	0ffffffd5H
	DD	0fffffb36H
	DD	0fffffb36H
	DD	0fffffb36H
	DD	011aH
	DD	0fffffb36H
	DD	0fffffb36H
	DD	0fffffb36H
	DD	0fffffb36H
	DD	0fffffb36H
	DD	0fffffb36H
	DD	0fffffb36H
	DD	0fffffb36H
	DD	0a6e5H
	DD	0a6e5H
	DD	0a6e5H
	DD	0a6e5H
	DD	0a6e5H
	DD	0a6e5H
	DD	098e5H
	DD	098e5H
	DD	098e5H
	DD	098e5H
	DD	0e67H
	DD	04eH
	DD	04eH
	DD	04eH
	DD	0ffffffc5H
	DD	0fffffb36H
	DD	0fffffb36H
	DD	0ffffffc5H
	DD	098e5H
	DD	098e5H
	DD	098e5H
	DD	0efdH
	DD	098e5H
	DD	0fffffb36H
	DD	0fbaH
	DD	0b8H
	DD	098e5H
	DD	0fffffb36H
	DD	0fffffb36H
	DD	0fffffb36H
	DD	0fffffb36H
	DD	01050H
	DD	0867fH
	DD	0fffffb36H
	DD	0110dH
	DD	0eH
	DD	0fffffb36H
	DD	08H
	DD	0a6e5H
	DD	0fffffb36H
	DD	098e5H
	DD	098e5H
	DD	098e5H
	DD	080dH
	DD	0fffffb36H
	DD	0fffffb36H
	DD	0fffffb36H
	DD	0a6e5H
	DD	0fffffb36H
	DD	0ffffff21H
	DD	0fffffb36H
	DD	0fffffb36H
	DD	0a4c4H
	DD	0f0H
	DD	0f1H
	DD	0fffffb36H
	DD	0ffffffd2H
	DD	0ffffff78H
	DD	0d0H
	DD	0ffffff78H
	DD	0ffffffdeH
	DD	0fffffb36H
	DD	0a6e5H
	DD	011a3H
	DD	098e5H
	DD	098e5H
	DD	01e5H
	DD	01f1H
	DD	0fffffb36H
	DD	0fffffb36H
	DD	098e5H
	DD	09db9H
	DD	09792H
	DD	09f75H
	DD	09792H
	DD	0ffffffe5H
	DD	0a0c6H
	DD	098e5H
	DD	0a0feH
	DD	098e5H
	DD	01f3H
	DD	01f4H
	DD	098e5H
	DD	098e5H
	DD	098e5H
	DD	0a572H
	DD	0c2H
	DD	0fffffb36H
	DD	0fffffb36H
	DD	0fffffb36H
	DD	0fffffb36H
	DD	0a58fH
	DD	0a6aeH
	DD	0fbH
	DD	0fffffb36H
	DD	0f9H
	DD	0a3daH
	DD	0fffffb36H
	DD	0fffffb36H
	DD	0a6e5H
	DD	0a6e5H
	DD	0102H
	DD	0fffffb36H
	DD	0fffffb36H
	DD	098e5H
	DD	0fffffb36H
	DD	0a6e5H
	DD	0a6e5H
	DD	0a6e5H
	DD	0a6e5H
	DD	0fffffb36H
	DD	0fffffb36H
	DD	0a5acH
	DD	0a5c9H
	DD	0a5e6H
	DD	0a6e5H
	DD	0fffffb36H
	DD	0a603H
	DD	01260H
	DD	0fffffb36H
	DD	0fffffb36H
	DD	0166bH
	DD	0ffffff28H
	DD	0fffffb36H
	DD	038H
	DD	0fffffb36H
	DD	0a620H
	DD	0a63dH
	DD	0a65aH
	DD	0fffffb36H
	DD	0104H
	DD	090f3H
	DD	0fffffb36H
	DD	08050H
	DD	0fffffb36H
	DD	0fffffb36H
	DD	0fffffb36H
	DD	098e5H
	DD	0ffffff99H
	DD	0fffffb36H
	DD	0ffffff22H
	DD	098e5H
	DD	0a6e5H
	DD	0a6e5H
	DD	098e5H
	DD	098e5H
	DD	0a6e5H
	DD	098e5H
	DD	0a11bH
	DD	098e5H
	DD	0a136H
	DD	098e5H
	DD	098e5H
	DD	0a6e5H
	DD	098e5H
	DD	0a6e5H
	DD	098e5H
	DD	098e5H
	DD	0a6e5H
	DD	0a6e5H
	DD	0a6e5H
	DD	0fffffb36H
	DD	0fffffb36H
	DD	0fffffb36H
	DD	0fffffb36H
	DD	0fffffb36H
	DD	0ffH
	DD	0fffffb36H
	DD	098e5H
	DD	098e5H
	DD	0217H
	DD	0a677H
	DD	0fffffb36H
	DD	0fffffb36H
	DD	0fffffb36H
	DD	0ffffff28H
	DD	0fffffb36H
	DD	0fffffb36H
	DD	0fffffb36H
	DD	0fffffb36H
	DD	0fffffb36H
	DD	0fffffb36H
	DD	0fffffb36H
	DD	0fffffb36H
	DD	0fffffb36H
	DD	0fffffb36H
	DD	0fffffb36H
	DD	0fffffb36H
	DD	0fffffb36H
	DD	0fffffb36H
	DD	0fffffb36H
	DD	0fffffb36H
	DD	01518H
	DD	0fffffb36H
	DD	0fffffb36H
	DD	0fffffb36H
	DD	0b02H
	DD	0fffffb36H
	DD	0103H
	DD	0a6e5H
	DD	098e5H
	DD	0fffffb36H
	DD	0a694H
	DD	0a6e5H
	DD	0a6e5H
	DD	0a6e5H
	DD	098e5H
	DD	0a6e5H
	DD	098e5H
	DD	0a6e5H
	DD	0a6e5H
	DD	0a6e5H
	DD	0a6e5H
	DD	0a6e5H
	DD	0fffffb36H
	DD	0a3f4H
	DD	0274bH
	DD	0fffffb36H
	DD	0fffffb36H
	DD	0fffffb36H
	DD	0fffffb36H
	DD	0fffffb36H
	DD	0fffffb36H
	DD	0105H
	DD	0fffffb36H
	DD	0a6e5H
	DD	0fffffb36H
	DD	0a6e5H
	DD	0a6e5H
	DD	0c17H
	DD	0fffffb36H
	DD	0107H
	DD	0fffffb36H
_yypgoto DW	0fb36H
	DW	0fb36H
	DW	0fb36H
	DW	0fb36H
	DW	0ff1aH
	DW	0ff44H
	DW	0ff8cH
	DW	0fb37H
	DW	0fb36H
	DW	0fb36H
	DW	0fdd7H
	DW	0115H
	DW	0fb36H
	DW	0fb36H
	DW	0fb36H
	DW	0fb36H
	DW	0fb36H
	DW	0fb36H
	DW	0fb36H
	DW	0fb36H
	DW	0fb36H
	DW	0fb36H
	DW	0fb36H
	DW	0fb36H
	DW	0fb36H
	DW	0fb36H
	DW	0fb36H
	DW	0fb36H
	DW	0fb36H
	DW	0fb36H
	DW	033H
	DW	0fffcH
	DW	0fdfaH
	DW	0fcf3H
	DW	0fd9bH
	DW	0fb36H
	DW	0fd0cH
	DW	0fb36H
	DW	0fb36H
	DW	0fb36H
	DW	0fb36H
	DW	0fb36H
	DW	0fb36H
	DW	0ff84H
	DW	0fcd8H
	DW	0fb36H
	DW	0cdH
	DW	0fb36H
	DW	0fd11H
	DW	0fb36H
	DW	0fb36H
	DW	0fb36H
	DW	0fb36H
	DW	0fb36H
	DW	0fb36H
	DW	0fb36H
	DW	0fb36H
	DW	0fb36H
	DW	0fb36H
	DW	0fb36H
	DW	0fb36H
	DW	0fb36H
	DW	0fb36H
	DW	0fe90H
	DW	0fb36H
	DW	0fb36H
	DW	0fb36H
	DW	0fea2H
	DW	0fb36H
	DW	0fb36H
	DW	0fb36H
	DW	0fb36H
	DW	0fb36H
	DW	0fb36H
	DW	0fb36H
	DW	0fddfH
	DW	0fb36H
	DW	0ff9aH
	DW	0fb36H
	DW	09H
	DW	081H
	DW	0fed0H
	DW	0ff8dH
	DW	0fb36H
	DW	04bcH
	DW	0fb36H
	DW	0fb36H
	DW	0ff47H
	DW	0ff8aH
	DW	0fb36H
	DW	0fb36H
	DW	0fb36H
	DW	0fb36H
	DW	0fb36H
	DW	0fb36H
	DW	0fb36H
	DW	0fb36H
	DW	0fb36H
	DW	0fb36H
	DW	0fb36H
	DW	0fb36H
	DW	0fb36H
	DW	0fd0fH
	DW	0fb36H
	DW	0ff3dH
	DW	0fb36H
	DW	0fb36H
	DW	0fb36H
	DW	0fb36H
	DW	0fb36H
	DW	0fb36H
	DW	0fb36H
	DW	0fb36H
	DW	0fb36H
	ORG $+4
_yytable DW	079H
	DW	03afH
	DW	03b0H
	DW	0241H
	DW	01b0H
	DW	03b1H
	DW	033fH
	DW	01a5H
	DW	01afH
	DW	0516H
	DW	0341H
	DW	0401H
	DW	0342H
	DW	0152H
	DW	0148H
	DW	0512H
	DW	01c3H
	DW	014fH
	DW	015dH
	DW	01bfH
	DW	0227H
	DW	01c8H
	DW	0157H
	DW	0297H
	DW	01aeH
	DW	0435H
	DW	028aH
	DW	0161H
	DW	031eH
	DW	031fH
	DW	016eH
	DW	0163H
	DW	0165H
	DW	0431H
	DW	0435H
	DW	0298H
	DW	01caH
	DW	02c3H
	DW	0338H
	DW	01f8H
	DW	028bH
	DW	0532H
	DW	02fbH
	DW	0ff93H
	DW	025cH
	DW	044aH
	DW	015bH
	DW	0201H
	DW	0167H
	DW	015cH
	DW	037dH
	DW	0432H
	DW	0fc7aH
	DW	03a8H
	DW	018aH
	DW	02a8H
	DW	013cH
	DW	055aH
	DW	0169H
	DW	016cH
	DW	0170H
	DW	0fe7bH
	DW	025bH
	DW	02e5H
	DW	0491H
	DW	0172H
	DW	03c1H
	DW	0279H
	DW	03bcH
	DW	020fH
	DW	0175H
	DW	0188H
	DW	0177H
	DW	0179H
	DW	0228H
	DW	02e1H
	DW	0558H
	DW	02e4H
	DW	03c2H
	DW	04a9H
	DW	02ecH
	DW	02edH
	DW	023fH
	DW	0228H
	DW	01a1H
	DW	0288H
	DW	0435H
	DW	042eH
	DW	03a9H
	DW	0fc78H
	DW	0387H
	DW	03d2H
	DW	051eH
	DW	03d5H
	DW	0214H
	DW	04aaH
	DW	0375H
	DW	0388H
	DW	051fH
	DW	01d9H
	DW	0493H
	DW	0557H
	DW	0260H
	DW	0fc35H
	DW	0125H
	DW	042fH
	DW	027cH
	DW	017cH
	DW	027dH
	DW	017eH
	DW	0181H
	DW	0184H
	DW	0187H
	DW	014eH
	DW	0285H
	DW	018dH
	DW	02abH
	DW	025cH
	DW	01a2H
	DW	0151H
	DW	04b6H
	DW	02f5H
	DW	02b3H
	DW	02f7H
	DW	02faH
	DW	02b5H
	DW	02b7H
	DW	02bdH
	DW	02cdH
	DW	0558H
	DW	027aH
	DW	02a5H
	DW	0148H
	DW	0564H
	DW	0149H
	DW	04a6H
	DW	04a7H
	DW	04a8H
	DW	0228H
	DW	01d7H
	DW	0228H
	DW	01H
	DW	02H
	DW	025dH
	DW	01dH
	DW	01eH
	DW	01fH
	DW	020H
	DW	0289H
	DW	0389H
	DW	0fffeH
	DW	0189H
	DW	06H
	DW	01fbH
	DW	0155H
	DW	0174H
	DW	01dbH
	DW	01ffH
	DW	027H
	DW	025cH
	DW	0154H
	DW	01dcH
	DW	01b6H
	DW	01b7H
	DW	025cH
	DW	019bH
	DW	019cH
	DW	019dH
	DW	019eH
	DW	0212H
	DW	019fH
	DW	01a0H
	DW	0217H
	DW	01a6H
	DW	013cH
	DW	021dH
	DW	0220H
	DW	01a7H
	DW	0224H
	DW	0226H
	DW	0ffe9H
	DW	022dH
	DW	01a1H
	DW	01ddH
	DW	01f9H
	DW	0230H
	DW	0203H
	DW	02fcH
	DW	0494H
	DW	0495H
	DW	0235H
	DW	023bH
	DW	023dH
	DW	0242H
	DW	02f6H
	DW	0248H
	DW	0262H
	DW	0244H
	DW	0247H
	DW	0287H
	DW	024aH
	DW	01c4H
	DW	024dH
	DW	024fH
	DW	0251H
	DW	0228H
	DW	01a1H
	DW	0433H
	DW	04b7H
	DW	04b8H
	DW	013eH
	DW	0228H
	DW	018bH
	DW	0229H
	DW	025fH
	DW	0375H
	DW	025dH
	DW	0436H
	DW	0277H
	DW	029bH
	DW	02d6H
	DW	01cbH
	DW	0229H
	DW	02c4H
	DW	027eH
	DW	0280H
	DW	0282H
	DW	01aeH
	DW	022aH
	DW	0318H
	DW	0318H
	DW	0318H
	DW	028dH
	DW	0290H
	DW	0292H
	DW	0296H
	DW	02b9H
	DW	022aH
	DW	029dH
	DW	0326H
	DW	02d7H
	DW	0ff93H
	DW	02a4H
	DW	0ffadH
	DW	0236H
	DW	02e3H
	DW	02c5H
	DW	0306H
	DW	0307H
	DW	0492H
	DW	0308H
	DW	02aaH
	DW	0149H
	DW	0237H
	DW	0316H
	DW	0339H
	DW	053dH
	DW	033aH
	DW	025dH
	DW	0fe7bH
	DW	02e6H
	DW	0430H
	DW	01a0H
	DW	025dH
	DW	01c5H
	DW	0375H
	DW	02bbH
	DW	0345H
	DW	04cbH
	DW	037fH
	DW	03aaH
	DW	03abH
	DW	0503H
	DW	02c2H
	DW	0fe7bH
	DW	03c3H
	DW	0376H
	DW	0229H
	DW	02c8H
	DW	0229H
	DW	02cbH
	DW	0528H
	DW	0380H
	DW	02d0H
	DW	02d2H
	DW	03bdH
	DW	0383H
	DW	0384H
	DW	0299H
	DW	01dfH
	DW	038dH
	DW	01a1H
	DW	022aH
	DW	03acH
	DW	022aH
	DW	0ff93H
	DW	02d8H
	DW	02e0H
	DW	01e0H
	DW	0fe7bH
	DW	0fe46H
	DW	0fe7bH
	DW	02c6H
	DW	03a0H
	DW	0fe7bH
	DW	02e9H
	DW	03a6H
	DW	02a7H
	DW	02efH
	DW	02f1H
	DW	02f3H
	DW	02f4H
	DW	0327H
	DW	0fe7bH
	DW	0148H
	DW	0ffe9H
	DW	0148H
	DW	0300H
	DW	0304H
	DW	0148H
	DW	0148H
	DW	03c8H
	DW	0312H
	DW	0517H
	DW	03a7H
	DW	01a2H
	DW	053eH
	DW	053fH
	DW	013eH
	DW	03b2H
	DW	0153H
	DW	0518H
	DW	0320H
	DW	0321H
	DW	03dfH
	DW	0322H
	DW	01a7H
	DW	0513H
	DW	0150H
	DW	015eH
	DW	031aH
	DW	031aH
	DW	031aH
	DW	04e0H
	DW	0229H
	DW	0ffd3H
	DW	02d8H
	DW	016fH
	DW	0162H
	DW	03c6H
	DW	0229H
	DW	01ccH
	DW	0164H
	DW	0166H
	DW	0340H
	DW	01c6H
	DW	013cH
	DW	03c7H
	DW	013cH
	DW	022aH
	DW	01cdH
	DW	013cH
	DW	013cH
	DW	0344H
	DW	0ff93H
	DW	022aH
	DW	0ff93H
	DW	037eH
	DW	03a3H
	DW	0168H
	DW	0349H
	DW	0ff93H
	DW	034aH
	DW	03cbH
	DW	034bH
	DW	01ceH
	DW	03eaH
	DW	04abH
	DW	0fe7bH
	DW	016aH
	DW	016dH
	DW	0171H
	DW	0fe7bH
	DW	046eH
	DW	0fe7bH
	DW	03e0H
	DW	0173H
	DW	0fe7bH
	DW	02d8H
	DW	0fe7bH
	DW	01cfH
	DW	0176H
	DW	0ffe9H
	DW	0178H
	DW	017aH
	DW	034eH
	DW	0404H
	DW	0352H
	DW	0354H
	DW	0356H
	DW	0358H
	DW	035aH
	DW	035cH
	DW	035eH
	DW	0360H
	DW	0362H
	DW	0365H
	DW	0368H
	DW	036aH
	DW	036cH
	DW	036eH
	DW	0370H
	DW	0372H
	DW	0373H
	DW	03d0H
	DW	0215H
	DW	03d4H
	DW	0ffe9H
	DW	037bH
	DW	0ffe9H
	DW	0ffd1H
	DW	02d8H
	DW	0ffe9H
	DW	0261H
	DW	0411H
	DW	0413H
	DW	0415H
	DW	0fcb8H
	DW	01e1H
	DW	0fcb7H
	DW	0405H
	DW	0ffe9H
	DW	040eH
	DW	046fH
	DW	0149H
	DW	0286H
	DW	0149H
	DW	02acH
	DW	042dH
	DW	0149H
	DW	0149H
	DW	0ffadH
	DW	048aH
	DW	02b4H
	DW	0496H
	DW	0470H
	DW	02b6H
	DW	02b8H
	DW	02beH
	DW	02ceH
	DW	02f8H
	DW	0fcafH
	DW	02b0H
	DW	0472H
	DW	0fda9H
	DW	0313H
	DW	0ffadH
	DW	038aH
	DW	0473H
	DW	0391H
	DW	031bH
	DW	031bH
	DW	031bH
	DW	038cH
	DW	0474H
	DW	0fda9H
	DW	0fda9H
	DW	0fda9H
	DW	0fda9H
	DW	0390H
	DW	0476H
	DW	039bH
	DW	039dH
	DW	039fH
	DW	0488H
	DW	047aH
	DW	0477H
	DW	0478H
	DW	0fcb1H
	DW	0fda9H
	DW	03a4H
	DW	0ffadH
	DW	047bH
	DW	0ffadH
	DW	03a5H
	DW	0417H
	DW	0ffadH
	DW	047cH
	DW	0498H
	DW	0fcb1H
	DW	0fcb1H
	DW	0fcb1H
	DW	0fcb1H
	DW	0ffdaH
	DW	0392H
	DW	0ffadH
	DW	0ffe9H
	DW	0499H
	DW	02fcH
	DW	0435H
	DW	0149H
	DW	0149H
	DW	04bbH
	DW	0fcb1H
	DW	04bcH
	DW	0ffe9H
	DW	04beH
	DW	03adH
	DW	02d9H
	DW	03f6H
	DW	013eH
	DW	04c2H
	DW	013eH
	DW	04c6H
	DW	04c8H
	DW	013eH
	DW	013eH
	DW	04cdH
	DW	04dbH
	DW	0fda9H
	DW	0393H
	DW	04dcH
	DW	04ddH
	DW	0318H
	DW	0501H
	DW	03b3H
	DW	04deH
	DW	0ffe9H
	DW	04e1H
	DW	03b4H
	DW	04e8H
	DW	04eaH
	DW	04ecH
	DW	02daH
	DW	04edH
	DW	02dbH
	DW	03b5H
	DW	04ebH
	DW	02dcH
	DW	03b6H
	DW	04eeH
	DW	019dH
	DW	019eH
	DW	0fcb1H
	DW	019fH
	DW	01a0H
	DW	04efH
	DW	0149H
	DW	0504H
	DW	04f1H
	DW	0490H
	DW	03b7H
	DW	0ffe9H
	DW	052bH
	DW	0ffe9H
	DW	03b8H
	DW	01a8H
	DW	0ffe9H
	DW	02d9H
	DW	0560H
	DW	0ffadH
	DW	0522H
	DW	0523H
	DW	0526H
	DW	0ffadH
	DW	052cH
	DW	0ffadH
	DW	0537H
	DW	0538H
	DW	0ffadH
	DW	0541H
	DW	0ffadH
	DW	0542H
	DW	03baH
	DW	0545H
	DW	055fH
	DW	0347H
	DW	0348H
	DW	0571H
	DW	0574H
	DW	057bH
	DW	040dH
	DW	02e2H
	DW	02daH
	DW	0581H
	DW	02dbH
	DW	0583H
	DW	0318H
	DW	02dcH
	DW	0229H
	DW	0578H
	DW	050fH
	DW	048eH
	DW	01dH
	DW	01eH
	DW	01fH
	DW	020H
	DW	0ffd3H
	DW	0576H
	DW	04b9H
	DW	02d9H
	DW	04f8H
	DW	0416H
	DW	00H
	DW	022aH
	DW	03c5H
	DW	00H
	DW	027H
	DW	00H
	DW	03ebH
	DW	00H
	DW	00H
	DW	02ddH
	DW	00H
	DW	0363H
	DW	0366H
	DW	00H
	DW	00H
	DW	00H
	DW	02f9H
	DW	01aaH
	DW	02deH
	DW	00H
	DW	0374H
	DW	00H
	DW	02daH
	DW	00H
	DW	02dbH
	DW	00H
	DW	03ccH
	DW	02dcH
	DW	00H
	DW	00H
	DW	02d9H
	DW	031aH
	DW	00H
	DW	00H
	DW	0ffe9H
	DW	00H
	DW	00H
	DW	0ffe9H
	DW	0394H
	DW	0395H
	DW	0396H
	DW	00H
	DW	00H
	DW	00H
	DW	03d9H
	DW	00H
	DW	0fcafH
	DW	00H
	DW	00H
	DW	00H
	DW	0148H
	DW	00H
	DW	0148H
	DW	00H
	DW	00H
	DW	02daH
	DW	00H
	DW	02dbH
	DW	00H
	DW	02ddH
	DW	02dcH
	DW	0fcafH
	DW	00H
	DW	0ffd3H
	DW	00H
	DW	00H
	DW	01afH
	DW	00H
	DW	02deH
	DW	0ffd1H
	DW	00H
	DW	00H
	DW	0509H
	DW	0397H
	DW	0398H
	DW	050aH
	DW	00H
	DW	00H
	DW	00H
	DW	00H
	DW	00H
	DW	00H
	DW	01aeH
	DW	00H
	DW	0318H
	DW	03e1H
	DW	0fcafH
	DW	03e2H
	DW	0fcafH
	DW	03e3H
	DW	0434H
	DW	0fcafH
	DW	013cH
	DW	0514H
	DW	013cH
	DW	031aH
	DW	0399H
	DW	00H
	DW	00H
	DW	00H
	DW	0fcafH
	DW	03e6H
	DW	03e7H
	DW	03e8H
	DW	00H
	DW	00H
	DW	0fda9H
	DW	03f9H
	DW	00H
	DW	04a5H
	DW	02deH
	DW	03e9H
	DW	0199H
	DW	019aH
	DW	019bH
	DW	019cH
	DW	019dH
	DW	019eH
	DW	00H
	DW	019fH
	DW	01a0H
	DW	00H
	DW	04b0H
	DW	00H
	DW	00H
	DW	00H
	DW	04b3H
	DW	00H
	DW	00H
	DW	00H
	DW	0fcb1H
	DW	0148H
	DW	00H
	DW	00H
	DW	02ddH
	DW	03f7H
	DW	00H
	DW	04baH
	DW	0ffd1H
	DW	04a1H
	DW	04a2H
	DW	04a3H
	DW	04a4H
	DW	02deH
	DW	00H
	DW	0148H
	DW	0ffaaH
	DW	0238H
	DW	00H
	DW	00H
	DW	03faH
	DW	031bH
	DW	03fcH
	DW	04bdH
	DW	00H
	DW	0400H
	DW	0239H
	DW	0403H
	DW	00H
	DW	04b1H
	DW	00H
	DW	00H
	DW	04d7H
	DW	02d8H
	DW	00H
	DW	0fcafH
	DW	00H
	DW	00H
	DW	00H
	DW	0fcafH
	DW	0149H
	DW	0fcafH
	DW	0149H
	DW	013cH
	DW	0fcafH
	DW	00H
	DW	0fcafH
	DW	00H
	DW	00H
	DW	00H
	DW	00H
	DW	01b4H
	DW	055bH
	DW	00H
	DW	04f3H
	DW	00H
	DW	04f5H
	DW	013cH
	DW	00H
	DW	0fdcfH
	DW	00H
	DW	0318H
	DW	00H
	DW	00H
	DW	00H
	DW	031aH
	DW	00H
	DW	00H
	DW	00H
	DW	018fH
	DW	0190H
	DW	0fe18H
	DW	0191H
	DW	0192H
	DW	00H
	DW	0193H
	DW	0194H
	DW	0195H
	DW	0196H
	DW	0197H
	DW	0198H
	DW	00H
	DW	0fdf8H
	DW	0fdf8H
	DW	01b5H
	DW	031bH
	DW	0199H
	DW	019aH
	DW	019bH
	DW	019cH
	DW	019dH
	DW	019eH
	DW	00H
	DW	019fH
	DW	01a0H
	DW	00H
	DW	00H
	DW	0489H
	DW	0149H
	DW	00H
	DW	00H
	DW	01d8H
	DW	00H
	DW	00H
	DW	00H
	DW	00H
	DW	00H
	DW	00H
	DW	00H
	DW	0502H
	DW	00H
	DW	0480H
	DW	00H
	DW	00H
	DW	00H
	DW	04daH
	DW	013eH
	DW	00H
	DW	013eH
	DW	018fH
	DW	0190H
	DW	0149H
	DW	0191H
	DW	0192H
	DW	00H
	DW	0193H
	DW	0194H
	DW	0195H
	DW	0196H
	DW	0197H
	DW	0198H
	DW	00H
	DW	00H
	DW	01adH
	DW	00H
	DW	0149H
	DW	0199H
	DW	019aH
	DW	019bH
	DW	019cH
	DW	019dH
	DW	019eH
	DW	00H
	DW	019fH
	DW	01a0H
	DW	00H
	DW	00H
	DW	00H
	DW	0484H
	DW	00H
	DW	00H
	DW	0157H
	DW	00H
	DW	01d9H
	DW	00H
	DW	00H
	DW	01b8H
	DW	048bH
	DW	048dH
	DW	00H
	DW	00H
	DW	00H
	DW	00H
	DW	00H
	DW	00H
	DW	0149H
	DW	01efH
	DW	00H
	DW	00H
	DW	01daH
	DW	00H
	DW	00H
	DW	031aH
	DW	01b9H
	DW	03e5H
	DW	00H
	DW	00H
	DW	049bH
	DW	0fe17H
	DW	00H
	DW	00H
	DW	04d0H
	DW	049cH
	DW	049dH
	DW	049eH
	DW	031bH
	DW	00H
	DW	00H
	DW	02a5H
	DW	01b0H
	DW	04d1H
	DW	049fH
	DW	0fdb1H
	DW	04a0H
	DW	00H
	DW	00H
	DW	00H
	DW	013eH
	DW	00H
	DW	00H
	DW	01baH
	DW	00H
	DW	00H
	DW	0fdb1H
	DW	0fdb1H
	DW	0fdb1H
	DW	0fdb1H
	DW	0335H
	DW	01bbH
	DW	00H
	DW	01dbH
	DW	013eH
	DW	00H
	DW	00H
	DW	0ffaaH
	DW	01dcH
	DW	00H
	DW	0fdb1H
	DW	0148H
	DW	01bcH
	DW	00H
	DW	00H
	DW	00H
	DW	00H
	DW	00H
	DW	01bdH
	DW	00H
	DW	01f0H
	DW	00H
	DW	0ffaaH
	DW	00H
	DW	0148H
	DW	00H
	DW	00H
	DW	0318H
	DW	0148H
	DW	00H
	DW	01ddH
	DW	00H
	DW	01beH
	DW	00H
	DW	013eH
	DW	04e3H
	DW	04e5H
	DW	00H
	DW	02d9H
	DW	0148H
	DW	01deH
	DW	0511H
	DW	00H
	DW	00H
	DW	00H
	DW	04c1H
	DW	0fda5H
	DW	0ffaaH
	DW	00H
	DW	0ffaaH
	DW	0fdb1H
	DW	00H
	DW	0ffaaH
	DW	013cH
	DW	00H
	DW	0148H
	DW	00H
	DW	0fda5H
	DW	0fda5H
	DW	0fda5H
	DW	0fda5H
	DW	0ffaaH
	DW	00H
	DW	02daH
	DW	00H
	DW	02dbH
	DW	013cH
	DW	00H
	DW	02dcH
	DW	00H
	DW	013cH
	DW	0fda5H
	DW	00H
	DW	0fdf8H
	DW	00H
	DW	04caH
	DW	00H
	DW	0fe18H
	DW	00H
	DW	00H
	DW	00H
	DW	013cH
	DW	00H
	DW	00H
	DW	04cfH
	DW	031bH
	DW	00H
	DW	00H
	DW	0fdf8H
	DW	0277H
	DW	00H
	DW	0296H
	DW	02a4H
	DW	00H
	DW	00H
	DW	00H
	DW	00H
	DW	013cH
	DW	00H
	DW	0148H
	DW	0524H
	DW	00H
	DW	0fe18H
	DW	00H
	DW	0fe18H
	DW	00H
	DW	00H
	DW	0fe18H
	DW	0148H
	DW	00H
	DW	00H
	DW	0fda5H
	DW	00H
	DW	0fdf8H
	DW	00H
	DW	0fdf8H
	DW	0fe18H
	DW	00H
	DW	0fdf8H
	DW	00H
	DW	00H
	DW	00H
	DW	00H
	DW	00H
	DW	00H
	DW	00H
	DW	0ffaaH
	DW	0fdf8H
	DW	00H
	DW	00H
	DW	0ffaaH
	DW	0149H
	DW	0ffaaH
	DW	04d9H
	DW	0336H
	DW	0ffaaH
	DW	01dfH
	DW	0ffaaH
	DW	031aH
	DW	00H
	DW	01f1H
	DW	013cH
	DW	02ddH
	DW	00H
	DW	0149H
	DW	01e0H
	DW	00H
	DW	0148H
	DW	0149H
	DW	00H
	DW	013cH
	DW	02deH
	DW	00H
	DW	00H
	DW	00H
	DW	04e2H
	DW	04e4H
	DW	00H
	DW	00H
	DW	0149H
	DW	00H
	DW	00H
	DW	04e7H
	DW	00H
	DW	00H
	DW	00H
	DW	0fda3H
	DW	00H
	DW	04e9H
	DW	00H
	DW	00H
	DW	00H
	DW	0525H
	DW	00H
	DW	0527H
	DW	0149H
	DW	00H
	DW	0fda3H
	DW	0fda3H
	DW	0fda3H
	DW	0fda3H
	DW	0fe18H
	DW	0563H
	DW	00H
	DW	0fe17H
	DW	0fe18H
	DW	00H
	DW	0fe18H
	DW	04f0H
	DW	013cH
	DW	0fe18H
	DW	0fda3H
	DW	0fdf8H
	DW	01a1H
	DW	00H
	DW	00H
	DW	0fdf8H
	DW	04f6H
	DW	0fdf8H
	DW	00H
	DW	00H
	DW	0fdf8H
	DW	04f7H
	DW	0fdf8H
	DW	00H
	DW	04fbH
	DW	00H
	DW	013eH
	DW	00H
	DW	0fe17H
	DW	00H
	DW	0fe17H
	DW	00H
	DW	04feH
	DW	0fe17H
	DW	00H
	DW	00H
	DW	04ffH
	DW	00H
	DW	0149H
	DW	013eH
	DW	00H
	DW	00H
	DW	0fe17H
	DW	013eH
	DW	00H
	DW	00H
	DW	00H
	DW	0149H
	DW	00H
	DW	00H
	DW	0fda3H
	DW	00H
	DW	00H
	DW	01d2H
	DW	013eH
	DW	00H
	DW	00H
	DW	00H
	DW	00H
	DW	0fdb1H
	DW	0505H
	DW	0506H
	DW	0507H
	DW	0508H
	DW	00H
	DW	00H
	DW	00H
	DW	00H
	DW	00H
	DW	00H
	DW	013eH
	DW	00H
	DW	050bH
	DW	050cH
	DW	050dH
	DW	0561H
	DW	050eH
	DW	031bH
	DW	00H
	DW	0fc58H
	DW	0510H
	DW	00H
	DW	00H
	DW	00H
	DW	00H
	DW	00H
	DW	0149H
	DW	00H
	DW	00H
	DW	00H
	DW	0fc58H
	DW	0fc58H
	DW	0fc58H
	DW	0fc58H
	DW	0519H
	DW	051aH
	DW	051bH
	DW	00H
	DW	00H
	DW	0148H
	DW	00H
	DW	0fdfcH
	DW	0161H
	DW	00H
	DW	0fc58H
	DW	00H
	DW	00H
	DW	0fe17H
	DW	00H
	DW	0ff85H
	DW	01fcH
	DW	0fe17H
	DW	00H
	DW	0fe17H
	DW	013eH
	DW	00H
	DW	0fe17H
	DW	01d3H
	DW	0529H
	DW	052aH
	DW	0fda5H
	DW	00H
	DW	00H
	DW	013eH
	DW	052dH
	DW	00H
	DW	052fH
	DW	01f2H
	DW	0531H
	DW	00H
	DW	01b4H
	DW	0534H
	DW	00H
	DW	0536H
	DW	00H
	DW	0346H
	DW	0539H
	DW	053aH
	DW	053bH
	DW	00H
	DW	00H
	DW	013cH
	DW	00H
	DW	00H
	DW	0fc58H
	DW	00H
	DW	00H
	DW	00H
	DW	00H
	DW	00H
	DW	00H
	DW	00H
	DW	00H
	DW	0fd95H
	DW	00H
	DW	0149H
	DW	00H
	DW	01f3H
	DW	0546H
	DW	00H
	DW	00H
	DW	015H
	DW	013eH
	DW	01b5H
	DW	0fd95H
	DW	0fd95H
	DW	0fd95H
	DW	0fd95H
	DW	00H
	DW	00H
	DW	00H
	DW	00H
	DW	01dH
	DW	01eH
	DW	01fH
	DW	020H
	DW	00H
	DW	00H
	DW	0fd95H
	DW	00H
	DW	00H
	DW	00H
	DW	00H
	DW	00H
	DW	04e6H
	DW	04caH
	DW	027H
	DW	00H
	DW	00H
	DW	00H
	DW	00H
	DW	0562H
	DW	00H
	DW	00H
	DW	00H
	DW	0565H
	DW	00H
	DW	00H
	DW	0566H
	DW	0567H
	DW	0148H
	DW	0568H
	DW	00H
	DW	056aH
	DW	00H
	DW	056cH
	DW	056dH
	DW	01f4H
	DW	056eH
	DW	00H
	DW	056fH
	DW	0570H
	DW	00H
	DW	00H
	DW	00H
	DW	00H
	DW	00H
	DW	00H
	DW	0fd95H
	DW	0149H
	DW	00H
	DW	00H
	DW	0572H
	DW	0573H
	DW	00H
	DW	01c1H
	DW	033H
	DW	01c9H
	DW	00H
	DW	00H
	DW	0149H
	DW	04faH
	DW	01d1H
	DW	00H
	DW	00H
	DW	01b8H
	DW	00H
	DW	00H
	DW	00H
	DW	00H
	DW	0fda3H
	DW	00H
	DW	013cH
	DW	00H
	DW	00H
	DW	037H
	DW	00H
	DW	00H
	DW	00H
	DW	00H
	DW	00H
	DW	01fdH
	DW	01b9H
	DW	0202H
	DW	057cH
	DW	00H
	DW	00H
	DW	00H
	DW	0205H
	DW	00H
	DW	057eH
	DW	00H
	DW	057fH
	DW	00H
	DW	00H
	DW	00H
	DW	00H
	DW	00H
	DW	00H
	DW	021aH
	DW	00H
	DW	00H
	DW	0222H
	DW	00H
	DW	00H
	DW	00H
	DW	00H
	DW	00H
	DW	00H
	DW	01baH
	DW	015H
	DW	0232H
	DW	0234H
	DW	00H
	DW	00H
	DW	0323H
	DW	00H
	DW	01bbH
	DW	0240H
	DW	00H
	DW	00H
	DW	01dH
	DW	01eH
	DW	01fH
	DW	020H
	DW	013eH
	DW	00H
	DW	00H
	DW	01bcH
	DW	0fdfcH
	DW	0254H
	DW	0256H
	DW	0258H
	DW	025aH
	DW	01bdH
	DW	027H
	DW	051dH
	DW	0ff85H
	DW	00H
	DW	00H
	DW	00H
	DW	04aH
	DW	0273H
	DW	0324H
	DW	0fdfcH
	DW	00H
	DW	01d4H
	DW	00H
	DW	01beH
	DW	00H
	DW	0149H
	DW	00H
	DW	0ff85H
	DW	00H
	DW	00H
	DW	00H
	DW	00H
	DW	028eH
	DW	00H
	DW	0293H
	DW	03e4H
	DW	00H
	DW	00H
	DW	029eH
	DW	0fc58H
	DW	00H
	DW	00H
	DW	00H
	DW	00H
	DW	0fdfcH
	DW	00H
	DW	0fdfcH
	DW	00H
	DW	00H
	DW	0fdfcH
	DW	033H
	DW	0325H
	DW	0ff85H
	DW	01f5H
	DW	0ff85H
	DW	00H
	DW	01d5H
	DW	0ff85H
	DW	0fdfcH
	DW	00H
	DW	00H
	DW	015H
	DW	00H
	DW	00H
	DW	00H
	DW	00H
	DW	0ff85H
	DW	00H
	DW	0218H
	DW	02c0H
	DW	00H
	DW	00H
	DW	01dH
	DW	01eH
	DW	01fH
	DW	020H
	DW	00H
	DW	00H
	DW	02c9H
	DW	0fd94H
	DW	02ccH
	DW	00H
	DW	00H
	DW	01f6H
	DW	0ffb2H
	DW	01b2H
	DW	027H
	DW	00H
	DW	0149H
	DW	00H
	DW	0fd94H
	DW	0fd94H
	DW	0fd94H
	DW	0fd94H
	DW	0fd9dH
	DW	00H
	DW	00H
	DW	00H
	DW	00H
	DW	00H
	DW	00H
	DW	013eH
	DW	00H
	DW	00H
	DW	0fd94H
	DW	0fd9dH
	DW	0fd9dH
	DW	0fd9dH
	DW	0fd9dH
	DW	02f2H
	DW	00H
	DW	00H
	DW	00H
	DW	0fd95H
	DW	00H
	DW	00H
	DW	00H
	DW	0302H
	DW	0305H
	DW	0fd9dH
	DW	00H
	DW	067H
	DW	0314H
	DW	0fdfcH
	DW	00H
	DW	00H
	DW	033H
	DW	0fdfcH
	DW	0162H
	DW	0fdfcH
	DW	00H
	DW	0ff85H
	DW	0fdfcH
	DW	01f7H
	DW	0fdfcH
	DW	0ff85H
	DW	00H
	DW	0ff85H
	DW	00H
	DW	0326H
	DW	0ff85H
	DW	00H
	DW	0ff85H
	DW	00H
	DW	0fd94H
	DW	037H
	DW	0337H
	DW	00H
	DW	00H
	DW	00H
	DW	06eH
	DW	00H
	DW	00H
	DW	00H
	DW	00H
	DW	00H
	DW	0fe5fH
	DW	0481H
	DW	00H
	DW	0fd9dH
	DW	00H
	DW	0343H
	DW	00H
	DW	00H
	DW	057aH
	DW	0fe5fH
	DW	0fe5fH
	DW	0fe5fH
	DW	0fe5fH
	DW	0fe5fH
	DW	00H
	DW	0fe5fH
	DW	0fe5fH
	DW	00H
	DW	0fe5fH
	DW	0fe5fH
	DW	0fe5fH
	DW	00H
	DW	00H
	DW	0fe5fH
	DW	0fe5fH
	DW	0fe5fH
	DW	0fe5fH
	DW	0fe5fH
	DW	0fe5fH
	DW	0fe5fH
	DW	0fe5fH
	DW	0fe5fH
	DW	0fe5fH
	DW	00H
	DW	0fe5fH
	DW	00H
	DW	0fe5fH
	DW	00H
	DW	0fe5fH
	DW	0fe5fH
	DW	0fe5fH
	DW	0fe5fH
	DW	00H
	DW	00H
	DW	00H
	DW	0fe5fH
	DW	0fe5fH
	DW	0fe5fH
	DW	0fe5fH
	DW	0fe5fH
	DW	00H
	DW	0fe5fH
	DW	0fe5fH
	DW	0fe5fH
	DW	00H
	DW	04aH
	DW	0327H
	DW	0fe5fH
	DW	0fe5fH
	DW	00H
	DW	00H
	DW	00H
	DW	0fe5fH
	DW	0fe5fH
	DW	0fe5fH
	DW	0fe5fH
	DW	0fe5fH
	DW	00H
	DW	0fe5fH
	DW	00H
	DW	0fe5fH
	DW	00H
	DW	00H
	DW	00H
	DW	00H
	DW	00H
	DW	00H
	DW	00H
	DW	00H
	DW	00H
	DW	0fe5fH
	DW	0fe5fH
	DW	0382H
	DW	0fe5fH
	DW	067H
	DW	00H
	DW	0328H
	DW	0329H
	DW	00H
	DW	00H
	DW	00H
	DW	00H
	DW	0fe5fH
	DW	00H
	DW	04f9H
	DW	00H
	DW	00H
	DW	00H
	DW	0fe5fH
	DW	00H
	DW	00H
	DW	00H
	DW	0fe5fH
	DW	00H
	DW	00H
	DW	00H
	DW	0fe5fH
	DW	00H
	DW	00H
	DW	00H
	DW	00H
	DW	0fe5fH
	DW	00H
	DW	00H
	DW	0fe5fH
	DW	0fe5fH
	DW	00H
	DW	00H
	DW	00H
	DW	0fe5fH
	DW	015H
	DW	00H
	DW	00H
	DW	00H
	DW	00H
	DW	00H
	DW	0ffb2H
	DW	00H
	DW	00H
	DW	00H
	DW	00H
	DW	01dH
	DW	01eH
	DW	01fH
	DW	020H
	DW	0fe5fH
	DW	0fe5fH
	DW	0fe5fH
	DW	0fe5fH
	DW	0fe5fH
	DW	00H
	DW	0ffb2H
	DW	0fe5fH
	DW	00H
	DW	0fe5fH
	DW	027H
	DW	00H
	DW	00H
	DW	00H
	DW	0fe5fH
	DW	00H
	DW	00H
	DW	00H
	DW	0fe5fH
	DW	0fe5fH
	DW	00H
	DW	0fe5fH
	DW	0fe5fH
	DW	00H
	DW	0fe5fH
	DW	067H
	DW	00H
	DW	00H
	DW	0fe5fH
	DW	0fe5fH
	DW	00H
	DW	0ffb2H
	DW	00H
	DW	0ffb2H
	DW	00H
	DW	00H
	DW	0ffb2H
	DW	00H
	DW	00H
	DW	00H
	DW	0fe5fH
	DW	00H
	DW	0fe5fH
	DW	0fd94H
	DW	00H
	DW	0ffb2H
	DW	00H
	DW	0fe5fH
	DW	00H
	DW	00H
	DW	033H
	DW	0270H
	DW	00H
	DW	00H
	DW	06eH
	DW	00H
	DW	00H
	DW	00H
	DW	0fd9dH
	DW	00H
	DW	00H
	DW	0fe5fH
	DW	00H
	DW	0fe5fH
	DW	0fe5fH
	DW	0fe5fH
	DW	0fe5fH
	DW	00H
	DW	0fe5fH
	DW	037H
	DW	0fe5fH
	DW	0fe5fH
	DW	0fe5fH
	DW	00H
	DW	00H
	DW	0fe5fH
	DW	00H
	DW	0fcadH
	DW	0fe5fH
	DW	0fe5fH
	DW	0fe5fH
	DW	0fe5fH
	DW	0fe5fH
	DW	00H
	DW	0fe5fH
	DW	00H
	DW	00H
	DW	0fe5fH
	DW	0fcadH
	DW	0fcadH
	DW	0fcadH
	DW	0fcadH
	DW	0fe5fH
	DW	00H
	DW	00H
	DW	00H
	DW	0fe5fH
	DW	0fe5fH
	DW	00H
	DW	00H
	DW	03c0H
	DW	0fe5fH
	DW	0fcadH
	DW	0fe5fH
	DW	00H
	DW	0fe5fH
	DW	00H
	DW	00H
	DW	0fe5fH
	DW	00H
	DW	0ffb2H
	DW	00H
	DW	0fe5fH
	DW	0fe5fH
	DW	0ffb2H
	DW	0fe5fH
	DW	0ffb2H
	DW	0fe5fH
	DW	00H
	DW	0ffb2H
	DW	0fe5fH
	DW	0ffb2H
	DW	00H
	DW	0fe5fH
	DW	00H
	DW	00H
	DW	00H
	DW	00H
	DW	00H
	DW	0fe5fH
	DW	0fe5fH
	DW	00H
	DW	00H
	DW	00H
	DW	00H
	DW	04aH
	DW	00H
	DW	0fe5fH
	DW	03cdH
	DW	00H
	DW	00H
	DW	00H
	DW	0fcadH
	DW	0fe5fH
	DW	0fe5fH
	DW	0fe5fH
	DW	00H
	DW	0fe5fH
	DW	00H
	DW	00H
	DW	00H
	DW	0fe5fH
	DW	03d6H
	DW	03d7H
	DW	03d8H
	DW	00H
	DW	00H
	DW	0fe5fH
	DW	0fe5fH
	DW	00H
	DW	00H
	DW	0fe5fH
	DW	00H
	DW	00H
	DW	00H
	DW	00H
	DW	00H
	DW	00H
	DW	00H
	DW	0fe5fH
	DW	00H
	DW	00H
	DW	00H
	DW	00H
	DW	0fe5fH
	DW	0fe5fH
	DW	0fe5fH
	DW	00H
	DW	00H
	DW	00H
	DW	0fe5fH
	DW	0fe5fH
	DW	0fe5fH
	DW	01a1H
	DW	0fe5fH
	DW	00H
	DW	0fe5fH
	DW	0fe5fH
	DW	0fe5fH
	DW	0fe5fH
	DW	00H
	DW	0fe5fH
	DW	0fe5fH
	DW	0fe5fH
	DW	0fe5fH
	DW	0fe5fH
	DW	0fe5fH
	DW	0fe5fH
	DW	0fe5fH
	DW	0fe5fH
	DW	0fe5fH
	DW	0fe5fH
	DW	0fe5fH
	DW	0fe5fH
	DW	0fe5fH
	DW	0fe5fH
	DW	0fe5fH
	DW	0fe5fH
	DW	0fe5fH
	DW	0fe5fH
	DW	0fe5fH
	DW	0fe5fH
	DW	0fe5fH
	DW	0fe5fH
	DW	0fe5fH
	DW	0fe5fH
	DW	0fe5fH
	DW	01a2H
	DW	0fe5fH
	DW	0fe5fH
	DW	00H
	DW	0fe5fH
	DW	0fe5fH
	DW	00H
	DW	00H
	DW	00H
	DW	00H
	DW	00H
	DW	00H
	DW	00H
	DW	00H
	DW	00H
	DW	00H
	DW	00H
	DW	03edH
	DW	03efH
	DW	03f1H
	DW	03f3H
	DW	00H
	DW	03f5H
	DW	067H
	DW	0193H
	DW	0194H
	DW	0195H
	DW	0196H
	DW	0197H
	DW	0198H
	DW	00H
	DW	00H
	DW	00H
	DW	00H
	DW	00H
	DW	0199H
	DW	019aH
	DW	019bH
	DW	019cH
	DW	019dH
	DW	019eH
	DW	00H
	DW	019fH
	DW	01a0H
	DW	0fe5fH
	DW	0482H
	DW	00H
	DW	03feH
	DW	03ffH
	DW	00H
	DW	03feH
	DW	00H
	DW	06eH
	DW	0fe5fH
	DW	0fe5fH
	DW	0fe5fH
	DW	0fe5fH
	DW	0fe5fH
	DW	00H
	DW	0fe5fH
	DW	0fe5fH
	DW	00H
	DW	0fe5fH
	DW	0fe5fH
	DW	0fe5fH
	DW	00H
	DW	00H
	DW	0fe5fH
	DW	0fe5fH
	DW	0fe5fH
	DW	0fe5fH
	DW	0fe5fH
	DW	0fe5fH
	DW	0fe5fH
	DW	0fe5fH
	DW	0fe5fH
	DW	0fe5fH
	DW	00H
	DW	0fe5fH
	DW	00H
	DW	0fe5fH
	DW	00H
	DW	0fe5fH
	DW	0fe5fH
	DW	0fe5fH
	DW	0fe5fH
	DW	00H
	DW	00H
	DW	00H
	DW	0fe5fH
	DW	0fe5fH
	DW	0fe5fH
	DW	0fe5fH
	DW	0fe5fH
	DW	00H
	DW	0fe5fH
	DW	0fe5fH
	DW	0fe5fH
	DW	00H
	DW	00H
	DW	00H
	DW	0fe5fH
	DW	0fe5fH
	DW	00H
	DW	00H
	DW	00H
	DW	0fe5fH
	DW	0fe5fH
	DW	0fe5fH
	DW	0fe5fH
	DW	0fe5fH
	DW	00H
	DW	0fe5fH
	DW	00H
	DW	0fe5fH
	DW	0fcadH
	DW	00H
	DW	00H
	DW	00H
	DW	00H
	DW	00H
	DW	00H
	DW	00H
	DW	00H
	DW	0fe5fH
	DW	0fe5fH
	DW	00H
	DW	0fe5fH
	DW	00H
	DW	00H
	DW	00H
	DW	00H
	DW	00H
	DW	00H
	DW	00H
	DW	00H
	DW	0fe5fH
	DW	00H
	DW	051cH
	DW	00H
	DW	00H
	DW	00H
	DW	0fe5fH
	DW	00H
	DW	00H
	DW	00H
	DW	0fe5fH
	DW	00H
	DW	00H
	DW	00H
	DW	0fe5fH
	DW	00H
	DW	00H
	DW	00H
	DW	00H
	DW	0fe5fH
	DW	00H
	DW	00H
	DW	0fe5fH
	DW	0fe5fH
	DW	00H
	DW	00H
	DW	00H
	DW	0fe5fH
	DW	015H
	DW	00H
	DW	00H
	DW	00H
	DW	00H
	DW	00H
	DW	00H
	DW	00H
	DW	00H
	DW	00H
	DW	00H
	DW	01dH
	DW	01eH
	DW	01fH
	DW	020H
	DW	0fe5fH
	DW	0fe5fH
	DW	0fe5fH
	DW	0fe5fH
	DW	0fe5fH
	DW	00H
	DW	00H
	DW	0fe5fH
	DW	00H
	DW	0fe5fH
	DW	027H
	DW	00H
	DW	00H
	DW	00H
	DW	0fe5fH
	DW	00H
	DW	00H
	DW	00H
	DW	0fe5fH
	DW	0fe5fH
	DW	00H
	DW	0fe5fH
	DW	0fe5fH
	DW	00H
	DW	0fe5fH
	DW	00H
	DW	00H
	DW	00H
	DW	0fe5fH
	DW	0fe5fH
	DW	00H
	DW	00H
	DW	00H
	DW	00H
	DW	00H
	DW	00H
	DW	00H
	DW	00H
	DW	00H
	DW	00H
	DW	0fe5fH
	DW	00H
	DW	0fe5fH
	DW	00H
	DW	00H
	DW	00H
	DW	00H
	DW	0fe5fH
	DW	00H
	DW	00H
	DW	033H
	DW	00H
	DW	00H
	DW	00H
	DW	00H
	DW	00H
	DW	00H
	DW	00H
	DW	00H
	DW	00H
	DW	00H
	DW	0fe5fH
	DW	00H
	DW	0fe5fH
	DW	0fe5fH
	DW	0fe5fH
	DW	0fe5fH
	DW	04b2H
	DW	0fe5fH
	DW	037H
	DW	0fe5fH
	DW	0fe5fH
	DW	0fe5fH
	DW	00H
	DW	00H
	DW	0fe5fH
	DW	00H
	DW	00H
	DW	0fe5fH
	DW	0fe5fH
	DW	0fe5fH
	DW	0fe5fH
	DW	0fe5fH
	DW	00H
	DW	0fe5fH
	DW	00H
	DW	00H
	DW	0fe5fH
	DW	00H
	DW	00H
	DW	00H
	DW	00H
	DW	0fe5fH
	DW	00H
	DW	00H
	DW	00H
	DW	0fe5fH
	DW	0fe5fH
	DW	00H
	DW	00H
	DW	00H
	DW	0fe5fH
	DW	00H
	DW	0fe5fH
	DW	00H
	DW	0fe5fH
	DW	00H
	DW	00H
	DW	0fe5fH
	DW	00H
	DW	00H
	DW	00H
	DW	0fe5fH
	DW	0fe5fH
	DW	00H
	DW	0fe5fH
	DW	00H
	DW	0fe5fH
	DW	00H
	DW	00H
	DW	0fe5fH
	DW	00H
	DW	00H
	DW	0fe5fH
	DW	00H
	DW	00H
	DW	00H
	DW	00H
	DW	03feH
	DW	0fe5fH
	DW	0fe5fH
	DW	00H
	DW	00H
	DW	00H
	DW	00H
	DW	04aH
	DW	00H
	DW	0fe5fH
	DW	00H
	DW	00H
	DW	00H
	DW	00H
	DW	00H
	DW	0fe5fH
	DW	0fe5fH
	DW	0fe5fH
	DW	00H
	DW	0fe5fH
	DW	00H
	DW	00H
	DW	00H
	DW	0fe5fH
	DW	00H
	DW	00H
	DW	0ff23H
	DW	029fH
	DW	00H
	DW	0fe5fH
	DW	0fe5fH
	DW	00H
	DW	00H
	DW	0fe5fH
	DW	00H
	DW	00H
	DW	00H
	DW	00H
	DW	00H
	DW	00H
	DW	00H
	DW	0fe5fH
	DW	00H
	DW	0ffa1H
	DW	02d8H
	DW	00H
	DW	0fe5fH
	DW	0fe5fH
	DW	0fe5fH
	DW	00H
	DW	00H
	DW	00H
	DW	0fe5fH
	DW	0fe5fH
	DW	0fe5fH
	DW	01a1H
	DW	0fe5fH
	DW	00H
	DW	0fe5fH
	DW	0fe5fH
	DW	0fe5fH
	DW	0fe5fH
	DW	00H
	DW	0fe5fH
	DW	0fe5fH
	DW	0fe5fH
	DW	0fe5fH
	DW	0fe5fH
	DW	0fe5fH
	DW	0fe5fH
	DW	0fe5fH
	DW	0fe5fH
	DW	0fe5fH
	DW	0fe5fH
	DW	0fe5fH
	DW	0fe5fH
	DW	0fe5fH
	DW	0fe5fH
	DW	0fe5fH
	DW	0fe5fH
	DW	0fe5fH
	DW	0fe5fH
	DW	0fe5fH
	DW	0fe5fH
	DW	0fe5fH
	DW	0fe5fH
	DW	0fe5fH
	DW	0fe5fH
	DW	0fe5fH
	DW	01a2H
	DW	0fe5fH
	DW	0fe5fH
	DW	00H
	DW	0fe5fH
	DW	0fe5fH
	DW	00H
	DW	00H
	DW	00H
	DW	0fd36H
	DW	0158H
	DW	00H
	DW	00H
	DW	00H
	DW	00H
	DW	00H
	DW	00H
	DW	00H
	DW	0fd36H
	DW	0fd36H
	DW	0fd36H
	DW	0fd36H
	DW	0fd36H
	DW	067H
	DW	0fd36H
	DW	0fd36H
	DW	00H
	DW	0fd36H
	DW	0fd36H
	DW	0fd36H
	DW	00H
	DW	00H
	DW	0fd36H
	DW	0fd36H
	DW	0fd36H
	DW	0fd36H
	DW	0fd36H
	DW	0fd36H
	DW	0fd36H
	DW	0fd36H
	DW	0fd36H
	DW	0fd36H
	DW	00H
	DW	0fd36H
	DW	00H
	DW	0fd36H
	DW	00H
	DW	0fd36H
	DW	0fd36H
	DW	0fd36H
	DW	0fd36H
	DW	00H
	DW	06eH
	DW	00H
	DW	0fd36H
	DW	0fd36H
	DW	0fd36H
	DW	0fd36H
	DW	0fd36H
	DW	00H
	DW	0fd36H
	DW	0fd36H
	DW	0fd36H
	DW	00H
	DW	00H
	DW	00H
	DW	0fd36H
	DW	0fd36H
	DW	00H
	DW	00H
	DW	00H
	DW	0fd36H
	DW	0fd36H
	DW	0fd36H
	DW	0fd36H
	DW	0fd36H
	DW	00H
	DW	0fd36H
	DW	00H
	DW	0fd36H
	DW	00H
	DW	00H
	DW	00H
	DW	00H
	DW	00H
	DW	00H
	DW	00H
	DW	00H
	DW	00H
	DW	0fd36H
	DW	0fd36H
	DW	00H
	DW	0fd36H
	DW	00H
	DW	00H
	DW	00H
	DW	00H
	DW	00H
	DW	00H
	DW	00H
	DW	00H
	DW	0fd36H
	DW	00H
	DW	00H
	DW	00H
	DW	00H
	DW	00H
	DW	0fd36H
	DW	00H
	DW	00H
	DW	00H
	DW	0fd36H
	DW	00H
	DW	00H
	DW	00H
	DW	0fd36H
	DW	00H
	DW	00H
	DW	00H
	DW	00H
	DW	0fd36H
	DW	00H
	DW	00H
	DW	0fd36H
	DW	0fd36H
	DW	00H
	DW	00H
	DW	00H
	DW	0fd36H
	DW	00H
	DW	00H
	DW	00H
	DW	00H
	DW	00H
	DW	00H
	DW	02a0H
	DW	00H
	DW	00H
	DW	00H
	DW	00H
	DW	00H
	DW	00H
	DW	00H
	DW	00H
	DW	0fd36H
	DW	0fd36H
	DW	0fd36H
	DW	0fd36H
	DW	0fd36H
	DW	00H
	DW	0ff23H
	DW	0fd36H
	DW	0ffa1H
	DW	0fd36H
	DW	00H
	DW	00H
	DW	00H
	DW	00H
	DW	0fd36H
	DW	00H
	DW	00H
	DW	00H
	DW	0fd36H
	DW	0fd36H
	DW	00H
	DW	0fd36H
	DW	0fd36H
	DW	02d9H
	DW	0fd36H
	DW	00H
	DW	00H
	DW	00H
	DW	0fd36H
	DW	0fd36H
	DW	00H
	DW	0ff23H
	DW	00H
	DW	0ff23H
	DW	00H
	DW	00H
	DW	0ff23H
	DW	00H
	DW	00H
	DW	00H
	DW	0fd36H
	DW	00H
	DW	0fd36H
	DW	00H
	DW	00H
	DW	0ff23H
	DW	00H
	DW	0fd36H
	DW	02daH
	DW	00H
	DW	02dbH
	DW	00H
	DW	00H
	DW	02dcH
	DW	00H
	DW	00H
	DW	00H
	DW	00H
	DW	03feH
	DW	00H
	DW	00H
	DW	0fd36H
	DW	0ffa1H
	DW	0fd36H
	DW	0fd36H
	DW	0fd36H
	DW	0fd36H
	DW	00H
	DW	0fd36H
	DW	00H
	DW	0fd36H
	DW	0fd36H
	DW	0fd36H
	DW	00H
	DW	00H
	DW	0fd36H
	DW	00H
	DW	00H
	DW	0fd36H
	DW	0fd36H
	DW	0fd36H
	DW	0fd36H
	DW	0fd36H
	DW	00H
	DW	0fd36H
	DW	00H
	DW	00H
	DW	0fd36H
	DW	00H
	DW	00H
	DW	00H
	DW	00H
	DW	0fd36H
	DW	00H
	DW	00H
	DW	00H
	DW	0fd36H
	DW	0fd36H
	DW	00H
	DW	00H
	DW	00H
	DW	0fd36H
	DW	00H
	DW	0fd36H
	DW	00H
	DW	0fd36H
	DW	00H
	DW	00H
	DW	0fd36H
	DW	00H
	DW	0ff23H
	DW	00H
	DW	0fd36H
	DW	0fd36H
	DW	0ff23H
	DW	0fd36H
	DW	0ff23H
	DW	0fd36H
	DW	00H
	DW	0ff23H
	DW	0fd36H
	DW	0ff23H
	DW	00H
	DW	0fd36H
	DW	00H
	DW	00H
	DW	0278H
	DW	0ffa1H
	DW	00H
	DW	0fd36H
	DW	0fd36H
	DW	0ffa1H
	DW	00H
	DW	0ffa1H
	DW	00H
	DW	00H
	DW	02deH
	DW	0fd36H
	DW	0ffa1H
	DW	00H
	DW	00H
	DW	00H
	DW	00H
	DW	0fd36H
	DW	0fd36H
	DW	0fd36H
	DW	00H
	DW	0fd36H
	DW	00H
	DW	00H
	DW	00H
	DW	0fd36H
	DW	0fcb4H
	DW	00H
	DW	00H
	DW	00H
	DW	0582H
	DW	0fd36H
	DW	0fd36H
	DW	00H
	DW	00H
	DW	0fd36H
	DW	00H
	DW	0fcb4H
	DW	0fcb4H
	DW	0fcb4H
	DW	0fcb4H
	DW	00H
	DW	00H
	DW	0fd36H
	DW	00H
	DW	00H
	DW	00H
	DW	00H
	DW	0fd36H
	DW	0fd36H
	DW	0fd36H
	DW	0fcb4H
	DW	00H
	DW	00H
	DW	0fd36H
	DW	0159H
	DW	0fd36H
	DW	0fd36H
	DW	0fd36H
	DW	00H
	DW	0fd36H
	DW	0fd36H
	DW	0fd36H
	DW	0fd36H
	DW	00H
	DW	0fd36H
	DW	0fd36H
	DW	0fd36H
	DW	0fd36H
	DW	0fd36H
	DW	0fd36H
	DW	0fd36H
	DW	0fd36H
	DW	0fd36H
	DW	0fd36H
	DW	0fd36H
	DW	0fd36H
	DW	0fd36H
	DW	0fd36H
	DW	0fd36H
	DW	0fd36H
	DW	0fd36H
	DW	0fd36H
	DW	0fd36H
	DW	0fd36H
	DW	0fd36H
	DW	0fd36H
	DW	0fd36H
	DW	0fd36H
	DW	0fd36H
	DW	0fd36H
	DW	0fcb4H
	DW	0fd36H
	DW	0fd36H
	DW	00H
	DW	0fd36H
	DW	0fd36H
	DW	0fd35H
	DW	015fH
	DW	00H
	DW	00H
	DW	00H
	DW	00H
	DW	00H
	DW	00H
	DW	00H
	DW	0fd35H
	DW	0fd35H
	DW	0fd35H
	DW	0fd35H
	DW	0fd35H
	DW	00H
	DW	0fd35H
	DW	0fd35H
	DW	00H
	DW	0fd35H
	DW	0fd35H
	DW	0fd35H
	DW	00H
	DW	00H
	DW	0fd35H
	DW	0fd35H
	DW	0fd35H
	DW	0fd35H
	DW	0fd35H
	DW	0fd35H
	DW	0fd35H
	DW	0fd35H
	DW	0fd35H
	DW	0fd35H
	DW	00H
	DW	0fd35H
	DW	00H
	DW	0fd35H
	DW	00H
	DW	0fd35H
	DW	0fd35H
	DW	0fd35H
	DW	0fd35H
	DW	00H
	DW	00H
	DW	00H
	DW	0fd35H
	DW	0fd35H
	DW	0fd35H
	DW	0fd35H
	DW	0fd35H
	DW	00H
	DW	0fd35H
	DW	0fd35H
	DW	0fd35H
	DW	00H
	DW	00H
	DW	00H
	DW	0fd35H
	DW	0fd35H
	DW	00H
	DW	00H
	DW	00H
	DW	0fd35H
	DW	0fd35H
	DW	0fd35H
	DW	0fd35H
	DW	0fd35H
	DW	00H
	DW	0fd35H
	DW	00H
	DW	0fd35H
	DW	00H
	DW	00H
	DW	00H
	DW	00H
	DW	00H
	DW	00H
	DW	00H
	DW	00H
	DW	00H
	DW	0fd35H
	DW	0fd35H
	DW	00H
	DW	0fd35H
	DW	00H
	DW	00H
	DW	00H
	DW	00H
	DW	00H
	DW	00H
	DW	00H
	DW	00H
	DW	0fd35H
	DW	00H
	DW	00H
	DW	00H
	DW	00H
	DW	00H
	DW	0fd35H
	DW	00H
	DW	00H
	DW	00H
	DW	0fd35H
	DW	00H
	DW	00H
	DW	00H
	DW	0fd35H
	DW	00H
	DW	00H
	DW	015H
	DW	00H
	DW	0fd35H
	DW	00H
	DW	00H
	DW	0fd35H
	DW	0fd35H
	DW	00H
	DW	00H
	DW	00H
	DW	0fd35H
	DW	01dH
	DW	01eH
	DW	01fH
	DW	020H
	DW	00H
	DW	00H
	DW	00H
	DW	00H
	DW	00H
	DW	00H
	DW	00H
	DW	00H
	DW	0579H
	DW	00H
	DW	027H
	DW	0fd35H
	DW	0fd35H
	DW	0fd35H
	DW	0fd35H
	DW	0fd35H
	DW	00H
	DW	00H
	DW	0fd35H
	DW	00H
	DW	0fd35H
	DW	00H
	DW	00H
	DW	00H
	DW	00H
	DW	0fd35H
	DW	00H
	DW	00H
	DW	00H
	DW	0fd35H
	DW	0fd35H
	DW	00H
	DW	0fd35H
	DW	0fd35H
	DW	015H
	DW	0fd35H
	DW	00H
	DW	00H
	DW	00H
	DW	0fd35H
	DW	0fd35H
	DW	00H
	DW	00H
	DW	00H
	DW	00H
	DW	01dH
	DW	01eH
	DW	01fH
	DW	020H
	DW	00H
	DW	033H
	DW	0fd35H
	DW	00H
	DW	0fd35H
	DW	00H
	DW	00H
	DW	00H
	DW	00H
	DW	0fd35H
	DW	027H
	DW	0fcb4H
	DW	00H
	DW	00H
	DW	00H
	DW	00H
	DW	00H
	DW	00H
	DW	00H
	DW	00H
	DW	037H
	DW	00H
	DW	00H
	DW	0fd35H
	DW	00H
	DW	0fd35H
	DW	0fd35H
	DW	0fd35H
	DW	0fd35H
	DW	00H
	DW	0fd35H
	DW	00H
	DW	0fd35H
	DW	0fd35H
	DW	0fd35H
	DW	00H
	DW	00H
	DW	0fd35H
	DW	00H
	DW	00H
	DW	0fd35H
	DW	0fd35H
	DW	0fd35H
	DW	0fd35H
	DW	0fd35H
	DW	00H
	DW	0fd35H
	DW	00H
	DW	00H
	DW	0fd35H
	DW	033H
	DW	00H
	DW	00H
	DW	00H
	DW	0fd35H
	DW	00H
	DW	00H
	DW	00H
	DW	0fd35H
	DW	0fd35H
	DW	00H
	DW	00H
	DW	00H
	DW	0fd35H
	DW	00H
	DW	0fd35H
	DW	00H
	DW	0fd35H
	DW	00H
	DW	037H
	DW	0fd35H
	DW	00H
	DW	00H
	DW	00H
	DW	0fd35H
	DW	0fd35H
	DW	00H
	DW	0fd35H
	DW	00H
	DW	0fd35H
	DW	00H
	DW	00H
	DW	0fd35H
	DW	00H
	DW	00H
	DW	0fd35H
	DW	04aH
	DW	00H
	DW	027bH
	DW	00H
	DW	00H
	DW	0fd35H
	DW	0fd35H
	DW	00H
	DW	00H
	DW	00H
	DW	00H
	DW	00H
	DW	00H
	DW	0fd35H
	DW	00H
	DW	00H
	DW	00H
	DW	00H
	DW	00H
	DW	0fd35H
	DW	0fd35H
	DW	0fd35H
	DW	00H
	DW	0fd35H
	DW	00H
	DW	00H
	DW	00H
	DW	0fd35H
	DW	0fd9fH
	DW	00H
	DW	00H
	DW	00H
	DW	00H
	DW	0fd35H
	DW	0fd35H
	DW	00H
	DW	00H
	DW	0fd35H
	DW	00H
	DW	0fd9fH
	DW	0fd9fH
	DW	0fd9fH
	DW	0fd9fH
	DW	00H
	DW	00H
	DW	0fd35H
	DW	00H
	DW	00H
	DW	00H
	DW	04aH
	DW	0fd35H
	DW	0fd35H
	DW	0fd35H
	DW	0fd9fH
	DW	00H
	DW	00H
	DW	0fd35H
	DW	0160H
	DW	0fd35H
	DW	0fd35H
	DW	0fd35H
	DW	00H
	DW	0fd35H
	DW	0fd35H
	DW	0fd35H
	DW	0fd35H
	DW	00H
	DW	0fd35H
	DW	0fd35H
	DW	0fd35H
	DW	0fd35H
	DW	0fd35H
	DW	0fd35H
	DW	0fd35H
	DW	0fd35H
	DW	0fd35H
	DW	0fd35H
	DW	0fd35H
	DW	0fd35H
	DW	0fd35H
	DW	0fd35H
	DW	0fd35H
	DW	0fd35H
	DW	0fd35H
	DW	0fd35H
	DW	0fd35H
	DW	0fd35H
	DW	0fd35H
	DW	0fd35H
	DW	0fd35H
	DW	0fd35H
	DW	0fd35H
	DW	0fd35H
	DW	0fd9fH
	DW	0fd35H
	DW	0fd35H
	DW	00H
	DW	0fd35H
	DW	0fd35H
	DW	0fdd1H
	DW	016bH
	DW	00H
	DW	00H
	DW	00H
	DW	00H
	DW	067H
	DW	00H
	DW	00H
	DW	0fdd1H
	DW	0fdd1H
	DW	0fdd1H
	DW	0fdd1H
	DW	0fdd1H
	DW	00H
	DW	0fdd1H
	DW	0fdd1H
	DW	00H
	DW	0fdd1H
	DW	0fdd1H
	DW	0fdd1H
	DW	00H
	DW	00H
	DW	0fdd1H
	DW	0fdd1H
	DW	0fdd1H
	DW	0fdd1H
	DW	0fdd1H
	DW	0fdd1H
	DW	0fdd1H
	DW	0fdd1H
	DW	0fdd1H
	DW	0fdd1H
	DW	00H
	DW	0fdd1H
	DW	06eH
	DW	0fdd1H
	DW	00H
	DW	0fdd1H
	DW	0fdd1H
	DW	0fdd1H
	DW	0fdd1H
	DW	00H
	DW	00H
	DW	00H
	DW	0fdd1H
	DW	0fdd1H
	DW	0fdd1H
	DW	0fdd1H
	DW	0fdd1H
	DW	00H
	DW	0fdd1H
	DW	0fdd1H
	DW	0fdd1H
	DW	00H
	DW	067H
	DW	00H
	DW	0fdd1H
	DW	0fdd1H
	DW	00H
	DW	00H
	DW	00H
	DW	0fdd1H
	DW	0fdd1H
	DW	0fdd1H
	DW	0fdd1H
	DW	0fdd1H
	DW	00H
	DW	0fdd1H
	DW	00H
	DW	0fdd1H
	DW	01b4H
	DW	00H
	DW	00H
	DW	00H
	DW	00H
	DW	00H
	DW	00H
	DW	00H
	DW	00H
	DW	0fdd1H
	DW	0fdd1H
	DW	00H
	DW	0fdd1H
	DW	06eH
	DW	00H
	DW	00H
	DW	00H
	DW	00H
	DW	00H
	DW	00H
	DW	00H
	DW	0fdd1H
	DW	00H
	DW	02a1H
	DW	00H
	DW	00H
	DW	00H
	DW	0fdd1H
	DW	00H
	DW	00H
	DW	00H
	DW	0fdd1H
	DW	00H
	DW	01b5H
	DW	00H
	DW	0fdd1H
	DW	00H
	DW	00H
	DW	00H
	DW	00H
	DW	0fdd1H
	DW	00H
	DW	00H
	DW	0fdd1H
	DW	0fdd1H
	DW	00H
	DW	00H
	DW	00H
	DW	0fdd1H
	DW	0fdafH
	DW	00H
	DW	00H
	DW	00H
	DW	00H
	DW	00H
	DW	00H
	DW	00H
	DW	00H
	DW	00H
	DW	00H
	DW	0fdafH
	DW	0fdafH
	DW	0fdafH
	DW	0fdafH
	DW	0fdd1H
	DW	0fdd1H
	DW	0fdd1H
	DW	0fdd1H
	DW	0fdd1H
	DW	00H
	DW	00H
	DW	0fdd1H
	DW	00H
	DW	0fdd1H
	DW	0fdafH
	DW	00H
	DW	00H
	DW	00H
	DW	0fdd1H
	DW	00H
	DW	00H
	DW	00H
	DW	0fdd1H
	DW	0fdd1H
	DW	00H
	DW	0fdd1H
	DW	0fdd1H
	DW	00H
	DW	0fdd1H
	DW	00H
	DW	00H
	DW	00H
	DW	0fdd1H
	DW	0fdd1H
	DW	00H
	DW	00H
	DW	00H
	DW	00H
	DW	00H
	DW	00H
	DW	00H
	DW	00H
	DW	00H
	DW	00H
	DW	0fdd1H
	DW	01b8H
	DW	0fdd1H
	DW	00H
	DW	00H
	DW	00H
	DW	00H
	DW	0fdd1H
	DW	00H
	DW	0fd9fH
	DW	0fdafH
	DW	02a2H
	DW	00H
	DW	00H
	DW	00H
	DW	00H
	DW	00H
	DW	00H
	DW	01b9H
	DW	00H
	DW	00H
	DW	0fdd1H
	DW	00H
	DW	0fdd1H
	DW	0fdd1H
	DW	0fdd1H
	DW	0fdd1H
	DW	00H
	DW	0fdd1H
	DW	00H
	DW	0fdd1H
	DW	0fdd1H
	DW	0fdd1H
	DW	00H
	DW	00H
	DW	0fdd1H
	DW	00H
	DW	0fdaeH
	DW	0fdd1H
	DW	0fdd1H
	DW	0fdd1H
	DW	0fdd1H
	DW	0fdd1H
	DW	00H
	DW	0fdd1H
	DW	01baH
	DW	00H
	DW	0fdd1H
	DW	0fdaeH
	DW	0fdaeH
	DW	0fdaeH
	DW	0fdaeH
	DW	0fdd1H
	DW	01bbH
	DW	00H
	DW	00H
	DW	0fdd1H
	DW	0fdd1H
	DW	00H
	DW	00H
	DW	00H
	DW	0fdd1H
	DW	0fdaeH
	DW	0fdd1H
	DW	01bcH
	DW	0fdd1H
	DW	00H
	DW	00H
	DW	0fdd1H
	DW	00H
	DW	01bdH
	DW	00H
	DW	0fdd1H
